; Listing generated by Microsoft (R) Optimizing Compiler Version 14.00.50727.762 

	TITLE	c:\Users\John\OneDrive\Dev\Source\ARDOPC\ARQ.c
	.686P
	.XMM
	include listing.inc
	.model	flat

INCLUDELIB LIBCMTD
INCLUDELIB OLDNAMES

PUBLIC	_intLastFrameIDToHost
PUBLIC	_intLastFailedFrameID
PUBLIC	_intLastARQDataFrameToHost
PUBLIC	_intARQDefaultDlyMs
PUBLIC	_intShiftUpDn
PUBLIC	_intFrameTypePtr
PUBLIC	_intRmtLeaderMeas
PUBLIC	_intTrackingQuality
PUBLIC	_bytLastARQDataFrameSent
PUBLIC	_bytLastARQDataFrameAcked
PUBLIC	_bytQDataInProcessLen
PUBLIC	_blnLastFrameSentData
PUBLIC	_AuxCalls
PUBLIC	_AuxCallsLength
PUBLIC	_ARQBandwidths
PUBLIC	_ARQSubStates
PUBLIC	_blnListen
PUBLIC	_bytSessionID
PUBLIC	_bytCurrentFrameType
PUBLIC	_bytFrameTypesForBWLength
PUBLIC	_tmrFinalID
PUBLIC	_tmrIRSPendingTimeout
PUBLIC	_intOBBytesToConfirm
PUBLIC	_intBytesConfirmed
PUBLIC	_intReportedLeaderLen
PUBLIC	_blnLastPSNPassed
PUBLIC	_blnInitiatedConnection
PUBLIC	_dblAvgPECreepPerCarrier
PUBLIC	_intTotalSymbols
_DATA	SEGMENT
COMM	_intNAKctr:DWORD
COMM	_intAvgQuality:DWORD
COMM	_bytLastARQSessionID:BYTE
COMM	_blnPending:DWORD
COMM	_dttTimeoutTrip:DWORD
COMM	_bytPendingSessionID:BYTE
COMM	_tmrPollOBQueue:DWORD
COMM	_blnARQConnected:DWORD
COMM	_ARQState:DWORD
COMM	_bytFrameTypesForBW:DWORD
COMM	_blnEnbARQRpt:DWORD
COMM	_dttLastIDSent:DWORD
COMM	_bytLastReceivedDataFrameType:BYTE
COMM	_strFinalIDCallsign:BYTE:0aH
COMM	_intBW:DWORD
COMM	_intFrameRepeatInterval:DWORD
COMM	_blnDISCRepeating:DWORD
COMM	_intSessionBW:DWORD
COMM	_intReceivedLeaderLen:DWORD
COMM	_strLocalCallsign:BYTE:0aH
COMM	_strRemoteCallsign:BYTE:0aH
_DATA	ENDS
_BSS	SEGMENT
_intLastFrameIDToHost DD 01H DUP (?)
_intLastFailedFrameID DD 01H DUP (?)
_intShiftUpDn DD 01H DUP (?)
_intFrameTypePtr DD 01H DUP (?)
_intRmtLeaderMeas DD 01H DUP (?)
_bytLastARQDataFrameSent DB 01H DUP (?)
	ALIGN	4

_bytLastARQDataFrameAcked DB 01H DUP (?)
	ALIGN	4

_bytQDataInProcessLen DD 01H DUP (?)
_blnLastFrameSentData DD 01H DUP (?)
_AuxCalls DB	064H DUP (?)
_AuxCallsLength DD 01H DUP (?)
_bytCurrentFrameType DB 01H DUP (?)
	ALIGN	4

_bytFrameTypesForBWLength DD 01H DUP (?)
_tmrFinalID DD	01H DUP (?)
_tmrIRSPendingTimeout DD 01H DUP (?)
_intOBBytesToConfirm DD 01H DUP (?)
_intBytesConfirmed DD 01H DUP (?)
_intReportedLeaderLen DD 01H DUP (?)
_blnLastPSNPassed DD 01H DUP (?)
_blnInitiatedConnection DD 01H DUP (?)
_dblAvgPECreepPerCarrier DW 01H DUP (?)
	ALIGN	4

_intTotalSymbols DD 01H DUP (?)
_NoDataModes DB	01H DUP (?)
	ALIGN	4

?strLastStringPassedToHost@?1??ProcessUnconnectedConReqFrame@@9@9 DB 050H DUP (?) ; `ProcessUnconnectedConReqFrame'::`2'::strLastStringPassedToHost
_BSS	ENDS
CONST	SEGMENT
_ARQBandwidths DB '200FORCED', 00H
	ORG $+2
	DB	'500FORCED', 00H
	ORG $+2
	DB	'1000FORCED', 00H
	ORG $+1
	DB	'2000FORCED', 00H
	ORG $+1
	DB	'200MAX', 00H
	ORG $+5
	DB	'500MAX', 00H
	ORG $+5
	DB	'1000MAX', 00H
	ORG $+4
	DB	'2000MAX', 00H
	ORG $+4
_ARQSubStates DB 'None', 00H
	ORG $+6
	DB	'ISSConReq', 00H
	ORG $+1
	DB	'ISSConAck', 00H
	ORG $+1
	DB	'ISSData', 00H
	ORG $+3
	DB	'ISSId', 00H
	ORG $+5
	DB	'IRSConAck', 00H
	ORG $+1
	DB	'IRSData', 00H
	ORG $+3
	DB	'IRSBreak', 00H
	ORG $+2
	DB	'IRSfromISS', 00H
	DB	'DISCArqEnd', 00H
CONST	ENDS
_DATA	SEGMENT
_intLastARQDataFrameToHost DD 0ffffffffH
_intARQDefaultDlyMs DD 012cH
_intTrackingQuality DD 0ffffffffH
_blnListen DD	01H
_bytSessionID DB 0ffH
	ORG $+3
_DataModes200 DB 04eH
	DB	046H
	DB	040H
	DB	044H
_DataModes500 DB 05aH
	DB	058H
	DB	04aH
	DB	050H
	DB	052H
	DB	056H
	ORG $+2
_DataModes1000 DB 05aH
	DB	058H
	DB	04aH
	DB	068H
	DB	060H
	DB	062H
	DB	066H
	ORG $+1
_DataModes2000 DB 05aH
	DB	058H
	DB	04aH
	DB	068H
	DB	078H
	DB	070H
	DB	072H
	DB	076H
_DataModes2000FM DB 04cH
	DB	04aH
	DB	07cH
	DB	07aH
	DB	070H
	DB	072H
_DATA	ENDS
PUBLIC	_GenCRC8
EXTRN	_strlen:PROC
EXTRN	__RTC_CheckEsp:PROC
EXTRN	__RTC_Shutdown:PROC
EXTRN	__RTC_InitBase:PROC
;	COMDAT rtc$TMZ
; File c:\users\john\onedrive\dev\source\ardopc\arq.c
rtc$TMZ	SEGMENT
__RTC_Shutdown.rtc$TMZ DD FLAT:__RTC_Shutdown
rtc$TMZ	ENDS
;	COMDAT rtc$IMZ
rtc$IMZ	SEGMENT
__RTC_InitBase.rtc$IMZ DD FLAT:__RTC_InitBase
; Function compile flags: /Odtp /RTCsu /ZI
rtc$IMZ	ENDS
;	COMDAT _GenCRC8
_TEXT	SEGMENT
_Val$28309 = -68					; size = 4
_blnBit$ = -56						; size = 4
_j$ = -44						; size = 4
_i$ = -32						; size = 4
_intRegister$ = -20					; size = 4
_intPoly$ = -8						; size = 4
_Data$ = 8						; size = 4
_GenCRC8 PROC						; COMDAT

; 119  : {

  00000	55		 push	 ebp
  00001	8b ec		 mov	 ebp, esp
  00003	81 ec 08 01 00
	00		 sub	 esp, 264		; 00000108H
  00009	53		 push	 ebx
  0000a	56		 push	 esi
  0000b	57		 push	 edi
  0000c	8d bd f8 fe ff
	ff		 lea	 edi, DWORD PTR [ebp-264]
  00012	b9 42 00 00 00	 mov	 ecx, 66			; 00000042H
  00017	b8 cc cc cc cc	 mov	 eax, -858993460		; ccccccccH
  0001c	f3 ab		 rep stosd

; 120  : 	//For  CRC-8-CCITT =    x^8 + x^7 +x^3 + x^2 + 1  intPoly = 1021 Init FFFF
; 121  : 
; 122  : 	int intPoly = 0xC6; // This implements the CRC polynomial  x^8 + x^7 +x^3 + x^2 + 1

  0001e	c7 45 f8 c6 00
	00 00		 mov	 DWORD PTR _intPoly$[ebp], 198 ; 000000c6H

; 123  : 	int intRegister  = 0xFF;

  00025	c7 45 ec ff 00
	00 00		 mov	 DWORD PTR _intRegister$[ebp], 255 ; 000000ffH

; 124  : 	int i; 
; 125  : 	unsigned int j;
; 126  : 	BOOL blnBit;
; 127  : 
; 128  : 	for (j = 0; j < strlen(Data); j++)

  0002c	c7 45 d4 00 00
	00 00		 mov	 DWORD PTR _j$[ebp], 0
  00033	eb 09		 jmp	 SHORT $LN12@GenCRC8
$LN11@GenCRC8:
  00035	8b 45 d4	 mov	 eax, DWORD PTR _j$[ebp]
  00038	83 c0 01	 add	 eax, 1
  0003b	89 45 d4	 mov	 DWORD PTR _j$[ebp], eax
$LN12@GenCRC8:
  0003e	8b 45 08	 mov	 eax, DWORD PTR _Data$[ebp]
  00041	50		 push	 eax
  00042	e8 00 00 00 00	 call	 _strlen
  00047	83 c4 04	 add	 esp, 4
  0004a	39 45 d4	 cmp	 DWORD PTR _j$[ebp], eax
  0004d	0f 83 a6 00 00
	00		 jae	 $LN10@GenCRC8

; 129  : 	{
; 130  : 		int Val = Data[j];

  00053	8b 45 08	 mov	 eax, DWORD PTR _Data$[ebp]
  00056	03 45 d4	 add	 eax, DWORD PTR _j$[ebp]
  00059	0f be 08	 movsx	 ecx, BYTE PTR [eax]
  0005c	89 4d bc	 mov	 DWORD PTR _Val$28309[ebp], ecx

; 131  : 		
; 132  : 		for (i = 7; i >= 0; i--) // for each bit processing MS bit first

  0005f	c7 45 e0 07 00
	00 00		 mov	 DWORD PTR _i$[ebp], 7
  00066	eb 09		 jmp	 SHORT $LN9@GenCRC8
$LN8@GenCRC8:
  00068	8b 45 e0	 mov	 eax, DWORD PTR _i$[ebp]
  0006b	83 e8 01	 sub	 eax, 1
  0006e	89 45 e0	 mov	 DWORD PTR _i$[ebp], eax
$LN9@GenCRC8:
  00071	83 7d e0 00	 cmp	 DWORD PTR _i$[ebp], 0
  00075	7c 7d		 jl	 SHORT $LN7@GenCRC8

; 133  : 		{
; 134  :             blnBit = (Val & 0x80) != 0;

  00077	8b 45 bc	 mov	 eax, DWORD PTR _Val$28309[ebp]
  0007a	25 80 00 00 00	 and	 eax, 128		; 00000080H
  0007f	f7 d8		 neg	 eax
  00081	1b c0		 sbb	 eax, eax
  00083	f7 d8		 neg	 eax
  00085	89 45 c8	 mov	 DWORD PTR _blnBit$[ebp], eax

; 135  : 			Val = Val << 1;

  00088	8b 45 bc	 mov	 eax, DWORD PTR _Val$28309[ebp]
  0008b	d1 e0		 shl	 eax, 1
  0008d	89 45 bc	 mov	 DWORD PTR _Val$28309[ebp], eax

; 136  : 
; 137  : 			if ((intRegister & 0x80) == 0x80)  // the MSB of the register is set

  00090	8b 45 ec	 mov	 eax, DWORD PTR _intRegister$[ebp]
  00093	25 80 00 00 00	 and	 eax, 128		; 00000080H
  00098	74 30		 je	 SHORT $LN6@GenCRC8

; 138  : 			{
; 139  : 				// Shift left, place data bit as LSB, then divide
; 140  : 				// Register := shiftRegister left shift 1
; 141  : 				// Register := shiftRegister xor polynomial
; 142  : 
; 143  : 				if (blnBit) 

  0009a	83 7d c8 00	 cmp	 DWORD PTR _blnBit$[ebp], 0
  0009e	74 12		 je	 SHORT $LN5@GenCRC8

; 144  : 					intRegister = 0xFF & (1 + 2 * intRegister);

  000a0	8b 45 ec	 mov	 eax, DWORD PTR _intRegister$[ebp]
  000a3	8d 4c 00 01	 lea	 ecx, DWORD PTR [eax+eax+1]
  000a7	81 e1 ff 00 00
	00		 and	 ecx, 255		; 000000ffH
  000ad	89 4d ec	 mov	 DWORD PTR _intRegister$[ebp], ecx

; 145  : 				else

  000b0	eb 0d		 jmp	 SHORT $LN4@GenCRC8
$LN5@GenCRC8:

; 146  : 					intRegister = 0xFF & (2 * intRegister);

  000b2	8b 45 ec	 mov	 eax, DWORD PTR _intRegister$[ebp]
  000b5	d1 e0		 shl	 eax, 1
  000b7	25 ff 00 00 00	 and	 eax, 255		; 000000ffH
  000bc	89 45 ec	 mov	 DWORD PTR _intRegister$[ebp], eax
$LN4@GenCRC8:

; 147  :                  
; 148  : 				intRegister = intRegister ^ intPoly;

  000bf	8b 45 ec	 mov	 eax, DWORD PTR _intRegister$[ebp]
  000c2	33 45 f8	 xor	 eax, DWORD PTR _intPoly$[ebp]
  000c5	89 45 ec	 mov	 DWORD PTR _intRegister$[ebp], eax

; 149  : 			}
; 150  : 			else

  000c8	eb 25		 jmp	 SHORT $LN3@GenCRC8
$LN6@GenCRC8:

; 151  : 			{
; 152  : 				// the MSB is not set
; 153  : 				// Register is not divisible by polynomial yet.
; 154  : 				// Just shift left and bring current data bit onto LSB of shiftRegister
; 155  : 
; 156  : 				if (blnBit)

  000ca	83 7d c8 00	 cmp	 DWORD PTR _blnBit$[ebp], 0
  000ce	74 12		 je	 SHORT $LN2@GenCRC8

; 157  : 					intRegister = 0xFF & (1 + 2 * intRegister);

  000d0	8b 45 ec	 mov	 eax, DWORD PTR _intRegister$[ebp]
  000d3	8d 4c 00 01	 lea	 ecx, DWORD PTR [eax+eax+1]
  000d7	81 e1 ff 00 00
	00		 and	 ecx, 255		; 000000ffH
  000dd	89 4d ec	 mov	 DWORD PTR _intRegister$[ebp], ecx

; 158  : 				else

  000e0	eb 0d		 jmp	 SHORT $LN3@GenCRC8
$LN2@GenCRC8:

; 159  : 					intRegister = 0xFF & (2 * intRegister);

  000e2	8b 45 ec	 mov	 eax, DWORD PTR _intRegister$[ebp]
  000e5	d1 e0		 shl	 eax, 1
  000e7	25 ff 00 00 00	 and	 eax, 255		; 000000ffH
  000ec	89 45 ec	 mov	 DWORD PTR _intRegister$[ebp], eax
$LN3@GenCRC8:

; 160  : 			}
; 161  : 		}

  000ef	e9 74 ff ff ff	 jmp	 $LN8@GenCRC8
$LN7@GenCRC8:

; 162  : 	}

  000f4	e9 3c ff ff ff	 jmp	 $LN11@GenCRC8
$LN10@GenCRC8:

; 163  : 	return intRegister & 0xFF; // LS 8 bits of Register 

  000f9	8b 45 ec	 mov	 eax, DWORD PTR _intRegister$[ebp]
  000fc	25 ff 00 00 00	 and	 eax, 255		; 000000ffH

; 164  : 
; 165  : }

  00101	5f		 pop	 edi
  00102	5e		 pop	 esi
  00103	5b		 pop	 ebx
  00104	81 c4 08 01 00
	00		 add	 esp, 264		; 00000108H
  0010a	3b ec		 cmp	 ebp, esp
  0010c	e8 00 00 00 00	 call	 __RTC_CheckEsp
  00111	8b e5		 mov	 esp, ebp
  00113	5d		 pop	 ebp
  00114	c3		 ret	 0
_GenCRC8 ENDP
_TEXT	ENDS
PUBLIC	??_C@_0N@MLBOBHLL@NEWSTATE?5?$CFs?5?$AA@	; `string'
PUBLIC	_InitializeConnection
PUBLIC	__$ArrayPad$
PUBLIC	_SetARDOPProtocolState
EXTRN	_QueueCommandToHost:PROC
EXTRN	_sprintf:PROC
EXTRN	_ARDOPStates:BYTE
EXTRN	_ClearDataToSend:PROC
EXTRN	_blnARQDisconnect:DWORD
EXTRN	_newStatus:DWORD
EXTRN	_displayState:PROC
EXTRN	_ProtocolState:DWORD
EXTRN	___security_cookie:DWORD
EXTRN	@__security_check_cookie@4:PROC
EXTRN	@_RTC_CheckStackVars@8:PROC
;	COMDAT ??_C@_0N@MLBOBHLL@NEWSTATE?5?$CFs?5?$AA@
CONST	SEGMENT
??_C@_0N@MLBOBHLL@NEWSTATE?5?$CFs?5?$AA@ DB 'NEWSTATE %s ', 00H ; `string'
; Function compile flags: /Odtp /RTCsu /ZI
CONST	ENDS
;	COMDAT _SetARDOPProtocolState
_TEXT	SEGMENT
tv65 = -232						; size = 4
_HostCmd$ = -32						; size = 24
__$ArrayPad$ = -4					; size = 4
_value$ = 8						; size = 4
_SetARDOPProtocolState PROC				; COMDAT

; 171  : {

  00000	55		 push	 ebp
  00001	8b ec		 mov	 ebp, esp
  00003	81 ec e8 00 00
	00		 sub	 esp, 232		; 000000e8H
  00009	53		 push	 ebx
  0000a	56		 push	 esi
  0000b	57		 push	 edi
  0000c	8d bd 18 ff ff
	ff		 lea	 edi, DWORD PTR [ebp-232]
  00012	b9 3a 00 00 00	 mov	 ecx, 58			; 0000003aH
  00017	b8 cc cc cc cc	 mov	 eax, -858993460		; ccccccccH
  0001c	f3 ab		 rep stosd
  0001e	a1 00 00 00 00	 mov	 eax, DWORD PTR ___security_cookie
  00023	33 c5		 xor	 eax, ebp
  00025	89 45 fc	 mov	 DWORD PTR __$ArrayPad$[ebp], eax

; 172  : 	char HostCmd[24];
; 173  : 
; 174  : 	if (ProtocolState == value)

  00028	a1 00 00 00 00	 mov	 eax, DWORD PTR _ProtocolState
  0002d	3b 45 08	 cmp	 eax, DWORD PTR _value$[ebp]
  00030	75 05		 jne	 SHORT $LN6@SetARDOPPr

; 175  : 		return;

  00032	e9 a1 00 00 00	 jmp	 $LN7@SetARDOPPr
$LN6@SetARDOPPr:

; 176  : 
; 177  : 	ProtocolState = value;

  00037	8b 45 08	 mov	 eax, DWORD PTR _value$[ebp]
  0003a	a3 00 00 00 00	 mov	 DWORD PTR _ProtocolState, eax

; 178  : 
; 179  : 	displayState();

  0003f	e8 00 00 00 00	 call	 _displayState

; 180  : 
; 181  : 	newStatus = TRUE;				// report to PTC

  00044	c7 05 00 00 00
	00 01 00 00 00	 mov	 DWORD PTR _newStatus, 1

; 182  : 
; 183  :         //Dim stcStatus As Status
; 184  :         //stcStatus.ControlName = "lblState"
; 185  :         //stcStatus.Text = ARDOPState.ToString
; 186  : 
; 187  : 	switch(ProtocolState)

  0004e	a1 00 00 00 00	 mov	 eax, DWORD PTR _ProtocolState
  00053	89 85 18 ff ff
	ff		 mov	 DWORD PTR tv65[ebp], eax
  00059	83 bd 18 ff ff
	ff 01		 cmp	 DWORD PTR tv65[ebp], 1
  00060	74 0b		 je	 SHORT $LN3@SetARDOPPr
  00062	83 bd 18 ff ff
	ff 06		 cmp	 DWORD PTR tv65[ebp], 6
  00069	74 29		 je	 SHORT $LN1@SetARDOPPr
  0006b	eb 40		 jmp	 SHORT $LN4@SetARDOPPr
$LN3@SetARDOPPr:

; 188  : 	{
; 189  : 	case DISC:
; 190  : 
; 191  : 		blnARQDisconnect = FALSE; // always clear the ARQ Disconnect Flag from host.

  0006d	c7 05 00 00 00
	00 00 00 00 00	 mov	 DWORD PTR _blnARQDisconnect, 0

; 192  : 		//stcStatus.BackColor = System.Drawing.Color.White
; 193  : 		blnARQConnected = FALSE;

  00077	c7 05 00 00 00
	00 00 00 00 00	 mov	 DWORD PTR _blnARQConnected, 0

; 194  : 		blnPending = FALSE;

  00081	c7 05 00 00 00
	00 00 00 00 00	 mov	 DWORD PTR _blnPending, 0

; 195  : 		ClearDataToSend();

  0008b	e8 00 00 00 00	 call	 _ClearDataToSend

; 196  : 		break;

  00090	eb 1b		 jmp	 SHORT $LN4@SetARDOPPr

; 197  : 
; 198  : 	case FECRcv:
; 199  : 		//stcStatus.BackColor = System.Drawing.Color.PowderBlue
; 200  : 		break;

  00092	eb 19		 jmp	 SHORT $LN4@SetARDOPPr
$LN1@SetARDOPPr:

; 201  : 		
; 202  : 	case FECSend:
; 203  : 
; 204  : 		InitializeConnection();

  00094	e8 00 00 00 00	 call	 _InitializeConnection

; 205  : 		intLastFrameIDToHost = -1;

  00099	c7 05 00 00 00
	00 ff ff ff ff	 mov	 DWORD PTR _intLastFrameIDToHost, -1

; 206  : 		intLastFailedFrameID = -1;

  000a3	c7 05 00 00 00
	00 ff ff ff ff	 mov	 DWORD PTR _intLastFailedFrameID, -1
$LN4@SetARDOPPr:

; 207  : 		//ReDim bytFailedData(-1)
; 208  : 		//stcStatus.BackColor = System.Drawing.Color.Orange
; 209  : 		break;
; 210  : 
; 211  :         //    Case ProtocolState.IRS
; 212  :         //        stcStatus.BackColor = System.Drawing.Color.LightGreen
; 213  :         //    Case ProtocolState.ISS
; 214  :         //        stcStatus.BackColor = System.Drawing.Color.LightSalmon
; 215  :         //    Case ProtocolState.IDLE
; 216  :         //        stcStatus.BackColor = System.Drawing.Color.NavajoWhite
; 217  :         //    Case ProtocolState.OFFLINE
; 218  :          //       stcStatus.BackColor = System.Drawing.Color.Silver
; 219  : 	}
; 220  : 	//queTNCStatus.Enqueue(stcStatus)
; 221  : 
; 222  : 	sprintf(HostCmd, "NEWSTATE %s ", ARDOPStates[ProtocolState]);

  000ad	a1 00 00 00 00	 mov	 eax, DWORD PTR _ProtocolState
  000b2	6b c0 09	 imul	 eax, 9
  000b5	05 00 00 00 00	 add	 eax, OFFSET _ARDOPStates
  000ba	50		 push	 eax
  000bb	68 00 00 00 00	 push	 OFFSET ??_C@_0N@MLBOBHLL@NEWSTATE?5?$CFs?5?$AA@
  000c0	8d 4d e0	 lea	 ecx, DWORD PTR _HostCmd$[ebp]
  000c3	51		 push	 ecx
  000c4	e8 00 00 00 00	 call	 _sprintf
  000c9	83 c4 0c	 add	 esp, 12			; 0000000cH

; 223  : 	QueueCommandToHost(HostCmd);

  000cc	8d 45 e0	 lea	 eax, DWORD PTR _HostCmd$[ebp]
  000cf	50		 push	 eax
  000d0	e8 00 00 00 00	 call	 _QueueCommandToHost
  000d5	83 c4 04	 add	 esp, 4
$LN7@SetARDOPPr:

; 224  : }

  000d8	52		 push	 edx
  000d9	8b cd		 mov	 ecx, ebp
  000db	50		 push	 eax
  000dc	8d 15 00 00 00
	00		 lea	 edx, DWORD PTR $LN11@SetARDOPPr
  000e2	e8 00 00 00 00	 call	 @_RTC_CheckStackVars@8
  000e7	58		 pop	 eax
  000e8	5a		 pop	 edx
  000e9	5f		 pop	 edi
  000ea	5e		 pop	 esi
  000eb	5b		 pop	 ebx
  000ec	8b 4d fc	 mov	 ecx, DWORD PTR __$ArrayPad$[ebp]
  000ef	33 cd		 xor	 ecx, ebp
  000f1	e8 00 00 00 00	 call	 @__security_check_cookie@4
  000f6	81 c4 e8 00 00
	00		 add	 esp, 232		; 000000e8H
  000fc	3b ec		 cmp	 ebp, esp
  000fe	e8 00 00 00 00	 call	 __RTC_CheckEsp
  00103	8b e5		 mov	 esp, ebp
  00105	5d		 pop	 ebp
  00106	c3		 ret	 0
  00107	90		 npad	 1
$LN11@SetARDOPPr:
  00108	01 00 00 00	 DD	 1
  0010c	00 00 00 00	 DD	 $LN10@SetARDOPPr
$LN10@SetARDOPPr:
  00110	e0 ff ff ff	 DD	 -32			; ffffffe0H
  00114	18 00 00 00	 DD	 24			; 00000018H
  00118	00 00 00 00	 DD	 $LN9@SetARDOPPr
$LN9@SetARDOPPr:
  0011c	48		 DB	 72			; 00000048H
  0011d	6f		 DB	 111			; 0000006fH
  0011e	73		 DB	 115			; 00000073H
  0011f	74		 DB	 116			; 00000074H
  00120	43		 DB	 67			; 00000043H
  00121	6d		 DB	 109			; 0000006dH
  00122	64		 DB	 100			; 00000064H
  00123	00		 DB	 0
_SetARDOPProtocolState ENDP
_TEXT	ENDS
PUBLIC	??_C@_0EL@BLLCLBPI@?$FLARDOPprotocol?4GetNexARQFrame?$FN?5T@ ; `string'
PUBLIC	??_C@_0BE@KELAEECA@STATUS?5END?5ARQ?5CALL?$AA@	; `string'
PUBLIC	??_C@_0BN@KGNMJDOD@STATUS?5CONNECT?5TO?5?$CFs?5FAILED?$CB?$AA@ ; `string'
PUBLIC	??_C@_00CNPNBAHC@?$AA@				; `string'
PUBLIC	??_C@_0DE@KOIIEKOA@STATUS?5END?5NOT?5RECEIVED?5CLOSING?5@ ; `string'
PUBLIC	__$ArrayPad$
PUBLIC	_GetNextARQFrame
EXTRN	_tmrSendTimeout:DWORD
EXTRN	_Debugprintf:PROC
EXTRN	_DebugLog:DWORD
EXTRN	_blnTimeoutTriggered:DWORD
EXTRN	_ARQTimeout:DWORD
EXTRN	_getTicks:PROC
EXTRN	_displayCall:PROC
EXTRN	_ARQConReqRepeats:DWORD
EXTRN	_intRepeatCount:DWORD
EXTRN	_blnAbort:DWORD
;	COMDAT ??_C@_0EL@BLLCLBPI@?$FLARDOPprotocol?4GetNexARQFrame?$FN?5T@
CONST	SEGMENT
??_C@_0EL@BLLCLBPI@?$FLARDOPprotocol?4GetNexARQFrame?$FN?5T@ DB '[ARDOPpr'
	DB	'otocol.GetNexARQFrame] Timeout setting SendTimeout timer to s'
	DB	'tart.', 00H					; `string'
CONST	ENDS
;	COMDAT ??_C@_0BE@KELAEECA@STATUS?5END?5ARQ?5CALL?$AA@
CONST	SEGMENT
??_C@_0BE@KELAEECA@STATUS?5END?5ARQ?5CALL?$AA@ DB 'STATUS END ARQ CALL', 00H ; `string'
CONST	ENDS
;	COMDAT ??_C@_0BN@KGNMJDOD@STATUS?5CONNECT?5TO?5?$CFs?5FAILED?$CB?$AA@
CONST	SEGMENT
??_C@_0BN@KGNMJDOD@STATUS?5CONNECT?5TO?5?$CFs?5FAILED?$CB?$AA@ DB 'STATUS'
	DB	' CONNECT TO %s FAILED!', 00H		; `string'
CONST	ENDS
;	COMDAT ??_C@_00CNPNBAHC@?$AA@
CONST	SEGMENT
??_C@_00CNPNBAHC@?$AA@ DB 00H				; `string'
CONST	ENDS
;	COMDAT ??_C@_0DE@KOIIEKOA@STATUS?5END?5NOT?5RECEIVED?5CLOSING?5@
CONST	SEGMENT
??_C@_0DE@KOIIEKOA@STATUS?5END?5NOT?5RECEIVED?5CLOSING?5@ DB 'STATUS END '
	DB	'NOT RECEIVED CLOSING ARQ SESSION WITH %s', 00H ; `string'
; Function compile flags: /Odtp /RTCsu /ZI
CONST	ENDS
;	COMDAT _GetNextARQFrame
_TEXT	SEGMENT
_HostCmd$ = -88						; size = 80
__$ArrayPad$ = -4					; size = 4
_GetNextARQFrame PROC					; COMDAT

; 231  : {

  00000	55		 push	 ebp
  00001	8b ec		 mov	 ebp, esp
  00003	81 ec 1c 01 00
	00		 sub	 esp, 284		; 0000011cH
  00009	53		 push	 ebx
  0000a	56		 push	 esi
  0000b	57		 push	 edi
  0000c	8d bd e4 fe ff
	ff		 lea	 edi, DWORD PTR [ebp-284]
  00012	b9 47 00 00 00	 mov	 ecx, 71			; 00000047H
  00017	b8 cc cc cc cc	 mov	 eax, -858993460		; ccccccccH
  0001c	f3 ab		 rep stosd
  0001e	a1 00 00 00 00	 mov	 eax, DWORD PTR ___security_cookie
  00023	33 c5		 xor	 eax, ebp
  00025	89 45 fc	 mov	 DWORD PTR __$ArrayPad$[ebp], eax

; 232  : 	//Dim bytToMod(-1) As Byte
; 233  : 
; 234  : 	char HostCmd[80];
; 235  : 
; 236  : 	if (blnAbort)  // handles ABORT (aka Dirty Disconnect)

  00028	83 3d 00 00 00
	00 00		 cmp	 DWORD PTR _blnAbort, 0
  0002f	74 39		 je	 SHORT $LN13@GetNextARQ

; 237  : 	{
; 238  : 		//if (DebugLog) Debugprintf(("[ARDOPprotocol.GetNextARQFrame] ABORT...going to ProtocolState DISC, return FALSE")
; 239  : 
; 240  : 		ClearDataToSend();

  00031	e8 00 00 00 00	 call	 _ClearDataToSend

; 241  : 		
; 242  : 		SetARDOPProtocolState(DISC);

  00036	6a 01		 push	 1
  00038	e8 00 00 00 00	 call	 _SetARDOPProtocolState
  0003d	83 c4 04	 add	 esp, 4

; 243  : 		InitializeConnection();

  00040	e8 00 00 00 00	 call	 _InitializeConnection

; 244  : 		blnAbort = FALSE;

  00045	c7 05 00 00 00
	00 00 00 00 00	 mov	 DWORD PTR _blnAbort, 0

; 245  : 		blnEnbARQRpt = FALSE;

  0004f	c7 05 00 00 00
	00 00 00 00 00	 mov	 DWORD PTR _blnEnbARQRpt, 0

; 246  : 		blnDISCRepeating = FALSE;

  00059	c7 05 00 00 00
	00 00 00 00 00	 mov	 DWORD PTR _blnDISCRepeating, 0

; 247  : 		return FALSE;

  00063	33 c0		 xor	 eax, eax
  00065	e9 e0 01 00 00	 jmp	 $LN14@GetNextARQ
$LN13@GetNextARQ:

; 248  : 	}
; 249  : 
; 250  : 	if (blnDISCRepeating)	// handle the repeating DISC reply 

  0006a	83 3d 00 00 00
	00 00		 cmp	 DWORD PTR _blnDISCRepeating, 0
  00071	74 7b		 je	 SHORT $LN12@GetNextARQ

; 251  : 	{
; 252  : 		intRepeatCount += 1;

  00073	a1 00 00 00 00	 mov	 eax, DWORD PTR _intRepeatCount
  00078	83 c0 01	 add	 eax, 1
  0007b	a3 00 00 00 00	 mov	 DWORD PTR _intRepeatCount, eax

; 253  : 		blnEnbARQRpt = FALSE;

  00080	c7 05 00 00 00
	00 00 00 00 00	 mov	 DWORD PTR _blnEnbARQRpt, 0

; 254  : 
; 255  : 		if (intRepeatCount > 5)  // do 5 tries then force disconnect 

  0008a	83 3d 00 00 00
	00 05		 cmp	 DWORD PTR _intRepeatCount, 5
  00091	7e 51		 jle	 SHORT $LN11@GetNextARQ

; 256  : 		{
; 257  : 			sprintf(HostCmd, "STATUS END NOT RECEIVED CLOSING ARQ SESSION WITH %s", strRemoteCallsign);

  00093	68 00 00 00 00	 push	 OFFSET _strRemoteCallsign
  00098	68 00 00 00 00	 push	 OFFSET ??_C@_0DE@KOIIEKOA@STATUS?5END?5NOT?5RECEIVED?5CLOSING?5@
  0009d	8d 45 a8	 lea	 eax, DWORD PTR _HostCmd$[ebp]
  000a0	50		 push	 eax
  000a1	e8 00 00 00 00	 call	 _sprintf
  000a6	83 c4 0c	 add	 esp, 12			; 0000000cH

; 258  : 			QueueCommandToHost(HostCmd);

  000a9	8d 45 a8	 lea	 eax, DWORD PTR _HostCmd$[ebp]
  000ac	50		 push	 eax
  000ad	e8 00 00 00 00	 call	 _QueueCommandToHost
  000b2	83 c4 04	 add	 esp, 4

; 259  : 			blnDISCRepeating = FALSE;

  000b5	c7 05 00 00 00
	00 00 00 00 00	 mov	 DWORD PTR _blnDISCRepeating, 0

; 260  : 			blnEnbARQRpt = FALSE;

  000bf	c7 05 00 00 00
	00 00 00 00 00	 mov	 DWORD PTR _blnEnbARQRpt, 0

; 261  : 			ClearDataToSend();

  000c9	e8 00 00 00 00	 call	 _ClearDataToSend

; 262  : 			SetARDOPProtocolState(DISC);

  000ce	6a 01		 push	 1
  000d0	e8 00 00 00 00	 call	 _SetARDOPProtocolState
  000d5	83 c4 04	 add	 esp, 4

; 263  : 			InitializeConnection();

  000d8	e8 00 00 00 00	 call	 _InitializeConnection

; 264  : 			return FALSE;			 //indicates end repeat

  000dd	33 c0		 xor	 eax, eax
  000df	e9 66 01 00 00	 jmp	 $LN14@GetNextARQ
$LN11@GetNextARQ:

; 265  : 		}
; 266  : 		return TRUE;			// continue with DISC repeats

  000e4	b8 01 00 00 00	 mov	 eax, 1
  000e9	e9 5c 01 00 00	 jmp	 $LN14@GetNextARQ
$LN12@GetNextARQ:

; 267  : 	}
; 268  : 	
; 269  : 	if (ProtocolState == ISS && ARQState == ISSConReq) // Handles Repeating ConReq frames 

  000ee	83 3d 00 00 00
	00 02		 cmp	 DWORD PTR _ProtocolState, 2
  000f5	0f 85 ad 00 00
	00		 jne	 $LN10@GetNextARQ
  000fb	83 3d 00 00 00
	00 01		 cmp	 DWORD PTR _ARQState, 1
  00102	0f 85 a0 00 00
	00		 jne	 $LN10@GetNextARQ

; 270  : 	{
; 271  : 		intRepeatCount++;

  00108	a1 00 00 00 00	 mov	 eax, DWORD PTR _intRepeatCount
  0010d	83 c0 01	 add	 eax, 1
  00110	a3 00 00 00 00	 mov	 DWORD PTR _intRepeatCount, eax

; 272  : 		if (intRepeatCount > ARQConReqRepeats)

  00115	a1 00 00 00 00	 mov	 eax, DWORD PTR _intRepeatCount
  0011a	3b 05 00 00 00
	00		 cmp	 eax, DWORD PTR _ARQConReqRepeats
  00120	7e 7c		 jle	 SHORT $LN9@GetNextARQ

; 273  : 		{
; 274  : 		    ClearDataToSend();

  00122	e8 00 00 00 00	 call	 _ClearDataToSend

; 275  : 			SetARDOPProtocolState(DISC);

  00127	6a 01		 push	 1
  00129	e8 00 00 00 00	 call	 _SetARDOPProtocolState
  0012e	83 c4 04	 add	 esp, 4

; 276  : 			blnPending = FALSE;

  00131	c7 05 00 00 00
	00 00 00 00 00	 mov	 DWORD PTR _blnPending, 0

; 277  : 			displayCall(0x20, "");

  0013b	68 00 00 00 00	 push	 OFFSET ??_C@_00CNPNBAHC@?$AA@
  00140	6a 20		 push	 32			; 00000020H
  00142	e8 00 00 00 00	 call	 _displayCall
  00147	83 c4 08	 add	 esp, 8

; 278  : 
; 279  : 			if (strRemoteCallsign[0])

  0014a	0f be 05 00 00
	00 00		 movsx	 eax, BYTE PTR _strRemoteCallsign
  00151	85 c0		 test	 eax, eax
  00153	74 30		 je	 SHORT $LN8@GetNextARQ

; 280  : 			{
; 281  : 				sprintf(HostCmd, "STATUS CONNECT TO %s FAILED!", strRemoteCallsign);

  00155	68 00 00 00 00	 push	 OFFSET _strRemoteCallsign
  0015a	68 00 00 00 00	 push	 OFFSET ??_C@_0BN@KGNMJDOD@STATUS?5CONNECT?5TO?5?$CFs?5FAILED?$CB?$AA@
  0015f	8d 45 a8	 lea	 eax, DWORD PTR _HostCmd$[ebp]
  00162	50		 push	 eax
  00163	e8 00 00 00 00	 call	 _sprintf
  00168	83 c4 0c	 add	 esp, 12			; 0000000cH

; 282  : 				QueueCommandToHost(HostCmd);

  0016b	8d 45 a8	 lea	 eax, DWORD PTR _HostCmd$[ebp]
  0016e	50		 push	 eax
  0016f	e8 00 00 00 00	 call	 _QueueCommandToHost
  00174	83 c4 04	 add	 esp, 4

; 283  : 				InitializeConnection();

  00177	e8 00 00 00 00	 call	 _InitializeConnection

; 284  : 				return FALSE;		// 'indicates end repeat

  0017c	33 c0		 xor	 eax, eax
  0017e	e9 c7 00 00 00	 jmp	 $LN14@GetNextARQ

; 285  : 			}
; 286  : 			else

  00183	eb 19		 jmp	 SHORT $LN9@GetNextARQ
$LN8@GetNextARQ:

; 287  : 			{
; 288  : 				QueueCommandToHost("STATUS END ARQ CALL");

  00185	68 00 00 00 00	 push	 OFFSET ??_C@_0BE@KELAEECA@STATUS?5END?5ARQ?5CALL?$AA@
  0018a	e8 00 00 00 00	 call	 _QueueCommandToHost
  0018f	83 c4 04	 add	 esp, 4

; 289  : 				InitializeConnection();

  00192	e8 00 00 00 00	 call	 _InitializeConnection

; 290  : 				return FALSE;		  //indicates end repeat

  00197	33 c0		 xor	 eax, eax
  00199	e9 ac 00 00 00	 jmp	 $LN14@GetNextARQ
$LN9@GetNextARQ:

; 291  : 			}
; 292  : 
; 293  : 			
; 294  : 			//Clear the mnuBusy status on the main form
; 295  :             ///    Dim stcStatus As Status = Nothing
; 296  :             //    stcStatus.ControlName = "mnuBusy"
; 297  :             //    queTNCStatus.Enqueue(stcStatus)
; 298  : 		}
; 299  : 
; 300  : 		return TRUE;		// ' continue with repeats

  0019e	b8 01 00 00 00	 mov	 eax, 1
  001a3	e9 a2 00 00 00	 jmp	 $LN14@GetNextARQ
$LN10@GetNextARQ:

; 301  : 	}
; 302  : /*
; 303  :         ElseIf GetARDOPSetARDOPProtocolState(ProtocolState.ISS And ARQState = ARQSubStates.IRSConAck Then ' Handles ISS repeat of ConAck
; 304  :             intRepeatCount += 1
; 305  :             If intRepeatCount <= MCB.ARQConReqRepeats Then
; 306  :                 return TRUE
; 307  :             Else
; 308  :                 SetARDOPProtocolState(ProtocolState.DISC) : ARQState = ARQSubStates.DISCArqEnd
; 309  :                 objMain.objHI.QueueCommandToHost("STATUS CONNECT TO " & stcConnection.strRemoteCallsign & " FAILED!") : InitializeConnection() : return FALSE
; 310  :             End If
; 311  : 			*/
; 312  : 
; 313  : 	// Handles a timeout from an ARQ connected State
; 314  : 
; 315  : 	if (ProtocolState == ISS || ProtocolState == QUIET || ProtocolState == IRS || ProtocolState == IRStoISS)

  001a8	83 3d 00 00 00
	00 02		 cmp	 DWORD PTR _ProtocolState, 2
  001af	74 1b		 je	 SHORT $LN5@GetNextARQ
  001b1	83 3d 00 00 00
	00 04		 cmp	 DWORD PTR _ProtocolState, 4
  001b8	74 12		 je	 SHORT $LN5@GetNextARQ
  001ba	83 3d 00 00 00
	00 03		 cmp	 DWORD PTR _ProtocolState, 3
  001c1	74 09		 je	 SHORT $LN5@GetNextARQ
  001c3	83 3d 00 00 00
	00 05		 cmp	 DWORD PTR _ProtocolState, 5
  001ca	75 62		 jne	 SHORT $LN6@GetNextARQ
$LN5@GetNextARQ:

; 316  : 	{
; 317  : 		if ((Now - dttTimeoutTrip) / 1000 > ARQTimeout) // (Handles protocol rule 1.7)

  001cc	e8 00 00 00 00	 call	 _getTicks
  001d1	2b 05 00 00 00
	00		 sub	 eax, DWORD PTR _dttTimeoutTrip
  001d7	33 d2		 xor	 edx, edx
  001d9	b9 e8 03 00 00	 mov	 ecx, 1000		; 000003e8H
  001de	f7 f1		 div	 ecx
  001e0	3b 05 00 00 00
	00		 cmp	 eax, DWORD PTR _ARQTimeout
  001e6	76 46		 jbe	 SHORT $LN6@GetNextARQ

; 318  : 		{
; 319  :             if (!blnTimeoutTriggered)

  001e8	83 3d 00 00 00
	00 00		 cmp	 DWORD PTR _blnTimeoutTriggered, 0
  001ef	75 3d		 jne	 SHORT $LN6@GetNextARQ

; 320  : 			{
; 321  : 				if (DebugLog) Debugprintf("[ARDOPprotocol.GetNexARQFrame] Timeout setting SendTimeout timer to start.");

  001f1	83 3d 00 00 00
	00 00		 cmp	 DWORD PTR _DebugLog, 0
  001f8	74 0d		 je	 SHORT $LN2@GetNextARQ
  001fa	68 00 00 00 00	 push	 OFFSET ??_C@_0EL@BLLCLBPI@?$FLARDOPprotocol?4GetNexARQFrame?$FN?5T@
  001ff	e8 00 00 00 00	 call	 _Debugprintf
  00204	83 c4 04	 add	 esp, 4
$LN2@GetNextARQ:

; 322  : 
; 323  : 				blnEnbARQRpt = FALSE;

  00207	c7 05 00 00 00
	00 00 00 00 00	 mov	 DWORD PTR _blnEnbARQRpt, 0

; 324  : 				blnTimeoutTriggered = TRUE; // prevents a retrigger

  00211	c7 05 00 00 00
	00 01 00 00 00	 mov	 DWORD PTR _blnTimeoutTriggered, 1

; 325  :                 tmrSendTimeout = Now + 1000;

  0021b	e8 00 00 00 00	 call	 _getTicks
  00220	05 e8 03 00 00	 add	 eax, 1000		; 000003e8H
  00225	a3 00 00 00 00	 mov	 DWORD PTR _tmrSendTimeout, eax

; 326  : 				return FALSE;

  0022a	33 c0		 xor	 eax, eax
  0022c	eb 1c		 jmp	 SHORT $LN14@GetNextARQ
$LN6@GetNextARQ:

; 327  : 			}
; 328  : 		}
; 329  : 	}
; 330  : 
; 331  : 	// Handles the DISC state (no repeats)
; 332  :  
; 333  : 	if (ProtocolState == DISC) // never repeat in DISC state

  0022e	83 3d 00 00 00
	00 01		 cmp	 DWORD PTR _ProtocolState, 1
  00235	75 0e		 jne	 SHORT $LN1@GetNextARQ

; 334  : 	{
; 335  : 		blnARQDisconnect = FALSE;

  00237	c7 05 00 00 00
	00 00 00 00 00	 mov	 DWORD PTR _blnARQDisconnect, 0

; 336  : 		return FALSE;

  00241	33 c0		 xor	 eax, eax
  00243	eb 05		 jmp	 SHORT $LN14@GetNextARQ
$LN1@GetNextARQ:

; 337  : 	}
; 338  : 
; 339  : 	// ' Handles all other possibly repeated Frames
; 340  : 
; 341  : 	return blnEnbARQRpt;  // not all frame types repeat...blnEnbARQRpt is set/cleared in ProcessRcvdARQFrame

  00245	a1 00 00 00 00	 mov	 eax, DWORD PTR _blnEnbARQRpt
$LN14@GetNextARQ:

; 342  : }

  0024a	52		 push	 edx
  0024b	8b cd		 mov	 ecx, ebp
  0024d	50		 push	 eax
  0024e	8d 15 00 00 00
	00		 lea	 edx, DWORD PTR $LN18@GetNextARQ
  00254	e8 00 00 00 00	 call	 @_RTC_CheckStackVars@8
  00259	58		 pop	 eax
  0025a	5a		 pop	 edx
  0025b	5f		 pop	 edi
  0025c	5e		 pop	 esi
  0025d	5b		 pop	 ebx
  0025e	8b 4d fc	 mov	 ecx, DWORD PTR __$ArrayPad$[ebp]
  00261	33 cd		 xor	 ecx, ebp
  00263	e8 00 00 00 00	 call	 @__security_check_cookie@4
  00268	81 c4 1c 01 00
	00		 add	 esp, 284		; 0000011cH
  0026e	3b ec		 cmp	 ebp, esp
  00270	e8 00 00 00 00	 call	 __RTC_CheckEsp
  00275	8b e5		 mov	 esp, ebp
  00277	5d		 pop	 ebp
  00278	c3		 ret	 0
  00279	8d 49 00	 npad	 3
$LN18@GetNextARQ:
  0027c	01 00 00 00	 DD	 1
  00280	00 00 00 00	 DD	 $LN17@GetNextARQ
$LN17@GetNextARQ:
  00284	a8 ff ff ff	 DD	 -88			; ffffffa8H
  00288	50 00 00 00	 DD	 80			; 00000050H
  0028c	00 00 00 00	 DD	 $LN16@GetNextARQ
$LN16@GetNextARQ:
  00290	48		 DB	 72			; 00000048H
  00291	6f		 DB	 111			; 0000006fH
  00292	73		 DB	 115			; 00000073H
  00293	74		 DB	 116			; 00000074H
  00294	43		 DB	 67			; 00000043H
  00295	6d		 DB	 109			; 0000006dH
  00296	64		 DB	 100			; 00000064H
  00297	00		 DB	 0
_GetNextARQFrame ENDP
_TEXT	ENDS
PUBLIC	??_C@_04HDOCAJNK@?$CFs?$CFs?$AA@		; `string'
PUBLIC	__$ArrayPad$
PUBLIC	_GenerateSessionID
;	COMDAT ??_C@_04HDOCAJNK@?$CFs?$CFs?$AA@
CONST	SEGMENT
??_C@_04HDOCAJNK@?$CFs?$CFs?$AA@ DB '%s%s', 00H		; `string'
; Function compile flags: /Odtp /RTCsu /ZI
CONST	ENDS
;	COMDAT _GenerateSessionID
_TEXT	SEGMENT
_ID$ = -49						; size = 1
_Len$ = -40						; size = 4
_bytToCRC$ = -28					; size = 20
__$ArrayPad$ = -4					; size = 4
_strCallingCallSign$ = 8				; size = 4
_strTargetCallsign$ = 12				; size = 4
_GenerateSessionID PROC					; COMDAT

; 348  : {

  00000	55		 push	 ebp
  00001	8b ec		 mov	 ebp, esp
  00003	81 ec f8 00 00
	00		 sub	 esp, 248		; 000000f8H
  00009	53		 push	 ebx
  0000a	56		 push	 esi
  0000b	57		 push	 edi
  0000c	8d bd 08 ff ff
	ff		 lea	 edi, DWORD PTR [ebp-248]
  00012	b9 3e 00 00 00	 mov	 ecx, 62			; 0000003eH
  00017	b8 cc cc cc cc	 mov	 eax, -858993460		; ccccccccH
  0001c	f3 ab		 rep stosd
  0001e	a1 00 00 00 00	 mov	 eax, DWORD PTR ___security_cookie
  00023	33 c5		 xor	 eax, ebp
  00025	89 45 fc	 mov	 DWORD PTR __$ArrayPad$[ebp], eax

; 349  : 	char bytToCRC[20];
; 350  : 	
; 351  : 	int Len = sprintf(bytToCRC, "%s%s", strCallingCallSign, strTargetCallsign);

  00028	8b 45 0c	 mov	 eax, DWORD PTR _strTargetCallsign$[ebp]
  0002b	50		 push	 eax
  0002c	8b 4d 08	 mov	 ecx, DWORD PTR _strCallingCallSign$[ebp]
  0002f	51		 push	 ecx
  00030	68 00 00 00 00	 push	 OFFSET ??_C@_04HDOCAJNK@?$CFs?$CFs?$AA@
  00035	8d 55 e4	 lea	 edx, DWORD PTR _bytToCRC$[ebp]
  00038	52		 push	 edx
  00039	e8 00 00 00 00	 call	 _sprintf
  0003e	83 c4 10	 add	 esp, 16			; 00000010H
  00041	89 45 d8	 mov	 DWORD PTR _Len$[ebp], eax

; 352  : 
; 353  : 	UCHAR ID = GenCRC8(bytToCRC);

  00044	8d 45 e4	 lea	 eax, DWORD PTR _bytToCRC$[ebp]
  00047	50		 push	 eax
  00048	e8 00 00 00 00	 call	 _GenCRC8
  0004d	83 c4 04	 add	 esp, 4
  00050	88 45 cf	 mov	 BYTE PTR _ID$[ebp], al

; 354  : 
; 355  :     if (ID == 255)

  00053	0f b6 45 cf	 movzx	 eax, BYTE PTR _ID$[ebp]
  00057	3d ff 00 00 00	 cmp	 eax, 255		; 000000ffH
  0005c	75 04		 jne	 SHORT $LN1@GenerateSe

; 356  : 
; 357  : 		// rare case where the computed session ID woudl be FF
; 358  : 		// Remap a SessionID of FF to 0...FF reserved for FEC mode
; 359  : 
; 360  : 		return 0;

  0005e	32 c0		 xor	 al, al
  00060	eb 03		 jmp	 SHORT $LN2@GenerateSe
$LN1@GenerateSe:

; 361  : 
; 362  : 	return ID;

  00062	8a 45 cf	 mov	 al, BYTE PTR _ID$[ebp]
$LN2@GenerateSe:

; 363  : }

  00065	52		 push	 edx
  00066	8b cd		 mov	 ecx, ebp
  00068	50		 push	 eax
  00069	8d 15 00 00 00
	00		 lea	 edx, DWORD PTR $LN6@GenerateSe
  0006f	e8 00 00 00 00	 call	 @_RTC_CheckStackVars@8
  00074	58		 pop	 eax
  00075	5a		 pop	 edx
  00076	5f		 pop	 edi
  00077	5e		 pop	 esi
  00078	5b		 pop	 ebx
  00079	8b 4d fc	 mov	 ecx, DWORD PTR __$ArrayPad$[ebp]
  0007c	33 cd		 xor	 ecx, ebp
  0007e	e8 00 00 00 00	 call	 @__security_check_cookie@4
  00083	81 c4 f8 00 00
	00		 add	 esp, 248		; 000000f8H
  00089	3b ec		 cmp	 ebp, esp
  0008b	e8 00 00 00 00	 call	 __RTC_CheckEsp
  00090	8b e5		 mov	 esp, ebp
  00092	5d		 pop	 ebp
  00093	c3		 ret	 0
$LN6@GenerateSe:
  00094	01 00 00 00	 DD	 1
  00098	00 00 00 00	 DD	 $LN5@GenerateSe
$LN5@GenerateSe:
  0009c	e4 ff ff ff	 DD	 -28			; ffffffe4H
  000a0	14 00 00 00	 DD	 20			; 00000014H
  000a4	00 00 00 00	 DD	 $LN4@GenerateSe
$LN4@GenerateSe:
  000a8	62		 DB	 98			; 00000062H
  000a9	79		 DB	 121			; 00000079H
  000aa	74		 DB	 116			; 00000074H
  000ab	54		 DB	 84			; 00000054H
  000ac	6f		 DB	 111			; 0000006fH
  000ad	43		 DB	 67			; 00000043H
  000ae	52		 DB	 82			; 00000052H
  000af	43		 DB	 67			; 00000043H
  000b0	00		 DB	 0
_GenerateSessionID ENDP
_TEXT	ENDS
PUBLIC	_CalculateOptimumLeader
EXTRN	_intCalcLeader:DWORD
; Function compile flags: /Odtp /RTCsu /ZI
;	COMDAT _CalculateOptimumLeader
_TEXT	SEGMENT
tv69 = -196						; size = 4
_intReportedReceivedLeaderMS$ = 8			; size = 4
_intLeaderSentMS$ = 12					; size = 4
_CalculateOptimumLeader PROC				; COMDAT

; 368  : {

  00000	55		 push	 ebp
  00001	8b ec		 mov	 ebp, esp
  00003	81 ec c4 00 00
	00		 sub	 esp, 196		; 000000c4H
  00009	53		 push	 ebx
  0000a	56		 push	 esi
  0000b	57		 push	 edi
  0000c	8d bd 3c ff ff
	ff		 lea	 edi, DWORD PTR [ebp-196]
  00012	b9 31 00 00 00	 mov	 ecx, 49			; 00000031H
  00017	b8 cc cc cc cc	 mov	 eax, -858993460		; ccccccccH
  0001c	f3 ab		 rep stosd

; 369  : 	intCalcLeader = max(160, 120 + intLeaderSentMS - intReportedReceivedLeaderMS);  //  This appears to work well on HF sim tests May 31, 2015

  0001e	8b 45 0c	 mov	 eax, DWORD PTR _intLeaderSentMS$[ebp]
  00021	83 c0 78	 add	 eax, 120		; 00000078H
  00024	2b 45 08	 sub	 eax, DWORD PTR _intReportedReceivedLeaderMS$[ebp]
  00027	3d a0 00 00 00	 cmp	 eax, 160		; 000000a0H
  0002c	7d 0c		 jge	 SHORT $LN3@CalculateO
  0002e	c7 85 3c ff ff
	ff a0 00 00 00	 mov	 DWORD PTR tv69[ebp], 160 ; 000000a0H
  00038	eb 0f		 jmp	 SHORT $LN4@CalculateO
$LN3@CalculateO:
  0003a	8b 4d 0c	 mov	 ecx, DWORD PTR _intLeaderSentMS$[ebp]
  0003d	83 c1 78	 add	 ecx, 120		; 00000078H
  00040	2b 4d 08	 sub	 ecx, DWORD PTR _intReportedReceivedLeaderMS$[ebp]
  00043	89 8d 3c ff ff
	ff		 mov	 DWORD PTR tv69[ebp], ecx
$LN4@CalculateO:
  00049	8b 95 3c ff ff
	ff		 mov	 edx, DWORD PTR tv69[ebp]
  0004f	89 15 00 00 00
	00		 mov	 DWORD PTR _intCalcLeader, edx

; 370  :     //    if (DebugLog) Debugprintf(("[ARDOPprotocol.CalcualteOptimumLeader] Leader Sent=" & intLeaderSentMS.ToString & "  ReportedReceived=" & intReportedReceivedLeaderMS.ToString & "  Calculated=" & stcConnection.intCalcLeader.ToString)
; 371  : }

  00055	5f		 pop	 edi
  00056	5e		 pop	 esi
  00057	5b		 pop	 ebx
  00058	8b e5		 mov	 esp, ebp
  0005a	5d		 pop	 ebp
  0005b	c3		 ret	 0
_CalculateOptimumLeader ENDP
_TEXT	ENDS
PUBLIC	_IsCallToMe
EXTRN	_bytData:BYTE
EXTRN	_strcmp:PROC
EXTRN	_Callsign:TBYTE
; Function compile flags: /Odtp /RTCsu /ZI
;	COMDAT _IsCallToMe
_TEXT	SEGMENT
_i$ = -8						; size = 4
_strCallsign$ = 8					; size = 4
_bytReplySessionID$ = 12				; size = 4
_IsCallToMe PROC					; COMDAT

; 378  : {

  00000	55		 push	 ebp
  00001	8b ec		 mov	 ebp, esp
  00003	81 ec cc 00 00
	00		 sub	 esp, 204		; 000000ccH
  00009	53		 push	 ebx
  0000a	56		 push	 esi
  0000b	57		 push	 edi
  0000c	8d bd 34 ff ff
	ff		 lea	 edi, DWORD PTR [ebp-204]
  00012	b9 33 00 00 00	 mov	 ecx, 51			; 00000033H
  00017	b8 cc cc cc cc	 mov	 eax, -858993460		; ccccccccH
  0001c	f3 ab		 rep stosd

; 379  : 	// returns true and sets bytReplySessionID if is to me.
; 380  : 
; 381  : 	int i;
; 382  : 	
; 383  : 	if (strcmp(strCallsign, Callsign) == 0)

  0001e	68 00 00 00 00	 push	 OFFSET _Callsign
  00023	8b 45 08	 mov	 eax, DWORD PTR _strCallsign$[ebp]
  00026	50		 push	 eax
  00027	e8 00 00 00 00	 call	 _strcmp
  0002c	83 c4 08	 add	 esp, 8
  0002f	85 c0		 test	 eax, eax
  00031	75 1d		 jne	 SHORT $LN5@IsCallToMe

; 384  : 	{
; 385  : 		*bytReplySessionID = GenerateSessionID(bytData, strCallsign);

  00033	8b 45 08	 mov	 eax, DWORD PTR _strCallsign$[ebp]
  00036	50		 push	 eax
  00037	68 00 00 00 00	 push	 OFFSET _bytData
  0003c	e8 00 00 00 00	 call	 _GenerateSessionID
  00041	83 c4 08	 add	 esp, 8
  00044	8b 4d 0c	 mov	 ecx, DWORD PTR _bytReplySessionID$[ebp]
  00047	88 01		 mov	 BYTE PTR [ecx], al

; 386  : 		return TRUE;

  00049	b8 01 00 00 00	 mov	 eax, 1
  0004e	eb 5a		 jmp	 SHORT $LN6@IsCallToMe
$LN5@IsCallToMe:

; 387  : 	}
; 388  : 	
; 389  : 	for (i = 0; i < AuxCallsLength; i++)

  00050	c7 45 f8 00 00
	00 00		 mov	 DWORD PTR _i$[ebp], 0
  00057	eb 09		 jmp	 SHORT $LN4@IsCallToMe
$LN3@IsCallToMe:
  00059	8b 45 f8	 mov	 eax, DWORD PTR _i$[ebp]
  0005c	83 c0 01	 add	 eax, 1
  0005f	89 45 f8	 mov	 DWORD PTR _i$[ebp], eax
$LN4@IsCallToMe:
  00062	8b 45 f8	 mov	 eax, DWORD PTR _i$[ebp]
  00065	3b 05 00 00 00
	00		 cmp	 eax, DWORD PTR _AuxCallsLength
  0006b	7d 3b		 jge	 SHORT $LN2@IsCallToMe

; 390  : 	{
; 391  : 		if (strcmp(strCallsign, AuxCalls[i]) == 0)

  0006d	8b 45 f8	 mov	 eax, DWORD PTR _i$[ebp]
  00070	6b c0 0a	 imul	 eax, 10			; 0000000aH
  00073	05 00 00 00 00	 add	 eax, OFFSET _AuxCalls
  00078	50		 push	 eax
  00079	8b 4d 08	 mov	 ecx, DWORD PTR _strCallsign$[ebp]
  0007c	51		 push	 ecx
  0007d	e8 00 00 00 00	 call	 _strcmp
  00082	83 c4 08	 add	 esp, 8
  00085	85 c0		 test	 eax, eax
  00087	75 1d		 jne	 SHORT $LN1@IsCallToMe

; 392  : 		{
; 393  : 			*bytReplySessionID = GenerateSessionID(bytData, strCallsign);

  00089	8b 45 08	 mov	 eax, DWORD PTR _strCallsign$[ebp]
  0008c	50		 push	 eax
  0008d	68 00 00 00 00	 push	 OFFSET _bytData
  00092	e8 00 00 00 00	 call	 _GenerateSessionID
  00097	83 c4 08	 add	 esp, 8
  0009a	8b 4d 0c	 mov	 ecx, DWORD PTR _bytReplySessionID$[ebp]
  0009d	88 01		 mov	 BYTE PTR [ecx], al

; 394  : 			return TRUE;

  0009f	b8 01 00 00 00	 mov	 eax, 1
  000a4	eb 04		 jmp	 SHORT $LN6@IsCallToMe
$LN1@IsCallToMe:

; 395  : 		}
; 396  : 	}

  000a6	eb b1		 jmp	 SHORT $LN3@IsCallToMe
$LN2@IsCallToMe:

; 397  : 
; 398  : 	return FALSE;

  000a8	33 c0		 xor	 eax, eax
$LN6@IsCallToMe:

; 399  : }

  000aa	5f		 pop	 edi
  000ab	5e		 pop	 esi
  000ac	5b		 pop	 ebx
  000ad	81 c4 cc 00 00
	00		 add	 esp, 204		; 000000ccH
  000b3	3b ec		 cmp	 ebp, esp
  000b5	e8 00 00 00 00	 call	 __RTC_CheckEsp
  000ba	8b e5		 mov	 esp, ebp
  000bc	5d		 pop	 ebp
  000bd	c3		 ret	 0
_IsCallToMe ENDP
_TEXT	ENDS
PUBLIC	_GetDataModes
EXTRN	_TuningRange:DWORD
; Function compile flags: /Odtp /RTCsu /ZI
;	COMDAT _GetDataModes
_TEXT	SEGMENT
_intBW$ = 8						; size = 4
_GetDataModes PROC					; COMDAT

; 478  : {

  00000	55		 push	 ebp
  00001	8b ec		 mov	 ebp, esp
  00003	81 ec c0 00 00
	00		 sub	 esp, 192		; 000000c0H
  00009	53		 push	 ebx
  0000a	56		 push	 esi
  0000b	57		 push	 edi
  0000c	8d bd 40 ff ff
	ff		 lea	 edi, DWORD PTR [ebp-192]
  00012	b9 30 00 00 00	 mov	 ecx, 48			; 00000030H
  00017	b8 cc cc cc cc	 mov	 eax, -858993460		; ccccccccH
  0001c	f3 ab		 rep stosd

; 479  : 	// Revised version 0.3.5
; 480  : 	// idea is to use this list in the gear shift algorithm to select modulation mode based on bandwidth and robustness.
; 481  :     // Sequence modes in approximate order of robustness ...most robust first, shorter frames of same modulation first
; 482  : 
; 483  : 	if (intBW == 200)

  0001e	81 7d 08 c8 00
	00 00		 cmp	 DWORD PTR _intBW$[ebp], 200 ; 000000c8H
  00025	75 11		 jne	 SHORT $LN6@GetDataMod

; 484  : 	{
; 485  : 		bytFrameTypesForBWLength = sizeof(DataModes200) - 1;

  00027	c7 05 00 00 00
	00 03 00 00 00	 mov	 DWORD PTR _bytFrameTypesForBWLength, 3

; 486  : 		return DataModes200;

  00031	b8 00 00 00 00	 mov	 eax, OFFSET _DataModes200
  00036	eb 79		 jmp	 SHORT $LN7@GetDataMod
$LN6@GetDataMod:

; 487  : 	}
; 488  : 	if (intBW == 500) 

  00038	81 7d 08 f4 01
	00 00		 cmp	 DWORD PTR _intBW$[ebp], 500 ; 000001f4H
  0003f	75 11		 jne	 SHORT $LN5@GetDataMod

; 489  : 	{
; 490  : 		bytFrameTypesForBWLength = sizeof(DataModes500) - 1;

  00041	c7 05 00 00 00
	00 05 00 00 00	 mov	 DWORD PTR _bytFrameTypesForBWLength, 5

; 491  : 		return DataModes500;

  0004b	b8 00 00 00 00	 mov	 eax, OFFSET _DataModes500
  00050	eb 5f		 jmp	 SHORT $LN7@GetDataMod
$LN5@GetDataMod:

; 492  : 	}
; 493  : 	if (intBW == 1000) 

  00052	81 7d 08 e8 03
	00 00		 cmp	 DWORD PTR _intBW$[ebp], 1000 ; 000003e8H
  00059	75 11		 jne	 SHORT $LN4@GetDataMod

; 494  : 	{
; 495  : 		bytFrameTypesForBWLength = sizeof(DataModes1000) - 1;

  0005b	c7 05 00 00 00
	00 06 00 00 00	 mov	 DWORD PTR _bytFrameTypesForBWLength, 6

; 496  : 		return DataModes1000;

  00065	b8 00 00 00 00	 mov	 eax, OFFSET _DataModes1000
  0006a	eb 45		 jmp	 SHORT $LN7@GetDataMod
$LN4@GetDataMod:

; 497  : 	}
; 498  : 	if (intBW == 2000) 

  0006c	81 7d 08 d0 07
	00 00		 cmp	 DWORD PTR _intBW$[ebp], 2000 ; 000007d0H
  00073	75 2d		 jne	 SHORT $LN3@GetDataMod

; 499  : 	{
; 500  : 		if (TuningRange > 0)

  00075	83 3d 00 00 00
	00 00		 cmp	 DWORD PTR _TuningRange, 0
  0007c	7e 13		 jle	 SHORT $LN2@GetDataMod

; 501  : 		{
; 502  : 			bytFrameTypesForBWLength = sizeof(DataModes2000) - 1;

  0007e	c7 05 00 00 00
	00 07 00 00 00	 mov	 DWORD PTR _bytFrameTypesForBWLength, 7

; 503  : 			return DataModes2000;

  00088	b8 00 00 00 00	 mov	 eax, OFFSET _DataModes2000
  0008d	eb 22		 jmp	 SHORT $LN7@GetDataMod

; 504  : 		}
; 505  : 		else

  0008f	eb 11		 jmp	 SHORT $LN3@GetDataMod
$LN2@GetDataMod:

; 506  : 		{
; 507  : 			bytFrameTypesForBWLength = sizeof(DataModes2000FM) - 1;

  00091	c7 05 00 00 00
	00 05 00 00 00	 mov	 DWORD PTR _bytFrameTypesForBWLength, 5

; 508  : 			return DataModes2000FM;

  0009b	b8 00 00 00 00	 mov	 eax, OFFSET _DataModes2000FM
  000a0	eb 0f		 jmp	 SHORT $LN7@GetDataMod
$LN3@GetDataMod:

; 509  : 		}
; 510  : 	}
; 511  : 	bytFrameTypesForBWLength = 0;

  000a2	c7 05 00 00 00
	00 00 00 00 00	 mov	 DWORD PTR _bytFrameTypesForBWLength, 0

; 512  : 	return NoDataModes;

  000ac	b8 00 00 00 00	 mov	 eax, OFFSET _NoDataModes
$LN7@GetDataMod:

; 513  : }

  000b1	5f		 pop	 edi
  000b2	5e		 pop	 esi
  000b3	5b		 pop	 ebx
  000b4	8b e5		 mov	 esp, ebp
  000b6	5d		 pop	 ebp
  000b7	c3		 ret	 0
_GetDataModes ENDP
_TEXT	ENDS
PUBLIC	??_C@_0FH@EMNILGLC@?$FLARDOPprotocol?4Gearshift_5?$FN?5Shif@ ; `string'
PUBLIC	??_C@_0DI@LBIJGJEF@?$FLARDOPprotocol?4Gearshift_5?$FN?5intN@ ; `string'
PUBLIC	_Gearshift_5
EXTRN	_Name:PROC
EXTRN	_bytDataToSendLength:DWORD
;	COMDAT ??_C@_0FH@EMNILGLC@?$FLARDOPprotocol?4Gearshift_5?$FN?5Shif@
CONST	SEGMENT
??_C@_0FH@EMNILGLC@?$FLARDOPprotocol?4Gearshift_5?$FN?5Shif@ DB '[ARDOPpr'
	DB	'otocol.Gearshift_5] ShiftUpDn = %d, AvgQuality=%d Resetting t'
	DB	'o %d New Mode: %s', 00H			; `string'
CONST	ENDS
;	COMDAT ??_C@_0DI@LBIJGJEF@?$FLARDOPprotocol?4Gearshift_5?$FN?5intN@
CONST	SEGMENT
??_C@_0DI@LBIJGJEF@?$FLARDOPprotocol?4Gearshift_5?$FN?5intN@ DB '[ARDOPpr'
	DB	'otocol.Gearshift_5] intNAKCtr=%d ShiftUpDn = -1', 00H ; `string'
; Function compile flags: /Odtp /RTCsu /ZI
CONST	ENDS
;	COMDAT _Gearshift_5
_TEXT	SEGMENT
tv136 = -232						; size = 4
tv74 = -232						; size = 4
_intBytesRemaining$ = -32				; size = 4
_intTripLow$ = -20					; size = 4
_intTripHi$ = -8					; size = 4
_Gearshift_5 PROC					; COMDAT

; 518  : {

  00000	55		 push	 ebp
  00001	8b ec		 mov	 ebp, esp
  00003	81 ec e8 00 00
	00		 sub	 esp, 232		; 000000e8H
  00009	53		 push	 ebx
  0000a	56		 push	 esi
  0000b	57		 push	 edi
  0000c	8d bd 18 ff ff
	ff		 lea	 edi, DWORD PTR [ebp-232]
  00012	b9 3a 00 00 00	 mov	 ecx, 58			; 0000003aH
  00017	b8 cc cc cc cc	 mov	 eax, -858993460		; ccccccccH
  0001c	f3 ab		 rep stosd

; 519  : 	//' More complex mechanism to gear shift based on intAvgQuality, current state and bytes remaining.
; 520  : 	//' This can be refined later with different or dynamic Trip points etc. 
; 521  : 
; 522  : 	int intTripHi = 79;		// Modified in revision 0.4.0 (was 82)

  0001e	c7 45 f8 4f 00
	00 00		 mov	 DWORD PTR _intTripHi$[ebp], 79 ; 0000004fH

; 523  : 	int intTripLow = 69;	// Modified in revision 0.4.0 (was 72)

  00025	c7 45 ec 45 00
	00 00		 mov	 DWORD PTR _intTripLow$[ebp], 69 ; 00000045H

; 524  : 
; 525  : 	int intBytesRemaining = bytDataToSendLength;

  0002c	a1 00 00 00 00	 mov	 eax, DWORD PTR _bytDataToSendLength
  00031	89 45 e0	 mov	 DWORD PTR _intBytesRemaining$[ebp], eax

; 526  : 
; 527  : 	if (intNAKctr >= 5 && intFrameTypePtr > 0)	//  NAK threshold changed from 10 to 6 on rev 0.3.5.2

  00034	83 3d 00 00 00
	00 05		 cmp	 DWORD PTR _intNAKctr, 5
  0003b	7c 4e		 jl	 SHORT $LN44@Gearshift_
  0003d	83 3d 00 00 00
	00 00		 cmp	 DWORD PTR _intFrameTypePtr, 0
  00044	7e 45		 jle	 SHORT $LN44@Gearshift_

; 528  : 	{
; 529  : 		if (DebugLog) Debugprintf("[ARDOPprotocol.Gearshift_5] intNAKCtr=%d ShiftUpDn = -1", intNAKctr);

  00046	83 3d 00 00 00
	00 00		 cmp	 DWORD PTR _DebugLog, 0
  0004d	74 13		 je	 SHORT $LN43@Gearshift_
  0004f	a1 00 00 00 00	 mov	 eax, DWORD PTR _intNAKctr
  00054	50		 push	 eax
  00055	68 00 00 00 00	 push	 OFFSET ??_C@_0DI@LBIJGJEF@?$FLARDOPprotocol?4Gearshift_5?$FN?5intN@
  0005a	e8 00 00 00 00	 call	 _Debugprintf
  0005f	83 c4 08	 add	 esp, 8
$LN43@Gearshift_:

; 530  :         
; 531  : 		intShiftUpDn = -1;  //Shift down if 5 NAKs without ACK.

  00062	c7 05 00 00 00
	00 ff ff ff ff	 mov	 DWORD PTR _intShiftUpDn, -1

; 532  : 		intAvgQuality = (intTripHi + intTripLow) / 2;	 // init back to mid way

  0006c	8b 45 f8	 mov	 eax, DWORD PTR _intTripHi$[ebp]
  0006f	03 45 ec	 add	 eax, DWORD PTR _intTripLow$[ebp]
  00072	99		 cdq
  00073	2b c2		 sub	 eax, edx
  00075	d1 f8		 sar	 eax, 1
  00077	a3 00 00 00 00	 mov	 DWORD PTR _intAvgQuality, eax

; 533  : 		intNAKctr = 0;

  0007c	c7 05 00 00 00
	00 00 00 00 00	 mov	 DWORD PTR _intNAKctr, 0
  00086	e9 cf 02 00 00	 jmp	 $LN45@Gearshift_
$LN44@Gearshift_:

; 534  : 	}
; 535  : 	else if (intAvgQuality > intTripHi && intFrameTypePtr < bytFrameTypesForBWLength) // ' if above Hi Trip setup so next call of GetNextFrameData will select a faster mode if one is available 

  0008b	a1 00 00 00 00	 mov	 eax, DWORD PTR _intAvgQuality
  00090	3b 45 f8	 cmp	 eax, DWORD PTR _intTripHi$[ebp]
  00093	0f 8e 95 01 00
	00		 jle	 $LN41@Gearshift_
  00099	a1 00 00 00 00	 mov	 eax, DWORD PTR _intFrameTypePtr
  0009e	3b 05 00 00 00
	00		 cmp	 eax, DWORD PTR _bytFrameTypesForBWLength
  000a4	0f 8d 84 01 00
	00		 jge	 $LN41@Gearshift_

; 536  : 	{
; 537  : 		intShiftUpDn = 0;

  000aa	c7 05 00 00 00
	00 00 00 00 00	 mov	 DWORD PTR _intShiftUpDn, 0

; 538  : 		
; 539  : 		if (TuningRange == 0)

  000b4	83 3d 00 00 00
	00 00		 cmp	 DWORD PTR _TuningRange, 0
  000bb	0f 85 c4 00 00
	00		 jne	 $LN40@Gearshift_

; 540  : 		{
; 541  : 			switch (intFrameTypePtr)

  000c1	a1 00 00 00 00	 mov	 eax, DWORD PTR _intFrameTypePtr
  000c6	89 85 18 ff ff
	ff		 mov	 DWORD PTR tv74[ebp], eax
  000cc	83 bd 18 ff ff
	ff 04		 cmp	 DWORD PTR tv74[ebp], 4
  000d3	0f 87 aa 00 00
	00		 ja	 $LN38@Gearshift_
  000d9	8b 8d 18 ff ff
	ff		 mov	 ecx, DWORD PTR tv74[ebp]
  000df	ff 24 8d 00 00
	00 00		 jmp	 DWORD PTR $LN47@Gearshift_[ecx*4]
$LN37@Gearshift_:

; 542  : 			{
; 543  : 			case 0:
; 544  : 				
; 545  : 				if (intBytesRemaining > 64)

  000e6	83 7d e0 40	 cmp	 DWORD PTR _intBytesRemaining$[ebp], 64 ; 00000040H
  000ea	7e 0c		 jle	 SHORT $LN36@Gearshift_

; 546  : 					intShiftUpDn = 2;

  000ec	c7 05 00 00 00
	00 02 00 00 00	 mov	 DWORD PTR _intShiftUpDn, 2
  000f6	eb 10		 jmp	 SHORT $LN35@Gearshift_
$LN36@Gearshift_:

; 547  : 				else if (intBytesRemaining > 32)

  000f8	83 7d e0 20	 cmp	 DWORD PTR _intBytesRemaining$[ebp], 32 ; 00000020H
  000fc	7e 0a		 jle	 SHORT $LN35@Gearshift_

; 548  : 					intShiftUpDn = 1;

  000fe	c7 05 00 00 00
	00 01 00 00 00	 mov	 DWORD PTR _intShiftUpDn, 1
$LN35@Gearshift_:

; 549  : 
; 550  : 				break;

  00108	eb 79		 jmp	 SHORT $LN38@Gearshift_
$LN33@Gearshift_:

; 551  : 
; 552  : 			case 1:
; 553  : 		
; 554  : 				if (intBytesRemaining > 200)

  0010a	81 7d e0 c8 00
	00 00		 cmp	 DWORD PTR _intBytesRemaining$[ebp], 200 ; 000000c8H
  00111	7e 0c		 jle	 SHORT $LN32@Gearshift_

; 555  : 					intShiftUpDn = 2;

  00113	c7 05 00 00 00
	00 02 00 00 00	 mov	 DWORD PTR _intShiftUpDn, 2
  0011d	eb 10		 jmp	 SHORT $LN31@Gearshift_
$LN32@Gearshift_:

; 556  : 				else if (intBytesRemaining > 64)

  0011f	83 7d e0 40	 cmp	 DWORD PTR _intBytesRemaining$[ebp], 64 ; 00000040H
  00123	7e 0a		 jle	 SHORT $LN31@Gearshift_

; 557  : 					intShiftUpDn = 1;

  00125	c7 05 00 00 00
	00 01 00 00 00	 mov	 DWORD PTR _intShiftUpDn, 1
$LN31@Gearshift_:

; 558  : 
; 559  : 				break;

  0012f	eb 52		 jmp	 SHORT $LN38@Gearshift_
$LN29@Gearshift_:

; 560  :  
; 561  : 			case 2:
; 562  : 	
; 563  : 				if (intBytesRemaining > 400)

  00131	81 7d e0 90 01
	00 00		 cmp	 DWORD PTR _intBytesRemaining$[ebp], 400 ; 00000190H
  00138	7e 0c		 jle	 SHORT $LN28@Gearshift_

; 564  : 					intShiftUpDn = 2;

  0013a	c7 05 00 00 00
	00 02 00 00 00	 mov	 DWORD PTR _intShiftUpDn, 2
  00144	eb 13		 jmp	 SHORT $LN27@Gearshift_
$LN28@Gearshift_:

; 565  : 				else if (intBytesRemaining > 200)

  00146	81 7d e0 c8 00
	00 00		 cmp	 DWORD PTR _intBytesRemaining$[ebp], 200 ; 000000c8H
  0014d	7e 0a		 jle	 SHORT $LN27@Gearshift_

; 566  : 					intShiftUpDn = 1;

  0014f	c7 05 00 00 00
	00 01 00 00 00	 mov	 DWORD PTR _intShiftUpDn, 1
$LN27@Gearshift_:

; 567  : 
; 568  : 				break;

  00159	eb 28		 jmp	 SHORT $LN38@Gearshift_
$LN25@Gearshift_:

; 569  : 
; 570  : 			case 3:
; 571  : 				
; 572  : 				if (intBytesRemaining > 600) intShiftUpDn = 1;

  0015b	81 7d e0 58 02
	00 00		 cmp	 DWORD PTR _intBytesRemaining$[ebp], 600 ; 00000258H
  00162	7e 0a		 jle	 SHORT $LN24@Gearshift_
  00164	c7 05 00 00 00
	00 01 00 00 00	 mov	 DWORD PTR _intShiftUpDn, 1
$LN24@Gearshift_:

; 573  : 				break;

  0016e	eb 13		 jmp	 SHORT $LN38@Gearshift_
$LN23@Gearshift_:

; 574  : 		
; 575  : 			case 4:
; 576  : 				
; 577  : 				if (intBytesRemaining > 512) intShiftUpDn = 1;

  00170	81 7d e0 00 02
	00 00		 cmp	 DWORD PTR _intBytesRemaining$[ebp], 512 ; 00000200H
  00177	7e 0a		 jle	 SHORT $LN38@Gearshift_
  00179	c7 05 00 00 00
	00 01 00 00 00	 mov	 DWORD PTR _intShiftUpDn, 1
$LN38@Gearshift_:

; 578  : 				break;
; 579  : 			}
; 580  : 		}
; 581  : 		
; 582  : 		else if (intSessionBW == 200)

  00183	eb 3d		 jmp	 SHORT $LN21@Gearshift_
$LN40@Gearshift_:
  00185	81 3d 00 00 00
	00 c8 00 00 00	 cmp	 DWORD PTR _intSessionBW, 200 ; 000000c8H
  0018f	75 0c		 jne	 SHORT $LN20@Gearshift_

; 583  : 			intShiftUpDn = 1;

  00191	c7 05 00 00 00
	00 01 00 00 00	 mov	 DWORD PTR _intShiftUpDn, 1
  0019b	eb 25		 jmp	 SHORT $LN21@Gearshift_
$LN20@Gearshift_:

; 584  : 		else if (intFrameTypePtr == 0 && intBytesRemaining > 32)

  0019d	83 3d 00 00 00
	00 00		 cmp	 DWORD PTR _intFrameTypePtr, 0
  001a4	75 12		 jne	 SHORT $LN18@Gearshift_
  001a6	83 7d e0 20	 cmp	 DWORD PTR _intBytesRemaining$[ebp], 32 ; 00000020H
  001aa	7e 0c		 jle	 SHORT $LN18@Gearshift_

; 585  : 			intShiftUpDn = 2;

  001ac	c7 05 00 00 00
	00 02 00 00 00	 mov	 DWORD PTR _intShiftUpDn, 2

; 586  : 		else

  001b6	eb 0a		 jmp	 SHORT $LN21@Gearshift_
$LN18@Gearshift_:

; 587  : 			intShiftUpDn = 1;

  001b8	c7 05 00 00 00
	00 01 00 00 00	 mov	 DWORD PTR _intShiftUpDn, 1
$LN21@Gearshift_:

; 588  : 
; 589  : 		if (DebugLog) Debugprintf("[ARDOPprotocol.Gearshift_5] ShiftUpDn = %d, AvgQuality=%d Resetting to %d New Mode: %s",

  001c2	83 3d 00 00 00
	00 00		 cmp	 DWORD PTR _DebugLog, 0
  001c9	74 44		 je	 SHORT $LN16@Gearshift_

; 590  : 			intShiftUpDn, intAvgQuality, (intTripHi + intTripLow) / 2, Name(bytFrameTypesForBW[intFrameTypePtr + intShiftUpDn]));

  001cb	a1 00 00 00 00	 mov	 eax, DWORD PTR _intFrameTypePtr
  001d0	03 05 00 00 00
	00		 add	 eax, DWORD PTR _intShiftUpDn
  001d6	8b 0d 00 00 00
	00		 mov	 ecx, DWORD PTR _bytFrameTypesForBW
  001dc	8a 14 01	 mov	 dl, BYTE PTR [ecx+eax]
  001df	52		 push	 edx
  001e0	e8 00 00 00 00	 call	 _Name
  001e5	83 c4 04	 add	 esp, 4
  001e8	50		 push	 eax
  001e9	8b 45 f8	 mov	 eax, DWORD PTR _intTripHi$[ebp]
  001ec	03 45 ec	 add	 eax, DWORD PTR _intTripLow$[ebp]
  001ef	99		 cdq
  001f0	2b c2		 sub	 eax, edx
  001f2	d1 f8		 sar	 eax, 1
  001f4	50		 push	 eax
  001f5	a1 00 00 00 00	 mov	 eax, DWORD PTR _intAvgQuality
  001fa	50		 push	 eax
  001fb	8b 0d 00 00 00
	00		 mov	 ecx, DWORD PTR _intShiftUpDn
  00201	51		 push	 ecx
  00202	68 00 00 00 00	 push	 OFFSET ??_C@_0FH@EMNILGLC@?$FLARDOPprotocol?4Gearshift_5?$FN?5Shif@
  00207	e8 00 00 00 00	 call	 _Debugprintf
  0020c	83 c4 14	 add	 esp, 20			; 00000014H
$LN16@Gearshift_:

; 591  : 	
; 592  : 		intAvgQuality = (intTripHi + intTripLow) / 2;	 // init back to mid way

  0020f	8b 45 f8	 mov	 eax, DWORD PTR _intTripHi$[ebp]
  00212	03 45 ec	 add	 eax, DWORD PTR _intTripLow$[ebp]
  00215	99		 cdq
  00216	2b c2		 sub	 eax, edx
  00218	d1 f8		 sar	 eax, 1
  0021a	a3 00 00 00 00	 mov	 DWORD PTR _intAvgQuality, eax

; 593  : 		intNAKctr = 0;

  0021f	c7 05 00 00 00
	00 00 00 00 00	 mov	 DWORD PTR _intNAKctr, 0
  00229	e9 2c 01 00 00	 jmp	 $LN45@Gearshift_
$LN41@Gearshift_:

; 594  : 	}
; 595  : 	else if (intAvgQuality < intTripLow && intFrameTypePtr > 0)   // if below Low Trip setup so next call of GetNextFrameData will select a more robust mode if one is available 

  0022e	a1 00 00 00 00	 mov	 eax, DWORD PTR _intAvgQuality
  00233	3b 45 ec	 cmp	 eax, DWORD PTR _intTripLow$[ebp]
  00236	0f 8d 1e 01 00
	00		 jge	 $LN45@Gearshift_
  0023c	83 3d 00 00 00
	00 00		 cmp	 DWORD PTR _intFrameTypePtr, 0
  00243	0f 8e 11 01 00
	00		 jle	 $LN45@Gearshift_

; 596  : 	{
; 597  : 		intShiftUpDn = 0;

  00249	c7 05 00 00 00
	00 00 00 00 00	 mov	 DWORD PTR _intShiftUpDn, 0

; 598  : 		
; 599  : 		if (TuningRange == 0)

  00253	83 3d 00 00 00
	00 00		 cmp	 DWORD PTR _TuningRange, 0
  0025a	75 5a		 jne	 SHORT $LN13@Gearshift_

; 600  : 		{
; 601  : 			switch (intFrameTypePtr)

  0025c	a1 00 00 00 00	 mov	 eax, DWORD PTR _intFrameTypePtr
  00261	89 85 18 ff ff
	ff		 mov	 DWORD PTR tv136[ebp], eax
  00267	8b 8d 18 ff ff
	ff		 mov	 ecx, DWORD PTR tv136[ebp]
  0026d	83 e9 01	 sub	 ecx, 1
  00270	89 8d 18 ff ff
	ff		 mov	 DWORD PTR tv136[ebp], ecx
  00276	83 bd 18 ff ff
	ff 04		 cmp	 DWORD PTR tv136[ebp], 4
  0027d	77 35		 ja	 SHORT $LN11@Gearshift_
  0027f	8b 95 18 ff ff
	ff		 mov	 edx, DWORD PTR tv136[ebp]
  00285	ff 24 95 00 00
	00 00		 jmp	 DWORD PTR $LN48@Gearshift_[edx*4]
$LN10@Gearshift_:

; 602  : 			{
; 603  : 			case 1:
; 604  : 				
; 605  : 				if (intBytesRemaining < 33)  intShiftUpDn = -1;

  0028c	83 7d e0 21	 cmp	 DWORD PTR _intBytesRemaining$[ebp], 33 ; 00000021H
  00290	7d 0a		 jge	 SHORT $LN9@Gearshift_
  00292	c7 05 00 00 00
	00 ff ff ff ff	 mov	 DWORD PTR _intShiftUpDn, -1
$LN9@Gearshift_:

; 606  : 				break;

  0029c	eb 16		 jmp	 SHORT $LN11@Gearshift_
$LN8@Gearshift_:

; 607  :  
; 608  : 			case 2:
; 609  : 			case 4:
; 610  : 			case 5:
; 611  : 	
; 612  : 				intShiftUpDn = -1;

  0029e	c7 05 00 00 00
	00 ff ff ff ff	 mov	 DWORD PTR _intShiftUpDn, -1

; 613  : 				break;

  002a8	eb 0a		 jmp	 SHORT $LN11@Gearshift_
$LN7@Gearshift_:

; 614  : 
; 615  : 			case 3:
; 616  : 				
; 617  : 				intShiftUpDn = -2;

  002aa	c7 05 00 00 00
	00 fe ff ff ff	 mov	 DWORD PTR _intShiftUpDn, -2 ; fffffffeH
$LN11@Gearshift_:

; 618  : 				break;
; 619  : 			}
; 620  : 		}
; 621  : 
; 622  : 		else if  (intSessionBW == 200)

  002b4	eb 3d		 jmp	 SHORT $LN6@Gearshift_
$LN13@Gearshift_:
  002b6	81 3d 00 00 00
	00 c8 00 00 00	 cmp	 DWORD PTR _intSessionBW, 200 ; 000000c8H
  002c0	75 0c		 jne	 SHORT $LN5@Gearshift_

; 623  : 			intShiftUpDn = -1;

  002c2	c7 05 00 00 00
	00 ff ff ff ff	 mov	 DWORD PTR _intShiftUpDn, -1

; 624  : 		else

  002cc	eb 25		 jmp	 SHORT $LN6@Gearshift_
$LN5@Gearshift_:

; 625  : 		{
; 626  : 			if (intFrameTypePtr == 2 && intBytesRemaining < 17)

  002ce	83 3d 00 00 00
	00 02		 cmp	 DWORD PTR _intFrameTypePtr, 2
  002d5	75 12		 jne	 SHORT $LN3@Gearshift_
  002d7	83 7d e0 11	 cmp	 DWORD PTR _intBytesRemaining$[ebp], 17 ; 00000011H
  002db	7d 0c		 jge	 SHORT $LN3@Gearshift_

; 627  : 				intShiftUpDn = -2;

  002dd	c7 05 00 00 00
	00 fe ff ff ff	 mov	 DWORD PTR _intShiftUpDn, -2 ; fffffffeH

; 628  : 			else

  002e7	eb 0a		 jmp	 SHORT $LN6@Gearshift_
$LN3@Gearshift_:

; 629  : 				intShiftUpDn = -1;

  002e9	c7 05 00 00 00
	00 ff ff ff ff	 mov	 DWORD PTR _intShiftUpDn, -1
$LN6@Gearshift_:

; 630  : 		}
; 631  : 
; 632  : 		if (DebugLog) Debugprintf("[ARDOPprotocol.Gearshift_5] ShiftUpDn = %d, AvgQuality=%d Resetting to %d New Mode: %s",

  002f3	83 3d 00 00 00
	00 00		 cmp	 DWORD PTR _DebugLog, 0
  002fa	74 44		 je	 SHORT $LN1@Gearshift_

; 633  : 			intShiftUpDn, intAvgQuality, (intTripHi + intTripLow) / 2, Name(bytFrameTypesForBW[intFrameTypePtr + intShiftUpDn]));

  002fc	a1 00 00 00 00	 mov	 eax, DWORD PTR _intFrameTypePtr
  00301	03 05 00 00 00
	00		 add	 eax, DWORD PTR _intShiftUpDn
  00307	8b 0d 00 00 00
	00		 mov	 ecx, DWORD PTR _bytFrameTypesForBW
  0030d	8a 14 01	 mov	 dl, BYTE PTR [ecx+eax]
  00310	52		 push	 edx
  00311	e8 00 00 00 00	 call	 _Name
  00316	83 c4 04	 add	 esp, 4
  00319	50		 push	 eax
  0031a	8b 45 f8	 mov	 eax, DWORD PTR _intTripHi$[ebp]
  0031d	03 45 ec	 add	 eax, DWORD PTR _intTripLow$[ebp]
  00320	99		 cdq
  00321	2b c2		 sub	 eax, edx
  00323	d1 f8		 sar	 eax, 1
  00325	50		 push	 eax
  00326	a1 00 00 00 00	 mov	 eax, DWORD PTR _intAvgQuality
  0032b	50		 push	 eax
  0032c	8b 0d 00 00 00
	00		 mov	 ecx, DWORD PTR _intShiftUpDn
  00332	51		 push	 ecx
  00333	68 00 00 00 00	 push	 OFFSET ??_C@_0FH@EMNILGLC@?$FLARDOPprotocol?4Gearshift_5?$FN?5Shif@
  00338	e8 00 00 00 00	 call	 _Debugprintf
  0033d	83 c4 14	 add	 esp, 20			; 00000014H
$LN1@Gearshift_:

; 634  : 			
; 635  : 		intAvgQuality = (intTripHi + intTripLow) / 2;  // init back to mid way

  00340	8b 45 f8	 mov	 eax, DWORD PTR _intTripHi$[ebp]
  00343	03 45 ec	 add	 eax, DWORD PTR _intTripLow$[ebp]
  00346	99		 cdq
  00347	2b c2		 sub	 eax, edx
  00349	d1 f8		 sar	 eax, 1
  0034b	a3 00 00 00 00	 mov	 DWORD PTR _intAvgQuality, eax

; 636  : 		intNAKctr = 0;

  00350	c7 05 00 00 00
	00 00 00 00 00	 mov	 DWORD PTR _intNAKctr, 0
$LN45@Gearshift_:

; 637  : 	}
; 638  : 	
; 639  : //	if (intShiftUpDn < 0)
; 640  : //		intShiftDNs++;
; 641  : //	else if (intShiftUpDn > 0)
; 642  : //		intShiftUPs++;
; 643  : }

  0035a	5f		 pop	 edi
  0035b	5e		 pop	 esi
  0035c	5b		 pop	 ebx
  0035d	81 c4 e8 00 00
	00		 add	 esp, 232		; 000000e8H
  00363	3b ec		 cmp	 ebp, esp
  00365	e8 00 00 00 00	 call	 __RTC_CheckEsp
  0036a	8b e5		 mov	 esp, ebp
  0036c	5d		 pop	 ebp
  0036d	c3		 ret	 0
  0036e	8b ff		 npad	 2
$LN47@Gearshift_:
  00370	00 00 00 00	 DD	 $LN37@Gearshift_
  00374	00 00 00 00	 DD	 $LN33@Gearshift_
  00378	00 00 00 00	 DD	 $LN29@Gearshift_
  0037c	00 00 00 00	 DD	 $LN25@Gearshift_
  00380	00 00 00 00	 DD	 $LN23@Gearshift_
$LN48@Gearshift_:
  00384	00 00 00 00	 DD	 $LN10@Gearshift_
  00388	00 00 00 00	 DD	 $LN8@Gearshift_
  0038c	00 00 00 00	 DD	 $LN7@Gearshift_
  00390	00 00 00 00	 DD	 $LN8@Gearshift_
  00394	00 00 00 00	 DD	 $LN8@Gearshift_
_Gearshift_5 ENDP
_TEXT	ENDS
PUBLIC	__real@3fe0000000000000
PUBLIC	__real@3ff0000000000000
PUBLIC	__real@3f000000
PUBLIC	_ComputeQualityAvg
EXTRN	__fltused:DWORD
EXTRN	__ftol2_sse:PROC
;	COMDAT __real@3fe0000000000000
CONST	SEGMENT
__real@3fe0000000000000 DQ 03fe0000000000000r	; 0.5
CONST	ENDS
;	COMDAT __real@3ff0000000000000
CONST	SEGMENT
__real@3ff0000000000000 DQ 03ff0000000000000r	; 1
CONST	ENDS
;	COMDAT __real@3f000000
CONST	SEGMENT
__real@3f000000 DD 03f000000r			; 0.5
; Function compile flags: /Odtp /RTCsu /ZI
CONST	ENDS
;	COMDAT _ComputeQualityAvg
_TEXT	SEGMENT
_dblAlpha$ = -8						; size = 4
_intReportedQuality$ = 8				; size = 4
_ComputeQualityAvg PROC					; COMDAT

; 648  : {

  00000	55		 push	 ebp
  00001	8b ec		 mov	 ebp, esp
  00003	81 ec cc 00 00
	00		 sub	 esp, 204		; 000000ccH
  00009	53		 push	 ebx
  0000a	56		 push	 esi
  0000b	57		 push	 edi
  0000c	8d bd 34 ff ff
	ff		 lea	 edi, DWORD PTR [ebp-204]
  00012	b9 33 00 00 00	 mov	 ecx, 51			; 00000033H
  00017	b8 cc cc cc cc	 mov	 eax, -858993460		; ccccccccH
  0001c	f3 ab		 rep stosd

; 649  : 	float dblAlpha = 0.5f;	 // adjust this for exponential averaging speed.  smaller alpha = slower response & smoother averages but less rapid shifting. 

  0001e	d9 05 00 00 00
	00		 fld	 DWORD PTR __real@3f000000
  00024	d9 5d f8	 fstp	 DWORD PTR _dblAlpha$[ebp]

; 650  : 
; 651  : 	if (intAvgQuality == 0)

  00027	83 3d 00 00 00
	00 00		 cmp	 DWORD PTR _intAvgQuality, 0
  0002e	75 0a		 jne	 SHORT $LN2@ComputeQua

; 652  : 	{
; 653  : 		intAvgQuality = intReportedQuality;

  00030	8b 45 08	 mov	 eax, DWORD PTR _intReportedQuality$[ebp]
  00033	a3 00 00 00 00	 mov	 DWORD PTR _intAvgQuality, eax

; 654  :         //    if (DebugLog) Debugprintf(("[ARDOPprotocol.ComputeQualityAvg] Initialize AvgQuality=" & intAvgQuality.ToString)
; 655  : 	}
; 656  : 	else

  00038	eb 27		 jmp	 SHORT $LN1@ComputeQua
$LN2@ComputeQua:

; 657  : 	{
; 658  : 		intAvgQuality = intAvgQuality * (1 - dblAlpha) + (dblAlpha * intReportedQuality) + 0.5f; // exponential averager 

  0003a	db 05 00 00 00
	00		 fild	 DWORD PTR _intAvgQuality
  00040	d9 45 f8	 fld	 DWORD PTR _dblAlpha$[ebp]
  00043	d9 e8		 fld1
  00045	de e1		 fsubrp	 ST(1), ST(0)
  00047	de c9		 fmulp	 ST(1), ST(0)
  00049	db 45 08	 fild	 DWORD PTR _intReportedQuality$[ebp]
  0004c	d8 4d f8	 fmul	 DWORD PTR _dblAlpha$[ebp]
  0004f	de c1		 faddp	 ST(1), ST(0)
  00051	dc 05 00 00 00
	00		 fadd	 QWORD PTR __real@3fe0000000000000
  00057	e8 00 00 00 00	 call	 __ftol2_sse
  0005c	a3 00 00 00 00	 mov	 DWORD PTR _intAvgQuality, eax
$LN1@ComputeQua:

; 659  :         //    if (DebugLog) Debugprintf(("[ARDOPprotocol.ComputeQualityAvg] Reported Quality=" & intReportedQuality.ToString & "  New Avg Quality=" & intAvgQuality.ToString)
; 660  : 	}
; 661  : }

  00061	5f		 pop	 edi
  00062	5e		 pop	 esi
  00063	5b		 pop	 ebx
  00064	81 c4 cc 00 00
	00		 add	 esp, 204		; 000000ccH
  0006a	3b ec		 cmp	 ebp, esp
  0006c	e8 00 00 00 00	 call	 __RTC_CheckEsp
  00071	8b e5		 mov	 esp, ebp
  00073	5d		 pop	 ebp
  00074	c3		 ret	 0
_ComputeQualityAvg ENDP
_TEXT	ENDS
PUBLIC	??_C@_0EI@NLEKODIL@?$FLARDOPprotocol?4SendDataOrIDLE?$FN?5D@ ; `string'
PUBLIC	??_C@_0EL@MPFHLKIF@?$FLARDOPprotocol?4SendDataOrIDLE?$FN?5D@ ; `string'
PUBLIC	??_C@_04GLIEPKGD@8FSK?$AA@			; `string'
PUBLIC	??_C@_05GMHCMGLE@16FSK?$AA@			; `string'
PUBLIC	??_C@_04KOHEBHGC@4FSK?$AA@			; `string'
PUBLIC	??_C@_0BH@JNLNOKKN@Sending?5Type?5?$CFx?5Len?5?$CFd?$AA@ ; `string'
PUBLIC	_GetNextFrameData
PUBLIC	??_C@_0EP@DBGACMJI@?$FLARDOPprotocol?4SendDataOrIDLE?$FN?5D@ ; `string'
PUBLIC	??_C@_0EI@PMHFMHAI@?$FLARDOPprotocol?4SendDataOrIDLE?$FN?5D@ ; `string'
PUBLIC	_Send10MinID
PUBLIC	_CheckForDisconnect
PUBLIC	__$ArrayPad$
PUBLIC	_SendDataOrIDLE
EXTRN	_ModPSKDataAndPlay:PROC
EXTRN	_EncodePSKData:PROC
EXTRN	_Mod8FSKDataAndPlay:PROC
EXTRN	_Mod16FSKDataAndPlay:PROC
EXTRN	_Mod4FSK600BdDataAndPlay:PROC
EXTRN	_EncodeFSKData:PROC
EXTRN	_bytDataToSend:BYTE
EXTRN	_Mod4FSKDataAndPlay:PROC
EXTRN	_LeaderLength:DWORD
EXTRN	_EncLen:DWORD
EXTRN	_Encode4FSKControl:PROC
EXTRN	_bytEncodedBytes:BYTE
;	COMDAT ??_C@_0EI@NLEKODIL@?$FLARDOPprotocol?4SendDataOrIDLE?$FN?5D@
CONST	SEGMENT
??_C@_0EI@NLEKODIL@?$FLARDOPprotocol?4SendDataOrIDLE?$FN?5D@ DB '[ARDOPpr'
	DB	'otocol.SendDataOrIDLE] DataToSend = 0, ProtocolState ISS > ID'
	DB	'LE', 00H					; `string'
CONST	ENDS
;	COMDAT ??_C@_0EL@MPFHLKIF@?$FLARDOPprotocol?4SendDataOrIDLE?$FN?5D@
CONST	SEGMENT
??_C@_0EL@MPFHLKIF@?$FLARDOPprotocol?4SendDataOrIDLE?$FN?5D@ DB '[ARDOPpr'
	DB	'otocol.SendDataOrIDLE] DataToSend = %d bytes, In ProtocolStat'
	DB	'e ISS', 00H					; `string'
CONST	ENDS
;	COMDAT ??_C@_04GLIEPKGD@8FSK?$AA@
CONST	SEGMENT
??_C@_04GLIEPKGD@8FSK?$AA@ DB '8FSK', 00H		; `string'
CONST	ENDS
;	COMDAT ??_C@_05GMHCMGLE@16FSK?$AA@
CONST	SEGMENT
??_C@_05GMHCMGLE@16FSK?$AA@ DB '16FSK', 00H		; `string'
CONST	ENDS
;	COMDAT ??_C@_04KOHEBHGC@4FSK?$AA@
CONST	SEGMENT
??_C@_04KOHEBHGC@4FSK?$AA@ DB '4FSK', 00H		; `string'
CONST	ENDS
;	COMDAT ??_C@_0BH@JNLNOKKN@Sending?5Type?5?$CFx?5Len?5?$CFd?$AA@
CONST	SEGMENT
??_C@_0BH@JNLNOKKN@Sending?5Type?5?$CFx?5Len?5?$CFd?$AA@ DB 'Sending Type'
	DB	' %x Len %d', 00H				; `string'
CONST	ENDS
;	COMDAT ??_C@_0EP@DBGACMJI@?$FLARDOPprotocol?4SendDataOrIDLE?$FN?5D@
CONST	SEGMENT
??_C@_0EP@DBGACMJI@?$FLARDOPprotocol?4SendDataOrIDLE?$FN?5D@ DB '[ARDOPpr'
	DB	'otocol.SendDataOrIDLE] DataToSend = %d bytes, ProtocolState I'
	DB	'DLE > ISS', 00H				; `string'
CONST	ENDS
;	COMDAT ??_C@_0EI@PMHFMHAI@?$FLARDOPprotocol?4SendDataOrIDLE?$FN?5D@
CONST	SEGMENT
??_C@_0EI@PMHFMHAI@?$FLARDOPprotocol?4SendDataOrIDLE?$FN?5D@ DB '[ARDOPpr'
	DB	'otocol.SendDataOrIDLE] DataToSend = 0, Go to ProtocolState ID'
	DB	'LE', 00H					; `string'
; Function compile flags: /Odtp /RTCsu /ZI
CONST	ENDS
;	COMDAT _SendDataOrIDLE
_TEXT	SEGMENT
tv65 = -236						; size = 4
_Len$ = -36						; size = 4
_strMod$ = -24						; size = 16
__$ArrayPad$ = -4					; size = 4
_SendDataOrIDLE PROC					; COMDAT

; 666  : {

  00000	55		 push	 ebp
  00001	8b ec		 mov	 ebp, esp
  00003	81 ec ec 00 00
	00		 sub	 esp, 236		; 000000ecH
  00009	53		 push	 ebx
  0000a	56		 push	 esi
  0000b	57		 push	 edi
  0000c	8d bd 14 ff ff
	ff		 lea	 edi, DWORD PTR [ebp-236]
  00012	b9 3b 00 00 00	 mov	 ecx, 59			; 0000003bH
  00017	b8 cc cc cc cc	 mov	 eax, -858993460		; ccccccccH
  0001c	f3 ab		 rep stosd
  0001e	a1 00 00 00 00	 mov	 eax, DWORD PTR ___security_cookie
  00023	33 c5		 xor	 eax, ebp
  00025	89 45 fc	 mov	 DWORD PTR __$ArrayPad$[ebp], eax

; 667  : 	char strMod[16];
; 668  : 	int Len;
; 669  : 
; 670  : 	// Check for ID frame required (every 10 minutes)
; 671  : 	
; 672  : 	if (blnDISCRepeating)

  00028	83 3d 00 00 00
	00 00		 cmp	 DWORD PTR _blnDISCRepeating, 0
  0002f	74 05		 je	 SHORT $LN33@SendDataOr

; 673  : 		return;

  00031	e9 ed 05 00 00	 jmp	 $LN34@SendDataOr
$LN33@SendDataOr:

; 674  : 
; 675  : 	switch (ProtocolState)

  00036	a1 00 00 00 00	 mov	 eax, DWORD PTR _ProtocolState
  0003b	89 85 14 ff ff
	ff		 mov	 DWORD PTR tv65[ebp], eax
  00041	83 bd 14 ff ff
	ff 02		 cmp	 DWORD PTR tv65[ebp], 2
  00048	0f 84 21 03 00
	00		 je	 $LN14@SendDataOr
  0004e	83 bd 14 ff ff
	ff 08		 cmp	 DWORD PTR tv65[ebp], 8
  00055	74 05		 je	 SHORT $LN30@SendDataOr
  00057	e9 c7 05 00 00	 jmp	 $LN34@SendDataOr
$LN30@SendDataOr:

; 676  : 	{
; 677  : 	case IDLE:
; 678  : 
; 679  : 		if (CheckForDisconnect())

  0005c	e8 00 00 00 00	 call	 _CheckForDisconnect
  00061	85 c0		 test	 eax, eax
  00063	74 05		 je	 SHORT $LN29@SendDataOr

; 680  : 			return;

  00065	e9 b9 05 00 00	 jmp	 $LN34@SendDataOr
$LN29@SendDataOr:

; 681  : 		
; 682  : 		if (bytDataToSendLength == 0 && blnEnbARQRpt)

  0006a	83 3d 00 00 00
	00 00		 cmp	 DWORD PTR _bytDataToSendLength, 0
  00071	75 0e		 jne	 SHORT $LN28@SendDataOr
  00073	83 3d 00 00 00
	00 00		 cmp	 DWORD PTR _blnEnbARQRpt, 0
  0007a	74 05		 je	 SHORT $LN28@SendDataOr

; 683  : 			return;		// let repeats (Data or IDLE) continue

  0007c	e9 a2 05 00 00	 jmp	 $LN34@SendDataOr
$LN28@SendDataOr:

; 684  : 
; 685  : 		if (bytDataToSendLength == 0 && !blnEnbARQRpt)

  00081	83 3d 00 00 00
	00 00		 cmp	 DWORD PTR _bytDataToSendLength, 0
  00088	0f 85 9e 00 00
	00		 jne	 $LN27@SendDataOr
  0008e	83 3d 00 00 00
	00 00		 cmp	 DWORD PTR _blnEnbARQRpt, 0
  00095	0f 85 91 00 00
	00		 jne	 $LN27@SendDataOr

; 686  : 		{
; 687  : 			Send10MinID();	 // Send ID if 10 minutes since last

  0009b	e8 00 00 00 00	 call	 _Send10MinID

; 688  : 
; 689  : 			// Send First IDLE and setup repeat
; 690  : 
; 691  : 			blnLastFrameSentData = FALSE;

  000a0	c7 05 00 00 00
	00 00 00 00 00	 mov	 DWORD PTR _blnLastFrameSentData, 0

; 692  : 			
; 693  : 			if (ProtocolState != IDLE)

  000aa	83 3d 00 00 00
	00 08		 cmp	 DWORD PTR _ProtocolState, 8
  000b1	74 20		 je	 SHORT $LN26@SendDataOr

; 694  : 			{
; 695  : 				if (DebugLog) Debugprintf("[ARDOPprotocol.SendDataOrIDLE] DataToSend = 0, Go to ProtocolState IDLE");

  000b3	83 3d 00 00 00
	00 00		 cmp	 DWORD PTR _DebugLog, 0
  000ba	74 0d		 je	 SHORT $LN25@SendDataOr
  000bc	68 00 00 00 00	 push	 OFFSET ??_C@_0EI@PMHFMHAI@?$FLARDOPprotocol?4SendDataOrIDLE?$FN?5D@
  000c1	e8 00 00 00 00	 call	 _Debugprintf
  000c6	83 c4 04	 add	 esp, 4
$LN25@SendDataOr:

; 696  : 				SetARDOPProtocolState(IDLE);

  000c9	6a 08		 push	 8
  000cb	e8 00 00 00 00	 call	 _SetARDOPProtocolState
  000d0	83 c4 04	 add	 esp, 4
$LN26@SendDataOr:

; 697  : 			}
; 698  : 
; 699  : 			intFrameRepeatInterval = 2000; // Keep IDLE/BREAK repeats fairly long 

  000d3	c7 05 00 00 00
	00 d0 07 00 00	 mov	 DWORD PTR _intFrameRepeatInterval, 2000 ; 000007d0H

; 700  : 			blnEnbARQRpt = TRUE;

  000dd	c7 05 00 00 00
	00 01 00 00 00	 mov	 DWORD PTR _blnEnbARQRpt, 1

; 701  : 			dttTimeoutTrip = Now;

  000e7	e8 00 00 00 00	 call	 _getTicks
  000ec	a3 00 00 00 00	 mov	 DWORD PTR _dttTimeoutTrip, eax

; 702  : 
; 703  : 			EncLen = Encode4FSKControl(IDLEFRAME, bytSessionID, bytEncodedBytes);

  000f1	68 00 00 00 00	 push	 OFFSET _bytEncodedBytes
  000f6	a0 00 00 00 00	 mov	 al, BYTE PTR _bytSessionID
  000fb	50		 push	 eax
  000fc	6a 26		 push	 38			; 00000026H
  000fe	e8 00 00 00 00	 call	 _Encode4FSKControl
  00103	83 c4 0c	 add	 esp, 12			; 0000000cH
  00106	a3 00 00 00 00	 mov	 DWORD PTR _EncLen, eax

; 704  : 			Mod4FSKDataAndPlay(IDLEFRAME, &bytEncodedBytes[0], EncLen, LeaderLength);		// only returns when all sent

  0010b	a1 00 00 00 00	 mov	 eax, DWORD PTR _LeaderLength
  00110	50		 push	 eax
  00111	8b 0d 00 00 00
	00		 mov	 ecx, DWORD PTR _EncLen
  00117	51		 push	 ecx
  00118	68 00 00 00 00	 push	 OFFSET _bytEncodedBytes
  0011d	6a 26		 push	 38			; 00000026H
  0011f	e8 00 00 00 00	 call	 _Mod4FSKDataAndPlay
  00124	83 c4 10	 add	 esp, 16			; 00000010H

; 705  : 
; 706  : 			return;

  00127	e9 f7 04 00 00	 jmp	 $LN34@SendDataOr
$LN27@SendDataOr:

; 707  : 		}
; 708  : 		if (bytDataToSendLength > 0)

  0012c	83 3d 00 00 00
	00 00		 cmp	 DWORD PTR _bytDataToSendLength, 0
  00133	0f 8e 31 02 00
	00		 jle	 $LN24@SendDataOr

; 709  : 		{			
; 710  : 			if (DebugLog) Debugprintf("[ARDOPprotocol.SendDataOrIDLE] DataToSend = %d bytes, ProtocolState IDLE > ISS", bytDataToSendLength);

  00139	83 3d 00 00 00
	00 00		 cmp	 DWORD PTR _DebugLog, 0
  00140	74 13		 je	 SHORT $LN23@SendDataOr
  00142	a1 00 00 00 00	 mov	 eax, DWORD PTR _bytDataToSendLength
  00147	50		 push	 eax
  00148	68 00 00 00 00	 push	 OFFSET ??_C@_0EP@DBGACMJI@?$FLARDOPprotocol?4SendDataOrIDLE?$FN?5D@
  0014d	e8 00 00 00 00	 call	 _Debugprintf
  00152	83 c4 08	 add	 esp, 8
$LN23@SendDataOr:

; 711  : 			
; 712  : 			SetARDOPProtocolState(ISS);

  00155	6a 02		 push	 2
  00157	e8 00 00 00 00	 call	 _SetARDOPProtocolState
  0015c	83 c4 04	 add	 esp, 4

; 713  : 			ARQState = ISSData;

  0015f	c7 05 00 00 00
	00 03 00 00 00	 mov	 DWORD PTR _ARQState, 3

; 714  : 			Send10MinID();		 // Send ID if 10 minutes since last

  00169	e8 00 00 00 00	 call	 _Send10MinID

; 715  : 
; 716  : 			Len = GetNextFrameData(&intShiftUpDn, &bytCurrentFrameType, strMod, FALSE);

  0016e	6a 00		 push	 0
  00170	8d 45 e8	 lea	 eax, DWORD PTR _strMod$[ebp]
  00173	50		 push	 eax
  00174	68 00 00 00 00	 push	 OFFSET _bytCurrentFrameType
  00179	68 00 00 00 00	 push	 OFFSET _intShiftUpDn
  0017e	e8 00 00 00 00	 call	 _GetNextFrameData
  00183	83 c4 10	 add	 esp, 16			; 00000010H
  00186	89 45 dc	 mov	 DWORD PTR _Len$[ebp], eax

; 717  : 
; 718  : 			Debugprintf("Sending Type %x Len %d", bytCurrentFrameType, Len);

  00189	8b 45 dc	 mov	 eax, DWORD PTR _Len$[ebp]
  0018c	50		 push	 eax
  0018d	0f b6 0d 00 00
	00 00		 movzx	 ecx, BYTE PTR _bytCurrentFrameType
  00194	51		 push	 ecx
  00195	68 00 00 00 00	 push	 OFFSET ??_C@_0BH@JNLNOKKN@Sending?5Type?5?$CFx?5Len?5?$CFd?$AA@
  0019a	e8 00 00 00 00	 call	 _Debugprintf
  0019f	83 c4 0c	 add	 esp, 12			; 0000000cH

; 719  : 
; 720  : 			blnLastFrameSentData = TRUE;

  001a2	c7 05 00 00 00
	00 01 00 00 00	 mov	 DWORD PTR _blnLastFrameSentData, 1

; 721  : 			intFrameRepeatInterval = 2000;  // set up 2000 ms repeat interval for Data may be able to shorten

  001ac	c7 05 00 00 00
	00 d0 07 00 00	 mov	 DWORD PTR _intFrameRepeatInterval, 2000 ; 000007d0H

; 722  : 			//'intFrameRepeatInterval = ComputeInterFrameInterval(1300) 'Fairly conservative...evaluate (based on measured leader from remote.
; 723  : 			dttTimeoutTrip = Now;

  001b6	e8 00 00 00 00	 call	 _getTicks
  001bb	a3 00 00 00 00	 mov	 DWORD PTR _dttTimeoutTrip, eax

; 724  : 			blnEnbARQRpt = TRUE;

  001c0	c7 05 00 00 00
	00 01 00 00 00	 mov	 DWORD PTR _blnEnbARQRpt, 1

; 725  : 
; 726  : 			if (strcmp(strMod, "4FSK") == 0)

  001ca	68 00 00 00 00	 push	 OFFSET ??_C@_04KOHEBHGC@4FSK?$AA@
  001cf	8d 45 e8	 lea	 eax, DWORD PTR _strMod$[ebp]
  001d2	50		 push	 eax
  001d3	e8 00 00 00 00	 call	 _strcmp
  001d8	83 c4 08	 add	 esp, 8
  001db	85 c0		 test	 eax, eax
  001dd	0f 85 85 00 00
	00		 jne	 $LN22@SendDataOr

; 727  : 			{
; 728  : 				EncLen = EncodeFSKData(bytCurrentFrameType, bytDataToSend, Len, bytEncodedBytes);

  001e3	68 00 00 00 00	 push	 OFFSET _bytEncodedBytes
  001e8	8b 45 dc	 mov	 eax, DWORD PTR _Len$[ebp]
  001eb	50		 push	 eax
  001ec	68 00 00 00 00	 push	 OFFSET _bytDataToSend
  001f1	8a 0d 00 00 00
	00		 mov	 cl, BYTE PTR _bytCurrentFrameType
  001f7	51		 push	 ecx
  001f8	e8 00 00 00 00	 call	 _EncodeFSKData
  001fd	83 c4 10	 add	 esp, 16			; 00000010H
  00200	a3 00 00 00 00	 mov	 DWORD PTR _EncLen, eax

; 729  : 				if (bytCurrentFrameType >= 0x7A && bytCurrentFrameType <= 0x7D)

  00205	0f b6 05 00 00
	00 00		 movzx	 eax, BYTE PTR _bytCurrentFrameType
  0020c	83 f8 7a	 cmp	 eax, 122		; 0000007aH
  0020f	7c 30		 jl	 SHORT $LN21@SendDataOr
  00211	0f b6 05 00 00
	00 00		 movzx	 eax, BYTE PTR _bytCurrentFrameType
  00218	83 f8 7d	 cmp	 eax, 125		; 0000007dH
  0021b	7f 24		 jg	 SHORT $LN21@SendDataOr

; 730  : 					Mod4FSK600BdDataAndPlay(bytEncodedBytes[0], bytEncodedBytes, EncLen, intCalcLeader);  // Modulate Data frame 

  0021d	a1 00 00 00 00	 mov	 eax, DWORD PTR _intCalcLeader
  00222	50		 push	 eax
  00223	8b 0d 00 00 00
	00		 mov	 ecx, DWORD PTR _EncLen
  00229	51		 push	 ecx
  0022a	68 00 00 00 00	 push	 OFFSET _bytEncodedBytes
  0022f	0f b6 15 00 00
	00 00		 movzx	 edx, BYTE PTR _bytEncodedBytes
  00236	52		 push	 edx
  00237	e8 00 00 00 00	 call	 _Mod4FSK600BdDataAndPlay
  0023c	83 c4 10	 add	 esp, 16			; 00000010H

; 731  : 				else

  0023f	eb 22		 jmp	 SHORT $LN20@SendDataOr
$LN21@SendDataOr:

; 732  : 					Mod4FSKDataAndPlay(bytEncodedBytes[0], bytEncodedBytes, EncLen, intCalcLeader);  // Modulate Data frame 

  00241	a1 00 00 00 00	 mov	 eax, DWORD PTR _intCalcLeader
  00246	50		 push	 eax
  00247	8b 0d 00 00 00
	00		 mov	 ecx, DWORD PTR _EncLen
  0024d	51		 push	 ecx
  0024e	68 00 00 00 00	 push	 OFFSET _bytEncodedBytes
  00253	0f b6 15 00 00
	00 00		 movzx	 edx, BYTE PTR _bytEncodedBytes
  0025a	52		 push	 edx
  0025b	e8 00 00 00 00	 call	 _Mod4FSKDataAndPlay
  00260	83 c4 10	 add	 esp, 16			; 00000010H
$LN20@SendDataOr:

; 733  : 			}
; 734  : 			else if (strcmp(strMod, "16FSK") == 0)

  00263	e9 fd 00 00 00	 jmp	 $LN19@SendDataOr
$LN22@SendDataOr:
  00268	68 00 00 00 00	 push	 OFFSET ??_C@_05GMHCMGLE@16FSK?$AA@
  0026d	8d 45 e8	 lea	 eax, DWORD PTR _strMod$[ebp]
  00270	50		 push	 eax
  00271	e8 00 00 00 00	 call	 _strcmp
  00276	83 c4 08	 add	 esp, 8
  00279	85 c0		 test	 eax, eax
  0027b	75 49		 jne	 SHORT $LN18@SendDataOr

; 735  : 			{
; 736  : 				EncLen = EncodeFSKData(bytCurrentFrameType, bytDataToSend, Len, bytEncodedBytes);

  0027d	68 00 00 00 00	 push	 OFFSET _bytEncodedBytes
  00282	8b 45 dc	 mov	 eax, DWORD PTR _Len$[ebp]
  00285	50		 push	 eax
  00286	68 00 00 00 00	 push	 OFFSET _bytDataToSend
  0028b	8a 0d 00 00 00
	00		 mov	 cl, BYTE PTR _bytCurrentFrameType
  00291	51		 push	 ecx
  00292	e8 00 00 00 00	 call	 _EncodeFSKData
  00297	83 c4 10	 add	 esp, 16			; 00000010H
  0029a	a3 00 00 00 00	 mov	 DWORD PTR _EncLen, eax

; 737  : 				Mod16FSKDataAndPlay(bytEncodedBytes[0], bytEncodedBytes, EncLen, intCalcLeader);  // Modulate Data frame 

  0029f	a1 00 00 00 00	 mov	 eax, DWORD PTR _intCalcLeader
  002a4	50		 push	 eax
  002a5	8b 0d 00 00 00
	00		 mov	 ecx, DWORD PTR _EncLen
  002ab	51		 push	 ecx
  002ac	68 00 00 00 00	 push	 OFFSET _bytEncodedBytes
  002b1	0f b6 15 00 00
	00 00		 movzx	 edx, BYTE PTR _bytEncodedBytes
  002b8	52		 push	 edx
  002b9	e8 00 00 00 00	 call	 _Mod16FSKDataAndPlay
  002be	83 c4 10	 add	 esp, 16			; 00000010H
  002c1	e9 9f 00 00 00	 jmp	 $LN19@SendDataOr
$LN18@SendDataOr:

; 738  : 			}
; 739  : 			else if (strcmp(strMod, "8FSK") == 0)

  002c6	68 00 00 00 00	 push	 OFFSET ??_C@_04GLIEPKGD@8FSK?$AA@
  002cb	8d 45 e8	 lea	 eax, DWORD PTR _strMod$[ebp]
  002ce	50		 push	 eax
  002cf	e8 00 00 00 00	 call	 _strcmp
  002d4	83 c4 08	 add	 esp, 8
  002d7	85 c0		 test	 eax, eax
  002d9	75 46		 jne	 SHORT $LN16@SendDataOr

; 740  : 			{
; 741  : 				EncLen = EncodeFSKData(bytCurrentFrameType, bytDataToSend, Len, bytEncodedBytes);          //      intCurrentFrameSamples = Mod8FSKData(bytFrameType, bytData);

  002db	68 00 00 00 00	 push	 OFFSET _bytEncodedBytes
  002e0	8b 45 dc	 mov	 eax, DWORD PTR _Len$[ebp]
  002e3	50		 push	 eax
  002e4	68 00 00 00 00	 push	 OFFSET _bytDataToSend
  002e9	8a 0d 00 00 00
	00		 mov	 cl, BYTE PTR _bytCurrentFrameType
  002ef	51		 push	 ecx
  002f0	e8 00 00 00 00	 call	 _EncodeFSKData
  002f5	83 c4 10	 add	 esp, 16			; 00000010H
  002f8	a3 00 00 00 00	 mov	 DWORD PTR _EncLen, eax

; 742  : 				Mod8FSKDataAndPlay(bytEncodedBytes[0], bytEncodedBytes, EncLen, intCalcLeader);  // Modulate Data frame 

  002fd	a1 00 00 00 00	 mov	 eax, DWORD PTR _intCalcLeader
  00302	50		 push	 eax
  00303	8b 0d 00 00 00
	00		 mov	 ecx, DWORD PTR _EncLen
  00309	51		 push	 ecx
  0030a	68 00 00 00 00	 push	 OFFSET _bytEncodedBytes
  0030f	0f b6 15 00 00
	00 00		 movzx	 edx, BYTE PTR _bytEncodedBytes
  00316	52		 push	 edx
  00317	e8 00 00 00 00	 call	 _Mod8FSKDataAndPlay
  0031c	83 c4 10	 add	 esp, 16			; 00000010H

; 743  : 			}
; 744  : 			else

  0031f	eb 44		 jmp	 SHORT $LN19@SendDataOr
$LN16@SendDataOr:

; 745  : 			{
; 746  : 				EncLen = EncodePSKData(bytCurrentFrameType, bytDataToSend, Len, bytEncodedBytes);

  00321	68 00 00 00 00	 push	 OFFSET _bytEncodedBytes
  00326	8b 45 dc	 mov	 eax, DWORD PTR _Len$[ebp]
  00329	50		 push	 eax
  0032a	68 00 00 00 00	 push	 OFFSET _bytDataToSend
  0032f	8a 0d 00 00 00
	00		 mov	 cl, BYTE PTR _bytCurrentFrameType
  00335	51		 push	 ecx
  00336	e8 00 00 00 00	 call	 _EncodePSKData
  0033b	83 c4 10	 add	 esp, 16			; 00000010H
  0033e	a3 00 00 00 00	 mov	 DWORD PTR _EncLen, eax

; 747  : 				ModPSKDataAndPlay(bytEncodedBytes[0], bytEncodedBytes, EncLen, intCalcLeader);  // Modulate Data frame 

  00343	a1 00 00 00 00	 mov	 eax, DWORD PTR _intCalcLeader
  00348	50		 push	 eax
  00349	8b 0d 00 00 00
	00		 mov	 ecx, DWORD PTR _EncLen
  0034f	51		 push	 ecx
  00350	68 00 00 00 00	 push	 OFFSET _bytEncodedBytes
  00355	0f b6 15 00 00
	00 00		 movzx	 edx, BYTE PTR _bytEncodedBytes
  0035c	52		 push	 edx
  0035d	e8 00 00 00 00	 call	 _ModPSKDataAndPlay
  00362	83 c4 10	 add	 esp, 16			; 00000010H
$LN19@SendDataOr:

; 748  : 			}
; 749  : 
; 750  : 			return;

  00365	e9 b9 02 00 00	 jmp	 $LN34@SendDataOr
$LN24@SendDataOr:

; 751  : 		}
; 752  : 		break;		// Shouldnt get here

  0036a	e9 b4 02 00 00	 jmp	 $LN34@SendDataOr
$LN14@SendDataOr:

; 753  : 	
; 754  : 	case ISS:
; 755  : 			
; 756  : 		if (CheckForDisconnect())

  0036f	e8 00 00 00 00	 call	 _CheckForDisconnect
  00374	85 c0		 test	 eax, eax
  00376	74 05		 je	 SHORT $LN13@SendDataOr

; 757  : 			return;

  00378	e9 a6 02 00 00	 jmp	 $LN34@SendDataOr
$LN13@SendDataOr:

; 758  : 		
; 759  : 		Send10MinID();  // Send ID if 10 minutes since last

  0037d	e8 00 00 00 00	 call	 _Send10MinID

; 760  : 
; 761  : 		if (bytDataToSendLength > 0)

  00382	83 3d 00 00 00
	00 00		 cmp	 DWORD PTR _bytDataToSendLength, 0
  00389	0f 8e 16 02 00
	00		 jle	 $LN12@SendDataOr

; 762  : 		{
; 763  : 			if (DebugLog) Debugprintf("[ARDOPprotocol.SendDataOrIDLE] DataToSend = %d bytes, In ProtocolState ISS", bytDataToSendLength);

  0038f	83 3d 00 00 00
	00 00		 cmp	 DWORD PTR _DebugLog, 0
  00396	74 13		 je	 SHORT $LN11@SendDataOr
  00398	a1 00 00 00 00	 mov	 eax, DWORD PTR _bytDataToSendLength
  0039d	50		 push	 eax
  0039e	68 00 00 00 00	 push	 OFFSET ??_C@_0EL@MPFHLKIF@?$FLARDOPprotocol?4SendDataOrIDLE?$FN?5D@
  003a3	e8 00 00 00 00	 call	 _Debugprintf
  003a8	83 c4 08	 add	 esp, 8
$LN11@SendDataOr:

; 764  : 
; 765  : 			//' Get the data from the buffer here based on current data frame type
; 766  : 			//' (Handles protocol Rule 2.1)
; 767  : 
; 768  : 			Len = bytQDataInProcessLen = GetNextFrameData(&intShiftUpDn, &bytCurrentFrameType, strMod, FALSE);

  003ab	6a 00		 push	 0
  003ad	8d 45 e8	 lea	 eax, DWORD PTR _strMod$[ebp]
  003b0	50		 push	 eax
  003b1	68 00 00 00 00	 push	 OFFSET _bytCurrentFrameType
  003b6	68 00 00 00 00	 push	 OFFSET _intShiftUpDn
  003bb	e8 00 00 00 00	 call	 _GetNextFrameData
  003c0	83 c4 10	 add	 esp, 16			; 00000010H
  003c3	a3 00 00 00 00	 mov	 DWORD PTR _bytQDataInProcessLen, eax
  003c8	8b 0d 00 00 00
	00		 mov	 ecx, DWORD PTR _bytQDataInProcessLen
  003ce	89 4d dc	 mov	 DWORD PTR _Len$[ebp], ecx

; 769  : 
; 770  : 			blnLastFrameSentData = TRUE;

  003d1	c7 05 00 00 00
	00 01 00 00 00	 mov	 DWORD PTR _blnLastFrameSentData, 1

; 771  : 			intFrameRepeatInterval = 2000;  // set up 2000 ms repeat interval for Data may be able to shorten

  003db	c7 05 00 00 00
	00 d0 07 00 00	 mov	 DWORD PTR _intFrameRepeatInterval, 2000 ; 000007d0H

; 772  : 			//'intFrameRepeatInterval = ComputeInterFrameInterval(1300) 'Fairly conservative...evaluate (based on measured leader from remote.
; 773  : 			dttTimeoutTrip = Now;

  003e5	e8 00 00 00 00	 call	 _getTicks
  003ea	a3 00 00 00 00	 mov	 DWORD PTR _dttTimeoutTrip, eax

; 774  : 			blnEnbARQRpt = TRUE;

  003ef	c7 05 00 00 00
	00 01 00 00 00	 mov	 DWORD PTR _blnEnbARQRpt, 1

; 775  : 			ARQState = ISSData;		 // Should not be necessary

  003f9	c7 05 00 00 00
	00 03 00 00 00	 mov	 DWORD PTR _ARQState, 3

; 776  : 
; 777  : 			if (strcmp(strMod, "4FSK") == 0)

  00403	68 00 00 00 00	 push	 OFFSET ??_C@_04KOHEBHGC@4FSK?$AA@
  00408	8d 45 e8	 lea	 eax, DWORD PTR _strMod$[ebp]
  0040b	50		 push	 eax
  0040c	e8 00 00 00 00	 call	 _strcmp
  00411	83 c4 08	 add	 esp, 8
  00414	85 c0		 test	 eax, eax
  00416	0f 85 85 00 00
	00		 jne	 $LN10@SendDataOr

; 778  : 			{
; 779  : 				EncLen = EncodeFSKData(bytCurrentFrameType, bytDataToSend, Len, bytEncodedBytes);

  0041c	68 00 00 00 00	 push	 OFFSET _bytEncodedBytes
  00421	8b 45 dc	 mov	 eax, DWORD PTR _Len$[ebp]
  00424	50		 push	 eax
  00425	68 00 00 00 00	 push	 OFFSET _bytDataToSend
  0042a	8a 0d 00 00 00
	00		 mov	 cl, BYTE PTR _bytCurrentFrameType
  00430	51		 push	 ecx
  00431	e8 00 00 00 00	 call	 _EncodeFSKData
  00436	83 c4 10	 add	 esp, 16			; 00000010H
  00439	a3 00 00 00 00	 mov	 DWORD PTR _EncLen, eax

; 780  : 				if (bytCurrentFrameType >= 0x7A && bytCurrentFrameType <= 0x7D)

  0043e	0f b6 05 00 00
	00 00		 movzx	 eax, BYTE PTR _bytCurrentFrameType
  00445	83 f8 7a	 cmp	 eax, 122		; 0000007aH
  00448	7c 30		 jl	 SHORT $LN9@SendDataOr
  0044a	0f b6 05 00 00
	00 00		 movzx	 eax, BYTE PTR _bytCurrentFrameType
  00451	83 f8 7d	 cmp	 eax, 125		; 0000007dH
  00454	7f 24		 jg	 SHORT $LN9@SendDataOr

; 781  : 					Mod4FSK600BdDataAndPlay(bytEncodedBytes[0], bytEncodedBytes, EncLen, intCalcLeader);  // Modulate Data frame 

  00456	a1 00 00 00 00	 mov	 eax, DWORD PTR _intCalcLeader
  0045b	50		 push	 eax
  0045c	8b 0d 00 00 00
	00		 mov	 ecx, DWORD PTR _EncLen
  00462	51		 push	 ecx
  00463	68 00 00 00 00	 push	 OFFSET _bytEncodedBytes
  00468	0f b6 15 00 00
	00 00		 movzx	 edx, BYTE PTR _bytEncodedBytes
  0046f	52		 push	 edx
  00470	e8 00 00 00 00	 call	 _Mod4FSK600BdDataAndPlay
  00475	83 c4 10	 add	 esp, 16			; 00000010H

; 782  : 				else

  00478	eb 22		 jmp	 SHORT $LN8@SendDataOr
$LN9@SendDataOr:

; 783  : 					Mod4FSKDataAndPlay(bytEncodedBytes[0], bytEncodedBytes, EncLen, intCalcLeader);  // Modulate Data frame 

  0047a	a1 00 00 00 00	 mov	 eax, DWORD PTR _intCalcLeader
  0047f	50		 push	 eax
  00480	8b 0d 00 00 00
	00		 mov	 ecx, DWORD PTR _EncLen
  00486	51		 push	 ecx
  00487	68 00 00 00 00	 push	 OFFSET _bytEncodedBytes
  0048c	0f b6 15 00 00
	00 00		 movzx	 edx, BYTE PTR _bytEncodedBytes
  00493	52		 push	 edx
  00494	e8 00 00 00 00	 call	 _Mod4FSKDataAndPlay
  00499	83 c4 10	 add	 esp, 16			; 00000010H
$LN8@SendDataOr:

; 784  : 			}
; 785  : 			else if (strcmp(strMod, "16FSK") == 0)

  0049c	e9 fd 00 00 00	 jmp	 $LN7@SendDataOr
$LN10@SendDataOr:
  004a1	68 00 00 00 00	 push	 OFFSET ??_C@_05GMHCMGLE@16FSK?$AA@
  004a6	8d 45 e8	 lea	 eax, DWORD PTR _strMod$[ebp]
  004a9	50		 push	 eax
  004aa	e8 00 00 00 00	 call	 _strcmp
  004af	83 c4 08	 add	 esp, 8
  004b2	85 c0		 test	 eax, eax
  004b4	75 49		 jne	 SHORT $LN6@SendDataOr

; 786  : 			{
; 787  : 				EncLen = EncodeFSKData(bytCurrentFrameType, bytDataToSend, Len, bytEncodedBytes);

  004b6	68 00 00 00 00	 push	 OFFSET _bytEncodedBytes
  004bb	8b 45 dc	 mov	 eax, DWORD PTR _Len$[ebp]
  004be	50		 push	 eax
  004bf	68 00 00 00 00	 push	 OFFSET _bytDataToSend
  004c4	8a 0d 00 00 00
	00		 mov	 cl, BYTE PTR _bytCurrentFrameType
  004ca	51		 push	 ecx
  004cb	e8 00 00 00 00	 call	 _EncodeFSKData
  004d0	83 c4 10	 add	 esp, 16			; 00000010H
  004d3	a3 00 00 00 00	 mov	 DWORD PTR _EncLen, eax

; 788  : 				Mod16FSKDataAndPlay(bytEncodedBytes[0], bytEncodedBytes, EncLen, intCalcLeader);  // Modulate Data frame 

  004d8	a1 00 00 00 00	 mov	 eax, DWORD PTR _intCalcLeader
  004dd	50		 push	 eax
  004de	8b 0d 00 00 00
	00		 mov	 ecx, DWORD PTR _EncLen
  004e4	51		 push	 ecx
  004e5	68 00 00 00 00	 push	 OFFSET _bytEncodedBytes
  004ea	0f b6 15 00 00
	00 00		 movzx	 edx, BYTE PTR _bytEncodedBytes
  004f1	52		 push	 edx
  004f2	e8 00 00 00 00	 call	 _Mod16FSKDataAndPlay
  004f7	83 c4 10	 add	 esp, 16			; 00000010H
  004fa	e9 9f 00 00 00	 jmp	 $LN7@SendDataOr
$LN6@SendDataOr:

; 789  : 			}
; 790  : 			else if (strcmp(strMod, "8FSK") == 0)

  004ff	68 00 00 00 00	 push	 OFFSET ??_C@_04GLIEPKGD@8FSK?$AA@
  00504	8d 45 e8	 lea	 eax, DWORD PTR _strMod$[ebp]
  00507	50		 push	 eax
  00508	e8 00 00 00 00	 call	 _strcmp
  0050d	83 c4 08	 add	 esp, 8
  00510	85 c0		 test	 eax, eax
  00512	75 46		 jne	 SHORT $LN4@SendDataOr

; 791  : 			{
; 792  : 				EncLen = EncodeFSKData(bytCurrentFrameType, bytDataToSend, Len, bytEncodedBytes);          //      intCurrentFrameSamples = Mod8FSKData(bytFrameType, bytData);

  00514	68 00 00 00 00	 push	 OFFSET _bytEncodedBytes
  00519	8b 45 dc	 mov	 eax, DWORD PTR _Len$[ebp]
  0051c	50		 push	 eax
  0051d	68 00 00 00 00	 push	 OFFSET _bytDataToSend
  00522	8a 0d 00 00 00
	00		 mov	 cl, BYTE PTR _bytCurrentFrameType
  00528	51		 push	 ecx
  00529	e8 00 00 00 00	 call	 _EncodeFSKData
  0052e	83 c4 10	 add	 esp, 16			; 00000010H
  00531	a3 00 00 00 00	 mov	 DWORD PTR _EncLen, eax

; 793  : 				Mod8FSKDataAndPlay(bytEncodedBytes[0], bytEncodedBytes, EncLen, intCalcLeader);  // Modulate Data frame 

  00536	a1 00 00 00 00	 mov	 eax, DWORD PTR _intCalcLeader
  0053b	50		 push	 eax
  0053c	8b 0d 00 00 00
	00		 mov	 ecx, DWORD PTR _EncLen
  00542	51		 push	 ecx
  00543	68 00 00 00 00	 push	 OFFSET _bytEncodedBytes
  00548	0f b6 15 00 00
	00 00		 movzx	 edx, BYTE PTR _bytEncodedBytes
  0054f	52		 push	 edx
  00550	e8 00 00 00 00	 call	 _Mod8FSKDataAndPlay
  00555	83 c4 10	 add	 esp, 16			; 00000010H

; 794  : 			}
; 795  : 			else

  00558	eb 44		 jmp	 SHORT $LN7@SendDataOr
$LN4@SendDataOr:

; 796  : 			{
; 797  : 				EncLen = EncodePSKData(bytCurrentFrameType, bytDataToSend, Len, bytEncodedBytes);

  0055a	68 00 00 00 00	 push	 OFFSET _bytEncodedBytes
  0055f	8b 45 dc	 mov	 eax, DWORD PTR _Len$[ebp]
  00562	50		 push	 eax
  00563	68 00 00 00 00	 push	 OFFSET _bytDataToSend
  00568	8a 0d 00 00 00
	00		 mov	 cl, BYTE PTR _bytCurrentFrameType
  0056e	51		 push	 ecx
  0056f	e8 00 00 00 00	 call	 _EncodePSKData
  00574	83 c4 10	 add	 esp, 16			; 00000010H
  00577	a3 00 00 00 00	 mov	 DWORD PTR _EncLen, eax

; 798  : 				ModPSKDataAndPlay(bytEncodedBytes[0], bytEncodedBytes, EncLen, intCalcLeader);  // Modulate Data frame 

  0057c	a1 00 00 00 00	 mov	 eax, DWORD PTR _intCalcLeader
  00581	50		 push	 eax
  00582	8b 0d 00 00 00
	00		 mov	 ecx, DWORD PTR _EncLen
  00588	51		 push	 ecx
  00589	68 00 00 00 00	 push	 OFFSET _bytEncodedBytes
  0058e	0f b6 15 00 00
	00 00		 movzx	 edx, BYTE PTR _bytEncodedBytes
  00595	52		 push	 edx
  00596	e8 00 00 00 00	 call	 _ModPSKDataAndPlay
  0059b	83 c4 10	 add	 esp, 16			; 00000010H
$LN7@SendDataOr:

; 799  : 			}
; 800  : 
; 801  : 			return;

  0059e	e9 80 00 00 00	 jmp	 $LN34@SendDataOr

; 802  : 		}
; 803  : 		else

  005a3	eb 7e		 jmp	 SHORT $LN34@SendDataOr
$LN12@SendDataOr:

; 804  : 		{
; 805  : 			// Send IDLE
; 806  : 
; 807  : 			SetARDOPProtocolState(IDLE);

  005a5	6a 08		 push	 8
  005a7	e8 00 00 00 00	 call	 _SetARDOPProtocolState
  005ac	83 c4 04	 add	 esp, 4

; 808  : 			intFrameRepeatInterval = 2000; // Keep IDLE/BREAK repeats fairly long 

  005af	c7 05 00 00 00
	00 d0 07 00 00	 mov	 DWORD PTR _intFrameRepeatInterval, 2000 ; 000007d0H

; 809  : 			blnEnbARQRpt = TRUE;

  005b9	c7 05 00 00 00
	00 01 00 00 00	 mov	 DWORD PTR _blnEnbARQRpt, 1

; 810  : 			dttTimeoutTrip = Now;

  005c3	e8 00 00 00 00	 call	 _getTicks
  005c8	a3 00 00 00 00	 mov	 DWORD PTR _dttTimeoutTrip, eax

; 811  : 
; 812  : 			blnLastFrameSentData = FALSE;

  005cd	c7 05 00 00 00
	00 00 00 00 00	 mov	 DWORD PTR _blnLastFrameSentData, 0

; 813  : 			
; 814  : 			if (DebugLog) Debugprintf("[ARDOPprotocol.SendDataOrIDLE] DataToSend = 0, ProtocolState ISS > IDLE");

  005d7	83 3d 00 00 00
	00 00		 cmp	 DWORD PTR _DebugLog, 0
  005de	74 0d		 je	 SHORT $LN1@SendDataOr
  005e0	68 00 00 00 00	 push	 OFFSET ??_C@_0EI@NLEKODIL@?$FLARDOPprotocol?4SendDataOrIDLE?$FN?5D@
  005e5	e8 00 00 00 00	 call	 _Debugprintf
  005ea	83 c4 04	 add	 esp, 4
$LN1@SendDataOr:

; 815  : 			EncLen = Encode4FSKControl(IDLEFRAME, bytSessionID, bytEncodedBytes);

  005ed	68 00 00 00 00	 push	 OFFSET _bytEncodedBytes
  005f2	a0 00 00 00 00	 mov	 al, BYTE PTR _bytSessionID
  005f7	50		 push	 eax
  005f8	6a 26		 push	 38			; 00000026H
  005fa	e8 00 00 00 00	 call	 _Encode4FSKControl
  005ff	83 c4 0c	 add	 esp, 12			; 0000000cH
  00602	a3 00 00 00 00	 mov	 DWORD PTR _EncLen, eax

; 816  : 			Mod4FSKDataAndPlay(IDLEFRAME, &bytEncodedBytes[0], EncLen, LeaderLength);		// only returns when all sent

  00607	a1 00 00 00 00	 mov	 eax, DWORD PTR _LeaderLength
  0060c	50		 push	 eax
  0060d	8b 0d 00 00 00
	00		 mov	 ecx, DWORD PTR _EncLen
  00613	51		 push	 ecx
  00614	68 00 00 00 00	 push	 OFFSET _bytEncodedBytes
  00619	6a 26		 push	 38			; 00000026H
  0061b	e8 00 00 00 00	 call	 _Mod4FSKDataAndPlay
  00620	83 c4 10	 add	 esp, 16			; 00000010H
$LN34@SendDataOr:

; 817  :  	
; 818  : 			return;
; 819  : 		}
; 820  : 	}
; 821  : }

  00623	52		 push	 edx
  00624	8b cd		 mov	 ecx, ebp
  00626	50		 push	 eax
  00627	8d 15 00 00 00
	00		 lea	 edx, DWORD PTR $LN38@SendDataOr
  0062d	e8 00 00 00 00	 call	 @_RTC_CheckStackVars@8
  00632	58		 pop	 eax
  00633	5a		 pop	 edx
  00634	5f		 pop	 edi
  00635	5e		 pop	 esi
  00636	5b		 pop	 ebx
  00637	8b 4d fc	 mov	 ecx, DWORD PTR __$ArrayPad$[ebp]
  0063a	33 cd		 xor	 ecx, ebp
  0063c	e8 00 00 00 00	 call	 @__security_check_cookie@4
  00641	81 c4 ec 00 00
	00		 add	 esp, 236		; 000000ecH
  00647	3b ec		 cmp	 ebp, esp
  00649	e8 00 00 00 00	 call	 __RTC_CheckEsp
  0064e	8b e5		 mov	 esp, ebp
  00650	5d		 pop	 ebp
  00651	c3		 ret	 0
  00652	8b ff		 npad	 2
$LN38@SendDataOr:
  00654	01 00 00 00	 DD	 1
  00658	00 00 00 00	 DD	 $LN37@SendDataOr
$LN37@SendDataOr:
  0065c	e8 ff ff ff	 DD	 -24			; ffffffe8H
  00660	10 00 00 00	 DD	 16			; 00000010H
  00664	00 00 00 00	 DD	 $LN36@SendDataOr
$LN36@SendDataOr:
  00668	73		 DB	 115			; 00000073H
  00669	74		 DB	 116			; 00000074H
  0066a	72		 DB	 114			; 00000072H
  0066b	4d		 DB	 77			; 0000004dH
  0066c	6f		 DB	 111			; 0000006fH
  0066d	64		 DB	 100			; 00000064H
  0066e	00		 DB	 0
_SendDataOrIDLE ENDP
_TEXT	ENDS
PUBLIC	??_C@_0DE@HILHIEMK@?$FLARDOPprotocol?4GetNextFrameData?$FN@ ; `string'
PUBLIC	??_C@_0DK@FHEJEM@?$FLARDOPprotocol?4GetNextFrameData?$FN@ ; `string'
PUBLIC	??_C@_08HIIMLEAB@Shift?5Up?$AA@			; `string'
PUBLIC	??_C@_0L@CKCNPPFP@Shift?5Down?$AA@		; `string'
PUBLIC	??_C@_0DI@MGPOAPBD@?$FLARDOPprotocol?4GetNextFrameData?$FN@ ; `string'
PUBLIC	__$ArrayPad$
EXTRN	_FrameInfo:PROC
;	COMDAT ??_C@_0DE@HILHIEMK@?$FLARDOPprotocol?4GetNextFrameData?$FN@
CONST	SEGMENT
??_C@_0DE@HILHIEMK@?$FLARDOPprotocol?4GetNextFrameData?$FN@ DB '[ARDOPpro'
	DB	'tocol.GetNextFrameData] %s, Frame Type: %s', 00H ; `string'
CONST	ENDS
;	COMDAT ??_C@_0DK@FHEJEM@?$FLARDOPprotocol?4GetNextFrameData?$FN@
CONST	SEGMENT
??_C@_0DK@FHEJEM@?$FLARDOPprotocol?4GetNextFrameData?$FN@ DB '[ARDOPproto'
	DB	'col.GetNextFrameData] No shift, Frame Type: %s', 00H ; `string'
CONST	ENDS
;	COMDAT ??_C@_08HIIMLEAB@Shift?5Up?$AA@
CONST	SEGMENT
??_C@_08HIIMLEAB@Shift?5Up?$AA@ DB 'Shift Up', 00H	; `string'
CONST	ENDS
;	COMDAT ??_C@_0L@CKCNPPFP@Shift?5Down?$AA@
CONST	SEGMENT
??_C@_0L@CKCNPPFP@Shift?5Down?$AA@ DB 'Shift Down', 00H	; `string'
CONST	ENDS
;	COMDAT ??_C@_0DI@MGPOAPBD@?$FLARDOPprotocol?4GetNextFrameData?$FN@
CONST	SEGMENT
??_C@_0DI@MGPOAPBD@?$FLARDOPprotocol?4GetNextFrameData?$FN@ DB '[ARDOPpro'
	DB	'tocol.GetNextFrameData] Initial Frame Type: %s', 00H ; `string'
; Function compile flags: /Odtp /RTCsu /ZI
CONST	ENDS
;	COMDAT _GetNextFrameData
_TEXT	SEGMENT
tv85 = -320						; size = 4
tv78 = -320						; size = 4
_MaxLen$ = -120						; size = 4
_strShift$ = -108					; size = 4
_strType$ = -96						; size = 16
_bytQualThresh$ = -69					; size = 1
_intRSLen$ = -60					; size = 4
_intDataLen$ = -48					; size = 4
_intBaud$ = -36						; size = 4
_intNumCar$ = -24					; size = 4
_blnOdd$ = -12						; size = 4
__$ArrayPad$ = -4					; size = 4
_intUpDn$ = 8						; size = 4
_bytFrameTypeToSend$ = 12				; size = 4
_strMod$ = 16						; size = 4
_blnInitialize$ = 20					; size = 4
_GetNextFrameData PROC					; COMDAT

; 829  : {

  00000	55		 push	 ebp
  00001	8b ec		 mov	 ebp, esp
  00003	81 ec 40 01 00
	00		 sub	 esp, 320		; 00000140H
  00009	53		 push	 ebx
  0000a	56		 push	 esi
  0000b	57		 push	 edi
  0000c	8d bd c0 fe ff
	ff		 lea	 edi, DWORD PTR [ebp-320]
  00012	b9 50 00 00 00	 mov	 ecx, 80			; 00000050H
  00017	b8 cc cc cc cc	 mov	 eax, -858993460		; ccccccccH
  0001c	f3 ab		 rep stosd
  0001e	a1 00 00 00 00	 mov	 eax, DWORD PTR ___security_cookie
  00023	33 c5		 xor	 eax, ebp
  00025	89 45 fc	 mov	 DWORD PTR __$ArrayPad$[ebp], eax

; 830  : 	// Initialize if blnInitialize = true
; 831  : 	// Then call with intUpDn and blnInitialize = FALSE:
; 832  : 	//       intUpDn = 0 ' use the current mode pointed to by intFrameTypePtr
; 833  : 	//       intUpdn < 0    ' Go to a more robust mode if available limited to the most robust mode for the bandwidth 
; 834  : 	//       intUpDn > 0    ' Go to a less robust (faster) mode if avaialble, limited to the fastest mode for the bandwidth
; 835  : 
; 836  : 	BOOL blnOdd;
; 837  : 	int intNumCar, intBaud, intDataLen, intRSLen;
; 838  : 	UCHAR bytQualThresh;
; 839  : 	char strType[16];
; 840  :     char * strShift = NULL;

  00028	c7 45 94 00 00
	00 00		 mov	 DWORD PTR _strShift$[ebp], 0

; 841  : 	int MaxLen;
; 842  : 
; 843  : 	if (blnInitialize)	//' Get the array of supported frame types in order of Most robust to least robust

  0002f	83 7d 14 00	 cmp	 DWORD PTR _blnInitialize$[ebp], 0
  00033	74 65		 je	 SHORT $LN13@GetNextFra

; 844  : 	{
; 845  : 		bytFrameTypesForBW = GetDataModes(intSessionBW);

  00035	a1 00 00 00 00	 mov	 eax, DWORD PTR _intSessionBW
  0003a	50		 push	 eax
  0003b	e8 00 00 00 00	 call	 _GetDataModes
  00040	83 c4 04	 add	 esp, 4
  00043	a3 00 00 00 00	 mov	 DWORD PTR _bytFrameTypesForBW, eax

; 846  : 		intFrameTypePtr = 0;

  00048	c7 05 00 00 00
	00 00 00 00 00	 mov	 DWORD PTR _intFrameTypePtr, 0

; 847  : 		bytCurrentFrameType = bytFrameTypesForBW[intFrameTypePtr];

  00052	a1 00 00 00 00	 mov	 eax, DWORD PTR _bytFrameTypesForBW
  00057	03 05 00 00 00
	00		 add	 eax, DWORD PTR _intFrameTypePtr
  0005d	8a 08		 mov	 cl, BYTE PTR [eax]
  0005f	88 0d 00 00 00
	00		 mov	 BYTE PTR _bytCurrentFrameType, cl

; 848  : 		if(DebugLog) Debugprintf("[ARDOPprotocol.GetNextFrameData] Initial Frame Type: %s", Name(bytCurrentFrameType));

  00065	83 3d 00 00 00
	00 00		 cmp	 DWORD PTR _DebugLog, 0
  0006c	74 1c		 je	 SHORT $LN12@GetNextFra
  0006e	a0 00 00 00 00	 mov	 al, BYTE PTR _bytCurrentFrameType
  00073	50		 push	 eax
  00074	e8 00 00 00 00	 call	 _Name
  00079	83 c4 04	 add	 esp, 4
  0007c	50		 push	 eax
  0007d	68 00 00 00 00	 push	 OFFSET ??_C@_0DI@MGPOAPBD@?$FLARDOPprotocol?4GetNextFrameData?$FN@
  00082	e8 00 00 00 00	 call	 _Debugprintf
  00087	83 c4 08	 add	 esp, 8
$LN12@GetNextFra:

; 849  : 		*intUpDn = 0;

  0008a	8b 45 08	 mov	 eax, DWORD PTR _intUpDn$[ebp]
  0008d	c7 00 00 00 00
	00		 mov	 DWORD PTR [eax], 0

; 850  : 		return 0;

  00093	33 c0		 xor	 eax, eax
  00095	e9 c7 01 00 00	 jmp	 $LN14@GetNextFra
$LN13@GetNextFra:

; 851  : 	}
; 852  : 	if (*intUpDn < 0)		// go to a more robust mode

  0009a	8b 45 08	 mov	 eax, DWORD PTR _intUpDn$[ebp]
  0009d	83 38 00	 cmp	 DWORD PTR [eax], 0
  000a0	7d 63		 jge	 SHORT $LN11@GetNextFra

; 853  : 	{
; 854  : 		if (intFrameTypePtr > 0)

  000a2	83 3d 00 00 00
	00 00		 cmp	 DWORD PTR _intFrameTypePtr, 0
  000a9	7e 4f		 jle	 SHORT $LN10@GetNextFra

; 855  : 		{
; 856  : 			intFrameTypePtr = max(0, intFrameTypePtr + *intUpDn);

  000ab	8b 45 08	 mov	 eax, DWORD PTR _intUpDn$[ebp]
  000ae	8b 0d 00 00 00
	00		 mov	 ecx, DWORD PTR _intFrameTypePtr
  000b4	03 08		 add	 ecx, DWORD PTR [eax]
  000b6	79 0c		 jns	 SHORT $LN16@GetNextFra
  000b8	c7 85 c0 fe ff
	ff 00 00 00 00	 mov	 DWORD PTR tv78[ebp], 0
  000c2	eb 10		 jmp	 SHORT $LN17@GetNextFra
$LN16@GetNextFra:
  000c4	8b 55 08	 mov	 edx, DWORD PTR _intUpDn$[ebp]
  000c7	a1 00 00 00 00	 mov	 eax, DWORD PTR _intFrameTypePtr
  000cc	03 02		 add	 eax, DWORD PTR [edx]
  000ce	89 85 c0 fe ff
	ff		 mov	 DWORD PTR tv78[ebp], eax
$LN17@GetNextFra:
  000d4	8b 8d c0 fe ff
	ff		 mov	 ecx, DWORD PTR tv78[ebp]
  000da	89 0d 00 00 00
	00		 mov	 DWORD PTR _intFrameTypePtr, ecx

; 857  : 			bytCurrentFrameType = bytFrameTypesForBW[intFrameTypePtr];

  000e0	a1 00 00 00 00	 mov	 eax, DWORD PTR _bytFrameTypesForBW
  000e5	03 05 00 00 00
	00		 add	 eax, DWORD PTR _intFrameTypePtr
  000eb	8a 08		 mov	 cl, BYTE PTR [eax]
  000ed	88 0d 00 00 00
	00		 mov	 BYTE PTR _bytCurrentFrameType, cl

; 858  : 			strShift = "Shift Down";

  000f3	c7 45 94 00 00
	00 00		 mov	 DWORD PTR _strShift$[ebp], OFFSET ??_C@_0L@CKCNPPFP@Shift?5Down?$AA@
$LN10@GetNextFra:

; 859  : 		}
; 860  : 		*intUpDn = 0;

  000fa	8b 45 08	 mov	 eax, DWORD PTR _intUpDn$[ebp]
  000fd	c7 00 00 00 00
	00		 mov	 DWORD PTR [eax], 0
  00103	eb 76		 jmp	 SHORT $LN9@GetNextFra
$LN11@GetNextFra:

; 861  : 	}
; 862  : 	else if (*intUpDn > 0)	//' go to a faster mode

  00105	8b 45 08	 mov	 eax, DWORD PTR _intUpDn$[ebp]
  00108	83 38 00	 cmp	 DWORD PTR [eax], 0
  0010b	7e 6e		 jle	 SHORT $LN9@GetNextFra

; 863  : 	{
; 864  : 		if (intFrameTypePtr < bytFrameTypesForBWLength)

  0010d	a1 00 00 00 00	 mov	 eax, DWORD PTR _intFrameTypePtr
  00112	3b 05 00 00 00
	00		 cmp	 eax, DWORD PTR _bytFrameTypesForBWLength
  00118	7d 58		 jge	 SHORT $LN7@GetNextFra

; 865  : 		{
; 866  : 			intFrameTypePtr = min(bytFrameTypesForBWLength, intFrameTypePtr + *intUpDn);

  0011a	8b 45 08	 mov	 eax, DWORD PTR _intUpDn$[ebp]
  0011d	8b 0d 00 00 00
	00		 mov	 ecx, DWORD PTR _intFrameTypePtr
  00123	03 08		 add	 ecx, DWORD PTR [eax]
  00125	39 0d 00 00 00
	00		 cmp	 DWORD PTR _bytFrameTypesForBWLength, ecx
  0012b	7d 0e		 jge	 SHORT $LN18@GetNextFra
  0012d	8b 15 00 00 00
	00		 mov	 edx, DWORD PTR _bytFrameTypesForBWLength
  00133	89 95 c0 fe ff
	ff		 mov	 DWORD PTR tv85[ebp], edx
  00139	eb 11		 jmp	 SHORT $LN19@GetNextFra
$LN18@GetNextFra:
  0013b	8b 45 08	 mov	 eax, DWORD PTR _intUpDn$[ebp]
  0013e	8b 0d 00 00 00
	00		 mov	 ecx, DWORD PTR _intFrameTypePtr
  00144	03 08		 add	 ecx, DWORD PTR [eax]
  00146	89 8d c0 fe ff
	ff		 mov	 DWORD PTR tv85[ebp], ecx
$LN19@GetNextFra:
  0014c	8b 95 c0 fe ff
	ff		 mov	 edx, DWORD PTR tv85[ebp]
  00152	89 15 00 00 00
	00		 mov	 DWORD PTR _intFrameTypePtr, edx

; 867  : 			bytCurrentFrameType = bytFrameTypesForBW[intFrameTypePtr];

  00158	a1 00 00 00 00	 mov	 eax, DWORD PTR _bytFrameTypesForBW
  0015d	03 05 00 00 00
	00		 add	 eax, DWORD PTR _intFrameTypePtr
  00163	8a 08		 mov	 cl, BYTE PTR [eax]
  00165	88 0d 00 00 00
	00		 mov	 BYTE PTR _bytCurrentFrameType, cl

; 868  : 			strShift = "Shift Up";

  0016b	c7 45 94 00 00
	00 00		 mov	 DWORD PTR _strShift$[ebp], OFFSET ??_C@_08HIIMLEAB@Shift?5Up?$AA@
$LN7@GetNextFra:

; 869  : 		}
; 870  : 		*intUpDn = 0;

  00172	8b 45 08	 mov	 eax, DWORD PTR _intUpDn$[ebp]
  00175	c7 00 00 00 00
	00		 mov	 DWORD PTR [eax], 0
$LN9@GetNextFra:

; 871  : 	}
; 872  :         //If Not objFrameInfo.IsDataFrame(bytCurrentFrameType) Then
; 873  :         //    Logs.Exception("[ARDOPprotocol.GetNextFrameData] Frame Type " & Format(bytCurrentFrameType, "X") & " not a data type.")
; 874  :         //    Return Noth
; 875  : 	
; 876  : 	if ((bytCurrentFrameType & 1) == (bytLastARQDataFrameAcked & 1))

  0017b	0f b6 05 00 00
	00 00		 movzx	 eax, BYTE PTR _bytCurrentFrameType
  00182	83 e0 01	 and	 eax, 1
  00185	0f b6 0d 00 00
	00 00		 movzx	 ecx, BYTE PTR _bytLastARQDataFrameAcked
  0018c	83 e1 01	 and	 ecx, 1
  0018f	3b c1		 cmp	 eax, ecx
  00191	75 1c		 jne	 SHORT $LN6@GetNextFra

; 877  : 	{
; 878  : 		*bytFrameTypeToSend = bytCurrentFrameType ^ 1;  // This insures toggle of  Odd and Even 

  00193	0f b6 05 00 00
	00 00		 movzx	 eax, BYTE PTR _bytCurrentFrameType
  0019a	83 f0 01	 xor	 eax, 1
  0019d	8b 4d 0c	 mov	 ecx, DWORD PTR _bytFrameTypeToSend$[ebp]
  001a0	88 01		 mov	 BYTE PTR [ecx], al

; 879  : 		bytLastARQDataFrameSent = *bytFrameTypeToSend;

  001a2	8b 45 0c	 mov	 eax, DWORD PTR _bytFrameTypeToSend$[ebp]
  001a5	8a 08		 mov	 cl, BYTE PTR [eax]
  001a7	88 0d 00 00 00
	00		 mov	 BYTE PTR _bytLastARQDataFrameSent, cl

; 880  : 	}
; 881  : 	else

  001ad	eb 16		 jmp	 SHORT $LN5@GetNextFra
$LN6@GetNextFra:

; 882  : 	{
; 883  : 		*bytFrameTypeToSend = bytCurrentFrameType;

  001af	8b 45 0c	 mov	 eax, DWORD PTR _bytFrameTypeToSend$[ebp]
  001b2	8a 0d 00 00 00
	00		 mov	 cl, BYTE PTR _bytCurrentFrameType
  001b8	88 08		 mov	 BYTE PTR [eax], cl

; 884  : 		bytLastARQDataFrameSent = *bytFrameTypeToSend;

  001ba	8b 45 0c	 mov	 eax, DWORD PTR _bytFrameTypeToSend$[ebp]
  001bd	8a 08		 mov	 cl, BYTE PTR [eax]
  001bf	88 0d 00 00 00
	00		 mov	 BYTE PTR _bytLastARQDataFrameSent, cl
$LN5@GetNextFra:

; 885  : 	}
; 886  : 	
; 887  : 	if (DebugLog)

  001c5	83 3d 00 00 00
	00 00		 cmp	 DWORD PTR _DebugLog, 0
  001cc	74 44		 je	 SHORT $LN4@GetNextFra

; 888  : 	{
; 889  : 		if (strShift == 0)

  001ce	83 7d 94 00	 cmp	 DWORD PTR _strShift$[ebp], 0
  001d2	75 1e		 jne	 SHORT $LN3@GetNextFra

; 890  : 			Debugprintf("[ARDOPprotocol.GetNextFrameData] No shift, Frame Type: %s", Name(bytCurrentFrameType));

  001d4	a0 00 00 00 00	 mov	 al, BYTE PTR _bytCurrentFrameType
  001d9	50		 push	 eax
  001da	e8 00 00 00 00	 call	 _Name
  001df	83 c4 04	 add	 esp, 4
  001e2	50		 push	 eax
  001e3	68 00 00 00 00	 push	 OFFSET ??_C@_0DK@FHEJEM@?$FLARDOPprotocol?4GetNextFrameData?$FN@
  001e8	e8 00 00 00 00	 call	 _Debugprintf
  001ed	83 c4 08	 add	 esp, 8

; 891  : 		else

  001f0	eb 20		 jmp	 SHORT $LN4@GetNextFra
$LN3@GetNextFra:

; 892  : 			Debugprintf("[ARDOPprotocol.GetNextFrameData] %s, Frame Type: %s", strShift, Name(bytCurrentFrameType));

  001f2	a0 00 00 00 00	 mov	 al, BYTE PTR _bytCurrentFrameType
  001f7	50		 push	 eax
  001f8	e8 00 00 00 00	 call	 _Name
  001fd	83 c4 04	 add	 esp, 4
  00200	50		 push	 eax
  00201	8b 4d 94	 mov	 ecx, DWORD PTR _strShift$[ebp]
  00204	51		 push	 ecx
  00205	68 00 00 00 00	 push	 OFFSET ??_C@_0DE@HILHIEMK@?$FLARDOPprotocol?4GetNextFrameData?$FN@
  0020a	e8 00 00 00 00	 call	 _Debugprintf
  0020f	83 c4 0c	 add	 esp, 12			; 0000000cH
$LN4@GetNextFra:

; 893  : 	}
; 894  : 
; 895  : 	FrameInfo(bytCurrentFrameType, &blnOdd, &intNumCar, strMod, &intBaud, &intDataLen, &intRSLen, &bytQualThresh, strType);

  00212	8d 45 a0	 lea	 eax, DWORD PTR _strType$[ebp]
  00215	50		 push	 eax
  00216	8d 4d bb	 lea	 ecx, DWORD PTR _bytQualThresh$[ebp]
  00219	51		 push	 ecx
  0021a	8d 55 c4	 lea	 edx, DWORD PTR _intRSLen$[ebp]
  0021d	52		 push	 edx
  0021e	8d 45 d0	 lea	 eax, DWORD PTR _intDataLen$[ebp]
  00221	50		 push	 eax
  00222	8d 4d dc	 lea	 ecx, DWORD PTR _intBaud$[ebp]
  00225	51		 push	 ecx
  00226	8b 55 10	 mov	 edx, DWORD PTR _strMod$[ebp]
  00229	52		 push	 edx
  0022a	8d 45 e8	 lea	 eax, DWORD PTR _intNumCar$[ebp]
  0022d	50		 push	 eax
  0022e	8d 4d f4	 lea	 ecx, DWORD PTR _blnOdd$[ebp]
  00231	51		 push	 ecx
  00232	8a 15 00 00 00
	00		 mov	 dl, BYTE PTR _bytCurrentFrameType
  00238	52		 push	 edx
  00239	e8 00 00 00 00	 call	 _FrameInfo
  0023e	83 c4 24	 add	 esp, 36			; 00000024H

; 896  : 
; 897  : 	MaxLen = intDataLen * intNumCar;

  00241	8b 45 d0	 mov	 eax, DWORD PTR _intDataLen$[ebp]
  00244	0f af 45 e8	 imul	 eax, DWORD PTR _intNumCar$[ebp]
  00248	89 45 88	 mov	 DWORD PTR _MaxLen$[ebp], eax

; 898  : 
; 899  : 	if (MaxLen > bytDataToSendLength)

  0024b	8b 45 88	 mov	 eax, DWORD PTR _MaxLen$[ebp]
  0024e	3b 05 00 00 00
	00		 cmp	 eax, DWORD PTR _bytDataToSendLength
  00254	7e 08		 jle	 SHORT $LN1@GetNextFra

; 900  : 		MaxLen = bytDataToSendLength;

  00256	a1 00 00 00 00	 mov	 eax, DWORD PTR _bytDataToSendLength
  0025b	89 45 88	 mov	 DWORD PTR _MaxLen$[ebp], eax
$LN1@GetNextFra:

; 901  : 
; 902  : 	return MaxLen;

  0025e	8b 45 88	 mov	 eax, DWORD PTR _MaxLen$[ebp]
$LN14@GetNextFra:

; 903  : }

  00261	52		 push	 edx
  00262	8b cd		 mov	 ecx, ebp
  00264	50		 push	 eax
  00265	8d 15 00 00 00
	00		 lea	 edx, DWORD PTR $LN28@GetNextFra
  0026b	e8 00 00 00 00	 call	 @_RTC_CheckStackVars@8
  00270	58		 pop	 eax
  00271	5a		 pop	 edx
  00272	5f		 pop	 edi
  00273	5e		 pop	 esi
  00274	5b		 pop	 ebx
  00275	8b 4d fc	 mov	 ecx, DWORD PTR __$ArrayPad$[ebp]
  00278	33 cd		 xor	 ecx, ebp
  0027a	e8 00 00 00 00	 call	 @__security_check_cookie@4
  0027f	81 c4 40 01 00
	00		 add	 esp, 320		; 00000140H
  00285	3b ec		 cmp	 ebp, esp
  00287	e8 00 00 00 00	 call	 __RTC_CheckEsp
  0028c	8b e5		 mov	 esp, ebp
  0028e	5d		 pop	 ebp
  0028f	c3		 ret	 0
$LN28@GetNextFra:
  00290	07 00 00 00	 DD	 7
  00294	00 00 00 00	 DD	 $LN27@GetNextFra
$LN27@GetNextFra:
  00298	f4 ff ff ff	 DD	 -12			; fffffff4H
  0029c	04 00 00 00	 DD	 4
  002a0	00 00 00 00	 DD	 $LN20@GetNextFra
  002a4	e8 ff ff ff	 DD	 -24			; ffffffe8H
  002a8	04 00 00 00	 DD	 4
  002ac	00 00 00 00	 DD	 $LN21@GetNextFra
  002b0	dc ff ff ff	 DD	 -36			; ffffffdcH
  002b4	04 00 00 00	 DD	 4
  002b8	00 00 00 00	 DD	 $LN22@GetNextFra
  002bc	d0 ff ff ff	 DD	 -48			; ffffffd0H
  002c0	04 00 00 00	 DD	 4
  002c4	00 00 00 00	 DD	 $LN23@GetNextFra
  002c8	c4 ff ff ff	 DD	 -60			; ffffffc4H
  002cc	04 00 00 00	 DD	 4
  002d0	00 00 00 00	 DD	 $LN24@GetNextFra
  002d4	bb ff ff ff	 DD	 -69			; ffffffbbH
  002d8	01 00 00 00	 DD	 1
  002dc	00 00 00 00	 DD	 $LN25@GetNextFra
  002e0	a0 ff ff ff	 DD	 -96			; ffffffa0H
  002e4	10 00 00 00	 DD	 16			; 00000010H
  002e8	00 00 00 00	 DD	 $LN26@GetNextFra
$LN26@GetNextFra:
  002ec	73		 DB	 115			; 00000073H
  002ed	74		 DB	 116			; 00000074H
  002ee	72		 DB	 114			; 00000072H
  002ef	54		 DB	 84			; 00000054H
  002f0	79		 DB	 121			; 00000079H
  002f1	70		 DB	 112			; 00000070H
  002f2	65		 DB	 101			; 00000065H
  002f3	00		 DB	 0
$LN25@GetNextFra:
  002f4	62		 DB	 98			; 00000062H
  002f5	79		 DB	 121			; 00000079H
  002f6	74		 DB	 116			; 00000074H
  002f7	51		 DB	 81			; 00000051H
  002f8	75		 DB	 117			; 00000075H
  002f9	61		 DB	 97			; 00000061H
  002fa	6c		 DB	 108			; 0000006cH
  002fb	54		 DB	 84			; 00000054H
  002fc	68		 DB	 104			; 00000068H
  002fd	72		 DB	 114			; 00000072H
  002fe	65		 DB	 101			; 00000065H
  002ff	73		 DB	 115			; 00000073H
  00300	68		 DB	 104			; 00000068H
  00301	00		 DB	 0
$LN24@GetNextFra:
  00302	69		 DB	 105			; 00000069H
  00303	6e		 DB	 110			; 0000006eH
  00304	74		 DB	 116			; 00000074H
  00305	52		 DB	 82			; 00000052H
  00306	53		 DB	 83			; 00000053H
  00307	4c		 DB	 76			; 0000004cH
  00308	65		 DB	 101			; 00000065H
  00309	6e		 DB	 110			; 0000006eH
  0030a	00		 DB	 0
$LN23@GetNextFra:
  0030b	69		 DB	 105			; 00000069H
  0030c	6e		 DB	 110			; 0000006eH
  0030d	74		 DB	 116			; 00000074H
  0030e	44		 DB	 68			; 00000044H
  0030f	61		 DB	 97			; 00000061H
  00310	74		 DB	 116			; 00000074H
  00311	61		 DB	 97			; 00000061H
  00312	4c		 DB	 76			; 0000004cH
  00313	65		 DB	 101			; 00000065H
  00314	6e		 DB	 110			; 0000006eH
  00315	00		 DB	 0
$LN22@GetNextFra:
  00316	69		 DB	 105			; 00000069H
  00317	6e		 DB	 110			; 0000006eH
  00318	74		 DB	 116			; 00000074H
  00319	42		 DB	 66			; 00000042H
  0031a	61		 DB	 97			; 00000061H
  0031b	75		 DB	 117			; 00000075H
  0031c	64		 DB	 100			; 00000064H
  0031d	00		 DB	 0
$LN21@GetNextFra:
  0031e	69		 DB	 105			; 00000069H
  0031f	6e		 DB	 110			; 0000006eH
  00320	74		 DB	 116			; 00000074H
  00321	4e		 DB	 78			; 0000004eH
  00322	75		 DB	 117			; 00000075H
  00323	6d		 DB	 109			; 0000006dH
  00324	43		 DB	 67			; 00000043H
  00325	61		 DB	 97			; 00000061H
  00326	72		 DB	 114			; 00000072H
  00327	00		 DB	 0
$LN20@GetNextFra:
  00328	62		 DB	 98			; 00000062H
  00329	6c		 DB	 108			; 0000006cH
  0032a	6e		 DB	 110			; 0000006eH
  0032b	4f		 DB	 79			; 0000004fH
  0032c	64		 DB	 100			; 00000064H
  0032d	64		 DB	 100			; 00000064H
  0032e	00		 DB	 0
_GetNextFrameData ENDP
; Function compile flags: /Odtp /RTCsu /ZI
_TEXT	ENDS
;	COMDAT _InitializeConnection
_TEXT	SEGMENT
_InitializeConnection PROC				; COMDAT

; 907  : {

  00000	55		 push	 ebp
  00001	8b ec		 mov	 ebp, esp
  00003	81 ec c0 00 00
	00		 sub	 esp, 192		; 000000c0H
  00009	53		 push	 ebx
  0000a	56		 push	 esi
  0000b	57		 push	 edi
  0000c	8d bd 40 ff ff
	ff		 lea	 edi, DWORD PTR [ebp-192]
  00012	b9 30 00 00 00	 mov	 ecx, 48			; 00000030H
  00017	b8 cc cc cc cc	 mov	 eax, -858993460		; ccccccccH
  0001c	f3 ab		 rep stosd

; 908  : 	// Sub to Initialize before a new Connection
; 909  : 
; 910  : 	strRemoteCallsign[0] = 0; // remote station call sign

  0001e	c6 05 00 00 00
	00 00		 mov	 BYTE PTR _strRemoteCallsign, 0

; 911  : 	intOBBytesToConfirm = 0; // remaining bytes to confirm  

  00025	c7 05 00 00 00
	00 00 00 00 00	 mov	 DWORD PTR _intOBBytesToConfirm, 0

; 912  : 	intBytesConfirmed = 0; // Outbound bytes confirmed by ACK and squenced

  0002f	c7 05 00 00 00
	00 00 00 00 00	 mov	 DWORD PTR _intBytesConfirmed, 0

; 913  : 	intReceivedLeaderLen = 0; // Zero out received leader length (the length of the leader as received by the local station

  00039	c7 05 00 00 00
	00 00 00 00 00	 mov	 DWORD PTR _intReceivedLeaderLen, 0

; 914  : 	intReportedLeaderLen = 0; // Zero out the Reported leader length the length reported to the remote station 

  00043	c7 05 00 00 00
	00 00 00 00 00	 mov	 DWORD PTR _intReportedLeaderLen, 0

; 915  : 	bytSessionID = 0xFF; //  Session ID 

  0004d	c6 05 00 00 00
	00 ff		 mov	 BYTE PTR _bytSessionID, 255 ; 000000ffH

; 916  : 	blnLastPSNPassed = FALSE; //  the last PSN passed True for Odd, FALSE for even. 

  00054	c7 05 00 00 00
	00 00 00 00 00	 mov	 DWORD PTR _blnLastPSNPassed, 0

; 917  : 	blnInitiatedConnection = FALSE; //  flag to indicate if this station initiated the connection

  0005e	c7 05 00 00 00
	00 00 00 00 00	 mov	 DWORD PTR _blnInitiatedConnection, 0

; 918  : 	dblAvgPECreepPerCarrier = 0; //  computed phase error creep

  00068	66 c7 05 00 00
	00 00 00 00	 mov	 WORD PTR _dblAvgPECreepPerCarrier, 0

; 919  : 	dttLastIDSent = Now ; //  date/time of last ID

  00071	e8 00 00 00 00	 call	 _getTicks
  00076	a3 00 00 00 00	 mov	 DWORD PTR _dttLastIDSent, eax

; 920  : 	intTotalSymbols = 0; //  To compute the sample rate error

  0007b	c7 05 00 00 00
	00 00 00 00 00	 mov	 DWORD PTR _intTotalSymbols, 0

; 921  : 	strLocalCallsign[0] = 0; //  this stations call sign

  00085	c6 05 00 00 00
	00 00		 mov	 BYTE PTR _strLocalCallsign, 0

; 922  : 	intSessionBW = 0 ; //  ExtractARQBandwidth()

  0008c	c7 05 00 00 00
	00 00 00 00 00	 mov	 DWORD PTR _intSessionBW, 0

; 923  : 	intCalcLeader = LeaderLength;

  00096	a1 00 00 00 00	 mov	 eax, DWORD PTR _LeaderLength
  0009b	a3 00 00 00 00	 mov	 DWORD PTR _intCalcLeader, eax

; 924  : 
; 925  : 	//ClearQualityStats();
; 926  : 	//ClearTuningStats();
; 927  : }

  000a0	5f		 pop	 edi
  000a1	5e		 pop	 esi
  000a2	5b		 pop	 ebx
  000a3	81 c4 c0 00 00
	00		 add	 esp, 192		; 000000c0H
  000a9	3b ec		 cmp	 ebp, esp
  000ab	e8 00 00 00 00	 call	 __RTC_CheckEsp
  000b0	8b e5		 mov	 esp, ebp
  000b2	5d		 pop	 ebp
  000b3	c3		 ret	 0
_InitializeConnection ENDP
_TEXT	ENDS
PUBLIC	??_C@_03DBILIJHA@ARQ?$AA@			; `string'
PUBLIC	??_C@_0P@KEDMACJK@?5?$FL?$CFs?3?5?$CFs?5?$DO?5?$CFs?$FN?$AA@ ; `string'
PUBLIC	__$ArrayPad$
PUBLIC	_ProcessUnconnectedConReqFrame
EXTRN	_AddTagToDataAndSendToHost:PROC
;	COMDAT ??_C@_03DBILIJHA@ARQ?$AA@
CONST	SEGMENT
??_C@_03DBILIJHA@ARQ?$AA@ DB 'ARQ', 00H			; `string'
CONST	ENDS
;	COMDAT ??_C@_0P@KEDMACJK@?5?$FL?$CFs?3?5?$CFs?5?$DO?5?$CFs?$FN?$AA@
CONST	SEGMENT
??_C@_0P@KEDMACJK@?5?$FL?$CFs?3?5?$CFs?5?$DO?5?$CFs?$FN?$AA@ DB ' [%s: %s'
	DB	' > %s]', 00H				; `string'
; Function compile flags: /Odtp /RTCsu /ZI
CONST	ENDS
;	COMDAT _ProcessUnconnectedConReqFrame
_TEXT	SEGMENT
_Len$ = -160						; size = 4
_ToCall$ = -148						; size = 4
_strDisplay$ = -136					; size = 128
__$ArrayPad$ = -4					; size = 4
_intFrameType$ = 8					; size = 4
_bytData$ = 12						; size = 4
_ProcessUnconnectedConReqFrame PROC			; COMDAT

; 932  : {

  00000	55		 push	 ebp
  00001	8b ec		 mov	 ebp, esp
  00003	81 ec 64 01 00
	00		 sub	 esp, 356		; 00000164H
  00009	53		 push	 ebx
  0000a	56		 push	 esi
  0000b	57		 push	 edi
  0000c	8d bd 9c fe ff
	ff		 lea	 edi, DWORD PTR [ebp-356]
  00012	b9 59 00 00 00	 mov	 ecx, 89			; 00000059H
  00017	b8 cc cc cc cc	 mov	 eax, -858993460		; ccccccccH
  0001c	f3 ab		 rep stosd
  0001e	a1 00 00 00 00	 mov	 eax, DWORD PTR ___security_cookie
  00023	33 c5		 xor	 eax, ebp
  00025	89 45 fc	 mov	 DWORD PTR __$ArrayPad$[ebp], eax

; 933  : 	static char strLastStringPassedToHost[80] = "";
; 934  : 	char strDisplay[128];
; 935  : 	char * ToCall = bytData + strlen(bytData) + 1;

  00028	8b 45 0c	 mov	 eax, DWORD PTR _bytData$[ebp]
  0002b	50		 push	 eax
  0002c	e8 00 00 00 00	 call	 _strlen
  00031	83 c4 04	 add	 esp, 4
  00034	8b 4d 0c	 mov	 ecx, DWORD PTR _bytData$[ebp]
  00037	8d 54 01 01	 lea	 edx, DWORD PTR [ecx+eax+1]
  0003b	89 95 6c ff ff
	ff		 mov	 DWORD PTR _ToCall$[ebp], edx

; 936  : 	int Len;
; 937  : 
; 938  : 	if (!(intFrameType >= 0x31 && intFrameType <= 0x38))

  00041	83 7d 08 31	 cmp	 DWORD PTR _intFrameType$[ebp], 49 ; 00000031H
  00045	7c 06		 jl	 SHORT $LN1@ProcessUnc
  00047	83 7d 08 38	 cmp	 DWORD PTR _intFrameType$[ebp], 56 ; 00000038H
  0004b	7e 02		 jle	 SHORT $LN2@ProcessUnc
$LN1@ProcessUnc:

; 939  : 		return;

  0004d	eb 4d		 jmp	 SHORT $LN3@ProcessUnc
$LN2@ProcessUnc:

; 940  :  
; 941  : 	Len = sprintf(strDisplay, " [%s: %s > %s]", Name(intFrameType), bytData, ToCall); 

  0004f	8b 85 6c ff ff
	ff		 mov	 eax, DWORD PTR _ToCall$[ebp]
  00055	50		 push	 eax
  00056	8b 4d 0c	 mov	 ecx, DWORD PTR _bytData$[ebp]
  00059	51		 push	 ecx
  0005a	8a 55 08	 mov	 dl, BYTE PTR _intFrameType$[ebp]
  0005d	52		 push	 edx
  0005e	e8 00 00 00 00	 call	 _Name
  00063	83 c4 04	 add	 esp, 4
  00066	50		 push	 eax
  00067	68 00 00 00 00	 push	 OFFSET ??_C@_0P@KEDMACJK@?5?$FL?$CFs?3?5?$CFs?5?$DO?5?$CFs?$FN?$AA@
  0006c	8d 85 78 ff ff
	ff		 lea	 eax, DWORD PTR _strDisplay$[ebp]
  00072	50		 push	 eax
  00073	e8 00 00 00 00	 call	 _sprintf
  00078	83 c4 14	 add	 esp, 20			; 00000014H
  0007b	89 85 60 ff ff
	ff		 mov	 DWORD PTR _Len$[ebp], eax

; 942  :     AddTagToDataAndSendToHost(strDisplay, "ARQ", Len);

  00081	8b 85 60 ff ff
	ff		 mov	 eax, DWORD PTR _Len$[ebp]
  00087	50		 push	 eax
  00088	68 00 00 00 00	 push	 OFFSET ??_C@_03DBILIJHA@ARQ?$AA@
  0008d	8d 8d 78 ff ff
	ff		 lea	 ecx, DWORD PTR _strDisplay$[ebp]
  00093	51		 push	 ecx
  00094	e8 00 00 00 00	 call	 _AddTagToDataAndSendToHost
  00099	83 c4 0c	 add	 esp, 12			; 0000000cH
$LN3@ProcessUnc:

; 943  : 
; 944  : }

  0009c	52		 push	 edx
  0009d	8b cd		 mov	 ecx, ebp
  0009f	50		 push	 eax
  000a0	8d 15 00 00 00
	00		 lea	 edx, DWORD PTR $LN7@ProcessUnc
  000a6	e8 00 00 00 00	 call	 @_RTC_CheckStackVars@8
  000ab	58		 pop	 eax
  000ac	5a		 pop	 edx
  000ad	5f		 pop	 edi
  000ae	5e		 pop	 esi
  000af	5b		 pop	 ebx
  000b0	8b 4d fc	 mov	 ecx, DWORD PTR __$ArrayPad$[ebp]
  000b3	33 cd		 xor	 ecx, ebp
  000b5	e8 00 00 00 00	 call	 @__security_check_cookie@4
  000ba	81 c4 64 01 00
	00		 add	 esp, 356		; 00000164H
  000c0	3b ec		 cmp	 ebp, esp
  000c2	e8 00 00 00 00	 call	 __RTC_CheckEsp
  000c7	8b e5		 mov	 esp, ebp
  000c9	5d		 pop	 ebp
  000ca	c3		 ret	 0
  000cb	90		 npad	 1
$LN7@ProcessUnc:
  000cc	01 00 00 00	 DD	 1
  000d0	00 00 00 00	 DD	 $LN6@ProcessUnc
$LN6@ProcessUnc:
  000d4	78 ff ff ff	 DD	 -136			; ffffff78H
  000d8	80 00 00 00	 DD	 128			; 00000080H
  000dc	00 00 00 00	 DD	 $LN5@ProcessUnc
$LN5@ProcessUnc:
  000e0	73		 DB	 115			; 00000073H
  000e1	74		 DB	 116			; 00000074H
  000e2	72		 DB	 114			; 00000072H
  000e3	44		 DB	 68			; 00000044H
  000e4	69		 DB	 105			; 00000069H
  000e5	73		 DB	 115			; 00000073H
  000e6	70		 DB	 112			; 00000070H
  000e7	6c		 DB	 108			; 0000006cH
  000e8	61		 DB	 97			; 00000061H
  000e9	79		 DB	 121			; 00000079H
  000ea	00		 DB	 0
_ProcessUnconnectedConReqFrame ENDP
_TEXT	ENDS
PUBLIC	??_C@_0BC@MNGIOAAA@Shouldnt?5get?5Here?$AA@	; `string'
PUBLIC	??_C@_0GK@OLIFPLPK@?$FLARDOPprotocol?4ProcessRcvdARQFra@ ; `string'
PUBLIC	??_C@_0BA@NNHABDKD@REJECTEDBUSY?5?$CFs?$AA@	; `string'
PUBLIC	??_C@_0GF@FEOOBEJO@?$FLARDOPprotocol?4ProcessRcvdARQFra@ ; `string'
PUBLIC	??_C@_0DO@NLAMEEFI@STATUS?5ARQ?5CONNECTION?5ESTABLISHE@ ; `string'
PUBLIC	??_C@_0DM@EJBNKEMM@?$FLARDOPprotocol?4ProcessRcvdARQFra@ ; `string'
PUBLIC	??_C@_0FJ@FHKGKBOK@?$FLARDOPprotocol?4ProcessRcvdARQFra@ ; `string'
PUBLIC	??_C@_0BD@GGEOIKED@Shouldn?8t?5get?5here?$AA@	; `string'
PUBLIC	??_C@_0EK@LJBCHEOL@?$FLARDOPprotocol?4ProcessRcvdARQFra@ ; `string'
PUBLIC	??_C@_0FG@LCLNCLIF@?$FLARDOPprotocol?4ProcessRcvdARQFra@ ; `string'
PUBLIC	??_C@_0HD@HADBIAOH@?$FLARDOPprotocol?4ProcessRcvdARQFra@ ; `string'
PUBLIC	??_C@_0EC@NEBJIFOJ@?$FLARDOPprotocol?4ProcessRcvdARQFra@ ; `string'
PUBLIC	??_C@_0HI@IBHLALHE@?$FLARDOPprotocol?4ProcessRcvdARQFra@ ; `string'
PUBLIC	??_C@_0EN@JOHNAIML@?$FLARDOPprotocol?4ProcessRcvdARQFra@ ; `string'
PUBLIC	??_C@_0EN@DGBJCBFE@?$FLARDOPprotocol?4ProcessRcvdARQFra@ ; `string'
PUBLIC	??_C@_0GM@LICJIEAP@?$FLARDOPprotocol?4ProcessRcvdARQFra@ ; `string'
PUBLIC	??_C@_0CE@KGIEGGGH@STATUS?5ARQ?5CONNECTION?5ENDED?5WITH@ ; `string'
PUBLIC	??_C@_0N@HLEBDOBD@DISCONNECTED?$AA@		; `string'
PUBLIC	??_C@_0GN@DFDOCLEK@?$FLARDOPprotocol?4ProcessRcvdARQFra@ ; `string'
PUBLIC	??_C@_0DC@NMGDPPJO@STATUS?5ARQ?5CONNECTION?5FROM?5?$CFs?3?5S@ ; `string'
PUBLIC	??_C@_0BA@JAAENANL@CONNECTED?5?$CFs?5?$CFd?$AA@	; `string'
PUBLIC	??_C@_0EB@IADMAIC@STATUS?5ARQ?5CONNECTION?5FROM?5?$CFs?5RE@ ; `string'
PUBLIC	??_C@_0O@FNFOGJPJ@CANCELPENDING?$AA@		; `string'
PUBLIC	??_C@_0CF@GAOEEFDH@STATUS?5ARQ?5CONNECTION?5REJECTED?5B@ ; `string'
PUBLIC	??_C@_0O@OMMHMJAK@REJECTEDBW?5?$CFs?$AA@	; `string'
PUBLIC	??_C@_09PLGMOKGH@TARGET?5?$CFs?$AA@		; `string'
PUBLIC	_IRSNegotiateBW
PUBLIC	??_C@_0IA@CJFGJDHK@?$FLARDOPprotocol?4ProcessRcvdARQFra@ ; `string'
PUBLIC	__$ArrayPad$
PUBLIC	_ProcessRcvdARQFrame
EXTRN	_RemoveDataFromQueue:PROC
EXTRN	_EncodeDATANAK:PROC
EXTRN	_intRmtLeaderMeasure:DWORD
EXTRN	_IsDataFrame:PROC
EXTRN	_Encode4FSKIDFrame:PROC
EXTRN	_GridSquare:BYTE
EXTRN	_CheckValidCallsignSyntax:PROC
EXTRN	_EncodeDATAACK:PROC
EXTRN	_intLastRcvdFrameQuality:DWORD
EXTRN	_dttLastFECIDSent:DWORD
EXTRN	_EncodeConACKwTiming:PROC
EXTRN	_intLeaderRcvdMs:DWORD
EXTRN	_strcpy:PROC
EXTRN	_strlop:PROC
EXTRN	_txSleep:PROC
_BSS	SEGMENT
?strCallsign@?1??ProcessRcvdARQFrame@@9@9 DD 01H DUP (?) ; `ProcessRcvdARQFrame'::`2'::strCallsign
_BSS	ENDS
;	COMDAT ??_C@_0BC@MNGIOAAA@Shouldnt?5get?5Here?$AA@
CONST	SEGMENT
??_C@_0BC@MNGIOAAA@Shouldnt?5get?5Here?$AA@ DB 'Shouldnt get Here', 00H ; `string'
CONST	ENDS
;	COMDAT ??_C@_0GK@OLIFPLPK@?$FLARDOPprotocol?4ProcessRcvdARQFra@
CONST	SEGMENT
??_C@_0GK@OLIFPLPK@?$FLARDOPprotocol?4ProcessRcvdARQFra@ DB '[ARDOPprotoc'
	DB	'ol.ProcessRcvdARQFrame] BREAK Rcvd from ARQState ISSData, Go '
	DB	'to ProtocolState IDLE, send IDLE', 00H	; `string'
CONST	ENDS
;	COMDAT ??_C@_0BA@NNHABDKD@REJECTEDBUSY?5?$CFs?$AA@
CONST	SEGMENT
??_C@_0BA@NNHABDKD@REJECTEDBUSY?5?$CFs?$AA@ DB 'REJECTEDBUSY %s', 00H ; `string'
CONST	ENDS
;	COMDAT ??_C@_0GF@FEOOBEJO@?$FLARDOPprotocol?4ProcessRcvdARQFra@
CONST	SEGMENT
??_C@_0GF@FEOOBEJO@?$FLARDOPprotocol?4ProcessRcvdARQFra@ DB '[ARDOPprotoc'
	DB	'ol.ProcessRcvdARQFrame] ConRejBusy received in ARQState %s. G'
	DB	'oing to Protocol State DISC', 00H		; `string'
CONST	ENDS
;	COMDAT ??_C@_0DO@NLAMEEFI@STATUS?5ARQ?5CONNECTION?5ESTABLISHE@
CONST	SEGMENT
??_C@_0DO@NLAMEEFI@STATUS?5ARQ?5CONNECTION?5ESTABLISHE@ DB 'STATUS ARQ CO'
	DB	'NNECTION ESTABLISHED WITH %s, SESSION BW = %d HZ', 00H ; `string'
CONST	ENDS
;	COMDAT ??_C@_0DM@EJBNKEMM@?$FLARDOPprotocol?4ProcessRcvdARQFra@
CONST	SEGMENT
??_C@_0DM@EJBNKEMM@?$FLARDOPprotocol?4ProcessRcvdARQFra@ DB '[ARDOPprotoc'
	DB	'ol.ProcessRcvdARQFrame] ISS RmtLeaderMeas=%d ms', 00H ; `string'
CONST	ENDS
;	COMDAT ??_C@_0FJ@FHKGKBOK@?$FLARDOPprotocol?4ProcessRcvdARQFra@
CONST	SEGMENT
??_C@_0FJ@FHKGKBOK@?$FLARDOPprotocol?4ProcessRcvdARQFra@ DB '[ARDOPprotoc'
	DB	'ol.ProcessRcvdARQFrame] Compatible bandwidth received from IR'
	DB	'S ConAck: %d Hz', 00H			; `string'
CONST	ENDS
;	COMDAT ??_C@_0BD@GGEOIKED@Shouldn?8t?5get?5here?$AA@
CONST	SEGMENT
??_C@_0BD@GGEOIKED@Shouldn?8t?5get?5here?$AA@ DB 'Shouldn''t get here', 00H ; `string'
CONST	ENDS
;	COMDAT ??_C@_0EK@LJBCHEOL@?$FLARDOPprotocol?4ProcessRcvdARQFra@
CONST	SEGMENT
??_C@_0EK@LJBCHEOL@?$FLARDOPprotocol?4ProcessRcvdARQFra@ DB '[ARDOPprotoc'
	DB	'ol.ProcessRcvdARQFrame]  END received ... going to DISC state'
	DB	00H						; `string'
CONST	ENDS
;	COMDAT ??_C@_0FG@LCLNCLIF@?$FLARDOPprotocol?4ProcessRcvdARQFra@
CONST	SEGMENT
??_C@_0FG@LCLNCLIF@?$FLARDOPprotocol?4ProcessRcvdARQFra@ DB '[ARDOPprotoc'
	DB	'ol.ProcessRcvdARQFrame] BREAK Rcvd from IDLE, Go to IRS, Subs'
	DB	'tate IRSData', 00H				; `string'
CONST	ENDS
;	COMDAT ??_C@_0HD@HADBIAOH@?$FLARDOPprotocol?4ProcessRcvdARQFra@
CONST	SEGMENT
??_C@_0HD@HADBIAOH@?$FLARDOPprotocol?4ProcessRcvdARQFra@ DB '[ARDOPprotoc'
	DB	'ol.ProcessRcvdARQFrame] ISS ACK Rcvd from IRS BREAK, IRS Data'
	DB	'ToSend = 0,  IRS > IDLE, Substate ISSData', 00H ; `string'
CONST	ENDS
;	COMDAT ??_C@_0EC@NEBJIFOJ@?$FLARDOPprotocol?4ProcessRcvdARQFra@
CONST	SEGMENT
??_C@_0EC@NEBJIFOJ@?$FLARDOPprotocol?4ProcessRcvdARQFra@ DB '[ARDOPprotoc'
	DB	'ol.ProcessRcvdARQFrame] Bad frame but a repeat so ACK', 00H ; `string'
CONST	ENDS
;	COMDAT ??_C@_0HI@IBHLALHE@?$FLARDOPprotocol?4ProcessRcvdARQFra@
CONST	SEGMENT
??_C@_0HI@IBHLALHE@?$FLARDOPprotocol?4ProcessRcvdARQFra@ DB '[ARDOPprotoc'
	DB	'ol.ProcessRcvdARQFrame] BREAK Rcvd in IRS ARQState IRSData...'
	DB	' indicates remote side has transitioned to IRS', 00H ; `string'
CONST	ENDS
;	COMDAT ??_C@_0EN@JOHNAIML@?$FLARDOPprotocol?4ProcessRcvdARQFra@
CONST	SEGMENT
??_C@_0EN@JOHNAIML@?$FLARDOPprotocol?4ProcessRcvdARQFra@ DB '[ARDOPprotoc'
	DB	'ol.ProcessRcvdARQFrame] IRS (receiving IDLE) RmtLeaderMeas=%d'
	DB	' ms', 00H					; `string'
CONST	ENDS
;	COMDAT ??_C@_0EN@DGBJCBFE@?$FLARDOPprotocol?4ProcessRcvdARQFra@
CONST	SEGMENT
??_C@_0EN@DGBJCBFE@?$FLARDOPprotocol?4ProcessRcvdARQFra@ DB '[ARDOPprotoc'
	DB	'ol.ProcessRcvdARQFrame] IRS (receiving data) RmtLeaderMeas=%d'
	DB	' ms', 00H					; `string'
CONST	ENDS
;	COMDAT ??_C@_0GM@LICJIEAP@?$FLARDOPprotocol?4ProcessRcvdARQFra@
CONST	SEGMENT
??_C@_0GM@LICJIEAP@?$FLARDOPprotocol?4ProcessRcvdARQFra@ DB '[ARDOPprotoc'
	DB	'ol.ProcessRcvdARQFrame]  END frame received in ProtocolState '
	DB	'IRS, IRSData...going to DISC state', 00H	; `string'
CONST	ENDS
;	COMDAT ??_C@_0CE@KGIEGGGH@STATUS?5ARQ?5CONNECTION?5ENDED?5WITH@
CONST	SEGMENT
??_C@_0CE@KGIEGGGH@STATUS?5ARQ?5CONNECTION?5ENDED?5WITH@ DB 'STATUS ARQ C'
	DB	'ONNECTION ENDED WITH %s', 00H		; `string'
CONST	ENDS
;	COMDAT ??_C@_0N@HLEBDOBD@DISCONNECTED?$AA@
CONST	SEGMENT
??_C@_0N@HLEBDOBD@DISCONNECTED?$AA@ DB 'DISCONNECTED', 00H ; `string'
CONST	ENDS
;	COMDAT ??_C@_0GN@DFDOCLEK@?$FLARDOPprotocol?4ProcessRcvdARQFra@
CONST	SEGMENT
??_C@_0GN@DFDOCLEK@?$FLARDOPprotocol?4ProcessRcvdARQFra@ DB '[ARDOPprotoc'
	DB	'ol.ProcessRcvdARQFrame]  DISC frame received in ProtocolState'
	DB	' IRS, IRSData...going to DISC state', 00H	; `string'
CONST	ENDS
;	COMDAT ??_C@_0DC@NMGDPPJO@STATUS?5ARQ?5CONNECTION?5FROM?5?$CFs?3?5S@
CONST	SEGMENT
??_C@_0DC@NMGDPPJO@STATUS?5ARQ?5CONNECTION?5FROM?5?$CFs?3?5S@ DB 'STATUS '
	DB	'ARQ CONNECTION FROM %s: SESSION BW = %d HZ', 00H ; `string'
CONST	ENDS
;	COMDAT ??_C@_0BA@JAAENANL@CONNECTED?5?$CFs?5?$CFd?$AA@
CONST	SEGMENT
??_C@_0BA@JAAENANL@CONNECTED?5?$CFs?5?$CFd?$AA@ DB 'CONNECTED %s %d', 00H ; `string'
CONST	ENDS
;	COMDAT ??_C@_0EB@IADMAIC@STATUS?5ARQ?5CONNECTION?5FROM?5?$CFs?5RE@
CONST	SEGMENT
??_C@_0EB@IADMAIC@STATUS?5ARQ?5CONNECTION?5FROM?5?$CFs?5RE@ DB 'STATUS AR'
	DB	'Q CONNECTION FROM %s REJECTED, INCOMPATIBLE BANDWIDTHS.', 00H ; `string'
CONST	ENDS
;	COMDAT ??_C@_0O@FNFOGJPJ@CANCELPENDING?$AA@
CONST	SEGMENT
??_C@_0O@FNFOGJPJ@CANCELPENDING?$AA@ DB 'CANCELPENDING', 00H ; `string'
CONST	ENDS
;	COMDAT ??_C@_0CF@GAOEEFDH@STATUS?5ARQ?5CONNECTION?5REJECTED?5B@
CONST	SEGMENT
??_C@_0CF@GAOEEFDH@STATUS?5ARQ?5CONNECTION?5REJECTED?5B@ DB 'STATUS ARQ C'
	DB	'ONNECTION REJECTED BY %s', 00H		; `string'
CONST	ENDS
;	COMDAT ??_C@_0O@OMMHMJAK@REJECTEDBW?5?$CFs?$AA@
CONST	SEGMENT
??_C@_0O@OMMHMJAK@REJECTEDBW?5?$CFs?$AA@ DB 'REJECTEDBW %s', 00H ; `string'
CONST	ENDS
;	COMDAT ??_C@_09PLGMOKGH@TARGET?5?$CFs?$AA@
CONST	SEGMENT
??_C@_09PLGMOKGH@TARGET?5?$CFs?$AA@ DB 'TARGET %s', 00H	; `string'
CONST	ENDS
;	COMDAT ??_C@_0IA@CJFGJDHK@?$FLARDOPprotocol?4ProcessRcvdARQFra@
CONST	SEGMENT
??_C@_0IA@CJFGJDHK@?$FLARDOPprotocol?4ProcessRcvdARQFra@ DB '[ARDOPprotoc'
	DB	'ol.ProcessRcvdARQFrame]  DISC frame received in ProtocolState'
	DB	' DISC, Send END with SessionID= %XX Stay in DISC state', 00H ; `string'
; Function compile flags: /Odtp /RTCsu /ZI
CONST	ENDS
;	COMDAT _ProcessRcvdARQFrame
_TEXT	SEGMENT
tv519 = -324						; size = 4
tv298 = -324						; size = 4
tv228 = -324						; size = 4
tv65 = -324						; size = 4
_bytDummy$28675 = -121					; size = 1
_HostCmd$ = -112					; size = 80
_intReportedLeaderMS$ = -24				; size = 4
_intReply$ = -12					; size = 4
__$ArrayPad$ = -4					; size = 4
_intFrameType$ = 8					; size = 1
_bytData$ = 12						; size = 4
_DataLen$ = 16						; size = 4
_blnFrameDecodedOK$ = 20				; size = 4
_ProcessRcvdARQFrame PROC				; COMDAT

; 950  : {

  00000	55		 push	 ebp
  00001	8b ec		 mov	 ebp, esp
  00003	81 ec 44 01 00
	00		 sub	 esp, 324		; 00000144H
  00009	53		 push	 ebx
  0000a	56		 push	 esi
  0000b	57		 push	 edi
  0000c	8d bd bc fe ff
	ff		 lea	 edi, DWORD PTR [ebp-324]
  00012	b9 51 00 00 00	 mov	 ecx, 81			; 00000051H
  00017	b8 cc cc cc cc	 mov	 eax, -858993460		; ccccccccH
  0001c	f3 ab		 rep stosd
  0001e	a1 00 00 00 00	 mov	 eax, DWORD PTR ___security_cookie
  00023	33 c5		 xor	 eax, ebp
  00025	89 45 fc	 mov	 DWORD PTR __$ArrayPad$[ebp], eax

; 951  : 	//	blnFrameDecodedOK should always be true except in the case of a failed data frame ...Which is then NAK'ed if in IRS Data state
; 952  :     
; 953  : 	int intReply;
; 954  : 	static UCHAR * strCallsign;
; 955  : 	int intReportedLeaderMS = 0;

  00028	c7 45 e8 00 00
	00 00		 mov	 DWORD PTR _intReportedLeaderMS$[ebp], 0

; 956  : 	char HostCmd[80];
; 957  : 
; 958  : 	// Allow for link turnround before responding
; 959  : 
; 960  : 	txSleep(250);		// May need to tune, or may be better to wait in each send path

  0002f	68 fa 00 00 00	 push	 250			; 000000faH
  00034	e8 00 00 00 00	 call	 _txSleep
  00039	83 c4 04	 add	 esp, 4

; 961  : 
; 962  : 	// Note this is called as part of the RX sample poll routine
; 963  : 	
; 964  : 	switch (ProtocolState)

  0003c	a1 00 00 00 00	 mov	 eax, DWORD PTR _ProtocolState
  00041	89 85 bc fe ff
	ff		 mov	 DWORD PTR tv65[ebp], eax
  00047	8b 8d bc fe ff
	ff		 mov	 ecx, DWORD PTR tv65[ebp]
  0004d	83 e9 01	 sub	 ecx, 1
  00050	89 8d bc fe ff
	ff		 mov	 DWORD PTR tv65[ebp], ecx
  00056	83 bd bc fe ff
	ff 07		 cmp	 DWORD PTR tv65[ebp], 7
  0005d	0f 87 cd 14 00
	00		 ja	 $LN1@ProcessRcv
  00063	8b 95 bc fe ff
	ff		 mov	 edx, DWORD PTR tv65[ebp]
  00069	ff 24 95 00 00
	00 00		 jmp	 DWORD PTR $LN114@ProcessRcv[edx*4]
$LN105@ProcessRcv:

; 965  : 	{
; 966  : 	case DISC:
; 967  : 		
; 968  : 		// DISC State *******************************************************************************************
; 969  : 
; 970  : 		if (blnFrameDecodedOK && intFrameType == 0x29) 

  00070	83 7d 14 00	 cmp	 DWORD PTR _blnFrameDecodedOK$[ebp], 0
  00074	74 76		 je	 SHORT $LN104@ProcessRcv
  00076	0f b6 45 08	 movzx	 eax, BYTE PTR _intFrameType$[ebp]
  0007a	83 f8 29	 cmp	 eax, 41			; 00000029H
  0007d	75 6d		 jne	 SHORT $LN104@ProcessRcv

; 971  : 		{
; 972  : 			// Special case to process DISC from previous connection (Ending station must have missed END reply to DISC) Handles protocol rule 1.5
; 973  :     
; 974  : 			if (DebugLog) Debugprintf("[ARDOPprotocol.ProcessRcvdARQFrame]  DISC frame received in ProtocolState DISC, Send END with SessionID= %XX Stay in DISC state", bytLastARQSessionID);

  0007f	83 3d 00 00 00
	00 00		 cmp	 DWORD PTR _DebugLog, 0
  00086	74 15		 je	 SHORT $LN103@ProcessRcv
  00088	0f b6 05 00 00
	00 00		 movzx	 eax, BYTE PTR _bytLastARQSessionID
  0008f	50		 push	 eax
  00090	68 00 00 00 00	 push	 OFFSET ??_C@_0IA@CJFGJDHK@?$FLARDOPprotocol?4ProcessRcvdARQFra@
  00095	e8 00 00 00 00	 call	 _Debugprintf
  0009a	83 c4 08	 add	 esp, 8
$LN103@ProcessRcv:

; 975  : 
; 976  : 			EncLen = Encode4FSKControl(0x2C, bytLastARQSessionID, bytEncodedBytes);

  0009d	68 00 00 00 00	 push	 OFFSET _bytEncodedBytes
  000a2	a0 00 00 00 00	 mov	 al, BYTE PTR _bytLastARQSessionID
  000a7	50		 push	 eax
  000a8	6a 2c		 push	 44			; 0000002cH
  000aa	e8 00 00 00 00	 call	 _Encode4FSKControl
  000af	83 c4 0c	 add	 esp, 12			; 0000000cH
  000b2	a3 00 00 00 00	 mov	 DWORD PTR _EncLen, eax

; 977  : 
; 978  : 			tmrFinalID = 500;			

  000b7	c7 05 00 00 00
	00 f4 01 00 00	 mov	 DWORD PTR _tmrFinalID, 500 ; 000001f4H

; 979  : 			blnEnbARQRpt = FALSE;

  000c1	c7 05 00 00 00
	00 00 00 00 00	 mov	 DWORD PTR _blnEnbARQRpt, 0

; 980  : 
; 981  : 			Mod4FSKDataAndPlay(0x2C, &bytEncodedBytes[0], EncLen, LeaderLength);		// only returns when all sent

  000cb	a1 00 00 00 00	 mov	 eax, DWORD PTR _LeaderLength
  000d0	50		 push	 eax
  000d1	8b 0d 00 00 00
	00		 mov	 ecx, DWORD PTR _EncLen
  000d7	51		 push	 ecx
  000d8	68 00 00 00 00	 push	 OFFSET _bytEncodedBytes
  000dd	6a 2c		 push	 44			; 0000002cH
  000df	e8 00 00 00 00	 call	 _Mod4FSKDataAndPlay
  000e4	83 c4 10	 add	 esp, 16			; 00000010H

; 982  : 			return;

  000e7	e9 51 14 00 00	 jmp	 $LN108@ProcessRcv
$LN104@ProcessRcv:

; 983  : 		}
; 984  : 		if (!blnListen)

  000ec	83 3d 00 00 00
	00 00		 cmp	 DWORD PTR _blnListen, 0
  000f3	75 05		 jne	 SHORT $LN102@ProcessRcv

; 985  : 			return;			 // ignore connect request if not blnListen

  000f5	e9 43 14 00 00	 jmp	 $LN108@ProcessRcv
$LN102@ProcessRcv:

; 986  :     
; 987  : 		// Process Connect request to MyCallsign or Aux Call signs  (Handles protocol rule 1.2)
; 988  :    
; 989  : 		if (!blnFrameDecodedOK || intFrameType < 0x31 || intFrameType > 0x38)

  000fa	83 7d 14 00	 cmp	 DWORD PTR _blnFrameDecodedOK$[ebp], 0
  000fe	74 12		 je	 SHORT $LN100@ProcessRcv
  00100	0f b6 45 08	 movzx	 eax, BYTE PTR _intFrameType$[ebp]
  00104	83 f8 31	 cmp	 eax, 49			; 00000031H
  00107	7c 09		 jl	 SHORT $LN100@ProcessRcv
  00109	0f b6 45 08	 movzx	 eax, BYTE PTR _intFrameType$[ebp]
  0010d	83 f8 38	 cmp	 eax, 56			; 00000038H
  00110	7e 05		 jle	 SHORT $LN101@ProcessRcv
$LN100@ProcessRcv:

; 990  : 			return;			// No decode or not a ConReq

  00112	e9 26 14 00 00	 jmp	 $LN108@ProcessRcv
$LN101@ProcessRcv:

; 991  : 
; 992  : 		strCallsign  = strlop(bytData, ' '); // "fromcall tocall"

  00117	6a 20		 push	 32			; 00000020H
  00119	8b 45 0c	 mov	 eax, DWORD PTR _bytData$[ebp]
  0011c	50		 push	 eax
  0011d	e8 00 00 00 00	 call	 _strlop
  00122	83 c4 08	 add	 esp, 8
  00125	a3 00 00 00 00	 mov	 DWORD PTR ?strCallsign@?1??ProcessRcvdARQFrame@@9@9, eax

; 993  : 
; 994  : 		// see if connect request is to MyCallsign or any Aux call sign
; 995  :         
; 996  : 		if (IsCallToMe(strCallsign, &bytPendingSessionID)) // (Handles protocol rules 1.2, 1.3)

  0012a	68 00 00 00 00	 push	 OFFSET _bytPendingSessionID
  0012f	a1 00 00 00 00	 mov	 eax, DWORD PTR ?strCallsign@?1??ProcessRcvdARQFrame@@9@9
  00134	50		 push	 eax
  00135	e8 00 00 00 00	 call	 _IsCallToMe
  0013a	83 c4 08	 add	 esp, 8
  0013d	85 c0		 test	 eax, eax
  0013f	0f 84 96 01 00
	00		 je	 $LN99@ProcessRcv

; 997  : 		{
; 998  : 			//Logs.WriteDebug("[ProcessRcvdARQFrame]1 strCallsigns(0)=" & strCallsigns(0) & "  strCallsigns(1)=" & strCallsigns(1) & "  bytPendnigSessionID=" & Format(bytPendingSessionID, "X"))
; 999  :             
; 1000 : 			intReply = IRSNegotiateBW(intFrameType); // NegotiateBandwidth

  00145	0f b6 45 08	 movzx	 eax, BYTE PTR _intFrameType$[ebp]
  00149	50		 push	 eax
  0014a	e8 00 00 00 00	 call	 _IRSNegotiateBW
  0014f	83 c4 04	 add	 esp, 4
  00152	89 45 f4	 mov	 DWORD PTR _intReply$[ebp], eax

; 1001 : 
; 1002 : 			if (intReply != 0x2E)	// If not ConRejBW the bandwidth is compatible so answer with correct ConAck frame

  00155	83 7d f4 2e	 cmp	 DWORD PTR _intReply$[ebp], 46 ; 0000002eH
  00159	0f 84 fc 00 00
	00		 je	 $LN98@ProcessRcv

; 1003 : 			{
; 1004 : 				sprintf(HostCmd, "TARGET %s", strCallsign);

  0015f	a1 00 00 00 00	 mov	 eax, DWORD PTR ?strCallsign@?1??ProcessRcvdARQFrame@@9@9
  00164	50		 push	 eax
  00165	68 00 00 00 00	 push	 OFFSET ??_C@_09PLGMOKGH@TARGET?5?$CFs?$AA@
  0016a	8d 4d 90	 lea	 ecx, DWORD PTR _HostCmd$[ebp]
  0016d	51		 push	 ecx
  0016e	e8 00 00 00 00	 call	 _sprintf
  00173	83 c4 0c	 add	 esp, 12			; 0000000cH

; 1005 : 				QueueCommandToHost(HostCmd);

  00176	8d 45 90	 lea	 eax, DWORD PTR _HostCmd$[ebp]
  00179	50		 push	 eax
  0017a	e8 00 00 00 00	 call	 _QueueCommandToHost
  0017f	83 c4 04	 add	 esp, 4

; 1006 :                        
; 1007 : 				blnPending = TRUE;				

  00182	c7 05 00 00 00
	00 01 00 00 00	 mov	 DWORD PTR _blnPending, 1

; 1008 : 				blnEnbARQRpt = FALSE;

  0018c	c7 05 00 00 00
	00 00 00 00 00	 mov	 DWORD PTR _blnEnbARQRpt, 0

; 1009 : 
; 1010 : 				tmrIRSPendingTimeout = Now + 10000;  // Triggers a 10 second timeout before auto abort from pending

  00196	e8 00 00 00 00	 call	 _getTicks
  0019b	05 10 27 00 00	 add	 eax, 10000		; 00002710H
  001a0	a3 00 00 00 00	 mov	 DWORD PTR _tmrIRSPendingTimeout, eax

; 1011 : 
; 1012 : 				// (Handles protocol rule 1.2)
; 1013 :                             
; 1014 : 				dttTimeoutTrip = Now;

  001a5	e8 00 00 00 00	 call	 _getTicks
  001aa	a3 00 00 00 00	 mov	 DWORD PTR _dttTimeoutTrip, eax

; 1015 :                             
; 1016 : 				SetARDOPProtocolState(IRS);

  001af	6a 03		 push	 3
  001b1	e8 00 00 00 00	 call	 _SetARDOPProtocolState
  001b6	83 c4 04	 add	 esp, 4

; 1017 : 				ARQState = IRSConAck; // now connected 

  001b9	c7 05 00 00 00
	00 05 00 00 00	 mov	 DWORD PTR _ARQState, 5

; 1018 : 
; 1019 : 				intLastARQDataFrameToHost = -1;	 // precondition to an illegal frame type

  001c3	c7 05 00 00 00
	00 ff ff ff ff	 mov	 DWORD PTR _intLastARQDataFrameToHost, -1

; 1020 :    
; 1021 : 				strcpy(strRemoteCallsign, bytData);

  001cd	8b 45 0c	 mov	 eax, DWORD PTR _bytData$[ebp]
  001d0	50		 push	 eax
  001d1	68 00 00 00 00	 push	 OFFSET _strRemoteCallsign
  001d6	e8 00 00 00 00	 call	 _strcpy
  001db	83 c4 08	 add	 esp, 8

; 1022 : 				strcpy(strLocalCallsign, strCallsign);

  001de	a1 00 00 00 00	 mov	 eax, DWORD PTR ?strCallsign@?1??ProcessRcvdARQFrame@@9@9
  001e3	50		 push	 eax
  001e4	68 00 00 00 00	 push	 OFFSET _strLocalCallsign
  001e9	e8 00 00 00 00	 call	 _strcpy
  001ee	83 c4 08	 add	 esp, 8

; 1023 : 				strcpy(strFinalIDCallsign, strCallsign);

  001f1	a1 00 00 00 00	 mov	 eax, DWORD PTR ?strCallsign@?1??ProcessRcvdARQFrame@@9@9
  001f6	50		 push	 eax
  001f7	68 00 00 00 00	 push	 OFFSET _strFinalIDCallsign
  001fc	e8 00 00 00 00	 call	 _strcpy
  00201	83 c4 08	 add	 esp, 8

; 1024 : 
; 1025 : 				intAvgQuality = 0;		// initialize avg quality 

  00204	c7 05 00 00 00
	00 00 00 00 00	 mov	 DWORD PTR _intAvgQuality, 0

; 1026 : 				intReceivedLeaderLen = intLeaderRcvdMs;		 // capture the received leader from the remote ISS's ConReq (used for timing optimization)

  0020e	a1 00 00 00 00	 mov	 eax, DWORD PTR _intLeaderRcvdMs
  00213	a3 00 00 00 00	 mov	 DWORD PTR _intReceivedLeaderLen, eax

; 1027 : 
; 1028 : 				EncLen = EncodeConACKwTiming(intReply, intLeaderRcvdMs, bytPendingSessionID, bytEncodedBytes);

  00218	68 00 00 00 00	 push	 OFFSET _bytEncodedBytes
  0021d	a0 00 00 00 00	 mov	 al, BYTE PTR _bytPendingSessionID
  00222	50		 push	 eax
  00223	8b 0d 00 00 00
	00		 mov	 ecx, DWORD PTR _intLeaderRcvdMs
  00229	51		 push	 ecx
  0022a	8a 55 f4	 mov	 dl, BYTE PTR _intReply$[ebp]
  0022d	52		 push	 edx
  0022e	e8 00 00 00 00	 call	 _EncodeConACKwTiming
  00233	83 c4 10	 add	 esp, 16			; 00000010H
  00236	a3 00 00 00 00	 mov	 DWORD PTR _EncLen, eax

; 1029 : 				Mod4FSKDataAndPlay(intReply, &bytEncodedBytes[0], EncLen, LeaderLength);		// only returns when all sent

  0023b	a1 00 00 00 00	 mov	 eax, DWORD PTR _LeaderLength
  00240	50		 push	 eax
  00241	8b 0d 00 00 00
	00		 mov	 ecx, DWORD PTR _EncLen
  00247	51		 push	 ecx
  00248	68 00 00 00 00	 push	 OFFSET _bytEncodedBytes
  0024d	8b 55 f4	 mov	 edx, DWORD PTR _intReply$[ebp]
  00250	52		 push	 edx
  00251	e8 00 00 00 00	 call	 _Mod4FSKDataAndPlay
  00256	83 c4 10	 add	 esp, 16			; 00000010H

; 1030 : 			}
; 1031 : 			else

  00259	eb 7e		 jmp	 SHORT $LN97@ProcessRcv
$LN98@ProcessRcv:

; 1032 : 			{
; 1033 : 				// ' ConRejBW  (Incompatible bandwidths)
; 1034 : 
; 1035 : 				// ' (Handles protocol rule 1.3)
; 1036 :              
; 1037 : 				sprintf(HostCmd, "REJECTEDBW %s", strRemoteCallsign);

  0025b	68 00 00 00 00	 push	 OFFSET _strRemoteCallsign
  00260	68 00 00 00 00	 push	 OFFSET ??_C@_0O@OMMHMJAK@REJECTEDBW?5?$CFs?$AA@
  00265	8d 45 90	 lea	 eax, DWORD PTR _HostCmd$[ebp]
  00268	50		 push	 eax
  00269	e8 00 00 00 00	 call	 _sprintf
  0026e	83 c4 0c	 add	 esp, 12			; 0000000cH

; 1038 : 				QueueCommandToHost(HostCmd);

  00271	8d 45 90	 lea	 eax, DWORD PTR _HostCmd$[ebp]
  00274	50		 push	 eax
  00275	e8 00 00 00 00	 call	 _QueueCommandToHost
  0027a	83 c4 04	 add	 esp, 4

; 1039 : 				sprintf(HostCmd, "STATUS ARQ CONNECTION REJECTED BY %s", strRemoteCallsign);

  0027d	68 00 00 00 00	 push	 OFFSET _strRemoteCallsign
  00282	68 00 00 00 00	 push	 OFFSET ??_C@_0CF@GAOEEFDH@STATUS?5ARQ?5CONNECTION?5REJECTED?5B@
  00287	8d 45 90	 lea	 eax, DWORD PTR _HostCmd$[ebp]
  0028a	50		 push	 eax
  0028b	e8 00 00 00 00	 call	 _sprintf
  00290	83 c4 0c	 add	 esp, 12			; 0000000cH

; 1040 : 				QueueCommandToHost(HostCmd);

  00293	8d 45 90	 lea	 eax, DWORD PTR _HostCmd$[ebp]
  00296	50		 push	 eax
  00297	e8 00 00 00 00	 call	 _QueueCommandToHost
  0029c	83 c4 04	 add	 esp, 4

; 1041 : 			
; 1042 : 				EncLen = Encode4FSKControl(intReply, bytPendingSessionID, bytEncodedBytes);

  0029f	68 00 00 00 00	 push	 OFFSET _bytEncodedBytes
  002a4	a0 00 00 00 00	 mov	 al, BYTE PTR _bytPendingSessionID
  002a9	50		 push	 eax
  002aa	8a 4d f4	 mov	 cl, BYTE PTR _intReply$[ebp]
  002ad	51		 push	 ecx
  002ae	e8 00 00 00 00	 call	 _Encode4FSKControl
  002b3	83 c4 0c	 add	 esp, 12			; 0000000cH
  002b6	a3 00 00 00 00	 mov	 DWORD PTR _EncLen, eax

; 1043 : 				Mod4FSKDataAndPlay(intReply, &bytEncodedBytes[0], EncLen, LeaderLength);		// only returns when all sent

  002bb	a1 00 00 00 00	 mov	 eax, DWORD PTR _LeaderLength
  002c0	50		 push	 eax
  002c1	8b 0d 00 00 00
	00		 mov	 ecx, DWORD PTR _EncLen
  002c7	51		 push	 ecx
  002c8	68 00 00 00 00	 push	 OFFSET _bytEncodedBytes
  002cd	8b 55 f4	 mov	 edx, DWORD PTR _intReply$[ebp]
  002d0	52		 push	 edx
  002d1	e8 00 00 00 00	 call	 _Mod4FSKDataAndPlay
  002d6	83 c4 10	 add	 esp, 16			; 00000010H
$LN97@ProcessRcv:

; 1044 : 			}
; 1045 : 		}
; 1046 : 		else

  002d9	eb 0d		 jmp	 SHORT $LN96@ProcessRcv
$LN99@ProcessRcv:

; 1047 : 		{
; 1048 : 			// Not for us - cancel pending
; 1049 : 			
; 1050 : 			QueueCommandToHost("CANCELPENDING");

  002db	68 00 00 00 00	 push	 OFFSET ??_C@_0O@FNFOGJPJ@CANCELPENDING?$AA@
  002e0	e8 00 00 00 00	 call	 _QueueCommandToHost
  002e5	83 c4 04	 add	 esp, 4
$LN96@ProcessRcv:

; 1051 : //			ProcessUnconnectedConReqFrame(intFrameType, bytData);  //  displays data if not connnected.  
; 1052 : 		}
; 1053 : 		blnEnbARQRpt = FALSE;

  002e8	c7 05 00 00 00
	00 00 00 00 00	 mov	 DWORD PTR _blnEnbARQRpt, 0

; 1054 : 		return;

  002f2	e9 46 12 00 00	 jmp	 $LN108@ProcessRcv
$LN95@ProcessRcv:

; 1055 : 	
; 1056 : 
; 1057 : 	case IRS:
; 1058 : 
; 1059 : 		//IRS State ****************************************************************************************
; 1060 : 		//  Process ConReq, ConAck, DISC, END, Host DISCONNECT, DATA, IDLE, BREAK 
; 1061 : 
; 1062 : 		if (ARQState == IRSConAck)		// Process ConAck or ConReq if reply ConAck sent above in Case ProtocolState.DISC was missed by ISS

  002f7	83 3d 00 00 00
	00 05		 cmp	 DWORD PTR _ARQState, 5
  002fe	0f 85 76 03 00
	00		 jne	 $LN94@ProcessRcv

; 1063 : 		{         
; 1064 : 			if (!blnFrameDecodedOK)

  00304	83 7d 14 00	 cmp	 DWORD PTR _blnFrameDecodedOK$[ebp], 0
  00308	75 05		 jne	 SHORT $LN93@ProcessRcv

; 1065 : 				return;					// no reply if no correct decode

  0030a	e9 2e 12 00 00	 jmp	 $LN108@ProcessRcv
$LN93@ProcessRcv:

; 1066 : 
; 1067 : 			// ConReq processing (to handle case of ISS missing initial ConAck from IRS)
; 1068 : 
; 1069 : 			if (intFrameType >= 0x31 && intFrameType <= 0x38) // Process Connect request to MyCallsign or Aux Call signs as for DISC state above (ISS must have missed initial ConACK from ProtocolState.DISC state)

  0030f	0f b6 45 08	 movzx	 eax, BYTE PTR _intFrameType$[ebp]
  00313	83 f8 31	 cmp	 eax, 49			; 00000031H
  00316	0f 8c b8 01 00
	00		 jl	 $LN92@ProcessRcv
  0031c	0f b6 45 08	 movzx	 eax, BYTE PTR _intFrameType$[ebp]
  00320	83 f8 38	 cmp	 eax, 56			; 00000038H
  00323	0f 8f ab 01 00
	00		 jg	 $LN92@ProcessRcv

; 1070 : 			{
; 1071 : 				if (!blnListen)

  00329	83 3d 00 00 00
	00 00		 cmp	 DWORD PTR _blnListen, 0
  00330	75 05		 jne	 SHORT $LN91@ProcessRcv

; 1072 : 					return;

  00332	e9 06 12 00 00	 jmp	 $LN108@ProcessRcv
$LN91@ProcessRcv:

; 1073 : 				
; 1074 : 				// see if connect request is to MyCallsign or any Aux call sign
; 1075 : 
; 1076 : 				strCallsign  = strlop(bytData, ' '); // "fromcall tocall"

  00337	6a 20		 push	 32			; 00000020H
  00339	8b 45 0c	 mov	 eax, DWORD PTR _bytData$[ebp]
  0033c	50		 push	 eax
  0033d	e8 00 00 00 00	 call	 _strlop
  00342	83 c4 08	 add	 esp, 8
  00345	a3 00 00 00 00	 mov	 DWORD PTR ?strCallsign@?1??ProcessRcvdARQFrame@@9@9, eax

; 1077 :        
; 1078 : 				if (IsCallToMe(strCallsign, &bytPendingSessionID)) // (Handles protocol rules 1.2, 1.3)

  0034a	68 00 00 00 00	 push	 OFFSET _bytPendingSessionID
  0034f	a1 00 00 00 00	 mov	 eax, DWORD PTR ?strCallsign@?1??ProcessRcvdARQFrame@@9@9
  00354	50		 push	 eax
  00355	e8 00 00 00 00	 call	 _IsCallToMe
  0035a	83 c4 08	 add	 esp, 8
  0035d	85 c0		 test	 eax, eax
  0035f	0f 84 6a 01 00
	00		 je	 $LN90@ProcessRcv

; 1079 : 				{
; 1080 : 					//Logs.WriteDebug("[ProcessRcvdARQFrame]1 strCallsigns(0)=" & strCallsigns(0) & "  strCallsigns(1)=" & strCallsigns(1) & "  bytPendnigSessionID=" & Format(bytPendingSessionID, "X"))
; 1081 :             
; 1082 : 					intReply = IRSNegotiateBW(intFrameType); // NegotiateBandwidth

  00365	0f b6 45 08	 movzx	 eax, BYTE PTR _intFrameType$[ebp]
  00369	50		 push	 eax
  0036a	e8 00 00 00 00	 call	 _IRSNegotiateBW
  0036f	83 c4 04	 add	 esp, 4
  00372	89 45 f4	 mov	 DWORD PTR _intReply$[ebp], eax

; 1083 : 
; 1084 : 					if (intReply != 0x2E)	// If not ConRejBW the bandwidth is compatible so answer with correct ConAck frame

  00375	83 7d f4 2e	 cmp	 DWORD PTR _intReply$[ebp], 46 ; 0000002eH
  00379	0f 84 cd 00 00
	00		 je	 $LN89@ProcessRcv

; 1085 : 					{
; 1086 : 						// Note: CONNECTION and STATUS notices were already sent from  Case ProtocolState.DISC above...no need to duplicate
; 1087 : 
; 1088 :   						SetARDOPProtocolState(IRS);

  0037f	6a 03		 push	 3
  00381	e8 00 00 00 00	 call	 _SetARDOPProtocolState
  00386	83 c4 04	 add	 esp, 4

; 1089 : 						ARQState = IRSConAck; // now connected 

  00389	c7 05 00 00 00
	00 05 00 00 00	 mov	 DWORD PTR _ARQState, 5

; 1090 : 
; 1091 : 						intLastARQDataFrameToHost = -1;	 // precondition to an illegal frame type

  00393	c7 05 00 00 00
	00 ff ff ff ff	 mov	 DWORD PTR _intLastARQDataFrameToHost, -1

; 1092 :   
; 1093 : 						intAvgQuality = 0;		// initialize avg quality 

  0039d	c7 05 00 00 00
	00 00 00 00 00	 mov	 DWORD PTR _intAvgQuality, 0

; 1094 : 						intReceivedLeaderLen = intLeaderRcvdMs;		 // capture the received leader from the remote ISS's ConReq (used for timing optimization)

  003a7	a1 00 00 00 00	 mov	 eax, DWORD PTR _intLeaderRcvdMs
  003ac	a3 00 00 00 00	 mov	 DWORD PTR _intReceivedLeaderLen, eax

; 1095 : 						InitializeConnection();

  003b1	e8 00 00 00 00	 call	 _InitializeConnection

; 1096 : 						dttTimeoutTrip = Now;

  003b6	e8 00 00 00 00	 call	 _getTicks
  003bb	a3 00 00 00 00	 mov	 DWORD PTR _dttTimeoutTrip, eax

; 1097 : 
; 1098 : 						//Stop and restart the Pending timer upon each ConReq received to ME
; 1099 :  						tmrIRSPendingTimeout= Now + 10000;  // Triggers a 10 second timeout before auto abort from pending

  003c0	e8 00 00 00 00	 call	 _getTicks
  003c5	05 10 27 00 00	 add	 eax, 10000		; 00002710H
  003ca	a3 00 00 00 00	 mov	 DWORD PTR _tmrIRSPendingTimeout, eax

; 1100 : 
; 1101 : 						strcpy(strRemoteCallsign, bytData);

  003cf	8b 45 0c	 mov	 eax, DWORD PTR _bytData$[ebp]
  003d2	50		 push	 eax
  003d3	68 00 00 00 00	 push	 OFFSET _strRemoteCallsign
  003d8	e8 00 00 00 00	 call	 _strcpy
  003dd	83 c4 08	 add	 esp, 8

; 1102 : 						strcpy(strLocalCallsign, strCallsign);

  003e0	a1 00 00 00 00	 mov	 eax, DWORD PTR ?strCallsign@?1??ProcessRcvdARQFrame@@9@9
  003e5	50		 push	 eax
  003e6	68 00 00 00 00	 push	 OFFSET _strLocalCallsign
  003eb	e8 00 00 00 00	 call	 _strcpy
  003f0	83 c4 08	 add	 esp, 8

; 1103 : 						strcpy(strFinalIDCallsign, strCallsign);

  003f3	a1 00 00 00 00	 mov	 eax, DWORD PTR ?strCallsign@?1??ProcessRcvdARQFrame@@9@9
  003f8	50		 push	 eax
  003f9	68 00 00 00 00	 push	 OFFSET _strFinalIDCallsign
  003fe	e8 00 00 00 00	 call	 _strcpy
  00403	83 c4 08	 add	 esp, 8

; 1104 : 
; 1105 : 						EncLen = EncodeConACKwTiming(intReply, intLeaderRcvdMs, bytPendingSessionID, bytEncodedBytes);

  00406	68 00 00 00 00	 push	 OFFSET _bytEncodedBytes
  0040b	a0 00 00 00 00	 mov	 al, BYTE PTR _bytPendingSessionID
  00410	50		 push	 eax
  00411	8b 0d 00 00 00
	00		 mov	 ecx, DWORD PTR _intLeaderRcvdMs
  00417	51		 push	 ecx
  00418	8a 55 f4	 mov	 dl, BYTE PTR _intReply$[ebp]
  0041b	52		 push	 edx
  0041c	e8 00 00 00 00	 call	 _EncodeConACKwTiming
  00421	83 c4 10	 add	 esp, 16			; 00000010H
  00424	a3 00 00 00 00	 mov	 DWORD PTR _EncLen, eax

; 1106 : 						Mod4FSKDataAndPlay(intReply, &bytEncodedBytes[0], EncLen, LeaderLength);		// only returns when all sent

  00429	a1 00 00 00 00	 mov	 eax, DWORD PTR _LeaderLength
  0042e	50		 push	 eax
  0042f	8b 0d 00 00 00
	00		 mov	 ecx, DWORD PTR _EncLen
  00435	51		 push	 ecx
  00436	68 00 00 00 00	 push	 OFFSET _bytEncodedBytes
  0043b	8b 55 f4	 mov	 edx, DWORD PTR _intReply$[ebp]
  0043e	52		 push	 edx
  0043f	e8 00 00 00 00	 call	 _Mod4FSKDataAndPlay
  00444	83 c4 10	 add	 esp, 16			; 00000010H

; 1107 : 						// ' No delay to allow ISS to measure its TX>RX delay}
; 1108 : 						return;

  00447	e9 f1 10 00 00	 jmp	 $LN108@ProcessRcv
$LN89@ProcessRcv:

; 1109 : 					}
; 1110 : 		
; 1111 : 					// ' ConRejBW  (Incompatible bandwidths)
; 1112 : 
; 1113 : 					// ' (Handles protocol rule 1.3)
; 1114 :              
; 1115 : 					//	if (DebugLog) Debugprintf(("[ProcessRcvdARQFrame] Incompatible bandwidth connect request. Frame type: " & objFrameInfo.Name(intFrameType) & "   MCB.ARQBandwidth:  " & MCB.ARQBandwidth)
; 1116 :   					
; 1117 : 					sprintf(HostCmd, "REJECTEDBW %s", strRemoteCallsign);

  0044c	68 00 00 00 00	 push	 OFFSET _strRemoteCallsign
  00451	68 00 00 00 00	 push	 OFFSET ??_C@_0O@OMMHMJAK@REJECTEDBW?5?$CFs?$AA@
  00456	8d 45 90	 lea	 eax, DWORD PTR _HostCmd$[ebp]
  00459	50		 push	 eax
  0045a	e8 00 00 00 00	 call	 _sprintf
  0045f	83 c4 0c	 add	 esp, 12			; 0000000cH

; 1118 : 					QueueCommandToHost(HostCmd);

  00462	8d 45 90	 lea	 eax, DWORD PTR _HostCmd$[ebp]
  00465	50		 push	 eax
  00466	e8 00 00 00 00	 call	 _QueueCommandToHost
  0046b	83 c4 04	 add	 esp, 4

; 1119 : 					sprintf(HostCmd, "STATUS ARQ CONNECTION FROM %s REJECTED, INCOMPATIBLE BANDWIDTHS.", strRemoteCallsign);

  0046e	68 00 00 00 00	 push	 OFFSET _strRemoteCallsign
  00473	68 00 00 00 00	 push	 OFFSET ??_C@_0EB@IADMAIC@STATUS?5ARQ?5CONNECTION?5FROM?5?$CFs?5RE@
  00478	8d 45 90	 lea	 eax, DWORD PTR _HostCmd$[ebp]
  0047b	50		 push	 eax
  0047c	e8 00 00 00 00	 call	 _sprintf
  00481	83 c4 0c	 add	 esp, 12			; 0000000cH

; 1120 : 					QueueCommandToHost(HostCmd);

  00484	8d 45 90	 lea	 eax, DWORD PTR _HostCmd$[ebp]
  00487	50		 push	 eax
  00488	e8 00 00 00 00	 call	 _QueueCommandToHost
  0048d	83 c4 04	 add	 esp, 4

; 1121 : 
; 1122 : 					EncLen = Encode4FSKControl(intReply, bytPendingSessionID, bytEncodedBytes);

  00490	68 00 00 00 00	 push	 OFFSET _bytEncodedBytes
  00495	a0 00 00 00 00	 mov	 al, BYTE PTR _bytPendingSessionID
  0049a	50		 push	 eax
  0049b	8a 4d f4	 mov	 cl, BYTE PTR _intReply$[ebp]
  0049e	51		 push	 ecx
  0049f	e8 00 00 00 00	 call	 _Encode4FSKControl
  004a4	83 c4 0c	 add	 esp, 12			; 0000000cH
  004a7	a3 00 00 00 00	 mov	 DWORD PTR _EncLen, eax

; 1123 : 					Mod4FSKDataAndPlay(intReply, &bytEncodedBytes[0], EncLen, LeaderLength);		// only returns when all sent

  004ac	a1 00 00 00 00	 mov	 eax, DWORD PTR _LeaderLength
  004b1	50		 push	 eax
  004b2	8b 0d 00 00 00
	00		 mov	 ecx, DWORD PTR _EncLen
  004b8	51		 push	 ecx
  004b9	68 00 00 00 00	 push	 OFFSET _bytEncodedBytes
  004be	8b 55 f4	 mov	 edx, DWORD PTR _intReply$[ebp]
  004c1	52		 push	 edx
  004c2	e8 00 00 00 00	 call	 _Mod4FSKDataAndPlay
  004c7	83 c4 10	 add	 esp, 16			; 00000010H

; 1124 : 
; 1125 : 					return;

  004ca	e9 6e 10 00 00	 jmp	 $LN108@ProcessRcv
$LN90@ProcessRcv:

; 1126 : 				}
; 1127 : 
; 1128 : 				//this normally shouldn't happen but is put here in case another Connect request to a different station also on freq...may want to change or eliminate this
; 1129 : 				
; 1130 : 				//if (DebugLog) WriteDebug("[ARDOPprotocol.ProcessRcvdARQFrame] Call to another target while in ProtocolState.IRS, ARQSubStates.IRSConAck...Ignore");
; 1131 : 
; 1132 : 				return;

  004cf	e9 69 10 00 00	 jmp	 $LN108@ProcessRcv
$LN92@ProcessRcv:

; 1133 : 			}
; 1134 :       
; 1135 : 			// ConAck processing from ISS
; 1136 :                 
; 1137 : 			if (intFrameType >= 0x39 && intFrameType <= 0x3C)	// Process ConACK frames from ISS confirming Bandwidth and providing ISS's received leader info.

  004d4	0f b6 45 08	 movzx	 eax, BYTE PTR _intFrameType$[ebp]
  004d8	83 f8 39	 cmp	 eax, 57			; 00000039H
  004db	0f 8c 99 01 00
	00		 jl	 $LN94@ProcessRcv
  004e1	0f b6 45 08	 movzx	 eax, BYTE PTR _intFrameType$[ebp]
  004e5	83 f8 3c	 cmp	 eax, 60			; 0000003cH
  004e8	0f 8f 8c 01 00
	00		 jg	 $LN94@ProcessRcv

; 1138 : 			{
; 1139 : 				// if (DebugLog) Debugprintf(("[ARDOPprotocol.ProcessRcvdARQFrame] IRS Measured RoundTrip = " & intARQRTmeasuredMs.ToString & " ms")
; 1140 :                       
; 1141 : 				switch (intFrameType)

  004ee	0f b6 45 08	 movzx	 eax, BYTE PTR _intFrameType$[ebp]
  004f2	89 85 bc fe ff
	ff		 mov	 DWORD PTR tv228[ebp], eax
  004f8	8b 8d bc fe ff
	ff		 mov	 ecx, DWORD PTR tv228[ebp]
  004fe	83 e9 39	 sub	 ecx, 57			; 00000039H
  00501	89 8d bc fe ff
	ff		 mov	 DWORD PTR tv228[ebp], ecx
  00507	83 bd bc fe ff
	ff 03		 cmp	 DWORD PTR tv228[ebp], 3
  0050e	77 3b		 ja	 SHORT $LN86@ProcessRcv
  00510	8b 95 bc fe ff
	ff		 mov	 edx, DWORD PTR tv228[ebp]
  00516	ff 24 95 00 00
	00 00		 jmp	 DWORD PTR $LN115@ProcessRcv[edx*4]
$LN85@ProcessRcv:

; 1142 : 				{
; 1143 : 				case 0x39:
; 1144 : 					intSessionBW = 200;

  0051d	c7 05 00 00 00
	00 c8 00 00 00	 mov	 DWORD PTR _intSessionBW, 200 ; 000000c8H

; 1145 : 					break;

  00527	eb 22		 jmp	 SHORT $LN86@ProcessRcv
$LN84@ProcessRcv:

; 1146 : 				case 0x3A:
; 1147 : 					intSessionBW = 500;

  00529	c7 05 00 00 00
	00 f4 01 00 00	 mov	 DWORD PTR _intSessionBW, 500 ; 000001f4H

; 1148 : 					break;

  00533	eb 16		 jmp	 SHORT $LN86@ProcessRcv
$LN83@ProcessRcv:

; 1149 : 				case 0x3B:
; 1150 : 					intSessionBW = 1000;

  00535	c7 05 00 00 00
	00 e8 03 00 00	 mov	 DWORD PTR _intSessionBW, 1000 ; 000003e8H

; 1151 : 					break;

  0053f	eb 0a		 jmp	 SHORT $LN86@ProcessRcv
$LN82@ProcessRcv:

; 1152 : 				case 0x3C:
; 1153 : 					intSessionBW = 2000;

  00541	c7 05 00 00 00
	00 d0 07 00 00	 mov	 DWORD PTR _intSessionBW, 2000 ; 000007d0H
$LN86@ProcessRcv:

; 1154 : 					break;
; 1155 : 				}
; 1156 : 					
; 1157 : 				CalculateOptimumLeader(10 * bytData[0], LeaderLength);

  0054b	a1 00 00 00 00	 mov	 eax, DWORD PTR _LeaderLength
  00550	50		 push	 eax
  00551	8b 4d 0c	 mov	 ecx, DWORD PTR _bytData$[ebp]
  00554	0f b6 11	 movzx	 edx, BYTE PTR [ecx]
  00557	6b d2 0a	 imul	 edx, 10			; 0000000aH
  0055a	52		 push	 edx
  0055b	e8 00 00 00 00	 call	 _CalculateOptimumLeader
  00560	83 c4 08	 add	 esp, 8

; 1158 : 
; 1159 : 				bytSessionID = bytPendingSessionID; // This sets the session ID now 

  00563	a0 00 00 00 00	 mov	 al, BYTE PTR _bytPendingSessionID
  00568	a2 00 00 00 00	 mov	 BYTE PTR _bytSessionID, al

; 1160 :                
; 1161 : 				blnARQConnected = TRUE;

  0056d	c7 05 00 00 00
	00 01 00 00 00	 mov	 DWORD PTR _blnARQConnected, 1

; 1162 : 				blnPending = FALSE;

  00577	c7 05 00 00 00
	00 00 00 00 00	 mov	 DWORD PTR _blnPending, 0

; 1163 : 				tmrIRSPendingTimeout = 0;

  00581	c7 05 00 00 00
	00 00 00 00 00	 mov	 DWORD PTR _tmrIRSPendingTimeout, 0

; 1164 : 
; 1165 : 				dttTimeoutTrip = Now;

  0058b	e8 00 00 00 00	 call	 _getTicks
  00590	a3 00 00 00 00	 mov	 DWORD PTR _dttTimeoutTrip, eax

; 1166 : 				ARQState = IRSData;

  00595	c7 05 00 00 00
	00 06 00 00 00	 mov	 DWORD PTR _ARQState, 6

; 1167 : 				intLastARQDataFrameToHost = -1;

  0059f	c7 05 00 00 00
	00 ff ff ff ff	 mov	 DWORD PTR _intLastARQDataFrameToHost, -1

; 1168 : 				intTrackingQuality = -1;

  005a9	c7 05 00 00 00
	00 ff ff ff ff	 mov	 DWORD PTR _intTrackingQuality, -1

; 1169 : 				intNAKctr = 0;

  005b3	c7 05 00 00 00
	00 00 00 00 00	 mov	 DWORD PTR _intNAKctr, 0

; 1170 : 				dttLastFECIDSent = Now;

  005bd	e8 00 00 00 00	 call	 _getTicks
  005c2	a3 00 00 00 00	 mov	 DWORD PTR _dttLastFECIDSent, eax

; 1171 : 
; 1172 : 				blnEnbARQRpt = FALSE;

  005c7	c7 05 00 00 00
	00 00 00 00 00	 mov	 DWORD PTR _blnEnbARQRpt, 0

; 1173 : 				sprintf(HostCmd, "CONNECTED %s %d", strRemoteCallsign, intSessionBW);

  005d1	a1 00 00 00 00	 mov	 eax, DWORD PTR _intSessionBW
  005d6	50		 push	 eax
  005d7	68 00 00 00 00	 push	 OFFSET _strRemoteCallsign
  005dc	68 00 00 00 00	 push	 OFFSET ??_C@_0BA@JAAENANL@CONNECTED?5?$CFs?5?$CFd?$AA@
  005e1	8d 4d 90	 lea	 ecx, DWORD PTR _HostCmd$[ebp]
  005e4	51		 push	 ecx
  005e5	e8 00 00 00 00	 call	 _sprintf
  005ea	83 c4 10	 add	 esp, 16			; 00000010H

; 1174 : 				QueueCommandToHost(HostCmd);

  005ed	8d 45 90	 lea	 eax, DWORD PTR _HostCmd$[ebp]
  005f0	50		 push	 eax
  005f1	e8 00 00 00 00	 call	 _QueueCommandToHost
  005f6	83 c4 04	 add	 esp, 4

; 1175 :  
; 1176 : 				sprintf(HostCmd, "STATUS ARQ CONNECTION FROM %s: SESSION BW = %d HZ", strRemoteCallsign, intSessionBW);

  005f9	a1 00 00 00 00	 mov	 eax, DWORD PTR _intSessionBW
  005fe	50		 push	 eax
  005ff	68 00 00 00 00	 push	 OFFSET _strRemoteCallsign
  00604	68 00 00 00 00	 push	 OFFSET ??_C@_0DC@NMGDPPJO@STATUS?5ARQ?5CONNECTION?5FROM?5?$CFs?3?5S@
  00609	8d 4d 90	 lea	 ecx, DWORD PTR _HostCmd$[ebp]
  0060c	51		 push	 ecx
  0060d	e8 00 00 00 00	 call	 _sprintf
  00612	83 c4 10	 add	 esp, 16			; 00000010H

; 1177 : 				QueueCommandToHost(HostCmd);

  00615	8d 45 90	 lea	 eax, DWORD PTR _HostCmd$[ebp]
  00618	50		 push	 eax
  00619	e8 00 00 00 00	 call	 _QueueCommandToHost
  0061e	83 c4 04	 add	 esp, 4

; 1178 : 
; 1179 : 				EncLen = EncodeDATAACK(intLastRcvdFrameQuality, bytSessionID, bytEncodedBytes); // Send ACK

  00621	68 00 00 00 00	 push	 OFFSET _bytEncodedBytes
  00626	a0 00 00 00 00	 mov	 al, BYTE PTR _bytSessionID
  0062b	50		 push	 eax
  0062c	8b 0d 00 00 00
	00		 mov	 ecx, DWORD PTR _intLastRcvdFrameQuality
  00632	51		 push	 ecx
  00633	e8 00 00 00 00	 call	 _EncodeDATAACK
  00638	83 c4 0c	 add	 esp, 12			; 0000000cH
  0063b	a3 00 00 00 00	 mov	 DWORD PTR _EncLen, eax

; 1180 : 				Mod4FSKDataAndPlay(bytEncodedBytes[0], &bytEncodedBytes[0], EncLen, LeaderLength);		// only returns when all sent

  00640	a1 00 00 00 00	 mov	 eax, DWORD PTR _LeaderLength
  00645	50		 push	 eax
  00646	8b 0d 00 00 00
	00		 mov	 ecx, DWORD PTR _EncLen
  0064c	51		 push	 ecx
  0064d	68 00 00 00 00	 push	 OFFSET _bytEncodedBytes
  00652	0f b6 15 00 00
	00 00		 movzx	 edx, BYTE PTR _bytEncodedBytes
  00659	52		 push	 edx
  0065a	e8 00 00 00 00	 call	 _Mod4FSKDataAndPlay
  0065f	83 c4 10	 add	 esp, 16			; 00000010H

; 1181 : 
; 1182 : 				// Initialize the frame type and pointer based on bandwidth (added 0.3.1.3)
; 1183 : 				
; 1184 : 				GetNextFrameData(&intShiftUpDn, 0, NULL, TRUE);		//' just sets the initial data, frame type, and sets intShiftUpDn= 0

  00662	6a 01		 push	 1
  00664	6a 00		 push	 0
  00666	6a 00		 push	 0
  00668	68 00 00 00 00	 push	 OFFSET _intShiftUpDn
  0066d	e8 00 00 00 00	 call	 _GetNextFrameData
  00672	83 c4 10	 add	 esp, 16			; 00000010H

; 1185 :           
; 1186 : 				//       ' Update the main form menu status lable 
; 1187 :                 //        Dim stcStatus As Status = Nothing
; 1188 :                 //        stcStatus.ControlName = "mnuBusy"
; 1189 :                 //       stcStatus.Text = "Connected " & .strRemoteCallsign
; 1190 :                  //       queTNCStatus.Enqueue(stcStatus)
; 1191 : 
; 1192 : 				return;

  00675	e9 c3 0e 00 00	 jmp	 $LN108@ProcessRcv
$LN94@ProcessRcv:

; 1193 : 			}
; 1194 : 		}
; 1195 : 
; 1196 : 		if (ARQState == IRSData)  // Process Data or ConAck if ISS failed to receive ACK confirming bandwidth so ISS repeated ConAck

  0067a	83 3d 00 00 00
	00 06		 cmp	 DWORD PTR _ARQState, 6
  00681	0f 85 7e 05 00
	00		 jne	 $LN81@ProcessRcv

; 1197 : 		{
; 1198 : 			// ConAck processing from ISS
; 1199 : 
; 1200 : 			if (intFrameType >= 0x39 && intFrameType <= 0x3C)	// Process ConACK frames from ISS confirming Bandwidth and providing ISS's received leader info.

  00687	0f b6 45 08	 movzx	 eax, BYTE PTR _intFrameType$[ebp]
  0068b	83 f8 39	 cmp	 eax, 57			; 00000039H
  0068e	0f 8c ba 00 00
	00		 jl	 $LN80@ProcessRcv
  00694	0f b6 45 08	 movzx	 eax, BYTE PTR _intFrameType$[ebp]
  00698	83 f8 3c	 cmp	 eax, 60			; 0000003cH
  0069b	0f 8f ad 00 00
	00		 jg	 $LN80@ProcessRcv

; 1201 : 			{
; 1202 : 				//  Process ConACK frames (ISS failed to receive prior ACK confirming session bandwidth so repeated ConACK)
; 1203 : 
; 1204 : 				// if (DebugLog) Debugprintf(("[ARDOPprotocol.ProcessRcvdARQFrame] IRS Measured RoundTrip = " & intARQRTmeasuredMs.ToString & " ms")
; 1205 :                       
; 1206 : 				switch (intFrameType)

  006a1	0f b6 45 08	 movzx	 eax, BYTE PTR _intFrameType$[ebp]
  006a5	89 85 bc fe ff
	ff		 mov	 DWORD PTR tv298[ebp], eax
  006ab	8b 8d bc fe ff
	ff		 mov	 ecx, DWORD PTR tv298[ebp]
  006b1	83 e9 39	 sub	 ecx, 57			; 00000039H
  006b4	89 8d bc fe ff
	ff		 mov	 DWORD PTR tv298[ebp], ecx
  006ba	83 bd bc fe ff
	ff 03		 cmp	 DWORD PTR tv298[ebp], 3
  006c1	77 3b		 ja	 SHORT $LN78@ProcessRcv
  006c3	8b 95 bc fe ff
	ff		 mov	 edx, DWORD PTR tv298[ebp]
  006c9	ff 24 95 00 00
	00 00		 jmp	 DWORD PTR $LN116@ProcessRcv[edx*4]
$LN77@ProcessRcv:

; 1207 : 				{
; 1208 : 				case 0x39:
; 1209 : 					intSessionBW = 200;

  006d0	c7 05 00 00 00
	00 c8 00 00 00	 mov	 DWORD PTR _intSessionBW, 200 ; 000000c8H

; 1210 : 					break;

  006da	eb 22		 jmp	 SHORT $LN78@ProcessRcv
$LN76@ProcessRcv:

; 1211 : 				case 0x3A:
; 1212 : 					intSessionBW = 500;

  006dc	c7 05 00 00 00
	00 f4 01 00 00	 mov	 DWORD PTR _intSessionBW, 500 ; 000001f4H

; 1213 : 					break;

  006e6	eb 16		 jmp	 SHORT $LN78@ProcessRcv
$LN75@ProcessRcv:

; 1214 : 				case 0x3B:
; 1215 : 					intSessionBW = 1000;

  006e8	c7 05 00 00 00
	00 e8 03 00 00	 mov	 DWORD PTR _intSessionBW, 1000 ; 000003e8H

; 1216 : 					break;

  006f2	eb 0a		 jmp	 SHORT $LN78@ProcessRcv
$LN74@ProcessRcv:

; 1217 : 				case 0x3C:
; 1218 : 					intSessionBW = 2000;

  006f4	c7 05 00 00 00
	00 d0 07 00 00	 mov	 DWORD PTR _intSessionBW, 2000 ; 000007d0H
$LN78@ProcessRcv:

; 1219 : 					break;
; 1220 : 				}
; 1221 : 
; 1222 : 				dttTimeoutTrip = Now;

  006fe	e8 00 00 00 00	 call	 _getTicks
  00703	a3 00 00 00 00	 mov	 DWORD PTR _dttTimeoutTrip, eax

; 1223 : 
; 1224 : 				EncLen = EncodeDATAACK(intLastRcvdFrameQuality, bytSessionID, bytEncodedBytes); // Send ACK

  00708	68 00 00 00 00	 push	 OFFSET _bytEncodedBytes
  0070d	a0 00 00 00 00	 mov	 al, BYTE PTR _bytSessionID
  00712	50		 push	 eax
  00713	8b 0d 00 00 00
	00		 mov	 ecx, DWORD PTR _intLastRcvdFrameQuality
  00719	51		 push	 ecx
  0071a	e8 00 00 00 00	 call	 _EncodeDATAACK
  0071f	83 c4 0c	 add	 esp, 12			; 0000000cH
  00722	a3 00 00 00 00	 mov	 DWORD PTR _EncLen, eax

; 1225 : 				Mod4FSKDataAndPlay(bytEncodedBytes[0], &bytEncodedBytes[0], EncLen, LeaderLength);		// only returns when all sent

  00727	a1 00 00 00 00	 mov	 eax, DWORD PTR _LeaderLength
  0072c	50		 push	 eax
  0072d	8b 0d 00 00 00
	00		 mov	 ecx, DWORD PTR _EncLen
  00733	51		 push	 ecx
  00734	68 00 00 00 00	 push	 OFFSET _bytEncodedBytes
  00739	0f b6 15 00 00
	00 00		 movzx	 edx, BYTE PTR _bytEncodedBytes
  00740	52		 push	 edx
  00741	e8 00 00 00 00	 call	 _Mod4FSKDataAndPlay
  00746	83 c4 10	 add	 esp, 16			; 00000010H

; 1226 : 				return;

  00749	e9 ef 0d 00 00	 jmp	 $LN108@ProcessRcv
$LN80@ProcessRcv:

; 1227 : 			}
; 1228 : 
; 1229 : 			// handles DISC from ISS
; 1230 : 
; 1231 : 			if (blnFrameDecodedOK && intFrameType == 0x29) //  IF DISC received from ISS Handles protocol rule 1.5

  0074e	83 7d 14 00	 cmp	 DWORD PTR _blnFrameDecodedOK$[ebp], 0
  00752	0f 84 d3 00 00
	00		 je	 $LN73@ProcessRcv
  00758	0f b6 45 08	 movzx	 eax, BYTE PTR _intFrameType$[ebp]
  0075c	83 f8 29	 cmp	 eax, 41			; 00000029H
  0075f	0f 85 c6 00 00
	00		 jne	 $LN73@ProcessRcv

; 1232 : 			{
; 1233 : 				if (DebugLog) Debugprintf("[ARDOPprotocol.ProcessRcvdARQFrame]  DISC frame received in ProtocolState IRS, IRSData...going to DISC state");

  00765	83 3d 00 00 00
	00 00		 cmp	 DWORD PTR _DebugLog, 0
  0076c	74 0d		 je	 SHORT $LN72@ProcessRcv
  0076e	68 00 00 00 00	 push	 OFFSET ??_C@_0GN@DFDOCLEK@?$FLARDOPprotocol?4ProcessRcvdARQFra@
  00773	e8 00 00 00 00	 call	 _Debugprintf
  00778	83 c4 04	 add	 esp, 4
$LN72@ProcessRcv:

; 1234 :                  //       If MCB.AccumulateStats Then LogStats()
; 1235 : 				
; 1236 : 				QueueCommandToHost("DISCONNECTED");		// Send END

  0077b	68 00 00 00 00	 push	 OFFSET ??_C@_0N@HLEBDOBD@DISCONNECTED?$AA@
  00780	e8 00 00 00 00	 call	 _QueueCommandToHost
  00785	83 c4 04	 add	 esp, 4

; 1237 : 				sprintf(HostCmd, "STATUS ARQ CONNECTION ENDED WITH %s", strRemoteCallsign);

  00788	68 00 00 00 00	 push	 OFFSET _strRemoteCallsign
  0078d	68 00 00 00 00	 push	 OFFSET ??_C@_0CE@KGIEGGGH@STATUS?5ARQ?5CONNECTION?5ENDED?5WITH@
  00792	8d 45 90	 lea	 eax, DWORD PTR _HostCmd$[ebp]
  00795	50		 push	 eax
  00796	e8 00 00 00 00	 call	 _sprintf
  0079b	83 c4 0c	 add	 esp, 12			; 0000000cH

; 1238 : 				QueueCommandToHost(HostCmd);

  0079e	8d 45 90	 lea	 eax, DWORD PTR _HostCmd$[ebp]
  007a1	50		 push	 eax
  007a2	e8 00 00 00 00	 call	 _QueueCommandToHost
  007a7	83 c4 04	 add	 esp, 4

; 1239 : 				
; 1240 : 				bytLastARQSessionID = bytSessionID;  // capture this session ID to allow answering DISC from DISC state if ISS missed Sent END

  007aa	a0 00 00 00 00	 mov	 al, BYTE PTR _bytSessionID
  007af	a2 00 00 00 00	 mov	 BYTE PTR _bytLastARQSessionID, al

; 1241 :                        
; 1242 : 				ClearDataToSend();

  007b4	e8 00 00 00 00	 call	 _ClearDataToSend

; 1243 : 				tmrFinalID = 500;

  007b9	c7 05 00 00 00
	00 f4 01 00 00	 mov	 DWORD PTR _tmrFinalID, 500 ; 000001f4H

; 1244 : 				blnDISCRepeating = FALSE;

  007c3	c7 05 00 00 00
	00 00 00 00 00	 mov	 DWORD PTR _blnDISCRepeating, 0

; 1245 : 				
; 1246 : 				SetARDOPProtocolState(DISC);

  007cd	6a 01		 push	 1
  007cf	e8 00 00 00 00	 call	 _SetARDOPProtocolState
  007d4	83 c4 04	 add	 esp, 4

; 1247 :                 InitializeConnection();

  007d7	e8 00 00 00 00	 call	 _InitializeConnection

; 1248 : 				blnEnbARQRpt = FALSE;

  007dc	c7 05 00 00 00
	00 00 00 00 00	 mov	 DWORD PTR _blnEnbARQRpt, 0

; 1249 : 
; 1250 : 				bytLastARQSessionID = bytSessionID;  // capture this session ID to allow answering DISC from DISC state if ISS missed Sent END

  007e6	a0 00 00 00 00	 mov	 al, BYTE PTR _bytSessionID
  007eb	a2 00 00 00 00	 mov	 BYTE PTR _bytLastARQSessionID, al

; 1251 : 
; 1252 : 				EncLen = Encode4FSKControl(0x2C, bytSessionID, bytEncodedBytes);

  007f0	68 00 00 00 00	 push	 OFFSET _bytEncodedBytes
  007f5	a0 00 00 00 00	 mov	 al, BYTE PTR _bytSessionID
  007fa	50		 push	 eax
  007fb	6a 2c		 push	 44			; 0000002cH
  007fd	e8 00 00 00 00	 call	 _Encode4FSKControl
  00802	83 c4 0c	 add	 esp, 12			; 0000000cH
  00805	a3 00 00 00 00	 mov	 DWORD PTR _EncLen, eax

; 1253 : 				Mod4FSKDataAndPlay(0x2C, &bytEncodedBytes[0], EncLen, LeaderLength);		// only returns when all sent

  0080a	a1 00 00 00 00	 mov	 eax, DWORD PTR _LeaderLength
  0080f	50		 push	 eax
  00810	8b 0d 00 00 00
	00		 mov	 ecx, DWORD PTR _EncLen
  00816	51		 push	 ecx
  00817	68 00 00 00 00	 push	 OFFSET _bytEncodedBytes
  0081c	6a 2c		 push	 44			; 0000002cH
  0081e	e8 00 00 00 00	 call	 _Mod4FSKDataAndPlay
  00823	83 c4 10	 add	 esp, 16			; 00000010H

; 1254 : 				return;

  00826	e9 12 0d 00 00	 jmp	 $LN108@ProcessRcv
$LN73@ProcessRcv:

; 1255 : 			}
; 1256 : 			
; 1257 : 			// handles END from ISS
; 1258 : 			
; 1259 : 			if (blnFrameDecodedOK && intFrameType == END) //  IF END received from ISS 

  0082b	83 7d 14 00	 cmp	 DWORD PTR _blnFrameDecodedOK$[ebp], 0
  0082f	0f 84 c9 00 00
	00		 je	 $LN71@ProcessRcv
  00835	0f b6 45 08	 movzx	 eax, BYTE PTR _intFrameType$[ebp]
  00839	83 f8 2c	 cmp	 eax, 44			; 0000002cH
  0083c	0f 85 bc 00 00
	00		 jne	 $LN71@ProcessRcv

; 1260 : 			{
; 1261 : 				if (DebugLog) Debugprintf("[ARDOPprotocol.ProcessRcvdARQFrame]  END frame received in ProtocolState IRS, IRSData...going to DISC state");

  00842	83 3d 00 00 00
	00 00		 cmp	 DWORD PTR _DebugLog, 0
  00849	74 0d		 je	 SHORT $LN70@ProcessRcv
  0084b	68 00 00 00 00	 push	 OFFSET ??_C@_0GM@LICJIEAP@?$FLARDOPprotocol?4ProcessRcvdARQFra@
  00850	e8 00 00 00 00	 call	 _Debugprintf
  00855	83 c4 04	 add	 esp, 4
$LN70@ProcessRcv:

; 1262 : 				//If MCB.AccumulateStats Then LogStats()
; 1263 : 				
; 1264 : 				QueueCommandToHost("DISCONNECTED");

  00858	68 00 00 00 00	 push	 OFFSET ??_C@_0N@HLEBDOBD@DISCONNECTED?$AA@
  0085d	e8 00 00 00 00	 call	 _QueueCommandToHost
  00862	83 c4 04	 add	 esp, 4

; 1265 : 				sprintf(HostCmd, "STATUS ARQ CONNECTION ENDED WITH %s", strRemoteCallsign);

  00865	68 00 00 00 00	 push	 OFFSET _strRemoteCallsign
  0086a	68 00 00 00 00	 push	 OFFSET ??_C@_0CE@KGIEGGGH@STATUS?5ARQ?5CONNECTION?5ENDED?5WITH@
  0086f	8d 45 90	 lea	 eax, DWORD PTR _HostCmd$[ebp]
  00872	50		 push	 eax
  00873	e8 00 00 00 00	 call	 _sprintf
  00878	83 c4 0c	 add	 esp, 12			; 0000000cH

; 1266 : 				QueueCommandToHost(HostCmd);

  0087b	8d 45 90	 lea	 eax, DWORD PTR _HostCmd$[ebp]
  0087e	50		 push	 eax
  0087f	e8 00 00 00 00	 call	 _QueueCommandToHost
  00884	83 c4 04	 add	 esp, 4

; 1267 : 				blnDISCRepeating = FALSE;

  00887	c7 05 00 00 00
	00 00 00 00 00	 mov	 DWORD PTR _blnDISCRepeating, 0

; 1268 : 				ClearDataToSend();

  00891	e8 00 00 00 00	 call	 _ClearDataToSend

; 1269 : 
; 1270 : 				SetARDOPProtocolState(DISC);

  00896	6a 01		 push	 1
  00898	e8 00 00 00 00	 call	 _SetARDOPProtocolState
  0089d	83 c4 04	 add	 esp, 4

; 1271 : 				InitializeConnection();

  008a0	e8 00 00 00 00	 call	 _InitializeConnection

; 1272 : 				blnEnbARQRpt = FALSE;

  008a5	c7 05 00 00 00
	00 00 00 00 00	 mov	 DWORD PTR _blnEnbARQRpt, 0

; 1273 : 
; 1274 : 				if (CheckValidCallsignSyntax(strLocalCallsign))

  008af	68 00 00 00 00	 push	 OFFSET _strLocalCallsign
  008b4	e8 00 00 00 00	 call	 _CheckValidCallsignSyntax
  008b9	83 c4 04	 add	 esp, 4
  008bc	85 c0		 test	 eax, eax
  008be	74 39		 je	 SHORT $LN69@ProcessRcv

; 1275 : 				{
; 1276 : 					dttLastFECIDSent = Now;

  008c0	e8 00 00 00 00	 call	 _getTicks
  008c5	a3 00 00 00 00	 mov	 DWORD PTR _dttLastFECIDSent, eax

; 1277 : 					EncLen = Encode4FSKIDFrame(strLocalCallsign, GridSquare, bytEncodedBytes);

  008ca	68 00 00 00 00	 push	 OFFSET _bytEncodedBytes
  008cf	68 00 00 00 00	 push	 OFFSET _GridSquare
  008d4	68 00 00 00 00	 push	 OFFSET _strLocalCallsign
  008d9	e8 00 00 00 00	 call	 _Encode4FSKIDFrame
  008de	83 c4 0c	 add	 esp, 12			; 0000000cH
  008e1	a3 00 00 00 00	 mov	 DWORD PTR _EncLen, eax

; 1278 : 					Mod4FSKDataAndPlay(0x30, &bytEncodedBytes[0], 16, 0);		// only returns when all sent

  008e6	6a 00		 push	 0
  008e8	6a 10		 push	 16			; 00000010H
  008ea	68 00 00 00 00	 push	 OFFSET _bytEncodedBytes
  008ef	6a 30		 push	 48			; 00000030H
  008f1	e8 00 00 00 00	 call	 _Mod4FSKDataAndPlay
  008f6	83 c4 10	 add	 esp, 16			; 00000010H
$LN69@ProcessRcv:

; 1279 : 				}
; 1280 : 				
; 1281 : 
; 1282 : 				return;

  008f9	e9 3f 0c 00 00	 jmp	 $LN108@ProcessRcv
$LN71@ProcessRcv:

; 1283 : 			}
; 1284 : 
; 1285 : 			// handles DISCONNECT command from host
; 1286 : 			
; 1287 : 			if (CheckForDisconnect())

  008fe	e8 00 00 00 00	 call	 _CheckForDisconnect
  00903	85 c0		 test	 eax, eax
  00905	74 05		 je	 SHORT $LN68@ProcessRcv

; 1288 : 				return;

  00907	e9 31 0c 00 00	 jmp	 $LN108@ProcessRcv
$LN68@ProcessRcv:

; 1289 : 
; 1290 : 			// This handles normal data frames
; 1291 : 
; 1292 : 			if (blnFrameDecodedOK && IsDataFrame(intFrameType)) // Frame even/odd toggling will prevent duplicates in case of missed ACK

  0090c	83 7d 14 00	 cmp	 DWORD PTR _blnFrameDecodedOK$[ebp], 0
  00910	0f 84 c7 00 00
	00		 je	 $LN67@ProcessRcv
  00916	8a 45 08	 mov	 al, BYTE PTR _intFrameType$[ebp]
  00919	50		 push	 eax
  0091a	e8 00 00 00 00	 call	 _IsDataFrame
  0091f	83 c4 04	 add	 esp, 4
  00922	85 c0		 test	 eax, eax
  00924	0f 84 b3 00 00
	00		 je	 $LN67@ProcessRcv

; 1293 : 			{
; 1294 : 				if (intRmtLeaderMeas == 0)

  0092a	83 3d 00 00 00
	00 00		 cmp	 DWORD PTR _intRmtLeaderMeas, 0
  00931	75 26		 jne	 SHORT $LN66@ProcessRcv

; 1295 : 				{
; 1296 : 					intRmtLeaderMeas = intRmtLeaderMeasure;  // capture the leader timing of the first ACK from IRS, use this value to help compute repeat interval. 

  00933	a1 00 00 00 00	 mov	 eax, DWORD PTR _intRmtLeaderMeasure
  00938	a3 00 00 00 00	 mov	 DWORD PTR _intRmtLeaderMeas, eax

; 1297 : 					if (DebugLog) Debugprintf("[ARDOPprotocol.ProcessRcvdARQFrame] IRS (receiving data) RmtLeaderMeas=%d ms", intRmtLeaderMeas);

  0093d	83 3d 00 00 00
	00 00		 cmp	 DWORD PTR _DebugLog, 0
  00944	74 13		 je	 SHORT $LN66@ProcessRcv
  00946	a1 00 00 00 00	 mov	 eax, DWORD PTR _intRmtLeaderMeas
  0094b	50		 push	 eax
  0094c	68 00 00 00 00	 push	 OFFSET ??_C@_0EN@DGBJCBFE@?$FLARDOPprotocol?4ProcessRcvdARQFra@
  00951	e8 00 00 00 00	 call	 _Debugprintf
  00956	83 c4 08	 add	 esp, 8
$LN66@ProcessRcv:

; 1298 : 				}
; 1299 : 
; 1300 : 				if (intFrameType != intLastARQDataFrameToHost) // protects against duplicates if ISS missed IRS's ACK and repeated the same frame  

  00959	0f b6 45 08	 movzx	 eax, BYTE PTR _intFrameType$[ebp]
  0095d	3b 05 00 00 00
	00		 cmp	 eax, DWORD PTR _intLastARQDataFrameToHost
  00963	74 28		 je	 SHORT $LN64@ProcessRcv

; 1301 : 				{
; 1302 : 					AddTagToDataAndSendToHost(bytData, "ARQ", DataLen); // only correct data in proper squence passed to host   

  00965	8b 45 10	 mov	 eax, DWORD PTR _DataLen$[ebp]
  00968	50		 push	 eax
  00969	68 00 00 00 00	 push	 OFFSET ??_C@_03DBILIJHA@ARQ?$AA@
  0096e	8b 4d 0c	 mov	 ecx, DWORD PTR _bytData$[ebp]
  00971	51		 push	 ecx
  00972	e8 00 00 00 00	 call	 _AddTagToDataAndSendToHost
  00977	83 c4 0c	 add	 esp, 12			; 0000000cH

; 1303 : 					intLastARQDataFrameToHost = intFrameType;						dttTimeoutTrip = Now;

  0097a	0f b6 45 08	 movzx	 eax, BYTE PTR _intFrameType$[ebp]
  0097e	a3 00 00 00 00	 mov	 DWORD PTR _intLastARQDataFrameToHost, eax
  00983	e8 00 00 00 00	 call	 _getTicks
  00988	a3 00 00 00 00	 mov	 DWORD PTR _dttTimeoutTrip, eax
$LN64@ProcessRcv:

; 1304 : 				}
; 1305 : 					
; 1306 : 				// Always ACK if it is a data frame ...ISS may have missed last ACK
; 1307 : 
; 1308 : 				blnEnbARQRpt = FALSE;

  0098d	c7 05 00 00 00
	00 00 00 00 00	 mov	 DWORD PTR _blnEnbARQRpt, 0

; 1309 : 				EncLen = EncodeDATAACK(intLastRcvdFrameQuality, bytSessionID, bytEncodedBytes); // Send ACK

  00997	68 00 00 00 00	 push	 OFFSET _bytEncodedBytes
  0099c	a0 00 00 00 00	 mov	 al, BYTE PTR _bytSessionID
  009a1	50		 push	 eax
  009a2	8b 0d 00 00 00
	00		 mov	 ecx, DWORD PTR _intLastRcvdFrameQuality
  009a8	51		 push	 ecx
  009a9	e8 00 00 00 00	 call	 _EncodeDATAACK
  009ae	83 c4 0c	 add	 esp, 12			; 0000000cH
  009b1	a3 00 00 00 00	 mov	 DWORD PTR _EncLen, eax

; 1310 : 				Mod4FSKDataAndPlay(bytEncodedBytes[0], &bytEncodedBytes[0], EncLen, LeaderLength);		// only returns when all sent

  009b6	a1 00 00 00 00	 mov	 eax, DWORD PTR _LeaderLength
  009bb	50		 push	 eax
  009bc	8b 0d 00 00 00
	00		 mov	 ecx, DWORD PTR _EncLen
  009c2	51		 push	 ecx
  009c3	68 00 00 00 00	 push	 OFFSET _bytEncodedBytes
  009c8	0f b6 15 00 00
	00 00		 movzx	 edx, BYTE PTR _bytEncodedBytes
  009cf	52		 push	 edx
  009d0	e8 00 00 00 00	 call	 _Mod4FSKDataAndPlay
  009d5	83 c4 10	 add	 esp, 16			; 00000010H

; 1311 : 				return;

  009d8	e9 60 0b 00 00	 jmp	 $LN108@ProcessRcv
$LN67@ProcessRcv:

; 1312 : 			}
; 1313 : 
; 1314 : 			// handles IDLE from ISS
; 1315 : 
; 1316 : 			if (blnFrameDecodedOK && intFrameType == IDLEFRAME)  //  IF IDLE received from ISS indicating ISS has no more data to send

  009dd	83 7d 14 00	 cmp	 DWORD PTR _blnFrameDecodedOK$[ebp], 0
  009e1	0f 84 f8 00 00
	00		 je	 $LN63@ProcessRcv
  009e7	0f b6 45 08	 movzx	 eax, BYTE PTR _intFrameType$[ebp]
  009eb	83 f8 26	 cmp	 eax, 38			; 00000026H
  009ee	0f 85 eb 00 00
	00		 jne	 $LN63@ProcessRcv

; 1317 : 			{
; 1318 : 				if (intRmtLeaderMeas == 0)

  009f4	83 3d 00 00 00
	00 00		 cmp	 DWORD PTR _intRmtLeaderMeas, 0
  009fb	75 26		 jne	 SHORT $LN62@ProcessRcv

; 1319 : 				{
; 1320 : 					intRmtLeaderMeas = intRmtLeaderMeasure; // capture the leader timing of the first ACK from IRS, use this value to help compute repeat interval. 

  009fd	a1 00 00 00 00	 mov	 eax, DWORD PTR _intRmtLeaderMeasure
  00a02	a3 00 00 00 00	 mov	 DWORD PTR _intRmtLeaderMeas, eax

; 1321 : 
; 1322 : 					if (DebugLog) Debugprintf("[ARDOPprotocol.ProcessRcvdARQFrame] IRS (receiving IDLE) RmtLeaderMeas=%d ms", intRmtLeaderMeas);

  00a07	83 3d 00 00 00
	00 00		 cmp	 DWORD PTR _DebugLog, 0
  00a0e	74 13		 je	 SHORT $LN62@ProcessRcv
  00a10	a1 00 00 00 00	 mov	 eax, DWORD PTR _intRmtLeaderMeas
  00a15	50		 push	 eax
  00a16	68 00 00 00 00	 push	 OFFSET ??_C@_0EN@JOHNAIML@?$FLARDOPprotocol?4ProcessRcvdARQFra@
  00a1b	e8 00 00 00 00	 call	 _Debugprintf
  00a20	83 c4 08	 add	 esp, 8
$LN62@ProcessRcv:

; 1323 : 				}
; 1324 : 				
; 1325 : 				if (bytDataToSendLength == 0)  // no data pending at IRS so send ACK

  00a23	83 3d 00 00 00
	00 00		 cmp	 DWORD PTR _bytDataToSendLength, 0
  00a2a	75 50		 jne	 SHORT $LN60@ProcessRcv

; 1326 : 				{
; 1327 : 					blnEnbARQRpt = FALSE;

  00a2c	c7 05 00 00 00
	00 00 00 00 00	 mov	 DWORD PTR _blnEnbARQRpt, 0

; 1328 : 					EncLen = EncodeDATAACK(intLastRcvdFrameQuality, bytSessionID, bytEncodedBytes); // Send ACK

  00a36	68 00 00 00 00	 push	 OFFSET _bytEncodedBytes
  00a3b	a0 00 00 00 00	 mov	 al, BYTE PTR _bytSessionID
  00a40	50		 push	 eax
  00a41	8b 0d 00 00 00
	00		 mov	 ecx, DWORD PTR _intLastRcvdFrameQuality
  00a47	51		 push	 ecx
  00a48	e8 00 00 00 00	 call	 _EncodeDATAACK
  00a4d	83 c4 0c	 add	 esp, 12			; 0000000cH
  00a50	a3 00 00 00 00	 mov	 DWORD PTR _EncLen, eax

; 1329 : 					Mod4FSKDataAndPlay(bytEncodedBytes[0], &bytEncodedBytes[0], EncLen, LeaderLength);		// only returns when all sent

  00a55	a1 00 00 00 00	 mov	 eax, DWORD PTR _LeaderLength
  00a5a	50		 push	 eax
  00a5b	8b 0d 00 00 00
	00		 mov	 ecx, DWORD PTR _EncLen
  00a61	51		 push	 ecx
  00a62	68 00 00 00 00	 push	 OFFSET _bytEncodedBytes
  00a67	0f b6 15 00 00
	00 00		 movzx	 edx, BYTE PTR _bytEncodedBytes
  00a6e	52		 push	 edx
  00a6f	e8 00 00 00 00	 call	 _Mod4FSKDataAndPlay
  00a74	83 c4 10	 add	 esp, 16			; 00000010H

; 1330 :                     //blnIRSBreakSent = FALSE
; 1331 : 					return;

  00a77	e9 c1 0a 00 00	 jmp	 $LN108@ProcessRcv
$LN60@ProcessRcv:

; 1332 : 				}
; 1333 : 
; 1334 :                 // Data pending so send BREAK
; 1335 :                 //  This implements the tricky and important IRS>ISS changeover...may have to adjust parameters here for reliability 
; 1336 :                 
; 1337 : 				dttTimeoutTrip = Now;

  00a7c	e8 00 00 00 00	 call	 _getTicks
  00a81	a3 00 00 00 00	 mov	 DWORD PTR _dttTimeoutTrip, eax

; 1338 : 				intFrameRepeatInterval = 2500; // !! Not ure why, but often ISS doesn't get the BREAK'keep IDLE/BREAK Repeats fairly long

  00a86	c7 05 00 00 00
	00 c4 09 00 00	 mov	 DWORD PTR _intFrameRepeatInterval, 2500 ; 000009c4H

; 1339 : 				ARQState = IRSBreak;   //(ONLY IRS State where repeats are used)

  00a90	c7 05 00 00 00
	00 07 00 00 00	 mov	 DWORD PTR _ARQState, 7

; 1340 : 				blnEnbARQRpt = TRUE;// setup for repeats until changeover 

  00a9a	c7 05 00 00 00
	00 01 00 00 00	 mov	 DWORD PTR _blnEnbARQRpt, 1

; 1341 : 
; 1342 : 				EncLen = Encode4FSKControl(BREAK, bytSessionID, bytEncodedBytes);

  00aa4	68 00 00 00 00	 push	 OFFSET _bytEncodedBytes
  00aa9	a0 00 00 00 00	 mov	 al, BYTE PTR _bytSessionID
  00aae	50		 push	 eax
  00aaf	6a 23		 push	 35			; 00000023H
  00ab1	e8 00 00 00 00	 call	 _Encode4FSKControl
  00ab6	83 c4 0c	 add	 esp, 12			; 0000000cH
  00ab9	a3 00 00 00 00	 mov	 DWORD PTR _EncLen, eax

; 1343 : 				Mod4FSKDataAndPlay(BREAK, &bytEncodedBytes[0], EncLen, LeaderLength);		// only returns when all sent

  00abe	a1 00 00 00 00	 mov	 eax, DWORD PTR _LeaderLength
  00ac3	50		 push	 eax
  00ac4	8b 0d 00 00 00
	00		 mov	 ecx, DWORD PTR _EncLen
  00aca	51		 push	 ecx
  00acb	68 00 00 00 00	 push	 OFFSET _bytEncodedBytes
  00ad0	6a 23		 push	 35			; 00000023H
  00ad2	e8 00 00 00 00	 call	 _Mod4FSKDataAndPlay
  00ad7	83 c4 10	 add	 esp, 16			; 00000010H

; 1344 : 
; 1345 :                 return;

  00ada	e9 5e 0a 00 00	 jmp	 $LN108@ProcessRcv
$LN63@ProcessRcv:

; 1346 : 			}
; 1347 : 			
; 1348 : 			// This handles the final transition from IRS to ISS
; 1349 : 
; 1350 : 			if (blnFrameDecodedOK && intFrameType == BREAK) //if BREAK (Can only come from the ISS that has now transitioned to IRS)

  00adf	83 7d 14 00	 cmp	 DWORD PTR _blnFrameDecodedOK$[ebp], 0
  00ae3	74 6a		 je	 SHORT $LN59@ProcessRcv
  00ae5	0f b6 45 08	 movzx	 eax, BYTE PTR _intFrameType$[ebp]
  00ae9	83 f8 23	 cmp	 eax, 35			; 00000023H
  00aec	75 61		 jne	 SHORT $LN59@ProcessRcv

; 1351 : 			{
; 1352 : 				if (DebugLog) Debugprintf("[ARDOPprotocol.ProcessRcvdARQFrame] BREAK Rcvd in IRS ARQState IRSData... indicates remote side has transitioned to IRS");

  00aee	83 3d 00 00 00
	00 00		 cmp	 DWORD PTR _DebugLog, 0
  00af5	74 0d		 je	 SHORT $LN58@ProcessRcv
  00af7	68 00 00 00 00	 push	 OFFSET ??_C@_0HI@IBHLALHE@?$FLARDOPprotocol?4ProcessRcvdARQFra@
  00afc	e8 00 00 00 00	 call	 _Debugprintf
  00b01	83 c4 04	 add	 esp, 4
$LN58@ProcessRcv:

; 1353 :            
; 1354 : 	   			blnEnbARQRpt = FALSE;

  00b04	c7 05 00 00 00
	00 00 00 00 00	 mov	 DWORD PTR _blnEnbARQRpt, 0

; 1355 : 
; 1356 : 				EncLen = EncodeDATAACK(100, bytSessionID, bytEncodedBytes); // Send ACK

  00b0e	68 00 00 00 00	 push	 OFFSET _bytEncodedBytes
  00b13	a0 00 00 00 00	 mov	 al, BYTE PTR _bytSessionID
  00b18	50		 push	 eax
  00b19	6a 64		 push	 100			; 00000064H
  00b1b	e8 00 00 00 00	 call	 _EncodeDATAACK
  00b20	83 c4 0c	 add	 esp, 12			; 0000000cH
  00b23	a3 00 00 00 00	 mov	 DWORD PTR _EncLen, eax

; 1357 : 				Mod4FSKDataAndPlay(bytEncodedBytes[0], &bytEncodedBytes[0], EncLen, LeaderLength);		// only returns when all sent

  00b28	a1 00 00 00 00	 mov	 eax, DWORD PTR _LeaderLength
  00b2d	50		 push	 eax
  00b2e	8b 0d 00 00 00
	00		 mov	 ecx, DWORD PTR _EncLen
  00b34	51		 push	 ecx
  00b35	68 00 00 00 00	 push	 OFFSET _bytEncodedBytes
  00b3a	0f b6 15 00 00
	00 00		 movzx	 edx, BYTE PTR _bytEncodedBytes
  00b41	52		 push	 edx
  00b42	e8 00 00 00 00	 call	 _Mod4FSKDataAndPlay
  00b47	83 c4 10	 add	 esp, 16			; 00000010H

; 1358 : 
; 1359 : 				return;

  00b4a	e9 ee 09 00 00	 jmp	 $LN108@ProcessRcv
$LN59@ProcessRcv:

; 1360 : 			}
; 1361 : 			
; 1362 : 			//handles Data frame which did not decode correctly (Failed CRC)
; 1363 : 			
; 1364 : 			if (!blnFrameDecodedOK && IsDataFrame(intFrameType))	// 'Incorrectly decoded frame. Send NAK with Quality

  00b4f	83 7d 14 00	 cmp	 DWORD PTR _blnFrameDecodedOK$[ebp], 0
  00b53	0f 85 a7 00 00
	00		 jne	 $LN57@ProcessRcv
  00b59	8a 45 08	 mov	 al, BYTE PTR _intFrameType$[ebp]
  00b5c	50		 push	 eax
  00b5d	e8 00 00 00 00	 call	 _IsDataFrame
  00b62	83 c4 04	 add	 esp, 4
  00b65	85 c0		 test	 eax, eax
  00b67	0f 84 93 00 00
	00		 je	 $LN57@ProcessRcv

; 1365 : 			{
; 1366 : 				// But what about if we previously acked it, and this is a repeat ????
; 1367 : 
; 1368 : 				if (intFrameType == intLastARQDataFrameToHost) 	

  00b6d	0f b6 45 08	 movzx	 eax, BYTE PTR _intFrameType$[ebp]
  00b71	3b 05 00 00 00
	00		 cmp	 eax, DWORD PTR _intLastARQDataFrameToHost
  00b77	75 37		 jne	 SHORT $LN56@ProcessRcv

; 1369 : 				{	
; 1370 : 					// protects against duplicates if ISS missed IRS's ACK and repeated the same frame,
; 1371 : 					// and this time we NAK it
; 1372 : 
; 1373 : 					EncLen = EncodeDATAACK(intLastRcvdFrameQuality, bytSessionID, bytEncodedBytes); // Send NAK

  00b79	68 00 00 00 00	 push	 OFFSET _bytEncodedBytes
  00b7e	a0 00 00 00 00	 mov	 al, BYTE PTR _bytSessionID
  00b83	50		 push	 eax
  00b84	8b 0d 00 00 00
	00		 mov	 ecx, DWORD PTR _intLastRcvdFrameQuality
  00b8a	51		 push	 ecx
  00b8b	e8 00 00 00 00	 call	 _EncodeDATAACK
  00b90	83 c4 0c	 add	 esp, 12			; 0000000cH
  00b93	a3 00 00 00 00	 mov	 DWORD PTR _EncLen, eax

; 1374 : 				
; 1375 : 					if (DebugLog) Debugprintf("[ARDOPprotocol.ProcessRcvdARQFrame] Bad frame but a repeat so ACK");

  00b98	83 3d 00 00 00
	00 00		 cmp	 DWORD PTR _DebugLog, 0
  00b9f	74 0d		 je	 SHORT $LN55@ProcessRcv
  00ba1	68 00 00 00 00	 push	 OFFSET ??_C@_0EC@NEBJIFOJ@?$FLARDOPprotocol?4ProcessRcvdARQFra@
  00ba6	e8 00 00 00 00	 call	 _Debugprintf
  00bab	83 c4 04	 add	 esp, 4
$LN55@ProcessRcv:

; 1376 : 				}
; 1377 : 				else

  00bae	eb 1f		 jmp	 SHORT $LN54@ProcessRcv
$LN56@ProcessRcv:

; 1378 : 					EncLen = EncodeDATANAK(intLastRcvdFrameQuality, bytSessionID, bytEncodedBytes); // Send NAK

  00bb0	68 00 00 00 00	 push	 OFFSET _bytEncodedBytes
  00bb5	a0 00 00 00 00	 mov	 al, BYTE PTR _bytSessionID
  00bba	50		 push	 eax
  00bbb	8b 0d 00 00 00
	00		 mov	 ecx, DWORD PTR _intLastRcvdFrameQuality
  00bc1	51		 push	 ecx
  00bc2	e8 00 00 00 00	 call	 _EncodeDATANAK
  00bc7	83 c4 0c	 add	 esp, 12			; 0000000cH
  00bca	a3 00 00 00 00	 mov	 DWORD PTR _EncLen, eax
$LN54@ProcessRcv:

; 1379 : 
; 1380 : 				blnEnbARQRpt = FALSE;

  00bcf	c7 05 00 00 00
	00 00 00 00 00	 mov	 DWORD PTR _blnEnbARQRpt, 0

; 1381 : 
; 1382 : 				Mod4FSKDataAndPlay(bytEncodedBytes[0], &bytEncodedBytes[0], EncLen, LeaderLength);

  00bd9	a1 00 00 00 00	 mov	 eax, DWORD PTR _LeaderLength
  00bde	50		 push	 eax
  00bdf	8b 0d 00 00 00
	00		 mov	 ecx, DWORD PTR _EncLen
  00be5	51		 push	 ecx
  00be6	68 00 00 00 00	 push	 OFFSET _bytEncodedBytes
  00beb	0f b6 15 00 00
	00 00		 movzx	 edx, BYTE PTR _bytEncodedBytes
  00bf2	52		 push	 edx
  00bf3	e8 00 00 00 00	 call	 _Mod4FSKDataAndPlay
  00bf8	83 c4 10	 add	 esp, 16			; 00000010H

; 1383 : 				return;

  00bfb	e9 3d 09 00 00	 jmp	 $LN108@ProcessRcv
$LN57@ProcessRcv:

; 1384 : 			}
; 1385 : 			return;   // can we get here ??

  00c00	e9 38 09 00 00	 jmp	 $LN108@ProcessRcv
$LN81@ProcessRcv:

; 1386 : 		} 
; 1387 : 		if( ARQState == IRSBreak)

  00c05	83 3d 00 00 00
	00 07		 cmp	 DWORD PTR _ARQState, 7
  00c0c	0f 85 bc 00 00
	00		 jne	 $LN47@ProcessRcv

; 1388 : 		{
; 1389 : 			if (blnFrameDecodedOK && intFrameType >= 0xE0)		// ' If ACK

  00c12	83 7d 14 00	 cmp	 DWORD PTR _blnFrameDecodedOK$[ebp], 0
  00c16	0f 84 ad 00 00
	00		 je	 $LN52@ProcessRcv
  00c1c	0f b6 45 08	 movzx	 eax, BYTE PTR _intFrameType$[ebp]
  00c20	3d e0 00 00 00	 cmp	 eax, 224		; 000000e0H
  00c25	0f 8c 9e 00 00
	00		 jl	 $LN52@ProcessRcv

; 1390 : 			{
; 1391 : 				// ACK received while in IRSBreak state completes transition to ISS
; 1392 : 
; 1393 : 				blnEnbARQRpt = FALSE;	 // stops repeat and force new data frame or IDLE

  00c2b	c7 05 00 00 00
	00 00 00 00 00	 mov	 DWORD PTR _blnEnbARQRpt, 0

; 1394 : 
; 1395 : 				intLastARQDataFrameToHost = -1; // initialize to illegal value to capture first new ISS frame and pass to host

  00c35	c7 05 00 00 00
	00 ff ff ff ff	 mov	 DWORD PTR _intLastARQDataFrameToHost, -1

; 1396 : 				
; 1397 : 				if (bytCurrentFrameType == 0)	 //' hasn't been initialized yet

  00c3f	0f b6 05 00 00
	00 00		 movzx	 eax, BYTE PTR _bytCurrentFrameType
  00c46	85 c0		 test	 eax, eax
  00c48	75 13		 jne	 SHORT $LN51@ProcessRcv

; 1398 : 				{
; 1399 : 					//' Initialize the frame type based on bandwidth
; 1400 : 
; 1401 : 					GetNextFrameData(&intShiftUpDn, 0, NULL, TRUE); // just sets the initial data, frame type, and sets intShiftUpDn= 0

  00c4a	6a 01		 push	 1
  00c4c	6a 00		 push	 0
  00c4e	6a 00		 push	 0
  00c50	68 00 00 00 00	 push	 OFFSET _intShiftUpDn
  00c55	e8 00 00 00 00	 call	 _GetNextFrameData
  00c5a	83 c4 10	 add	 esp, 16			; 00000010H
$LN51@ProcessRcv:

; 1402 : 				}
; 1403 : 				if (bytDataToSendLength > 0)

  00c5d	83 3d 00 00 00
	00 00		 cmp	 DWORD PTR _bytDataToSendLength, 0
  00c64	7e 2a		 jle	 SHORT $LN50@ProcessRcv

; 1404 : 				{
; 1405 : 					//if (DebugLog) Debugprintf(("[ARDOPprotocol.ProcessRcvdARQFrame] ISS ACK Rcvd from IRS BREAK, IRS DataToSend > 0,  IRS > ISS, Substate ISSData")
; 1406 : 
; 1407 : 					SetARDOPProtocolState(ISS);

  00c66	6a 02		 push	 2
  00c68	e8 00 00 00 00	 call	 _SetARDOPProtocolState
  00c6d	83 c4 04	 add	 esp, 4

; 1408 : 					ARQState = ISSData;

  00c70	c7 05 00 00 00
	00 03 00 00 00	 mov	 DWORD PTR _ARQState, 3

; 1409 : 					
; 1410 : 					SendDataOrIDLE();

  00c7a	e8 00 00 00 00	 call	 _SendDataOrIDLE

; 1411 : 					intNAKctr = 0;

  00c7f	c7 05 00 00 00
	00 00 00 00 00	 mov	 DWORD PTR _intNAKctr, 0

; 1412 : 					return;

  00c89	e9 af 08 00 00	 jmp	 $LN108@ProcessRcv

; 1413 : 				}
; 1414 : 				else

  00c8e	eb 2a		 jmp	 SHORT $LN49@ProcessRcv
$LN50@ProcessRcv:

; 1415 : 				{
; 1416 : 					if (DebugLog) Debugprintf("[ARDOPprotocol.ProcessRcvdARQFrame] ISS ACK Rcvd from IRS BREAK, IRS DataToSend = 0,  IRS > IDLE, Substate ISSData");

  00c90	83 3d 00 00 00
	00 00		 cmp	 DWORD PTR _DebugLog, 0
  00c97	74 0d		 je	 SHORT $LN48@ProcessRcv
  00c99	68 00 00 00 00	 push	 OFFSET ??_C@_0HD@HADBIAOH@?$FLARDOPprotocol?4ProcessRcvdARQFra@
  00c9e	e8 00 00 00 00	 call	 _Debugprintf
  00ca3	83 c4 04	 add	 esp, 4
$LN48@ProcessRcv:

; 1417 : 					SetARDOPProtocolState(IDLE);

  00ca6	6a 08		 push	 8
  00ca8	e8 00 00 00 00	 call	 _SetARDOPProtocolState
  00cad	83 c4 04	 add	 esp, 4

; 1418 : 					ARQState = ISSData;

  00cb0	c7 05 00 00 00
	00 03 00 00 00	 mov	 DWORD PTR _ARQState, 3
$LN49@ProcessRcv:

; 1419 : 				}
; 1420 : 				SendDataOrIDLE();

  00cba	e8 00 00 00 00	 call	 _SendDataOrIDLE

; 1421 : 				intNAKctr = 0;

  00cbf	c7 05 00 00 00
	00 00 00 00 00	 mov	 DWORD PTR _intNAKctr, 0
$LN52@ProcessRcv:

; 1422 : 			}
; 1423 : 			return;

  00cc9	e9 6f 08 00 00	 jmp	 $LN108@ProcessRcv
$LN47@ProcessRcv:

; 1424 : 		}
; 1425 : 
; 1426 : 	// IDLE State  *********************************************************************************************
; 1427 : 
; 1428 : 	case IDLE:		  // The state where the ISS has no data to send and is looking for an ACK or BREAK from the IRS
; 1429 :  
; 1430 : 		if (!blnFrameDecodedOK)

  00cce	83 7d 14 00	 cmp	 DWORD PTR _blnFrameDecodedOK$[ebp], 0
  00cd2	75 05		 jne	 SHORT $LN46@ProcessRcv

; 1431 : 			return;				// ' No decode so continue repeating IDLE

  00cd4	e9 64 08 00 00	 jmp	 $LN108@ProcessRcv
$LN46@ProcessRcv:

; 1432 : 
; 1433 : 		// process ACK, or  BREAK here Send ID if over 10 min. 
; 1434 : 
; 1435 : 		if (intFrameType >= 0xE0)  //' if ACK

  00cd9	0f b6 45 08	 movzx	 eax, BYTE PTR _intFrameType$[ebp]
  00cdd	3d e0 00 00 00	 cmp	 eax, 224		; 000000e0H
  00ce2	7c 0a		 jl	 SHORT $LN45@ProcessRcv

; 1436 : 		{
; 1437 : 			SendDataOrIDLE();

  00ce4	e8 00 00 00 00	 call	 _SendDataOrIDLE

; 1438 : 			return;

  00ce9	e9 4f 08 00 00	 jmp	 $LN108@ProcessRcv
$LN45@ProcessRcv:

; 1439 : 		}
; 1440 : 		if (intFrameType == BREAK)

  00cee	0f b6 45 08	 movzx	 eax, BYTE PTR _intFrameType$[ebp]
  00cf2	83 f8 23	 cmp	 eax, 35			; 00000023H
  00cf5	0f 85 89 00 00
	00		 jne	 $LN44@ProcessRcv

; 1441 : 		{
; 1442 : 			// Initiate the transisiton to IRS
; 1443 : 
; 1444 : 			dttTimeoutTrip = Now;

  00cfb	e8 00 00 00 00	 call	 _getTicks
  00d00	a3 00 00 00 00	 mov	 DWORD PTR _dttTimeoutTrip, eax

; 1445 : 			blnEnbARQRpt = FALSE;

  00d05	c7 05 00 00 00
	00 00 00 00 00	 mov	 DWORD PTR _blnEnbARQRpt, 0

; 1446 : 				              
; 1447 : 			if(DebugLog) Debugprintf("[ARDOPprotocol.ProcessRcvdARQFrame] BREAK Rcvd from IDLE, Go to IRS, Substate IRSData");

  00d0f	83 3d 00 00 00
	00 00		 cmp	 DWORD PTR _DebugLog, 0
  00d16	74 0d		 je	 SHORT $LN43@ProcessRcv
  00d18	68 00 00 00 00	 push	 OFFSET ??_C@_0FG@LCLNCLIF@?$FLARDOPprotocol?4ProcessRcvdARQFra@
  00d1d	e8 00 00 00 00	 call	 _Debugprintf
  00d22	83 c4 04	 add	 esp, 4
$LN43@ProcessRcv:

; 1448 : 				
; 1449 : 			SetARDOPProtocolState(IRS);

  00d25	6a 03		 push	 3
  00d27	e8 00 00 00 00	 call	 _SetARDOPProtocolState
  00d2c	83 c4 04	 add	 esp, 4

; 1450 : 			ARQState = IRSData;

  00d2f	c7 05 00 00 00
	00 06 00 00 00	 mov	 DWORD PTR _ARQState, 6

; 1451 : 			intLastARQDataFrameToHost = -1;	 // precondition to an illegal frame type (insures the new IRS does not reject a frame)

  00d39	c7 05 00 00 00
	00 ff ff ff ff	 mov	 DWORD PTR _intLastARQDataFrameToHost, -1

; 1452 : 
; 1453 : 			EncLen = EncodeDATAACK(100, bytSessionID, bytEncodedBytes); // Send ACK

  00d43	68 00 00 00 00	 push	 OFFSET _bytEncodedBytes
  00d48	a0 00 00 00 00	 mov	 al, BYTE PTR _bytSessionID
  00d4d	50		 push	 eax
  00d4e	6a 64		 push	 100			; 00000064H
  00d50	e8 00 00 00 00	 call	 _EncodeDATAACK
  00d55	83 c4 0c	 add	 esp, 12			; 0000000cH
  00d58	a3 00 00 00 00	 mov	 DWORD PTR _EncLen, eax

; 1454 : 			Mod4FSKDataAndPlay(bytEncodedBytes[0], &bytEncodedBytes[0], EncLen, LeaderLength);

  00d5d	a1 00 00 00 00	 mov	 eax, DWORD PTR _LeaderLength
  00d62	50		 push	 eax
  00d63	8b 0d 00 00 00
	00		 mov	 ecx, DWORD PTR _EncLen
  00d69	51		 push	 ecx
  00d6a	68 00 00 00 00	 push	 OFFSET _bytEncodedBytes
  00d6f	0f b6 15 00 00
	00 00		 movzx	 edx, BYTE PTR _bytEncodedBytes
  00d76	52		 push	 edx
  00d77	e8 00 00 00 00	 call	 _Mod4FSKDataAndPlay
  00d7c	83 c4 10	 add	 esp, 16			; 00000010H

; 1455 : 
; 1456 : 			return;

  00d7f	e9 b9 07 00 00	 jmp	 $LN108@ProcessRcv
$LN44@ProcessRcv:

; 1457 : 		}
; 1458 : 		if (intFrameType == DISCFRAME)  //  IF DISC received from IRS Handles protocol rule 1.5

  00d84	0f b6 45 08	 movzx	 eax, BYTE PTR _intFrameType$[ebp]
  00d88	83 f8 29	 cmp	 eax, 41			; 00000029H
  00d8b	0f 85 a6 00 00
	00		 jne	 $LN42@ProcessRcv

; 1459 : 		{
; 1460 : 			//if (DebugLog) Debugprintf(("[ARDOPprotocol.ProcessRcvdARQFrame]  DISC frame received Send END...go to DISC state")
; 1461 :                //    If MCB.AccumulateStats Then LogStats()
; 1462 : 
; 1463 : 			QueueCommandToHost("DISCONNECTED");

  00d91	68 00 00 00 00	 push	 OFFSET ??_C@_0N@HLEBDOBD@DISCONNECTED?$AA@
  00d96	e8 00 00 00 00	 call	 _QueueCommandToHost
  00d9b	83 c4 04	 add	 esp, 4

; 1464 : 			sprintf(HostCmd, "STATUS ARQ CONNECTION ENDED WITH %s", strRemoteCallsign);

  00d9e	68 00 00 00 00	 push	 OFFSET _strRemoteCallsign
  00da3	68 00 00 00 00	 push	 OFFSET ??_C@_0CE@KGIEGGGH@STATUS?5ARQ?5CONNECTION?5ENDED?5WITH@
  00da8	8d 45 90	 lea	 eax, DWORD PTR _HostCmd$[ebp]
  00dab	50		 push	 eax
  00dac	e8 00 00 00 00	 call	 _sprintf
  00db1	83 c4 0c	 add	 esp, 12			; 0000000cH

; 1465 : 			QueueCommandToHost(HostCmd);

  00db4	8d 45 90	 lea	 eax, DWORD PTR _HostCmd$[ebp]
  00db7	50		 push	 eax
  00db8	e8 00 00 00 00	 call	 _QueueCommandToHost
  00dbd	83 c4 04	 add	 esp, 4

; 1466 : 
; 1467 : 			bytLastARQSessionID = bytSessionID;	// ' capture this session ID to allow answering DISC from DISC state

  00dc0	a0 00 00 00 00	 mov	 al, BYTE PTR _bytSessionID
  00dc5	a2 00 00 00 00	 mov	 BYTE PTR _bytLastARQSessionID, al

; 1468 : 			tmrFinalID = 500;

  00dca	c7 05 00 00 00
	00 f4 01 00 00	 mov	 DWORD PTR _tmrFinalID, 500 ; 000001f4H

; 1469 : 			blnDISCRepeating = FALSE;

  00dd4	c7 05 00 00 00
	00 00 00 00 00	 mov	 DWORD PTR _blnDISCRepeating, 0

; 1470 : 			ClearDataToSend();

  00dde	e8 00 00 00 00	 call	 _ClearDataToSend

; 1471 : 			SetARDOPProtocolState(DISC);

  00de3	6a 01		 push	 1
  00de5	e8 00 00 00 00	 call	 _SetARDOPProtocolState
  00dea	83 c4 04	 add	 esp, 4

; 1472 : 			InitializeConnection();

  00ded	e8 00 00 00 00	 call	 _InitializeConnection

; 1473 : 			blnEnbARQRpt = FALSE;

  00df2	c7 05 00 00 00
	00 00 00 00 00	 mov	 DWORD PTR _blnEnbARQRpt, 0

; 1474 : 
; 1475 : 			EncLen = Encode4FSKControl(END, bytSessionID, bytEncodedBytes);

  00dfc	68 00 00 00 00	 push	 OFFSET _bytEncodedBytes
  00e01	a0 00 00 00 00	 mov	 al, BYTE PTR _bytSessionID
  00e06	50		 push	 eax
  00e07	6a 2c		 push	 44			; 0000002cH
  00e09	e8 00 00 00 00	 call	 _Encode4FSKControl
  00e0e	83 c4 0c	 add	 esp, 12			; 0000000cH
  00e11	a3 00 00 00 00	 mov	 DWORD PTR _EncLen, eax

; 1476 : 			Mod4FSKDataAndPlay(END, &bytEncodedBytes[0], EncLen, LeaderLength);	

  00e16	a1 00 00 00 00	 mov	 eax, DWORD PTR _LeaderLength
  00e1b	50		 push	 eax
  00e1c	8b 0d 00 00 00
	00		 mov	 ecx, DWORD PTR _EncLen
  00e22	51		 push	 ecx
  00e23	68 00 00 00 00	 push	 OFFSET _bytEncodedBytes
  00e28	6a 2c		 push	 44			; 0000002cH
  00e2a	e8 00 00 00 00	 call	 _Mod4FSKDataAndPlay
  00e2f	83 c4 10	 add	 esp, 16			; 00000010H

; 1477 : 			return;

  00e32	e9 06 07 00 00	 jmp	 $LN108@ProcessRcv
$LN42@ProcessRcv:

; 1478 : 		}
; 1479 : 		if (intFrameType == END)

  00e37	0f b6 45 08	 movzx	 eax, BYTE PTR _intFrameType$[ebp]
  00e3b	83 f8 2c	 cmp	 eax, 44			; 0000002cH
  00e3e	0f 85 bc 00 00
	00		 jne	 $LN41@ProcessRcv

; 1480 : 		{
; 1481 : 			if (DebugLog) Debugprintf("[ARDOPprotocol.ProcessRcvdARQFrame]  END received ... going to DISC state");

  00e44	83 3d 00 00 00
	00 00		 cmp	 DWORD PTR _DebugLog, 0
  00e4b	74 0d		 je	 SHORT $LN40@ProcessRcv
  00e4d	68 00 00 00 00	 push	 OFFSET ??_C@_0EK@LJBCHEOL@?$FLARDOPprotocol?4ProcessRcvdARQFra@
  00e52	e8 00 00 00 00	 call	 _Debugprintf
  00e57	83 c4 04	 add	 esp, 4
$LN40@ProcessRcv:

; 1482 :                //    If MCB.AccumulateStats Then LogStats()
; 1483 : 	
; 1484 : 			QueueCommandToHost("DISCONNECTED");

  00e5a	68 00 00 00 00	 push	 OFFSET ??_C@_0N@HLEBDOBD@DISCONNECTED?$AA@
  00e5f	e8 00 00 00 00	 call	 _QueueCommandToHost
  00e64	83 c4 04	 add	 esp, 4

; 1485 : 			sprintf(HostCmd, "STATUS ARQ CONNECTION ENDED WITH %s", strRemoteCallsign);

  00e67	68 00 00 00 00	 push	 OFFSET _strRemoteCallsign
  00e6c	68 00 00 00 00	 push	 OFFSET ??_C@_0CE@KGIEGGGH@STATUS?5ARQ?5CONNECTION?5ENDED?5WITH@
  00e71	8d 45 90	 lea	 eax, DWORD PTR _HostCmd$[ebp]
  00e74	50		 push	 eax
  00e75	e8 00 00 00 00	 call	 _sprintf
  00e7a	83 c4 0c	 add	 esp, 12			; 0000000cH

; 1486 : 			QueueCommandToHost(HostCmd);

  00e7d	8d 45 90	 lea	 eax, DWORD PTR _HostCmd$[ebp]
  00e80	50		 push	 eax
  00e81	e8 00 00 00 00	 call	 _QueueCommandToHost
  00e86	83 c4 04	 add	 esp, 4

; 1487 : 
; 1488 : 			ClearDataToSend();

  00e89	e8 00 00 00 00	 call	 _ClearDataToSend

; 1489 :    		
; 1490 : 			SetARDOPProtocolState(DISC);

  00e8e	6a 01		 push	 1
  00e90	e8 00 00 00 00	 call	 _SetARDOPProtocolState
  00e95	83 c4 04	 add	 esp, 4

; 1491 : 			InitializeConnection();

  00e98	e8 00 00 00 00	 call	 _InitializeConnection

; 1492 : 			blnEnbARQRpt = FALSE;

  00e9d	c7 05 00 00 00
	00 00 00 00 00	 mov	 DWORD PTR _blnEnbARQRpt, 0

; 1493 : 			blnDISCRepeating = FALSE;

  00ea7	c7 05 00 00 00
	00 00 00 00 00	 mov	 DWORD PTR _blnDISCRepeating, 0

; 1494 : 
; 1495 : 			if (CheckValidCallsignSyntax(strLocalCallsign))

  00eb1	68 00 00 00 00	 push	 OFFSET _strLocalCallsign
  00eb6	e8 00 00 00 00	 call	 _CheckValidCallsignSyntax
  00ebb	83 c4 04	 add	 esp, 4
  00ebe	85 c0		 test	 eax, eax
  00ec0	74 39		 je	 SHORT $LN39@ProcessRcv

; 1496 : 			{
; 1497 : 				dttLastFECIDSent = Now;

  00ec2	e8 00 00 00 00	 call	 _getTicks
  00ec7	a3 00 00 00 00	 mov	 DWORD PTR _dttLastFECIDSent, eax

; 1498 : 				EncLen = Encode4FSKIDFrame(strLocalCallsign, GridSquare, bytEncodedBytes);

  00ecc	68 00 00 00 00	 push	 OFFSET _bytEncodedBytes
  00ed1	68 00 00 00 00	 push	 OFFSET _GridSquare
  00ed6	68 00 00 00 00	 push	 OFFSET _strLocalCallsign
  00edb	e8 00 00 00 00	 call	 _Encode4FSKIDFrame
  00ee0	83 c4 0c	 add	 esp, 12			; 0000000cH
  00ee3	a3 00 00 00 00	 mov	 DWORD PTR _EncLen, eax

; 1499 : 				Mod4FSKDataAndPlay(0x30, &bytEncodedBytes[0], 16, 0);		// only returns when all sent

  00ee8	6a 00		 push	 0
  00eea	6a 10		 push	 16			; 00000010H
  00eec	68 00 00 00 00	 push	 OFFSET _bytEncodedBytes
  00ef1	6a 30		 push	 48			; 00000030H
  00ef3	e8 00 00 00 00	 call	 _Mod4FSKDataAndPlay
  00ef8	83 c4 10	 add	 esp, 16			; 00000010H
$LN39@ProcessRcv:

; 1500 : 			}
; 1501 : 				
; 1502 : 			return;

  00efb	e9 3d 06 00 00	 jmp	 $LN108@ProcessRcv
$LN41@ProcessRcv:

; 1503 : 		}
; 1504 : 
; 1505 : 		Debugprintf("Shouldn't get here");

  00f00	68 00 00 00 00	 push	 OFFSET ??_C@_0BD@GGEOIKED@Shouldn?8t?5get?5here?$AA@
  00f05	e8 00 00 00 00	 call	 _Debugprintf
  00f0a	83 c4 04	 add	 esp, 4
$LN38@ProcessRcv:

; 1506 : 
; 1507 : 	// ISS state **************************************************************************************
; 1508 : 
; 1509 : 	case ISS:
; 1510 : 		
; 1511 : 		if (ARQState == ISSConReq)  //' The ISS is sending Connect requests waiting for a ConAck from the remote IRS

  00f0d	83 3d 00 00 00
	00 01		 cmp	 DWORD PTR _ARQState, 1
  00f14	0f 85 47 01 00
	00		 jne	 $LN37@ProcessRcv

; 1512 : 		{
; 1513 : 			// Session ID should be correct already (set by the ISS during first Con Req to IRS)
; 1514 : 			// Process IRS Conack and capture IRS received leader for timing optimization
; 1515 : 			// Process ConAck from IRS (Handles protocol rule 1.4)
; 1516 : 
; 1517 : 			if (blnFrameDecodedOK && intFrameType >= 0x39 && intFrameType <= 0x3C)  // Process ConACK frames from IRS confirming BW is compatible and providing received leader info.

  00f1a	83 7d 14 00	 cmp	 DWORD PTR _blnFrameDecodedOK$[ebp], 0
  00f1e	0f 84 3d 01 00
	00		 je	 $LN37@ProcessRcv
  00f24	0f b6 45 08	 movzx	 eax, BYTE PTR _intFrameType$[ebp]
  00f28	83 f8 39	 cmp	 eax, 57			; 00000039H
  00f2b	0f 8c 30 01 00
	00		 jl	 $LN37@ProcessRcv
  00f31	0f b6 45 08	 movzx	 eax, BYTE PTR _intFrameType$[ebp]
  00f35	83 f8 3c	 cmp	 eax, 60			; 0000003cH
  00f38	0f 8f 23 01 00
	00		 jg	 $LN37@ProcessRcv

; 1518 : 			{
; 1519 : 				UCHAR bytDummy = 0;

  00f3e	c6 45 87 00	 mov	 BYTE PTR _bytDummy$28675[ebp], 0

; 1520 : 
; 1521 : 				//if (DebugLog) Debugprintf(("[ARDOPprotocol.ProcessRcvdARQFrame] ISS Measured RoundTrip = " & intARQRTmeasuredMs.ToString & " ms")
; 1522 : 
; 1523 : 				switch (intFrameType)

  00f42	0f b6 45 08	 movzx	 eax, BYTE PTR _intFrameType$[ebp]
  00f46	89 85 bc fe ff
	ff		 mov	 DWORD PTR tv519[ebp], eax
  00f4c	8b 8d bc fe ff
	ff		 mov	 ecx, DWORD PTR tv519[ebp]
  00f52	83 e9 39	 sub	 ecx, 57			; 00000039H
  00f55	89 8d bc fe ff
	ff		 mov	 DWORD PTR tv519[ebp], ecx
  00f5b	83 bd bc fe ff
	ff 03		 cmp	 DWORD PTR tv519[ebp], 3
  00f62	77 3b		 ja	 SHORT $LN34@ProcessRcv
  00f64	8b 95 bc fe ff
	ff		 mov	 edx, DWORD PTR tv519[ebp]
  00f6a	ff 24 95 00 00
	00 00		 jmp	 DWORD PTR $LN117@ProcessRcv[edx*4]
$LN33@ProcessRcv:

; 1524 : 				{
; 1525 : 				case 0x39:
; 1526 : 					intSessionBW = 200;

  00f71	c7 05 00 00 00
	00 c8 00 00 00	 mov	 DWORD PTR _intSessionBW, 200 ; 000000c8H

; 1527 :                     break;

  00f7b	eb 22		 jmp	 SHORT $LN34@ProcessRcv
$LN32@ProcessRcv:

; 1528 : 				case 0x3A:
; 1529 : 					intSessionBW = 500;

  00f7d	c7 05 00 00 00
	00 f4 01 00 00	 mov	 DWORD PTR _intSessionBW, 500 ; 000001f4H

; 1530 :                     break;

  00f87	eb 16		 jmp	 SHORT $LN34@ProcessRcv
$LN31@ProcessRcv:

; 1531 : 				case 0x3B:
; 1532 : 					intSessionBW = 1000;

  00f89	c7 05 00 00 00
	00 e8 03 00 00	 mov	 DWORD PTR _intSessionBW, 1000 ; 000003e8H

; 1533 :                     break;

  00f93	eb 0a		 jmp	 SHORT $LN34@ProcessRcv
$LN30@ProcessRcv:

; 1534 : 				case 0x3C:
; 1535 : 					intSessionBW = 2000;

  00f95	c7 05 00 00 00
	00 d0 07 00 00	 mov	 DWORD PTR _intSessionBW, 2000 ; 000007d0H
$LN34@ProcessRcv:

; 1536 :                     break;
; 1537 : 				}
; 1538 : 				
; 1539 : 				CalculateOptimumLeader(10 * bytData[0], LeaderLength);

  00f9f	a1 00 00 00 00	 mov	 eax, DWORD PTR _LeaderLength
  00fa4	50		 push	 eax
  00fa5	8b 4d 0c	 mov	 ecx, DWORD PTR _bytData$[ebp]
  00fa8	0f b6 11	 movzx	 edx, BYTE PTR [ecx]
  00fab	6b d2 0a	 imul	 edx, 10			; 0000000aH
  00fae	52		 push	 edx
  00faf	e8 00 00 00 00	 call	 _CalculateOptimumLeader
  00fb4	83 c4 08	 add	 esp, 8

; 1540 : 	
; 1541 : 				// Initialize the frame type based on bandwidth
; 1542 : 			
; 1543 : 				GetNextFrameData(&intShiftUpDn, &bytDummy, NULL, TRUE);	// just sets the initial data frame type and sets intShiftUpDn = 0

  00fb7	6a 01		 push	 1
  00fb9	6a 00		 push	 0
  00fbb	8d 45 87	 lea	 eax, DWORD PTR _bytDummy$28675[ebp]
  00fbe	50		 push	 eax
  00fbf	68 00 00 00 00	 push	 OFFSET _intShiftUpDn
  00fc4	e8 00 00 00 00	 call	 _GetNextFrameData
  00fc9	83 c4 10	 add	 esp, 16			; 00000010H

; 1544 : 
; 1545 : 				// prepare the ConACK answer with received leader length
; 1546 : 
; 1547 : 				intReceivedLeaderLen = intLeaderRcvdMs;

  00fcc	a1 00 00 00 00	 mov	 eax, DWORD PTR _intLeaderRcvdMs
  00fd1	a3 00 00 00 00	 mov	 DWORD PTR _intReceivedLeaderLen, eax

; 1548 : 				
; 1549 : 				intFrameRepeatInterval = 2000;

  00fd6	c7 05 00 00 00
	00 d0 07 00 00	 mov	 DWORD PTR _intFrameRepeatInterval, 2000 ; 000007d0H

; 1550 : 				blnEnbARQRpt = TRUE;	// Setup for repeats of the ConACK if no answer from IRS

  00fe0	c7 05 00 00 00
	00 01 00 00 00	 mov	 DWORD PTR _blnEnbARQRpt, 1

; 1551 : 				if (DebugLog) Debugprintf("[ARDOPprotocol.ProcessRcvdARQFrame] Compatible bandwidth received from IRS ConAck: %d Hz", intSessionBW);

  00fea	83 3d 00 00 00
	00 00		 cmp	 DWORD PTR _DebugLog, 0
  00ff1	74 13		 je	 SHORT $LN29@ProcessRcv
  00ff3	a1 00 00 00 00	 mov	 eax, DWORD PTR _intSessionBW
  00ff8	50		 push	 eax
  00ff9	68 00 00 00 00	 push	 OFFSET ??_C@_0FJ@FHKGKBOK@?$FLARDOPprotocol?4ProcessRcvdARQFra@
  00ffe	e8 00 00 00 00	 call	 _Debugprintf
  01003	83 c4 08	 add	 esp, 8
$LN29@ProcessRcv:

; 1552 : 				ARQState = ISSConAck;

  01006	c7 05 00 00 00
	00 02 00 00 00	 mov	 DWORD PTR _ARQState, 2

; 1553 : 				dttLastFECIDSent = Now;

  01010	e8 00 00 00 00	 call	 _getTicks
  01015	a3 00 00 00 00	 mov	 DWORD PTR _dttLastFECIDSent, eax

; 1554 : 
; 1555 : 				EncLen = EncodeConACKwTiming(intFrameType, intReceivedLeaderLen, bytSessionID, bytEncodedBytes);

  0101a	68 00 00 00 00	 push	 OFFSET _bytEncodedBytes
  0101f	a0 00 00 00 00	 mov	 al, BYTE PTR _bytSessionID
  01024	50		 push	 eax
  01025	8b 0d 00 00 00
	00		 mov	 ecx, DWORD PTR _intReceivedLeaderLen
  0102b	51		 push	 ecx
  0102c	8a 55 08	 mov	 dl, BYTE PTR _intFrameType$[ebp]
  0102f	52		 push	 edx
  01030	e8 00 00 00 00	 call	 _EncodeConACKwTiming
  01035	83 c4 10	 add	 esp, 16			; 00000010H
  01038	a3 00 00 00 00	 mov	 DWORD PTR _EncLen, eax

; 1556 : 				Mod4FSKDataAndPlay(intFrameType, &bytEncodedBytes[0], EncLen, LeaderLength);		// only returns when all sent

  0103d	a1 00 00 00 00	 mov	 eax, DWORD PTR _LeaderLength
  01042	50		 push	 eax
  01043	8b 0d 00 00 00
	00		 mov	 ecx, DWORD PTR _EncLen
  01049	51		 push	 ecx
  0104a	68 00 00 00 00	 push	 OFFSET _bytEncodedBytes
  0104f	0f b6 55 08	 movzx	 edx, BYTE PTR _intFrameType$[ebp]
  01053	52		 push	 edx
  01054	e8 00 00 00 00	 call	 _Mod4FSKDataAndPlay
  01059	83 c4 10	 add	 esp, 16			; 00000010H

; 1557 : 
; 1558 : 				return;

  0105c	e9 dc 04 00 00	 jmp	 $LN108@ProcessRcv
$LN37@ProcessRcv:

; 1559 : 			}
; 1560 : 		}
; 1561 : 		if (ARQState == ISSConAck)

  01061	83 3d 00 00 00
	00 02		 cmp	 DWORD PTR _ARQState, 2
  01068	0f 85 db 01 00
	00		 jne	 $LN28@ProcessRcv

; 1562 : 		{
; 1563 : 			if (blnFrameDecodedOK && intFrameType >= 0xE0)  // if ACK received then IRS correctly received the ISS ConACK 

  0106e	83 7d 14 00	 cmp	 DWORD PTR _blnFrameDecodedOK$[ebp], 0
  01072	0f 84 de 00 00
	00		 je	 $LN27@ProcessRcv
  01078	0f b6 45 08	 movzx	 eax, BYTE PTR _intFrameType$[ebp]
  0107c	3d e0 00 00 00	 cmp	 eax, 224		; 000000e0H
  01081	0f 8c cf 00 00
	00		 jl	 $LN27@ProcessRcv

; 1564 : 			{
; 1565 : 				if (intRmtLeaderMeas == 0)

  01087	83 3d 00 00 00
	00 00		 cmp	 DWORD PTR _intRmtLeaderMeas, 0
  0108e	75 26		 jne	 SHORT $LN26@ProcessRcv

; 1566 : 				{
; 1567 : 					intRmtLeaderMeas = intRmtLeaderMeasure; // capture the leader timing of the first ACK from IRS, use this value to help compute repeat interval. 

  01090	a1 00 00 00 00	 mov	 eax, DWORD PTR _intRmtLeaderMeasure
  01095	a3 00 00 00 00	 mov	 DWORD PTR _intRmtLeaderMeas, eax

; 1568 : 					if (DebugLog) Debugprintf("[ARDOPprotocol.ProcessRcvdARQFrame] ISS RmtLeaderMeas=%d ms", intRmtLeaderMeas);

  0109a	83 3d 00 00 00
	00 00		 cmp	 DWORD PTR _DebugLog, 0
  010a1	74 13		 je	 SHORT $LN26@ProcessRcv
  010a3	a1 00 00 00 00	 mov	 eax, DWORD PTR _intRmtLeaderMeas
  010a8	50		 push	 eax
  010a9	68 00 00 00 00	 push	 OFFSET ??_C@_0DM@EJBNKEMM@?$FLARDOPprotocol?4ProcessRcvdARQFra@
  010ae	e8 00 00 00 00	 call	 _Debugprintf
  010b3	83 c4 08	 add	 esp, 8
$LN26@ProcessRcv:

; 1569 : 				}                       
; 1570 : 		        intAvgQuality = 0;		// initialize avg quality

  010b6	c7 05 00 00 00
	00 00 00 00 00	 mov	 DWORD PTR _intAvgQuality, 0

; 1571 : 				blnEnbARQRpt = FALSE;	// stop the repeats of ConAck and enables SendDataOrIDLE to get next IDLE or Data frame

  010c0	c7 05 00 00 00
	00 00 00 00 00	 mov	 DWORD PTR _blnEnbARQRpt, 0

; 1572 : 
; 1573 : 					//        if (DebugLog) Debugprintf(("[ARDOPprotocol.ProcessRcvdARQFrame] ACK received in ARQState " & ARQState.ToString)
; 1574 : 	
; 1575 : 				blnARQConnected = TRUE;

  010ca	c7 05 00 00 00
	00 01 00 00 00	 mov	 DWORD PTR _blnARQConnected, 1

; 1576 : 				blnPending = FALSE;

  010d4	c7 05 00 00 00
	00 00 00 00 00	 mov	 DWORD PTR _blnPending, 0

; 1577 : 
; 1578 : 				sprintf(HostCmd, "CONNECTED %s %d", strRemoteCallsign, intSessionBW);

  010de	a1 00 00 00 00	 mov	 eax, DWORD PTR _intSessionBW
  010e3	50		 push	 eax
  010e4	68 00 00 00 00	 push	 OFFSET _strRemoteCallsign
  010e9	68 00 00 00 00	 push	 OFFSET ??_C@_0BA@JAAENANL@CONNECTED?5?$CFs?5?$CFd?$AA@
  010ee	8d 4d 90	 lea	 ecx, DWORD PTR _HostCmd$[ebp]
  010f1	51		 push	 ecx
  010f2	e8 00 00 00 00	 call	 _sprintf
  010f7	83 c4 10	 add	 esp, 16			; 00000010H

; 1579 : 				QueueCommandToHost(HostCmd);

  010fa	8d 45 90	 lea	 eax, DWORD PTR _HostCmd$[ebp]
  010fd	50		 push	 eax
  010fe	e8 00 00 00 00	 call	 _QueueCommandToHost
  01103	83 c4 04	 add	 esp, 4

; 1580 : 				sprintf(HostCmd, "STATUS ARQ CONNECTION ESTABLISHED WITH %s, SESSION BW = %d HZ", strRemoteCallsign, intSessionBW);

  01106	a1 00 00 00 00	 mov	 eax, DWORD PTR _intSessionBW
  0110b	50		 push	 eax
  0110c	68 00 00 00 00	 push	 OFFSET _strRemoteCallsign
  01111	68 00 00 00 00	 push	 OFFSET ??_C@_0DO@NLAMEEFI@STATUS?5ARQ?5CONNECTION?5ESTABLISHE@
  01116	8d 4d 90	 lea	 ecx, DWORD PTR _HostCmd$[ebp]
  01119	51		 push	 ecx
  0111a	e8 00 00 00 00	 call	 _sprintf
  0111f	83 c4 10	 add	 esp, 16			; 00000010H

; 1581 : 				QueueCommandToHost(HostCmd);

  01122	8d 45 90	 lea	 eax, DWORD PTR _HostCmd$[ebp]
  01125	50		 push	 eax
  01126	e8 00 00 00 00	 call	 _QueueCommandToHost
  0112b	83 c4 04	 add	 esp, 4

; 1582 : 
; 1583 : 				ARQState = ISSData;

  0112e	c7 05 00 00 00
	00 03 00 00 00	 mov	 DWORD PTR _ARQState, 3

; 1584 : 				//' Update the main form menu status lable 
; 1585 : 				//Dim stcStatus As Status = Nothing
; 1586 : 				//stcStatus.ControlName = "mnuBusy"
; 1587 : 				//stcStatus.Text = "Connected " & stcConnection.strRemoteCallsign
; 1588 : 				//queTNCStatus.Enqueue(stcStatus)
; 1589 : 
; 1590 : 				intTrackingQuality = -1;	 //initialize tracking quality to illegal value

  01138	c7 05 00 00 00
	00 ff ff ff ff	 mov	 DWORD PTR _intTrackingQuality, -1

; 1591 : 				intNAKctr = 0;

  01142	c7 05 00 00 00
	00 00 00 00 00	 mov	 DWORD PTR _intNAKctr, 0

; 1592 : 
; 1593 : 	 			SendDataOrIDLE();	// this should start a repeat of either IDLE (if no data to send) or Data (if outbound queue not empty) 

  0114c	e8 00 00 00 00	 call	 _SendDataOrIDLE
  01151	e9 ee 00 00 00	 jmp	 $LN24@ProcessRcv
$LN27@ProcessRcv:

; 1594 : 			}
; 1595 : 			else if (blnFrameDecodedOK && intFrameType == 0x2D)  // ConRejBusy

  01156	83 7d 14 00	 cmp	 DWORD PTR _blnFrameDecodedOK$[ebp], 0
  0115a	0f 84 82 00 00
	00		 je	 $LN23@ProcessRcv
  01160	0f b6 45 08	 movzx	 eax, BYTE PTR _intFrameType$[ebp]
  01164	83 f8 2d	 cmp	 eax, 45			; 0000002dH
  01167	75 79		 jne	 SHORT $LN23@ProcessRcv

; 1596 : 			{
; 1597 : 				if (DebugLog) Debugprintf("[ARDOPprotocol.ProcessRcvdARQFrame] ConRejBusy received in ARQState %s. Going to Protocol State DISC", ARQSubStates[ARQState]);

  01169	83 3d 00 00 00
	00 00		 cmp	 DWORD PTR _DebugLog, 0
  01170	74 1b		 je	 SHORT $LN22@ProcessRcv
  01172	a1 00 00 00 00	 mov	 eax, DWORD PTR _ARQState
  01177	6b c0 0b	 imul	 eax, 11			; 0000000bH
  0117a	05 00 00 00 00	 add	 eax, OFFSET _ARQSubStates
  0117f	50		 push	 eax
  01180	68 00 00 00 00	 push	 OFFSET ??_C@_0GF@FEOOBEJO@?$FLARDOPprotocol?4ProcessRcvdARQFra@
  01185	e8 00 00 00 00	 call	 _Debugprintf
  0118a	83 c4 08	 add	 esp, 8
$LN22@ProcessRcv:

; 1598 : 
; 1599 : 				sprintf(HostCmd, "REJECTEDBUSY %s", strRemoteCallsign);

  0118d	68 00 00 00 00	 push	 OFFSET _strRemoteCallsign
  01192	68 00 00 00 00	 push	 OFFSET ??_C@_0BA@NNHABDKD@REJECTEDBUSY?5?$CFs?$AA@
  01197	8d 45 90	 lea	 eax, DWORD PTR _HostCmd$[ebp]
  0119a	50		 push	 eax
  0119b	e8 00 00 00 00	 call	 _sprintf
  011a0	83 c4 0c	 add	 esp, 12			; 0000000cH

; 1600 : 				QueueCommandToHost(HostCmd);

  011a3	8d 45 90	 lea	 eax, DWORD PTR _HostCmd$[ebp]
  011a6	50		 push	 eax
  011a7	e8 00 00 00 00	 call	 _QueueCommandToHost
  011ac	83 c4 04	 add	 esp, 4

; 1601 : 				sprintf(HostCmd, "STATUS ARQ CONNECTION REJECTED BY %s", strRemoteCallsign);

  011af	68 00 00 00 00	 push	 OFFSET _strRemoteCallsign
  011b4	68 00 00 00 00	 push	 OFFSET ??_C@_0CF@GAOEEFDH@STATUS?5ARQ?5CONNECTION?5REJECTED?5B@
  011b9	8d 45 90	 lea	 eax, DWORD PTR _HostCmd$[ebp]
  011bc	50		 push	 eax
  011bd	e8 00 00 00 00	 call	 _sprintf
  011c2	83 c4 0c	 add	 esp, 12			; 0000000cH

; 1602 : 				QueueCommandToHost(HostCmd);

  011c5	8d 45 90	 lea	 eax, DWORD PTR _HostCmd$[ebp]
  011c8	50		 push	 eax
  011c9	e8 00 00 00 00	 call	 _QueueCommandToHost
  011ce	83 c4 04	 add	 esp, 4

; 1603 : 
; 1604 : 				SetARDOPProtocolState(DISC);

  011d1	6a 01		 push	 1
  011d3	e8 00 00 00 00	 call	 _SetARDOPProtocolState
  011d8	83 c4 04	 add	 esp, 4

; 1605 : 				InitializeConnection();

  011db	e8 00 00 00 00	 call	 _InitializeConnection
  011e0	eb 62		 jmp	 SHORT $LN24@ProcessRcv
$LN23@ProcessRcv:

; 1606 : 			}
; 1607 : 			else if (blnFrameDecodedOK && intFrameType == 0x2E)	 // ConRejBW

  011e2	83 7d 14 00	 cmp	 DWORD PTR _blnFrameDecodedOK$[ebp], 0
  011e6	74 5c		 je	 SHORT $LN24@ProcessRcv
  011e8	0f b6 45 08	 movzx	 eax, BYTE PTR _intFrameType$[ebp]
  011ec	83 f8 2e	 cmp	 eax, 46			; 0000002eH
  011ef	75 53		 jne	 SHORT $LN24@ProcessRcv

; 1608 : 			{
; 1609 : 				//if (DebugLog) WriteDebug("[ARDOPprotocol.ProcessRcvdARQFrame] ConRejBW received in ARQState " & ARQState.ToString & " Going to Protocol State DISC")
; 1610 : 
; 1611 : 				sprintf(HostCmd, "REJECTEDBW %s", strRemoteCallsign);

  011f1	68 00 00 00 00	 push	 OFFSET _strRemoteCallsign
  011f6	68 00 00 00 00	 push	 OFFSET ??_C@_0O@OMMHMJAK@REJECTEDBW?5?$CFs?$AA@
  011fb	8d 45 90	 lea	 eax, DWORD PTR _HostCmd$[ebp]
  011fe	50		 push	 eax
  011ff	e8 00 00 00 00	 call	 _sprintf
  01204	83 c4 0c	 add	 esp, 12			; 0000000cH

; 1612 : 				QueueCommandToHost(HostCmd);

  01207	8d 45 90	 lea	 eax, DWORD PTR _HostCmd$[ebp]
  0120a	50		 push	 eax
  0120b	e8 00 00 00 00	 call	 _QueueCommandToHost
  01210	83 c4 04	 add	 esp, 4

; 1613 : 				sprintf(HostCmd, "STATUS ARQ CONNECTION REJECTED BY %s", strRemoteCallsign);

  01213	68 00 00 00 00	 push	 OFFSET _strRemoteCallsign
  01218	68 00 00 00 00	 push	 OFFSET ??_C@_0CF@GAOEEFDH@STATUS?5ARQ?5CONNECTION?5REJECTED?5B@
  0121d	8d 45 90	 lea	 eax, DWORD PTR _HostCmd$[ebp]
  01220	50		 push	 eax
  01221	e8 00 00 00 00	 call	 _sprintf
  01226	83 c4 0c	 add	 esp, 12			; 0000000cH

; 1614 : 				QueueCommandToHost(HostCmd);

  01229	8d 45 90	 lea	 eax, DWORD PTR _HostCmd$[ebp]
  0122c	50		 push	 eax
  0122d	e8 00 00 00 00	 call	 _QueueCommandToHost
  01232	83 c4 04	 add	 esp, 4

; 1615 : 
; 1616 : 				SetARDOPProtocolState(DISC);

  01235	6a 01		 push	 1
  01237	e8 00 00 00 00	 call	 _SetARDOPProtocolState
  0123c	83 c4 04	 add	 esp, 4

; 1617 : 				InitializeConnection();

  0123f	e8 00 00 00 00	 call	 _InitializeConnection
$LN24@ProcessRcv:

; 1618 : 			}
; 1619 : 			return;

  01244	e9 f4 02 00 00	 jmp	 $LN108@ProcessRcv
$LN28@ProcessRcv:

; 1620 : 		}
; 1621 : 		
; 1622 : 		if (ARQState == ISSData)

  01249	83 3d 00 00 00
	00 03		 cmp	 DWORD PTR _ARQState, 3
  01250	0f 85 da 02 00
	00		 jne	 $LN1@ProcessRcv

; 1623 : 		{
; 1624 : 			if (CheckForDisconnect())

  01256	e8 00 00 00 00	 call	 _CheckForDisconnect
  0125b	85 c0		 test	 eax, eax
  0125d	74 05		 je	 SHORT $LN18@ProcessRcv

; 1625 : 				return;					// DISC sent

  0125f	e9 d9 02 00 00	 jmp	 $LN108@ProcessRcv
$LN18@ProcessRcv:

; 1626 : 			
; 1627 : 			if (!blnFrameDecodedOK)

  01264	83 7d 14 00	 cmp	 DWORD PTR _blnFrameDecodedOK$[ebp], 0
  01268	75 05		 jne	 SHORT $LN17@ProcessRcv

; 1628 : 				return;					// No decode so continue repeating either data or idle

  0126a	e9 ce 02 00 00	 jmp	 $LN108@ProcessRcv
$LN17@ProcessRcv:

; 1629 :                     
; 1630 : 			// process ACK, NAK, DISC, END or BREAK here. Send ID if over 10 min. 
; 1631 :  
; 1632 : 			if (intFrameType >= 0xE0)	// if ACK

  0126f	0f b6 45 08	 movzx	 eax, BYTE PTR _intFrameType$[ebp]
  01273	3d e0 00 00 00	 cmp	 eax, 224		; 000000e0H
  01278	7c 75		 jl	 SHORT $LN16@ProcessRcv

; 1633 : 			{
; 1634 : 				dttTimeoutTrip = Now;

  0127a	e8 00 00 00 00	 call	 _getTicks
  0127f	a3 00 00 00 00	 mov	 DWORD PTR _dttTimeoutTrip, eax

; 1635 : 				bytLastARQDataFrameAcked = bytLastARQDataFrameSent;

  01284	a0 00 00 00 00	 mov	 al, BYTE PTR _bytLastARQDataFrameSent
  01289	a2 00 00 00 00	 mov	 BYTE PTR _bytLastARQDataFrameAcked, al

; 1636 : 
; 1637 : 				if (blnLastFrameSentData)

  0128e	83 3d 00 00 00
	00 00		 cmp	 DWORD PTR _blnLastFrameSentData, 0
  01295	74 3a		 je	 SHORT $LN15@ProcessRcv

; 1638 : 				{
; 1639 : 					if (bytQDataInProcessLen)

  01297	83 3d 00 00 00
	00 00		 cmp	 DWORD PTR _bytQDataInProcessLen, 0
  0129e	74 18		 je	 SHORT $LN14@ProcessRcv

; 1640 : 					{
; 1641 : 						RemoveDataFromQueue(bytQDataInProcessLen);

  012a0	a1 00 00 00 00	 mov	 eax, DWORD PTR _bytQDataInProcessLen
  012a5	50		 push	 eax
  012a6	e8 00 00 00 00	 call	 _RemoveDataFromQueue
  012ab	83 c4 04	 add	 esp, 4

; 1642 : 						bytQDataInProcessLen = 0;

  012ae	c7 05 00 00 00
	00 00 00 00 00	 mov	 DWORD PTR _bytQDataInProcessLen, 0
$LN14@ProcessRcv:

; 1643 : 					}
; 1644 : 					ComputeQualityAvg(38 + 2 * (intFrameType - 0xE0)); // Average ACK quality to exponential averager.

  012b8	0f b6 45 08	 movzx	 eax, BYTE PTR _intFrameType$[ebp]
  012bc	8d 8c 00 66 fe
	ff ff		 lea	 ecx, DWORD PTR [eax+eax-410]
  012c3	51		 push	 ecx
  012c4	e8 00 00 00 00	 call	 _ComputeQualityAvg
  012c9	83 c4 04	 add	 esp, 4

; 1645 : 					Gearshift_5();		// gear shift based on average quality

  012cc	e8 00 00 00 00	 call	 _Gearshift_5
$LN15@ProcessRcv:

; 1646 : 				}
; 1647 : 				intNAKctr = 0;

  012d1	c7 05 00 00 00
	00 00 00 00 00	 mov	 DWORD PTR _intNAKctr, 0

; 1648 : 				blnEnbARQRpt = FALSE;	// stops repeat and forces new data frame or IDLE

  012db	c7 05 00 00 00
	00 00 00 00 00	 mov	 DWORD PTR _blnEnbARQRpt, 0

; 1649 : 				SendDataOrIDLE();		// Send new data from outbound queue and set up repeats

  012e5	e8 00 00 00 00	 call	 _SendDataOrIDLE
  012ea	e9 3f 02 00 00	 jmp	 $LN13@ProcessRcv
$LN16@ProcessRcv:

; 1650 : 			}
; 1651 : 			else if (intFrameType <= 0x1F)		 // if NAK

  012ef	0f b6 45 08	 movzx	 eax, BYTE PTR _intFrameType$[ebp]
  012f3	83 f8 1f	 cmp	 eax, 31			; 0000001fH
  012f6	7f 53		 jg	 SHORT $LN12@ProcessRcv

; 1652 : 			{
; 1653 : 				if (blnLastFrameSentData)

  012f8	83 3d 00 00 00
	00 00		 cmp	 DWORD PTR _blnLastFrameSentData, 0
  012ff	74 45		 je	 SHORT $LN11@ProcessRcv

; 1654 : 				{
; 1655 : 			        intNAKctr += 1;

  01301	a1 00 00 00 00	 mov	 eax, DWORD PTR _intNAKctr
  01306	83 c0 01	 add	 eax, 1
  01309	a3 00 00 00 00	 mov	 DWORD PTR _intNAKctr, eax

; 1656 : 				
; 1657 : 					ComputeQualityAvg(38 + 2 * intFrameType);	 // Average in NAK quality to exponential averager.  

  0130e	0f b6 45 08	 movzx	 eax, BYTE PTR _intFrameType$[ebp]
  01312	8d 4c 00 26	 lea	 ecx, DWORD PTR [eax+eax+38]
  01316	51		 push	 ecx
  01317	e8 00 00 00 00	 call	 _ComputeQualityAvg
  0131c	83 c4 04	 add	 esp, 4

; 1658 : 					Gearshift_5();		//' gear shift based on average quality or Shift Down if intNAKcnt >= 10

  0131f	e8 00 00 00 00	 call	 _Gearshift_5

; 1659 : 					
; 1660 : 					if (intShiftUpDn != 0)

  01324	83 3d 00 00 00
	00 00		 cmp	 DWORD PTR _intShiftUpDn, 0
  0132b	74 19		 je	 SHORT $LN11@ProcessRcv

; 1661 : 					{
; 1662 : 						dttTimeoutTrip = Now;	 // Retrigger the timeout on a shift and clear the NAK counter

  0132d	e8 00 00 00 00	 call	 _getTicks
  01332	a3 00 00 00 00	 mov	 DWORD PTR _dttTimeoutTrip, eax

; 1663 : 						intNAKctr = 0;

  01337	c7 05 00 00 00
	00 00 00 00 00	 mov	 DWORD PTR _intNAKctr, 0

; 1664 : 						SendDataOrIDLE();	//Added 0.3.5.2     Restore the last frames data, Send new data from outbound queue and set up repeats

  01341	e8 00 00 00 00	 call	 _SendDataOrIDLE
$LN11@ProcessRcv:

; 1665 : 					}
; 1666 : 				}

  01346	e9 e3 01 00 00	 jmp	 $LN13@ProcessRcv
$LN12@ProcessRcv:

; 1667 :                 
; 1668 : 				//     For now don't try and change the current data frame the simple gear shift will change it on the next frame 
; 1669 : 				//           add data being transmitted back to outbound queue
; 1670 : 			}
; 1671 : 
; 1672 : 			else if (intFrameType == DISCFRAME) // if DISC  Handles protocol rule 1.5

  0134b	0f b6 45 08	 movzx	 eax, BYTE PTR _intFrameType$[ebp]
  0134f	83 f8 29	 cmp	 eax, 41			; 00000029H
  01352	0f 85 a6 00 00
	00		 jne	 $LN8@ProcessRcv

; 1673 : 			{
; 1674 : 				//if (DebugLog) Debugprintf(("[ARDOPprotocol.ProcessRcvdARQFrame]  DISC frame received Send END...go to DISC state")
; 1675 :                    //    If MCB.AccumulateStats Then LogStats()
; 1676 : 					
; 1677 : 				QueueCommandToHost("DISCONNECTED");

  01358	68 00 00 00 00	 push	 OFFSET ??_C@_0N@HLEBDOBD@DISCONNECTED?$AA@
  0135d	e8 00 00 00 00	 call	 _QueueCommandToHost
  01362	83 c4 04	 add	 esp, 4

; 1678 : 				sprintf(HostCmd, "STATUS ARQ CONNECTION ENDED WITH %s", strRemoteCallsign);

  01365	68 00 00 00 00	 push	 OFFSET _strRemoteCallsign
  0136a	68 00 00 00 00	 push	 OFFSET ??_C@_0CE@KGIEGGGH@STATUS?5ARQ?5CONNECTION?5ENDED?5WITH@
  0136f	8d 45 90	 lea	 eax, DWORD PTR _HostCmd$[ebp]
  01372	50		 push	 eax
  01373	e8 00 00 00 00	 call	 _sprintf
  01378	83 c4 0c	 add	 esp, 12			; 0000000cH

; 1679 : 				QueueCommandToHost(HostCmd);

  0137b	8d 45 90	 lea	 eax, DWORD PTR _HostCmd$[ebp]
  0137e	50		 push	 eax
  0137f	e8 00 00 00 00	 call	 _QueueCommandToHost
  01384	83 c4 04	 add	 esp, 4

; 1680 :       
; 1681 : 				bytLastARQSessionID = bytSessionID; // capture this session ID to allow answering DISC from DISC state

  01387	a0 00 00 00 00	 mov	 al, BYTE PTR _bytSessionID
  0138c	a2 00 00 00 00	 mov	 BYTE PTR _bytLastARQSessionID, al

; 1682 : 				blnDISCRepeating = FALSE;

  01391	c7 05 00 00 00
	00 00 00 00 00	 mov	 DWORD PTR _blnDISCRepeating, 0

; 1683 : 				tmrFinalID = 500;

  0139b	c7 05 00 00 00
	00 f4 01 00 00	 mov	 DWORD PTR _tmrFinalID, 500 ; 000001f4H

; 1684 : 				ClearDataToSend();

  013a5	e8 00 00 00 00	 call	 _ClearDataToSend

; 1685 : 				SetARDOPProtocolState(DISC);

  013aa	6a 01		 push	 1
  013ac	e8 00 00 00 00	 call	 _SetARDOPProtocolState
  013b1	83 c4 04	 add	 esp, 4

; 1686 : 				InitializeConnection();

  013b4	e8 00 00 00 00	 call	 _InitializeConnection

; 1687 : 				blnEnbARQRpt = FALSE;

  013b9	c7 05 00 00 00
	00 00 00 00 00	 mov	 DWORD PTR _blnEnbARQRpt, 0

; 1688 : 
; 1689 : 				EncLen = Encode4FSKControl(END, bytSessionID, bytEncodedBytes);

  013c3	68 00 00 00 00	 push	 OFFSET _bytEncodedBytes
  013c8	a0 00 00 00 00	 mov	 al, BYTE PTR _bytSessionID
  013cd	50		 push	 eax
  013ce	6a 2c		 push	 44			; 0000002cH
  013d0	e8 00 00 00 00	 call	 _Encode4FSKControl
  013d5	83 c4 0c	 add	 esp, 12			; 0000000cH
  013d8	a3 00 00 00 00	 mov	 DWORD PTR _EncLen, eax

; 1690 : 				Mod4FSKDataAndPlay(END, &bytEncodedBytes[0], EncLen, LeaderLength);		// only returns when all sent

  013dd	a1 00 00 00 00	 mov	 eax, DWORD PTR _LeaderLength
  013e2	50		 push	 eax
  013e3	8b 0d 00 00 00
	00		 mov	 ecx, DWORD PTR _EncLen
  013e9	51		 push	 ecx
  013ea	68 00 00 00 00	 push	 OFFSET _bytEncodedBytes
  013ef	6a 2c		 push	 44			; 0000002cH
  013f1	e8 00 00 00 00	 call	 _Mod4FSKDataAndPlay
  013f6	83 c4 10	 add	 esp, 16			; 00000010H
  013f9	e9 30 01 00 00	 jmp	 $LN13@ProcessRcv
$LN8@ProcessRcv:

; 1691 : 			}
; 1692 : 				
; 1693 : 			else if (intFrameType == END)	// ' if END

  013fe	0f b6 45 08	 movzx	 eax, BYTE PTR _intFrameType$[ebp]
  01402	83 f8 2c	 cmp	 eax, 44			; 0000002cH
  01405	0f 85 9c 00 00
	00		 jne	 $LN6@ProcessRcv

; 1694 : 			{
; 1695 : 				//if (DebugLog) Debugprintf(("[ARDOPprotocol.ProcessRcvdARQFrame]  END received ... going to DISC state")
; 1696 : 				//If MCB.AccumulateStats Then LogStats()
; 1697 : 					
; 1698 : 				QueueCommandToHost("DISCONNECTED");

  0140b	68 00 00 00 00	 push	 OFFSET ??_C@_0N@HLEBDOBD@DISCONNECTED?$AA@
  01410	e8 00 00 00 00	 call	 _QueueCommandToHost
  01415	83 c4 04	 add	 esp, 4

; 1699 : 				sprintf(HostCmd, "STATUS ARQ CONNECTION ENDED WITH %s", strRemoteCallsign);

  01418	68 00 00 00 00	 push	 OFFSET _strRemoteCallsign
  0141d	68 00 00 00 00	 push	 OFFSET ??_C@_0CE@KGIEGGGH@STATUS?5ARQ?5CONNECTION?5ENDED?5WITH@
  01422	8d 45 90	 lea	 eax, DWORD PTR _HostCmd$[ebp]
  01425	50		 push	 eax
  01426	e8 00 00 00 00	 call	 _sprintf
  0142b	83 c4 0c	 add	 esp, 12			; 0000000cH

; 1700 : 				QueueCommandToHost(HostCmd);

  0142e	8d 45 90	 lea	 eax, DWORD PTR _HostCmd$[ebp]
  01431	50		 push	 eax
  01432	e8 00 00 00 00	 call	 _QueueCommandToHost
  01437	83 c4 04	 add	 esp, 4

; 1701 : 				ClearDataToSend();

  0143a	e8 00 00 00 00	 call	 _ClearDataToSend

; 1702 : 				blnDISCRepeating = FALSE;

  0143f	c7 05 00 00 00
	00 00 00 00 00	 mov	 DWORD PTR _blnDISCRepeating, 0

; 1703 : 
; 1704 : 				if (CheckValidCallsignSyntax(strLocalCallsign))

  01449	68 00 00 00 00	 push	 OFFSET _strLocalCallsign
  0144e	e8 00 00 00 00	 call	 _CheckValidCallsignSyntax
  01453	83 c4 04	 add	 esp, 4
  01456	85 c0		 test	 eax, eax
  01458	74 39		 je	 SHORT $LN5@ProcessRcv

; 1705 : 				{
; 1706 : 					dttLastFECIDSent = Now;

  0145a	e8 00 00 00 00	 call	 _getTicks
  0145f	a3 00 00 00 00	 mov	 DWORD PTR _dttLastFECIDSent, eax

; 1707 : 					EncLen = Encode4FSKIDFrame(strLocalCallsign, GridSquare, bytEncodedBytes);

  01464	68 00 00 00 00	 push	 OFFSET _bytEncodedBytes
  01469	68 00 00 00 00	 push	 OFFSET _GridSquare
  0146e	68 00 00 00 00	 push	 OFFSET _strLocalCallsign
  01473	e8 00 00 00 00	 call	 _Encode4FSKIDFrame
  01478	83 c4 0c	 add	 esp, 12			; 0000000cH
  0147b	a3 00 00 00 00	 mov	 DWORD PTR _EncLen, eax

; 1708 : 					Mod4FSKDataAndPlay(0x30, &bytEncodedBytes[0], 16, 0);		// only returns when all sent

  01480	6a 00		 push	 0
  01482	6a 10		 push	 16			; 00000010H
  01484	68 00 00 00 00	 push	 OFFSET _bytEncodedBytes
  01489	6a 30		 push	 48			; 00000030H
  0148b	e8 00 00 00 00	 call	 _Mod4FSKDataAndPlay
  01490	83 c4 10	 add	 esp, 16			; 00000010H
$LN5@ProcessRcv:

; 1709 : 				}
; 1710 : 					
; 1711 : 				SetARDOPProtocolState(DISC);

  01493	6a 01		 push	 1
  01495	e8 00 00 00 00	 call	 _SetARDOPProtocolState
  0149a	83 c4 04	 add	 esp, 4

; 1712 : 				InitializeConnection();

  0149d	e8 00 00 00 00	 call	 _InitializeConnection
  014a2	e9 87 00 00 00	 jmp	 $LN13@ProcessRcv
$LN6@ProcessRcv:

; 1713 : 			}
; 1714 : 			else if (intFrameType == BREAK)  // if BREAK

  014a7	0f b6 45 08	 movzx	 eax, BYTE PTR _intFrameType$[ebp]
  014ab	83 f8 23	 cmp	 eax, 35			; 00000023H
  014ae	75 7e		 jne	 SHORT $LN13@ProcessRcv

; 1715 : 			{
; 1716 : 				//' Initiate the transisiton to IRS
; 1717 : 				
; 1718 : 				if (DebugLog) Debugprintf("[ARDOPprotocol.ProcessRcvdARQFrame] BREAK Rcvd from ARQState ISSData, Go to ProtocolState IDLE, send IDLE");

  014b0	83 3d 00 00 00
	00 00		 cmp	 DWORD PTR _DebugLog, 0
  014b7	74 0d		 je	 SHORT $LN2@ProcessRcv
  014b9	68 00 00 00 00	 push	 OFFSET ??_C@_0GK@OLIFPLPK@?$FLARDOPprotocol?4ProcessRcvdARQFra@
  014be	e8 00 00 00 00	 call	 _Debugprintf
  014c3	83 c4 04	 add	 esp, 4
$LN2@ProcessRcv:

; 1719 :                       					
; 1720 : 				dttTimeoutTrip = Now;                      

  014c6	e8 00 00 00 00	 call	 _getTicks
  014cb	a3 00 00 00 00	 mov	 DWORD PTR _dttTimeoutTrip, eax

; 1721 : 				SetARDOPProtocolState(IDLE);		//': ARQState = ARQSubStates.ISSIdle

  014d0	6a 08		 push	 8
  014d2	e8 00 00 00 00	 call	 _SetARDOPProtocolState
  014d7	83 c4 04	 add	 esp, 4

; 1722 : 				intRepeatCount = 0;

  014da	c7 05 00 00 00
	00 00 00 00 00	 mov	 DWORD PTR _intRepeatCount, 0

; 1723 : 				intFrameRepeatInterval = 2000;

  014e4	c7 05 00 00 00
	00 d0 07 00 00	 mov	 DWORD PTR _intFrameRepeatInterval, 2000 ; 000007d0H

; 1724 : 				blnEnbARQRpt = TRUE;	//  setup for repeats if no IRS answer

  014ee	c7 05 00 00 00
	00 01 00 00 00	 mov	 DWORD PTR _blnEnbARQRpt, 1

; 1725 : 
; 1726 : 				EncLen = Encode4FSKControl(IDLEFRAME, bytSessionID, bytEncodedBytes);

  014f8	68 00 00 00 00	 push	 OFFSET _bytEncodedBytes
  014fd	a0 00 00 00 00	 mov	 al, BYTE PTR _bytSessionID
  01502	50		 push	 eax
  01503	6a 26		 push	 38			; 00000026H
  01505	e8 00 00 00 00	 call	 _Encode4FSKControl
  0150a	83 c4 0c	 add	 esp, 12			; 0000000cH
  0150d	a3 00 00 00 00	 mov	 DWORD PTR _EncLen, eax

; 1727 : 				Mod4FSKDataAndPlay(IDLEFRAME, &bytEncodedBytes[0], EncLen, LeaderLength);		// only returns when all sent

  01512	a1 00 00 00 00	 mov	 eax, DWORD PTR _LeaderLength
  01517	50		 push	 eax
  01518	8b 0d 00 00 00
	00		 mov	 ecx, DWORD PTR _EncLen
  0151e	51		 push	 ecx
  0151f	68 00 00 00 00	 push	 OFFSET _bytEncodedBytes
  01524	6a 26		 push	 38			; 00000026H
  01526	e8 00 00 00 00	 call	 _Mod4FSKDataAndPlay
  0152b	83 c4 10	 add	 esp, 16			; 00000010H
$LN13@ProcessRcv:

; 1728 : 			}
; 1729 : 			return;

  0152e	eb 0d		 jmp	 SHORT $LN108@ProcessRcv
$LN1@ProcessRcv:

; 1730 : 		}
; 1731 : 
; 1732 : 	default:
; 1733 : 		Debugprintf("Shouldnt get Here" );           

  01530	68 00 00 00 00	 push	 OFFSET ??_C@_0BC@MNGIOAAA@Shouldnt?5get?5Here?$AA@
  01535	e8 00 00 00 00	 call	 _Debugprintf
  0153a	83 c4 04	 add	 esp, 4
$LN108@ProcessRcv:

; 1734 : 		//Logs.Exception("[ARDOPprotocol.ProcessRcvdARQFrame] 
; 1735 : 	}
; 1736 : 		// Unhandled Protocol state=" & GetARDOPProtocolState.ToString & "  ARQState=" & ARQState.ToString)
; 1737 : }

  0153d	52		 push	 edx
  0153e	8b cd		 mov	 ecx, ebp
  01540	50		 push	 eax
  01541	8d 15 00 00 00
	00		 lea	 edx, DWORD PTR $LN113@ProcessRcv
  01547	e8 00 00 00 00	 call	 @_RTC_CheckStackVars@8
  0154c	58		 pop	 eax
  0154d	5a		 pop	 edx
  0154e	5f		 pop	 edi
  0154f	5e		 pop	 esi
  01550	5b		 pop	 ebx
  01551	8b 4d fc	 mov	 ecx, DWORD PTR __$ArrayPad$[ebp]
  01554	33 cd		 xor	 ecx, ebp
  01556	e8 00 00 00 00	 call	 @__security_check_cookie@4
  0155b	81 c4 44 01 00
	00		 add	 esp, 324		; 00000144H
  01561	3b ec		 cmp	 ebp, esp
  01563	e8 00 00 00 00	 call	 __RTC_CheckEsp
  01568	8b e5		 mov	 esp, ebp
  0156a	5d		 pop	 ebp
  0156b	c3		 ret	 0
$LN113@ProcessRcv:
  0156c	02 00 00 00	 DD	 2
  01570	00 00 00 00	 DD	 $LN112@ProcessRcv
$LN112@ProcessRcv:
  01574	90 ff ff ff	 DD	 -112			; ffffff90H
  01578	50 00 00 00	 DD	 80			; 00000050H
  0157c	00 00 00 00	 DD	 $LN110@ProcessRcv
  01580	87 ff ff ff	 DD	 -121			; ffffff87H
  01584	01 00 00 00	 DD	 1
  01588	00 00 00 00	 DD	 $LN111@ProcessRcv
$LN111@ProcessRcv:
  0158c	62		 DB	 98			; 00000062H
  0158d	79		 DB	 121			; 00000079H
  0158e	74		 DB	 116			; 00000074H
  0158f	44		 DB	 68			; 00000044H
  01590	75		 DB	 117			; 00000075H
  01591	6d		 DB	 109			; 0000006dH
  01592	6d		 DB	 109			; 0000006dH
  01593	79		 DB	 121			; 00000079H
  01594	00		 DB	 0
$LN110@ProcessRcv:
  01595	48		 DB	 72			; 00000048H
  01596	6f		 DB	 111			; 0000006fH
  01597	73		 DB	 115			; 00000073H
  01598	74		 DB	 116			; 00000074H
  01599	43		 DB	 67			; 00000043H
  0159a	6d		 DB	 109			; 0000006dH
  0159b	64		 DB	 100			; 00000064H
  0159c	00		 DB	 0
  0159d	8d 49 00	 npad	 3
$LN114@ProcessRcv:
  015a0	00 00 00 00	 DD	 $LN105@ProcessRcv
  015a4	00 00 00 00	 DD	 $LN38@ProcessRcv
  015a8	00 00 00 00	 DD	 $LN95@ProcessRcv
  015ac	00 00 00 00	 DD	 $LN1@ProcessRcv
  015b0	00 00 00 00	 DD	 $LN1@ProcessRcv
  015b4	00 00 00 00	 DD	 $LN1@ProcessRcv
  015b8	00 00 00 00	 DD	 $LN1@ProcessRcv
  015bc	00 00 00 00	 DD	 $LN47@ProcessRcv
$LN115@ProcessRcv:
  015c0	00 00 00 00	 DD	 $LN85@ProcessRcv
  015c4	00 00 00 00	 DD	 $LN84@ProcessRcv
  015c8	00 00 00 00	 DD	 $LN83@ProcessRcv
  015cc	00 00 00 00	 DD	 $LN82@ProcessRcv
$LN116@ProcessRcv:
  015d0	00 00 00 00	 DD	 $LN77@ProcessRcv
  015d4	00 00 00 00	 DD	 $LN76@ProcessRcv
  015d8	00 00 00 00	 DD	 $LN75@ProcessRcv
  015dc	00 00 00 00	 DD	 $LN74@ProcessRcv
$LN117@ProcessRcv:
  015e0	00 00 00 00	 DD	 $LN33@ProcessRcv
  015e4	00 00 00 00	 DD	 $LN32@ProcessRcv
  015e8	00 00 00 00	 DD	 $LN31@ProcessRcv
  015ec	00 00 00 00	 DD	 $LN30@ProcessRcv
_ProcessRcvdARQFrame ENDP
_TEXT	ENDS
EXTRN	_ARQBandwidth:DWORD
; Function compile flags: /Odtp /RTCsu /ZI
;	COMDAT _IRSNegotiateBW
_TEXT	SEGMENT
tv64 = -196						; size = 4
_intConReqFrameType$ = 8				; size = 4
_IRSNegotiateBW PROC					; COMDAT

; 1743 : {

  00000	55		 push	 ebp
  00001	8b ec		 mov	 ebp, esp
  00003	81 ec c4 00 00
	00		 sub	 esp, 196		; 000000c4H
  00009	53		 push	 ebx
  0000a	56		 push	 esi
  0000b	57		 push	 edi
  0000c	8d bd 3c ff ff
	ff		 lea	 edi, DWORD PTR [ebp-196]
  00012	b9 31 00 00 00	 mov	 ecx, 49			; 00000031H
  00017	b8 cc cc cc cc	 mov	 eax, -858993460		; ccccccccH
  0001c	f3 ab		 rep stosd

; 1744 : 	//	returns the correct ConAck frame number to establish the session bandwidth to the ISS or the ConRejBW frame number if incompatible 
; 1745 :     //  if acceptable bandwidth sets stcConnection.intSessionBW
; 1746 : 
; 1747 : 	switch (ARQBandwidth)

  0001e	a1 00 00 00 00	 mov	 eax, DWORD PTR _ARQBandwidth
  00023	89 85 3c ff ff
	ff		 mov	 DWORD PTR tv64[ebp], eax
  00029	83 bd 3c ff ff
	ff 07		 cmp	 DWORD PTR tv64[ebp], 7
  00030	0f 87 fa 01 00
	00		 ja	 $LN41@IRSNegotia
  00036	8b 8d 3c ff ff
	ff		 mov	 ecx, DWORD PTR tv64[ebp]
  0003c	ff 24 8d 00 00
	00 00		 jmp	 DWORD PTR $LN45@IRSNegotia[ecx*4]
$LN40@IRSNegotia:

; 1748 : 	{
; 1749 : 	case B200FORCED:
; 1750 : 
; 1751 : 		if ((intConReqFrameType >= 0x31 && intConReqFrameType <= 0x34)|| intConReqFrameType == 0x35)

  00043	83 7d 08 31	 cmp	 DWORD PTR _intConReqFrameType$[ebp], 49 ; 00000031H
  00047	7c 06		 jl	 SHORT $LN37@IRSNegotia
  00049	83 7d 08 34	 cmp	 DWORD PTR _intConReqFrameType$[ebp], 52 ; 00000034H
  0004d	7e 06		 jle	 SHORT $LN38@IRSNegotia
$LN37@IRSNegotia:
  0004f	83 7d 08 35	 cmp	 DWORD PTR _intConReqFrameType$[ebp], 53 ; 00000035H
  00053	75 14		 jne	 SHORT $LN39@IRSNegotia
$LN38@IRSNegotia:

; 1752 : 		{
; 1753 : 			intSessionBW = 200;

  00055	c7 05 00 00 00
	00 c8 00 00 00	 mov	 DWORD PTR _intSessionBW, 200 ; 000000c8H

; 1754 : 			return 0x39;		 // ConAck200

  0005f	b8 39 00 00 00	 mov	 eax, 57			; 00000039H
  00064	e9 cc 01 00 00	 jmp	 $LN43@IRSNegotia
$LN39@IRSNegotia:

; 1755 : 		}
; 1756 : 		break;

  00069	e9 c2 01 00 00	 jmp	 $LN41@IRSNegotia
$LN36@IRSNegotia:

; 1757 : 
; 1758 : 	case B500FORCED:
; 1759 : 		
; 1760 : 		if ((intConReqFrameType >= 0x32 && intConReqFrameType <= 0x34) || intConReqFrameType == 0x36)

  0006e	83 7d 08 32	 cmp	 DWORD PTR _intConReqFrameType$[ebp], 50 ; 00000032H
  00072	7c 06		 jl	 SHORT $LN33@IRSNegotia
  00074	83 7d 08 34	 cmp	 DWORD PTR _intConReqFrameType$[ebp], 52 ; 00000034H
  00078	7e 06		 jle	 SHORT $LN34@IRSNegotia
$LN33@IRSNegotia:
  0007a	83 7d 08 36	 cmp	 DWORD PTR _intConReqFrameType$[ebp], 54 ; 00000036H
  0007e	75 14		 jne	 SHORT $LN35@IRSNegotia
$LN34@IRSNegotia:

; 1761 : 		{
; 1762 : 			intSessionBW = 500;

  00080	c7 05 00 00 00
	00 f4 01 00 00	 mov	 DWORD PTR _intSessionBW, 500 ; 000001f4H

; 1763 : 			return 0x3A;	// ' ConAck500

  0008a	b8 3a 00 00 00	 mov	 eax, 58			; 0000003aH
  0008f	e9 a1 01 00 00	 jmp	 $LN43@IRSNegotia
$LN35@IRSNegotia:

; 1764 : 		}
; 1765 : 		break;

  00094	e9 97 01 00 00	 jmp	 $LN41@IRSNegotia
$LN32@IRSNegotia:

; 1766 : 
; 1767 : 	case B1000FORCED:
; 1768 : 		
; 1769 : 		if ((intConReqFrameType >= 0x33 && intConReqFrameType <= 0x34) || intConReqFrameType == 0x37)

  00099	83 7d 08 33	 cmp	 DWORD PTR _intConReqFrameType$[ebp], 51 ; 00000033H
  0009d	7c 06		 jl	 SHORT $LN29@IRSNegotia
  0009f	83 7d 08 34	 cmp	 DWORD PTR _intConReqFrameType$[ebp], 52 ; 00000034H
  000a3	7e 06		 jle	 SHORT $LN30@IRSNegotia
$LN29@IRSNegotia:
  000a5	83 7d 08 37	 cmp	 DWORD PTR _intConReqFrameType$[ebp], 55 ; 00000037H
  000a9	75 14		 jne	 SHORT $LN31@IRSNegotia
$LN30@IRSNegotia:

; 1770 : 		{
; 1771 : 			intSessionBW = 1000;

  000ab	c7 05 00 00 00
	00 e8 03 00 00	 mov	 DWORD PTR _intSessionBW, 1000 ; 000003e8H

; 1772 : 			return 0x3B;		 // ConAck1000

  000b5	b8 3b 00 00 00	 mov	 eax, 59			; 0000003bH
  000ba	e9 76 01 00 00	 jmp	 $LN43@IRSNegotia
$LN31@IRSNegotia:

; 1773 : 		}
; 1774 : 		break;

  000bf	e9 6c 01 00 00	 jmp	 $LN41@IRSNegotia
$LN28@IRSNegotia:

; 1775 : 
; 1776 : 	case B2000FORCED:
; 1777 : 		
; 1778 : 		if (intConReqFrameType == 0x34 || intConReqFrameType == 0x38)

  000c4	83 7d 08 34	 cmp	 DWORD PTR _intConReqFrameType$[ebp], 52 ; 00000034H
  000c8	74 06		 je	 SHORT $LN26@IRSNegotia
  000ca	83 7d 08 38	 cmp	 DWORD PTR _intConReqFrameType$[ebp], 56 ; 00000038H
  000ce	75 14		 jne	 SHORT $LN27@IRSNegotia
$LN26@IRSNegotia:

; 1779 : 		{
; 1780 : 			intSessionBW = 2000;

  000d0	c7 05 00 00 00
	00 d0 07 00 00	 mov	 DWORD PTR _intSessionBW, 2000 ; 000007d0H

; 1781 : 			return 0x3C;		//  ConAck2000

  000da	b8 3c 00 00 00	 mov	 eax, 60			; 0000003cH
  000df	e9 51 01 00 00	 jmp	 $LN43@IRSNegotia
$LN27@IRSNegotia:

; 1782 : 		}
; 1783 : 		break;

  000e4	e9 47 01 00 00	 jmp	 $LN41@IRSNegotia
$LN25@IRSNegotia:

; 1784 : 
; 1785 : 	case B200MAX:
; 1786 : 		
; 1787 : 		if (intConReqFrameType >= 0x31 && intConReqFrameType <= 0x35)

  000e9	83 7d 08 31	 cmp	 DWORD PTR _intConReqFrameType$[ebp], 49 ; 00000031H
  000ed	7c 1a		 jl	 SHORT $LN24@IRSNegotia
  000ef	83 7d 08 35	 cmp	 DWORD PTR _intConReqFrameType$[ebp], 53 ; 00000035H
  000f3	7f 14		 jg	 SHORT $LN24@IRSNegotia

; 1788 : 		{
; 1789 : 			intSessionBW = 200;

  000f5	c7 05 00 00 00
	00 c8 00 00 00	 mov	 DWORD PTR _intSessionBW, 200 ; 000000c8H

; 1790 : 			return 0x39;		 // ConAck200

  000ff	b8 39 00 00 00	 mov	 eax, 57			; 00000039H
  00104	e9 2c 01 00 00	 jmp	 $LN43@IRSNegotia
$LN24@IRSNegotia:

; 1791 : 		}
; 1792 : 		break;

  00109	e9 22 01 00 00	 jmp	 $LN41@IRSNegotia
$LN23@IRSNegotia:

; 1793 : 
; 1794 : 	case B500MAX:
; 1795 : 		
; 1796 : 		if (intConReqFrameType == 0x31 || intConReqFrameType == 0x35)

  0010e	83 7d 08 31	 cmp	 DWORD PTR _intConReqFrameType$[ebp], 49 ; 00000031H
  00112	74 06		 je	 SHORT $LN21@IRSNegotia
  00114	83 7d 08 35	 cmp	 DWORD PTR _intConReqFrameType$[ebp], 53 ; 00000035H
  00118	75 14		 jne	 SHORT $LN22@IRSNegotia
$LN21@IRSNegotia:

; 1797 : 		{
; 1798 : 			intSessionBW = 200;

  0011a	c7 05 00 00 00
	00 c8 00 00 00	 mov	 DWORD PTR _intSessionBW, 200 ; 000000c8H

; 1799 : 			return 0x39;		 // ConAck200

  00124	b8 39 00 00 00	 mov	 eax, 57			; 00000039H
  00129	e9 07 01 00 00	 jmp	 $LN43@IRSNegotia
$LN22@IRSNegotia:

; 1800 : 		}
; 1801 : 		if ((intConReqFrameType >= 0x32 && intConReqFrameType <= 0x34) || intConReqFrameType == 0x36)

  0012e	83 7d 08 32	 cmp	 DWORD PTR _intConReqFrameType$[ebp], 50 ; 00000032H
  00132	7c 06		 jl	 SHORT $LN18@IRSNegotia
  00134	83 7d 08 34	 cmp	 DWORD PTR _intConReqFrameType$[ebp], 52 ; 00000034H
  00138	7e 06		 jle	 SHORT $LN19@IRSNegotia
$LN18@IRSNegotia:
  0013a	83 7d 08 36	 cmp	 DWORD PTR _intConReqFrameType$[ebp], 54 ; 00000036H
  0013e	75 14		 jne	 SHORT $LN20@IRSNegotia
$LN19@IRSNegotia:

; 1802 : 		{
; 1803 : 			intSessionBW = 500;

  00140	c7 05 00 00 00
	00 f4 01 00 00	 mov	 DWORD PTR _intSessionBW, 500 ; 000001f4H

; 1804 : 			return 0x3A;		 // ConAck500

  0014a	b8 3a 00 00 00	 mov	 eax, 58			; 0000003aH
  0014f	e9 e1 00 00 00	 jmp	 $LN43@IRSNegotia
$LN20@IRSNegotia:

; 1805 : 		}
; 1806 : 		break;

  00154	e9 d7 00 00 00	 jmp	 $LN41@IRSNegotia
$LN17@IRSNegotia:

; 1807 : 
; 1808 : 	case B1000MAX:
; 1809 : 		
; 1810 : 		if (intConReqFrameType == 0x31 || intConReqFrameType == 0x35)

  00159	83 7d 08 31	 cmp	 DWORD PTR _intConReqFrameType$[ebp], 49 ; 00000031H
  0015d	74 06		 je	 SHORT $LN15@IRSNegotia
  0015f	83 7d 08 35	 cmp	 DWORD PTR _intConReqFrameType$[ebp], 53 ; 00000035H
  00163	75 14		 jne	 SHORT $LN16@IRSNegotia
$LN15@IRSNegotia:

; 1811 : 		{
; 1812 : 			intSessionBW = 200;

  00165	c7 05 00 00 00
	00 c8 00 00 00	 mov	 DWORD PTR _intSessionBW, 200 ; 000000c8H

; 1813 : 			return 0x39;		 // ConAck200

  0016f	b8 39 00 00 00	 mov	 eax, 57			; 00000039H
  00174	e9 bc 00 00 00	 jmp	 $LN43@IRSNegotia
$LN16@IRSNegotia:

; 1814 : 		}
; 1815 : 		if (intConReqFrameType == 0x32 || intConReqFrameType == 0x36)

  00179	83 7d 08 32	 cmp	 DWORD PTR _intConReqFrameType$[ebp], 50 ; 00000032H
  0017d	74 06		 je	 SHORT $LN13@IRSNegotia
  0017f	83 7d 08 36	 cmp	 DWORD PTR _intConReqFrameType$[ebp], 54 ; 00000036H
  00183	75 14		 jne	 SHORT $LN14@IRSNegotia
$LN13@IRSNegotia:

; 1816 : 		{
; 1817 : 			intSessionBW = 500;

  00185	c7 05 00 00 00
	00 f4 01 00 00	 mov	 DWORD PTR _intSessionBW, 500 ; 000001f4H

; 1818 : 			return 0x3A;		 // ConAck500

  0018f	b8 3a 00 00 00	 mov	 eax, 58			; 0000003aH
  00194	e9 9c 00 00 00	 jmp	 $LN43@IRSNegotia
$LN14@IRSNegotia:

; 1819 : 		}
; 1820 : 		if ((intConReqFrameType >= 0x33 && intConReqFrameType <= 0x34) || intConReqFrameType == 0x37)

