; Listing generated by Microsoft (R) Optimizing Compiler Version 14.00.50727.42 

	TITLE	c:\SkyDrive\Dev\Source\ARDOPC\BusyDetect.c
	.686P
	.XMM
	include listing.inc
	.model	flat

INCLUDELIB LIBCMTD
INCLUDELIB OLDNAMES

PUBLIC	_blnLastBusy
PUBLIC	_intLastStart
PUBLIC	_intLastStop
PUBLIC	_intBusyOnCnt
PUBLIC	_intBusyOffCnt
PUBLIC	_dttLastBusyTrip
PUBLIC	_dttPriorLastBusyTrip
PUBLIC	_dttLastBusyClear
PUBLIC	_intHoldMs
_DATA	SEGMENT
COMM	_dblAvgPk2BaselineRatio:DWORD
COMM	_dblAvgStoNSlowNarrow:DWORD
COMM	_dblAvgBaselineFast:DWORD
COMM	_dblAvgStoNFastWide:DWORD
COMM	_dttLastTrip:DWORD
COMM	_dblAvgStoNSlowWide:DWORD
COMM	_dblAvgStoNFastNarrow:DWORD
COMM	_LastBusyOff:DWORD
COMM	_LastBusyOn:DWORD
COMM	_dblAvgBaselineSlow:DWORD
_DATA	ENDS
_BSS	SEGMENT
_blnLastBusy DD	01H DUP (?)
_intLastStart DD 01H DUP (?)
_intLastStop DD	01H DUP (?)
_intBusyOnCnt DD 01H DUP (?)
_intBusyOffCnt DD 01H DUP (?)
_dttLastBusyTrip DD 01H DUP (?)
_dttPriorLastBusyTrip DD 01H DUP (?)
_dttLastBusyClear DD 01H DUP (?)
_BSS	ENDS
_DATA	SEGMENT
_intHoldMs DD	01388H
_DATA	ENDS
PUBLIC	_ClearBusy
EXTRN	_getTicks:PROC
EXTRN	__RTC_CheckEsp:PROC
EXTRN	__RTC_Shutdown:PROC
EXTRN	__RTC_InitBase:PROC
;	COMDAT rtc$TMZ
; File c:\skydrive\dev\source\ardopc\busydetect.c
rtc$TMZ	SEGMENT
__RTC_Shutdown.rtc$TMZ DD FLAT:__RTC_Shutdown
rtc$TMZ	ENDS
;	COMDAT rtc$IMZ
rtc$IMZ	SEGMENT
__RTC_InitBase.rtc$IMZ DD FLAT:__RTC_InitBase
; Function compile flags: /Odtp /RTCsu /ZI
rtc$IMZ	ENDS
;	COMDAT _ClearBusy
_TEXT	SEGMENT
_ClearBusy PROC						; COMDAT

; 38   : {

  00000	55		 push	 ebp
  00001	8b ec		 mov	 ebp, esp
  00003	81 ec c0 00 00
	00		 sub	 esp, 192		; 000000c0H
  00009	53		 push	 ebx
  0000a	56		 push	 esi
  0000b	57		 push	 edi
  0000c	8d bd 40 ff ff
	ff		 lea	 edi, DWORD PTR [ebp-192]
  00012	b9 30 00 00 00	 mov	 ecx, 48			; 00000030H
  00017	b8 cc cc cc cc	 mov	 eax, -858993460		; ccccccccH
  0001c	f3 ab		 rep stosd

; 39   : 	dttLastBusyTrip = Now;

  0001e	e8 00 00 00 00	 call	 _getTicks
  00023	a3 00 00 00 00	 mov	 DWORD PTR _dttLastBusyTrip, eax

; 40   : 	dttPriorLastBusyTrip = dttLastBusyTrip;

  00028	a1 00 00 00 00	 mov	 eax, DWORD PTR _dttLastBusyTrip
  0002d	a3 00 00 00 00	 mov	 DWORD PTR _dttPriorLastBusyTrip, eax

; 41   : 	dttLastBusyClear = dttLastBusyTrip + 610;	// This insures test in ARDOPprotocol ~ line 887 will work 

  00032	a1 00 00 00 00	 mov	 eax, DWORD PTR _dttLastBusyTrip
  00037	05 62 02 00 00	 add	 eax, 610		; 00000262H
  0003c	a3 00 00 00 00	 mov	 DWORD PTR _dttLastBusyClear, eax

; 42   : 	dttLastTrip = dttLastBusyTrip -intHoldMs;	// This clears the busy detect immediatly (required for scanning when re enabled by Listen=True

  00041	a1 00 00 00 00	 mov	 eax, DWORD PTR _dttLastBusyTrip
  00046	2b 05 00 00 00
	00		 sub	 eax, DWORD PTR _intHoldMs
  0004c	a3 00 00 00 00	 mov	 DWORD PTR _dttLastTrip, eax

; 43   : 	blnLastBusy = False;

  00051	c7 05 00 00 00
	00 00 00 00 00	 mov	 DWORD PTR _blnLastBusy, 0

; 44   : 	intBusyOnCnt = 0;

  0005b	c7 05 00 00 00
	00 00 00 00 00	 mov	 DWORD PTR _intBusyOnCnt, 0

; 45   : 	intBusyOffCnt = 0;

  00065	c7 05 00 00 00
	00 00 00 00 00	 mov	 DWORD PTR _intBusyOffCnt, 0

; 46   : 	intLastStart = 0;

  0006f	c7 05 00 00 00
	00 00 00 00 00	 mov	 DWORD PTR _intLastStart, 0

; 47   : 	intLastStop = 0;		// This will force the busy detector to ignore old averages and initialze the rolling average filters

  00079	c7 05 00 00 00
	00 00 00 00 00	 mov	 DWORD PTR _intLastStop, 0

; 48   : }

  00083	5f		 pop	 edi
  00084	5e		 pop	 esi
  00085	5b		 pop	 ebx
  00086	81 c4 c0 00 00
	00		 add	 esp, 192		; 000000c0H
  0008c	3b ec		 cmp	 ebp, esp
  0008e	e8 00 00 00 00	 call	 __RTC_CheckEsp
  00093	8b e5		 mov	 esp, ebp
  00095	5d		 pop	 ebp
  00096	c3		 ret	 0
_ClearBusy ENDP
_TEXT	ENDS
PUBLIC	__real@3f90624dd2f1a9fc
PUBLIC	__real@4014000000000000
PUBLIC	__real@3f947ae147ae147b
PUBLIC	__real@4008000000000000
PUBLIC	__real@3f80624dd2f1a9fc
PUBLIC	__real@4010000000000000
PUBLIC	__real@3ff0000000000000
PUBLIC	_SortSignals2
PUBLIC	__real@00000000
PUBLIC	__real@3e4ccccd
PUBLIC	_BusyDetect3
EXTRN	_pow:PROC
EXTRN	_BusyDet:DWORD
EXTRN	_ARQBandwidth:DWORD
EXTRN	__fltused:DWORD
EXTRN	@_RTC_CheckStackVars@8:PROC
;	COMDAT __real@3f90624dd2f1a9fc
CONST	SEGMENT
__real@3f90624dd2f1a9fc DQ 03f90624dd2f1a9fcr	; 0.016
CONST	ENDS
;	COMDAT __real@4014000000000000
CONST	SEGMENT
__real@4014000000000000 DQ 04014000000000000r	; 5
CONST	ENDS
;	COMDAT __real@3f947ae147ae147b
CONST	SEGMENT
__real@3f947ae147ae147b DQ 03f947ae147ae147br	; 0.02
CONST	ENDS
;	COMDAT __real@4008000000000000
CONST	SEGMENT
__real@4008000000000000 DQ 04008000000000000r	; 3
CONST	ENDS
;	COMDAT __real@3f80624dd2f1a9fc
CONST	SEGMENT
__real@3f80624dd2f1a9fc DQ 03f80624dd2f1a9fcr	; 0.008
CONST	ENDS
;	COMDAT __real@4010000000000000
CONST	SEGMENT
__real@4010000000000000 DQ 04010000000000000r	; 4
CONST	ENDS
;	COMDAT __real@3ff0000000000000
CONST	SEGMENT
__real@3ff0000000000000 DQ 03ff0000000000000r	; 1
CONST	ENDS
;	COMDAT __real@00000000
CONST	SEGMENT
__real@00000000 DD 000000000r			; 0
CONST	ENDS
;	COMDAT __real@3e4ccccd
CONST	SEGMENT
__real@3e4ccccd DD 03e4ccccdr			; 0.2
; Function compile flags: /Odtp /RTCsu /ZI
CONST	ENDS
;	COMDAT _BusyDetect3
_TEXT	SEGMENT
tv247 = -340						; size = 4
tv222 = -340						; size = 4
tv197 = -340						; size = 4
tv172 = -340						; size = 4
tv416 = -336						; size = 4
tv385 = -336						; size = 4
tv354 = -336						; size = 4
tv323 = -336						; size = 4
tv448 = -332						; size = 8
tv444 = -332						; size = 8
tv440 = -332						; size = 8
tv436 = -332						; size = 8
tv401 = -324						; size = 4
tv370 = -324						; size = 4
tv339 = -324						; size = 4
tv308 = -324						; size = 4
tv446 = -320						; size = 8
tv442 = -320						; size = 8
tv438 = -320						; size = 8
tv434 = -320						; size = 8
tv147 = -316						; size = 4
_blnBusy$ = -116					; size = 4
_intWide$ = -104					; size = 4
_intNarrow$ = -92					; size = 4
_dblAvgStoNWide$ = -80					; size = 4
_dblAvgStoNNarrow$ = -68				; size = 4
_dblSlowAlpha$ = -56					; size = 4
_dblAVGBaselineWide$ = -44				; size = 4
_dblAVGBaselineNarrow$ = -32				; size = 4
_dblAVGSignalPerBinWide$ = -20				; size = 4
_dblAVGSignalPerBinNarrow$ = -8				; size = 4
_dblMag$ = 8						; size = 4
_intStart$ = 12						; size = 4
_intStop$ = 16						; size = 4
_BusyDetect3 PROC					; COMDAT

; 190  : {

  00000	55		 push	 ebp
  00001	8b ec		 mov	 ebp, esp
  00003	81 ec 54 01 00
	00		 sub	 esp, 340		; 00000154H
  00009	53		 push	 ebx
  0000a	56		 push	 esi
  0000b	57		 push	 edi
  0000c	8d bd ac fe ff
	ff		 lea	 edi, DWORD PTR [ebp-340]
  00012	b9 55 00 00 00	 mov	 ecx, 85			; 00000055H
  00017	b8 cc cc cc cc	 mov	 eax, -858993460		; ccccccccH
  0001c	f3 ab		 rep stosd

; 191  : 	// each bin is about 12000/1024 or 11.72 Hz
; 192  : 	// this only called while searching for leader ...once leader detected, no longer called.
; 193  : 	// First sort signals and look at highes signals:baseline ratio..
; 194  : 
; 195  : 	float dblAVGSignalPerBinNarrow, dblAVGSignalPerBinWide, dblAVGBaselineNarrow, dblAVGBaselineWide;
; 196  : 	float dblSlowAlpha = 0.2f;

  0001e	d9 05 00 00 00
	00		 fld	 DWORD PTR __real@3e4ccccd
  00024	d9 5d c8	 fstp	 DWORD PTR _dblSlowAlpha$[ebp]

; 197  : 	float dblAvgStoNNarrow = 0, dblAvgStoNWide = 0;

  00027	d9 ee		 fldz
  00029	d9 5d bc	 fstp	 DWORD PTR _dblAvgStoNNarrow$[ebp]
  0002c	d9 ee		 fldz
  0002e	d9 5d b0	 fstp	 DWORD PTR _dblAvgStoNWide$[ebp]

; 198  : 	int intNarrow = 8;  // 8 x 11.72 Hz about 94 z

  00031	c7 45 a4 08 00
	00 00		 mov	 DWORD PTR _intNarrow$[ebp], 8

; 199  : 	int intWide = ((intStop - intStart) * 2) / 3; //* 0.66);

  00038	8b 45 10	 mov	 eax, DWORD PTR _intStop$[ebp]
  0003b	2b 45 0c	 sub	 eax, DWORD PTR _intStart$[ebp]
  0003e	d1 e0		 shl	 eax, 1
  00040	99		 cdq
  00041	b9 03 00 00 00	 mov	 ecx, 3
  00046	f7 f9		 idiv	 ecx
  00048	89 45 98	 mov	 DWORD PTR _intWide$[ebp], eax

; 200  : 	int blnBusy = FALSE;

  0004b	c7 45 8c 00 00
	00 00		 mov	 DWORD PTR _blnBusy$[ebp], 0

; 201  : 
; 202  : 	// First sort signals and look at highest signals:baseline ratio..
; 203  : 	// First narrow band (~94Hz)
; 204  : 
; 205  : 	SortSignals2(dblMag, intStart, intStop, intNarrow, &dblAVGSignalPerBinNarrow, &dblAVGBaselineNarrow);

  00052	8d 45 e0	 lea	 eax, DWORD PTR _dblAVGBaselineNarrow$[ebp]
  00055	50		 push	 eax
  00056	8d 4d f8	 lea	 ecx, DWORD PTR _dblAVGSignalPerBinNarrow$[ebp]
  00059	51		 push	 ecx
  0005a	8b 55 a4	 mov	 edx, DWORD PTR _intNarrow$[ebp]
  0005d	52		 push	 edx
  0005e	8b 45 10	 mov	 eax, DWORD PTR _intStop$[ebp]
  00061	50		 push	 eax
  00062	8b 4d 0c	 mov	 ecx, DWORD PTR _intStart$[ebp]
  00065	51		 push	 ecx
  00066	8b 55 08	 mov	 edx, DWORD PTR _dblMag$[ebp]
  00069	52		 push	 edx
  0006a	e8 00 00 00 00	 call	 _SortSignals2
  0006f	83 c4 18	 add	 esp, 24			; 00000018H

; 206  : 
; 207  : 	if (intLastStart == intStart && intLastStop == intStop)

  00072	a1 00 00 00 00	 mov	 eax, DWORD PTR _intLastStart
  00077	3b 45 0c	 cmp	 eax, DWORD PTR _intStart$[ebp]
  0007a	75 24		 jne	 SHORT $LN16@BusyDetect
  0007c	a1 00 00 00 00	 mov	 eax, DWORD PTR _intLastStop
  00081	3b 45 10	 cmp	 eax, DWORD PTR _intStop$[ebp]
  00084	75 1a		 jne	 SHORT $LN16@BusyDetect

; 208  : 		dblAvgStoNNarrow = (1 - dblSlowAlpha) * dblAvgStoNNarrow + dblSlowAlpha * dblAVGSignalPerBinNarrow / dblAVGBaselineNarrow;

  00086	d9 45 c8	 fld	 DWORD PTR _dblSlowAlpha$[ebp]
  00089	d9 e8		 fld1
  0008b	de e1		 fsubrp	 ST(1), ST(0)
  0008d	d8 4d bc	 fmul	 DWORD PTR _dblAvgStoNNarrow$[ebp]
  00090	d9 45 c8	 fld	 DWORD PTR _dblSlowAlpha$[ebp]
  00093	d8 4d f8	 fmul	 DWORD PTR _dblAVGSignalPerBinNarrow$[ebp]
  00096	d8 75 e0	 fdiv	 DWORD PTR _dblAVGBaselineNarrow$[ebp]
  00099	de c1		 faddp	 ST(1), ST(0)
  0009b	d9 5d bc	 fstp	 DWORD PTR _dblAvgStoNNarrow$[ebp]

; 209  : 	else

  0009e	eb 19		 jmp	 SHORT $LN15@BusyDetect
$LN16@BusyDetect:

; 210  : 	{
; 211  : 		// This initializes the Narrow average after a bandwidth change
; 212  : 
; 213  : 		dblAvgStoNNarrow = dblAVGSignalPerBinNarrow / dblAVGBaselineNarrow;

  000a0	d9 45 f8	 fld	 DWORD PTR _dblAVGSignalPerBinNarrow$[ebp]
  000a3	d8 75 e0	 fdiv	 DWORD PTR _dblAVGBaselineNarrow$[ebp]
  000a6	d9 5d bc	 fstp	 DWORD PTR _dblAvgStoNNarrow$[ebp]

; 214  :  		intLastStart = intStart;

  000a9	8b 45 0c	 mov	 eax, DWORD PTR _intStart$[ebp]
  000ac	a3 00 00 00 00	 mov	 DWORD PTR _intLastStart, eax

; 215  : 		intLastStop = intStop;

  000b1	8b 45 10	 mov	 eax, DWORD PTR _intStop$[ebp]
  000b4	a3 00 00 00 00	 mov	 DWORD PTR _intLastStop, eax
$LN15@BusyDetect:

; 216  : 	}
; 217  : 	
; 218  : 	// Wide band (66% ofr current bandwidth)
; 219  : 	
; 220  : 	SortSignals2(dblMag, intStart, intStop, intWide, &dblAVGSignalPerBinWide, &dblAVGBaselineWide);

  000b9	8d 45 d4	 lea	 eax, DWORD PTR _dblAVGBaselineWide$[ebp]
  000bc	50		 push	 eax
  000bd	8d 4d ec	 lea	 ecx, DWORD PTR _dblAVGSignalPerBinWide$[ebp]
  000c0	51		 push	 ecx
  000c1	8b 55 98	 mov	 edx, DWORD PTR _intWide$[ebp]
  000c4	52		 push	 edx
  000c5	8b 45 10	 mov	 eax, DWORD PTR _intStop$[ebp]
  000c8	50		 push	 eax
  000c9	8b 4d 0c	 mov	 ecx, DWORD PTR _intStart$[ebp]
  000cc	51		 push	 ecx
  000cd	8b 55 08	 mov	 edx, DWORD PTR _dblMag$[ebp]
  000d0	52		 push	 edx
  000d1	e8 00 00 00 00	 call	 _SortSignals2
  000d6	83 c4 18	 add	 esp, 24			; 00000018H

; 221  : 
; 222  : 	if (intLastStart == intStart && intLastStop == intStop)

  000d9	a1 00 00 00 00	 mov	 eax, DWORD PTR _intLastStart
  000de	3b 45 0c	 cmp	 eax, DWORD PTR _intStart$[ebp]
  000e1	75 24		 jne	 SHORT $LN14@BusyDetect
  000e3	a1 00 00 00 00	 mov	 eax, DWORD PTR _intLastStop
  000e8	3b 45 10	 cmp	 eax, DWORD PTR _intStop$[ebp]
  000eb	75 1a		 jne	 SHORT $LN14@BusyDetect

; 223  : 		dblAvgStoNWide = (1 - dblSlowAlpha) * dblAvgStoNWide + dblSlowAlpha * dblAVGSignalPerBinWide / dblAVGBaselineWide;

  000ed	d9 45 c8	 fld	 DWORD PTR _dblSlowAlpha$[ebp]
  000f0	d9 e8		 fld1
  000f2	de e1		 fsubrp	 ST(1), ST(0)
  000f4	d8 4d b0	 fmul	 DWORD PTR _dblAvgStoNWide$[ebp]
  000f7	d9 45 c8	 fld	 DWORD PTR _dblSlowAlpha$[ebp]
  000fa	d8 4d ec	 fmul	 DWORD PTR _dblAVGSignalPerBinWide$[ebp]
  000fd	d8 75 d4	 fdiv	 DWORD PTR _dblAVGBaselineWide$[ebp]
  00100	de c1		 faddp	 ST(1), ST(0)
  00102	d9 5d b0	 fstp	 DWORD PTR _dblAvgStoNWide$[ebp]

; 224  : 	else

  00105	eb 19		 jmp	 SHORT $LN13@BusyDetect
$LN14@BusyDetect:

; 225  : 	{
; 226  : 		// This initializes the Wide average after a bandwidth change
; 227  : 		
; 228  : 		dblAvgStoNWide = dblAVGSignalPerBinWide / dblAVGBaselineWide;

  00107	d9 45 ec	 fld	 DWORD PTR _dblAVGSignalPerBinWide$[ebp]
  0010a	d8 75 d4	 fdiv	 DWORD PTR _dblAVGBaselineWide$[ebp]
  0010d	d9 5d b0	 fstp	 DWORD PTR _dblAvgStoNWide$[ebp]

; 229  : 		intLastStart = intStart;

  00110	8b 45 0c	 mov	 eax, DWORD PTR _intStart$[ebp]
  00113	a3 00 00 00 00	 mov	 DWORD PTR _intLastStart, eax

; 230  : 		intLastStop = intStop;

  00118	8b 45 10	 mov	 eax, DWORD PTR _intStop$[ebp]
  0011b	a3 00 00 00 00	 mov	 DWORD PTR _intLastStop, eax
$LN13@BusyDetect:

; 231  : 	}
; 232  : 
; 233  : 	// Preliminary calibration...future a function of bandwidth and BusyDet.
; 234  :    
; 235  : 	switch (ARQBandwidth)

  00120	a1 00 00 00 00	 mov	 eax, DWORD PTR _ARQBandwidth
  00125	89 85 c4 fe ff
	ff		 mov	 DWORD PTR tv147[ebp], eax
  0012b	83 bd c4 fe ff
	ff 07		 cmp	 DWORD PTR tv147[ebp], 7
  00132	0f 87 08 03 00
	00		 ja	 $LN11@BusyDetect
  00138	8b 8d c4 fe ff
	ff		 mov	 ecx, DWORD PTR tv147[ebp]
  0013e	ff 24 8d 00 00
	00 00		 jmp	 DWORD PTR $LN33@BusyDetect[ecx*4]
$LN10@BusyDetect:

; 236  : 	{
; 237  : 	case B200MAX:
; 238  : 	case B200FORCED:	
; 239  : 		blnBusy = (dblAvgStoNNarrow > (3 + 0.008 * powf(BusyDet, 4))) || (dblAvgStoNWide > (5 + 0.02 * powf(BusyDet, 4)));

  00145	d9 45 bc	 fld	 DWORD PTR _dblAvgStoNNarrow$[ebp]
  00148	83 ec 08	 sub	 esp, 8
  0014b	dd 05 00 00 00
	00		 fld	 QWORD PTR __real@4010000000000000
  00151	dd 1c 24	 fstp	 QWORD PTR [esp]
  00154	db 05 00 00 00
	00		 fild	 DWORD PTR _BusyDet
  0015a	83 ec 08	 sub	 esp, 8
  0015d	dd 1c 24	 fstp	 QWORD PTR [esp]
  00160	dd 9d c0 fe ff
	ff		 fstp	 QWORD PTR tv434[ebp]
  00166	e8 00 00 00 00	 call	 _pow
  0016b	83 c4 10	 add	 esp, 16			; 00000010H
  0016e	d9 9d bc fe ff
	ff		 fstp	 DWORD PTR tv308[ebp]
  00174	d9 85 bc fe ff
	ff		 fld	 DWORD PTR tv308[ebp]
  0017a	dc 0d 00 00 00
	00		 fmul	 QWORD PTR __real@3f80624dd2f1a9fc
  00180	dc 05 00 00 00
	00		 fadd	 QWORD PTR __real@4008000000000000
  00186	dc 9d c0 fe ff
	ff		 fcomp	 QWORD PTR tv434[ebp]
  0018c	df e0		 fnstsw	 ax
  0018e	f6 c4 05	 test	 ah, 5
  00191	7b 5a		 jnp	 SHORT $LN19@BusyDetect
  00193	d9 45 b0	 fld	 DWORD PTR _dblAvgStoNWide$[ebp]
  00196	83 ec 08	 sub	 esp, 8
  00199	dd 05 00 00 00
	00		 fld	 QWORD PTR __real@4010000000000000
  0019f	dd 1c 24	 fstp	 QWORD PTR [esp]
  001a2	db 05 00 00 00
	00		 fild	 DWORD PTR _BusyDet
  001a8	83 ec 08	 sub	 esp, 8
  001ab	dd 1c 24	 fstp	 QWORD PTR [esp]
  001ae	dd 9d b4 fe ff
	ff		 fstp	 QWORD PTR tv436[ebp]
  001b4	e8 00 00 00 00	 call	 _pow
  001b9	83 c4 10	 add	 esp, 16			; 00000010H
  001bc	d9 9d b0 fe ff
	ff		 fstp	 DWORD PTR tv323[ebp]
  001c2	d9 85 b0 fe ff
	ff		 fld	 DWORD PTR tv323[ebp]
  001c8	dc 0d 00 00 00
	00		 fmul	 QWORD PTR __real@3f947ae147ae147b
  001ce	dc 05 00 00 00
	00		 fadd	 QWORD PTR __real@4014000000000000
  001d4	dc 9d b4 fe ff
	ff		 fcomp	 QWORD PTR tv436[ebp]
  001da	df e0		 fnstsw	 ax
  001dc	f6 c4 05	 test	 ah, 5
  001df	7b 0c		 jnp	 SHORT $LN19@BusyDetect
  001e1	c7 85 ac fe ff
	ff 00 00 00 00	 mov	 DWORD PTR tv172[ebp], 0
  001eb	eb 0a		 jmp	 SHORT $LN20@BusyDetect
$LN19@BusyDetect:
  001ed	c7 85 ac fe ff
	ff 01 00 00 00	 mov	 DWORD PTR tv172[ebp], 1
$LN20@BusyDetect:
  001f7	8b 85 ac fe ff
	ff		 mov	 eax, DWORD PTR tv172[ebp]
  001fd	89 45 8c	 mov	 DWORD PTR _blnBusy$[ebp], eax

; 240  : 		break;

  00200	e9 3b 02 00 00	 jmp	 $LN11@BusyDetect
$LN9@BusyDetect:

; 241  : 
; 242  : 	case B500MAX:
; 243  : 	case B500FORCED:
; 244  : 		blnBusy = (dblAvgStoNNarrow > (3 + 0.008 * powf(BusyDet, 4))) || (dblAvgStoNWide > (5 + 0.02 * powf(BusyDet, 4)));

  00205	d9 45 bc	 fld	 DWORD PTR _dblAvgStoNNarrow$[ebp]
  00208	83 ec 08	 sub	 esp, 8
  0020b	dd 05 00 00 00
	00		 fld	 QWORD PTR __real@4010000000000000
  00211	dd 1c 24	 fstp	 QWORD PTR [esp]
  00214	db 05 00 00 00
	00		 fild	 DWORD PTR _BusyDet
  0021a	83 ec 08	 sub	 esp, 8
  0021d	dd 1c 24	 fstp	 QWORD PTR [esp]
  00220	dd 9d c0 fe ff
	ff		 fstp	 QWORD PTR tv438[ebp]
  00226	e8 00 00 00 00	 call	 _pow
  0022b	83 c4 10	 add	 esp, 16			; 00000010H
  0022e	d9 9d bc fe ff
	ff		 fstp	 DWORD PTR tv339[ebp]
  00234	d9 85 bc fe ff
	ff		 fld	 DWORD PTR tv339[ebp]
  0023a	dc 0d 00 00 00
	00		 fmul	 QWORD PTR __real@3f80624dd2f1a9fc
  00240	dc 05 00 00 00
	00		 fadd	 QWORD PTR __real@4008000000000000
  00246	dc 9d c0 fe ff
	ff		 fcomp	 QWORD PTR tv438[ebp]
  0024c	df e0		 fnstsw	 ax
  0024e	f6 c4 05	 test	 ah, 5
  00251	7b 5a		 jnp	 SHORT $LN21@BusyDetect
  00253	d9 45 b0	 fld	 DWORD PTR _dblAvgStoNWide$[ebp]
  00256	83 ec 08	 sub	 esp, 8
  00259	dd 05 00 00 00
	00		 fld	 QWORD PTR __real@4010000000000000
  0025f	dd 1c 24	 fstp	 QWORD PTR [esp]
  00262	db 05 00 00 00
	00		 fild	 DWORD PTR _BusyDet
  00268	83 ec 08	 sub	 esp, 8
  0026b	dd 1c 24	 fstp	 QWORD PTR [esp]
  0026e	dd 9d b4 fe ff
	ff		 fstp	 QWORD PTR tv440[ebp]
  00274	e8 00 00 00 00	 call	 _pow
  00279	83 c4 10	 add	 esp, 16			; 00000010H
  0027c	d9 9d b0 fe ff
	ff		 fstp	 DWORD PTR tv354[ebp]
  00282	d9 85 b0 fe ff
	ff		 fld	 DWORD PTR tv354[ebp]
  00288	dc 0d 00 00 00
	00		 fmul	 QWORD PTR __real@3f947ae147ae147b
  0028e	dc 05 00 00 00
	00		 fadd	 QWORD PTR __real@4014000000000000
  00294	dc 9d b4 fe ff
	ff		 fcomp	 QWORD PTR tv440[ebp]
  0029a	df e0		 fnstsw	 ax
  0029c	f6 c4 05	 test	 ah, 5
  0029f	7b 0c		 jnp	 SHORT $LN21@BusyDetect
  002a1	c7 85 ac fe ff
	ff 00 00 00 00	 mov	 DWORD PTR tv197[ebp], 0
  002ab	eb 0a		 jmp	 SHORT $LN22@BusyDetect
$LN21@BusyDetect:
  002ad	c7 85 ac fe ff
	ff 01 00 00 00	 mov	 DWORD PTR tv197[ebp], 1
$LN22@BusyDetect:
  002b7	8b 85 ac fe ff
	ff		 mov	 eax, DWORD PTR tv197[ebp]
  002bd	89 45 8c	 mov	 DWORD PTR _blnBusy$[ebp], eax

; 245  : 		break;

  002c0	e9 7b 01 00 00	 jmp	 $LN11@BusyDetect
$LN8@BusyDetect:

; 246  : 
; 247  : 	case B1000MAX:
; 248  : 	case B1000FORCED:
; 249  : 		blnBusy = (dblAvgStoNNarrow > (3 + 0.008 * powf(BusyDet, 4))) || (dblAvgStoNWide > (5 + 0.016 * powf(BusyDet, 4)));  		

  002c5	d9 45 bc	 fld	 DWORD PTR _dblAvgStoNNarrow$[ebp]
  002c8	83 ec 08	 sub	 esp, 8
  002cb	dd 05 00 00 00
	00		 fld	 QWORD PTR __real@4010000000000000
  002d1	dd 1c 24	 fstp	 QWORD PTR [esp]
  002d4	db 05 00 00 00
	00		 fild	 DWORD PTR _BusyDet
  002da	83 ec 08	 sub	 esp, 8
  002dd	dd 1c 24	 fstp	 QWORD PTR [esp]
  002e0	dd 9d c0 fe ff
	ff		 fstp	 QWORD PTR tv442[ebp]
  002e6	e8 00 00 00 00	 call	 _pow
  002eb	83 c4 10	 add	 esp, 16			; 00000010H
  002ee	d9 9d bc fe ff
	ff		 fstp	 DWORD PTR tv370[ebp]
  002f4	d9 85 bc fe ff
	ff		 fld	 DWORD PTR tv370[ebp]
  002fa	dc 0d 00 00 00
	00		 fmul	 QWORD PTR __real@3f80624dd2f1a9fc
  00300	dc 05 00 00 00
	00		 fadd	 QWORD PTR __real@4008000000000000
  00306	dc 9d c0 fe ff
	ff		 fcomp	 QWORD PTR tv442[ebp]
  0030c	df e0		 fnstsw	 ax
  0030e	f6 c4 05	 test	 ah, 5
  00311	7b 5a		 jnp	 SHORT $LN23@BusyDetect
  00313	d9 45 b0	 fld	 DWORD PTR _dblAvgStoNWide$[ebp]
  00316	83 ec 08	 sub	 esp, 8
  00319	dd 05 00 00 00
	00		 fld	 QWORD PTR __real@4010000000000000
  0031f	dd 1c 24	 fstp	 QWORD PTR [esp]
  00322	db 05 00 00 00
	00		 fild	 DWORD PTR _BusyDet
  00328	83 ec 08	 sub	 esp, 8
  0032b	dd 1c 24	 fstp	 QWORD PTR [esp]
  0032e	dd 9d b4 fe ff
	ff		 fstp	 QWORD PTR tv444[ebp]
  00334	e8 00 00 00 00	 call	 _pow
  00339	83 c4 10	 add	 esp, 16			; 00000010H
  0033c	d9 9d b0 fe ff
	ff		 fstp	 DWORD PTR tv385[ebp]
  00342	d9 85 b0 fe ff
	ff		 fld	 DWORD PTR tv385[ebp]
  00348	dc 0d 00 00 00
	00		 fmul	 QWORD PTR __real@3f90624dd2f1a9fc
  0034e	dc 05 00 00 00
	00		 fadd	 QWORD PTR __real@4014000000000000
  00354	dc 9d b4 fe ff
	ff		 fcomp	 QWORD PTR tv444[ebp]
  0035a	df e0		 fnstsw	 ax
  0035c	f6 c4 05	 test	 ah, 5
  0035f	7b 0c		 jnp	 SHORT $LN23@BusyDetect
  00361	c7 85 ac fe ff
	ff 00 00 00 00	 mov	 DWORD PTR tv222[ebp], 0
  0036b	eb 0a		 jmp	 SHORT $LN24@BusyDetect
$LN23@BusyDetect:
  0036d	c7 85 ac fe ff
	ff 01 00 00 00	 mov	 DWORD PTR tv222[ebp], 1
$LN24@BusyDetect:
  00377	8b 85 ac fe ff
	ff		 mov	 eax, DWORD PTR tv222[ebp]
  0037d	89 45 8c	 mov	 DWORD PTR _blnBusy$[ebp], eax

; 250  : 		break;

  00380	e9 bb 00 00 00	 jmp	 $LN11@BusyDetect
$LN7@BusyDetect:

; 251  : 
; 252  : 	case B2000MAX:
; 253  : 	case B2000FORCED:
; 254  : 		blnBusy = (dblAvgStoNNarrow > (3 + 0.008 * powf(BusyDet, 4))) || (dblAvgStoNWide > (5 + 0.016 * powf(BusyDet, 4)));  		

  00385	d9 45 bc	 fld	 DWORD PTR _dblAvgStoNNarrow$[ebp]
  00388	83 ec 08	 sub	 esp, 8
  0038b	dd 05 00 00 00
	00		 fld	 QWORD PTR __real@4010000000000000
  00391	dd 1c 24	 fstp	 QWORD PTR [esp]
  00394	db 05 00 00 00
	00		 fild	 DWORD PTR _BusyDet
  0039a	83 ec 08	 sub	 esp, 8
  0039d	dd 1c 24	 fstp	 QWORD PTR [esp]
  003a0	dd 9d c0 fe ff
	ff		 fstp	 QWORD PTR tv446[ebp]
  003a6	e8 00 00 00 00	 call	 _pow
  003ab	83 c4 10	 add	 esp, 16			; 00000010H
  003ae	d9 9d bc fe ff
	ff		 fstp	 DWORD PTR tv401[ebp]
  003b4	d9 85 bc fe ff
	ff		 fld	 DWORD PTR tv401[ebp]
  003ba	dc 0d 00 00 00
	00		 fmul	 QWORD PTR __real@3f80624dd2f1a9fc
  003c0	dc 05 00 00 00
	00		 fadd	 QWORD PTR __real@4008000000000000
  003c6	dc 9d c0 fe ff
	ff		 fcomp	 QWORD PTR tv446[ebp]
  003cc	df e0		 fnstsw	 ax
  003ce	f6 c4 05	 test	 ah, 5
  003d1	7b 5a		 jnp	 SHORT $LN25@BusyDetect
  003d3	d9 45 b0	 fld	 DWORD PTR _dblAvgStoNWide$[ebp]
  003d6	83 ec 08	 sub	 esp, 8
  003d9	dd 05 00 00 00
	00		 fld	 QWORD PTR __real@4010000000000000
  003df	dd 1c 24	 fstp	 QWORD PTR [esp]
  003e2	db 05 00 00 00
	00		 fild	 DWORD PTR _BusyDet
  003e8	83 ec 08	 sub	 esp, 8
  003eb	dd 1c 24	 fstp	 QWORD PTR [esp]
  003ee	dd 9d b4 fe ff
	ff		 fstp	 QWORD PTR tv448[ebp]
  003f4	e8 00 00 00 00	 call	 _pow
  003f9	83 c4 10	 add	 esp, 16			; 00000010H
  003fc	d9 9d b0 fe ff
	ff		 fstp	 DWORD PTR tv416[ebp]
  00402	d9 85 b0 fe ff
	ff		 fld	 DWORD PTR tv416[ebp]
  00408	dc 0d 00 00 00
	00		 fmul	 QWORD PTR __real@3f90624dd2f1a9fc
  0040e	dc 05 00 00 00
	00		 fadd	 QWORD PTR __real@4014000000000000
  00414	dc 9d b4 fe ff
	ff		 fcomp	 QWORD PTR tv448[ebp]
  0041a	df e0		 fnstsw	 ax
  0041c	f6 c4 05	 test	 ah, 5
  0041f	7b 0c		 jnp	 SHORT $LN25@BusyDetect
  00421	c7 85 ac fe ff
	ff 00 00 00 00	 mov	 DWORD PTR tv247[ebp], 0
  0042b	eb 0a		 jmp	 SHORT $LN26@BusyDetect
$LN25@BusyDetect:
  0042d	c7 85 ac fe ff
	ff 01 00 00 00	 mov	 DWORD PTR tv247[ebp], 1
$LN26@BusyDetect:
  00437	8b 85 ac fe ff
	ff		 mov	 eax, DWORD PTR tv247[ebp]
  0043d	89 45 8c	 mov	 DWORD PTR _blnBusy$[ebp], eax
$LN11@BusyDetect:

; 255  :  	}
; 256  : 
; 257  : //	WriteDebugLog(LOGDEBUG, "Busy %d Wide %f Narrow %f", blnBusy, dblAvgStoNWide, dblAvgStoNNarrow); 
; 258  : 
; 259  : 	if (blnBusy)

  00440	83 7d 8c 00	 cmp	 DWORD PTR _blnBusy$[ebp], 0
  00444	74 2c		 je	 SHORT $LN6@BusyDetect

; 260  : 	{
; 261  : 		// This requires multiple adjacent busy conditions to skip over one nuisance Busy trips. 
; 262  : 		// Busy must be present at least 3 consecutive times ( ~250 ms) to be reported
; 263  : 
; 264  : 		intBusyOnCnt += 1;

  00446	a1 00 00 00 00	 mov	 eax, DWORD PTR _intBusyOnCnt
  0044b	83 c0 01	 add	 eax, 1
  0044e	a3 00 00 00 00	 mov	 DWORD PTR _intBusyOnCnt, eax

; 265  : 		intBusyOffCnt = 0;

  00453	c7 05 00 00 00
	00 00 00 00 00	 mov	 DWORD PTR _intBusyOffCnt, 0

; 266  :         if (intBusyOnCnt > 3)

  0045d	83 3d 00 00 00
	00 03		 cmp	 DWORD PTR _intBusyOnCnt, 3
  00464	7e 0a		 jle	 SHORT $LN5@BusyDetect

; 267  : 			dttLastTrip = Now;

  00466	e8 00 00 00 00	 call	 _getTicks
  0046b	a3 00 00 00 00	 mov	 DWORD PTR _dttLastTrip, eax
$LN5@BusyDetect:

; 268  : 	}
; 269  : 	else

  00470	eb 17		 jmp	 SHORT $LN4@BusyDetect
$LN6@BusyDetect:

; 270  : 	{
; 271  : 		intBusyOffCnt += 1;

  00472	a1 00 00 00 00	 mov	 eax, DWORD PTR _intBusyOffCnt
  00477	83 c0 01	 add	 eax, 1
  0047a	a3 00 00 00 00	 mov	 DWORD PTR _intBusyOffCnt, eax

; 272  : 		intBusyOnCnt = 0;

  0047f	c7 05 00 00 00
	00 00 00 00 00	 mov	 DWORD PTR _intBusyOnCnt, 0
$LN4@BusyDetect:

; 273  : 	}
; 274  : 
; 275  : 	if (blnLastBusy == False && intBusyOnCnt >= 3)

  00489	83 3d 00 00 00
	00 00		 cmp	 DWORD PTR _blnLastBusy, 0
  00490	75 29		 jne	 SHORT $LN3@BusyDetect
  00492	83 3d 00 00 00
	00 03		 cmp	 DWORD PTR _intBusyOnCnt, 3
  00499	7c 20		 jl	 SHORT $LN3@BusyDetect

; 276  : 	{
; 277  : 		dttPriorLastBusyTrip = dttLastBusyTrip;  // save old dttLastBusyTrip for use in BUSYBLOCKING function

  0049b	a1 00 00 00 00	 mov	 eax, DWORD PTR _dttLastBusyTrip
  004a0	a3 00 00 00 00	 mov	 DWORD PTR _dttPriorLastBusyTrip, eax

; 278  : 		dttLastBusyTrip = Now;

  004a5	e8 00 00 00 00	 call	 _getTicks
  004aa	a3 00 00 00 00	 mov	 DWORD PTR _dttLastBusyTrip, eax

; 279  : 		blnLastBusy = True;

  004af	c7 05 00 00 00
	00 01 00 00 00	 mov	 DWORD PTR _blnLastBusy, 1

; 280  : 	}
; 281  : 	else

  004b9	eb 39		 jmp	 SHORT $LN1@BusyDetect
$LN3@BusyDetect:

; 282  : 	{
; 283  : 		if (blnLastBusy && (Now - dttLastTrip) > intHoldMs && intBusyOffCnt >= 3)

  004bb	83 3d 00 00 00
	00 00		 cmp	 DWORD PTR _blnLastBusy, 0
  004c2	74 30		 je	 SHORT $LN1@BusyDetect
  004c4	e8 00 00 00 00	 call	 _getTicks
  004c9	2b 05 00 00 00
	00		 sub	 eax, DWORD PTR _dttLastTrip
  004cf	3b 05 00 00 00
	00		 cmp	 eax, DWORD PTR _intHoldMs
  004d5	76 1d		 jbe	 SHORT $LN1@BusyDetect
  004d7	83 3d 00 00 00
	00 03		 cmp	 DWORD PTR _intBusyOffCnt, 3
  004de	7c 14		 jl	 SHORT $LN1@BusyDetect

; 284  : 		{
; 285  : 			dttLastBusyClear = Now;

  004e0	e8 00 00 00 00	 call	 _getTicks
  004e5	a3 00 00 00 00	 mov	 DWORD PTR _dttLastBusyClear, eax

; 286  : 			blnLastBusy = False;

  004ea	c7 05 00 00 00
	00 00 00 00 00	 mov	 DWORD PTR _blnLastBusy, 0
$LN1@BusyDetect:

; 287  : 		}
; 288  : 	}
; 289  : 	return blnLastBusy;

  004f4	a1 00 00 00 00	 mov	 eax, DWORD PTR _blnLastBusy

; 290  : }

  004f9	52		 push	 edx
  004fa	8b cd		 mov	 ecx, ebp
  004fc	50		 push	 eax
  004fd	8d 15 00 00 00
	00		 lea	 edx, DWORD PTR $LN32@BusyDetect
  00503	e8 00 00 00 00	 call	 @_RTC_CheckStackVars@8
  00508	58		 pop	 eax
  00509	5a		 pop	 edx
  0050a	5f		 pop	 edi
  0050b	5e		 pop	 esi
  0050c	5b		 pop	 ebx
  0050d	81 c4 54 01 00
	00		 add	 esp, 340		; 00000154H
  00513	3b ec		 cmp	 ebp, esp
  00515	e8 00 00 00 00	 call	 __RTC_CheckEsp
  0051a	8b e5		 mov	 esp, ebp
  0051c	5d		 pop	 ebp
  0051d	c3		 ret	 0
  0051e	8b ff		 npad	 2
$LN32@BusyDetect:
  00520	04 00 00 00	 DD	 4
  00524	00 00 00 00	 DD	 $LN31@BusyDetect
$LN31@BusyDetect:
  00528	f8 ff ff ff	 DD	 -8			; fffffff8H
  0052c	04 00 00 00	 DD	 4
  00530	00 00 00 00	 DD	 $LN27@BusyDetect
  00534	ec ff ff ff	 DD	 -20			; ffffffecH
  00538	04 00 00 00	 DD	 4
  0053c	00 00 00 00	 DD	 $LN28@BusyDetect
  00540	e0 ff ff ff	 DD	 -32			; ffffffe0H
  00544	04 00 00 00	 DD	 4
  00548	00 00 00 00	 DD	 $LN29@BusyDetect
  0054c	d4 ff ff ff	 DD	 -44			; ffffffd4H
  00550	04 00 00 00	 DD	 4
  00554	00 00 00 00	 DD	 $LN30@BusyDetect
$LN30@BusyDetect:
  00558	64		 DB	 100			; 00000064H
  00559	62		 DB	 98			; 00000062H
  0055a	6c		 DB	 108			; 0000006cH
  0055b	41		 DB	 65			; 00000041H
  0055c	56		 DB	 86			; 00000056H
  0055d	47		 DB	 71			; 00000047H
  0055e	42		 DB	 66			; 00000042H
  0055f	61		 DB	 97			; 00000061H
  00560	73		 DB	 115			; 00000073H
  00561	65		 DB	 101			; 00000065H
  00562	6c		 DB	 108			; 0000006cH
  00563	69		 DB	 105			; 00000069H
  00564	6e		 DB	 110			; 0000006eH
  00565	65		 DB	 101			; 00000065H
  00566	57		 DB	 87			; 00000057H
  00567	69		 DB	 105			; 00000069H
  00568	64		 DB	 100			; 00000064H
  00569	65		 DB	 101			; 00000065H
  0056a	00		 DB	 0
$LN29@BusyDetect:
  0056b	64		 DB	 100			; 00000064H
  0056c	62		 DB	 98			; 00000062H
  0056d	6c		 DB	 108			; 0000006cH
  0056e	41		 DB	 65			; 00000041H
  0056f	56		 DB	 86			; 00000056H
  00570	47		 DB	 71			; 00000047H
  00571	42		 DB	 66			; 00000042H
  00572	61		 DB	 97			; 00000061H
  00573	73		 DB	 115			; 00000073H
  00574	65		 DB	 101			; 00000065H
  00575	6c		 DB	 108			; 0000006cH
  00576	69		 DB	 105			; 00000069H
  00577	6e		 DB	 110			; 0000006eH
  00578	65		 DB	 101			; 00000065H
  00579	4e		 DB	 78			; 0000004eH
  0057a	61		 DB	 97			; 00000061H
  0057b	72		 DB	 114			; 00000072H
  0057c	72		 DB	 114			; 00000072H
  0057d	6f		 DB	 111			; 0000006fH
  0057e	77		 DB	 119			; 00000077H
  0057f	00		 DB	 0
$LN28@BusyDetect:
  00580	64		 DB	 100			; 00000064H
  00581	62		 DB	 98			; 00000062H
  00582	6c		 DB	 108			; 0000006cH
  00583	41		 DB	 65			; 00000041H
  00584	56		 DB	 86			; 00000056H
  00585	47		 DB	 71			; 00000047H
  00586	53		 DB	 83			; 00000053H
  00587	69		 DB	 105			; 00000069H
  00588	67		 DB	 103			; 00000067H
  00589	6e		 DB	 110			; 0000006eH
  0058a	61		 DB	 97			; 00000061H
  0058b	6c		 DB	 108			; 0000006cH
  0058c	50		 DB	 80			; 00000050H
  0058d	65		 DB	 101			; 00000065H
  0058e	72		 DB	 114			; 00000072H
  0058f	42		 DB	 66			; 00000042H
  00590	69		 DB	 105			; 00000069H
  00591	6e		 DB	 110			; 0000006eH
  00592	57		 DB	 87			; 00000057H
  00593	69		 DB	 105			; 00000069H
  00594	64		 DB	 100			; 00000064H
  00595	65		 DB	 101			; 00000065H
  00596	00		 DB	 0
$LN27@BusyDetect:
  00597	64		 DB	 100			; 00000064H
  00598	62		 DB	 98			; 00000062H
  00599	6c		 DB	 108			; 0000006cH
  0059a	41		 DB	 65			; 00000041H
  0059b	56		 DB	 86			; 00000056H
  0059c	47		 DB	 71			; 00000047H
  0059d	53		 DB	 83			; 00000053H
  0059e	69		 DB	 105			; 00000069H
  0059f	67		 DB	 103			; 00000067H
  005a0	6e		 DB	 110			; 0000006eH
  005a1	61		 DB	 97			; 00000061H
  005a2	6c		 DB	 108			; 0000006cH
  005a3	50		 DB	 80			; 00000050H
  005a4	65		 DB	 101			; 00000065H
  005a5	72		 DB	 114			; 00000072H
  005a6	42		 DB	 66			; 00000042H
  005a7	69		 DB	 105			; 00000069H
  005a8	6e		 DB	 110			; 0000006eH
  005a9	4e		 DB	 78			; 0000004eH
  005aa	61		 DB	 97			; 00000061H
  005ab	72		 DB	 114			; 00000072H
  005ac	72		 DB	 114			; 00000072H
  005ad	6f		 DB	 111			; 0000006fH
  005ae	77		 DB	 119			; 00000077H
  005af	00		 DB	 0
$LN33@BusyDetect:
  005b0	00 00 00 00	 DD	 $LN10@BusyDetect
  005b4	00 00 00 00	 DD	 $LN9@BusyDetect
  005b8	00 00 00 00	 DD	 $LN8@BusyDetect
  005bc	00 00 00 00	 DD	 $LN7@BusyDetect
  005c0	00 00 00 00	 DD	 $LN10@BusyDetect
  005c4	00 00 00 00	 DD	 $LN9@BusyDetect
  005c8	00 00 00 00	 DD	 $LN8@BusyDetect
  005cc	00 00 00 00	 DD	 $LN7@BusyDetect
_BusyDetect3 ENDP
_TEXT	ENDS
PUBLIC	_SortSignals
EXTRN	_memset:PROC
; Function compile flags: /Odtp /RTCsu /ZI
;	COMDAT _SortSignals
_TEXT	SEGMENT
tv216 = -1896						; size = 4
_k$ = -1696						; size = 4
_j$ = -1684						; size = 4
_i$ = -1672						; size = 4
_intBasePtr$ = -1660					; size = 4
_intSigPtr$ = -1648					; size = 4
_dblTotalSum$ = -1636					; size = 4
_dblSigSum$ = -1624					; size = 4
_dblAVGBaseline$ = -1612				; size = 800
_dblAVGSignal$ = -804					; size = 800
_dblMag$ = 8						; size = 4
_intStartBin$ = 12					; size = 4
_intStopBin$ = 16					; size = 4
_intNumBins$ = 20					; size = 4
_dblAVGSignalPerBin$ = 24				; size = 4
_dblAVGBaselinePerBin$ = 28				; size = 4
_SortSignals PROC					; COMDAT

; 293  : {

  00000	55		 push	 ebp
  00001	8b ec		 mov	 ebp, esp
  00003	81 ec 68 07 00
	00		 sub	 esp, 1896		; 00000768H
  00009	53		 push	 ebx
  0000a	56		 push	 esi
  0000b	57		 push	 edi
  0000c	8d bd 98 f8 ff
	ff		 lea	 edi, DWORD PTR [ebp-1896]
  00012	b9 da 01 00 00	 mov	 ecx, 474		; 000001daH
  00017	b8 cc cc cc cc	 mov	 eax, -858993460		; ccccccccH
  0001c	f3 ab		 rep stosd

; 294  : 	// puts the top intNumber of bins between intStartBin and intStopBin into dblAVGSignalPerBin, the rest into dblAvgBaselinePerBin
; 295  :     // for decent accuracy intNumBins should be < 75% of intStopBin-intStartBin)
; 296  : 
; 297  : 	float dblAVGSignal[200] = {0};//intNumBins

  0001e	d9 ee		 fldz
  00020	d9 9d dc fc ff
	ff		 fstp	 DWORD PTR _dblAVGSignal$[ebp]
  00026	68 1c 03 00 00	 push	 796			; 0000031cH
  0002b	6a 00		 push	 0
  0002d	8d 85 e0 fc ff
	ff		 lea	 eax, DWORD PTR _dblAVGSignal$[ebp+4]
  00033	50		 push	 eax
  00034	e8 00 00 00 00	 call	 _memset
  00039	83 c4 0c	 add	 esp, 12			; 0000000cH

; 298  : 	float dblAVGBaseline[200] = {0};//intStopBin - intStartBin - intNumBins

  0003c	d9 ee		 fldz
  0003e	d9 9d b4 f9 ff
	ff		 fstp	 DWORD PTR _dblAVGBaseline$[ebp]
  00044	68 1c 03 00 00	 push	 796			; 0000031cH
  00049	6a 00		 push	 0
  0004b	8d 85 b8 f9 ff
	ff		 lea	 eax, DWORD PTR _dblAVGBaseline$[ebp+4]
  00051	50		 push	 eax
  00052	e8 00 00 00 00	 call	 _memset
  00057	83 c4 0c	 add	 esp, 12			; 0000000cH

; 299  : 
; 300  : 	float dblSigSum = 0;

  0005a	d9 ee		 fldz
  0005c	d9 9d a8 f9 ff
	ff		 fstp	 DWORD PTR _dblSigSum$[ebp]

; 301  : 	float dblTotalSum = 0;

  00062	d9 ee		 fldz
  00064	d9 9d 9c f9 ff
	ff		 fstp	 DWORD PTR _dblTotalSum$[ebp]

; 302  : 	int intSigPtr = 0;

  0006a	c7 85 90 f9 ff
	ff 00 00 00 00	 mov	 DWORD PTR _intSigPtr$[ebp], 0

; 303  : 	int intBasePtr = 0;

  00074	c7 85 84 f9 ff
	ff 00 00 00 00	 mov	 DWORD PTR _intBasePtr$[ebp], 0

; 304  : 	int i, j, k;
; 305  : 
; 306  : 	for (i = 0; i <  intNumBins; i++)

  0007e	c7 85 78 f9 ff
	ff 00 00 00 00	 mov	 DWORD PTR _i$[ebp], 0
  00088	eb 0f		 jmp	 SHORT $LN13@SortSignal
$LN12@SortSignal:
  0008a	8b 85 78 f9 ff
	ff		 mov	 eax, DWORD PTR _i$[ebp]
  00090	83 c0 01	 add	 eax, 1
  00093	89 85 78 f9 ff
	ff		 mov	 DWORD PTR _i$[ebp], eax
$LN13@SortSignal:
  00099	8b 85 78 f9 ff
	ff		 mov	 eax, DWORD PTR _i$[ebp]
  0009f	3b 45 14	 cmp	 eax, DWORD PTR _intNumBins$[ebp]
  000a2	0f 8d ee 00 00
	00		 jge	 $LN11@SortSignal

; 307  : 	{
; 308  : 		for (j = intStartBin; j <= intStopBin; j++)

  000a8	8b 45 0c	 mov	 eax, DWORD PTR _intStartBin$[ebp]
  000ab	89 85 6c f9 ff
	ff		 mov	 DWORD PTR _j$[ebp], eax
  000b1	eb 0f		 jmp	 SHORT $LN10@SortSignal
$LN9@SortSignal:
  000b3	8b 85 6c f9 ff
	ff		 mov	 eax, DWORD PTR _j$[ebp]
  000b9	83 c0 01	 add	 eax, 1
  000bc	89 85 6c f9 ff
	ff		 mov	 DWORD PTR _j$[ebp], eax
$LN10@SortSignal:
  000c2	8b 85 6c f9 ff
	ff		 mov	 eax, DWORD PTR _j$[ebp]
  000c8	3b 45 10	 cmp	 eax, DWORD PTR _intStopBin$[ebp]
  000cb	0f 8f c0 00 00
	00		 jg	 $LN8@SortSignal

; 309  : 		{
; 310  : 			if (i == 0)

  000d1	83 bd 78 f9 ff
	ff 00		 cmp	 DWORD PTR _i$[ebp], 0
  000d8	75 55		 jne	 SHORT $LN7@SortSignal

; 311  : 			{
; 312  : 				dblTotalSum += dblMag[j];

  000da	d9 85 9c f9 ff
	ff		 fld	 DWORD PTR _dblTotalSum$[ebp]
  000e0	8b 85 6c f9 ff
	ff		 mov	 eax, DWORD PTR _j$[ebp]
  000e6	8b 4d 08	 mov	 ecx, DWORD PTR _dblMag$[ebp]
  000e9	d8 04 81	 fadd	 DWORD PTR [ecx+eax*4]
  000ec	d9 9d 9c f9 ff
	ff		 fstp	 DWORD PTR _dblTotalSum$[ebp]

; 313  : 				if (dblMag[j] > dblAVGSignal[i])

  000f2	8b 85 6c f9 ff
	ff		 mov	 eax, DWORD PTR _j$[ebp]
  000f8	8b 4d 08	 mov	 ecx, DWORD PTR _dblMag$[ebp]
  000fb	d9 04 81	 fld	 DWORD PTR [ecx+eax*4]
  000fe	8b 95 78 f9 ff
	ff		 mov	 edx, DWORD PTR _i$[ebp]
  00104	d9 84 95 dc fc
	ff ff		 fld	 DWORD PTR _dblAVGSignal$[ebp+edx*4]
  0010b	de d9		 fcompp
  0010d	df e0		 fnstsw	 ax
  0010f	f6 c4 05	 test	 ah, 5
  00112	7a 19		 jp	 SHORT $LN6@SortSignal

; 314  : 					dblAVGSignal[i] = dblMag[j];

  00114	8b 85 78 f9 ff
	ff		 mov	 eax, DWORD PTR _i$[ebp]
  0011a	8b 8d 6c f9 ff
	ff		 mov	 ecx, DWORD PTR _j$[ebp]
  00120	8b 55 08	 mov	 edx, DWORD PTR _dblMag$[ebp]
  00123	d9 04 8a	 fld	 DWORD PTR [edx+ecx*4]
  00126	d9 9c 85 dc fc
	ff ff		 fstp	 DWORD PTR _dblAVGSignal$[ebp+eax*4]
$LN6@SortSignal:

; 315  : 			}
; 316  : 			else

  0012d	eb 5d		 jmp	 SHORT $LN4@SortSignal
$LN7@SortSignal:

; 317  : 			{
; 318  : 				if (dblMag[j] > dblAVGSignal[i] && dblMag[j] < dblAVGSignal[i - 1])

  0012f	8b 85 6c f9 ff
	ff		 mov	 eax, DWORD PTR _j$[ebp]
  00135	8b 4d 08	 mov	 ecx, DWORD PTR _dblMag$[ebp]
  00138	d9 04 81	 fld	 DWORD PTR [ecx+eax*4]
  0013b	8b 95 78 f9 ff
	ff		 mov	 edx, DWORD PTR _i$[ebp]
  00141	d9 84 95 dc fc
	ff ff		 fld	 DWORD PTR _dblAVGSignal$[ebp+edx*4]
  00148	de d9		 fcompp
  0014a	df e0		 fnstsw	 ax
  0014c	f6 c4 05	 test	 ah, 5
  0014f	7a 3b		 jp	 SHORT $LN4@SortSignal
  00151	8b 85 6c f9 ff
	ff		 mov	 eax, DWORD PTR _j$[ebp]
  00157	8b 4d 08	 mov	 ecx, DWORD PTR _dblMag$[ebp]
  0015a	d9 04 81	 fld	 DWORD PTR [ecx+eax*4]
  0015d	8b 95 78 f9 ff
	ff		 mov	 edx, DWORD PTR _i$[ebp]
  00163	d9 84 95 d8 fc
	ff ff		 fld	 DWORD PTR _dblAVGSignal$[ebp+edx*4-4]
  0016a	de d9		 fcompp
  0016c	df e0		 fnstsw	 ax
  0016e	f6 c4 41	 test	 ah, 65			; 00000041H
  00171	75 19		 jne	 SHORT $LN4@SortSignal

; 319  : 					dblAVGSignal[i] = dblMag[j];

  00173	8b 85 78 f9 ff
	ff		 mov	 eax, DWORD PTR _i$[ebp]
  00179	8b 8d 6c f9 ff
	ff		 mov	 ecx, DWORD PTR _j$[ebp]
  0017f	8b 55 08	 mov	 edx, DWORD PTR _dblMag$[ebp]
  00182	d9 04 8a	 fld	 DWORD PTR [edx+ecx*4]
  00185	d9 9c 85 dc fc
	ff ff		 fstp	 DWORD PTR _dblAVGSignal$[ebp+eax*4]
$LN4@SortSignal:

; 320  : 			}
; 321  : 		}

  0018c	e9 22 ff ff ff	 jmp	 $LN9@SortSignal
$LN8@SortSignal:

; 322  : 	}

  00191	e9 f4 fe ff ff	 jmp	 $LN12@SortSignal
$LN11@SortSignal:

; 323  : 	
; 324  : 	for(k = 0; k < intNumBins; k++)

  00196	c7 85 60 f9 ff
	ff 00 00 00 00	 mov	 DWORD PTR _k$[ebp], 0
  001a0	eb 0f		 jmp	 SHORT $LN3@SortSignal
$LN2@SortSignal:
  001a2	8b 85 60 f9 ff
	ff		 mov	 eax, DWORD PTR _k$[ebp]
  001a8	83 c0 01	 add	 eax, 1
  001ab	89 85 60 f9 ff
	ff		 mov	 DWORD PTR _k$[ebp], eax
$LN3@SortSignal:
  001b1	8b 85 60 f9 ff
	ff		 mov	 eax, DWORD PTR _k$[ebp]
  001b7	3b 45 14	 cmp	 eax, DWORD PTR _intNumBins$[ebp]
  001ba	7d 1b		 jge	 SHORT $LN1@SortSignal

; 325  : 	{
; 326  : 		dblSigSum += dblAVGSignal[k];

  001bc	d9 85 a8 f9 ff
	ff		 fld	 DWORD PTR _dblSigSum$[ebp]
  001c2	8b 85 60 f9 ff
	ff		 mov	 eax, DWORD PTR _k$[ebp]
  001c8	d8 84 85 dc fc
	ff ff		 fadd	 DWORD PTR _dblAVGSignal$[ebp+eax*4]
  001cf	d9 9d a8 f9 ff
	ff		 fstp	 DWORD PTR _dblSigSum$[ebp]

; 327  : 	}

  001d5	eb cb		 jmp	 SHORT $LN2@SortSignal
$LN1@SortSignal:

; 328  : 	*dblAVGSignalPerBin = dblSigSum / intNumBins;

  001d7	db 45 14	 fild	 DWORD PTR _intNumBins$[ebp]
  001da	d8 bd a8 f9 ff
	ff		 fdivr	 DWORD PTR _dblSigSum$[ebp]
  001e0	8b 45 18	 mov	 eax, DWORD PTR _dblAVGSignalPerBin$[ebp]
  001e3	d9 18		 fstp	 DWORD PTR [eax]

; 329  : 	*dblAVGBaselinePerBin = (dblTotalSum - dblSigSum) / (intStopBin - intStartBin - intNumBins + 1);

  001e5	d9 85 9c f9 ff
	ff		 fld	 DWORD PTR _dblTotalSum$[ebp]
  001eb	d8 a5 a8 f9 ff
	ff		 fsub	 DWORD PTR _dblSigSum$[ebp]
  001f1	8b 45 10	 mov	 eax, DWORD PTR _intStopBin$[ebp]
  001f4	2b 45 0c	 sub	 eax, DWORD PTR _intStartBin$[ebp]
  001f7	2b 45 14	 sub	 eax, DWORD PTR _intNumBins$[ebp]
  001fa	83 c0 01	 add	 eax, 1
  001fd	89 85 98 f8 ff
	ff		 mov	 DWORD PTR tv216[ebp], eax
  00203	da b5 98 f8 ff
	ff		 fidiv	 DWORD PTR tv216[ebp]
  00209	8b 4d 1c	 mov	 ecx, DWORD PTR _dblAVGBaselinePerBin$[ebp]
  0020c	d9 19		 fstp	 DWORD PTR [ecx]

; 330  : }

  0020e	52		 push	 edx
  0020f	8b cd		 mov	 ecx, ebp
  00211	50		 push	 eax
  00212	8d 15 00 00 00
	00		 lea	 edx, DWORD PTR $LN19@SortSignal
  00218	e8 00 00 00 00	 call	 @_RTC_CheckStackVars@8
  0021d	58		 pop	 eax
  0021e	5a		 pop	 edx
  0021f	5f		 pop	 edi
  00220	5e		 pop	 esi
  00221	5b		 pop	 ebx
  00222	81 c4 68 07 00
	00		 add	 esp, 1896		; 00000768H
  00228	3b ec		 cmp	 ebp, esp
  0022a	e8 00 00 00 00	 call	 __RTC_CheckEsp
  0022f	8b e5		 mov	 esp, ebp
  00231	5d		 pop	 ebp
  00232	c3		 ret	 0
  00233	90		 npad	 1
$LN19@SortSignal:
  00234	02 00 00 00	 DD	 2
  00238	00 00 00 00	 DD	 $LN18@SortSignal
$LN18@SortSignal:
  0023c	dc fc ff ff	 DD	 -804			; fffffcdcH
  00240	20 03 00 00	 DD	 800			; 00000320H
  00244	00 00 00 00	 DD	 $LN16@SortSignal
  00248	b4 f9 ff ff	 DD	 -1612			; fffff9b4H
  0024c	20 03 00 00	 DD	 800			; 00000320H
  00250	00 00 00 00	 DD	 $LN17@SortSignal
$LN17@SortSignal:
  00254	64		 DB	 100			; 00000064H
  00255	62		 DB	 98			; 00000062H
  00256	6c		 DB	 108			; 0000006cH
  00257	41		 DB	 65			; 00000041H
  00258	56		 DB	 86			; 00000056H
  00259	47		 DB	 71			; 00000047H
  0025a	42		 DB	 66			; 00000042H
  0025b	61		 DB	 97			; 00000061H
  0025c	73		 DB	 115			; 00000073H
  0025d	65		 DB	 101			; 00000065H
  0025e	6c		 DB	 108			; 0000006cH
  0025f	69		 DB	 105			; 00000069H
  00260	6e		 DB	 110			; 0000006eH
  00261	65		 DB	 101			; 00000065H
  00262	00		 DB	 0
$LN16@SortSignal:
  00263	64		 DB	 100			; 00000064H
  00264	62		 DB	 98			; 00000062H
  00265	6c		 DB	 108			; 0000006cH
  00266	41		 DB	 65			; 00000041H
  00267	56		 DB	 86			; 00000056H
  00268	47		 DB	 71			; 00000047H
  00269	53		 DB	 83			; 00000053H
  0026a	69		 DB	 105			; 00000069H
  0026b	67		 DB	 103			; 00000067H
  0026c	6e		 DB	 110			; 0000006eH
  0026d	61		 DB	 97			; 00000061H
  0026e	6c		 DB	 108			; 0000006cH
  0026f	00		 DB	 0
_SortSignals ENDP
_TEXT	ENDS
PUBLIC	_compare
; Function compile flags: /Odtp /RTCsu /ZI
;	COMDAT _compare
_TEXT	SEGMENT
_y$ = -20						; size = 4
_x$ = -8						; size = 4
_p1$ = 8						; size = 4
_p2$ = 12						; size = 4
_compare PROC						; COMDAT

; 333  : {

  00000	55		 push	 ebp
  00001	8b ec		 mov	 ebp, esp
  00003	81 ec d8 00 00
	00		 sub	 esp, 216		; 000000d8H
  00009	53		 push	 ebx
  0000a	56		 push	 esi
  0000b	57		 push	 edi
  0000c	8d bd 28 ff ff
	ff		 lea	 edi, DWORD PTR [ebp-216]
  00012	b9 36 00 00 00	 mov	 ecx, 54			; 00000036H
  00017	b8 cc cc cc cc	 mov	 eax, -858993460		; ccccccccH
  0001c	f3 ab		 rep stosd

; 334  :     float x = *(const float *)p1;

  0001e	8b 45 08	 mov	 eax, DWORD PTR _p1$[ebp]
  00021	d9 00		 fld	 DWORD PTR [eax]
  00023	d9 5d f8	 fstp	 DWORD PTR _x$[ebp]

; 335  :     float y = *(const float *)p2;

  00026	8b 45 0c	 mov	 eax, DWORD PTR _p2$[ebp]
  00029	d9 00		 fld	 DWORD PTR [eax]
  0002b	d9 5d ec	 fstp	 DWORD PTR _y$[ebp]

; 336  : 
; 337  :     if (x < y)

  0002e	d9 45 f8	 fld	 DWORD PTR _x$[ebp]
  00031	d9 45 ec	 fld	 DWORD PTR _y$[ebp]
  00034	de d9		 fcompp
  00036	df e0		 fnstsw	 ax
  00038	f6 c4 41	 test	 ah, 65			; 00000041H
  0003b	75 07		 jne	 SHORT $LN3@compare

; 338  :         return -1;  // Return -1 if you want ascending, 1 if you want descending order. 

  0003d	83 c8 ff	 or	 eax, -1
  00040	eb 1a		 jmp	 SHORT $LN4@compare
  00042	eb 16		 jmp	 SHORT $LN1@compare
$LN3@compare:

; 339  :     else if (x > y)

  00044	d9 45 f8	 fld	 DWORD PTR _x$[ebp]
  00047	d9 45 ec	 fld	 DWORD PTR _y$[ebp]
  0004a	de d9		 fcompp
  0004c	df e0		 fnstsw	 ax
  0004e	f6 c4 05	 test	 ah, 5
  00051	7a 07		 jp	 SHORT $LN1@compare

; 340  :         return 1;   // Return 1 if you want ascending, -1 if you want descending order. 

  00053	b8 01 00 00 00	 mov	 eax, 1
  00058	eb 02		 jmp	 SHORT $LN4@compare
$LN1@compare:

; 341  : 
; 342  :     return 0;

  0005a	33 c0		 xor	 eax, eax
$LN4@compare:

; 343  : }

  0005c	5f		 pop	 edi
  0005d	5e		 pop	 esi
  0005e	5b		 pop	 ebx
  0005f	8b e5		 mov	 esp, ebp
  00061	5d		 pop	 ebp
  00062	c3		 ret	 0
_compare ENDP
_TEXT	ENDS
EXTRN	_qsort:PROC
EXTRN	_memcpy:PROC
; Function compile flags: /Odtp /RTCsu /ZI
;	COMDAT _SortSignals2
_TEXT	SEGMENT
tv158 = -1052						; size = 4
_i$ = -852						; size = 4
_numtoSort$ = -840					; size = 4
_dblSum2$ = -828					; size = 4
_dblSum1$ = -816					; size = 4
_dblSort$ = -804					; size = 800
_dblMag$ = 8						; size = 4
_intStartBin$ = 12					; size = 4
_intStopBin$ = 16					; size = 4
_intNumBins$ = 20					; size = 4
_dblAVGSignalPerBin$ = 24				; size = 4
_dblAVGBaselinePerBin$ = 28				; size = 4
_SortSignals2 PROC					; COMDAT

; 346  : {

  00000	55		 push	 ebp
  00001	8b ec		 mov	 ebp, esp
  00003	81 ec 1c 04 00
	00		 sub	 esp, 1052		; 0000041cH
  00009	53		 push	 ebx
  0000a	56		 push	 esi
  0000b	57		 push	 edi
  0000c	8d bd e4 fb ff
	ff		 lea	 edi, DWORD PTR [ebp-1052]
  00012	b9 07 01 00 00	 mov	 ecx, 263		; 00000107H
  00017	b8 cc cc cc cc	 mov	 eax, -858993460		; ccccccccH
  0001c	f3 ab		 rep stosd

; 347  : 	// puts the top intNumber of bins between intStartBin and intStopBin into dblAVGSignalPerBin, the rest into dblAvgBaselinePerBin
; 348  :     // for decent accuracy intNumBins should be < 75% of intStopBin-intStartBin)
; 349  : 
; 350  : 	// This version uses a native sort function which is much faster and reduces CPU loading significantly on wide bandwidths. 
; 351  :   
; 352  : 	float dblSort[200]; 
; 353  : 	float dblSum1 = 0, dblSum2 = 0;

  0001e	d9 ee		 fldz
  00020	d9 9d d0 fc ff
	ff		 fstp	 DWORD PTR _dblSum1$[ebp]
  00026	d9 ee		 fldz
  00028	d9 9d c4 fc ff
	ff		 fstp	 DWORD PTR _dblSum2$[ebp]

; 354  : 	int numtoSort = (intStopBin - intStartBin) + 1, i;

  0002e	8b 45 10	 mov	 eax, DWORD PTR _intStopBin$[ebp]
  00031	2b 45 0c	 sub	 eax, DWORD PTR _intStartBin$[ebp]
  00034	83 c0 01	 add	 eax, 1
  00037	89 85 b8 fc ff
	ff		 mov	 DWORD PTR _numtoSort$[ebp], eax

; 355  : 	
; 356  : 	memcpy(dblSort, &dblMag[intStartBin], numtoSort * sizeof(float));

  0003d	8b 85 b8 fc ff
	ff		 mov	 eax, DWORD PTR _numtoSort$[ebp]
  00043	c1 e0 02	 shl	 eax, 2
  00046	50		 push	 eax
  00047	8b 4d 0c	 mov	 ecx, DWORD PTR _intStartBin$[ebp]
  0004a	8b 55 08	 mov	 edx, DWORD PTR _dblMag$[ebp]
  0004d	8d 04 8a	 lea	 eax, DWORD PTR [edx+ecx*4]
  00050	50		 push	 eax
  00051	8d 8d dc fc ff
	ff		 lea	 ecx, DWORD PTR _dblSort$[ebp]
  00057	51		 push	 ecx
  00058	e8 00 00 00 00	 call	 _memcpy
  0005d	83 c4 0c	 add	 esp, 12			; 0000000cH

; 357  : 
; 358  : 	qsort((void *)dblSort, numtoSort, sizeof(float), compare);

  00060	68 00 00 00 00	 push	 OFFSET _compare
  00065	6a 04		 push	 4
  00067	8b 85 b8 fc ff
	ff		 mov	 eax, DWORD PTR _numtoSort$[ebp]
  0006d	50		 push	 eax
  0006e	8d 8d dc fc ff
	ff		 lea	 ecx, DWORD PTR _dblSort$[ebp]
  00074	51		 push	 ecx
  00075	e8 00 00 00 00	 call	 _qsort
  0007a	83 c4 10	 add	 esp, 16			; 00000010H

; 359  : 
; 360  : 	for (i = numtoSort -1; i >= 0; i--)

  0007d	8b 85 b8 fc ff
	ff		 mov	 eax, DWORD PTR _numtoSort$[ebp]
  00083	83 e8 01	 sub	 eax, 1
  00086	89 85 ac fc ff
	ff		 mov	 DWORD PTR _i$[ebp], eax
  0008c	eb 0f		 jmp	 SHORT $LN5@SortSignal@2
$LN4@SortSignal@2:
  0008e	8b 85 ac fc ff
	ff		 mov	 eax, DWORD PTR _i$[ebp]
  00094	83 e8 01	 sub	 eax, 1
  00097	89 85 ac fc ff
	ff		 mov	 DWORD PTR _i$[ebp], eax
$LN5@SortSignal@2:
  0009d	83 bd ac fc ff
	ff 00		 cmp	 DWORD PTR _i$[ebp], 0
  000a4	7c 47		 jl	 SHORT $LN3@SortSignal@2

; 361  : 	{
; 362  : 		if (i >= (numtoSort - intNumBins))

  000a6	8b 85 b8 fc ff
	ff		 mov	 eax, DWORD PTR _numtoSort$[ebp]
  000ac	2b 45 14	 sub	 eax, DWORD PTR _intNumBins$[ebp]
  000af	39 85 ac fc ff
	ff		 cmp	 DWORD PTR _i$[ebp], eax
  000b5	7c 1b		 jl	 SHORT $LN2@SortSignal@2

; 363  : 			dblSum1 += dblSort[i];

  000b7	d9 85 d0 fc ff
	ff		 fld	 DWORD PTR _dblSum1$[ebp]
  000bd	8b 85 ac fc ff
	ff		 mov	 eax, DWORD PTR _i$[ebp]
  000c3	d8 84 85 dc fc
	ff ff		 fadd	 DWORD PTR _dblSort$[ebp+eax*4]
  000ca	d9 9d d0 fc ff
	ff		 fstp	 DWORD PTR _dblSum1$[ebp]

; 364  : 		else

  000d0	eb 19		 jmp	 SHORT $LN1@SortSignal@2
$LN2@SortSignal@2:

; 365  : 			dblSum2 += dblSort[i];

  000d2	d9 85 c4 fc ff
	ff		 fld	 DWORD PTR _dblSum2$[ebp]
  000d8	8b 85 ac fc ff
	ff		 mov	 eax, DWORD PTR _i$[ebp]
  000de	d8 84 85 dc fc
	ff ff		 fadd	 DWORD PTR _dblSort$[ebp+eax*4]
  000e5	d9 9d c4 fc ff
	ff		 fstp	 DWORD PTR _dblSum2$[ebp]
$LN1@SortSignal@2:

; 366  : 	}

  000eb	eb a1		 jmp	 SHORT $LN4@SortSignal@2
$LN3@SortSignal@2:

; 367  : 
; 368  : 	*dblAVGSignalPerBin = dblSum1 / intNumBins;

  000ed	db 45 14	 fild	 DWORD PTR _intNumBins$[ebp]
  000f0	d8 bd d0 fc ff
	ff		 fdivr	 DWORD PTR _dblSum1$[ebp]
  000f6	8b 45 18	 mov	 eax, DWORD PTR _dblAVGSignalPerBin$[ebp]
  000f9	d9 18		 fstp	 DWORD PTR [eax]

; 369  : 	*dblAVGBaselinePerBin = dblSum2 / (intStopBin - intStartBin - intNumBins - 1);

  000fb	8b 45 10	 mov	 eax, DWORD PTR _intStopBin$[ebp]
  000fe	2b 45 0c	 sub	 eax, DWORD PTR _intStartBin$[ebp]
  00101	2b 45 14	 sub	 eax, DWORD PTR _intNumBins$[ebp]
  00104	83 e8 01	 sub	 eax, 1
  00107	89 85 e4 fb ff
	ff		 mov	 DWORD PTR tv158[ebp], eax
  0010d	db 85 e4 fb ff
	ff		 fild	 DWORD PTR tv158[ebp]
  00113	d8 bd c4 fc ff
	ff		 fdivr	 DWORD PTR _dblSum2$[ebp]
  00119	8b 4d 1c	 mov	 ecx, DWORD PTR _dblAVGBaselinePerBin$[ebp]
  0011c	d9 19		 fstp	 DWORD PTR [ecx]

; 370  : }

  0011e	52		 push	 edx
  0011f	8b cd		 mov	 ecx, ebp
  00121	50		 push	 eax
  00122	8d 15 00 00 00
	00		 lea	 edx, DWORD PTR $LN10@SortSignal@2
  00128	e8 00 00 00 00	 call	 @_RTC_CheckStackVars@8
  0012d	58		 pop	 eax
  0012e	5a		 pop	 edx
  0012f	5f		 pop	 edi
  00130	5e		 pop	 esi
  00131	5b		 pop	 ebx
  00132	81 c4 1c 04 00
	00		 add	 esp, 1052		; 0000041cH
  00138	3b ec		 cmp	 ebp, esp
  0013a	e8 00 00 00 00	 call	 __RTC_CheckEsp
  0013f	8b e5		 mov	 esp, ebp
  00141	5d		 pop	 ebp
  00142	c3		 ret	 0
  00143	90		 npad	 1
$LN10@SortSignal@2:
  00144	01 00 00 00	 DD	 1
  00148	00 00 00 00	 DD	 $LN9@SortSignal@2
$LN9@SortSignal@2:
  0014c	dc fc ff ff	 DD	 -804			; fffffcdcH
  00150	20 03 00 00	 DD	 800			; 00000320H
  00154	00 00 00 00	 DD	 $LN8@SortSignal@2
$LN8@SortSignal@2:
  00158	64		 DB	 100			; 00000064H
  00159	62		 DB	 98			; 00000062H
  0015a	6c		 DB	 108			; 0000006cH
  0015b	53		 DB	 83			; 00000053H
  0015c	6f		 DB	 111			; 0000006fH
  0015d	72		 DB	 114			; 00000072H
  0015e	74		 DB	 116			; 00000074H
  0015f	00		 DB	 0
_SortSignals2 ENDP
_TEXT	ENDS
END
