; Listing generated by Microsoft (R) Optimizing Compiler Version 14.00.50727.42 

	TITLE	c:\SkyDrive\Dev\Source\ARDOPC\CalcTemplates.c
	.686P
	.XMM
	include listing.inc
	.model	flat

INCLUDELIB LIBCMTD
INCLUDELIB OLDNAMES

_DATA	SEGMENT
_intAmp	DD	06590H
_DATA	ENDS
PUBLIC	??_C@_0CJ@JFCMOHOE@?7?$CFd?0?5?$CFd?0?5?$CFd?0?5?$CFd?0?5?$CFd?0?5?$CFd?0?5?$CFd?0?5?$CFd?0@ ; `string'
PUBLIC	__real@3fe0000000000000
PUBLIC	__real@3fe199999999999a
PUBLIC	__real@3ff0444444444444
PUBLIC	__real@3fef777777777777
PUBLIC	__real@400921fb00000000
PUBLIC	__real@4020000000000000
PUBLIC	??_C@_0BE@EHNOBBFO@s?3?2leadercoeffs?4txt?$AA@	; `string'
PUBLIC	??_C@_02GMLFBBN@wb?$AA@				; `string'
PUBLIC	__$ArrayPad$
PUBLIC	_Generate50BaudTwoToneLeaderTemplate
EXTRN	_fclose:PROC
EXTRN	_fwrite:PROC
EXTRN	_sprintf:PROC
EXTRN	_int50BaudTwoToneLeaderTemplate:BYTE
EXTRN	_sin:PROC
EXTRN	_fopen:PROC
EXTRN	___security_cookie:DWORD
EXTRN	__fltused:DWORD
EXTRN	__RTC_CheckEsp:PROC
EXTRN	@__security_check_cookie@4:PROC
EXTRN	@_RTC_CheckStackVars@8:PROC
EXTRN	__ftol2_sse:PROC
EXTRN	__RTC_Shutdown:PROC
EXTRN	__RTC_InitBase:PROC
;	COMDAT ??_C@_0CJ@JFCMOHOE@?7?$CFd?0?5?$CFd?0?5?$CFd?0?5?$CFd?0?5?$CFd?0?5?$CFd?0?5?$CFd?0?5?$CFd?0@
; File c:\skydrive\dev\source\ardopc\calctemplates.c
CONST	SEGMENT
??_C@_0CJ@JFCMOHOE@?7?$CFd?0?5?$CFd?0?5?$CFd?0?5?$CFd?0?5?$CFd?0?5?$CFd?0?5?$CFd?0?5?$CFd?0@ DB 09H
	DB	'%d, %d, %d, %d, %d, %d, %d, %d, %d, %d', 0aH, 00H ; `string'
CONST	ENDS
;	COMDAT __real@3fe0000000000000
CONST	SEGMENT
__real@3fe0000000000000 DQ 03fe0000000000000r	; 0.5
CONST	ENDS
;	COMDAT __real@3fe199999999999a
CONST	SEGMENT
__real@3fe199999999999a DQ 03fe199999999999ar	; 0.55
CONST	ENDS
;	COMDAT __real@3ff0444444444444
CONST	SEGMENT
__real@3ff0444444444444 DQ 03ff0444444444444r	; 1.01667
CONST	ENDS
;	COMDAT __real@3fef777777777777
CONST	SEGMENT
__real@3fef777777777777 DQ 03fef777777777777r	; 0.983333
CONST	ENDS
;	COMDAT __real@400921fb00000000
CONST	SEGMENT
__real@400921fb00000000 DQ 0400921fb00000000r	; 3.14159
CONST	ENDS
;	COMDAT __real@4020000000000000
CONST	SEGMENT
__real@4020000000000000 DQ 04020000000000000r	; 8
CONST	ENDS
;	COMDAT ??_C@_0BE@EHNOBBFO@s?3?2leadercoeffs?4txt?$AA@
CONST	SEGMENT
??_C@_0BE@EHNOBBFO@s?3?2leadercoeffs?4txt?$AA@ DB 's:\leadercoeffs.txt', 00H ; `string'
CONST	ENDS
;	COMDAT ??_C@_02GMLFBBN@wb?$AA@
CONST	SEGMENT
??_C@_02GMLFBBN@wb?$AA@ DB 'wb', 00H			; `string'
CONST	ENDS
;	COMDAT rtc$TMZ
rtc$TMZ	SEGMENT
__RTC_Shutdown.rtc$TMZ DD FLAT:__RTC_Shutdown
rtc$TMZ	ENDS
;	COMDAT rtc$IMZ
rtc$IMZ	SEGMENT
__RTC_InitBase.rtc$IMZ DD FLAT:__RTC_InitBase
; Function compile flags: /Odtp /RTCsu /ZI
rtc$IMZ	ENDS
;	COMDAT _Generate50BaudTwoToneLeaderTemplate
_TEXT	SEGMENT
tv221 = -372						; size = 4
_len$ = -172						; size = 4
_msg$ = -160						; size = 80
_fp1$ = -72						; size = 4
_line$ = -60						; size = 4
_z$ = -48						; size = 4
_y$ = -36						; size = 4
_x$ = -24						; size = 4
_i$ = -12						; size = 4
__$ArrayPad$ = -4					; size = 4
_Generate50BaudTwoToneLeaderTemplate PROC		; COMDAT

; 9    : {

  00000	55		 push	 ebp
  00001	8b ec		 mov	 ebp, esp
  00003	81 ec 74 01 00
	00		 sub	 esp, 372		; 00000174H
  00009	53		 push	 ebx
  0000a	56		 push	 esi
  0000b	57		 push	 edi
  0000c	8d bd 8c fe ff
	ff		 lea	 edi, DWORD PTR [ebp-372]
  00012	b9 5d 00 00 00	 mov	 ecx, 93			; 0000005dH
  00017	b8 cc cc cc cc	 mov	 eax, -858993460		; ccccccccH
  0001c	f3 ab		 rep stosd
  0001e	a1 00 00 00 00	 mov	 eax, DWORD PTR ___security_cookie
  00023	33 c5		 xor	 eax, ebp
  00025	89 45 fc	 mov	 DWORD PTR __$ArrayPad$[ebp], eax

; 10   : 	int i;
; 11   : 	float x, y, z;
; 12   : 	int line = 0;

  00028	c7 45 c4 00 00
	00 00		 mov	 DWORD PTR _line$[ebp], 0

; 13   : 
; 14   : 	FILE * fp1;
; 15   : 
; 16   : 	char msg[80];
; 17   : 	int len;
; 18   : 
; 19   : 	fp1 = fopen("s:\\leadercoeffs.txt", "wb");

  0002f	68 00 00 00 00	 push	 OFFSET ??_C@_02GMLFBBN@wb?$AA@
  00034	68 00 00 00 00	 push	 OFFSET ??_C@_0BE@EHNOBBFO@s?3?2leadercoeffs?4txt?$AA@
  00039	e8 00 00 00 00	 call	 _fopen
  0003e	83 c4 08	 add	 esp, 8
  00041	89 45 b8	 mov	 DWORD PTR _fp1$[ebp], eax

; 20   : 
; 21   : 	for (i = 0; i < 240; i++)

  00044	c7 45 f4 00 00
	00 00		 mov	 DWORD PTR _i$[ebp], 0
  0004b	eb 09		 jmp	 SHORT $LN4@Generate50
$LN3@Generate50:
  0004d	8b 45 f4	 mov	 eax, DWORD PTR _i$[ebp]
  00050	83 c0 01	 add	 eax, 1
  00053	89 45 f4	 mov	 DWORD PTR _i$[ebp], eax
$LN4@Generate50:
  00056	81 7d f4 f0 00
	00 00		 cmp	 DWORD PTR _i$[ebp], 240	; 000000f0H
  0005d	0f 8d 5f 01 00
	00		 jge	 $LN2@Generate50

; 22   : 	{
; 23   : 		y = (sin(((1500.0 - 25) / 1500) * (i / 8.0 * 2 * M_PI)));

  00063	db 45 f4	 fild	 DWORD PTR _i$[ebp]
  00066	dc 35 00 00 00
	00		 fdiv	 QWORD PTR __real@4020000000000000
  0006c	dc c0		 fadd	 ST(0), ST(0)
  0006e	dc 0d 00 00 00
	00		 fmul	 QWORD PTR __real@400921fb00000000
  00074	dc 0d 00 00 00
	00		 fmul	 QWORD PTR __real@3fef777777777777
  0007a	83 ec 08	 sub	 esp, 8
  0007d	dd 1c 24	 fstp	 QWORD PTR [esp]
  00080	e8 00 00 00 00	 call	 _sin
  00085	83 c4 08	 add	 esp, 8
  00088	d9 5d dc	 fstp	 DWORD PTR _y$[ebp]

; 24   : 		z = (sin(((1500.0 + 25) / 1500) * (i / 8.0 * 2 * M_PI)));

  0008b	db 45 f4	 fild	 DWORD PTR _i$[ebp]
  0008e	dc 35 00 00 00
	00		 fdiv	 QWORD PTR __real@4020000000000000
  00094	dc c0		 fadd	 ST(0), ST(0)
  00096	dc 0d 00 00 00
	00		 fmul	 QWORD PTR __real@400921fb00000000
  0009c	dc 0d 00 00 00
	00		 fmul	 QWORD PTR __real@3ff0444444444444
  000a2	83 ec 08	 sub	 esp, 8
  000a5	dd 1c 24	 fstp	 QWORD PTR [esp]
  000a8	e8 00 00 00 00	 call	 _sin
  000ad	83 c4 08	 add	 esp, 8
  000b0	d9 5d d0	 fstp	 DWORD PTR _z$[ebp]

; 25   : 
; 26   : 		x = intAmp * 0.55 * (y - z);

  000b3	db 05 00 00 00
	00		 fild	 DWORD PTR _intAmp
  000b9	dc 0d 00 00 00
	00		 fmul	 QWORD PTR __real@3fe199999999999a
  000bf	d9 45 dc	 fld	 DWORD PTR _y$[ebp]
  000c2	d8 65 d0	 fsub	 DWORD PTR _z$[ebp]
  000c5	de c9		 fmulp	 ST(1), ST(0)
  000c7	d9 5d e8	 fstp	 DWORD PTR _x$[ebp]

; 27   : 		int50BaudTwoToneLeaderTemplate[i] = (short)x + 0.5;

  000ca	d9 45 e8	 fld	 DWORD PTR _x$[ebp]
  000cd	e8 00 00 00 00	 call	 __ftol2_sse
  000d2	0f bf c0	 movsx	 eax, ax
  000d5	89 85 8c fe ff
	ff		 mov	 DWORD PTR tv221[ebp], eax
  000db	db 85 8c fe ff
	ff		 fild	 DWORD PTR tv221[ebp]
  000e1	dc 05 00 00 00
	00		 fadd	 QWORD PTR __real@3fe0000000000000
  000e7	e8 00 00 00 00	 call	 __ftol2_sse
  000ec	8b 4d f4	 mov	 ecx, DWORD PTR _i$[ebp]
  000ef	66 89 04 4d 00
	00 00 00	 mov	 WORD PTR _int50BaudTwoToneLeaderTemplate[ecx*2], ax

; 28   : 
; 29   : 		if ((i - line) == 9)

  000f7	8b 45 f4	 mov	 eax, DWORD PTR _i$[ebp]
  000fa	2b 45 c4	 sub	 eax, DWORD PTR _line$[ebp]
  000fd	83 f8 09	 cmp	 eax, 9
  00100	0f 85 b7 00 00
	00		 jne	 $LN1@Generate50

; 30   : 		{
; 31   : 			// print the last 10 values
; 32   : 
; 33   : 			len = sprintf(msg, "\t%d, %d, %d, %d, %d, %d, %d, %d, %d, %d\n",
; 34   : 				int50BaudTwoToneLeaderTemplate[line],
; 35   : 				int50BaudTwoToneLeaderTemplate[line + 1],
; 36   : 				int50BaudTwoToneLeaderTemplate[line + 2],
; 37   : 				int50BaudTwoToneLeaderTemplate[line + 3],
; 38   : 				int50BaudTwoToneLeaderTemplate[line + 4],
; 39   : 				int50BaudTwoToneLeaderTemplate[line + 5],
; 40   : 				int50BaudTwoToneLeaderTemplate[line + 6],
; 41   : 				int50BaudTwoToneLeaderTemplate[line + 7],
; 42   : 				int50BaudTwoToneLeaderTemplate[line + 8],
; 43   : 				int50BaudTwoToneLeaderTemplate[line + 9]);

  00106	8b 45 c4	 mov	 eax, DWORD PTR _line$[ebp]
  00109	0f bf 0c 45 12
	00 00 00	 movsx	 ecx, WORD PTR _int50BaudTwoToneLeaderTemplate[eax*2+18]
  00111	51		 push	 ecx
  00112	8b 55 c4	 mov	 edx, DWORD PTR _line$[ebp]
  00115	0f bf 04 55 10
	00 00 00	 movsx	 eax, WORD PTR _int50BaudTwoToneLeaderTemplate[edx*2+16]
  0011d	50		 push	 eax
  0011e	8b 4d c4	 mov	 ecx, DWORD PTR _line$[ebp]
  00121	0f bf 14 4d 0e
	00 00 00	 movsx	 edx, WORD PTR _int50BaudTwoToneLeaderTemplate[ecx*2+14]
  00129	52		 push	 edx
  0012a	8b 45 c4	 mov	 eax, DWORD PTR _line$[ebp]
  0012d	0f bf 0c 45 0c
	00 00 00	 movsx	 ecx, WORD PTR _int50BaudTwoToneLeaderTemplate[eax*2+12]
  00135	51		 push	 ecx
  00136	8b 55 c4	 mov	 edx, DWORD PTR _line$[ebp]
  00139	0f bf 04 55 0a
	00 00 00	 movsx	 eax, WORD PTR _int50BaudTwoToneLeaderTemplate[edx*2+10]
  00141	50		 push	 eax
  00142	8b 4d c4	 mov	 ecx, DWORD PTR _line$[ebp]
  00145	0f bf 14 4d 08
	00 00 00	 movsx	 edx, WORD PTR _int50BaudTwoToneLeaderTemplate[ecx*2+8]
  0014d	52		 push	 edx
  0014e	8b 45 c4	 mov	 eax, DWORD PTR _line$[ebp]
  00151	0f bf 0c 45 06
	00 00 00	 movsx	 ecx, WORD PTR _int50BaudTwoToneLeaderTemplate[eax*2+6]
  00159	51		 push	 ecx
  0015a	8b 55 c4	 mov	 edx, DWORD PTR _line$[ebp]
  0015d	0f bf 04 55 04
	00 00 00	 movsx	 eax, WORD PTR _int50BaudTwoToneLeaderTemplate[edx*2+4]
  00165	50		 push	 eax
  00166	8b 4d c4	 mov	 ecx, DWORD PTR _line$[ebp]
  00169	0f bf 14 4d 02
	00 00 00	 movsx	 edx, WORD PTR _int50BaudTwoToneLeaderTemplate[ecx*2+2]
  00171	52		 push	 edx
  00172	8b 45 c4	 mov	 eax, DWORD PTR _line$[ebp]
  00175	0f bf 0c 45 00
	00 00 00	 movsx	 ecx, WORD PTR _int50BaudTwoToneLeaderTemplate[eax*2]
  0017d	51		 push	 ecx
  0017e	68 00 00 00 00	 push	 OFFSET ??_C@_0CJ@JFCMOHOE@?7?$CFd?0?5?$CFd?0?5?$CFd?0?5?$CFd?0?5?$CFd?0?5?$CFd?0?5?$CFd?0?5?$CFd?0@
  00183	8d 95 60 ff ff
	ff		 lea	 edx, DWORD PTR _msg$[ebp]
  00189	52		 push	 edx
  0018a	e8 00 00 00 00	 call	 _sprintf
  0018f	83 c4 30	 add	 esp, 48			; 00000030H
  00192	89 85 54 ff ff
	ff		 mov	 DWORD PTR _len$[ebp], eax

; 44   : 
; 45   : 			line = i + 1;

  00198	8b 45 f4	 mov	 eax, DWORD PTR _i$[ebp]
  0019b	83 c0 01	 add	 eax, 1
  0019e	89 45 c4	 mov	 DWORD PTR _line$[ebp], eax

; 46   : 
; 47   : 			fwrite(msg, 1, len, fp1);

  001a1	8b 45 b8	 mov	 eax, DWORD PTR _fp1$[ebp]
  001a4	50		 push	 eax
  001a5	8b 8d 54 ff ff
	ff		 mov	 ecx, DWORD PTR _len$[ebp]
  001ab	51		 push	 ecx
  001ac	6a 01		 push	 1
  001ae	8d 95 60 ff ff
	ff		 lea	 edx, DWORD PTR _msg$[ebp]
  001b4	52		 push	 edx
  001b5	e8 00 00 00 00	 call	 _fwrite
  001ba	83 c4 10	 add	 esp, 16			; 00000010H
$LN1@Generate50:

; 48   : 		}
; 49   : 	}		

  001bd	e9 8b fe ff ff	 jmp	 $LN3@Generate50
$LN2@Generate50:

; 50   : 	fclose(fp1);

  001c2	8b 45 b8	 mov	 eax, DWORD PTR _fp1$[ebp]
  001c5	50		 push	 eax
  001c6	e8 00 00 00 00	 call	 _fclose
  001cb	83 c4 04	 add	 esp, 4

; 51   : }

  001ce	52		 push	 edx
  001cf	8b cd		 mov	 ecx, ebp
  001d1	50		 push	 eax
  001d2	8d 15 00 00 00
	00		 lea	 edx, DWORD PTR $LN9@Generate50
  001d8	e8 00 00 00 00	 call	 @_RTC_CheckStackVars@8
  001dd	58		 pop	 eax
  001de	5a		 pop	 edx
  001df	5f		 pop	 edi
  001e0	5e		 pop	 esi
  001e1	5b		 pop	 ebx
  001e2	8b 4d fc	 mov	 ecx, DWORD PTR __$ArrayPad$[ebp]
  001e5	33 cd		 xor	 ecx, ebp
  001e7	e8 00 00 00 00	 call	 @__security_check_cookie@4
  001ec	81 c4 74 01 00
	00		 add	 esp, 372		; 00000174H
  001f2	3b ec		 cmp	 ebp, esp
  001f4	e8 00 00 00 00	 call	 __RTC_CheckEsp
  001f9	8b e5		 mov	 esp, ebp
  001fb	5d		 pop	 ebp
  001fc	c3		 ret	 0
  001fd	8d 49 00	 npad	 3
$LN9@Generate50:
  00200	01 00 00 00	 DD	 1
  00204	00 00 00 00	 DD	 $LN8@Generate50
$LN8@Generate50:
  00208	60 ff ff ff	 DD	 -160			; ffffff60H
  0020c	50 00 00 00	 DD	 80			; 00000050H
  00210	00 00 00 00	 DD	 $LN7@Generate50
$LN7@Generate50:
  00214	6d		 DB	 109			; 0000006dH
  00215	73		 DB	 115			; 00000073H
  00216	67		 DB	 103			; 00000067H
  00217	00		 DB	 0
_Generate50BaudTwoToneLeaderTemplate ENDP
_TEXT	ENDS
PUBLIC	??_C@_0CK@GKCJDKFH@short?5intFSK600bdCarTemplate?$FL4?$FN?$FL@ ; `string'
PUBLIC	??_C@_0BE@EOCOMHAE@s?3?2fskcoeffs600?4txt?$AA@	; `string'
PUBLIC	??_C@_06JEOIFLEK@?7?$HN?$HN?$DL?$AN?6?$AA@	; `string'
PUBLIC	??_C@_08CCLIEFAL@?$HN?0?$AN?6?$AN?6?7?$HL?$AA@	; `string'
PUBLIC	??_C@_04HKMEDGNH@?7?$HL?$AN?6?$AA@		; `string'
PUBLIC	??_C@_0CL@EICOHPHE@short?5intFSK25bdCarTemplate?$FL16?$FN?$FL@ ; `string'
PUBLIC	??_C@_0BD@HGBCACK@s?3?2fskcoeffs25?4txt?$AA@	; `string'
PUBLIC	__real@44ce4000
PUBLIC	__real@44c1c000
PUBLIC	__real@44b54000
PUBLIC	__real@44a8c000
PUBLIC	__real@3f412843a0000000
PUBLIC	__real@4094820000000000
PUBLIC	??_C@_05EDDOIOFO@Duff?6?$AA@			; `string'
PUBLIC	__real@3ff199999999999a
PUBLIC	??_C@_0CK@GBNNNIFO@?7?$CFd?0?5?$CFd?0?5?$CFd?0?5?$CFd?0?5?$CFd?0?5?$CFd?0?5?$CFd?0?5?$CFd?0@ ; `string'
PUBLIC	__real@00000000
PUBLIC	__real@40c7700000000000
PUBLIC	__real@401921fb00000000
PUBLIC	__real@45160000
PUBLIC	__real@450fc000
PUBLIC	__real@45098000
PUBLIC	__real@45034000
PUBLIC	__real@44ed8000
PUBLIC	__real@44e10000
PUBLIC	__real@44d48000
PUBLIC	__real@44c80000
PUBLIC	__real@44af0000
PUBLIC	__real@44a28000
PUBLIC	__real@44960000
PUBLIC	__real@44898000
PUBLIC	__real@44610000
PUBLIC	__real@44480000
PUBLIC	__real@442f0000
PUBLIC	__real@44160000
PUBLIC	__real@44c4e000
PUBLIC	__real@44bea000
PUBLIC	__real@44b86000
PUBLIC	__real@44b22000
PUBLIC	__$ArrayPad$
PUBLIC	_GenerateFSKTemplates
EXTRN	_intFSK600bdCarTemplate:BYTE
EXTRN	_printf:PROC
EXTRN	_intFSK25bdCarTemplate:BYTE
EXTRN	_intFSK50bdCarTemplate:BYTE
;	COMDAT ??_C@_0CK@GKCJDKFH@short?5intFSK600bdCarTemplate?$FL4?$FN?$FL@
CONST	SEGMENT
??_C@_0CK@GKCJDKFH@short?5intFSK600bdCarTemplate?$FL4?$FN?$FL@ DB 'short '
	DB	'intFSK600bdCarTemplate[4][20] = {', 0dH, 0aH, 00H ; `string'
CONST	ENDS
;	COMDAT ??_C@_0BE@EOCOMHAE@s?3?2fskcoeffs600?4txt?$AA@
CONST	SEGMENT
??_C@_0BE@EOCOMHAE@s?3?2fskcoeffs600?4txt?$AA@ DB 's:\fskcoeffs600.txt', 00H ; `string'
CONST	ENDS
;	COMDAT ??_C@_06JEOIFLEK@?7?$HN?$HN?$DL?$AN?6?$AA@
CONST	SEGMENT
??_C@_06JEOIFLEK@?7?$HN?$HN?$DL?$AN?6?$AA@ DB 09H, '}};', 0dH, 0aH, 00H ; `string'
CONST	ENDS
;	COMDAT ??_C@_08CCLIEFAL@?$HN?0?$AN?6?$AN?6?7?$HL?$AA@
CONST	SEGMENT
??_C@_08CCLIEFAL@?$HN?0?$AN?6?$AN?6?7?$HL?$AA@ DB '},', 0dH, 0aH, 0dH, 0aH
	DB	09H, '{', 00H				; `string'
CONST	ENDS
;	COMDAT ??_C@_04HKMEDGNH@?7?$HL?$AN?6?$AA@
CONST	SEGMENT
??_C@_04HKMEDGNH@?7?$HL?$AN?6?$AA@ DB 09H, '{', 0dH, 0aH, 00H ; `string'
CONST	ENDS
;	COMDAT ??_C@_0CL@EICOHPHE@short?5intFSK25bdCarTemplate?$FL16?$FN?$FL@
CONST	SEGMENT
??_C@_0CL@EICOHPHE@short?5intFSK25bdCarTemplate?$FL16?$FN?$FL@ DB 'short '
	DB	'intFSK25bdCarTemplate[16][480] = {', 0dH, 0aH, 00H ; `string'
CONST	ENDS
;	COMDAT ??_C@_0BD@HGBCACK@s?3?2fskcoeffs25?4txt?$AA@
CONST	SEGMENT
??_C@_0BD@HGBCACK@s?3?2fskcoeffs25?4txt?$AA@ DB 's:\fskcoeffs25.txt', 00H ; `string'
CONST	ENDS
;	COMDAT __real@44ce4000
CONST	SEGMENT
__real@44ce4000 DD 044ce4000r			; 1650
CONST	ENDS
;	COMDAT __real@44c1c000
CONST	SEGMENT
__real@44c1c000 DD 044c1c000r			; 1550
CONST	ENDS
;	COMDAT __real@44b54000
CONST	SEGMENT
__real@44b54000 DD 044b54000r			; 1450
CONST	ENDS
;	COMDAT __real@44a8c000
CONST	SEGMENT
__real@44a8c000 DD 044a8c000r			; 1350
CONST	ENDS
;	COMDAT __real@3f412843a0000000
CONST	SEGMENT
__real@3f412843a0000000 DQ 03f412843a0000000r	; 0.000523599
CONST	ENDS
;	COMDAT __real@4094820000000000
CONST	SEGMENT
__real@4094820000000000 DQ 04094820000000000r	; 1312.5
CONST	ENDS
;	COMDAT ??_C@_05EDDOIOFO@Duff?6?$AA@
CONST	SEGMENT
??_C@_05EDDOIOFO@Duff?6?$AA@ DB 'Duff', 0aH, 00H	; `string'
CONST	ENDS
;	COMDAT __real@3ff199999999999a
CONST	SEGMENT
__real@3ff199999999999a DQ 03ff199999999999ar	; 1.1
CONST	ENDS
;	COMDAT ??_C@_0CK@GBNNNIFO@?7?$CFd?0?5?$CFd?0?5?$CFd?0?5?$CFd?0?5?$CFd?0?5?$CFd?0?5?$CFd?0?5?$CFd?0@
CONST	SEGMENT
??_C@_0CK@GBNNNIFO@?7?$CFd?0?5?$CFd?0?5?$CFd?0?5?$CFd?0?5?$CFd?0?5?$CFd?0?5?$CFd?0?5?$CFd?0@ DB 09H
	DB	'%d, %d, %d, %d, %d, %d, %d, %d, %d, %d,', 0aH, 00H ; `string'
CONST	ENDS
;	COMDAT __real@00000000
CONST	SEGMENT
__real@00000000 DD 000000000r			; 0
CONST	ENDS
;	COMDAT __real@40c7700000000000
CONST	SEGMENT
__real@40c7700000000000 DQ 040c7700000000000r	; 12000
CONST	ENDS
;	COMDAT __real@401921fb00000000
CONST	SEGMENT
__real@401921fb00000000 DQ 0401921fb00000000r	; 6.28318
CONST	ENDS
;	COMDAT __real@45160000
CONST	SEGMENT
__real@45160000 DD 045160000r			; 2400
CONST	ENDS
;	COMDAT __real@450fc000
CONST	SEGMENT
__real@450fc000 DD 0450fc000r			; 2300
CONST	ENDS
;	COMDAT __real@45098000
CONST	SEGMENT
__real@45098000 DD 045098000r			; 2200
CONST	ENDS
;	COMDAT __real@45034000
CONST	SEGMENT
__real@45034000 DD 045034000r			; 2100
CONST	ENDS
;	COMDAT __real@44ed8000
CONST	SEGMENT
__real@44ed8000 DD 044ed8000r			; 1900
CONST	ENDS
;	COMDAT __real@44e10000
CONST	SEGMENT
__real@44e10000 DD 044e10000r			; 1800
CONST	ENDS
;	COMDAT __real@44d48000
CONST	SEGMENT
__real@44d48000 DD 044d48000r			; 1700
CONST	ENDS
;	COMDAT __real@44c80000
CONST	SEGMENT
__real@44c80000 DD 044c80000r			; 1600
CONST	ENDS
;	COMDAT __real@44af0000
CONST	SEGMENT
__real@44af0000 DD 044af0000r			; 1400
CONST	ENDS
;	COMDAT __real@44a28000
CONST	SEGMENT
__real@44a28000 DD 044a28000r			; 1300
CONST	ENDS
;	COMDAT __real@44960000
CONST	SEGMENT
__real@44960000 DD 044960000r			; 1200
CONST	ENDS
;	COMDAT __real@44898000
CONST	SEGMENT
__real@44898000 DD 044898000r			; 1100
CONST	ENDS
;	COMDAT __real@44610000
CONST	SEGMENT
__real@44610000 DD 044610000r			; 900
CONST	ENDS
;	COMDAT __real@44480000
CONST	SEGMENT
__real@44480000 DD 044480000r			; 800
CONST	ENDS
;	COMDAT __real@442f0000
CONST	SEGMENT
__real@442f0000 DD 0442f0000r			; 700
CONST	ENDS
;	COMDAT __real@44160000
CONST	SEGMENT
__real@44160000 DD 044160000r			; 600
CONST	ENDS
;	COMDAT __real@44c4e000
CONST	SEGMENT
__real@44c4e000 DD 044c4e000r			; 1575
CONST	ENDS
;	COMDAT __real@44bea000
CONST	SEGMENT
__real@44bea000 DD 044bea000r			; 1525
CONST	ENDS
;	COMDAT __real@44b86000
CONST	SEGMENT
__real@44b86000 DD 044b86000r			; 1475
CONST	ENDS
;	COMDAT __real@44b22000
CONST	SEGMENT
__real@44b22000 DD 044b22000r			; 1425
; Function compile flags: /Odtp /RTCsu /ZI
CONST	ENDS
;	COMDAT _GenerateFSKTemplates
_TEXT	SEGMENT
tv745 = -740						; size = 8
tv743 = -740						; size = 8
tv628 = -736						; size = 4
tv606 = -736						; size = 4
_xx$5462 = -536						; size = 4
_xx$5452 = -524						; size = 4
_fp1$ = -512						; size = 4
_line$ = -500						; size = 4
_len$ = -488						; size = 4
_msg$ = -476						; size = 256
_k$ = -212						; size = 4
_i$ = -200						; size = 4
_dblCarPhaseInc$ = -188					; size = 80
_dblAngle$ = -100					; size = 4
_dblCarFreq$ = -88					; size = 80
__$ArrayPad$ = -4					; size = 4
_GenerateFSKTemplates PROC				; COMDAT

; 103  : {

  00000	55		 push	 ebp
  00001	8b ec		 mov	 ebp, esp
  00003	81 ec e4 02 00
	00		 sub	 esp, 740		; 000002e4H
  00009	53		 push	 ebx
  0000a	56		 push	 esi
  0000b	57		 push	 edi
  0000c	8d bd 1c fd ff
	ff		 lea	 edi, DWORD PTR [ebp-740]
  00012	b9 b9 00 00 00	 mov	 ecx, 185		; 000000b9H
  00017	b8 cc cc cc cc	 mov	 eax, -858993460		; ccccccccH
  0001c	f3 ab		 rep stosd
  0001e	a1 00 00 00 00	 mov	 eax, DWORD PTR ___security_cookie
  00023	33 c5		 xor	 eax, ebp
  00025	89 45 fc	 mov	 DWORD PTR __$ArrayPad$[ebp], eax

; 104  : 	// Generate templates of 240 samples (each symbol template = 20 ms) for each of the 4 possible carriers used in 200 Hz BW FSK modulation.
; 105  : 	// Generate templates of 120 samples (each symbol template = 10 ms) for each of the 20 possible carriers used in 500, 1000 and 2000 Hz BW 4FSK modulation.
; 106  : 	//Used to speed up computation of FSK frames and reduce use of Sin functions.
; 107  : 	//50 baud Tone values 
; 108  : 
; 109  : 	// the possible carrier frequencies in Hz ' note gaps for groups of 4 at 900, 1400, and 1900 Hz improved isolation between simultaneous carriers
; 110  : 
; 111  : 	float dblCarFreq[] = {1425, 1475, 1525, 1575, 600, 700, 800, 900, 1100, 1200, 1300, 1400, 1600, 1700, 1800, 1900, 2100, 2200, 2300, 2400};

  00028	d9 05 00 00 00
	00		 fld	 DWORD PTR __real@44b22000
  0002e	d9 5d a8	 fstp	 DWORD PTR _dblCarFreq$[ebp]
  00031	d9 05 00 00 00
	00		 fld	 DWORD PTR __real@44b86000
  00037	d9 5d ac	 fstp	 DWORD PTR _dblCarFreq$[ebp+4]
  0003a	d9 05 00 00 00
	00		 fld	 DWORD PTR __real@44bea000
  00040	d9 5d b0	 fstp	 DWORD PTR _dblCarFreq$[ebp+8]
  00043	d9 05 00 00 00
	00		 fld	 DWORD PTR __real@44c4e000
  00049	d9 5d b4	 fstp	 DWORD PTR _dblCarFreq$[ebp+12]
  0004c	d9 05 00 00 00
	00		 fld	 DWORD PTR __real@44160000
  00052	d9 5d b8	 fstp	 DWORD PTR _dblCarFreq$[ebp+16]
  00055	d9 05 00 00 00
	00		 fld	 DWORD PTR __real@442f0000
  0005b	d9 5d bc	 fstp	 DWORD PTR _dblCarFreq$[ebp+20]
  0005e	d9 05 00 00 00
	00		 fld	 DWORD PTR __real@44480000
  00064	d9 5d c0	 fstp	 DWORD PTR _dblCarFreq$[ebp+24]
  00067	d9 05 00 00 00
	00		 fld	 DWORD PTR __real@44610000
  0006d	d9 5d c4	 fstp	 DWORD PTR _dblCarFreq$[ebp+28]
  00070	d9 05 00 00 00
	00		 fld	 DWORD PTR __real@44898000
  00076	d9 5d c8	 fstp	 DWORD PTR _dblCarFreq$[ebp+32]
  00079	d9 05 00 00 00
	00		 fld	 DWORD PTR __real@44960000
  0007f	d9 5d cc	 fstp	 DWORD PTR _dblCarFreq$[ebp+36]
  00082	d9 05 00 00 00
	00		 fld	 DWORD PTR __real@44a28000
  00088	d9 5d d0	 fstp	 DWORD PTR _dblCarFreq$[ebp+40]
  0008b	d9 05 00 00 00
	00		 fld	 DWORD PTR __real@44af0000
  00091	d9 5d d4	 fstp	 DWORD PTR _dblCarFreq$[ebp+44]
  00094	d9 05 00 00 00
	00		 fld	 DWORD PTR __real@44c80000
  0009a	d9 5d d8	 fstp	 DWORD PTR _dblCarFreq$[ebp+48]
  0009d	d9 05 00 00 00
	00		 fld	 DWORD PTR __real@44d48000
  000a3	d9 5d dc	 fstp	 DWORD PTR _dblCarFreq$[ebp+52]
  000a6	d9 05 00 00 00
	00		 fld	 DWORD PTR __real@44e10000
  000ac	d9 5d e0	 fstp	 DWORD PTR _dblCarFreq$[ebp+56]
  000af	d9 05 00 00 00
	00		 fld	 DWORD PTR __real@44ed8000
  000b5	d9 5d e4	 fstp	 DWORD PTR _dblCarFreq$[ebp+60]
  000b8	d9 05 00 00 00
	00		 fld	 DWORD PTR __real@45034000
  000be	d9 5d e8	 fstp	 DWORD PTR _dblCarFreq$[ebp+64]
  000c1	d9 05 00 00 00
	00		 fld	 DWORD PTR __real@45098000
  000c7	d9 5d ec	 fstp	 DWORD PTR _dblCarFreq$[ebp+68]
  000ca	d9 05 00 00 00
	00		 fld	 DWORD PTR __real@450fc000
  000d0	d9 5d f0	 fstp	 DWORD PTR _dblCarFreq$[ebp+72]
  000d3	d9 05 00 00 00
	00		 fld	 DWORD PTR __real@45160000
  000d9	d9 5d f4	 fstp	 DWORD PTR _dblCarFreq$[ebp+76]

; 112  : 
; 113  : 	float dblAngle;		// Angle in radians
; 114  : 	float dblCarPhaseInc[20]; 
; 115  : 	int i, k;
; 116  : 
; 117  : 	char msg[256];
; 118  : 	int len;
; 119  : 	int line = 0;

  000dc	c7 85 0c fe ff
	ff 00 00 00 00	 mov	 DWORD PTR _line$[ebp], 0

; 120  : 	FILE * fp1;
; 121  : 
; 122  : 	// Compute the phase inc per sample
; 123  : 
; 124  :     for (i = 0; i < 4; i++) 

  000e6	c7 85 38 ff ff
	ff 00 00 00 00	 mov	 DWORD PTR _i$[ebp], 0
  000f0	eb 0f		 jmp	 SHORT $LN46@GenerateFS
$LN45@GenerateFS:
  000f2	8b 85 38 ff ff
	ff		 mov	 eax, DWORD PTR _i$[ebp]
  000f8	83 c0 01	 add	 eax, 1
  000fb	89 85 38 ff ff
	ff		 mov	 DWORD PTR _i$[ebp], eax
$LN46@GenerateFS:
  00101	83 bd 38 ff ff
	ff 04		 cmp	 DWORD PTR _i$[ebp], 4
  00108	7d 25		 jge	 SHORT $LN44@GenerateFS

; 125  : 	{
; 126  : 		dblCarPhaseInc[i] = 2 * M_PI * dblCarFreq[i] / 12000;

  0010a	8b 85 38 ff ff
	ff		 mov	 eax, DWORD PTR _i$[ebp]
  00110	d9 44 85 a8	 fld	 DWORD PTR _dblCarFreq$[ebp+eax*4]
  00114	dc 0d 00 00 00
	00		 fmul	 QWORD PTR __real@401921fb00000000
  0011a	dc 35 00 00 00
	00		 fdiv	 QWORD PTR __real@40c7700000000000
  00120	8b 8d 38 ff ff
	ff		 mov	 ecx, DWORD PTR _i$[ebp]
  00126	d9 9c 8d 44 ff
	ff ff		 fstp	 DWORD PTR _dblCarPhaseInc$[ebp+ecx*4]

; 127  : 	}

  0012d	eb c3		 jmp	 SHORT $LN45@GenerateFS
$LN44@GenerateFS:

; 128  : 	
; 129  : 	// Now compute the templates: (960 32 bit values total) 
; 130  : 	
; 131  : 	for (i = 0; i < 4; i++)			// across the 4 tones for 50 baud frequencies

  0012f	c7 85 38 ff ff
	ff 00 00 00 00	 mov	 DWORD PTR _i$[ebp], 0
  00139	eb 0f		 jmp	 SHORT $LN43@GenerateFS
$LN42@GenerateFS:
  0013b	8b 85 38 ff ff
	ff		 mov	 eax, DWORD PTR _i$[ebp]
  00141	83 c0 01	 add	 eax, 1
  00144	89 85 38 ff ff
	ff		 mov	 DWORD PTR _i$[ebp], eax
$LN43@GenerateFS:
  0014a	83 bd 38 ff ff
	ff 04		 cmp	 DWORD PTR _i$[ebp], 4
  00151	0f 8d bf 01 00
	00		 jge	 $LN41@GenerateFS

; 132  : 	{
; 133  : 		dblAngle = 0;

  00157	d9 ee		 fldz
  00159	d9 5d 9c	 fstp	 DWORD PTR _dblAngle$[ebp]

; 134  : 		// 50 baud template
; 135  : 
; 136  : 		line = 0;

  0015c	c7 85 0c fe ff
	ff 00 00 00 00	 mov	 DWORD PTR _line$[ebp], 0

; 137  : 
; 138  : 		for (k = 0; k < 240; k++)	// for 240 samples (one 50 baud symbol)

  00166	c7 85 2c ff ff
	ff 00 00 00 00	 mov	 DWORD PTR _k$[ebp], 0
  00170	eb 0f		 jmp	 SHORT $LN40@GenerateFS
$LN39@GenerateFS:
  00172	8b 85 2c ff ff
	ff		 mov	 eax, DWORD PTR _k$[ebp]
  00178	83 c0 01	 add	 eax, 1
  0017b	89 85 2c ff ff
	ff		 mov	 DWORD PTR _k$[ebp], eax
$LN40@GenerateFS:
  00181	81 bd 2c ff ff
	ff f0 00 00 00	 cmp	 DWORD PTR _k$[ebp], 240	; 000000f0H
  0018b	0f 8d 80 01 00
	00		 jge	 $LN38@GenerateFS

; 139  : 		{
; 140  : 	//		intFSK50bdCarTemplate[i][k] = intAmp * 1.1 * sin(dblAngle);  // with no envelope control (factor 1.1 chosen emperically to keep FSK peak amplitude slightly below 2 tone peak)
; 141  : 			dblAngle += dblCarPhaseInc[i];

  00191	d9 45 9c	 fld	 DWORD PTR _dblAngle$[ebp]
  00194	8b 85 38 ff ff
	ff		 mov	 eax, DWORD PTR _i$[ebp]
  0019a	d8 84 85 44 ff
	ff ff		 fadd	 DWORD PTR _dblCarPhaseInc$[ebp+eax*4]
  001a1	d9 5d 9c	 fstp	 DWORD PTR _dblAngle$[ebp]

; 142  : 
; 143  : 			if (dblAngle >= 2 * M_PI)

  001a4	d9 45 9c	 fld	 DWORD PTR _dblAngle$[ebp]
  001a7	dc 1d 00 00 00
	00		 fcomp	 QWORD PTR __real@401921fb00000000
  001ad	df e0		 fnstsw	 ax
  001af	f6 c4 01	 test	 ah, 1
  001b2	75 0c		 jne	 SHORT $LN37@GenerateFS

; 144  : 				dblAngle -= 2 * M_PI;

  001b4	d9 45 9c	 fld	 DWORD PTR _dblAngle$[ebp]
  001b7	dc 25 00 00 00
	00		 fsub	 QWORD PTR __real@401921fb00000000
  001bd	d9 5d 9c	 fstp	 DWORD PTR _dblAngle$[ebp]
$LN37@GenerateFS:

; 145  : 		
; 146  : 			if ((k - line) == 9)

  001c0	8b 85 2c ff ff
	ff		 mov	 eax, DWORD PTR _k$[ebp]
  001c6	2b 85 0c fe ff
	ff		 sub	 eax, DWORD PTR _line$[ebp]
  001cc	83 f8 09	 cmp	 eax, 9
  001cf	0f 85 37 01 00
	00		 jne	 $LN36@GenerateFS

; 147  : 			{
; 148  : 				// print the last 10 values
; 149  : 
; 150  : 				len = sprintf(msg, "\t%d, %d, %d, %d, %d, %d, %d, %d, %d, %d,\n",
; 151  : 				intFSK50bdCarTemplate[i][line],
; 152  : 				intFSK50bdCarTemplate[i][line + 1],
; 153  : 				intFSK50bdCarTemplate[i][line + 2],
; 154  : 				intFSK50bdCarTemplate[i][line + 3],
; 155  : 				intFSK50bdCarTemplate[i][line + 4],
; 156  : 				intFSK50bdCarTemplate[i][line + 5],
; 157  : 				intFSK50bdCarTemplate[i][line + 6],
; 158  : 				intFSK50bdCarTemplate[i][line + 7],
; 159  : 				intFSK50bdCarTemplate[i][line + 8],
; 160  : 				intFSK50bdCarTemplate[i][line + 9]);

  001d5	8b 85 38 ff ff
	ff		 mov	 eax, DWORD PTR _i$[ebp]
  001db	69 c0 e0 01 00
	00		 imul	 eax, 480		; 000001e0H
  001e1	8b 8d 0c fe ff
	ff		 mov	 ecx, DWORD PTR _line$[ebp]
  001e7	0f bf 94 48 12
	00 00 00	 movsx	 edx, WORD PTR _intFSK50bdCarTemplate[eax+ecx*2+18]
  001ef	52		 push	 edx
  001f0	8b 85 38 ff ff
	ff		 mov	 eax, DWORD PTR _i$[ebp]
  001f6	69 c0 e0 01 00
	00		 imul	 eax, 480		; 000001e0H
  001fc	8b 8d 0c fe ff
	ff		 mov	 ecx, DWORD PTR _line$[ebp]
  00202	0f bf 94 48 10
	00 00 00	 movsx	 edx, WORD PTR _intFSK50bdCarTemplate[eax+ecx*2+16]
  0020a	52		 push	 edx
  0020b	8b 85 38 ff ff
	ff		 mov	 eax, DWORD PTR _i$[ebp]
  00211	69 c0 e0 01 00
	00		 imul	 eax, 480		; 000001e0H
  00217	8b 8d 0c fe ff
	ff		 mov	 ecx, DWORD PTR _line$[ebp]
  0021d	0f bf 94 48 0e
	00 00 00	 movsx	 edx, WORD PTR _intFSK50bdCarTemplate[eax+ecx*2+14]
  00225	52		 push	 edx
  00226	8b 85 38 ff ff
	ff		 mov	 eax, DWORD PTR _i$[ebp]
  0022c	69 c0 e0 01 00
	00		 imul	 eax, 480		; 000001e0H
  00232	8b 8d 0c fe ff
	ff		 mov	 ecx, DWORD PTR _line$[ebp]
  00238	0f bf 94 48 0c
	00 00 00	 movsx	 edx, WORD PTR _intFSK50bdCarTemplate[eax+ecx*2+12]
  00240	52		 push	 edx
  00241	8b 85 38 ff ff
	ff		 mov	 eax, DWORD PTR _i$[ebp]
  00247	69 c0 e0 01 00
	00		 imul	 eax, 480		; 000001e0H
  0024d	8b 8d 0c fe ff
	ff		 mov	 ecx, DWORD PTR _line$[ebp]
  00253	0f bf 94 48 0a
	00 00 00	 movsx	 edx, WORD PTR _intFSK50bdCarTemplate[eax+ecx*2+10]
  0025b	52		 push	 edx
  0025c	8b 85 38 ff ff
	ff		 mov	 eax, DWORD PTR _i$[ebp]
  00262	69 c0 e0 01 00
	00		 imul	 eax, 480		; 000001e0H
  00268	8b 8d 0c fe ff
	ff		 mov	 ecx, DWORD PTR _line$[ebp]
  0026e	0f bf 94 48 08
	00 00 00	 movsx	 edx, WORD PTR _intFSK50bdCarTemplate[eax+ecx*2+8]
  00276	52		 push	 edx
  00277	8b 85 38 ff ff
	ff		 mov	 eax, DWORD PTR _i$[ebp]
  0027d	69 c0 e0 01 00
	00		 imul	 eax, 480		; 000001e0H
  00283	8b 8d 0c fe ff
	ff		 mov	 ecx, DWORD PTR _line$[ebp]
  00289	0f bf 94 48 06
	00 00 00	 movsx	 edx, WORD PTR _intFSK50bdCarTemplate[eax+ecx*2+6]
  00291	52		 push	 edx
  00292	8b 85 38 ff ff
	ff		 mov	 eax, DWORD PTR _i$[ebp]
  00298	69 c0 e0 01 00
	00		 imul	 eax, 480		; 000001e0H
  0029e	8b 8d 0c fe ff
	ff		 mov	 ecx, DWORD PTR _line$[ebp]
  002a4	0f bf 94 48 04
	00 00 00	 movsx	 edx, WORD PTR _intFSK50bdCarTemplate[eax+ecx*2+4]
  002ac	52		 push	 edx
  002ad	8b 85 38 ff ff
	ff		 mov	 eax, DWORD PTR _i$[ebp]
  002b3	69 c0 e0 01 00
	00		 imul	 eax, 480		; 000001e0H
  002b9	8b 8d 0c fe ff
	ff		 mov	 ecx, DWORD PTR _line$[ebp]
  002bf	0f bf 94 48 02
	00 00 00	 movsx	 edx, WORD PTR _intFSK50bdCarTemplate[eax+ecx*2+2]
  002c7	52		 push	 edx
  002c8	8b 85 38 ff ff
	ff		 mov	 eax, DWORD PTR _i$[ebp]
  002ce	69 c0 e0 01 00
	00		 imul	 eax, 480		; 000001e0H
  002d4	8b 8d 0c fe ff
	ff		 mov	 ecx, DWORD PTR _line$[ebp]
  002da	0f bf 94 48 00
	00 00 00	 movsx	 edx, WORD PTR _intFSK50bdCarTemplate[eax+ecx*2]
  002e2	52		 push	 edx
  002e3	68 00 00 00 00	 push	 OFFSET ??_C@_0CK@GBNNNIFO@?7?$CFd?0?5?$CFd?0?5?$CFd?0?5?$CFd?0?5?$CFd?0?5?$CFd?0?5?$CFd?0?5?$CFd?0@
  002e8	8d 85 24 fe ff
	ff		 lea	 eax, DWORD PTR _msg$[ebp]
  002ee	50		 push	 eax
  002ef	e8 00 00 00 00	 call	 _sprintf
  002f4	83 c4 30	 add	 esp, 48			; 00000030H
  002f7	89 85 18 fe ff
	ff		 mov	 DWORD PTR _len$[ebp], eax

; 161  : 
; 162  : 				line = k + 1;

  002fd	8b 85 2c ff ff
	ff		 mov	 eax, DWORD PTR _k$[ebp]
  00303	83 c0 01	 add	 eax, 1
  00306	89 85 0c fe ff
	ff		 mov	 DWORD PTR _line$[ebp], eax
$LN36@GenerateFS:

; 163  : 
; 164  : //				fwrite(msg, 1, len, fp1);
; 165  : 			}
; 166  : 		}

  0030c	e9 61 fe ff ff	 jmp	 $LN39@GenerateFS
$LN38@GenerateFS:

; 167  : 	}

  00311	e9 25 fe ff ff	 jmp	 $LN42@GenerateFS
$LN41@GenerateFS:

; 168  : 
; 169  : 
; 170  : 	// 16 FSK templates (500 Hz BW, 25 baud)
; 171  : 
; 172  : 	for (i = 0; i < 16; i++)	 // across the 16 tones for 25 baud frequencies

  00316	c7 85 38 ff ff
	ff 00 00 00 00	 mov	 DWORD PTR _i$[ebp], 0
  00320	eb 0f		 jmp	 SHORT $LN35@GenerateFS
$LN34@GenerateFS:
  00322	8b 85 38 ff ff
	ff		 mov	 eax, DWORD PTR _i$[ebp]
  00328	83 c0 01	 add	 eax, 1
  0032b	89 85 38 ff ff
	ff		 mov	 DWORD PTR _i$[ebp], eax
$LN35@GenerateFS:
  00331	83 bd 38 ff ff
	ff 10		 cmp	 DWORD PTR _i$[ebp], 16	; 00000010H
  00338	0f 8d e0 00 00
	00		 jge	 $LN33@GenerateFS

; 173  : 	{
; 174  : 		dblAngle = 0;

  0033e	d9 ee		 fldz
  00340	d9 5d 9c	 fstp	 DWORD PTR _dblAngle$[ebp]

; 175  : 		//25 baud template
; 176  : 		for (k = 0; k < 480; k++)			 // for 480 samples (one 25 baud symbol)

  00343	c7 85 2c ff ff
	ff 00 00 00 00	 mov	 DWORD PTR _k$[ebp], 0
  0034d	eb 0f		 jmp	 SHORT $LN32@GenerateFS
$LN31@GenerateFS:
  0034f	8b 85 2c ff ff
	ff		 mov	 eax, DWORD PTR _k$[ebp]
  00355	83 c0 01	 add	 eax, 1
  00358	89 85 2c ff ff
	ff		 mov	 DWORD PTR _k$[ebp], eax
$LN32@GenerateFS:
  0035e	81 bd 2c ff ff
	ff e0 01 00 00	 cmp	 DWORD PTR _k$[ebp], 480	; 000001e0H
  00368	0f 8d ab 00 00
	00		 jge	 $LN30@GenerateFS

; 177  : 		{
; 178  : 			int xx = intAmp * 1.1 * sin(dblAngle); // with no envelope control (factor 1.1 chosen emperically to keep FSK peak amplitude slightly below 2 tone peak)

  0036e	db 05 00 00 00
	00		 fild	 DWORD PTR _intAmp
  00374	dc 0d 00 00 00
	00		 fmul	 QWORD PTR __real@3ff199999999999a
  0037a	d9 45 9c	 fld	 DWORD PTR _dblAngle$[ebp]
  0037d	83 ec 08	 sub	 esp, 8
  00380	dd 1c 24	 fstp	 QWORD PTR [esp]
  00383	dd 9d 1c fd ff
	ff		 fstp	 QWORD PTR tv743[ebp]
  00389	e8 00 00 00 00	 call	 _sin
  0038e	83 c4 08	 add	 esp, 8
  00391	dc 8d 1c fd ff
	ff		 fmul	 QWORD PTR tv743[ebp]
  00397	e8 00 00 00 00	 call	 __ftol2_sse
  0039c	89 85 f4 fd ff
	ff		 mov	 DWORD PTR _xx$5452[ebp], eax

; 179  : 			if (intFSK25bdCarTemplate[i][k] != xx)

  003a2	8b 85 38 ff ff
	ff		 mov	 eax, DWORD PTR _i$[ebp]
  003a8	69 c0 c0 03 00
	00		 imul	 eax, 960		; 000003c0H
  003ae	8b 8d 2c ff ff
	ff		 mov	 ecx, DWORD PTR _k$[ebp]
  003b4	0f bf 94 48 00
	00 00 00	 movsx	 edx, WORD PTR _intFSK25bdCarTemplate[eax+ecx*2]
  003bc	3b 95 f4 fd ff
	ff		 cmp	 edx, DWORD PTR _xx$5452[ebp]
  003c2	74 0d		 je	 SHORT $LN29@GenerateFS

; 180  : 				printf("Duff\n");

  003c4	68 00 00 00 00	 push	 OFFSET ??_C@_05EDDOIOFO@Duff?6?$AA@
  003c9	e8 00 00 00 00	 call	 _printf
  003ce	83 c4 04	 add	 esp, 4
$LN29@GenerateFS:

; 181  : 				
; 182  : 			dblAngle += (2 * M_PI / 12000) * (1312.5 + i * 25);

  003d1	8b 85 38 ff ff
	ff		 mov	 eax, DWORD PTR _i$[ebp]
  003d7	6b c0 19	 imul	 eax, 25			; 00000019H
  003da	89 85 20 fd ff
	ff		 mov	 DWORD PTR tv606[ebp], eax
  003e0	db 85 20 fd ff
	ff		 fild	 DWORD PTR tv606[ebp]
  003e6	dc 05 00 00 00
	00		 fadd	 QWORD PTR __real@4094820000000000
  003ec	dc 0d 00 00 00
	00		 fmul	 QWORD PTR __real@3f412843a0000000
  003f2	d8 45 9c	 fadd	 DWORD PTR _dblAngle$[ebp]
  003f5	d9 5d 9c	 fstp	 DWORD PTR _dblAngle$[ebp]

; 183  : 			if (dblAngle >= 2 * M_PI)

  003f8	d9 45 9c	 fld	 DWORD PTR _dblAngle$[ebp]
  003fb	dc 1d 00 00 00
	00		 fcomp	 QWORD PTR __real@401921fb00000000
  00401	df e0		 fnstsw	 ax
  00403	f6 c4 01	 test	 ah, 1
  00406	75 0c		 jne	 SHORT $LN28@GenerateFS

; 184  : 				dblAngle -= 2 * M_PI;

  00408	d9 45 9c	 fld	 DWORD PTR _dblAngle$[ebp]
  0040b	dc 25 00 00 00
	00		 fsub	 QWORD PTR __real@401921fb00000000
  00411	d9 5d 9c	 fstp	 DWORD PTR _dblAngle$[ebp]
$LN28@GenerateFS:

; 185  : 		}

  00414	e9 36 ff ff ff	 jmp	 $LN31@GenerateFS
$LN30@GenerateFS:

; 186  : 	}

  00419	e9 04 ff ff ff	 jmp	 $LN34@GenerateFS
$LN33@GenerateFS:

; 187  : 
; 188  : 	// 4FSK templates for 600 baud (2 Khz bandwidth) 
; 189  : 	for (i = 0; i < 4; i++)		 // across the 4 tones for 600 baud frequencies

  0041e	c7 85 38 ff ff
	ff 00 00 00 00	 mov	 DWORD PTR _i$[ebp], 0
  00428	eb 0f		 jmp	 SHORT $LN27@GenerateFS
$LN26@GenerateFS:
  0042a	8b 85 38 ff ff
	ff		 mov	 eax, DWORD PTR _i$[ebp]
  00430	83 c0 01	 add	 eax, 1
  00433	89 85 38 ff ff
	ff		 mov	 DWORD PTR _i$[ebp], eax
$LN27@GenerateFS:
  00439	83 bd 38 ff ff
	ff 04		 cmp	 DWORD PTR _i$[ebp], 4
  00440	0f 8d dc 00 00
	00		 jge	 $LN25@GenerateFS

; 190  : 	{
; 191  : 		dblAngle = 0;

  00446	d9 ee		 fldz
  00448	d9 5d 9c	 fstp	 DWORD PTR _dblAngle$[ebp]

; 192  : 		//600 baud template
; 193  : 		for (k = 0; k < 20; k++)	 // for 20 samples (one 600 baud symbol)

  0044b	c7 85 2c ff ff
	ff 00 00 00 00	 mov	 DWORD PTR _k$[ebp], 0
  00455	eb 0f		 jmp	 SHORT $LN24@GenerateFS
$LN23@GenerateFS:
  00457	8b 85 2c ff ff
	ff		 mov	 eax, DWORD PTR _k$[ebp]
  0045d	83 c0 01	 add	 eax, 1
  00460	89 85 2c ff ff
	ff		 mov	 DWORD PTR _k$[ebp], eax
$LN24@GenerateFS:
  00466	83 bd 2c ff ff
	ff 14		 cmp	 DWORD PTR _k$[ebp], 20	; 00000014H
  0046d	0f 8d aa 00 00
	00		 jge	 $LN22@GenerateFS

; 194  : 		{
; 195  : 			int xx = intAmp * 1.1 * sin(dblAngle); // with no envelope control (factor 1.1 chosen emperically to keep FSK peak amplitude slightly below 2 tone peak)

  00473	db 05 00 00 00
	00		 fild	 DWORD PTR _intAmp
  00479	dc 0d 00 00 00
	00		 fmul	 QWORD PTR __real@3ff199999999999a
  0047f	d9 45 9c	 fld	 DWORD PTR _dblAngle$[ebp]
  00482	83 ec 08	 sub	 esp, 8
  00485	dd 1c 24	 fstp	 QWORD PTR [esp]
  00488	dd 9d 1c fd ff
	ff		 fstp	 QWORD PTR tv745[ebp]
  0048e	e8 00 00 00 00	 call	 _sin
  00493	83 c4 08	 add	 esp, 8
  00496	dc 8d 1c fd ff
	ff		 fmul	 QWORD PTR tv745[ebp]
  0049c	e8 00 00 00 00	 call	 __ftol2_sse
  004a1	89 85 e8 fd ff
	ff		 mov	 DWORD PTR _xx$5462[ebp], eax

; 196  : 			if (intFSK600bdCarTemplate[i][k] != xx)

  004a7	8b 85 38 ff ff
	ff		 mov	 eax, DWORD PTR _i$[ebp]
  004ad	6b c0 28	 imul	 eax, 40			; 00000028H
  004b0	8b 8d 2c ff ff
	ff		 mov	 ecx, DWORD PTR _k$[ebp]
  004b6	0f bf 94 48 00
	00 00 00	 movsx	 edx, WORD PTR _intFSK600bdCarTemplate[eax+ecx*2]
  004be	3b 95 e8 fd ff
	ff		 cmp	 edx, DWORD PTR _xx$5462[ebp]
  004c4	74 0d		 je	 SHORT $LN21@GenerateFS

; 197  : 				printf("Duff\n");

  004c6	68 00 00 00 00	 push	 OFFSET ??_C@_05EDDOIOFO@Duff?6?$AA@
  004cb	e8 00 00 00 00	 call	 _printf
  004d0	83 c4 04	 add	 esp, 4
$LN21@GenerateFS:

; 198  : 
; 199  : 			dblAngle += (2 * M_PI / 12000) * (600 + i * 600);

  004d3	8b 85 38 ff ff
	ff		 mov	 eax, DWORD PTR _i$[ebp]
  004d9	69 c0 58 02 00
	00		 imul	 eax, 600		; 00000258H
  004df	05 58 02 00 00	 add	 eax, 600		; 00000258H
  004e4	89 85 20 fd ff
	ff		 mov	 DWORD PTR tv628[ebp], eax
  004ea	db 85 20 fd ff
	ff		 fild	 DWORD PTR tv628[ebp]
  004f0	dc 0d 00 00 00
	00		 fmul	 QWORD PTR __real@3f412843a0000000
  004f6	d8 45 9c	 fadd	 DWORD PTR _dblAngle$[ebp]
  004f9	d9 5d 9c	 fstp	 DWORD PTR _dblAngle$[ebp]

; 200  : 			if (dblAngle >= 2 * M_PI)

  004fc	d9 45 9c	 fld	 DWORD PTR _dblAngle$[ebp]
  004ff	dc 1d 00 00 00
	00		 fcomp	 QWORD PTR __real@401921fb00000000
  00505	df e0		 fnstsw	 ax
  00507	f6 c4 01	 test	 ah, 1
  0050a	75 0c		 jne	 SHORT $LN20@GenerateFS

; 201  : 				dblAngle -= 2 * M_PI;

  0050c	d9 45 9c	 fld	 DWORD PTR _dblAngle$[ebp]
  0050f	dc 25 00 00 00
	00		 fsub	 QWORD PTR __real@401921fb00000000
  00515	d9 5d 9c	 fstp	 DWORD PTR _dblAngle$[ebp]
$LN20@GenerateFS:

; 202  : 		}

  00518	e9 3a ff ff ff	 jmp	 $LN23@GenerateFS
$LN22@GenerateFS:

; 203  : 	}

  0051d	e9 08 ff ff ff	 jmp	 $LN26@GenerateFS
$LN25@GenerateFS:

; 204  : 
; 205  : 	//  100 baud Tone values for a single carrier case 
; 206  : 	// the 100 baud carrier frequencies in Hz
; 207  : 
; 208  : 	dblCarFreq[0] = 1350;

  00522	d9 05 00 00 00
	00		 fld	 DWORD PTR __real@44a8c000
  00528	d9 5d a8	 fstp	 DWORD PTR _dblCarFreq$[ebp]

; 209  : 	dblCarFreq[1] = 1450;

  0052b	d9 05 00 00 00
	00		 fld	 DWORD PTR __real@44b54000
  00531	d9 5d ac	 fstp	 DWORD PTR _dblCarFreq$[ebp+4]

; 210  : 	dblCarFreq[2] = 1550;

  00534	d9 05 00 00 00
	00		 fld	 DWORD PTR __real@44c1c000
  0053a	d9 5d b0	 fstp	 DWORD PTR _dblCarFreq$[ebp+8]

; 211  : 	dblCarFreq[3] = 1650;

  0053d	d9 05 00 00 00
	00		 fld	 DWORD PTR __real@44ce4000
  00543	d9 5d b4	 fstp	 DWORD PTR _dblCarFreq$[ebp+12]

; 212  : 
; 213  : 	//Values of dblCarFreq for index 4-19 as in Dim above
; 214  : 	// Compute the phase inc per sample
; 215  :    
; 216  : 	for (i = 0; i < 20; i++)

  00546	c7 85 38 ff ff
	ff 00 00 00 00	 mov	 DWORD PTR _i$[ebp], 0
  00550	eb 0f		 jmp	 SHORT $LN19@GenerateFS
$LN18@GenerateFS:
  00552	8b 85 38 ff ff
	ff		 mov	 eax, DWORD PTR _i$[ebp]
  00558	83 c0 01	 add	 eax, 1
  0055b	89 85 38 ff ff
	ff		 mov	 DWORD PTR _i$[ebp], eax
$LN19@GenerateFS:
  00561	83 bd 38 ff ff
	ff 14		 cmp	 DWORD PTR _i$[ebp], 20	; 00000014H
  00568	7d 25		 jge	 SHORT $LN17@GenerateFS

; 217  : 	{
; 218  : 		dblCarPhaseInc[i] = 2 * M_PI * dblCarFreq[i] / 12000;

  0056a	8b 85 38 ff ff
	ff		 mov	 eax, DWORD PTR _i$[ebp]
  00570	d9 44 85 a8	 fld	 DWORD PTR _dblCarFreq$[ebp+eax*4]
  00574	dc 0d 00 00 00
	00		 fmul	 QWORD PTR __real@401921fb00000000
  0057a	dc 35 00 00 00
	00		 fdiv	 QWORD PTR __real@40c7700000000000
  00580	8b 8d 38 ff ff
	ff		 mov	 ecx, DWORD PTR _i$[ebp]
  00586	d9 9c 8d 44 ff
	ff ff		 fstp	 DWORD PTR _dblCarPhaseInc$[ebp+ecx*4]

; 219  : 	}

  0058d	eb c3		 jmp	 SHORT $LN18@GenerateFS
$LN17@GenerateFS:

; 220  : 
; 221  : 	// Now compute the templates: (2400 32 bit values total)  
; 222  : /*
; 223  : 	for (i = 0; i < 20; i++)	 // across 20 tones
; 224  : 	{
; 225  : 		dblAngle = 0;
; 226  : 		//'100 baud template
; 227  : 		for (k = 0; k < 120; k++)		// for 120 samples (one 100 baud symbol)
; 228  : 		{
; 229  : 			short work = intAmp * 1.1 * sin(dblAngle);
; 230  : 			intFSK100bdCarTemplate[i][k] = work); // with no envelope control (factor 1.1 chosen emperically to keep FSK peak amplitude slightly below 2 tone peak)
; 231  : 				
; 232  : 			dblAngle += dblCarPhaseInc[i];
; 233  : 			if (dblAngle >= 2 * M_PI)
; 234  : 				dblAngle -= 2 * M_PI;
; 235  : 		}
; 236  : 	}
; 237  : */
; 238  : 
; 239  : 	// Now print them
; 240  : 
; 241  : /*
; 242  : 	fp1 = fopen("s:\\fskcoeffs100.txt", "wb");
; 243  : 
; 244  : 	len = sprintf(msg, "short intFSK100bdCarTemplate[20][120] = \r\n");
; 245  : 	fwrite(msg, 1, len, fp1);
; 246  : 
; 247  : 	len = sprintf(msg, "\t{{\r\n");
; 248  : 	fwrite(msg, 1, len, fp1);
; 249  : 
; 250  : 	for (i = 0; i < 20; i++)		// across 9 tones
; 251  : 	{
; 252  : 			line = 0;
; 253  : 
; 254  : 			for (k = 0; k <= 119; k++) // for 120 samples (one 100 baud symbol, 200 baud modes will just use half of the data)
; 255  : 			{
; 256  : 				if ((k - line) == 9)
; 257  : 				{
; 258  : 					// print 10 to line
; 259  : 
; 260  : 					len = sprintf(msg, "\t%d, %d, %d, %d, %d, %d, %d, %d, %d, %d,\n",
; 261  : 					intFSK100bdCarTemplate[i][line],
; 262  : 					intFSK100bdCarTemplate[i][line + 1],
; 263  : 					intFSK100bdCarTemplate[i][line + 2],
; 264  : 					intFSK100bdCarTemplate[i][line + 3],
; 265  : 					intFSK100bdCarTemplate[i][line + 4],
; 266  : 					intFSK100bdCarTemplate[i][line + 5],
; 267  : 					intFSK100bdCarTemplate[i][line + 6],
; 268  : 					intFSK100bdCarTemplate[i][line + 7],
; 269  : 					intFSK100bdCarTemplate[i][line + 8],
; 270  : 					intFSK100bdCarTemplate[i][line + 9]);
; 271  : 
; 272  : 					line = k + 1;
; 273  : 
; 274  : 					if (k == 119)
; 275  : 					{
; 276  : 						len += sprintf(&msg[len-2], "},\r\n\r\n\t{");
; 277  : 						len -=2;
; 278  : 					}
; 279  : 					fwrite(msg, 1, len, fp1);
; 280  : 				}
; 281  : 	
; 282  : 		}
; 283  : 	}
; 284  : 
; 285  : 	len = sprintf(msg, "\t}};\r\n");
; 286  : 	fwrite(msg, 1, len, fp1);
; 287  : 
; 288  : 	fclose(fp1);
; 289  : */
; 290  : 
; 291  : 	fp1 = fopen("s:\\fskcoeffs25.txt", "wb");

  0058f	68 00 00 00 00	 push	 OFFSET ??_C@_02GMLFBBN@wb?$AA@
  00594	68 00 00 00 00	 push	 OFFSET ??_C@_0BD@HGBCACK@s?3?2fskcoeffs25?4txt?$AA@
  00599	e8 00 00 00 00	 call	 _fopen
  0059e	83 c4 08	 add	 esp, 8
  005a1	89 85 00 fe ff
	ff		 mov	 DWORD PTR _fp1$[ebp], eax

; 292  : 
; 293  : 	len = sprintf(msg, "short intFSK25bdCarTemplate[16][480] = {\r\n");

  005a7	68 00 00 00 00	 push	 OFFSET ??_C@_0CL@EICOHPHE@short?5intFSK25bdCarTemplate?$FL16?$FN?$FL@
  005ac	8d 85 24 fe ff
	ff		 lea	 eax, DWORD PTR _msg$[ebp]
  005b2	50		 push	 eax
  005b3	e8 00 00 00 00	 call	 _sprintf
  005b8	83 c4 08	 add	 esp, 8
  005bb	89 85 18 fe ff
	ff		 mov	 DWORD PTR _len$[ebp], eax

; 294  : 	fwrite(msg, 1, len, fp1);

  005c1	8b 85 00 fe ff
	ff		 mov	 eax, DWORD PTR _fp1$[ebp]
  005c7	50		 push	 eax
  005c8	8b 8d 18 fe ff
	ff		 mov	 ecx, DWORD PTR _len$[ebp]
  005ce	51		 push	 ecx
  005cf	6a 01		 push	 1
  005d1	8d 95 24 fe ff
	ff		 lea	 edx, DWORD PTR _msg$[ebp]
  005d7	52		 push	 edx
  005d8	e8 00 00 00 00	 call	 _fwrite
  005dd	83 c4 10	 add	 esp, 16			; 00000010H

; 295  : 
; 296  : 	len = sprintf(msg, "\t{\r\n");

  005e0	68 00 00 00 00	 push	 OFFSET ??_C@_04HKMEDGNH@?7?$HL?$AN?6?$AA@
  005e5	8d 85 24 fe ff
	ff		 lea	 eax, DWORD PTR _msg$[ebp]
  005eb	50		 push	 eax
  005ec	e8 00 00 00 00	 call	 _sprintf
  005f1	83 c4 08	 add	 esp, 8
  005f4	89 85 18 fe ff
	ff		 mov	 DWORD PTR _len$[ebp], eax

; 297  : 	fwrite(msg, 1, len, fp1);

  005fa	8b 85 00 fe ff
	ff		 mov	 eax, DWORD PTR _fp1$[ebp]
  00600	50		 push	 eax
  00601	8b 8d 18 fe ff
	ff		 mov	 ecx, DWORD PTR _len$[ebp]
  00607	51		 push	 ecx
  00608	6a 01		 push	 1
  0060a	8d 95 24 fe ff
	ff		 lea	 edx, DWORD PTR _msg$[ebp]
  00610	52		 push	 edx
  00611	e8 00 00 00 00	 call	 _fwrite
  00616	83 c4 10	 add	 esp, 16			; 00000010H

; 298  : 
; 299  : 	for (i = 0; i < 16; i++)		// across 16 tones

  00619	c7 85 38 ff ff
	ff 00 00 00 00	 mov	 DWORD PTR _i$[ebp], 0
  00623	eb 0f		 jmp	 SHORT $LN16@GenerateFS
$LN15@GenerateFS:
  00625	8b 85 38 ff ff
	ff		 mov	 eax, DWORD PTR _i$[ebp]
  0062b	83 c0 01	 add	 eax, 1
  0062e	89 85 38 ff ff
	ff		 mov	 DWORD PTR _i$[ebp], eax
$LN16@GenerateFS:
  00634	83 bd 38 ff ff
	ff 10		 cmp	 DWORD PTR _i$[ebp], 16	; 00000010H
  0063b	0f 8d ec 01 00
	00		 jge	 $LN14@GenerateFS

; 300  : 	{
; 301  : 			line = 0;

  00641	c7 85 0c fe ff
	ff 00 00 00 00	 mov	 DWORD PTR _line$[ebp], 0

; 302  : 
; 303  : 			for (k = 0; k <= 479; k++) // for 480 samples (one 25 baud symbol)

  0064b	c7 85 2c ff ff
	ff 00 00 00 00	 mov	 DWORD PTR _k$[ebp], 0
  00655	eb 0f		 jmp	 SHORT $LN13@GenerateFS
$LN12@GenerateFS:
  00657	8b 85 2c ff ff
	ff		 mov	 eax, DWORD PTR _k$[ebp]
  0065d	83 c0 01	 add	 eax, 1
  00660	89 85 2c ff ff
	ff		 mov	 DWORD PTR _k$[ebp], eax
$LN13@GenerateFS:
  00666	81 bd 2c ff ff
	ff df 01 00 00	 cmp	 DWORD PTR _k$[ebp], 479	; 000001dfH
  00670	0f 8f b2 01 00
	00		 jg	 $LN11@GenerateFS

; 304  : 			{
; 305  : 				if ((k - line) == 9)

  00676	8b 85 2c ff ff
	ff		 mov	 eax, DWORD PTR _k$[ebp]
  0067c	2b 85 0c fe ff
	ff		 sub	 eax, DWORD PTR _line$[ebp]
  00682	83 f8 09	 cmp	 eax, 9
  00685	0f 85 98 01 00
	00		 jne	 $LN10@GenerateFS

; 306  : 				{
; 307  : 					// print 10 to line
; 308  : 
; 309  : 					len = sprintf(msg, "\t%d, %d, %d, %d, %d, %d, %d, %d, %d, %d,\n",
; 310  : 					intFSK25bdCarTemplate[i][line],
; 311  : 					intFSK25bdCarTemplate[i][line + 1],
; 312  : 					intFSK25bdCarTemplate[i][line + 2],
; 313  : 					intFSK25bdCarTemplate[i][line + 3],
; 314  : 					intFSK25bdCarTemplate[i][line + 4],
; 315  : 					intFSK25bdCarTemplate[i][line + 5],
; 316  : 					intFSK25bdCarTemplate[i][line + 6],
; 317  : 					intFSK25bdCarTemplate[i][line + 7],
; 318  : 					intFSK25bdCarTemplate[i][line + 8],
; 319  : 					intFSK25bdCarTemplate[i][line + 9]);

  0068b	8b 85 38 ff ff
	ff		 mov	 eax, DWORD PTR _i$[ebp]
  00691	69 c0 c0 03 00
	00		 imul	 eax, 960		; 000003c0H
  00697	8b 8d 0c fe ff
	ff		 mov	 ecx, DWORD PTR _line$[ebp]
  0069d	0f bf 94 48 12
	00 00 00	 movsx	 edx, WORD PTR _intFSK25bdCarTemplate[eax+ecx*2+18]
  006a5	52		 push	 edx
  006a6	8b 85 38 ff ff
	ff		 mov	 eax, DWORD PTR _i$[ebp]
  006ac	69 c0 c0 03 00
	00		 imul	 eax, 960		; 000003c0H
  006b2	8b 8d 0c fe ff
	ff		 mov	 ecx, DWORD PTR _line$[ebp]
  006b8	0f bf 94 48 10
	00 00 00	 movsx	 edx, WORD PTR _intFSK25bdCarTemplate[eax+ecx*2+16]
  006c0	52		 push	 edx
  006c1	8b 85 38 ff ff
	ff		 mov	 eax, DWORD PTR _i$[ebp]
  006c7	69 c0 c0 03 00
	00		 imul	 eax, 960		; 000003c0H
  006cd	8b 8d 0c fe ff
	ff		 mov	 ecx, DWORD PTR _line$[ebp]
  006d3	0f bf 94 48 0e
	00 00 00	 movsx	 edx, WORD PTR _intFSK25bdCarTemplate[eax+ecx*2+14]
  006db	52		 push	 edx
  006dc	8b 85 38 ff ff
	ff		 mov	 eax, DWORD PTR _i$[ebp]
  006e2	69 c0 c0 03 00
	00		 imul	 eax, 960		; 000003c0H
  006e8	8b 8d 0c fe ff
	ff		 mov	 ecx, DWORD PTR _line$[ebp]
  006ee	0f bf 94 48 0c
	00 00 00	 movsx	 edx, WORD PTR _intFSK25bdCarTemplate[eax+ecx*2+12]
  006f6	52		 push	 edx
  006f7	8b 85 38 ff ff
	ff		 mov	 eax, DWORD PTR _i$[ebp]
  006fd	69 c0 c0 03 00
	00		 imul	 eax, 960		; 000003c0H
  00703	8b 8d 0c fe ff
	ff		 mov	 ecx, DWORD PTR _line$[ebp]
  00709	0f bf 94 48 0a
	00 00 00	 movsx	 edx, WORD PTR _intFSK25bdCarTemplate[eax+ecx*2+10]
  00711	52		 push	 edx
  00712	8b 85 38 ff ff
	ff		 mov	 eax, DWORD PTR _i$[ebp]
  00718	69 c0 c0 03 00
	00		 imul	 eax, 960		; 000003c0H
  0071e	8b 8d 0c fe ff
	ff		 mov	 ecx, DWORD PTR _line$[ebp]
  00724	0f bf 94 48 08
	00 00 00	 movsx	 edx, WORD PTR _intFSK25bdCarTemplate[eax+ecx*2+8]
  0072c	52		 push	 edx
  0072d	8b 85 38 ff ff
	ff		 mov	 eax, DWORD PTR _i$[ebp]
  00733	69 c0 c0 03 00
	00		 imul	 eax, 960		; 000003c0H
  00739	8b 8d 0c fe ff
	ff		 mov	 ecx, DWORD PTR _line$[ebp]
  0073f	0f bf 94 48 06
	00 00 00	 movsx	 edx, WORD PTR _intFSK25bdCarTemplate[eax+ecx*2+6]
  00747	52		 push	 edx
  00748	8b 85 38 ff ff
	ff		 mov	 eax, DWORD PTR _i$[ebp]
  0074e	69 c0 c0 03 00
	00		 imul	 eax, 960		; 000003c0H
  00754	8b 8d 0c fe ff
	ff		 mov	 ecx, DWORD PTR _line$[ebp]
  0075a	0f bf 94 48 04
	00 00 00	 movsx	 edx, WORD PTR _intFSK25bdCarTemplate[eax+ecx*2+4]
  00762	52		 push	 edx
  00763	8b 85 38 ff ff
	ff		 mov	 eax, DWORD PTR _i$[ebp]
  00769	69 c0 c0 03 00
	00		 imul	 eax, 960		; 000003c0H
  0076f	8b 8d 0c fe ff
	ff		 mov	 ecx, DWORD PTR _line$[ebp]
  00775	0f bf 94 48 02
	00 00 00	 movsx	 edx, WORD PTR _intFSK25bdCarTemplate[eax+ecx*2+2]
  0077d	52		 push	 edx
  0077e	8b 85 38 ff ff
	ff		 mov	 eax, DWORD PTR _i$[ebp]
  00784	69 c0 c0 03 00
	00		 imul	 eax, 960		; 000003c0H
  0078a	8b 8d 0c fe ff
	ff		 mov	 ecx, DWORD PTR _line$[ebp]
  00790	0f bf 94 48 00
	00 00 00	 movsx	 edx, WORD PTR _intFSK25bdCarTemplate[eax+ecx*2]
  00798	52		 push	 edx
  00799	68 00 00 00 00	 push	 OFFSET ??_C@_0CK@GBNNNIFO@?7?$CFd?0?5?$CFd?0?5?$CFd?0?5?$CFd?0?5?$CFd?0?5?$CFd?0?5?$CFd?0?5?$CFd?0@
  0079e	8d 85 24 fe ff
	ff		 lea	 eax, DWORD PTR _msg$[ebp]
  007a4	50		 push	 eax
  007a5	e8 00 00 00 00	 call	 _sprintf
  007aa	83 c4 30	 add	 esp, 48			; 00000030H
  007ad	89 85 18 fe ff
	ff		 mov	 DWORD PTR _len$[ebp], eax

; 320  : 
; 321  : 					line = k + 1;

  007b3	8b 85 2c ff ff
	ff		 mov	 eax, DWORD PTR _k$[ebp]
  007b9	83 c0 01	 add	 eax, 1
  007bc	89 85 0c fe ff
	ff		 mov	 DWORD PTR _line$[ebp], eax

; 322  : 
; 323  : 					if (k == 479)

  007c2	81 bd 2c ff ff
	ff df 01 00 00	 cmp	 DWORD PTR _k$[ebp], 479	; 000001dfH
  007cc	75 36		 jne	 SHORT $LN9@GenerateFS

; 324  : 					{
; 325  : 						len += sprintf(&msg[len-2], "},\r\n\r\n\t{");

  007ce	68 00 00 00 00	 push	 OFFSET ??_C@_08CCLIEFAL@?$HN?0?$AN?6?$AN?6?7?$HL?$AA@
  007d3	8b 85 18 fe ff
	ff		 mov	 eax, DWORD PTR _len$[ebp]
  007d9	8d 8c 05 22 fe
	ff ff		 lea	 ecx, DWORD PTR _msg$[ebp+eax-2]
  007e0	51		 push	 ecx
  007e1	e8 00 00 00 00	 call	 _sprintf
  007e6	83 c4 08	 add	 esp, 8
  007e9	03 85 18 fe ff
	ff		 add	 eax, DWORD PTR _len$[ebp]
  007ef	89 85 18 fe ff
	ff		 mov	 DWORD PTR _len$[ebp], eax

; 326  : 						len -=2;

  007f5	8b 85 18 fe ff
	ff		 mov	 eax, DWORD PTR _len$[ebp]
  007fb	83 e8 02	 sub	 eax, 2
  007fe	89 85 18 fe ff
	ff		 mov	 DWORD PTR _len$[ebp], eax
$LN9@GenerateFS:

; 327  : 					}
; 328  : 					fwrite(msg, 1, len, fp1);

  00804	8b 85 00 fe ff
	ff		 mov	 eax, DWORD PTR _fp1$[ebp]
  0080a	50		 push	 eax
  0080b	8b 8d 18 fe ff
	ff		 mov	 ecx, DWORD PTR _len$[ebp]
  00811	51		 push	 ecx
  00812	6a 01		 push	 1
  00814	8d 95 24 fe ff
	ff		 lea	 edx, DWORD PTR _msg$[ebp]
  0081a	52		 push	 edx
  0081b	e8 00 00 00 00	 call	 _fwrite
  00820	83 c4 10	 add	 esp, 16			; 00000010H
$LN10@GenerateFS:

; 329  : 				}
; 330  : 	
; 331  : 		}

  00823	e9 2f fe ff ff	 jmp	 $LN12@GenerateFS
$LN11@GenerateFS:

; 332  : 	}

  00828	e9 f8 fd ff ff	 jmp	 $LN15@GenerateFS
$LN14@GenerateFS:

; 333  : 
; 334  : 	len = sprintf(msg, "\t}};\r\n");

  0082d	68 00 00 00 00	 push	 OFFSET ??_C@_06JEOIFLEK@?7?$HN?$HN?$DL?$AN?6?$AA@
  00832	8d 85 24 fe ff
	ff		 lea	 eax, DWORD PTR _msg$[ebp]
  00838	50		 push	 eax
  00839	e8 00 00 00 00	 call	 _sprintf
  0083e	83 c4 08	 add	 esp, 8
  00841	89 85 18 fe ff
	ff		 mov	 DWORD PTR _len$[ebp], eax

; 335  : 	fwrite(msg, 1, len, fp1);

  00847	8b 85 00 fe ff
	ff		 mov	 eax, DWORD PTR _fp1$[ebp]
  0084d	50		 push	 eax
  0084e	8b 8d 18 fe ff
	ff		 mov	 ecx, DWORD PTR _len$[ebp]
  00854	51		 push	 ecx
  00855	6a 01		 push	 1
  00857	8d 95 24 fe ff
	ff		 lea	 edx, DWORD PTR _msg$[ebp]
  0085d	52		 push	 edx
  0085e	e8 00 00 00 00	 call	 _fwrite
  00863	83 c4 10	 add	 esp, 16			; 00000010H

; 336  : 
; 337  : 	fclose(fp1);

  00866	8b 85 00 fe ff
	ff		 mov	 eax, DWORD PTR _fp1$[ebp]
  0086c	50		 push	 eax
  0086d	e8 00 00 00 00	 call	 _fclose
  00872	83 c4 04	 add	 esp, 4

; 338  : 
; 339  : 	fp1 = fopen("s:\\fskcoeffs600.txt", "wb");

  00875	68 00 00 00 00	 push	 OFFSET ??_C@_02GMLFBBN@wb?$AA@
  0087a	68 00 00 00 00	 push	 OFFSET ??_C@_0BE@EOCOMHAE@s?3?2fskcoeffs600?4txt?$AA@
  0087f	e8 00 00 00 00	 call	 _fopen
  00884	83 c4 08	 add	 esp, 8
  00887	89 85 00 fe ff
	ff		 mov	 DWORD PTR _fp1$[ebp], eax

; 340  : 
; 341  : 	len = sprintf(msg, "short intFSK600bdCarTemplate[4][20] = {\r\n");

  0088d	68 00 00 00 00	 push	 OFFSET ??_C@_0CK@GKCJDKFH@short?5intFSK600bdCarTemplate?$FL4?$FN?$FL@
  00892	8d 85 24 fe ff
	ff		 lea	 eax, DWORD PTR _msg$[ebp]
  00898	50		 push	 eax
  00899	e8 00 00 00 00	 call	 _sprintf
  0089e	83 c4 08	 add	 esp, 8
  008a1	89 85 18 fe ff
	ff		 mov	 DWORD PTR _len$[ebp], eax

; 342  : 	fwrite(msg, 1, len, fp1);

  008a7	8b 85 00 fe ff
	ff		 mov	 eax, DWORD PTR _fp1$[ebp]
  008ad	50		 push	 eax
  008ae	8b 8d 18 fe ff
	ff		 mov	 ecx, DWORD PTR _len$[ebp]
  008b4	51		 push	 ecx
  008b5	6a 01		 push	 1
  008b7	8d 95 24 fe ff
	ff		 lea	 edx, DWORD PTR _msg$[ebp]
  008bd	52		 push	 edx
  008be	e8 00 00 00 00	 call	 _fwrite
  008c3	83 c4 10	 add	 esp, 16			; 00000010H

; 343  : 
; 344  : 	len = sprintf(msg, "\t{\r\n");

  008c6	68 00 00 00 00	 push	 OFFSET ??_C@_04HKMEDGNH@?7?$HL?$AN?6?$AA@
  008cb	8d 85 24 fe ff
	ff		 lea	 eax, DWORD PTR _msg$[ebp]
  008d1	50		 push	 eax
  008d2	e8 00 00 00 00	 call	 _sprintf
  008d7	83 c4 08	 add	 esp, 8
  008da	89 85 18 fe ff
	ff		 mov	 DWORD PTR _len$[ebp], eax

; 345  : 	fwrite(msg, 1, len, fp1);

  008e0	8b 85 00 fe ff
	ff		 mov	 eax, DWORD PTR _fp1$[ebp]
  008e6	50		 push	 eax
  008e7	8b 8d 18 fe ff
	ff		 mov	 ecx, DWORD PTR _len$[ebp]
  008ed	51		 push	 ecx
  008ee	6a 01		 push	 1
  008f0	8d 95 24 fe ff
	ff		 lea	 edx, DWORD PTR _msg$[ebp]
  008f6	52		 push	 edx
  008f7	e8 00 00 00 00	 call	 _fwrite
  008fc	83 c4 10	 add	 esp, 16			; 00000010H

; 346  : 
; 347  : 	for (i = 0; i < 4; i++)		// across 4 tones

  008ff	c7 85 38 ff ff
	ff 00 00 00 00	 mov	 DWORD PTR _i$[ebp], 0
  00909	eb 0f		 jmp	 SHORT $LN8@GenerateFS
$LN7@GenerateFS:
  0090b	8b 85 38 ff ff
	ff		 mov	 eax, DWORD PTR _i$[ebp]
  00911	83 c0 01	 add	 eax, 1
  00914	89 85 38 ff ff
	ff		 mov	 DWORD PTR _i$[ebp], eax
$LN8@GenerateFS:
  0091a	83 bd 38 ff ff
	ff 04		 cmp	 DWORD PTR _i$[ebp], 4
  00921	0f 8d c8 01 00
	00		 jge	 $LN6@GenerateFS

; 348  : 	{
; 349  : 			line = 0;

  00927	c7 85 0c fe ff
	ff 00 00 00 00	 mov	 DWORD PTR _line$[ebp], 0

; 350  : 
; 351  : 			for (k = 0; k < 20; k++) // for 20 samples (one 600 baud symbol)

  00931	c7 85 2c ff ff
	ff 00 00 00 00	 mov	 DWORD PTR _k$[ebp], 0
  0093b	eb 0f		 jmp	 SHORT $LN5@GenerateFS
$LN4@GenerateFS:
  0093d	8b 85 2c ff ff
	ff		 mov	 eax, DWORD PTR _k$[ebp]
  00943	83 c0 01	 add	 eax, 1
  00946	89 85 2c ff ff
	ff		 mov	 DWORD PTR _k$[ebp], eax
$LN5@GenerateFS:
  0094c	83 bd 2c ff ff
	ff 14		 cmp	 DWORD PTR _k$[ebp], 20	; 00000014H
  00953	0f 8d 91 01 00
	00		 jge	 $LN3@GenerateFS

; 352  : 			{
; 353  : 				if ((k - line) == 9)

  00959	8b 85 2c ff ff
	ff		 mov	 eax, DWORD PTR _k$[ebp]
  0095f	2b 85 0c fe ff
	ff		 sub	 eax, DWORD PTR _line$[ebp]
  00965	83 f8 09	 cmp	 eax, 9
  00968	0f 85 77 01 00
	00		 jne	 $LN2@GenerateFS

; 354  : 				{
; 355  : 					// print 10 to line
; 356  : 
; 357  : 					len = sprintf(msg, "\t%d, %d, %d, %d, %d, %d, %d, %d, %d, %d,\n",
; 358  : 					intFSK600bdCarTemplate[i][line],
; 359  : 					intFSK600bdCarTemplate[i][line + 1],
; 360  : 					intFSK600bdCarTemplate[i][line + 2],
; 361  : 					intFSK600bdCarTemplate[i][line + 3],
; 362  : 					intFSK600bdCarTemplate[i][line + 4],
; 363  : 					intFSK600bdCarTemplate[i][line + 5],
; 364  : 					intFSK600bdCarTemplate[i][line + 6],
; 365  : 					intFSK600bdCarTemplate[i][line + 7],
; 366  : 					intFSK600bdCarTemplate[i][line + 8],
; 367  : 					intFSK600bdCarTemplate[i][line + 9]);

  0096e	8b 85 38 ff ff
	ff		 mov	 eax, DWORD PTR _i$[ebp]
  00974	6b c0 28	 imul	 eax, 40			; 00000028H
  00977	8b 8d 0c fe ff
	ff		 mov	 ecx, DWORD PTR _line$[ebp]
  0097d	0f bf 94 48 12
	00 00 00	 movsx	 edx, WORD PTR _intFSK600bdCarTemplate[eax+ecx*2+18]
  00985	52		 push	 edx
  00986	8b 85 38 ff ff
	ff		 mov	 eax, DWORD PTR _i$[ebp]
  0098c	6b c0 28	 imul	 eax, 40			; 00000028H
  0098f	8b 8d 0c fe ff
	ff		 mov	 ecx, DWORD PTR _line$[ebp]
  00995	0f bf 94 48 10
	00 00 00	 movsx	 edx, WORD PTR _intFSK600bdCarTemplate[eax+ecx*2+16]
  0099d	52		 push	 edx
  0099e	8b 85 38 ff ff
	ff		 mov	 eax, DWORD PTR _i$[ebp]
  009a4	6b c0 28	 imul	 eax, 40			; 00000028H
  009a7	8b 8d 0c fe ff
	ff		 mov	 ecx, DWORD PTR _line$[ebp]
  009ad	0f bf 94 48 0e
	00 00 00	 movsx	 edx, WORD PTR _intFSK600bdCarTemplate[eax+ecx*2+14]
  009b5	52		 push	 edx
  009b6	8b 85 38 ff ff
	ff		 mov	 eax, DWORD PTR _i$[ebp]
  009bc	6b c0 28	 imul	 eax, 40			; 00000028H
  009bf	8b 8d 0c fe ff
	ff		 mov	 ecx, DWORD PTR _line$[ebp]
  009c5	0f bf 94 48 0c
	00 00 00	 movsx	 edx, WORD PTR _intFSK600bdCarTemplate[eax+ecx*2+12]
  009cd	52		 push	 edx
  009ce	8b 85 38 ff ff
	ff		 mov	 eax, DWORD PTR _i$[ebp]
  009d4	6b c0 28	 imul	 eax, 40			; 00000028H
  009d7	8b 8d 0c fe ff
	ff		 mov	 ecx, DWORD PTR _line$[ebp]
  009dd	0f bf 94 48 0a
	00 00 00	 movsx	 edx, WORD PTR _intFSK600bdCarTemplate[eax+ecx*2+10]
  009e5	52		 push	 edx
  009e6	8b 85 38 ff ff
	ff		 mov	 eax, DWORD PTR _i$[ebp]
  009ec	6b c0 28	 imul	 eax, 40			; 00000028H
  009ef	8b 8d 0c fe ff
	ff		 mov	 ecx, DWORD PTR _line$[ebp]
  009f5	0f bf 94 48 08
	00 00 00	 movsx	 edx, WORD PTR _intFSK600bdCarTemplate[eax+ecx*2+8]
  009fd	52		 push	 edx
  009fe	8b 85 38 ff ff
	ff		 mov	 eax, DWORD PTR _i$[ebp]
  00a04	6b c0 28	 imul	 eax, 40			; 00000028H
  00a07	8b 8d 0c fe ff
	ff		 mov	 ecx, DWORD PTR _line$[ebp]
  00a0d	0f bf 94 48 06
	00 00 00	 movsx	 edx, WORD PTR _intFSK600bdCarTemplate[eax+ecx*2+6]
  00a15	52		 push	 edx
  00a16	8b 85 38 ff ff
	ff		 mov	 eax, DWORD PTR _i$[ebp]
  00a1c	6b c0 28	 imul	 eax, 40			; 00000028H
  00a1f	8b 8d 0c fe ff
	ff		 mov	 ecx, DWORD PTR _line$[ebp]
  00a25	0f bf 94 48 04
	00 00 00	 movsx	 edx, WORD PTR _intFSK600bdCarTemplate[eax+ecx*2+4]
  00a2d	52		 push	 edx
  00a2e	8b 85 38 ff ff
	ff		 mov	 eax, DWORD PTR _i$[ebp]
  00a34	6b c0 28	 imul	 eax, 40			; 00000028H
  00a37	8b 8d 0c fe ff
	ff		 mov	 ecx, DWORD PTR _line$[ebp]
  00a3d	0f bf 94 48 02
	00 00 00	 movsx	 edx, WORD PTR _intFSK600bdCarTemplate[eax+ecx*2+2]
  00a45	52		 push	 edx
  00a46	8b 85 38 ff ff
	ff		 mov	 eax, DWORD PTR _i$[ebp]
  00a4c	6b c0 28	 imul	 eax, 40			; 00000028H
  00a4f	8b 8d 0c fe ff
	ff		 mov	 ecx, DWORD PTR _line$[ebp]
  00a55	0f bf 94 48 00
	00 00 00	 movsx	 edx, WORD PTR _intFSK600bdCarTemplate[eax+ecx*2]
  00a5d	52		 push	 edx
  00a5e	68 00 00 00 00	 push	 OFFSET ??_C@_0CK@GBNNNIFO@?7?$CFd?0?5?$CFd?0?5?$CFd?0?5?$CFd?0?5?$CFd?0?5?$CFd?0?5?$CFd?0?5?$CFd?0@
  00a63	8d 85 24 fe ff
	ff		 lea	 eax, DWORD PTR _msg$[ebp]
  00a69	50		 push	 eax
  00a6a	e8 00 00 00 00	 call	 _sprintf
  00a6f	83 c4 30	 add	 esp, 48			; 00000030H
  00a72	89 85 18 fe ff
	ff		 mov	 DWORD PTR _len$[ebp], eax

; 368  : 
; 369  : 					line = k + 1;

  00a78	8b 85 2c ff ff
	ff		 mov	 eax, DWORD PTR _k$[ebp]
  00a7e	83 c0 01	 add	 eax, 1
  00a81	89 85 0c fe ff
	ff		 mov	 DWORD PTR _line$[ebp], eax

; 370  : 
; 371  : 					if (k == 19)

  00a87	83 bd 2c ff ff
	ff 13		 cmp	 DWORD PTR _k$[ebp], 19	; 00000013H
  00a8e	75 36		 jne	 SHORT $LN1@GenerateFS

; 372  : 					{
; 373  : 						len += sprintf(&msg[len-2], "},\r\n\r\n\t{");

  00a90	68 00 00 00 00	 push	 OFFSET ??_C@_08CCLIEFAL@?$HN?0?$AN?6?$AN?6?7?$HL?$AA@
  00a95	8b 85 18 fe ff
	ff		 mov	 eax, DWORD PTR _len$[ebp]
  00a9b	8d 8c 05 22 fe
	ff ff		 lea	 ecx, DWORD PTR _msg$[ebp+eax-2]
  00aa2	51		 push	 ecx
  00aa3	e8 00 00 00 00	 call	 _sprintf
  00aa8	83 c4 08	 add	 esp, 8
  00aab	03 85 18 fe ff
	ff		 add	 eax, DWORD PTR _len$[ebp]
  00ab1	89 85 18 fe ff
	ff		 mov	 DWORD PTR _len$[ebp], eax

; 374  : 						len -=2;

  00ab7	8b 85 18 fe ff
	ff		 mov	 eax, DWORD PTR _len$[ebp]
  00abd	83 e8 02	 sub	 eax, 2
  00ac0	89 85 18 fe ff
	ff		 mov	 DWORD PTR _len$[ebp], eax
$LN1@GenerateFS:

; 375  : 					}
; 376  : 					fwrite(msg, 1, len, fp1);

  00ac6	8b 85 00 fe ff
	ff		 mov	 eax, DWORD PTR _fp1$[ebp]
  00acc	50		 push	 eax
  00acd	8b 8d 18 fe ff
	ff		 mov	 ecx, DWORD PTR _len$[ebp]
  00ad3	51		 push	 ecx
  00ad4	6a 01		 push	 1
  00ad6	8d 95 24 fe ff
	ff		 lea	 edx, DWORD PTR _msg$[ebp]
  00adc	52		 push	 edx
  00add	e8 00 00 00 00	 call	 _fwrite
  00ae2	83 c4 10	 add	 esp, 16			; 00000010H
$LN2@GenerateFS:

; 377  : 				}
; 378  : 	
; 379  : 		}

  00ae5	e9 53 fe ff ff	 jmp	 $LN4@GenerateFS
$LN3@GenerateFS:

; 380  : 	}

  00aea	e9 1c fe ff ff	 jmp	 $LN7@GenerateFS
$LN6@GenerateFS:

; 381  : 
; 382  : 	len = sprintf(msg, "\t}};\r\n");

  00aef	68 00 00 00 00	 push	 OFFSET ??_C@_06JEOIFLEK@?7?$HN?$HN?$DL?$AN?6?$AA@
  00af4	8d 85 24 fe ff
	ff		 lea	 eax, DWORD PTR _msg$[ebp]
  00afa	50		 push	 eax
  00afb	e8 00 00 00 00	 call	 _sprintf
  00b00	83 c4 08	 add	 esp, 8
  00b03	89 85 18 fe ff
	ff		 mov	 DWORD PTR _len$[ebp], eax

; 383  : 	fwrite(msg, 1, len, fp1);

  00b09	8b 85 00 fe ff
	ff		 mov	 eax, DWORD PTR _fp1$[ebp]
  00b0f	50		 push	 eax
  00b10	8b 8d 18 fe ff
	ff		 mov	 ecx, DWORD PTR _len$[ebp]
  00b16	51		 push	 ecx
  00b17	6a 01		 push	 1
  00b19	8d 95 24 fe ff
	ff		 lea	 edx, DWORD PTR _msg$[ebp]
  00b1f	52		 push	 edx
  00b20	e8 00 00 00 00	 call	 _fwrite
  00b25	83 c4 10	 add	 esp, 16			; 00000010H

; 384  : 
; 385  : 	fclose(fp1);

  00b28	8b 85 00 fe ff
	ff		 mov	 eax, DWORD PTR _fp1$[ebp]
  00b2e	50		 push	 eax
  00b2f	e8 00 00 00 00	 call	 _fclose
  00b34	83 c4 04	 add	 esp, 4

; 386  : 
; 387  : 
; 388  : 
; 389  : }

  00b37	52		 push	 edx
  00b38	8b cd		 mov	 ecx, ebp
  00b3a	50		 push	 eax
  00b3b	8d 15 00 00 00
	00		 lea	 edx, DWORD PTR $LN53@GenerateFS
  00b41	e8 00 00 00 00	 call	 @_RTC_CheckStackVars@8
  00b46	58		 pop	 eax
  00b47	5a		 pop	 edx
  00b48	5f		 pop	 edi
  00b49	5e		 pop	 esi
  00b4a	5b		 pop	 ebx
  00b4b	8b 4d fc	 mov	 ecx, DWORD PTR __$ArrayPad$[ebp]
  00b4e	33 cd		 xor	 ecx, ebp
  00b50	e8 00 00 00 00	 call	 @__security_check_cookie@4
  00b55	81 c4 e4 02 00
	00		 add	 esp, 740		; 000002e4H
  00b5b	3b ec		 cmp	 ebp, esp
  00b5d	e8 00 00 00 00	 call	 __RTC_CheckEsp
  00b62	8b e5		 mov	 esp, ebp
  00b64	5d		 pop	 ebp
  00b65	c3		 ret	 0
  00b66	8b ff		 npad	 2
$LN53@GenerateFS:
  00b68	03 00 00 00	 DD	 3
  00b6c	00 00 00 00	 DD	 $LN52@GenerateFS
$LN52@GenerateFS:
  00b70	a8 ff ff ff	 DD	 -88			; ffffffa8H
  00b74	50 00 00 00	 DD	 80			; 00000050H
  00b78	00 00 00 00	 DD	 $LN49@GenerateFS
  00b7c	44 ff ff ff	 DD	 -188			; ffffff44H
  00b80	50 00 00 00	 DD	 80			; 00000050H
  00b84	00 00 00 00	 DD	 $LN50@GenerateFS
  00b88	24 fe ff ff	 DD	 -476			; fffffe24H
  00b8c	00 01 00 00	 DD	 256			; 00000100H
  00b90	00 00 00 00	 DD	 $LN51@GenerateFS
$LN51@GenerateFS:
  00b94	6d		 DB	 109			; 0000006dH
  00b95	73		 DB	 115			; 00000073H
  00b96	67		 DB	 103			; 00000067H
  00b97	00		 DB	 0
$LN50@GenerateFS:
  00b98	64		 DB	 100			; 00000064H
  00b99	62		 DB	 98			; 00000062H
  00b9a	6c		 DB	 108			; 0000006cH
  00b9b	43		 DB	 67			; 00000043H
  00b9c	61		 DB	 97			; 00000061H
  00b9d	72		 DB	 114			; 00000072H
  00b9e	50		 DB	 80			; 00000050H
  00b9f	68		 DB	 104			; 00000068H
  00ba0	61		 DB	 97			; 00000061H
  00ba1	73		 DB	 115			; 00000073H
  00ba2	65		 DB	 101			; 00000065H
  00ba3	49		 DB	 73			; 00000049H
  00ba4	6e		 DB	 110			; 0000006eH
  00ba5	63		 DB	 99			; 00000063H
  00ba6	00		 DB	 0
$LN49@GenerateFS:
  00ba7	64		 DB	 100			; 00000064H
  00ba8	62		 DB	 98			; 00000062H
  00ba9	6c		 DB	 108			; 0000006cH
  00baa	43		 DB	 67			; 00000043H
  00bab	61		 DB	 97			; 00000061H
  00bac	72		 DB	 114			; 00000072H
  00bad	46		 DB	 70			; 00000046H
  00bae	72		 DB	 114			; 00000072H
  00baf	65		 DB	 101			; 00000065H
  00bb0	71		 DB	 113			; 00000071H
  00bb1	00		 DB	 0
_GenerateFSKTemplates ENDP
_TEXT	ENDS
PUBLIC	??_C@_07GLMOLEEO@?7?$HN?$HN?$HN?$DL?$AN?6?$AA@	; `string'
PUBLIC	??_C@_07HPJKBJND@?7?$HN?$HN?$HL?$HL?$AN?6?$AA@	; `string'
PUBLIC	??_C@_06MLHFOLEA@?$HN?0?$AN?6?7?$HL?$AA@	; `string'
PUBLIC	??_C@_06FGOFBFMK@?7?$HL?$HL?$HL?$AN?6?$AA@	; `string'
PUBLIC	??_C@_0CO@JOPOEJMH@?7short?5intPSK100bdCarTemplate?$FL9?$FN@ ; `string'
PUBLIC	??_C@_0BB@CNOHKIFB@d?3?2PSKcoeffs?4txt?$AA@	; `string'
PUBLIC	__real@44fa0000
PUBLIC	__real@44bb8000
PUBLIC	__real@447a0000
PUBLIC	__$ArrayPad$
PUBLIC	_GeneratePSKTemplates
EXTRN	_intPSK100bdCarTemplate:BYTE
EXTRN	_round:PROC
;	COMDAT ??_C@_07GLMOLEEO@?7?$HN?$HN?$HN?$DL?$AN?6?$AA@
CONST	SEGMENT
??_C@_07GLMOLEEO@?7?$HN?$HN?$HN?$DL?$AN?6?$AA@ DB 09H, '}}};', 0dH, 0aH, 00H ; `string'
CONST	ENDS
;	COMDAT ??_C@_07HPJKBJND@?7?$HN?$HN?$HL?$HL?$AN?6?$AA@
CONST	SEGMENT
??_C@_07HPJKBJND@?7?$HN?$HN?$HL?$HL?$AN?6?$AA@ DB 09H, '}}{{', 0dH, 0aH, 00H ; `string'
CONST	ENDS
;	COMDAT ??_C@_06MLHFOLEA@?$HN?0?$AN?6?7?$HL?$AA@
CONST	SEGMENT
??_C@_06MLHFOLEA@?$HN?0?$AN?6?7?$HL?$AA@ DB '},', 0dH, 0aH, 09H, '{', 00H ; `string'
CONST	ENDS
;	COMDAT ??_C@_06FGOFBFMK@?7?$HL?$HL?$HL?$AN?6?$AA@
CONST	SEGMENT
??_C@_06FGOFBFMK@?7?$HL?$HL?$HL?$AN?6?$AA@ DB 09H, '{{{', 0dH, 0aH, 00H ; `string'
CONST	ENDS
;	COMDAT ??_C@_0CO@JOPOEJMH@?7short?5intPSK100bdCarTemplate?$FL9?$FN@
CONST	SEGMENT
??_C@_0CO@JOPOEJMH@?7short?5intPSK100bdCarTemplate?$FL9?$FN@ DB 09H, 'sho'
	DB	'rt intPSK100bdCarTemplate[9][4][120] = ', 0dH, 0aH, 00H ; `string'
CONST	ENDS
;	COMDAT ??_C@_0BB@CNOHKIFB@d?3?2PSKcoeffs?4txt?$AA@
CONST	SEGMENT
??_C@_0BB@CNOHKIFB@d?3?2PSKcoeffs?4txt?$AA@ DB 'd:\PSKcoeffs.txt', 00H ; `string'
CONST	ENDS
;	COMDAT __real@44fa0000
CONST	SEGMENT
__real@44fa0000 DD 044fa0000r			; 2000
CONST	ENDS
;	COMDAT __real@44bb8000
CONST	SEGMENT
__real@44bb8000 DD 044bb8000r			; 1500
CONST	ENDS
;	COMDAT __real@447a0000
CONST	SEGMENT
__real@447a0000 DD 0447a0000r			; 1000
; Function compile flags: /Odtp /RTCsu /ZI
CONST	ENDS
;	COMDAT _GeneratePSKTemplates
_TEXT	SEGMENT
tv340 = -668						; size = 4
tv447 = -664						; size = 8
tv445 = -664						; size = 8
_xxi$5524 = -460					; size = 4
_xx$5523 = -448						; size = 4
_dblAngle$ = -436					; size = 4
_dblCarPhaseInc$ = -424					; size = 36
_line$ = -380						; size = 4
_len$ = -368						; size = 4
_msg$ = -356						; size = 256
_fp1$ = -92						; size = 4
_dblCarFreq$ = -80					; size = 36
_k$ = -36						; size = 4
_j$ = -24						; size = 4
_i$ = -12						; size = 4
__$ArrayPad$ = -4					; size = 4
_GeneratePSKTemplates PROC				; COMDAT

; 398  : {

  00000	55		 push	 ebp
  00001	8b ec		 mov	 ebp, esp
  00003	81 ec 9c 02 00
	00		 sub	 esp, 668		; 0000029cH
  00009	53		 push	 ebx
  0000a	56		 push	 esi
  0000b	57		 push	 edi
  0000c	8d bd 64 fd ff
	ff		 lea	 edi, DWORD PTR [ebp-668]
  00012	b9 a7 00 00 00	 mov	 ecx, 167		; 000000a7H
  00017	b8 cc cc cc cc	 mov	 eax, -858993460		; ccccccccH
  0001c	f3 ab		 rep stosd
  0001e	a1 00 00 00 00	 mov	 eax, DWORD PTR ___security_cookie
  00023	33 c5		 xor	 eax, ebp
  00025	89 45 fc	 mov	 DWORD PTR __$ArrayPad$[ebp], eax

; 399  : 	// Generate templates of 120 samples (each template = 10 ms) for each of the 9 possible carriers used in PSK modulation. 
; 400  : 	// Used to speed up computation of PSK frames and reduce use of Sin functions.
; 401  : 	// Amplitude values will have to be scaled based on the number of Active Carriers (1, 2, 4 or 8) initial values should be OK for 1 carrier
; 402  : 	// Tone values 
; 403  : 	// the carrier frequencies in Hz
; 404  : 
; 405  : 	int i, j ,k;
; 406  : 	float dblCarFreq[]  = {800, 1000, 1200, 1400, 1500, 1600, 1800, 2000, 2200};

  00028	d9 05 00 00 00
	00		 fld	 DWORD PTR __real@44480000
  0002e	d9 5d b0	 fstp	 DWORD PTR _dblCarFreq$[ebp]
  00031	d9 05 00 00 00
	00		 fld	 DWORD PTR __real@447a0000
  00037	d9 5d b4	 fstp	 DWORD PTR _dblCarFreq$[ebp+4]
  0003a	d9 05 00 00 00
	00		 fld	 DWORD PTR __real@44960000
  00040	d9 5d b8	 fstp	 DWORD PTR _dblCarFreq$[ebp+8]
  00043	d9 05 00 00 00
	00		 fld	 DWORD PTR __real@44af0000
  00049	d9 5d bc	 fstp	 DWORD PTR _dblCarFreq$[ebp+12]
  0004c	d9 05 00 00 00
	00		 fld	 DWORD PTR __real@44bb8000
  00052	d9 5d c0	 fstp	 DWORD PTR _dblCarFreq$[ebp+16]
  00055	d9 05 00 00 00
	00		 fld	 DWORD PTR __real@44c80000
  0005b	d9 5d c4	 fstp	 DWORD PTR _dblCarFreq$[ebp+20]
  0005e	d9 05 00 00 00
	00		 fld	 DWORD PTR __real@44e10000
  00064	d9 5d c8	 fstp	 DWORD PTR _dblCarFreq$[ebp+24]
  00067	d9 05 00 00 00
	00		 fld	 DWORD PTR __real@44fa0000
  0006d	d9 5d cc	 fstp	 DWORD PTR _dblCarFreq$[ebp+28]
  00070	d9 05 00 00 00
	00		 fld	 DWORD PTR __real@45098000
  00076	d9 5d d0	 fstp	 DWORD PTR _dblCarFreq$[ebp+32]

; 407  : 	FILE * fp1;
; 408  : 	char msg[256];
; 409  : 	int len;
; 410  : 	int line = 0;

  00079	c7 85 84 fe ff
	ff 00 00 00 00	 mov	 DWORD PTR _line$[ebp], 0

; 411  : 
; 412  : 	//  for 1 carrier modes use index 4 (1500)
; 413  : 	//  for 2 carrier modes use indexes 3, 5 (1400 and 1600 Hz)
; 414  : 	//  for 4 carrier modes use indexes 2, 3, 5, 6 (1200, 1400, 1600, 1800Hz) 
; 415  : 	//  for 8 carrier modes use indexes 0,1,2,3,5,6,7,8 (800, 1000, 1200, 1400, 1600, 1800, 2000, 2200 Hz) 
; 416  : 
; 417  : 	float dblCarPhaseInc[9] ;	// the phase inc per sample
; 418  : 
; 419  : 	float dblAngle;			 // Angle in radians
; 420  : 
; 421  :         //Dim dblPeakAmp As Double = intAmp * 0.5 ' may need to adjust 
; 422  : 	
; 423  : 	fp1 = fopen("d:\\PSKcoeffs.txt", "wb");

  00083	68 00 00 00 00	 push	 OFFSET ??_C@_02GMLFBBN@wb?$AA@
  00088	68 00 00 00 00	 push	 OFFSET ??_C@_0BB@CNOHKIFB@d?3?2PSKcoeffs?4txt?$AA@
  0008d	e8 00 00 00 00	 call	 _fopen
  00092	83 c4 08	 add	 esp, 8
  00095	89 45 a4	 mov	 DWORD PTR _fp1$[ebp], eax

; 424  : 
; 425  : 		// Compute the phase inc per sample
; 426  : 
; 427  : 	for (i = 0; i <= 8; i++)

  00098	c7 45 f4 00 00
	00 00		 mov	 DWORD PTR _i$[ebp], 0
  0009f	eb 09		 jmp	 SHORT $LN28@GeneratePS
$LN27@GeneratePS:
  000a1	8b 45 f4	 mov	 eax, DWORD PTR _i$[ebp]
  000a4	83 c0 01	 add	 eax, 1
  000a7	89 45 f4	 mov	 DWORD PTR _i$[ebp], eax
$LN28@GeneratePS:
  000aa	83 7d f4 08	 cmp	 DWORD PTR _i$[ebp], 8
  000ae	7f 1f		 jg	 SHORT $LN26@GeneratePS

; 428  : 	{
; 429  : 		dblCarPhaseInc[i] = 2 * M_PI * dblCarFreq[i] / 12000;

  000b0	8b 45 f4	 mov	 eax, DWORD PTR _i$[ebp]
  000b3	d9 44 85 b0	 fld	 DWORD PTR _dblCarFreq$[ebp+eax*4]
  000b7	dc 0d 00 00 00
	00		 fmul	 QWORD PTR __real@401921fb00000000
  000bd	dc 35 00 00 00
	00		 fdiv	 QWORD PTR __real@40c7700000000000
  000c3	8b 4d f4	 mov	 ecx, DWORD PTR _i$[ebp]
  000c6	d9 9c 8d 58 fe
	ff ff		 fstp	 DWORD PTR _dblCarPhaseInc$[ebp+ecx*4]

; 430  : 	}

  000cd	eb d2		 jmp	 SHORT $LN27@GeneratePS
$LN26@GeneratePS:

; 431  : 
; 432  : 	// Now compute the templates: (4320 32 bit values total) 
; 433  : 
; 434  : 	for (i = 0; i <= 8; i++)		// across 9 tones

  000cf	c7 45 f4 00 00
	00 00		 mov	 DWORD PTR _i$[ebp], 0
  000d6	eb 09		 jmp	 SHORT $LN25@GeneratePS
$LN24@GeneratePS:
  000d8	8b 45 f4	 mov	 eax, DWORD PTR _i$[ebp]
  000db	83 c0 01	 add	 eax, 1
  000de	89 45 f4	 mov	 DWORD PTR _i$[ebp], eax
$LN25@GeneratePS:
  000e1	83 7d f4 08	 cmp	 DWORD PTR _i$[ebp], 8
  000e5	0f 8f b4 01 00
	00		 jg	 $LN23@GeneratePS

; 435  : 	{
; 436  : 		for (j = 0; j <= 3; j++)	// ( using only half the values and sign compliment for the opposit phases) 

  000eb	c7 45 e8 00 00
	00 00		 mov	 DWORD PTR _j$[ebp], 0
  000f2	eb 09		 jmp	 SHORT $LN22@GeneratePS
$LN21@GeneratePS:
  000f4	8b 45 e8	 mov	 eax, DWORD PTR _j$[ebp]
  000f7	83 c0 01	 add	 eax, 1
  000fa	89 45 e8	 mov	 DWORD PTR _j$[ebp], eax
$LN22@GeneratePS:
  000fd	83 7d e8 03	 cmp	 DWORD PTR _j$[ebp], 3
  00101	0f 8f 93 01 00
	00		 jg	 $LN20@GeneratePS

; 437  : 		{
; 438  : 			dblAngle = 2 * M_PI * j / 8;

  00107	db 45 e8	 fild	 DWORD PTR _j$[ebp]
  0010a	dc 0d 00 00 00
	00		 fmul	 QWORD PTR __real@401921fb00000000
  00110	dc 35 00 00 00
	00		 fdiv	 QWORD PTR __real@4020000000000000
  00116	d9 9d 4c fe ff
	ff		 fstp	 DWORD PTR _dblAngle$[ebp]

; 439  : 
; 440  : 			// 100 baud template
; 441  : 
; 442  : 			for (k = 0; k <= 119; k++) // for 120 samples (one 100 baud symbol, 200 baud modes will just use half of the data)

  0011c	c7 45 dc 00 00
	00 00		 mov	 DWORD PTR _k$[ebp], 0
  00123	eb 09		 jmp	 SHORT $LN19@GeneratePS
$LN18@GeneratePS:
  00125	8b 45 dc	 mov	 eax, DWORD PTR _k$[ebp]
  00128	83 c0 01	 add	 eax, 1
  0012b	89 45 dc	 mov	 DWORD PTR _k$[ebp], eax
$LN19@GeneratePS:
  0012e	83 7d dc 77	 cmp	 DWORD PTR _k$[ebp], 119	; 00000077H
  00132	0f 8f a3 00 00
	00		 jg	 $LN17@GeneratePS

; 443  : 			{
; 444  : 	//			float xx = intAmp * sin(M_PI * k / 119) * sin(dblAngle);
; 445  : 	//			float xx2 = round(xx);
; 446  : 	//			int xxi= (int)(xx2);
; 447  : 				
; 448  : 	//			if (intPSK100bdCarTemplate[i][j][k] != xxi)
; 449  : 	////			{
; 450  : 	//				k++;
; 451  : 	//				k--;
; 452  : 	//			}
; 453  : 		
; 454  : 				intPSK100bdCarTemplate[i][j][k] = (short)round(intAmp * sin(dblAngle));  // with no envelope control

  00138	db 05 00 00 00
	00		 fild	 DWORD PTR _intAmp
  0013e	d9 85 4c fe ff
	ff		 fld	 DWORD PTR _dblAngle$[ebp]
  00144	83 ec 08	 sub	 esp, 8
  00147	dd 1c 24	 fstp	 QWORD PTR [esp]
  0014a	dd 9d 68 fd ff
	ff		 fstp	 QWORD PTR tv445[ebp]
  00150	e8 00 00 00 00	 call	 _sin
  00155	83 c4 08	 add	 esp, 8
  00158	dc 8d 68 fd ff
	ff		 fmul	 QWORD PTR tv445[ebp]
  0015e	d9 9d 64 fd ff
	ff		 fstp	 DWORD PTR tv340[ebp]
  00164	d9 85 64 fd ff
	ff		 fld	 DWORD PTR tv340[ebp]
  0016a	51		 push	 ecx
  0016b	d9 1c 24	 fstp	 DWORD PTR [esp]
  0016e	e8 00 00 00 00	 call	 _round
  00173	83 c4 04	 add	 esp, 4
  00176	e8 00 00 00 00	 call	 __ftol2_sse
  0017b	8b 4d f4	 mov	 ecx, DWORD PTR _i$[ebp]
  0017e	69 c9 c0 03 00
	00		 imul	 ecx, 960		; 000003c0H
  00184	8b 55 e8	 mov	 edx, DWORD PTR _j$[ebp]
  00187	69 d2 f0 00 00
	00		 imul	 edx, 240		; 000000f0H
  0018d	8d 8c 11 00 00
	00 00		 lea	 ecx, DWORD PTR _intPSK100bdCarTemplate[ecx+edx]
  00194	8b 55 dc	 mov	 edx, DWORD PTR _k$[ebp]
  00197	66 89 04 51	 mov	 WORD PTR [ecx+edx*2], ax

; 455  : 	          // intPSK100bdCarTemplate(i, j, k) = intAmp * Sin(PI * k / 119) * Sin(dblAngle) ' with envelope control using Sin
; 456  :  		
; 457  : 				dblAngle += dblCarPhaseInc[i];

  0019b	d9 85 4c fe ff
	ff		 fld	 DWORD PTR _dblAngle$[ebp]
  001a1	8b 45 f4	 mov	 eax, DWORD PTR _i$[ebp]
  001a4	d8 84 85 58 fe
	ff ff		 fadd	 DWORD PTR _dblCarPhaseInc$[ebp+eax*4]
  001ab	d9 9d 4c fe ff
	ff		 fstp	 DWORD PTR _dblAngle$[ebp]

; 458  : 				
; 459  : 				if (dblAngle >= 2 * M_PI)

  001b1	d9 85 4c fe ff
	ff		 fld	 DWORD PTR _dblAngle$[ebp]
  001b7	dc 1d 00 00 00
	00		 fcomp	 QWORD PTR __real@401921fb00000000
  001bd	df e0		 fnstsw	 ax
  001bf	f6 c4 01	 test	 ah, 1
  001c2	75 12		 jne	 SHORT $LN16@GeneratePS

; 460  : 					dblAngle -= 2 * M_PI;

  001c4	d9 85 4c fe ff
	ff		 fld	 DWORD PTR _dblAngle$[ebp]
  001ca	dc 25 00 00 00
	00		 fsub	 QWORD PTR __real@401921fb00000000
  001d0	d9 9d 4c fe ff
	ff		 fstp	 DWORD PTR _dblAngle$[ebp]
$LN16@GeneratePS:

; 461  : 			}

  001d6	e9 4a ff ff ff	 jmp	 $LN18@GeneratePS
$LN17@GeneratePS:

; 462  : 			
; 463  : 			// 167 baud template
; 464  : 
; 465  : 			dblAngle = 2 * M_PI * j / 8;

  001db	db 45 e8	 fild	 DWORD PTR _j$[ebp]
  001de	dc 0d 00 00 00
	00		 fmul	 QWORD PTR __real@401921fb00000000
  001e4	dc 35 00 00 00
	00		 fdiv	 QWORD PTR __real@4020000000000000
  001ea	d9 9d 4c fe ff
	ff		 fstp	 DWORD PTR _dblAngle$[ebp]

; 466  : 
; 467  : 			for (k = 0 ; k <= 71; k++)

  001f0	c7 45 dc 00 00
	00 00		 mov	 DWORD PTR _k$[ebp], 0
  001f7	eb 09		 jmp	 SHORT $LN15@GeneratePS
$LN14@GeneratePS:
  001f9	8b 45 dc	 mov	 eax, DWORD PTR _k$[ebp]
  001fc	83 c0 01	 add	 eax, 1
  001ff	89 45 dc	 mov	 DWORD PTR _k$[ebp], eax
$LN15@GeneratePS:
  00202	83 7d dc 47	 cmp	 DWORD PTR _k$[ebp], 71	; 00000047H
  00206	0f 8f 89 00 00
	00		 jg	 $LN13@GeneratePS

; 468  : 			{
; 469  : 				float xx = intAmp * sin(dblAngle);

  0020c	db 05 00 00 00
	00		 fild	 DWORD PTR _intAmp
  00212	d9 85 4c fe ff
	ff		 fld	 DWORD PTR _dblAngle$[ebp]
  00218	83 ec 08	 sub	 esp, 8
  0021b	dd 1c 24	 fstp	 QWORD PTR [esp]
  0021e	dd 9d 68 fd ff
	ff		 fstp	 QWORD PTR tv447[ebp]
  00224	e8 00 00 00 00	 call	 _sin
  00229	83 c4 08	 add	 esp, 8
  0022c	dc 8d 68 fd ff
	ff		 fmul	 QWORD PTR tv447[ebp]
  00232	d9 9d 40 fe ff
	ff		 fstp	 DWORD PTR _xx$5523[ebp]

; 470  : 				int xxi= (int)round(xx);

  00238	51		 push	 ecx
  00239	d9 85 40 fe ff
	ff		 fld	 DWORD PTR _xx$5523[ebp]
  0023f	d9 1c 24	 fstp	 DWORD PTR [esp]
  00242	e8 00 00 00 00	 call	 _round
  00247	83 c4 04	 add	 esp, 4
  0024a	e8 00 00 00 00	 call	 __ftol2_sse
  0024f	89 85 34 fe ff
	ff		 mov	 DWORD PTR _xxi$5524[ebp], eax

; 471  : 				
; 472  : //				intPSK200bdCarTemplate[i][j][k] = (short)round(intAmp * sin(dblAngle)); // with no envelope control
; 473  : 				dblAngle += dblCarPhaseInc[i];

  00255	d9 85 4c fe ff
	ff		 fld	 DWORD PTR _dblAngle$[ebp]
  0025b	8b 45 f4	 mov	 eax, DWORD PTR _i$[ebp]
  0025e	d8 84 85 58 fe
	ff ff		 fadd	 DWORD PTR _dblCarPhaseInc$[ebp+eax*4]
  00265	d9 9d 4c fe ff
	ff		 fstp	 DWORD PTR _dblAngle$[ebp]

; 474  : 				if (dblAngle >= 2 * M_PI)

  0026b	d9 85 4c fe ff
	ff		 fld	 DWORD PTR _dblAngle$[ebp]
  00271	dc 1d 00 00 00
	00		 fcomp	 QWORD PTR __real@401921fb00000000
  00277	df e0		 fnstsw	 ax
  00279	f6 c4 01	 test	 ah, 1
  0027c	75 12		 jne	 SHORT $LN12@GeneratePS

; 475  : 					dblAngle -= 2 * M_PI;

  0027e	d9 85 4c fe ff
	ff		 fld	 DWORD PTR _dblAngle$[ebp]
  00284	dc 25 00 00 00
	00		 fsub	 QWORD PTR __real@401921fb00000000
  0028a	d9 9d 4c fe ff
	ff		 fstp	 DWORD PTR _dblAngle$[ebp]
$LN12@GeneratePS:

; 476  : 			}

  00290	e9 64 ff ff ff	 jmp	 $LN14@GeneratePS
$LN13@GeneratePS:

; 477  : 		}

  00295	e9 5a fe ff ff	 jmp	 $LN21@GeneratePS
$LN20@GeneratePS:

; 478  : 	}

  0029a	e9 39 fe ff ff	 jmp	 $LN24@GeneratePS
$LN23@GeneratePS:

; 479  : 
; 480  : // Now print them
; 481  : 
; 482  : 	len = sprintf(msg, "\tshort intPSK100bdCarTemplate[9][4][120] = \r\n");

  0029f	68 00 00 00 00	 push	 OFFSET ??_C@_0CO@JOPOEJMH@?7short?5intPSK100bdCarTemplate?$FL9?$FN@
  002a4	8d 85 9c fe ff
	ff		 lea	 eax, DWORD PTR _msg$[ebp]
  002aa	50		 push	 eax
  002ab	e8 00 00 00 00	 call	 _sprintf
  002b0	83 c4 08	 add	 esp, 8
  002b3	89 85 90 fe ff
	ff		 mov	 DWORD PTR _len$[ebp], eax

; 483  : 	fwrite(msg, 1, len, fp1);

  002b9	8b 45 a4	 mov	 eax, DWORD PTR _fp1$[ebp]
  002bc	50		 push	 eax
  002bd	8b 8d 90 fe ff
	ff		 mov	 ecx, DWORD PTR _len$[ebp]
  002c3	51		 push	 ecx
  002c4	6a 01		 push	 1
  002c6	8d 95 9c fe ff
	ff		 lea	 edx, DWORD PTR _msg$[ebp]
  002cc	52		 push	 edx
  002cd	e8 00 00 00 00	 call	 _fwrite
  002d2	83 c4 10	 add	 esp, 16			; 00000010H

; 484  : 
; 485  : 	len = sprintf(msg, "\t{{{\r\n");

  002d5	68 00 00 00 00	 push	 OFFSET ??_C@_06FGOFBFMK@?7?$HL?$HL?$HL?$AN?6?$AA@
  002da	8d 85 9c fe ff
	ff		 lea	 eax, DWORD PTR _msg$[ebp]
  002e0	50		 push	 eax
  002e1	e8 00 00 00 00	 call	 _sprintf
  002e6	83 c4 08	 add	 esp, 8
  002e9	89 85 90 fe ff
	ff		 mov	 DWORD PTR _len$[ebp], eax

; 486  : 	fwrite(msg, 1, len, fp1);

  002ef	8b 45 a4	 mov	 eax, DWORD PTR _fp1$[ebp]
  002f2	50		 push	 eax
  002f3	8b 8d 90 fe ff
	ff		 mov	 ecx, DWORD PTR _len$[ebp]
  002f9	51		 push	 ecx
  002fa	6a 01		 push	 1
  002fc	8d 95 9c fe ff
	ff		 lea	 edx, DWORD PTR _msg$[ebp]
  00302	52		 push	 edx
  00303	e8 00 00 00 00	 call	 _fwrite
  00308	83 c4 10	 add	 esp, 16			; 00000010H

; 487  : 
; 488  : 	for (i = 0; i <= 8; i++)		// across 9 tones

  0030b	c7 45 f4 00 00
	00 00		 mov	 DWORD PTR _i$[ebp], 0
  00312	eb 09		 jmp	 SHORT $LN11@GeneratePS
$LN10@GeneratePS:
  00314	8b 45 f4	 mov	 eax, DWORD PTR _i$[ebp]
  00317	83 c0 01	 add	 eax, 1
  0031a	89 45 f4	 mov	 DWORD PTR _i$[ebp], eax
$LN11@GeneratePS:
  0031d	83 7d f4 08	 cmp	 DWORD PTR _i$[ebp], 8
  00321	0f 8f 88 02 00
	00		 jg	 $LN9@GeneratePS

; 489  : 	{
; 490  : 		for (j = 0; j <= 3; j++)	// ( using only half the values and sign compliment for the opposit phases) 

  00327	c7 45 e8 00 00
	00 00		 mov	 DWORD PTR _j$[ebp], 0
  0032e	eb 09		 jmp	 SHORT $LN8@GeneratePS
$LN7@GeneratePS:
  00330	8b 45 e8	 mov	 eax, DWORD PTR _j$[ebp]
  00333	83 c0 01	 add	 eax, 1
  00336	89 45 e8	 mov	 DWORD PTR _j$[ebp], eax
$LN8@GeneratePS:
  00339	83 7d e8 03	 cmp	 DWORD PTR _j$[ebp], 3
  0033d	0f 8f 31 02 00
	00		 jg	 $LN6@GeneratePS

; 491  : 		{
; 492  : 			line = 0;

  00343	c7 85 84 fe ff
	ff 00 00 00 00	 mov	 DWORD PTR _line$[ebp], 0

; 493  : 
; 494  : 			for (k = 0; k <= 119; k++) // for 120 samples (one 100 baud symbol, 200 baud modes will just use half of the data)

  0034d	c7 45 dc 00 00
	00 00		 mov	 DWORD PTR _k$[ebp], 0
  00354	eb 09		 jmp	 SHORT $LN5@GeneratePS
$LN4@GeneratePS:
  00356	8b 45 dc	 mov	 eax, DWORD PTR _k$[ebp]
  00359	83 c0 01	 add	 eax, 1
  0035c	89 45 dc	 mov	 DWORD PTR _k$[ebp], eax
$LN5@GeneratePS:
  0035f	83 7d dc 77	 cmp	 DWORD PTR _k$[ebp], 119	; 00000077H
  00363	0f 8f 06 02 00
	00		 jg	 $LN3@GeneratePS

; 495  : 			{
; 496  : 				if ((k - line) == 9)

  00369	8b 45 dc	 mov	 eax, DWORD PTR _k$[ebp]
  0036c	2b 85 84 fe ff
	ff		 sub	 eax, DWORD PTR _line$[ebp]
  00372	83 f8 09	 cmp	 eax, 9
  00375	0f 85 ef 01 00
	00		 jne	 $LN2@GeneratePS

; 497  : 				{
; 498  : 					// print 10 to line
; 499  : 
; 500  : 					len = sprintf(msg, "\t%d, %d, %d, %d, %d, %d, %d, %d, %d, %d,\n",
; 501  : 					intPSK100bdCarTemplate[i][j][line],
; 502  : 					intPSK100bdCarTemplate[i][j][line + 1],
; 503  : 					intPSK100bdCarTemplate[i][j][line + 2],
; 504  : 					intPSK100bdCarTemplate[i][j][line + 3],
; 505  : 					intPSK100bdCarTemplate[i][j][line + 4],
; 506  : 					intPSK100bdCarTemplate[i][j][line + 5],
; 507  : 					intPSK100bdCarTemplate[i][j][line + 6],
; 508  : 					intPSK100bdCarTemplate[i][j][line + 7],
; 509  : 					intPSK100bdCarTemplate[i][j][line + 8],
; 510  : 					intPSK100bdCarTemplate[i][j][line + 9]);

  0037b	8b 45 f4	 mov	 eax, DWORD PTR _i$[ebp]
  0037e	69 c0 c0 03 00
	00		 imul	 eax, 960		; 000003c0H
  00384	8b 4d e8	 mov	 ecx, DWORD PTR _j$[ebp]
  00387	69 c9 f0 00 00
	00		 imul	 ecx, 240		; 000000f0H
  0038d	8d 94 08 00 00
	00 00		 lea	 edx, DWORD PTR _intPSK100bdCarTemplate[eax+ecx]
  00394	8b 85 84 fe ff
	ff		 mov	 eax, DWORD PTR _line$[ebp]
  0039a	0f bf 4c 42 12	 movsx	 ecx, WORD PTR [edx+eax*2+18]
  0039f	51		 push	 ecx
  003a0	8b 55 f4	 mov	 edx, DWORD PTR _i$[ebp]
  003a3	69 d2 c0 03 00
	00		 imul	 edx, 960		; 000003c0H
  003a9	8b 45 e8	 mov	 eax, DWORD PTR _j$[ebp]
  003ac	69 c0 f0 00 00
	00		 imul	 eax, 240		; 000000f0H
  003b2	8d 8c 02 00 00
	00 00		 lea	 ecx, DWORD PTR _intPSK100bdCarTemplate[edx+eax]
  003b9	8b 95 84 fe ff
	ff		 mov	 edx, DWORD PTR _line$[ebp]
  003bf	0f bf 44 51 10	 movsx	 eax, WORD PTR [ecx+edx*2+16]
  003c4	50		 push	 eax
  003c5	8b 4d f4	 mov	 ecx, DWORD PTR _i$[ebp]
  003c8	69 c9 c0 03 00
	00		 imul	 ecx, 960		; 000003c0H
  003ce	8b 55 e8	 mov	 edx, DWORD PTR _j$[ebp]
  003d1	69 d2 f0 00 00
	00		 imul	 edx, 240		; 000000f0H
  003d7	8d 84 11 00 00
	00 00		 lea	 eax, DWORD PTR _intPSK100bdCarTemplate[ecx+edx]
  003de	8b 8d 84 fe ff
	ff		 mov	 ecx, DWORD PTR _line$[ebp]
  003e4	0f bf 54 48 0e	 movsx	 edx, WORD PTR [eax+ecx*2+14]
  003e9	52		 push	 edx
  003ea	8b 45 f4	 mov	 eax, DWORD PTR _i$[ebp]
  003ed	69 c0 c0 03 00
	00		 imul	 eax, 960		; 000003c0H
  003f3	8b 4d e8	 mov	 ecx, DWORD PTR _j$[ebp]
  003f6	69 c9 f0 00 00
	00		 imul	 ecx, 240		; 000000f0H
  003fc	8d 94 08 00 00
	00 00		 lea	 edx, DWORD PTR _intPSK100bdCarTemplate[eax+ecx]
  00403	8b 85 84 fe ff
	ff		 mov	 eax, DWORD PTR _line$[ebp]
  00409	0f bf 4c 42 0c	 movsx	 ecx, WORD PTR [edx+eax*2+12]
  0040e	51		 push	 ecx
  0040f	8b 55 f4	 mov	 edx, DWORD PTR _i$[ebp]
  00412	69 d2 c0 03 00
	00		 imul	 edx, 960		; 000003c0H
  00418	8b 45 e8	 mov	 eax, DWORD PTR _j$[ebp]
  0041b	69 c0 f0 00 00
	00		 imul	 eax, 240		; 000000f0H
  00421	8d 8c 02 00 00
	00 00		 lea	 ecx, DWORD PTR _intPSK100bdCarTemplate[edx+eax]
  00428	8b 95 84 fe ff
	ff		 mov	 edx, DWORD PTR _line$[ebp]
  0042e	0f bf 44 51 0a	 movsx	 eax, WORD PTR [ecx+edx*2+10]
  00433	50		 push	 eax
  00434	8b 4d f4	 mov	 ecx, DWORD PTR _i$[ebp]
  00437	69 c9 c0 03 00
	00		 imul	 ecx, 960		; 000003c0H
  0043d	8b 55 e8	 mov	 edx, DWORD PTR _j$[ebp]
  00440	69 d2 f0 00 00
	00		 imul	 edx, 240		; 000000f0H
  00446	8d 84 11 00 00
	00 00		 lea	 eax, DWORD PTR _intPSK100bdCarTemplate[ecx+edx]
  0044d	8b 8d 84 fe ff
	ff		 mov	 ecx, DWORD PTR _line$[ebp]
  00453	0f bf 54 48 08	 movsx	 edx, WORD PTR [eax+ecx*2+8]
  00458	52		 push	 edx
  00459	8b 45 f4	 mov	 eax, DWORD PTR _i$[ebp]
  0045c	69 c0 c0 03 00
	00		 imul	 eax, 960		; 000003c0H
  00462	8b 4d e8	 mov	 ecx, DWORD PTR _j$[ebp]
  00465	69 c9 f0 00 00
	00		 imul	 ecx, 240		; 000000f0H
  0046b	8d 94 08 00 00
	00 00		 lea	 edx, DWORD PTR _intPSK100bdCarTemplate[eax+ecx]
  00472	8b 85 84 fe ff
	ff		 mov	 eax, DWORD PTR _line$[ebp]
  00478	0f bf 4c 42 06	 movsx	 ecx, WORD PTR [edx+eax*2+6]
  0047d	51		 push	 ecx
  0047e	8b 55 f4	 mov	 edx, DWORD PTR _i$[ebp]
  00481	69 d2 c0 03 00
	00		 imul	 edx, 960		; 000003c0H
  00487	8b 45 e8	 mov	 eax, DWORD PTR _j$[ebp]
  0048a	69 c0 f0 00 00
	00		 imul	 eax, 240		; 000000f0H
  00490	8d 8c 02 00 00
	00 00		 lea	 ecx, DWORD PTR _intPSK100bdCarTemplate[edx+eax]
  00497	8b 95 84 fe ff
	ff		 mov	 edx, DWORD PTR _line$[ebp]
  0049d	0f bf 44 51 04	 movsx	 eax, WORD PTR [ecx+edx*2+4]
  004a2	50		 push	 eax
  004a3	8b 4d f4	 mov	 ecx, DWORD PTR _i$[ebp]
  004a6	69 c9 c0 03 00
	00		 imul	 ecx, 960		; 000003c0H
  004ac	8b 55 e8	 mov	 edx, DWORD PTR _j$[ebp]
  004af	69 d2 f0 00 00
	00		 imul	 edx, 240		; 000000f0H
  004b5	8d 84 11 00 00
	00 00		 lea	 eax, DWORD PTR _intPSK100bdCarTemplate[ecx+edx]
  004bc	8b 8d 84 fe ff
	ff		 mov	 ecx, DWORD PTR _line$[ebp]
  004c2	0f bf 54 48 02	 movsx	 edx, WORD PTR [eax+ecx*2+2]
  004c7	52		 push	 edx
  004c8	8b 45 f4	 mov	 eax, DWORD PTR _i$[ebp]
  004cb	69 c0 c0 03 00
	00		 imul	 eax, 960		; 000003c0H
  004d1	8b 4d e8	 mov	 ecx, DWORD PTR _j$[ebp]
  004d4	69 c9 f0 00 00
	00		 imul	 ecx, 240		; 000000f0H
  004da	8d 94 08 00 00
	00 00		 lea	 edx, DWORD PTR _intPSK100bdCarTemplate[eax+ecx]
  004e1	8b 85 84 fe ff
	ff		 mov	 eax, DWORD PTR _line$[ebp]
  004e7	0f bf 0c 42	 movsx	 ecx, WORD PTR [edx+eax*2]
  004eb	51		 push	 ecx
  004ec	68 00 00 00 00	 push	 OFFSET ??_C@_0CK@GBNNNIFO@?7?$CFd?0?5?$CFd?0?5?$CFd?0?5?$CFd?0?5?$CFd?0?5?$CFd?0?5?$CFd?0?5?$CFd?0@
  004f1	8d 95 9c fe ff
	ff		 lea	 edx, DWORD PTR _msg$[ebp]
  004f7	52		 push	 edx
  004f8	e8 00 00 00 00	 call	 _sprintf
  004fd	83 c4 30	 add	 esp, 48			; 00000030H
  00500	89 85 90 fe ff
	ff		 mov	 DWORD PTR _len$[ebp], eax

; 511  : 
; 512  : 					line = k + 1;

  00506	8b 45 dc	 mov	 eax, DWORD PTR _k$[ebp]
  00509	83 c0 01	 add	 eax, 1
  0050c	89 85 84 fe ff
	ff		 mov	 DWORD PTR _line$[ebp], eax

; 513  : 
; 514  : 					if (k == 119)

  00512	83 7d dc 77	 cmp	 DWORD PTR _k$[ebp], 119	; 00000077H
  00516	75 36		 jne	 SHORT $LN1@GeneratePS

; 515  : 					{
; 516  : 						len += sprintf(&msg[len-2], "},\r\n\t{");

  00518	68 00 00 00 00	 push	 OFFSET ??_C@_06MLHFOLEA@?$HN?0?$AN?6?7?$HL?$AA@
  0051d	8b 85 90 fe ff
	ff		 mov	 eax, DWORD PTR _len$[ebp]
  00523	8d 8c 05 9a fe
	ff ff		 lea	 ecx, DWORD PTR _msg$[ebp+eax-2]
  0052a	51		 push	 ecx
  0052b	e8 00 00 00 00	 call	 _sprintf
  00530	83 c4 08	 add	 esp, 8
  00533	03 85 90 fe ff
	ff		 add	 eax, DWORD PTR _len$[ebp]
  00539	89 85 90 fe ff
	ff		 mov	 DWORD PTR _len$[ebp], eax

; 517  : 						len -=2;

  0053f	8b 85 90 fe ff
	ff		 mov	 eax, DWORD PTR _len$[ebp]
  00545	83 e8 02	 sub	 eax, 2
  00548	89 85 90 fe ff
	ff		 mov	 DWORD PTR _len$[ebp], eax
$LN1@GeneratePS:

; 518  : 					}
; 519  : 					fwrite(msg, 1, len, fp1);

  0054e	8b 45 a4	 mov	 eax, DWORD PTR _fp1$[ebp]
  00551	50		 push	 eax
  00552	8b 8d 90 fe ff
	ff		 mov	 ecx, DWORD PTR _len$[ebp]
  00558	51		 push	 ecx
  00559	6a 01		 push	 1
  0055b	8d 95 9c fe ff
	ff		 lea	 edx, DWORD PTR _msg$[ebp]
  00561	52		 push	 edx
  00562	e8 00 00 00 00	 call	 _fwrite
  00567	83 c4 10	 add	 esp, 16			; 00000010H
$LN2@GeneratePS:

; 520  : 				}
; 521  : 			}

  0056a	e9 e7 fd ff ff	 jmp	 $LN4@GeneratePS
$LN3@GeneratePS:

; 522  : //			len = sprintf(msg, "\t}{\r\n");
; 523  : //			fwrite(msg, 1, len, fp1);
; 524  : 		}

  0056f	e9 bc fd ff ff	 jmp	 $LN7@GeneratePS
$LN6@GeneratePS:

; 525  : 		len = sprintf(msg, "\t}}{{\r\n");

  00574	68 00 00 00 00	 push	 OFFSET ??_C@_07HPJKBJND@?7?$HN?$HN?$HL?$HL?$AN?6?$AA@
  00579	8d 85 9c fe ff
	ff		 lea	 eax, DWORD PTR _msg$[ebp]
  0057f	50		 push	 eax
  00580	e8 00 00 00 00	 call	 _sprintf
  00585	83 c4 08	 add	 esp, 8
  00588	89 85 90 fe ff
	ff		 mov	 DWORD PTR _len$[ebp], eax

; 526  : 		fwrite(msg, 1, len, fp1);

  0058e	8b 45 a4	 mov	 eax, DWORD PTR _fp1$[ebp]
  00591	50		 push	 eax
  00592	8b 8d 90 fe ff
	ff		 mov	 ecx, DWORD PTR _len$[ebp]
  00598	51		 push	 ecx
  00599	6a 01		 push	 1
  0059b	8d 95 9c fe ff
	ff		 lea	 edx, DWORD PTR _msg$[ebp]
  005a1	52		 push	 edx
  005a2	e8 00 00 00 00	 call	 _fwrite
  005a7	83 c4 10	 add	 esp, 16			; 00000010H

; 527  : 	}

  005aa	e9 65 fd ff ff	 jmp	 $LN10@GeneratePS
$LN9@GeneratePS:

; 528  : 
; 529  : 	len = sprintf(msg, "\t}}};\r\n");

  005af	68 00 00 00 00	 push	 OFFSET ??_C@_07GLMOLEEO@?7?$HN?$HN?$HN?$DL?$AN?6?$AA@
  005b4	8d 85 9c fe ff
	ff		 lea	 eax, DWORD PTR _msg$[ebp]
  005ba	50		 push	 eax
  005bb	e8 00 00 00 00	 call	 _sprintf
  005c0	83 c4 08	 add	 esp, 8
  005c3	89 85 90 fe ff
	ff		 mov	 DWORD PTR _len$[ebp], eax

; 530  : 	fwrite(msg, 1, len, fp1);

  005c9	8b 45 a4	 mov	 eax, DWORD PTR _fp1$[ebp]
  005cc	50		 push	 eax
  005cd	8b 8d 90 fe ff
	ff		 mov	 ecx, DWORD PTR _len$[ebp]
  005d3	51		 push	 ecx
  005d4	6a 01		 push	 1
  005d6	8d 95 9c fe ff
	ff		 lea	 edx, DWORD PTR _msg$[ebp]
  005dc	52		 push	 edx
  005dd	e8 00 00 00 00	 call	 _fwrite
  005e2	83 c4 10	 add	 esp, 16			; 00000010H

; 531  : /*
; 532  : 
; 533  : 	len = sprintf(msg, "\tshort intPSK200bdCarTemplate[9][4][120] = \r\n");
; 534  : 	fwrite(msg, 1, len, fp1);
; 535  : 
; 536  : 	len = sprintf(msg, "\t{{{\r\n");
; 537  : 	fwrite(msg, 1, len, fp1);
; 538  : 
; 539  : 	for (i = 0; i <= 8; i++)		// across 9 tones
; 540  : 	{
; 541  : 		for (j = 0; j <= 3; j++)	// ( using only half the values and sign compliment for the opposit phases) 
; 542  : 		{
; 543  : 			line = 0;
; 544  : 
; 545  : 			for (k = 0; k <= 71; k++) // for 120 samples (one 100 baud symbol, 200 baud modes will just use half of the data)
; 546  : 			{
; 547  : 				if ((k - line) == 8)
; 548  : 				{
; 549  : 					// ony 72, so print 9 to line
; 550  : 
; 551  : 					len = sprintf(msg, "\t%d, %d, %d, %d, %d, %d, %d, %d, %d,\n",
; 552  : 					intPSK200bdCarTemplate[i][j][line],
; 553  : 					intPSK200bdCarTemplate[i][j][line + 1],
; 554  : 					intPSK200bdCarTemplate[i][j][line + 2],
; 555  : 					intPSK200bdCarTemplate[i][j][line + 3],
; 556  : 					intPSK200bdCarTemplate[i][j][line + 4],
; 557  : 					intPSK200bdCarTemplate[i][j][line + 5],
; 558  : 					intPSK200bdCarTemplate[i][j][line + 6],
; 559  : 					intPSK200bdCarTemplate[i][j][line + 7],
; 560  : 					intPSK200bdCarTemplate[i][j][line + 8]);
; 561  : 
; 562  : 					line = k + 1;
; 563  : 
; 564  : 					if (k == 71)
; 565  : 					{
; 566  : 						len += sprintf(&msg[len-2], "},\r\n\t{");
; 567  : 						len -=2;
; 568  : 					}
; 569  : 					fwrite(msg, 1, len, fp1);
; 570  : 				}
; 571  : 			}
; 572  : //			len = sprintf(msg, "\t}{\r\n");
; 573  : //			fwrite(msg, 1, len, fp1);
; 574  : 		}
; 575  : 		len = sprintf(msg, "\t}}{{\r\n");
; 576  : 		fwrite(msg, 1, len, fp1);
; 577  : 	}
; 578  : 
; 579  : 	len = sprintf(msg, "\t}}};\r\n");
; 580  : 	fwrite(msg, 1, len, fp1);
; 581  : */
; 582  : 	fclose(fp1);

  005e5	8b 45 a4	 mov	 eax, DWORD PTR _fp1$[ebp]
  005e8	50		 push	 eax
  005e9	e8 00 00 00 00	 call	 _fclose
  005ee	83 c4 04	 add	 esp, 4

; 583  : 	
; 584  : }

  005f1	52		 push	 edx
  005f2	8b cd		 mov	 ecx, ebp
  005f4	50		 push	 eax
  005f5	8d 15 00 00 00
	00		 lea	 edx, DWORD PTR $LN35@GeneratePS
  005fb	e8 00 00 00 00	 call	 @_RTC_CheckStackVars@8
  00600	58		 pop	 eax
  00601	5a		 pop	 edx
  00602	5f		 pop	 edi
  00603	5e		 pop	 esi
  00604	5b		 pop	 ebx
  00605	8b 4d fc	 mov	 ecx, DWORD PTR __$ArrayPad$[ebp]
  00608	33 cd		 xor	 ecx, ebp
  0060a	e8 00 00 00 00	 call	 @__security_check_cookie@4
  0060f	81 c4 9c 02 00
	00		 add	 esp, 668		; 0000029cH
  00615	3b ec		 cmp	 ebp, esp
  00617	e8 00 00 00 00	 call	 __RTC_CheckEsp
  0061c	8b e5		 mov	 esp, ebp
  0061e	5d		 pop	 ebp
  0061f	c3		 ret	 0
$LN35@GeneratePS:
  00620	03 00 00 00	 DD	 3
  00624	00 00 00 00	 DD	 $LN34@GeneratePS
$LN34@GeneratePS:
  00628	b0 ff ff ff	 DD	 -80			; ffffffb0H
  0062c	24 00 00 00	 DD	 36			; 00000024H
  00630	00 00 00 00	 DD	 $LN31@GeneratePS
  00634	9c fe ff ff	 DD	 -356			; fffffe9cH
  00638	00 01 00 00	 DD	 256			; 00000100H
  0063c	00 00 00 00	 DD	 $LN32@GeneratePS
  00640	58 fe ff ff	 DD	 -424			; fffffe58H
  00644	24 00 00 00	 DD	 36			; 00000024H
  00648	00 00 00 00	 DD	 $LN33@GeneratePS
$LN33@GeneratePS:
  0064c	64		 DB	 100			; 00000064H
  0064d	62		 DB	 98			; 00000062H
  0064e	6c		 DB	 108			; 0000006cH
  0064f	43		 DB	 67			; 00000043H
  00650	61		 DB	 97			; 00000061H
  00651	72		 DB	 114			; 00000072H
  00652	50		 DB	 80			; 00000050H
  00653	68		 DB	 104			; 00000068H
  00654	61		 DB	 97			; 00000061H
  00655	73		 DB	 115			; 00000073H
  00656	65		 DB	 101			; 00000065H
  00657	49		 DB	 73			; 00000049H
  00658	6e		 DB	 110			; 0000006eH
  00659	63		 DB	 99			; 00000063H
  0065a	00		 DB	 0
$LN32@GeneratePS:
  0065b	6d		 DB	 109			; 0000006dH
  0065c	73		 DB	 115			; 00000073H
  0065d	67		 DB	 103			; 00000067H
  0065e	00		 DB	 0
$LN31@GeneratePS:
  0065f	64		 DB	 100			; 00000064H
  00660	62		 DB	 98			; 00000062H
  00661	6c		 DB	 108			; 0000006cH
  00662	43		 DB	 67			; 00000043H
  00663	61		 DB	 97			; 00000061H
  00664	72		 DB	 114			; 00000072H
  00665	46		 DB	 70			; 00000046H
  00666	72		 DB	 114			; 00000072H
  00667	65		 DB	 101			; 00000065H
  00668	71		 DB	 113			; 00000071H
  00669	00		 DB	 0
_GeneratePSKTemplates ENDP
_TEXT	ENDS
END
