; Listing generated by Microsoft (R) Optimizing Compiler Version 14.00.50727.42 

	TITLE	c:\SkyDrive\Dev\Source\ARDOPC\galois.c
	.686P
	.XMM
	include listing.inc
	.model	flat

INCLUDELIB LIBCMTD
INCLUDELIB OLDNAMES

_DATA	SEGMENT
COMM	_glog:DWORD:0100H
COMM	_gexp:DWORD:0200H
_DATA	ENDS
PUBLIC	_init_galois_tables
EXTRN	__RTC_CheckEsp:PROC
EXTRN	__RTC_Shutdown:PROC
EXTRN	__RTC_InitBase:PROC
;	COMDAT rtc$TMZ
; File c:\skydrive\dev\source\ardopc\galois.c
rtc$TMZ	SEGMENT
__RTC_Shutdown.rtc$TMZ DD FLAT:__RTC_Shutdown
rtc$TMZ	ENDS
;	COMDAT rtc$IMZ
rtc$IMZ	SEGMENT
__RTC_InitBase.rtc$IMZ DD FLAT:__RTC_InitBase
; Function compile flags: /Odtp /RTCsu /ZI
rtc$IMZ	ENDS
;	COMDAT _init_galois_tables
_TEXT	SEGMENT
_init_galois_tables PROC				; COMDAT

; 54   : {	

  00000	55		 push	 ebp
  00001	8b ec		 mov	 ebp, esp
  00003	81 ec c0 00 00
	00		 sub	 esp, 192		; 000000c0H
  00009	53		 push	 ebx
  0000a	56		 push	 esi
  0000b	57		 push	 edi
  0000c	8d bd 40 ff ff
	ff		 lea	 edi, DWORD PTR [ebp-192]
  00012	b9 30 00 00 00	 mov	 ecx, 48			; 00000030H
  00017	b8 cc cc cc cc	 mov	 eax, -858993460		; ccccccccH
  0001c	f3 ab		 rep stosd

; 55   :   /* initialize the table of powers of alpha */
; 56   :   init_exp_table();

  0001e	e8 00 00 00 00	 call	 _init_exp_table

; 57   : }

  00023	5f		 pop	 edi
  00024	5e		 pop	 esi
  00025	5b		 pop	 ebx
  00026	81 c4 c0 00 00
	00		 add	 esp, 192		; 000000c0H
  0002c	3b ec		 cmp	 ebp, esp
  0002e	e8 00 00 00 00	 call	 __RTC_CheckEsp
  00033	8b e5		 mov	 esp, ebp
  00035	5d		 pop	 ebp
  00036	c3		 ret	 0
_init_galois_tables ENDP
; Function compile flags: /Odtp /RTCsu /ZI
_TEXT	ENDS
;	COMDAT _init_exp_table
_TEXT	SEGMENT
_p8$ = -128						; size = 4
_p7$ = -116						; size = 4
_p6$ = -104						; size = 4
_p5$ = -92						; size = 4
_p4$ = -80						; size = 4
_p3$ = -68						; size = 4
_p2$ = -56						; size = 4
_p1$ = -44						; size = 4
_pinit$ = -32						; size = 4
_z$ = -20						; size = 4
_i$ = -8						; size = 4
_init_exp_table PROC					; COMDAT

; 62   : {

  00000	55		 push	 ebp
  00001	8b ec		 mov	 ebp, esp
  00003	81 ec 44 01 00
	00		 sub	 esp, 324		; 00000144H
  00009	53		 push	 ebx
  0000a	56		 push	 esi
  0000b	57		 push	 edi
  0000c	8d bd bc fe ff
	ff		 lea	 edi, DWORD PTR [ebp-324]
  00012	b9 51 00 00 00	 mov	 ecx, 81			; 00000051H
  00017	b8 cc cc cc cc	 mov	 eax, -858993460		; ccccccccH
  0001c	f3 ab		 rep stosd

; 63   :   int i, z;
; 64   :   int pinit,p1,p2,p3,p4,p5,p6,p7,p8;
; 65   : 
; 66   :   pinit = p2 = p3 = p4 = p5 = p6 = p7 = p8 = 0;

  0001e	c7 45 80 00 00
	00 00		 mov	 DWORD PTR _p8$[ebp], 0
  00025	8b 45 80	 mov	 eax, DWORD PTR _p8$[ebp]
  00028	89 45 8c	 mov	 DWORD PTR _p7$[ebp], eax
  0002b	8b 4d 8c	 mov	 ecx, DWORD PTR _p7$[ebp]
  0002e	89 4d 98	 mov	 DWORD PTR _p6$[ebp], ecx
  00031	8b 55 98	 mov	 edx, DWORD PTR _p6$[ebp]
  00034	89 55 a4	 mov	 DWORD PTR _p5$[ebp], edx
  00037	8b 45 a4	 mov	 eax, DWORD PTR _p5$[ebp]
  0003a	89 45 b0	 mov	 DWORD PTR _p4$[ebp], eax
  0003d	8b 4d b0	 mov	 ecx, DWORD PTR _p4$[ebp]
  00040	89 4d bc	 mov	 DWORD PTR _p3$[ebp], ecx
  00043	8b 55 bc	 mov	 edx, DWORD PTR _p3$[ebp]
  00046	89 55 c8	 mov	 DWORD PTR _p2$[ebp], edx
  00049	8b 45 c8	 mov	 eax, DWORD PTR _p2$[ebp]
  0004c	89 45 e0	 mov	 DWORD PTR _pinit$[ebp], eax

; 67   :   p1 = 1;

  0004f	c7 45 d4 01 00
	00 00		 mov	 DWORD PTR _p1$[ebp], 1

; 68   : 	
; 69   :   gexp[0] = 1;

  00056	c7 05 00 00 00
	00 01 00 00 00	 mov	 DWORD PTR _gexp, 1

; 70   :   gexp[255] = gexp[0];

  00060	a1 00 00 00 00	 mov	 eax, DWORD PTR _gexp
  00065	a3 fc 03 00 00	 mov	 DWORD PTR _gexp+1020, eax

; 71   :   glog[0] = 0;			/* shouldn't log[0] be an error? */

  0006a	c7 05 00 00 00
	00 00 00 00 00	 mov	 DWORD PTR _glog, 0

; 72   : 	
; 73   : // Private pp8() As Integer = {1, 0, 1, 1, 1, 0, 0, 0, 1} 'specify irreducible polynomial coeffts */
; 74   : 
; 75   :   for (i = 1; i < 256; i++) {

  00074	c7 45 f8 01 00
	00 00		 mov	 DWORD PTR _i$[ebp], 1
  0007b	eb 09		 jmp	 SHORT $LN10@init_exp_t
$LN9@init_exp_t:
  0007d	8b 45 f8	 mov	 eax, DWORD PTR _i$[ebp]
  00080	83 c0 01	 add	 eax, 1
  00083	89 45 f8	 mov	 DWORD PTR _i$[ebp], eax
$LN10@init_exp_t:
  00086	81 7d f8 00 01
	00 00		 cmp	 DWORD PTR _i$[ebp], 256	; 00000100H
  0008d	0f 8d 97 00 00
	00		 jge	 $LN8@init_exp_t

; 76   :     pinit = p8;

  00093	8b 45 80	 mov	 eax, DWORD PTR _p8$[ebp]
  00096	89 45 e0	 mov	 DWORD PTR _pinit$[ebp], eax

; 77   :     p8 = p7;

  00099	8b 45 8c	 mov	 eax, DWORD PTR _p7$[ebp]
  0009c	89 45 80	 mov	 DWORD PTR _p8$[ebp], eax

; 78   :     p7 = p6;

  0009f	8b 45 98	 mov	 eax, DWORD PTR _p6$[ebp]
  000a2	89 45 8c	 mov	 DWORD PTR _p7$[ebp], eax

; 79   :     p6 = p5;

  000a5	8b 45 a4	 mov	 eax, DWORD PTR _p5$[ebp]
  000a8	89 45 98	 mov	 DWORD PTR _p6$[ebp], eax

; 80   :     p5 = p4 ^ pinit;

  000ab	8b 45 b0	 mov	 eax, DWORD PTR _p4$[ebp]
  000ae	33 45 e0	 xor	 eax, DWORD PTR _pinit$[ebp]
  000b1	89 45 a4	 mov	 DWORD PTR _p5$[ebp], eax

; 81   :     p4 = p3 ^ pinit;

  000b4	8b 45 bc	 mov	 eax, DWORD PTR _p3$[ebp]
  000b7	33 45 e0	 xor	 eax, DWORD PTR _pinit$[ebp]
  000ba	89 45 b0	 mov	 DWORD PTR _p4$[ebp], eax

; 82   :     p3 = p2 ^ pinit;

  000bd	8b 45 c8	 mov	 eax, DWORD PTR _p2$[ebp]
  000c0	33 45 e0	 xor	 eax, DWORD PTR _pinit$[ebp]
  000c3	89 45 bc	 mov	 DWORD PTR _p3$[ebp], eax

; 83   :     p2 = p1;

  000c6	8b 45 d4	 mov	 eax, DWORD PTR _p1$[ebp]
  000c9	89 45 c8	 mov	 DWORD PTR _p2$[ebp], eax

; 84   :     p1 = pinit;

  000cc	8b 45 e0	 mov	 eax, DWORD PTR _pinit$[ebp]
  000cf	89 45 d4	 mov	 DWORD PTR _p1$[ebp], eax

; 85   :     gexp[i] = p1 + p2*2 + p3*4 + p4*8 + p5*16 + p6*32 + p7*64 + p8*128;

  000d2	8b 45 c8	 mov	 eax, DWORD PTR _p2$[ebp]
  000d5	8b 4d d4	 mov	 ecx, DWORD PTR _p1$[ebp]
  000d8	8d 14 41	 lea	 edx, DWORD PTR [ecx+eax*2]
  000db	8b 45 bc	 mov	 eax, DWORD PTR _p3$[ebp]
  000de	8d 0c 82	 lea	 ecx, DWORD PTR [edx+eax*4]
  000e1	8b 55 b0	 mov	 edx, DWORD PTR _p4$[ebp]
  000e4	8d 04 d1	 lea	 eax, DWORD PTR [ecx+edx*8]
  000e7	8b 4d a4	 mov	 ecx, DWORD PTR _p5$[ebp]
  000ea	c1 e1 04	 shl	 ecx, 4
  000ed	03 c1		 add	 eax, ecx
  000ef	8b 55 98	 mov	 edx, DWORD PTR _p6$[ebp]
  000f2	c1 e2 05	 shl	 edx, 5
  000f5	03 c2		 add	 eax, edx
  000f7	8b 4d 8c	 mov	 ecx, DWORD PTR _p7$[ebp]
  000fa	c1 e1 06	 shl	 ecx, 6
  000fd	03 c1		 add	 eax, ecx
  000ff	8b 55 80	 mov	 edx, DWORD PTR _p8$[ebp]
  00102	c1 e2 07	 shl	 edx, 7
  00105	03 c2		 add	 eax, edx
  00107	8b 4d f8	 mov	 ecx, DWORD PTR _i$[ebp]
  0010a	89 04 8d 00 00
	00 00		 mov	 DWORD PTR _gexp[ecx*4], eax

; 86   :     gexp[i+255] = gexp[i];

  00111	8b 45 f8	 mov	 eax, DWORD PTR _i$[ebp]
  00114	8b 4d f8	 mov	 ecx, DWORD PTR _i$[ebp]
  00117	8b 14 8d 00 00
	00 00		 mov	 edx, DWORD PTR _gexp[ecx*4]
  0011e	89 14 85 fc 03
	00 00		 mov	 DWORD PTR _gexp[eax*4+1020], edx

; 87   :   }

  00125	e9 53 ff ff ff	 jmp	 $LN9@init_exp_t
$LN8@init_exp_t:

; 88   : 	
; 89   :   for (i = 1; i < 256; i++) {

  0012a	c7 45 f8 01 00
	00 00		 mov	 DWORD PTR _i$[ebp], 1
  00131	eb 09		 jmp	 SHORT $LN7@init_exp_t
$LN6@init_exp_t:
  00133	8b 45 f8	 mov	 eax, DWORD PTR _i$[ebp]
  00136	83 c0 01	 add	 eax, 1
  00139	89 45 f8	 mov	 DWORD PTR _i$[ebp], eax
$LN7@init_exp_t:
  0013c	81 7d f8 00 01
	00 00		 cmp	 DWORD PTR _i$[ebp], 256	; 00000100H
  00143	7d 3d		 jge	 SHORT $LN11@init_exp_t

; 90   :     for (z = 0; z < 256; z++) {

  00145	c7 45 ec 00 00
	00 00		 mov	 DWORD PTR _z$[ebp], 0
  0014c	eb 09		 jmp	 SHORT $LN4@init_exp_t
$LN3@init_exp_t:
  0014e	8b 45 ec	 mov	 eax, DWORD PTR _z$[ebp]
  00151	83 c0 01	 add	 eax, 1
  00154	89 45 ec	 mov	 DWORD PTR _z$[ebp], eax
$LN4@init_exp_t:
  00157	81 7d ec 00 01
	00 00		 cmp	 DWORD PTR _z$[ebp], 256	; 00000100H
  0015e	7d 20		 jge	 SHORT $LN2@init_exp_t

; 91   :       if (gexp[z] == i) {

  00160	8b 45 ec	 mov	 eax, DWORD PTR _z$[ebp]
  00163	8b 0c 85 00 00
	00 00		 mov	 ecx, DWORD PTR _gexp[eax*4]
  0016a	3b 4d f8	 cmp	 ecx, DWORD PTR _i$[ebp]
  0016d	75 0f		 jne	 SHORT $LN1@init_exp_t

; 92   : 	glog[i] = z;

  0016f	8b 45 f8	 mov	 eax, DWORD PTR _i$[ebp]
  00172	8b 4d ec	 mov	 ecx, DWORD PTR _z$[ebp]
  00175	89 0c 85 00 00
	00 00		 mov	 DWORD PTR _glog[eax*4], ecx

; 93   : 	break;

  0017c	eb 02		 jmp	 SHORT $LN2@init_exp_t
$LN1@init_exp_t:

; 94   :       }
; 95   :     }

  0017e	eb ce		 jmp	 SHORT $LN3@init_exp_t
$LN2@init_exp_t:

; 96   :   }

  00180	eb b1		 jmp	 SHORT $LN6@init_exp_t
$LN11@init_exp_t:

; 97   : }

  00182	5f		 pop	 edi
  00183	5e		 pop	 esi
  00184	5b		 pop	 ebx
  00185	8b e5		 mov	 esp, ebp
  00187	5d		 pop	 ebp
  00188	c3		 ret	 0
_init_exp_table ENDP
_TEXT	ENDS
PUBLIC	_gmult
; Function compile flags: /Odtp /RTCsu /ZI
;	COMDAT _gmult
_TEXT	SEGMENT
_j$ = -20						; size = 4
_i$ = -8						; size = 4
_a$ = 8							; size = 4
_b$ = 12						; size = 4
_gmult	PROC						; COMDAT

; 101  : {

  00000	55		 push	 ebp
  00001	8b ec		 mov	 ebp, esp
  00003	81 ec d8 00 00
	00		 sub	 esp, 216		; 000000d8H
  00009	53		 push	 ebx
  0000a	56		 push	 esi
  0000b	57		 push	 edi
  0000c	8d bd 28 ff ff
	ff		 lea	 edi, DWORD PTR [ebp-216]
  00012	b9 36 00 00 00	 mov	 ecx, 54			; 00000036H
  00017	b8 cc cc cc cc	 mov	 eax, -858993460		; ccccccccH
  0001c	f3 ab		 rep stosd

; 102  :   int i,j;
; 103  :   if (a==0 || b == 0) return (0);

  0001e	83 7d 08 00	 cmp	 DWORD PTR _a$[ebp], 0
  00022	74 06		 je	 SHORT $LN1@gmult
  00024	83 7d 0c 00	 cmp	 DWORD PTR _b$[ebp], 0
  00028	75 04		 jne	 SHORT $LN2@gmult
$LN1@gmult:
  0002a	33 c0		 xor	 eax, eax
  0002c	eb 27		 jmp	 SHORT $LN3@gmult
$LN2@gmult:

; 104  :   i = glog[a];

  0002e	8b 45 08	 mov	 eax, DWORD PTR _a$[ebp]
  00031	8b 0c 85 00 00
	00 00		 mov	 ecx, DWORD PTR _glog[eax*4]
  00038	89 4d f8	 mov	 DWORD PTR _i$[ebp], ecx

; 105  :   j = glog[b];

  0003b	8b 45 0c	 mov	 eax, DWORD PTR _b$[ebp]
  0003e	8b 0c 85 00 00
	00 00		 mov	 ecx, DWORD PTR _glog[eax*4]
  00045	89 4d ec	 mov	 DWORD PTR _j$[ebp], ecx

; 106  :   return (gexp[i+j]);

  00048	8b 45 f8	 mov	 eax, DWORD PTR _i$[ebp]
  0004b	03 45 ec	 add	 eax, DWORD PTR _j$[ebp]
  0004e	8b 04 85 00 00
	00 00		 mov	 eax, DWORD PTR _gexp[eax*4]
$LN3@gmult:

; 107  : }

  00055	5f		 pop	 edi
  00056	5e		 pop	 esi
  00057	5b		 pop	 ebx
  00058	8b e5		 mov	 esp, ebp
  0005a	5d		 pop	 ebp
  0005b	c3		 ret	 0
_gmult	ENDP
_TEXT	ENDS
PUBLIC	_ginv
; Function compile flags: /Odtp /RTCsu /ZI
;	COMDAT _ginv
_TEXT	SEGMENT
_elt$ = 8						; size = 4
_ginv	PROC						; COMDAT

; 111  : { 

  00000	55		 push	 ebp
  00001	8b ec		 mov	 ebp, esp
  00003	81 ec c0 00 00
	00		 sub	 esp, 192		; 000000c0H
  00009	53		 push	 ebx
  0000a	56		 push	 esi
  0000b	57		 push	 edi
  0000c	8d bd 40 ff ff
	ff		 lea	 edi, DWORD PTR [ebp-192]
  00012	b9 30 00 00 00	 mov	 ecx, 48			; 00000030H
  00017	b8 cc cc cc cc	 mov	 eax, -858993460		; ccccccccH
  0001c	f3 ab		 rep stosd

; 112  :   return (gexp[255-glog[elt]]);

  0001e	8b 45 08	 mov	 eax, DWORD PTR _elt$[ebp]
  00021	b9 ff 00 00 00	 mov	 ecx, 255		; 000000ffH
  00026	2b 0c 85 00 00
	00 00		 sub	 ecx, DWORD PTR _glog[eax*4]
  0002d	8b 04 8d 00 00
	00 00		 mov	 eax, DWORD PTR _gexp[ecx*4]

; 113  : }

  00034	5f		 pop	 edi
  00035	5e		 pop	 esi
  00036	5b		 pop	 ebx
  00037	8b e5		 mov	 esp, ebp
  00039	5d		 pop	 ebp
  0003a	c3		 ret	 0
_ginv	ENDP
_TEXT	ENDS
END
