; Listing generated by Microsoft (R) Optimizing Compiler Version 14.00.50727.42 

	TITLE	c:\SkyDrive\Dev\Source\ARDOPC\HostInterface.c
	.686P
	.XMM
	include listing.inc
	.model	flat

INCLUDELIB LIBCMTD
INCLUDELIB OLDNAMES

PUBLIC	_blnHostRDY
_DATA	SEGMENT
COMM	_hPTTDevice:DWORD
_DATA	ENDS
_BSS	SEGMENT
_blnHostRDY DD	01H DUP (?)
_BSS	ENDS
PUBLIC	??_C@_09PELFENOG@BUFFER?5?$CFd?$AA@		; `string'
PUBLIC	__$ArrayPad$
PUBLIC	_AddDataToDataToSend
EXTRN	_QueueCommandToHost:PROC
EXTRN	_sprintf:PROC
EXTRN	_FreeSemaphore:PROC
EXTRN	_memcpy:PROC
EXTRN	_bytDataToSend:BYTE
EXTRN	_bytDataToSendLength:DWORD
EXTRN	_GetSemaphore:PROC
EXTRN	___security_cookie:DWORD
EXTRN	__RTC_CheckEsp:PROC
EXTRN	@__security_check_cookie@4:PROC
EXTRN	@_RTC_CheckStackVars@8:PROC
EXTRN	__RTC_Shutdown:PROC
EXTRN	__RTC_InitBase:PROC
;	COMDAT ??_C@_09PELFENOG@BUFFER?5?$CFd?$AA@
; File c:\skydrive\dev\source\ardopc\hostinterface.c
CONST	SEGMENT
??_C@_09PELFENOG@BUFFER?5?$CFd?$AA@ DB 'BUFFER %d', 00H	; `string'
CONST	ENDS
;	COMDAT rtc$TMZ
rtc$TMZ	SEGMENT
__RTC_Shutdown.rtc$TMZ DD FLAT:__RTC_Shutdown
rtc$TMZ	ENDS
;	COMDAT rtc$IMZ
rtc$IMZ	SEGMENT
__RTC_InitBase.rtc$IMZ DD FLAT:__RTC_InitBase
; Function compile flags: /Odtp /RTCsu /ZI
rtc$IMZ	ENDS
;	COMDAT _AddDataToDataToSend
_TEXT	SEGMENT
_HostCmd$ = -40						; size = 32
__$ArrayPad$ = -4					; size = 4
_bytNewData$ = 8					; size = 4
_Len$ = 12						; size = 4
_AddDataToDataToSend PROC				; COMDAT

; 76   : {

  00000	55		 push	 ebp
  00001	8b ec		 mov	 ebp, esp
  00003	81 ec ec 00 00
	00		 sub	 esp, 236		; 000000ecH
  00009	53		 push	 ebx
  0000a	56		 push	 esi
  0000b	57		 push	 edi
  0000c	8d bd 14 ff ff
	ff		 lea	 edi, DWORD PTR [ebp-236]
  00012	b9 3b 00 00 00	 mov	 ecx, 59			; 0000003bH
  00017	b8 cc cc cc cc	 mov	 eax, -858993460		; ccccccccH
  0001c	f3 ab		 rep stosd
  0001e	a1 00 00 00 00	 mov	 eax, DWORD PTR ___security_cookie
  00023	33 c5		 xor	 eax, ebp
  00025	89 45 fc	 mov	 DWORD PTR __$ArrayPad$[ebp], eax

; 77   : 	char HostCmd[32];
; 78   : 
; 79   : 	if (Len == 0)

  00028	83 7d 0c 00	 cmp	 DWORD PTR _Len$[ebp], 0
  0002c	75 02		 jne	 SHORT $LN2@AddDataToD

; 80   : 		return;

  0002e	eb 65		 jmp	 SHORT $LN3@AddDataToD
$LN2@AddDataToD:

; 81   : 
; 82   : 	GetSemaphore();

  00030	e8 00 00 00 00	 call	 _GetSemaphore

; 83   : 
; 84   : 	memcpy(&bytDataToSend[bytDataToSendLength], bytNewData, Len);

  00035	8b 45 0c	 mov	 eax, DWORD PTR _Len$[ebp]
  00038	50		 push	 eax
  00039	8b 4d 08	 mov	 ecx, DWORD PTR _bytNewData$[ebp]
  0003c	51		 push	 ecx
  0003d	8b 15 00 00 00
	00		 mov	 edx, DWORD PTR _bytDataToSendLength
  00043	81 c2 00 00 00
	00		 add	 edx, OFFSET _bytDataToSend
  00049	52		 push	 edx
  0004a	e8 00 00 00 00	 call	 _memcpy
  0004f	83 c4 0c	 add	 esp, 12			; 0000000cH

; 85   : 	bytDataToSendLength += Len;

  00052	a1 00 00 00 00	 mov	 eax, DWORD PTR _bytDataToSendLength
  00057	03 45 0c	 add	 eax, DWORD PTR _Len$[ebp]
  0005a	a3 00 00 00 00	 mov	 DWORD PTR _bytDataToSendLength, eax

; 86   : 
; 87   : 	if (bytDataToSendLength > 4096)

  0005f	81 3d 00 00 00
	00 00 10 00 00	 cmp	 DWORD PTR _bytDataToSendLength, 4096 ; 00001000H
  00069	7e 02		 jle	 SHORT $LN1@AddDataToD

; 88   : 		return;

  0006b	eb 28		 jmp	 SHORT $LN3@AddDataToD
$LN1@AddDataToD:

; 89   : 
; 90   : 	FreeSemaphore();

  0006d	e8 00 00 00 00	 call	 _FreeSemaphore

; 91   : 
; 92   : #ifdef TEENSY
; 93   : 	SetLED(TRAFFICLED, TRUE);
; 94   : #endif
; 95   : 	sprintf(HostCmd, "BUFFER %d", bytDataToSendLength);

  00072	a1 00 00 00 00	 mov	 eax, DWORD PTR _bytDataToSendLength
  00077	50		 push	 eax
  00078	68 00 00 00 00	 push	 OFFSET ??_C@_09PELFENOG@BUFFER?5?$CFd?$AA@
  0007d	8d 4d d8	 lea	 ecx, DWORD PTR _HostCmd$[ebp]
  00080	51		 push	 ecx
  00081	e8 00 00 00 00	 call	 _sprintf
  00086	83 c4 0c	 add	 esp, 12			; 0000000cH

; 96   : 	QueueCommandToHost(HostCmd);

  00089	8d 45 d8	 lea	 eax, DWORD PTR _HostCmd$[ebp]
  0008c	50		 push	 eax
  0008d	e8 00 00 00 00	 call	 _QueueCommandToHost
  00092	83 c4 04	 add	 esp, 4
$LN3@AddDataToD:

; 97   : }

  00095	52		 push	 edx
  00096	8b cd		 mov	 ecx, ebp
  00098	50		 push	 eax
  00099	8d 15 00 00 00
	00		 lea	 edx, DWORD PTR $LN7@AddDataToD
  0009f	e8 00 00 00 00	 call	 @_RTC_CheckStackVars@8
  000a4	58		 pop	 eax
  000a5	5a		 pop	 edx
  000a6	5f		 pop	 edi
  000a7	5e		 pop	 esi
  000a8	5b		 pop	 ebx
  000a9	8b 4d fc	 mov	 ecx, DWORD PTR __$ArrayPad$[ebp]
  000ac	33 cd		 xor	 ecx, ebp
  000ae	e8 00 00 00 00	 call	 @__security_check_cookie@4
  000b3	81 c4 ec 00 00
	00		 add	 esp, 236		; 000000ecH
  000b9	3b ec		 cmp	 ebp, esp
  000bb	e8 00 00 00 00	 call	 __RTC_CheckEsp
  000c0	8b e5		 mov	 esp, ebp
  000c2	5d		 pop	 ebp
  000c3	c3		 ret	 0
$LN7@AddDataToD:
  000c4	01 00 00 00	 DD	 1
  000c8	00 00 00 00	 DD	 $LN6@AddDataToD
$LN6@AddDataToD:
  000cc	d8 ff ff ff	 DD	 -40			; ffffffd8H
  000d0	20 00 00 00	 DD	 32			; 00000020H
  000d4	00 00 00 00	 DD	 $LN5@AddDataToD
$LN5@AddDataToD:
  000d8	48		 DB	 72			; 00000048H
  000d9	6f		 DB	 111			; 0000006fH
  000da	73		 DB	 115			; 00000073H
  000db	74		 DB	 116			; 00000074H
  000dc	43		 DB	 67			; 00000043H
  000dd	6d		 DB	 109			; 0000006dH
  000de	64		 DB	 100			; 00000064H
  000df	00		 DB	 0
_AddDataToDataToSend ENDP
_TEXT	ENDS
PUBLIC	??_C@_08PALDHKD@FAULT?5?$CFs?$AA@		; `string'
PUBLIC	??_C@_0BE@LJDNACNJ@CMD?5not?5recoginized?$AA@	; `string'
PUBLIC	??_C@_0O@LAPEONLC@VERSION?5?$CFs_?$CFs?$AA@	; `string'
PUBLIC	??_C@_09GENFIGK@ARDOP?5TNC?$AA@			; `string'
PUBLIC	??_C@_0M@NIMIDGCH@0?49?40?44?9BPQ?$AA@		; `string'
PUBLIC	??_C@_07NCHCCDCP@VERSION?$AA@			; `string'
PUBLIC	??_C@_0BG@GAHDKKDB@USE600MODES?5now?5FALSE?$AA@	; `string'
PUBLIC	??_C@_0BF@JCHBEADL@USE600MODES?5now?5TRUE?$AA@	; `string'
PUBLIC	??_C@_0BC@JFPAAOMM@USE600MODES?5FALSE?$AA@	; `string'
PUBLIC	??_C@_0BB@BOBBOKGM@USE600MODES?5TRUE?$AA@	; `string'
PUBLIC	??_C@_0M@FDGMHEMG@USE600MODES?$AA@		; `string'
PUBLIC	??_C@_0CP@MKMIBGHE@TXLEVEL?5command?5not?5available?5on@ ; `string'
PUBLIC	??_C@_07HHPJHIAI@TXLEVEL?$AA@			; `string'
PUBLIC	??_C@_0M@FKICOHOM@TUNINGRANGE?$AA@		; `string'
PUBLIC	??_C@_0BC@LKOPEAIH@Not?5from?5state?5?$CFs?$AA@	; `string'
PUBLIC	??_C@_0M@MALFFABE@TWOTONETEST?$AA@		; `string'
PUBLIC	??_C@_07EBACFBLN@TRAILER?$AA@			; `string'
PUBLIC	??_C@_05MMKHEPHK@STATE?$AA@			; `string'
PUBLIC	??_C@_07JDDIGJNM@SQUELCH?$AA@			; `string'
PUBLIC	??_C@_0BF@JDGJIECB@NO2000?4167?5now?5FALSE?$AA@	; `string'
PUBLIC	??_C@_0BE@DBCOBICJ@NO2000?4167?5now?5TRUE?$AA@	; `string'
PUBLIC	??_C@_0BB@JGKAEOOM@NO2000?4167?5FALSE?$AA@	; `string'
PUBLIC	??_C@_0BA@PILDMGOO@NO2000?4167?5TRUE?$AA@	; `string'
PUBLIC	??_C@_0L@NAGDAOLG@NO2000?4167?$AA@		; `string'
PUBLIC	??_C@_0BC@DIBOMCCE@Not?5from?5State?5?$CFs?$AA@	; `string'
PUBLIC	??_C@_06DHNAFNHI@SENDID?$AA@			; `string'
PUBLIC	??_C@_0CP@GGKPCLGL@RXLEVEL?5command?5not?5available?5on@ ; `string'
PUBLIC	??_C@_07LBJGHBIP@RXLEVEL?$AA@			; `string'
PUBLIC	??_C@_0CD@IFEEGFBI@RADIOPTTGPIO?5now?5ENABLED?5on?5pin?5@ ; `string'
PUBLIC	??_C@_0BK@JEJMOABI@RADIOPTTGPIO?5now?5DISABLED?$AA@ ; `string'
PUBLIC	??_C@_0BP@CCAIIMNG@RADIOPTTGPIO?5ENABLED?5on?5pin?5?$CFd?$AA@ ; `string'
PUBLIC	??_C@_0BG@HPMLLGIP@RADIOPTTGPIO?5DISABLED?$AA@	; `string'
PUBLIC	??_C@_0CK@CAMMMBMA@PTT?5via?5GPIO?5not?5available?5on?5th@ ; `string'
PUBLIC	??_C@_0N@LFJFAPE@RADIOPTTGPIO?$AA@		; `string'
PUBLIC	??_C@_0BA@OCLBAMMC@RADIOPTT?5now?5?$CFs?$AA@	; `string'
PUBLIC	??_C@_0BL@EDEJGDHF@Could?8n?5open?5PTT?5device?5?$CFs?$AA@ ; `string'
PUBLIC	??_C@_0BN@HAJDAIGK@Using?5RTS?5on?5port?5?$CFs?5for?5PTT?$AA@ ; `string'
PUBLIC	??_C@_0M@LFIODCLG@RADIOPTT?5?$CFs?$AA@		; `string'
PUBLIC	??_C@_08JMLKJEBK@RADIOPTT?$AA@			; `string'
PUBLIC	??_C@_0M@MPBAMBCJ@PURGEBUFFER?$AA@		; `string'
PUBLIC	??_C@_0BF@LOPEGGNB@PROTOCOLMODE?5now?5FEC?$AA@	; `string'
PUBLIC	??_C@_0BF@ECLOJLEO@PROTOCOLMODE?5now?5ARQ?$AA@	; `string'
PUBLIC	??_C@_03MNMBHEOP@FEC?$AA@			; `string'
PUBLIC	??_C@_03DBILIJHA@ARQ?$AA@			; `string'
PUBLIC	??_C@_0BB@GNBGENJP@PROTOCOLMODE?5FEC?$AA@	; `string'
PUBLIC	??_C@_0BB@JBFMLAAA@PROTOCOLMODE?5ARQ?$AA@	; `string'
PUBLIC	??_C@_0N@CJGHANBE@PROTOCOLMODE?$AA@		; `string'
PUBLIC	??_C@_0BA@LONILKAE@PLAYBACKDEVICES?$AA@		; `string'
PUBLIC	??_C@_08LMKBMLFB@PLAYBACK?$AA@			; `string'
PUBLIC	??_C@_06HFHJAEGL@MYCALL?$AA@			; `string'
PUBLIC	??_C@_0L@IOGBILHH@MYAUX?5now?5?$AA@		; `string'
PUBLIC	??_C@_02KEGNLNML@?0?5?$AA@			; `string'
PUBLIC	??_C@_03CGNBMCEI@?$CFs?0?$AA@			; `string'
PUBLIC	??_C@_02DKCKIIND@?$CFs?$AA@			; `string'
PUBLIC	??_C@_06CKFLIME@MYAUX?5?$AA@			; `string'
PUBLIC	??_C@_05PDEFOOAL@MYAUX?$AA@			; `string'
PUBLIC	??_C@_0BC@KBINHBAA@MONITOR?5now?5FALSE?$AA@	; `string'
PUBLIC	??_C@_0BB@NLHNKAF@MONITOR?5now?5TRUE?$AA@	; `string'
PUBLIC	??_C@_0O@NBGDHFOP@MONITOR?5FALSE?$AA@		; `string'
PUBLIC	??_C@_0N@IJEHLKAA@MONITOR?5TRUE?$AA@		; `string'
PUBLIC	??_C@_07ENJDMOMA@MONITOR?$AA@			; `string'
PUBLIC	??_C@_0BB@PIBMHHII@LISTEN?5now?5FALSE?$AA@	; `string'
PUBLIC	??_C@_0BA@CPIMEFHJ@LISTEN?5now?5TRUE?$AA@	; `string'
PUBLIC	??_C@_0N@MCNOHKPE@LISTEN?5FALSE?$AA@		; `string'
PUBLIC	??_C@_0M@FINAPHBI@LISTEN?5TRUE?$AA@		; `string'
PUBLIC	??_C@_06OKBIGEGG@LISTEN?$AA@			; `string'
PUBLIC	??_C@_06DBJEGKDN@LEADER?$AA@			; `string'
PUBLIC	??_C@_0L@JIPOENLA@INITIALIZE?$AA@		; `string'
PUBLIC	??_C@_0L@ONIOHLEE@GRIDSQUARE?$AA@		; `string'
PUBLIC	??_C@_0BC@POGNNEJB@FSKONLY?5now?5FALSE?$AA@	; `string'
PUBLIC	??_C@_0BB@OIJKEDDM@FSKONLY?5now?5TRUE?$AA@	; `string'
PUBLIC	??_C@_0O@JEJLNNMC@FSKONLY?5FALSE?$AA@		; `string'
PUBLIC	??_C@_0N@KOLDOCCN@FSKONLY?5TRUE?$AA@		; `string'
PUBLIC	??_C@_07LBBMJAFG@FSKONLY?$AA@			; `string'
PUBLIC	??_C@_0BC@IBFPDBLE@FECSEND?5now?5FALSE?$AA@	; `string'
PUBLIC	??_C@_0BB@LAHCNNHA@FECSEND?5now?5TRUE?$AA@	; `string'
PUBLIC	??_C@_07NHLIPODP@FECSEND?$AA@			; `string'
PUBLIC	??_C@_0L@HBCPKIJB@FECREPEATS?$AA@		; `string'
PUBLIC	??_C@_07HDFJIDCP@FECMODE?$AA@			; `string'
PUBLIC	??_C@_0BE@NOCBBHEE@FASTSTART?5now?5FALSE?$AA@	; `string'
PUBLIC	??_C@_0BD@MLNMCFEJ@FASTSTART?5now?5TRUE?$AA@	; `string'
PUBLIC	??_C@_0BA@LBNJILLA@FASTSTART?5FALSE?$AA@	; `string'
PUBLIC	??_C@_0P@IDDHDAJP@FASTSTART?5TRUE?$AA@		; `string'
PUBLIC	??_C@_09JPMFIACP@FASTSTART?$AA@			; `string'
PUBLIC	??_C@_0BA@IOJGCLHE@FECID?5now?5FALSE?$AA@	; `string'
PUBLIC	??_C@_0P@HJJBCJDJ@FECID?5now?5TRUE?$AA@		; `string'
PUBLIC	??_C@_0M@BHBJDGPN@FECID?5FALSE?$AA@		; `string'
PUBLIC	??_C@_0L@PPNNBKDK@FECID?5TRUE?$AA@		; `string'
PUBLIC	??_C@_05GFNAKLIJ@FECID?$AA@			; `string'
PUBLIC	??_C@_0L@JEDBGFLK@DRIVELEVEL?$AA@		; `string'
PUBLIC	??_C@_0L@BMJIDLML@DISCONNECT?$AA@		; `string'
PUBLIC	??_C@_0BD@CNMOCOBG@DEBUGLOG?5now?5FALSE?$AA@	; `string'
PUBLIC	??_C@_0BC@JNJEDPFL@DEBUGLOG?5now?5TRUE?$AA@	; `string'
PUBLIC	??_C@_0P@MMCHPDDO@DEBUGLOG?5FALSE?$AA@		; `string'
PUBLIC	??_C@_0O@HKNBAPBA@DEBUGLOG?5TRUE?$AA@		; `string'
PUBLIC	??_C@_08ILMNPICE@DEBUGLOG?$AA@			; `string'
PUBLIC	??_C@_0L@FNOENICL@DATATOSEND?$AA@		; `string'
PUBLIC	??_C@_0P@JFPFJLFN@CWID?5now?5FALSE?$AA@		; `string'
PUBLIC	??_C@_0O@BLIEHLGM@CWID?5now?5TRUE?$AA@		; `string'
PUBLIC	??_C@_0P@BDNPMAPC@CWID?5now?5ONOFF?$AA@		; `string'
PUBLIC	??_C@_05EGLDFBFH@ONOFF?$AA@			; `string'
PUBLIC	??_C@_0L@BOOFLILP@CWID?5FALSE?$AA@		; `string'
PUBLIC	??_C@_09LFBPHDDG@CWID?5TRUE?$AA@		; `string'
PUBLIC	??_C@_0L@JIMPODBA@CWID?5ONOFF?$AA@		; `string'
PUBLIC	??_C@_04JLAKCBCO@CWID?$AA@			; `string'
PUBLIC	??_C@_0L@DGGMKNGE@CONSOLELOG?$AA@		; `string'
PUBLIC	??_C@_0BA@BICPHBMA@CODEC?5now?5FALSE?$AA@	; `string'
PUBLIC	??_C@_0P@MJGDBDHD@CODEC?5now?5TRUE?$AA@		; `string'
PUBLIC	??_C@_0M@GDDIPIBN@CODEC?5FALSE?$AA@		; `string'
PUBLIC	??_C@_0L@GPMBGALJ@CODEC?5TRUE?$AA@		; `string'
PUBLIC	??_C@_05KECBHFIB@CODEC?$AA@			; `string'
PUBLIC	??_C@_0BD@MPGDFLDD@CMDTRACE?5now?5FALSE?$AA@	; `string'
PUBLIC	??_C@_0BC@IIJLAOJC@CMDTRACE?5now?5TRUE?$AA@	; `string'
PUBLIC	??_C@_0P@NBHBGGPA@CMDTRACE?5FALSE?$AA@		; `string'
PUBLIC	??_C@_0O@JLFEKFAA@CMDTRACE?5TRUE?$AA@		; `string'
PUBLIC	??_C@_08PFIDDDAO@CMDTRACE?$AA@			; `string'
PUBLIC	??_C@_05HKHBPABE@CLOSE?$AA@			; `string'
PUBLIC	??_C@_02COKOBFHN@CL?$AA@			; `string'
PUBLIC	??_C@_0P@GDFADNLG@CAPTUREDEVICES?$AA@		; `string'
PUBLIC	??_C@_09HGCGHFLD@?$CFs?5now?5?$CFs?$AA@		; `string'
PUBLIC	??_C@_05DNIIFBMG@?$CFs?5?$CFs?$AA@		; `string'
PUBLIC	??_C@_07ELEEKH@CAPTURE?$AA@			; `string'
PUBLIC	??_C@_07IDGBOMOE@BUSYDET?$AA@			; `string'
PUBLIC	??_C@_0BE@GHHKMNHC@BUSYBLOCK?5now?5FALSE?$AA@	; `string'
PUBLIC	??_C@_0BD@PGNCBKDP@BUSYBLOCK?5now?5TRUE?$AA@	; `string'
PUBLIC	??_C@_0BA@GPLLJMHO@BUSYBLOCK?5FALSE?$AA@	; `string'
PUBLIC	??_C@_0P@FKLODLHC@BUSYBLOCK?5TRUE?$AA@		; `string'
PUBLIC	??_C@_09KOKOOPHP@BUSYBLOCK?$AA@			; `string'
PUBLIC	??_C@_06HKFEAHGA@BUFFER?$AA@			; `string'
PUBLIC	??_C@_05IAGBLAKG@BREAK?$AA@			; `string'
PUBLIC	??_C@_0BE@ICOCEMED@AUTOBREAK?5now?5FALSE?$AA@	; `string'
PUBLIC	??_C@_0BD@LLONCGPC@AUTOBREAK?5now?5TRUE?$AA@	; `string'
PUBLIC	??_C@_05MAJJAKPI@FALSE?$AA@			; `string'
PUBLIC	??_C@_04HCDDPBNL@TRUE?$AA@			; `string'
PUBLIC	??_C@_0BA@PCAIKMMJ@AUTOBREAK?5FALSE?$AA@	; `string'
PUBLIC	??_C@_0P@DLPJCDPH@AUTOBREAK?5TRUE?$AA@		; `string'
PUBLIC	??_C@_09PILLOJHI@AUTOBREAK?$AA@			; `string'
PUBLIC	??_C@_09HDKFPBCF@?$CFs?5now?5?$CFd?$AA@		; `string'
PUBLIC	??_C@_05DIALNFFA@?$CFs?5?$CFd?$AA@		; `string'
PUBLIC	??_C@_0L@PILLEAB@ARQTIMEOUT?$AA@		; `string'
PUBLIC	??_C@_0P@PLMKFMGC@Syntax?5Err?3?5?$CFs?$AA@	; `string'
PUBLIC	??_C@_0BC@HMEBIILF@Not?5from?5mode?5FEC?$AA@	; `string'
PUBLIC	??_C@_0P@NDDKNCMI@MYCALL?5not?5Set?$AA@		; `string'
PUBLIC	??_C@_02NBMCHJGB@CQ?$AA@			; `string'
PUBLIC	??_C@_07BFMFKIEF@ARQCALL?$AA@			; `string'
PUBLIC	??_C@_0N@HPJFBJLI@ARQBW?5now?5?$CFs?$AA@	; `string'
PUBLIC	??_C@_0BC@LMEKCHED@Syntax?5Err?3?5?$CFs?5?$CFs?$AA@ ; `string'
PUBLIC	??_C@_08BALLFDBB@ARQBW?5?$CFs?$AA@		; `string'
PUBLIC	??_C@_05DNLPOBME@ARQBW?$AA@			; `string'
PUBLIC	??_C@_02ODDIIJPA@DD?$AA@			; `string'
PUBLIC	??_C@_05NKJCKGFJ@ABORT?$AA@			; `string'
PUBLIC	??_C@_0CB@KCIEKCND@?$FLobCommand?5Trace?5FROM?5host?3?5C?3?$CFs@ ; `string'
PUBLIC	??_C@_00CNPNBAHC@?$AA@				; `string'
PUBLIC	__$ArrayPad$
PUBLIC	_ProcessCommandFromHost
EXTRN	_Use600Modes:DWORD
EXTRN	_TuningRange:DWORD
EXTRN	_NeedTwoToneTest:DWORD
EXTRN	_TrailerLength:DWORD
EXTRN	_Squelch:DWORD
EXTRN	_skip167:DWORD
EXTRN	_ARDOPStates:BYTE
EXTRN	_NeedID:DWORD
EXTRN	_pttGPIOPin:DWORD
EXTRN	_gotGPIO:DWORD
EXTRN	_RadioControl:DWORD
EXTRN	_COMClearDTR:PROC
EXTRN	_COMClearRTS:PROC
EXTRN	_OpenCOMPort:PROC
EXTRN	_CloseCOMPort:PROC
EXTRN	_PTTPORT:BYTE
EXTRN	_SetARDOPProtocolState:PROC
EXTRN	_PlaybackDevices:DWORD
EXTRN	_PlaybackDevice:BYTE
EXTRN	_strtok_s:PROC
EXTRN	_AuxCalls:BYTE
EXTRN	_AuxCallsLength:DWORD
EXTRN	_Monitor:DWORD
EXTRN	_ClearBusy:PROC
EXTRN	_blnListen:DWORD
EXTRN	_LeaderLength:DWORD
EXTRN	_blnInitializing:DWORD
EXTRN	_CheckGSSyntax:PROC
EXTRN	_GridSquare:BYTE
EXTRN	_FSKOnly:DWORD
EXTRN	_blnAbort:DWORD
EXTRN	_StartFEC:PROC
EXTRN	_FECRepeats:DWORD
EXTRN	_intFECFramesSent:DWORD
EXTRN	_strAllDataModes:BYTE
EXTRN	_strAllDataModesLen:DWORD
EXTRN	_strFECMode:BYTE
EXTRN	_fastStart:DWORD
EXTRN	_FECId:DWORD
EXTRN	_DriveLevel:DWORD
EXTRN	_blnARQDisconnect:DWORD
EXTRN	_ProtocolState:DWORD
EXTRN	_DebugLog:DWORD
EXTRN	_CWOnOff:DWORD
EXTRN	_wantCWID:DWORD
EXTRN	_ConsoleLogLevel:DWORD
EXTRN	_StopCodec:PROC
EXTRN	_StartCodec:PROC
EXTRN	_blnCodecStarted:DWORD
EXTRN	_blnClosing:DWORD
EXTRN	_ClearDataToSend:PROC
EXTRN	_CaptureDevices:DWORD
EXTRN	_CaptureDevice:BYTE
EXTRN	_BusyDet:DWORD
EXTRN	_BusyBlock:DWORD
EXTRN	_Break:PROC
EXTRN	_AutoBreak:DWORD
EXTRN	_ARQTimeout:DWORD
EXTRN	_strcpy:PROC
EXTRN	_ConnectToCall:BYTE
EXTRN	_NeedConReq:DWORD
EXTRN	_ARQConReqRepeats:DWORD
EXTRN	_ProtocolMode:DWORD
EXTRN	_Callsign:TBYTE
EXTRN	_atoi:PROC
EXTRN	_CheckValidCallsignSyntax:PROC
EXTRN	_ARQBandwidths:BYTE
EXTRN	_ARQBandwidth:DWORD
EXTRN	_SendReplyToHost:PROC
EXTRN	_Abort:PROC
EXTRN	_strcmp:PROC
EXTRN	_strlop:PROC
EXTRN	_WriteDebugLog:PROC
EXTRN	_CommandTrace:DWORD
EXTRN	__strupr:PROC
EXTRN	_memset:PROC
;	COMDAT ??_C@_08PALDHKD@FAULT?5?$CFs?$AA@
CONST	SEGMENT
??_C@_08PALDHKD@FAULT?5?$CFs?$AA@ DB 'FAULT %s', 00H	; `string'
CONST	ENDS
;	COMDAT ??_C@_0BE@LJDNACNJ@CMD?5not?5recoginized?$AA@
CONST	SEGMENT
??_C@_0BE@LJDNACNJ@CMD?5not?5recoginized?$AA@ DB 'CMD not recoginized', 00H ; `string'
CONST	ENDS
;	COMDAT ??_C@_0O@LAPEONLC@VERSION?5?$CFs_?$CFs?$AA@
CONST	SEGMENT
??_C@_0O@LAPEONLC@VERSION?5?$CFs_?$CFs?$AA@ DB 'VERSION %s_%s', 00H ; `string'
CONST	ENDS
;	COMDAT ??_C@_09GENFIGK@ARDOP?5TNC?$AA@
CONST	SEGMENT
??_C@_09GENFIGK@ARDOP?5TNC?$AA@ DB 'ARDOP TNC', 00H	; `string'
CONST	ENDS
;	COMDAT ??_C@_0M@NIMIDGCH@0?49?40?44?9BPQ?$AA@
CONST	SEGMENT
??_C@_0M@NIMIDGCH@0?49?40?44?9BPQ?$AA@ DB '0.9.0.4-BPQ', 00H ; `string'
CONST	ENDS
;	COMDAT ??_C@_07NCHCCDCP@VERSION?$AA@
CONST	SEGMENT
??_C@_07NCHCCDCP@VERSION?$AA@ DB 'VERSION', 00H		; `string'
CONST	ENDS
;	COMDAT ??_C@_0BG@GAHDKKDB@USE600MODES?5now?5FALSE?$AA@
CONST	SEGMENT
??_C@_0BG@GAHDKKDB@USE600MODES?5now?5FALSE?$AA@ DB 'USE600MODES now FALSE'
	DB	00H						; `string'
CONST	ENDS
;	COMDAT ??_C@_0BF@JCHBEADL@USE600MODES?5now?5TRUE?$AA@
CONST	SEGMENT
??_C@_0BF@JCHBEADL@USE600MODES?5now?5TRUE?$AA@ DB 'USE600MODES now TRUE', 00H ; `string'
CONST	ENDS
;	COMDAT ??_C@_0BC@JFPAAOMM@USE600MODES?5FALSE?$AA@
CONST	SEGMENT
??_C@_0BC@JFPAAOMM@USE600MODES?5FALSE?$AA@ DB 'USE600MODES FALSE', 00H ; `string'
CONST	ENDS
;	COMDAT ??_C@_0BB@BOBBOKGM@USE600MODES?5TRUE?$AA@
CONST	SEGMENT
??_C@_0BB@BOBBOKGM@USE600MODES?5TRUE?$AA@ DB 'USE600MODES TRUE', 00H ; `string'
CONST	ENDS
;	COMDAT ??_C@_0M@FDGMHEMG@USE600MODES?$AA@
CONST	SEGMENT
??_C@_0M@FDGMHEMG@USE600MODES?$AA@ DB 'USE600MODES', 00H ; `string'
CONST	ENDS
;	COMDAT ??_C@_0CP@MKMIBGHE@TXLEVEL?5command?5not?5available?5on@
CONST	SEGMENT
??_C@_0CP@MKMIBGHE@TXLEVEL?5command?5not?5available?5on@ DB 'TXLEVEL comm'
	DB	'and not available on this platform', 00H	; `string'
CONST	ENDS
;	COMDAT ??_C@_07HHPJHIAI@TXLEVEL?$AA@
CONST	SEGMENT
??_C@_07HHPJHIAI@TXLEVEL?$AA@ DB 'TXLEVEL', 00H		; `string'
CONST	ENDS
;	COMDAT ??_C@_0M@FKICOHOM@TUNINGRANGE?$AA@
CONST	SEGMENT
??_C@_0M@FKICOHOM@TUNINGRANGE?$AA@ DB 'TUNINGRANGE', 00H ; `string'
CONST	ENDS
;	COMDAT ??_C@_0BC@LKOPEAIH@Not?5from?5state?5?$CFs?$AA@
CONST	SEGMENT
??_C@_0BC@LKOPEAIH@Not?5from?5state?5?$CFs?$AA@ DB 'Not from state %s', 00H ; `string'
CONST	ENDS
;	COMDAT ??_C@_0M@MALFFABE@TWOTONETEST?$AA@
CONST	SEGMENT
??_C@_0M@MALFFABE@TWOTONETEST?$AA@ DB 'TWOTONETEST', 00H ; `string'
CONST	ENDS
;	COMDAT ??_C@_07EBACFBLN@TRAILER?$AA@
CONST	SEGMENT
??_C@_07EBACFBLN@TRAILER?$AA@ DB 'TRAILER', 00H		; `string'
CONST	ENDS
;	COMDAT ??_C@_05MMKHEPHK@STATE?$AA@
CONST	SEGMENT
??_C@_05MMKHEPHK@STATE?$AA@ DB 'STATE', 00H		; `string'
CONST	ENDS
;	COMDAT ??_C@_07JDDIGJNM@SQUELCH?$AA@
CONST	SEGMENT
??_C@_07JDDIGJNM@SQUELCH?$AA@ DB 'SQUELCH', 00H		; `string'
CONST	ENDS
;	COMDAT ??_C@_0BF@JDGJIECB@NO2000?4167?5now?5FALSE?$AA@
CONST	SEGMENT
??_C@_0BF@JDGJIECB@NO2000?4167?5now?5FALSE?$AA@ DB 'NO2000.167 now FALSE', 00H ; `string'
CONST	ENDS
;	COMDAT ??_C@_0BE@DBCOBICJ@NO2000?4167?5now?5TRUE?$AA@
CONST	SEGMENT
??_C@_0BE@DBCOBICJ@NO2000?4167?5now?5TRUE?$AA@ DB 'NO2000.167 now TRUE', 00H ; `string'
CONST	ENDS
;	COMDAT ??_C@_0BB@JGKAEOOM@NO2000?4167?5FALSE?$AA@
CONST	SEGMENT
??_C@_0BB@JGKAEOOM@NO2000?4167?5FALSE?$AA@ DB 'NO2000.167 FALSE', 00H ; `string'
CONST	ENDS
;	COMDAT ??_C@_0BA@PILDMGOO@NO2000?4167?5TRUE?$AA@
CONST	SEGMENT
??_C@_0BA@PILDMGOO@NO2000?4167?5TRUE?$AA@ DB 'NO2000.167 TRUE', 00H ; `string'
CONST	ENDS
;	COMDAT ??_C@_0L@NAGDAOLG@NO2000?4167?$AA@
CONST	SEGMENT
??_C@_0L@NAGDAOLG@NO2000?4167?$AA@ DB 'NO2000.167', 00H	; `string'
CONST	ENDS
;	COMDAT ??_C@_0BC@DIBOMCCE@Not?5from?5State?5?$CFs?$AA@
CONST	SEGMENT
??_C@_0BC@DIBOMCCE@Not?5from?5State?5?$CFs?$AA@ DB 'Not from State %s', 00H ; `string'
CONST	ENDS
;	COMDAT ??_C@_06DHNAFNHI@SENDID?$AA@
CONST	SEGMENT
??_C@_06DHNAFNHI@SENDID?$AA@ DB 'SENDID', 00H		; `string'
CONST	ENDS
;	COMDAT ??_C@_0CP@GGKPCLGL@RXLEVEL?5command?5not?5available?5on@
CONST	SEGMENT
??_C@_0CP@GGKPCLGL@RXLEVEL?5command?5not?5available?5on@ DB 'RXLEVEL comm'
	DB	'and not available on this platform', 00H	; `string'
CONST	ENDS
;	COMDAT ??_C@_07LBJGHBIP@RXLEVEL?$AA@
CONST	SEGMENT
??_C@_07LBJGHBIP@RXLEVEL?$AA@ DB 'RXLEVEL', 00H		; `string'
CONST	ENDS
;	COMDAT ??_C@_0CD@IFEEGFBI@RADIOPTTGPIO?5now?5ENABLED?5on?5pin?5@
CONST	SEGMENT
??_C@_0CD@IFEEGFBI@RADIOPTTGPIO?5now?5ENABLED?5on?5pin?5@ DB 'RADIOPTTGPI'
	DB	'O now ENABLED on pin %d', 00H		; `string'
CONST	ENDS
;	COMDAT ??_C@_0BK@JEJMOABI@RADIOPTTGPIO?5now?5DISABLED?$AA@
CONST	SEGMENT
??_C@_0BK@JEJMOABI@RADIOPTTGPIO?5now?5DISABLED?$AA@ DB 'RADIOPTTGPIO now '
	DB	'DISABLED', 00H				; `string'
CONST	ENDS
;	COMDAT ??_C@_0BP@CCAIIMNG@RADIOPTTGPIO?5ENABLED?5on?5pin?5?$CFd?$AA@
CONST	SEGMENT
??_C@_0BP@CCAIIMNG@RADIOPTTGPIO?5ENABLED?5on?5pin?5?$CFd?$AA@ DB 'RADIOPT'
	DB	'TGPIO ENABLED on pin %d', 00H		; `string'
CONST	ENDS
;	COMDAT ??_C@_0BG@HPMLLGIP@RADIOPTTGPIO?5DISABLED?$AA@
CONST	SEGMENT
??_C@_0BG@HPMLLGIP@RADIOPTTGPIO?5DISABLED?$AA@ DB 'RADIOPTTGPIO DISABLED', 00H ; `string'
CONST	ENDS
;	COMDAT ??_C@_0CK@CAMMMBMA@PTT?5via?5GPIO?5not?5available?5on?5th@
CONST	SEGMENT
??_C@_0CK@CAMMMBMA@PTT?5via?5GPIO?5not?5available?5on?5th@ DB 'PTT via GP'
	DB	'IO not available on this system', 00H	; `string'
CONST	ENDS
;	COMDAT ??_C@_0N@LFJFAPE@RADIOPTTGPIO?$AA@
CONST	SEGMENT
??_C@_0N@LFJFAPE@RADIOPTTGPIO?$AA@ DB 'RADIOPTTGPIO', 00H ; `string'
CONST	ENDS
;	COMDAT ??_C@_0BA@OCLBAMMC@RADIOPTT?5now?5?$CFs?$AA@
CONST	SEGMENT
??_C@_0BA@OCLBAMMC@RADIOPTT?5now?5?$CFs?$AA@ DB 'RADIOPTT now %s', 00H ; `string'
CONST	ENDS
;	COMDAT ??_C@_0BL@EDEJGDHF@Could?8n?5open?5PTT?5device?5?$CFs?$AA@
CONST	SEGMENT
??_C@_0BL@EDEJGDHF@Could?8n?5open?5PTT?5device?5?$CFs?$AA@ DB 'Could''n o'
	DB	'pen PTT device %s', 00H			; `string'
CONST	ENDS
;	COMDAT ??_C@_0BN@HAJDAIGK@Using?5RTS?5on?5port?5?$CFs?5for?5PTT?$AA@
CONST	SEGMENT
??_C@_0BN@HAJDAIGK@Using?5RTS?5on?5port?5?$CFs?5for?5PTT?$AA@ DB 'Using R'
	DB	'TS on port %s for PTT', 00H			; `string'
CONST	ENDS
;	COMDAT ??_C@_0M@LFIODCLG@RADIOPTT?5?$CFs?$AA@
CONST	SEGMENT
??_C@_0M@LFIODCLG@RADIOPTT?5?$CFs?$AA@ DB 'RADIOPTT %s', 00H ; `string'
CONST	ENDS
;	COMDAT ??_C@_08JMLKJEBK@RADIOPTT?$AA@
CONST	SEGMENT
??_C@_08JMLKJEBK@RADIOPTT?$AA@ DB 'RADIOPTT', 00H	; `string'
CONST	ENDS
;	COMDAT ??_C@_0M@MPBAMBCJ@PURGEBUFFER?$AA@
CONST	SEGMENT
??_C@_0M@MPBAMBCJ@PURGEBUFFER?$AA@ DB 'PURGEBUFFER', 00H ; `string'
CONST	ENDS
;	COMDAT ??_C@_0BF@LOPEGGNB@PROTOCOLMODE?5now?5FEC?$AA@
CONST	SEGMENT
??_C@_0BF@LOPEGGNB@PROTOCOLMODE?5now?5FEC?$AA@ DB 'PROTOCOLMODE now FEC', 00H ; `string'
CONST	ENDS
;	COMDAT ??_C@_0BF@ECLOJLEO@PROTOCOLMODE?5now?5ARQ?$AA@
CONST	SEGMENT
??_C@_0BF@ECLOJLEO@PROTOCOLMODE?5now?5ARQ?$AA@ DB 'PROTOCOLMODE now ARQ', 00H ; `string'
CONST	ENDS
;	COMDAT ??_C@_03MNMBHEOP@FEC?$AA@
CONST	SEGMENT
??_C@_03MNMBHEOP@FEC?$AA@ DB 'FEC', 00H			; `string'
CONST	ENDS
;	COMDAT ??_C@_03DBILIJHA@ARQ?$AA@
CONST	SEGMENT
??_C@_03DBILIJHA@ARQ?$AA@ DB 'ARQ', 00H			; `string'
CONST	ENDS
;	COMDAT ??_C@_0BB@GNBGENJP@PROTOCOLMODE?5FEC?$AA@
CONST	SEGMENT
??_C@_0BB@GNBGENJP@PROTOCOLMODE?5FEC?$AA@ DB 'PROTOCOLMODE FEC', 00H ; `string'
CONST	ENDS
;	COMDAT ??_C@_0BB@JBFMLAAA@PROTOCOLMODE?5ARQ?$AA@
CONST	SEGMENT
??_C@_0BB@JBFMLAAA@PROTOCOLMODE?5ARQ?$AA@ DB 'PROTOCOLMODE ARQ', 00H ; `string'
CONST	ENDS
;	COMDAT ??_C@_0N@CJGHANBE@PROTOCOLMODE?$AA@
CONST	SEGMENT
??_C@_0N@CJGHANBE@PROTOCOLMODE?$AA@ DB 'PROTOCOLMODE', 00H ; `string'
CONST	ENDS
;	COMDAT ??_C@_0BA@LONILKAE@PLAYBACKDEVICES?$AA@
CONST	SEGMENT
??_C@_0BA@LONILKAE@PLAYBACKDEVICES?$AA@ DB 'PLAYBACKDEVICES', 00H ; `string'
CONST	ENDS
;	COMDAT ??_C@_08LMKBMLFB@PLAYBACK?$AA@
CONST	SEGMENT
??_C@_08LMKBMLFB@PLAYBACK?$AA@ DB 'PLAYBACK', 00H	; `string'
CONST	ENDS
;	COMDAT ??_C@_06HFHJAEGL@MYCALL?$AA@
CONST	SEGMENT
??_C@_06HFHJAEGL@MYCALL?$AA@ DB 'MYCALL', 00H		; `string'
CONST	ENDS
;	COMDAT ??_C@_0L@IOGBILHH@MYAUX?5now?5?$AA@
CONST	SEGMENT
??_C@_0L@IOGBILHH@MYAUX?5now?5?$AA@ DB 'MYAUX now ', 00H ; `string'
CONST	ENDS
;	COMDAT ??_C@_02KEGNLNML@?0?5?$AA@
CONST	SEGMENT
??_C@_02KEGNLNML@?0?5?$AA@ DB ', ', 00H			; `string'
CONST	ENDS
;	COMDAT ??_C@_03CGNBMCEI@?$CFs?0?$AA@
CONST	SEGMENT
??_C@_03CGNBMCEI@?$CFs?0?$AA@ DB '%s,', 00H		; `string'
CONST	ENDS
;	COMDAT ??_C@_02DKCKIIND@?$CFs?$AA@
CONST	SEGMENT
??_C@_02DKCKIIND@?$CFs?$AA@ DB '%s', 00H		; `string'
CONST	ENDS
;	COMDAT ??_C@_06CKFLIME@MYAUX?5?$AA@
CONST	SEGMENT
??_C@_06CKFLIME@MYAUX?5?$AA@ DB 'MYAUX ', 00H		; `string'
CONST	ENDS
;	COMDAT ??_C@_05PDEFOOAL@MYAUX?$AA@
CONST	SEGMENT
??_C@_05PDEFOOAL@MYAUX?$AA@ DB 'MYAUX', 00H		; `string'
CONST	ENDS
;	COMDAT ??_C@_0BC@KBINHBAA@MONITOR?5now?5FALSE?$AA@
CONST	SEGMENT
??_C@_0BC@KBINHBAA@MONITOR?5now?5FALSE?$AA@ DB 'MONITOR now FALSE', 00H ; `string'
CONST	ENDS
;	COMDAT ??_C@_0BB@NLHNKAF@MONITOR?5now?5TRUE?$AA@
CONST	SEGMENT
??_C@_0BB@NLHNKAF@MONITOR?5now?5TRUE?$AA@ DB 'MONITOR now TRUE', 00H ; `string'
CONST	ENDS
;	COMDAT ??_C@_0O@NBGDHFOP@MONITOR?5FALSE?$AA@
CONST	SEGMENT
??_C@_0O@NBGDHFOP@MONITOR?5FALSE?$AA@ DB 'MONITOR FALSE', 00H ; `string'
CONST	ENDS
;	COMDAT ??_C@_0N@IJEHLKAA@MONITOR?5TRUE?$AA@
CONST	SEGMENT
??_C@_0N@IJEHLKAA@MONITOR?5TRUE?$AA@ DB 'MONITOR TRUE', 00H ; `string'
CONST	ENDS
;	COMDAT ??_C@_07ENJDMOMA@MONITOR?$AA@
CONST	SEGMENT
??_C@_07ENJDMOMA@MONITOR?$AA@ DB 'MONITOR', 00H		; `string'
CONST	ENDS
;	COMDAT ??_C@_0BB@PIBMHHII@LISTEN?5now?5FALSE?$AA@
CONST	SEGMENT
??_C@_0BB@PIBMHHII@LISTEN?5now?5FALSE?$AA@ DB 'LISTEN now FALSE', 00H ; `string'
CONST	ENDS
;	COMDAT ??_C@_0BA@CPIMEFHJ@LISTEN?5now?5TRUE?$AA@
CONST	SEGMENT
??_C@_0BA@CPIMEFHJ@LISTEN?5now?5TRUE?$AA@ DB 'LISTEN now TRUE', 00H ; `string'
CONST	ENDS
;	COMDAT ??_C@_0N@MCNOHKPE@LISTEN?5FALSE?$AA@
CONST	SEGMENT
??_C@_0N@MCNOHKPE@LISTEN?5FALSE?$AA@ DB 'LISTEN FALSE', 00H ; `string'
CONST	ENDS
;	COMDAT ??_C@_0M@FINAPHBI@LISTEN?5TRUE?$AA@
CONST	SEGMENT
??_C@_0M@FINAPHBI@LISTEN?5TRUE?$AA@ DB 'LISTEN TRUE', 00H ; `string'
CONST	ENDS
;	COMDAT ??_C@_06OKBIGEGG@LISTEN?$AA@
CONST	SEGMENT
??_C@_06OKBIGEGG@LISTEN?$AA@ DB 'LISTEN', 00H		; `string'
CONST	ENDS
;	COMDAT ??_C@_06DBJEGKDN@LEADER?$AA@
CONST	SEGMENT
??_C@_06DBJEGKDN@LEADER?$AA@ DB 'LEADER', 00H		; `string'
CONST	ENDS
;	COMDAT ??_C@_0L@JIPOENLA@INITIALIZE?$AA@
CONST	SEGMENT
??_C@_0L@JIPOENLA@INITIALIZE?$AA@ DB 'INITIALIZE', 00H	; `string'
CONST	ENDS
;	COMDAT ??_C@_0L@ONIOHLEE@GRIDSQUARE?$AA@
CONST	SEGMENT
??_C@_0L@ONIOHLEE@GRIDSQUARE?$AA@ DB 'GRIDSQUARE', 00H	; `string'
CONST	ENDS
;	COMDAT ??_C@_0BC@POGNNEJB@FSKONLY?5now?5FALSE?$AA@
CONST	SEGMENT
??_C@_0BC@POGNNEJB@FSKONLY?5now?5FALSE?$AA@ DB 'FSKONLY now FALSE', 00H ; `string'
CONST	ENDS
;	COMDAT ??_C@_0BB@OIJKEDDM@FSKONLY?5now?5TRUE?$AA@
CONST	SEGMENT
??_C@_0BB@OIJKEDDM@FSKONLY?5now?5TRUE?$AA@ DB 'FSKONLY now TRUE', 00H ; `string'
CONST	ENDS
;	COMDAT ??_C@_0O@JEJLNNMC@FSKONLY?5FALSE?$AA@
CONST	SEGMENT
??_C@_0O@JEJLNNMC@FSKONLY?5FALSE?$AA@ DB 'FSKONLY FALSE', 00H ; `string'
CONST	ENDS
;	COMDAT ??_C@_0N@KOLDOCCN@FSKONLY?5TRUE?$AA@
CONST	SEGMENT
??_C@_0N@KOLDOCCN@FSKONLY?5TRUE?$AA@ DB 'FSKONLY TRUE', 00H ; `string'
CONST	ENDS
;	COMDAT ??_C@_07LBBMJAFG@FSKONLY?$AA@
CONST	SEGMENT
??_C@_07LBBMJAFG@FSKONLY?$AA@ DB 'FSKONLY', 00H		; `string'
CONST	ENDS
;	COMDAT ??_C@_0BC@IBFPDBLE@FECSEND?5now?5FALSE?$AA@
CONST	SEGMENT
??_C@_0BC@IBFPDBLE@FECSEND?5now?5FALSE?$AA@ DB 'FECSEND now FALSE', 00H ; `string'
CONST	ENDS
;	COMDAT ??_C@_0BB@LAHCNNHA@FECSEND?5now?5TRUE?$AA@
CONST	SEGMENT
??_C@_0BB@LAHCNNHA@FECSEND?5now?5TRUE?$AA@ DB 'FECSEND now TRUE', 00H ; `string'
CONST	ENDS
;	COMDAT ??_C@_07NHLIPODP@FECSEND?$AA@
CONST	SEGMENT
??_C@_07NHLIPODP@FECSEND?$AA@ DB 'FECSEND', 00H		; `string'
CONST	ENDS
;	COMDAT ??_C@_0L@HBCPKIJB@FECREPEATS?$AA@
CONST	SEGMENT
??_C@_0L@HBCPKIJB@FECREPEATS?$AA@ DB 'FECREPEATS', 00H	; `string'
CONST	ENDS
;	COMDAT ??_C@_07HDFJIDCP@FECMODE?$AA@
CONST	SEGMENT
??_C@_07HDFJIDCP@FECMODE?$AA@ DB 'FECMODE', 00H		; `string'
CONST	ENDS
;	COMDAT ??_C@_0BE@NOCBBHEE@FASTSTART?5now?5FALSE?$AA@
CONST	SEGMENT
??_C@_0BE@NOCBBHEE@FASTSTART?5now?5FALSE?$AA@ DB 'FASTSTART now FALSE', 00H ; `string'
CONST	ENDS
;	COMDAT ??_C@_0BD@MLNMCFEJ@FASTSTART?5now?5TRUE?$AA@
CONST	SEGMENT
??_C@_0BD@MLNMCFEJ@FASTSTART?5now?5TRUE?$AA@ DB 'FASTSTART now TRUE', 00H ; `string'
CONST	ENDS
;	COMDAT ??_C@_0BA@LBNJILLA@FASTSTART?5FALSE?$AA@
CONST	SEGMENT
??_C@_0BA@LBNJILLA@FASTSTART?5FALSE?$AA@ DB 'FASTSTART FALSE', 00H ; `string'
CONST	ENDS
;	COMDAT ??_C@_0P@IDDHDAJP@FASTSTART?5TRUE?$AA@
CONST	SEGMENT
??_C@_0P@IDDHDAJP@FASTSTART?5TRUE?$AA@ DB 'FASTSTART TRUE', 00H ; `string'
CONST	ENDS
;	COMDAT ??_C@_09JPMFIACP@FASTSTART?$AA@
CONST	SEGMENT
??_C@_09JPMFIACP@FASTSTART?$AA@ DB 'FASTSTART', 00H	; `string'
CONST	ENDS
;	COMDAT ??_C@_0BA@IOJGCLHE@FECID?5now?5FALSE?$AA@
CONST	SEGMENT
??_C@_0BA@IOJGCLHE@FECID?5now?5FALSE?$AA@ DB 'FECID now FALSE', 00H ; `string'
CONST	ENDS
;	COMDAT ??_C@_0P@HJJBCJDJ@FECID?5now?5TRUE?$AA@
CONST	SEGMENT
??_C@_0P@HJJBCJDJ@FECID?5now?5TRUE?$AA@ DB 'FECID now TRUE', 00H ; `string'
CONST	ENDS
;	COMDAT ??_C@_0M@BHBJDGPN@FECID?5FALSE?$AA@
CONST	SEGMENT
??_C@_0M@BHBJDGPN@FECID?5FALSE?$AA@ DB 'FECID FALSE', 00H ; `string'
CONST	ENDS
;	COMDAT ??_C@_0L@PPNNBKDK@FECID?5TRUE?$AA@
CONST	SEGMENT
??_C@_0L@PPNNBKDK@FECID?5TRUE?$AA@ DB 'FECID TRUE', 00H	; `string'
CONST	ENDS
;	COMDAT ??_C@_05GFNAKLIJ@FECID?$AA@
CONST	SEGMENT
??_C@_05GFNAKLIJ@FECID?$AA@ DB 'FECID', 00H		; `string'
CONST	ENDS
;	COMDAT ??_C@_0L@JEDBGFLK@DRIVELEVEL?$AA@
CONST	SEGMENT
??_C@_0L@JEDBGFLK@DRIVELEVEL?$AA@ DB 'DRIVELEVEL', 00H	; `string'
CONST	ENDS
;	COMDAT ??_C@_0L@BMJIDLML@DISCONNECT?$AA@
CONST	SEGMENT
??_C@_0L@BMJIDLML@DISCONNECT?$AA@ DB 'DISCONNECT', 00H	; `string'
CONST	ENDS
;	COMDAT ??_C@_0BD@CNMOCOBG@DEBUGLOG?5now?5FALSE?$AA@
CONST	SEGMENT
??_C@_0BD@CNMOCOBG@DEBUGLOG?5now?5FALSE?$AA@ DB 'DEBUGLOG now FALSE', 00H ; `string'
CONST	ENDS
;	COMDAT ??_C@_0BC@JNJEDPFL@DEBUGLOG?5now?5TRUE?$AA@
CONST	SEGMENT
??_C@_0BC@JNJEDPFL@DEBUGLOG?5now?5TRUE?$AA@ DB 'DEBUGLOG now TRUE', 00H ; `string'
CONST	ENDS
;	COMDAT ??_C@_0P@MMCHPDDO@DEBUGLOG?5FALSE?$AA@
CONST	SEGMENT
??_C@_0P@MMCHPDDO@DEBUGLOG?5FALSE?$AA@ DB 'DEBUGLOG FALSE', 00H ; `string'
CONST	ENDS
;	COMDAT ??_C@_0O@HKNBAPBA@DEBUGLOG?5TRUE?$AA@
CONST	SEGMENT
??_C@_0O@HKNBAPBA@DEBUGLOG?5TRUE?$AA@ DB 'DEBUGLOG TRUE', 00H ; `string'
CONST	ENDS
;	COMDAT ??_C@_08ILMNPICE@DEBUGLOG?$AA@
CONST	SEGMENT
??_C@_08ILMNPICE@DEBUGLOG?$AA@ DB 'DEBUGLOG', 00H	; `string'
CONST	ENDS
;	COMDAT ??_C@_0L@FNOENICL@DATATOSEND?$AA@
CONST	SEGMENT
??_C@_0L@FNOENICL@DATATOSEND?$AA@ DB 'DATATOSEND', 00H	; `string'
CONST	ENDS
;	COMDAT ??_C@_0P@JFPFJLFN@CWID?5now?5FALSE?$AA@
CONST	SEGMENT
??_C@_0P@JFPFJLFN@CWID?5now?5FALSE?$AA@ DB 'CWID now FALSE', 00H ; `string'
CONST	ENDS
;	COMDAT ??_C@_0O@BLIEHLGM@CWID?5now?5TRUE?$AA@
CONST	SEGMENT
??_C@_0O@BLIEHLGM@CWID?5now?5TRUE?$AA@ DB 'CWID now TRUE', 00H ; `string'
CONST	ENDS
;	COMDAT ??_C@_0P@BDNPMAPC@CWID?5now?5ONOFF?$AA@
CONST	SEGMENT
??_C@_0P@BDNPMAPC@CWID?5now?5ONOFF?$AA@ DB 'CWID now ONOFF', 00H ; `string'
CONST	ENDS
;	COMDAT ??_C@_05EGLDFBFH@ONOFF?$AA@
CONST	SEGMENT
??_C@_05EGLDFBFH@ONOFF?$AA@ DB 'ONOFF', 00H		; `string'
CONST	ENDS
;	COMDAT ??_C@_0L@BOOFLILP@CWID?5FALSE?$AA@
CONST	SEGMENT
??_C@_0L@BOOFLILP@CWID?5FALSE?$AA@ DB 'CWID FALSE', 00H	; `string'
CONST	ENDS
;	COMDAT ??_C@_09LFBPHDDG@CWID?5TRUE?$AA@
CONST	SEGMENT
??_C@_09LFBPHDDG@CWID?5TRUE?$AA@ DB 'CWID TRUE', 00H	; `string'
CONST	ENDS
;	COMDAT ??_C@_0L@JIMPODBA@CWID?5ONOFF?$AA@
CONST	SEGMENT
??_C@_0L@JIMPODBA@CWID?5ONOFF?$AA@ DB 'CWID ONOFF', 00H	; `string'
CONST	ENDS
;	COMDAT ??_C@_04JLAKCBCO@CWID?$AA@
CONST	SEGMENT
??_C@_04JLAKCBCO@CWID?$AA@ DB 'CWID', 00H		; `string'
CONST	ENDS
;	COMDAT ??_C@_0L@DGGMKNGE@CONSOLELOG?$AA@
CONST	SEGMENT
??_C@_0L@DGGMKNGE@CONSOLELOG?$AA@ DB 'CONSOLELOG', 00H	; `string'
CONST	ENDS
;	COMDAT ??_C@_0BA@BICPHBMA@CODEC?5now?5FALSE?$AA@
CONST	SEGMENT
??_C@_0BA@BICPHBMA@CODEC?5now?5FALSE?$AA@ DB 'CODEC now FALSE', 00H ; `string'
CONST	ENDS
;	COMDAT ??_C@_0P@MJGDBDHD@CODEC?5now?5TRUE?$AA@
CONST	SEGMENT
??_C@_0P@MJGDBDHD@CODEC?5now?5TRUE?$AA@ DB 'CODEC now TRUE', 00H ; `string'
CONST	ENDS
;	COMDAT ??_C@_0M@GDDIPIBN@CODEC?5FALSE?$AA@
CONST	SEGMENT
??_C@_0M@GDDIPIBN@CODEC?5FALSE?$AA@ DB 'CODEC FALSE', 00H ; `string'
CONST	ENDS
;	COMDAT ??_C@_0L@GPMBGALJ@CODEC?5TRUE?$AA@
CONST	SEGMENT
??_C@_0L@GPMBGALJ@CODEC?5TRUE?$AA@ DB 'CODEC TRUE', 00H	; `string'
CONST	ENDS
;	COMDAT ??_C@_05KECBHFIB@CODEC?$AA@
CONST	SEGMENT
??_C@_05KECBHFIB@CODEC?$AA@ DB 'CODEC', 00H		; `string'
CONST	ENDS
;	COMDAT ??_C@_0BD@MPGDFLDD@CMDTRACE?5now?5FALSE?$AA@
CONST	SEGMENT
??_C@_0BD@MPGDFLDD@CMDTRACE?5now?5FALSE?$AA@ DB 'CMDTRACE now FALSE', 00H ; `string'
CONST	ENDS
;	COMDAT ??_C@_0BC@IIJLAOJC@CMDTRACE?5now?5TRUE?$AA@
CONST	SEGMENT
??_C@_0BC@IIJLAOJC@CMDTRACE?5now?5TRUE?$AA@ DB 'CMDTRACE now TRUE', 00H ; `string'
CONST	ENDS
;	COMDAT ??_C@_0P@NBHBGGPA@CMDTRACE?5FALSE?$AA@
CONST	SEGMENT
??_C@_0P@NBHBGGPA@CMDTRACE?5FALSE?$AA@ DB 'CMDTRACE FALSE', 00H ; `string'
CONST	ENDS
;	COMDAT ??_C@_0O@JLFEKFAA@CMDTRACE?5TRUE?$AA@
CONST	SEGMENT
??_C@_0O@JLFEKFAA@CMDTRACE?5TRUE?$AA@ DB 'CMDTRACE TRUE', 00H ; `string'
CONST	ENDS
;	COMDAT ??_C@_08PFIDDDAO@CMDTRACE?$AA@
CONST	SEGMENT
??_C@_08PFIDDDAO@CMDTRACE?$AA@ DB 'CMDTRACE', 00H	; `string'
CONST	ENDS
;	COMDAT ??_C@_05HKHBPABE@CLOSE?$AA@
CONST	SEGMENT
??_C@_05HKHBPABE@CLOSE?$AA@ DB 'CLOSE', 00H		; `string'
CONST	ENDS
;	COMDAT ??_C@_02COKOBFHN@CL?$AA@
CONST	SEGMENT
??_C@_02COKOBFHN@CL?$AA@ DB 'CL', 00H			; `string'
CONST	ENDS
;	COMDAT ??_C@_0P@GDFADNLG@CAPTUREDEVICES?$AA@
CONST	SEGMENT
??_C@_0P@GDFADNLG@CAPTUREDEVICES?$AA@ DB 'CAPTUREDEVICES', 00H ; `string'
CONST	ENDS
;	COMDAT ??_C@_09HGCGHFLD@?$CFs?5now?5?$CFs?$AA@
CONST	SEGMENT
??_C@_09HGCGHFLD@?$CFs?5now?5?$CFs?$AA@ DB '%s now %s', 00H ; `string'
CONST	ENDS
;	COMDAT ??_C@_05DNIIFBMG@?$CFs?5?$CFs?$AA@
CONST	SEGMENT
??_C@_05DNIIFBMG@?$CFs?5?$CFs?$AA@ DB '%s %s', 00H	; `string'
CONST	ENDS
;	COMDAT ??_C@_07ELEEKH@CAPTURE?$AA@
CONST	SEGMENT
??_C@_07ELEEKH@CAPTURE?$AA@ DB 'CAPTURE', 00H		; `string'
CONST	ENDS
;	COMDAT ??_C@_07IDGBOMOE@BUSYDET?$AA@
CONST	SEGMENT
??_C@_07IDGBOMOE@BUSYDET?$AA@ DB 'BUSYDET', 00H		; `string'
CONST	ENDS
;	COMDAT ??_C@_0BE@GHHKMNHC@BUSYBLOCK?5now?5FALSE?$AA@
CONST	SEGMENT
??_C@_0BE@GHHKMNHC@BUSYBLOCK?5now?5FALSE?$AA@ DB 'BUSYBLOCK now FALSE', 00H ; `string'
CONST	ENDS
;	COMDAT ??_C@_0BD@PGNCBKDP@BUSYBLOCK?5now?5TRUE?$AA@
CONST	SEGMENT
??_C@_0BD@PGNCBKDP@BUSYBLOCK?5now?5TRUE?$AA@ DB 'BUSYBLOCK now TRUE', 00H ; `string'
CONST	ENDS
;	COMDAT ??_C@_0BA@GPLLJMHO@BUSYBLOCK?5FALSE?$AA@
CONST	SEGMENT
??_C@_0BA@GPLLJMHO@BUSYBLOCK?5FALSE?$AA@ DB 'BUSYBLOCK FALSE', 00H ; `string'
CONST	ENDS
;	COMDAT ??_C@_0P@FKLODLHC@BUSYBLOCK?5TRUE?$AA@
CONST	SEGMENT
??_C@_0P@FKLODLHC@BUSYBLOCK?5TRUE?$AA@ DB 'BUSYBLOCK TRUE', 00H ; `string'
CONST	ENDS
;	COMDAT ??_C@_09KOKOOPHP@BUSYBLOCK?$AA@
CONST	SEGMENT
??_C@_09KOKOOPHP@BUSYBLOCK?$AA@ DB 'BUSYBLOCK', 00H	; `string'
CONST	ENDS
;	COMDAT ??_C@_06HKFEAHGA@BUFFER?$AA@
CONST	SEGMENT
??_C@_06HKFEAHGA@BUFFER?$AA@ DB 'BUFFER', 00H		; `string'
CONST	ENDS
;	COMDAT ??_C@_05IAGBLAKG@BREAK?$AA@
CONST	SEGMENT
??_C@_05IAGBLAKG@BREAK?$AA@ DB 'BREAK', 00H		; `string'
CONST	ENDS
;	COMDAT ??_C@_0BE@ICOCEMED@AUTOBREAK?5now?5FALSE?$AA@
CONST	SEGMENT
??_C@_0BE@ICOCEMED@AUTOBREAK?5now?5FALSE?$AA@ DB 'AUTOBREAK now FALSE', 00H ; `string'
CONST	ENDS
;	COMDAT ??_C@_0BD@LLONCGPC@AUTOBREAK?5now?5TRUE?$AA@
CONST	SEGMENT
??_C@_0BD@LLONCGPC@AUTOBREAK?5now?5TRUE?$AA@ DB 'AUTOBREAK now TRUE', 00H ; `string'
CONST	ENDS
;	COMDAT ??_C@_05MAJJAKPI@FALSE?$AA@
CONST	SEGMENT
??_C@_05MAJJAKPI@FALSE?$AA@ DB 'FALSE', 00H		; `string'
CONST	ENDS
;	COMDAT ??_C@_04HCDDPBNL@TRUE?$AA@
CONST	SEGMENT
??_C@_04HCDDPBNL@TRUE?$AA@ DB 'TRUE', 00H		; `string'
CONST	ENDS
;	COMDAT ??_C@_0BA@PCAIKMMJ@AUTOBREAK?5FALSE?$AA@
CONST	SEGMENT
??_C@_0BA@PCAIKMMJ@AUTOBREAK?5FALSE?$AA@ DB 'AUTOBREAK FALSE', 00H ; `string'
CONST	ENDS
;	COMDAT ??_C@_0P@DLPJCDPH@AUTOBREAK?5TRUE?$AA@
CONST	SEGMENT
??_C@_0P@DLPJCDPH@AUTOBREAK?5TRUE?$AA@ DB 'AUTOBREAK TRUE', 00H ; `string'
CONST	ENDS
;	COMDAT ??_C@_09PILLOJHI@AUTOBREAK?$AA@
CONST	SEGMENT
??_C@_09PILLOJHI@AUTOBREAK?$AA@ DB 'AUTOBREAK', 00H	; `string'
CONST	ENDS
;	COMDAT ??_C@_09HDKFPBCF@?$CFs?5now?5?$CFd?$AA@
CONST	SEGMENT
??_C@_09HDKFPBCF@?$CFs?5now?5?$CFd?$AA@ DB '%s now %d', 00H ; `string'
CONST	ENDS
;	COMDAT ??_C@_05DIALNFFA@?$CFs?5?$CFd?$AA@
CONST	SEGMENT
??_C@_05DIALNFFA@?$CFs?5?$CFd?$AA@ DB '%s %d', 00H	; `string'
CONST	ENDS
;	COMDAT ??_C@_0L@PILLEAB@ARQTIMEOUT?$AA@
CONST	SEGMENT
??_C@_0L@PILLEAB@ARQTIMEOUT?$AA@ DB 'ARQTIMEOUT', 00H	; `string'
CONST	ENDS
;	COMDAT ??_C@_0P@PLMKFMGC@Syntax?5Err?3?5?$CFs?$AA@
CONST	SEGMENT
??_C@_0P@PLMKFMGC@Syntax?5Err?3?5?$CFs?$AA@ DB 'Syntax Err: %s', 00H ; `string'
CONST	ENDS
;	COMDAT ??_C@_0BC@HMEBIILF@Not?5from?5mode?5FEC?$AA@
CONST	SEGMENT
??_C@_0BC@HMEBIILF@Not?5from?5mode?5FEC?$AA@ DB 'Not from mode FEC', 00H ; `string'
CONST	ENDS
;	COMDAT ??_C@_0P@NDDKNCMI@MYCALL?5not?5Set?$AA@
CONST	SEGMENT
??_C@_0P@NDDKNCMI@MYCALL?5not?5Set?$AA@ DB 'MYCALL not Set', 00H ; `string'
CONST	ENDS
;	COMDAT ??_C@_02NBMCHJGB@CQ?$AA@
CONST	SEGMENT
??_C@_02NBMCHJGB@CQ?$AA@ DB 'CQ', 00H			; `string'
CONST	ENDS
;	COMDAT ??_C@_07BFMFKIEF@ARQCALL?$AA@
CONST	SEGMENT
??_C@_07BFMFKIEF@ARQCALL?$AA@ DB 'ARQCALL', 00H		; `string'
CONST	ENDS
;	COMDAT ??_C@_0N@HPJFBJLI@ARQBW?5now?5?$CFs?$AA@
CONST	SEGMENT
??_C@_0N@HPJFBJLI@ARQBW?5now?5?$CFs?$AA@ DB 'ARQBW now %s', 00H ; `string'
CONST	ENDS
;	COMDAT ??_C@_0BC@LMEKCHED@Syntax?5Err?3?5?$CFs?5?$CFs?$AA@
CONST	SEGMENT
??_C@_0BC@LMEKCHED@Syntax?5Err?3?5?$CFs?5?$CFs?$AA@ DB 'Syntax Err: %s %s'
	DB	00H						; `string'
CONST	ENDS
;	COMDAT ??_C@_08BALLFDBB@ARQBW?5?$CFs?$AA@
CONST	SEGMENT
??_C@_08BALLFDBB@ARQBW?5?$CFs?$AA@ DB 'ARQBW %s', 00H	; `string'
CONST	ENDS
;	COMDAT ??_C@_05DNLPOBME@ARQBW?$AA@
CONST	SEGMENT
??_C@_05DNLPOBME@ARQBW?$AA@ DB 'ARQBW', 00H		; `string'
CONST	ENDS
;	COMDAT ??_C@_02ODDIIJPA@DD?$AA@
CONST	SEGMENT
??_C@_02ODDIIJPA@DD?$AA@ DB 'DD', 00H			; `string'
CONST	ENDS
;	COMDAT ??_C@_05NKJCKGFJ@ABORT?$AA@
CONST	SEGMENT
??_C@_05NKJCKGFJ@ABORT?$AA@ DB 'ABORT', 00H		; `string'
CONST	ENDS
;	COMDAT ??_C@_0CB@KCIEKCND@?$FLobCommand?5Trace?5FROM?5host?3?5C?3?$CFs@
CONST	SEGMENT
??_C@_0CB@KCIEKCND@?$FLobCommand?5Trace?5FROM?5host?3?5C?3?$CFs@ DB '[obC'
	DB	'ommand Trace FROM host: C:%s', 00H		; `string'
CONST	ENDS
;	COMDAT ??_C@_00CNPNBAHC@?$AA@
CONST	SEGMENT
??_C@_00CNPNBAHC@?$AA@ DB 00H				; `string'
; Function compile flags: /Odtp /RTCsu /ZI
CONST	ENDS
;	COMDAT _ProcessCommandFromHost
_TEXT	SEGMENT
tv998 = -1656						; size = 4
_i$5958 = -1456						; size = 4
_i$5946 = -1444						; size = 4
_i$5935 = -1432						; size = 4
_context$5834 = -1420					; size = 4
_ptr$5833 = -1408					; size = 4
_len$5832 = -1396					; size = 4
_i$5831 = -1384						; size = 4
_i$5792 = -1372						; size = 4
_i$5751 = -1360						; size = 4
_i$5742 = -1348						; size = 4
_i$5703 = -1336						; size = 4
_i$5676 = -1324						; size = 4
_i$5644 = -1312						; size = 4
_i$5593 = -1300						; size = 4
_i$5544 = -1288						; size = 4
_param$5535 = -1276					; size = 4
_strCallParam$5528 = -1264				; size = 4
_i$5514 = -1252						; size = 4
_cmdReply$ = -1240					; size = 1024
_strFault$ = -208					; size = 100
_cmdCopy$ = -100					; size = 80
_ptrParams$ = -12					; size = 4
__$ArrayPad$ = -4					; size = 4
_strCMD$ = 8						; size = 4
_ProcessCommandFromHost PROC				; COMDAT

; 103  : {

  00000	55		 push	 ebp
  00001	8b ec		 mov	 ebp, esp
  00003	81 ec 78 06 00
	00		 sub	 esp, 1656		; 00000678H
  00009	53		 push	 ebx
  0000a	56		 push	 esi
  0000b	57		 push	 edi
  0000c	8d bd 88 f9 ff
	ff		 lea	 edi, DWORD PTR [ebp-1656]
  00012	b9 9e 01 00 00	 mov	 ecx, 414		; 0000019eH
  00017	b8 cc cc cc cc	 mov	 eax, -858993460		; ccccccccH
  0001c	f3 ab		 rep stosd
  0001e	a1 00 00 00 00	 mov	 eax, DWORD PTR ___security_cookie
  00023	33 c5		 xor	 eax, ebp
  00025	89 45 fc	 mov	 DWORD PTR __$ArrayPad$[ebp], eax

; 104  : 	char * ptrParams;
; 105  : 	char cmdCopy[80] = "";

  00028	a0 00 00 00 00	 mov	 al, BYTE PTR ??_C@_00CNPNBAHC@?$AA@
  0002d	88 45 9c	 mov	 BYTE PTR _cmdCopy$[ebp], al
  00030	6a 4f		 push	 79			; 0000004fH
  00032	6a 00		 push	 0
  00034	8d 45 9d	 lea	 eax, DWORD PTR _cmdCopy$[ebp+1]
  00037	50		 push	 eax
  00038	e8 00 00 00 00	 call	 _memset
  0003d	83 c4 0c	 add	 esp, 12			; 0000000cH

; 106  : 	char strFault[100] = "";

  00040	a0 00 00 00 00	 mov	 al, BYTE PTR ??_C@_00CNPNBAHC@?$AA@
  00045	88 85 30 ff ff
	ff		 mov	 BYTE PTR _strFault$[ebp], al
  0004b	6a 63		 push	 99			; 00000063H
  0004d	6a 00		 push	 0
  0004f	8d 85 31 ff ff
	ff		 lea	 eax, DWORD PTR _strFault$[ebp+1]
  00055	50		 push	 eax
  00056	e8 00 00 00 00	 call	 _memset
  0005b	83 c4 0c	 add	 esp, 12			; 0000000cH

; 107  : 	char cmdReply[1024];
; 108  : 
; 109  : 	memcpy(cmdCopy, strCMD, 79);	// save before we split it up

  0005e	6a 4f		 push	 79			; 0000004fH
  00060	8b 45 08	 mov	 eax, DWORD PTR _strCMD$[ebp]
  00063	50		 push	 eax
  00064	8d 4d 9c	 lea	 ecx, DWORD PTR _cmdCopy$[ebp]
  00067	51		 push	 ecx
  00068	e8 00 00 00 00	 call	 _memcpy
  0006d	83 c4 0c	 add	 esp, 12			; 0000000cH

; 110  : 
; 111  : 	_strupr(strCMD);

  00070	8b 45 08	 mov	 eax, DWORD PTR _strCMD$[ebp]
  00073	50		 push	 eax
  00074	e8 00 00 00 00	 call	 __strupr
  00079	83 c4 04	 add	 esp, 4

; 112  : 
; 113  : 	if (CommandTrace) WriteDebugLog(LOGDEBUG, "[obCommand Trace FROM host: C:%s", strCMD);

  0007c	83 3d 00 00 00
	00 00		 cmp	 DWORD PTR _CommandTrace, 0
  00083	74 13		 je	 SHORT $LN294@ProcessCom
  00085	8b 45 08	 mov	 eax, DWORD PTR _strCMD$[ebp]
  00088	50		 push	 eax
  00089	68 00 00 00 00	 push	 OFFSET ??_C@_0CB@KCIEKCND@?$FLobCommand?5Trace?5FROM?5host?3?5C?3?$CFs@
  0008e	6a 07		 push	 7
  00090	e8 00 00 00 00	 call	 _WriteDebugLog
  00095	83 c4 0c	 add	 esp, 12			; 0000000cH
$LN294@ProcessCom:

; 114  : 
; 115  : 	ptrParams = strlop(strCMD, ' ');

  00098	6a 20		 push	 32			; 00000020H
  0009a	8b 45 08	 mov	 eax, DWORD PTR _strCMD$[ebp]
  0009d	50		 push	 eax
  0009e	e8 00 00 00 00	 call	 _strlop
  000a3	83 c4 08	 add	 esp, 8
  000a6	89 45 f4	 mov	 DWORD PTR _ptrParams$[ebp], eax

; 116  : 
; 117  : 	if (strcmp(strCMD, "ABORT") == 0 || strcmp(strCMD, "DD") == 0)

  000a9	68 00 00 00 00	 push	 OFFSET ??_C@_05NKJCKGFJ@ABORT?$AA@
  000ae	8b 45 08	 mov	 eax, DWORD PTR _strCMD$[ebp]
  000b1	50		 push	 eax
  000b2	e8 00 00 00 00	 call	 _strcmp
  000b7	83 c4 08	 add	 esp, 8
  000ba	85 c0		 test	 eax, eax
  000bc	74 15		 je	 SHORT $LN292@ProcessCom
  000be	68 00 00 00 00	 push	 OFFSET ??_C@_02ODDIIJPA@DD?$AA@
  000c3	8b 45 08	 mov	 eax, DWORD PTR _strCMD$[ebp]
  000c6	50		 push	 eax
  000c7	e8 00 00 00 00	 call	 _strcmp
  000cc	83 c4 08	 add	 esp, 8
  000cf	85 c0		 test	 eax, eax
  000d1	75 17		 jne	 SHORT $LN293@ProcessCom
$LN292@ProcessCom:

; 118  : 	{
; 119  : 		Abort();

  000d3	e8 00 00 00 00	 call	 _Abort

; 120  : 		SendReplyToHost("ABORT");

  000d8	68 00 00 00 00	 push	 OFFSET ??_C@_05NKJCKGFJ@ABORT?$AA@
  000dd	e8 00 00 00 00	 call	 _SendReplyToHost
  000e2	83 c4 04	 add	 esp, 4

; 121  : 		goto cmddone;

  000e5	e9 99 26 00 00	 jmp	 $cmddone$5511
$LN293@ProcessCom:

; 122  : 	}
; 123  : 
; 124  : 	if (strcmp(strCMD, "ARQBW") == 0)

  000ea	68 00 00 00 00	 push	 OFFSET ??_C@_05DNLPOBME@ARQBW?$AA@
  000ef	8b 45 08	 mov	 eax, DWORD PTR _strCMD$[ebp]
  000f2	50		 push	 eax
  000f3	e8 00 00 00 00	 call	 _strcmp
  000f8	83 c4 08	 add	 esp, 8
  000fb	85 c0		 test	 eax, eax
  000fd	0f 85 f0 00 00
	00		 jne	 $LN291@ProcessCom

; 125  : 	{
; 126  : 		int i;
; 127  : 
; 128  : 		if (ptrParams == 0)

  00103	83 7d f4 00	 cmp	 DWORD PTR _ptrParams$[ebp], 0
  00107	75 3b		 jne	 SHORT $LN290@ProcessCom

; 129  : 		{
; 130  : 			sprintf(cmdReply, "ARQBW %s", ARQBandwidths[ARQBandwidth]);

  00109	a1 00 00 00 00	 mov	 eax, DWORD PTR _ARQBandwidth
  0010e	6b c0 0c	 imul	 eax, 12			; 0000000cH
  00111	05 00 00 00 00	 add	 eax, OFFSET _ARQBandwidths
  00116	50		 push	 eax
  00117	68 00 00 00 00	 push	 OFFSET ??_C@_08BALLFDBB@ARQBW?5?$CFs?$AA@
  0011c	8d 8d 28 fb ff
	ff		 lea	 ecx, DWORD PTR _cmdReply$[ebp]
  00122	51		 push	 ecx
  00123	e8 00 00 00 00	 call	 _sprintf
  00128	83 c4 0c	 add	 esp, 12			; 0000000cH

; 131  : 			SendReplyToHost(cmdReply);

  0012b	8d 85 28 fb ff
	ff		 lea	 eax, DWORD PTR _cmdReply$[ebp]
  00131	50		 push	 eax
  00132	e8 00 00 00 00	 call	 _SendReplyToHost
  00137	83 c4 04	 add	 esp, 4

; 132  : 			goto cmddone;

  0013a	e9 44 26 00 00	 jmp	 $cmddone$5511

; 133  : 		}
; 134  : 		else

  0013f	e9 aa 00 00 00	 jmp	 $LN289@ProcessCom
$LN290@ProcessCom:

; 135  : 		{
; 136  : 			for (i = 0; i < 8; i++)

  00144	c7 85 1c fb ff
	ff 00 00 00 00	 mov	 DWORD PTR _i$5514[ebp], 0
  0014e	eb 0f		 jmp	 SHORT $LN288@ProcessCom
$LN287@ProcessCom:
  00150	8b 85 1c fb ff
	ff		 mov	 eax, DWORD PTR _i$5514[ebp]
  00156	83 c0 01	 add	 eax, 1
  00159	89 85 1c fb ff
	ff		 mov	 DWORD PTR _i$5514[ebp], eax
$LN288@ProcessCom:
  0015f	83 bd 1c fb ff
	ff 08		 cmp	 DWORD PTR _i$5514[ebp], 8
  00166	7d 23		 jge	 SHORT $LN286@ProcessCom

; 137  : 			{
; 138  : 				if (strcmp(ptrParams, ARQBandwidths[i]) == 0)

  00168	8b 85 1c fb ff
	ff		 mov	 eax, DWORD PTR _i$5514[ebp]
  0016e	6b c0 0c	 imul	 eax, 12			; 0000000cH
  00171	05 00 00 00 00	 add	 eax, OFFSET _ARQBandwidths
  00176	50		 push	 eax
  00177	8b 4d f4	 mov	 ecx, DWORD PTR _ptrParams$[ebp]
  0017a	51		 push	 ecx
  0017b	e8 00 00 00 00	 call	 _strcmp
  00180	83 c4 08	 add	 esp, 8
  00183	85 c0		 test	 eax, eax
  00185	75 02		 jne	 SHORT $LN285@ProcessCom

; 139  : 					break;

  00187	eb 02		 jmp	 SHORT $LN286@ProcessCom
$LN285@ProcessCom:

; 140  : 			}

  00189	eb c5		 jmp	 SHORT $LN287@ProcessCom
$LN286@ProcessCom:

; 141  : 
; 142  : 			if (i == 8)

  0018b	83 bd 1c fb ff
	ff 08		 cmp	 DWORD PTR _i$5514[ebp], 8
  00192	75 1e		 jne	 SHORT $LN284@ProcessCom

; 143  : 				sprintf(strFault, "Syntax Err: %s %s", strCMD, ptrParams);

  00194	8b 45 f4	 mov	 eax, DWORD PTR _ptrParams$[ebp]
  00197	50		 push	 eax
  00198	8b 4d 08	 mov	 ecx, DWORD PTR _strCMD$[ebp]
  0019b	51		 push	 ecx
  0019c	68 00 00 00 00	 push	 OFFSET ??_C@_0BC@LMEKCHED@Syntax?5Err?3?5?$CFs?5?$CFs?$AA@
  001a1	8d 95 30 ff ff
	ff		 lea	 edx, DWORD PTR _strFault$[ebp]
  001a7	52		 push	 edx
  001a8	e8 00 00 00 00	 call	 _sprintf
  001ad	83 c4 10	 add	 esp, 16			; 00000010H

; 144  : 			else

  001b0	eb 3c		 jmp	 SHORT $LN289@ProcessCom
$LN284@ProcessCom:

; 145  : 			{
; 146  : 				ARQBandwidth = i;

  001b2	8b 85 1c fb ff
	ff		 mov	 eax, DWORD PTR _i$5514[ebp]
  001b8	a3 00 00 00 00	 mov	 DWORD PTR _ARQBandwidth, eax

; 147  : 				sprintf(cmdReply, "ARQBW now %s", ARQBandwidths[ARQBandwidth]);

  001bd	a1 00 00 00 00	 mov	 eax, DWORD PTR _ARQBandwidth
  001c2	6b c0 0c	 imul	 eax, 12			; 0000000cH
  001c5	05 00 00 00 00	 add	 eax, OFFSET _ARQBandwidths
  001ca	50		 push	 eax
  001cb	68 00 00 00 00	 push	 OFFSET ??_C@_0N@HPJFBJLI@ARQBW?5now?5?$CFs?$AA@
  001d0	8d 8d 28 fb ff
	ff		 lea	 ecx, DWORD PTR _cmdReply$[ebp]
  001d6	51		 push	 ecx
  001d7	e8 00 00 00 00	 call	 _sprintf
  001dc	83 c4 0c	 add	 esp, 12			; 0000000cH

; 148  : 				SendReplyToHost(cmdReply);

  001df	8d 85 28 fb ff
	ff		 lea	 eax, DWORD PTR _cmdReply$[ebp]
  001e5	50		 push	 eax
  001e6	e8 00 00 00 00	 call	 _SendReplyToHost
  001eb	83 c4 04	 add	 esp, 4
$LN289@ProcessCom:

; 149  : 			}
; 150  : 		}
; 151  : 		goto cmddone;

  001ee	e9 90 25 00 00	 jmp	 $cmddone$5511
$LN291@ProcessCom:

; 152  : 	}
; 153  : 
; 154  : 	if (strcmp(strCMD, "ARQCALL") == 0)

  001f3	68 00 00 00 00	 push	 OFFSET ??_C@_07BFMFKIEF@ARQCALL?$AA@
  001f8	8b 45 08	 mov	 eax, DWORD PTR _strCMD$[ebp]
  001fb	50		 push	 eax
  001fc	e8 00 00 00 00	 call	 _strcmp
  00201	83 c4 08	 add	 esp, 8
  00204	85 c0		 test	 eax, eax
  00206	0f 85 1f 01 00
	00		 jne	 $LN282@ProcessCom

; 155  : 	{
; 156  : 		char * strCallParam = NULL;

  0020c	c7 85 10 fb ff
	ff 00 00 00 00	 mov	 DWORD PTR _strCallParam$5528[ebp], 0

; 157  : 		if (ptrParams)

  00216	83 7d f4 00	 cmp	 DWORD PTR _ptrParams$[ebp], 0
  0021a	74 14		 je	 SHORT $LN281@ProcessCom

; 158  : 			strCallParam = strlop(ptrParams, ' ');

  0021c	6a 20		 push	 32			; 00000020H
  0021e	8b 45 f4	 mov	 eax, DWORD PTR _ptrParams$[ebp]
  00221	50		 push	 eax
  00222	e8 00 00 00 00	 call	 _strlop
  00227	83 c4 08	 add	 esp, 8
  0022a	89 85 10 fb ff
	ff		 mov	 DWORD PTR _strCallParam$5528[ebp], eax
$LN281@ProcessCom:

; 159  : 
; 160  : 		if (strCallParam)

  00230	83 bd 10 fb ff
	ff 00		 cmp	 DWORD PTR _strCallParam$5528[ebp], 0
  00237	0f 84 d1 00 00
	00		 je	 $LN280@ProcessCom

; 161  : 		{
; 162  : 			if ((strcmp(ptrParams, "CQ") == 0) || CheckValidCallsignSyntax(ptrParams))

  0023d	68 00 00 00 00	 push	 OFFSET ??_C@_02NBMCHJGB@CQ?$AA@
  00242	8b 45 f4	 mov	 eax, DWORD PTR _ptrParams$[ebp]
  00245	50		 push	 eax
  00246	e8 00 00 00 00	 call	 _strcmp
  0024b	83 c4 08	 add	 esp, 8
  0024e	85 c0		 test	 eax, eax
  00250	74 14		 je	 SHORT $LN278@ProcessCom
  00252	8b 45 f4	 mov	 eax, DWORD PTR _ptrParams$[ebp]
  00255	50		 push	 eax
  00256	e8 00 00 00 00	 call	 _CheckValidCallsignSyntax
  0025b	83 c4 04	 add	 esp, 4
  0025e	85 c0		 test	 eax, eax
  00260	0f 84 a8 00 00
	00		 je	 $LN280@ProcessCom
$LN278@ProcessCom:

; 163  : 			{
; 164  : 				int param = atoi(strCallParam);

  00266	8b 85 10 fb ff
	ff		 mov	 eax, DWORD PTR _strCallParam$5528[ebp]
  0026c	50		 push	 eax
  0026d	e8 00 00 00 00	 call	 _atoi
  00272	83 c4 04	 add	 esp, 4
  00275	89 85 04 fb ff
	ff		 mov	 DWORD PTR _param$5535[ebp], eax

; 165  : 
; 166  : 				if (param > 1 && param < 16)

  0027b	83 bd 04 fb ff
	ff 01		 cmp	 DWORD PTR _param$5535[ebp], 1
  00282	0f 8e 86 00 00
	00		 jle	 $LN280@ProcessCom
  00288	83 bd 04 fb ff
	ff 10		 cmp	 DWORD PTR _param$5535[ebp], 16 ; 00000010H
  0028f	7d 7d		 jge	 SHORT $LN280@ProcessCom

; 167  : 				{
; 168  : 					if (Callsign[0] == 0)

  00291	0f be 05 00 00
	00 00		 movsx	 eax, BYTE PTR _Callsign
  00298	85 c0		 test	 eax, eax
  0029a	75 19		 jne	 SHORT $LN276@ProcessCom

; 169  : 					{
; 170  : 						sprintf(strFault, "MYCALL not Set");

  0029c	68 00 00 00 00	 push	 OFFSET ??_C@_0P@NDDKNCMI@MYCALL?5not?5Set?$AA@
  002a1	8d 85 30 ff ff
	ff		 lea	 eax, DWORD PTR _strFault$[ebp]
  002a7	50		 push	 eax
  002a8	e8 00 00 00 00	 call	 _sprintf
  002ad	83 c4 08	 add	 esp, 8

; 171  : 						goto cmddone;

  002b0	e9 ce 24 00 00	 jmp	 $cmddone$5511
$LN276@ProcessCom:

; 172  : 					}
; 173  : 						
; 174  : 					if (ProtocolMode == ARQ)

  002b5	83 3d 00 00 00
	00 02		 cmp	 DWORD PTR _ProtocolMode, 2
  002bc	75 37		 jne	 SHORT $LN275@ProcessCom

; 175  : 					{
; 176  : 						ARQConReqRepeats = param;

  002be	8b 85 04 fb ff
	ff		 mov	 eax, DWORD PTR _param$5535[ebp]
  002c4	a3 00 00 00 00	 mov	 DWORD PTR _ARQConReqRepeats, eax

; 177  : 
; 178  : 						NeedConReq =  TRUE;

  002c9	c7 05 00 00 00
	00 01 00 00 00	 mov	 DWORD PTR _NeedConReq, 1

; 179  : 						strcpy(ConnectToCall, ptrParams);

  002d3	8b 45 f4	 mov	 eax, DWORD PTR _ptrParams$[ebp]
  002d6	50		 push	 eax
  002d7	68 00 00 00 00	 push	 OFFSET _ConnectToCall
  002dc	e8 00 00 00 00	 call	 _strcpy
  002e1	83 c4 08	 add	 esp, 8

; 180  : 						SendReplyToHost(cmdCopy);

  002e4	8d 45 9c	 lea	 eax, DWORD PTR _cmdCopy$[ebp]
  002e7	50		 push	 eax
  002e8	e8 00 00 00 00	 call	 _SendReplyToHost
  002ed	83 c4 04	 add	 esp, 4

; 181  : 						goto cmddone;

  002f0	e9 8e 24 00 00	 jmp	 $cmddone$5511
$LN275@ProcessCom:

; 182  : 					}
; 183  : 					sprintf(strFault, "Not from mode FEC");

  002f5	68 00 00 00 00	 push	 OFFSET ??_C@_0BC@HMEBIILF@Not?5from?5mode?5FEC?$AA@
  002fa	8d 85 30 ff ff
	ff		 lea	 eax, DWORD PTR _strFault$[ebp]
  00300	50		 push	 eax
  00301	e8 00 00 00 00	 call	 _sprintf
  00306	83 c4 08	 add	 esp, 8

; 184  : 					goto cmddone;

  00309	e9 75 24 00 00	 jmp	 $cmddone$5511
$LN280@ProcessCom:

; 185  : 				}
; 186  : 			}
; 187  : 		}
; 188  : 		sprintf(strFault, "Syntax Err: %s", cmdCopy);

  0030e	8d 45 9c	 lea	 eax, DWORD PTR _cmdCopy$[ebp]
  00311	50		 push	 eax
  00312	68 00 00 00 00	 push	 OFFSET ??_C@_0P@PLMKFMGC@Syntax?5Err?3?5?$CFs?$AA@
  00317	8d 8d 30 ff ff
	ff		 lea	 ecx, DWORD PTR _strFault$[ebp]
  0031d	51		 push	 ecx
  0031e	e8 00 00 00 00	 call	 _sprintf
  00323	83 c4 0c	 add	 esp, 12			; 0000000cH

; 189  : 		goto cmddone;

  00326	e9 58 24 00 00	 jmp	 $cmddone$5511
$LN282@ProcessCom:

; 190  : 	}
; 191  : 
; 192  : 	if (strcmp(strCMD, "ARQTIMEOUT") == 0)

  0032b	68 00 00 00 00	 push	 OFFSET ??_C@_0L@PILLEAB@ARQTIMEOUT?$AA@
  00330	8b 45 08	 mov	 eax, DWORD PTR _strCMD$[ebp]
  00333	50		 push	 eax
  00334	e8 00 00 00 00	 call	 _strcmp
  00339	83 c4 08	 add	 esp, 8
  0033c	85 c0		 test	 eax, eax
  0033e	0f 85 bc 00 00
	00		 jne	 $LN274@ProcessCom

; 193  : 	{
; 194  : 		int i;
; 195  : 
; 196  : 		if (ptrParams == 0)

  00344	83 7d f4 00	 cmp	 DWORD PTR _ptrParams$[ebp], 0
  00348	75 34		 jne	 SHORT $LN273@ProcessCom

; 197  : 		{
; 198  : 			sprintf(cmdReply, "%s %d", strCMD, ARQTimeout);

  0034a	a1 00 00 00 00	 mov	 eax, DWORD PTR _ARQTimeout
  0034f	50		 push	 eax
  00350	8b 4d 08	 mov	 ecx, DWORD PTR _strCMD$[ebp]
  00353	51		 push	 ecx
  00354	68 00 00 00 00	 push	 OFFSET ??_C@_05DIALNFFA@?$CFs?5?$CFd?$AA@
  00359	8d 95 28 fb ff
	ff		 lea	 edx, DWORD PTR _cmdReply$[ebp]
  0035f	52		 push	 edx
  00360	e8 00 00 00 00	 call	 _sprintf
  00365	83 c4 10	 add	 esp, 16			; 00000010H

; 199  : 			SendReplyToHost(cmdReply);

  00368	8d 85 28 fb ff
	ff		 lea	 eax, DWORD PTR _cmdReply$[ebp]
  0036e	50		 push	 eax
  0036f	e8 00 00 00 00	 call	 _SendReplyToHost
  00374	83 c4 04	 add	 esp, 4

; 200  : 			goto cmddone;

  00377	e9 07 24 00 00	 jmp	 $cmddone$5511

; 201  : 		}
; 202  : 		else

  0037c	eb 7d		 jmp	 SHORT $LN272@ProcessCom
$LN273@ProcessCom:

; 203  : 		{
; 204  : 			i = atoi(ptrParams);

  0037e	8b 45 f4	 mov	 eax, DWORD PTR _ptrParams$[ebp]
  00381	50		 push	 eax
  00382	e8 00 00 00 00	 call	 _atoi
  00387	83 c4 04	 add	 esp, 4
  0038a	89 85 f8 fa ff
	ff		 mov	 DWORD PTR _i$5544[ebp], eax

; 205  : 
; 206  : 			if (i > 29 && i < 241)	

  00390	83 bd f8 fa ff
	ff 1d		 cmp	 DWORD PTR _i$5544[ebp], 29 ; 0000001dH
  00397	7e 46		 jle	 SHORT $LN271@ProcessCom
  00399	81 bd f8 fa ff
	ff f1 00 00 00	 cmp	 DWORD PTR _i$5544[ebp], 241 ; 000000f1H
  003a3	7d 3a		 jge	 SHORT $LN271@ProcessCom

; 207  : 			{
; 208  : 				ARQTimeout = i;

  003a5	8b 85 f8 fa ff
	ff		 mov	 eax, DWORD PTR _i$5544[ebp]
  003ab	a3 00 00 00 00	 mov	 DWORD PTR _ARQTimeout, eax

; 209  : 				sprintf(cmdReply, "%s now %d", strCMD, ARQTimeout);

  003b0	a1 00 00 00 00	 mov	 eax, DWORD PTR _ARQTimeout
  003b5	50		 push	 eax
  003b6	8b 4d 08	 mov	 ecx, DWORD PTR _strCMD$[ebp]
  003b9	51		 push	 ecx
  003ba	68 00 00 00 00	 push	 OFFSET ??_C@_09HDKFPBCF@?$CFs?5now?5?$CFd?$AA@
  003bf	8d 95 28 fb ff
	ff		 lea	 edx, DWORD PTR _cmdReply$[ebp]
  003c5	52		 push	 edx
  003c6	e8 00 00 00 00	 call	 _sprintf
  003cb	83 c4 10	 add	 esp, 16			; 00000010H

; 210  : 				SendReplyToHost(cmdReply);

  003ce	8d 85 28 fb ff
	ff		 lea	 eax, DWORD PTR _cmdReply$[ebp]
  003d4	50		 push	 eax
  003d5	e8 00 00 00 00	 call	 _SendReplyToHost
  003da	83 c4 04	 add	 esp, 4

; 211  : 			}
; 212  : 			else

  003dd	eb 1c		 jmp	 SHORT $LN272@ProcessCom
$LN271@ProcessCom:

; 213  : 				sprintf(strFault, "Syntax Err: %s %s", strCMD, ptrParams);	

  003df	8b 45 f4	 mov	 eax, DWORD PTR _ptrParams$[ebp]
  003e2	50		 push	 eax
  003e3	8b 4d 08	 mov	 ecx, DWORD PTR _strCMD$[ebp]
  003e6	51		 push	 ecx
  003e7	68 00 00 00 00	 push	 OFFSET ??_C@_0BC@LMEKCHED@Syntax?5Err?3?5?$CFs?5?$CFs?$AA@
  003ec	8d 95 30 ff ff
	ff		 lea	 edx, DWORD PTR _strFault$[ebp]
  003f2	52		 push	 edx
  003f3	e8 00 00 00 00	 call	 _sprintf
  003f8	83 c4 10	 add	 esp, 16			; 00000010H
$LN272@ProcessCom:

; 214  : 		}
; 215  : 		goto cmddone;

  003fb	e9 83 23 00 00	 jmp	 $cmddone$5511
$LN274@ProcessCom:

; 216  : 	}
; 217  :    
; 218  : 	if (strcmp(strCMD, "AUTOBREAK") == 0)

  00400	68 00 00 00 00	 push	 OFFSET ??_C@_09PILLOJHI@AUTOBREAK?$AA@
  00405	8b 45 08	 mov	 eax, DWORD PTR _strCMD$[ebp]
  00408	50		 push	 eax
  00409	e8 00 00 00 00	 call	 _strcmp
  0040e	83 c4 08	 add	 esp, 8
  00411	85 c0		 test	 eax, eax
  00413	0f 85 f7 00 00
	00		 jne	 $LN269@ProcessCom

; 219  : 	{
; 220  : 		if (ptrParams == NULL)

  00419	83 7d f4 00	 cmp	 DWORD PTR _ptrParams$[ebp], 0
  0041d	75 47		 jne	 SHORT $LN268@ProcessCom

; 221  : 		{
; 222  : 			if (AutoBreak)

  0041f	83 3d 00 00 00
	00 00		 cmp	 DWORD PTR _AutoBreak, 0
  00426	74 16		 je	 SHORT $LN267@ProcessCom

; 223  : 				sprintf(cmdReply, "AUTOBREAK TRUE");

  00428	68 00 00 00 00	 push	 OFFSET ??_C@_0P@DLPJCDPH@AUTOBREAK?5TRUE?$AA@
  0042d	8d 85 28 fb ff
	ff		 lea	 eax, DWORD PTR _cmdReply$[ebp]
  00433	50		 push	 eax
  00434	e8 00 00 00 00	 call	 _sprintf
  00439	83 c4 08	 add	 esp, 8

; 224  : 			else

  0043c	eb 14		 jmp	 SHORT $LN266@ProcessCom
$LN267@ProcessCom:

; 225  : 				sprintf(cmdReply, "AUTOBREAK FALSE");

  0043e	68 00 00 00 00	 push	 OFFSET ??_C@_0BA@PCAIKMMJ@AUTOBREAK?5FALSE?$AA@
  00443	8d 85 28 fb ff
	ff		 lea	 eax, DWORD PTR _cmdReply$[ebp]
  00449	50		 push	 eax
  0044a	e8 00 00 00 00	 call	 _sprintf
  0044f	83 c4 08	 add	 esp, 8
$LN266@ProcessCom:

; 226  : 
; 227  : 			SendReplyToHost(cmdReply);

  00452	8d 85 28 fb ff
	ff		 lea	 eax, DWORD PTR _cmdReply$[ebp]
  00458	50		 push	 eax
  00459	e8 00 00 00 00	 call	 _SendReplyToHost
  0045e	83 c4 04	 add	 esp, 4

; 228  : 			goto cmddone;

  00461	e9 1d 23 00 00	 jmp	 $cmddone$5511
$LN268@ProcessCom:

; 229  : 		}
; 230  : 		
; 231  : 		if (strcmp(ptrParams, "TRUE") == 0)

  00466	68 00 00 00 00	 push	 OFFSET ??_C@_04HCDDPBNL@TRUE?$AA@
  0046b	8b 45 f4	 mov	 eax, DWORD PTR _ptrParams$[ebp]
  0046e	50		 push	 eax
  0046f	e8 00 00 00 00	 call	 _strcmp
  00474	83 c4 08	 add	 esp, 8
  00477	85 c0		 test	 eax, eax
  00479	75 0c		 jne	 SHORT $LN265@ProcessCom

; 232  : 			AutoBreak = TRUE;

  0047b	c7 05 00 00 00
	00 01 00 00 00	 mov	 DWORD PTR _AutoBreak, 1

; 233  : 		else 

  00485	eb 42		 jmp	 SHORT $LN264@ProcessCom
$LN265@ProcessCom:

; 234  : 		if (strcmp(ptrParams, "FALSE") == 0)

  00487	68 00 00 00 00	 push	 OFFSET ??_C@_05MAJJAKPI@FALSE?$AA@
  0048c	8b 45 f4	 mov	 eax, DWORD PTR _ptrParams$[ebp]
  0048f	50		 push	 eax
  00490	e8 00 00 00 00	 call	 _strcmp
  00495	83 c4 08	 add	 esp, 8
  00498	85 c0		 test	 eax, eax
  0049a	75 0c		 jne	 SHORT $LN263@ProcessCom

; 235  : 			AutoBreak = FALSE;

  0049c	c7 05 00 00 00
	00 00 00 00 00	 mov	 DWORD PTR _AutoBreak, 0

; 236  : 		else

  004a6	eb 21		 jmp	 SHORT $LN264@ProcessCom
$LN263@ProcessCom:

; 237  : 		{
; 238  : 			sprintf(strFault, "Syntax Err: %s %s", strCMD, ptrParams);

  004a8	8b 45 f4	 mov	 eax, DWORD PTR _ptrParams$[ebp]
  004ab	50		 push	 eax
  004ac	8b 4d 08	 mov	 ecx, DWORD PTR _strCMD$[ebp]
  004af	51		 push	 ecx
  004b0	68 00 00 00 00	 push	 OFFSET ??_C@_0BC@LMEKCHED@Syntax?5Err?3?5?$CFs?5?$CFs?$AA@
  004b5	8d 95 30 ff ff
	ff		 lea	 edx, DWORD PTR _strFault$[ebp]
  004bb	52		 push	 edx
  004bc	e8 00 00 00 00	 call	 _sprintf
  004c1	83 c4 10	 add	 esp, 16			; 00000010H

; 239  : 			goto cmddone;

  004c4	e9 ba 22 00 00	 jmp	 $cmddone$5511
$LN264@ProcessCom:

; 240  : 		}
; 241  : 
; 242  : 		if (AutoBreak)

  004c9	83 3d 00 00 00
	00 00		 cmp	 DWORD PTR _AutoBreak, 0
  004d0	74 16		 je	 SHORT $LN261@ProcessCom

; 243  : 			sprintf(cmdReply, "AUTOBREAK now TRUE");

  004d2	68 00 00 00 00	 push	 OFFSET ??_C@_0BD@LLONCGPC@AUTOBREAK?5now?5TRUE?$AA@
  004d7	8d 85 28 fb ff
	ff		 lea	 eax, DWORD PTR _cmdReply$[ebp]
  004dd	50		 push	 eax
  004de	e8 00 00 00 00	 call	 _sprintf
  004e3	83 c4 08	 add	 esp, 8

; 244  : 		else

  004e6	eb 14		 jmp	 SHORT $LN260@ProcessCom
$LN261@ProcessCom:

; 245  : 			sprintf(cmdReply, "AUTOBREAK now FALSE");

  004e8	68 00 00 00 00	 push	 OFFSET ??_C@_0BE@ICOCEMED@AUTOBREAK?5now?5FALSE?$AA@
  004ed	8d 85 28 fb ff
	ff		 lea	 eax, DWORD PTR _cmdReply$[ebp]
  004f3	50		 push	 eax
  004f4	e8 00 00 00 00	 call	 _sprintf
  004f9	83 c4 08	 add	 esp, 8
$LN260@ProcessCom:

; 246  : 
; 247  : 		SendReplyToHost(cmdReply);

  004fc	8d 85 28 fb ff
	ff		 lea	 eax, DWORD PTR _cmdReply$[ebp]
  00502	50		 push	 eax
  00503	e8 00 00 00 00	 call	 _SendReplyToHost
  00508	83 c4 04	 add	 esp, 4

; 248  : 		goto cmddone;

  0050b	e9 73 22 00 00	 jmp	 $cmddone$5511
$LN269@ProcessCom:

; 249  : 	}
; 250  : 
; 251  : 	if (strcmp(strCMD, "BREAK") == 0)

  00510	68 00 00 00 00	 push	 OFFSET ??_C@_05IAGBLAKG@BREAK?$AA@
  00515	8b 45 08	 mov	 eax, DWORD PTR _strCMD$[ebp]
  00518	50		 push	 eax
  00519	e8 00 00 00 00	 call	 _strcmp
  0051e	83 c4 08	 add	 esp, 8
  00521	85 c0		 test	 eax, eax
  00523	75 0a		 jne	 SHORT $LN259@ProcessCom

; 252  : 	{
; 253  : 		Break();

  00525	e8 00 00 00 00	 call	 _Break

; 254  : 		goto cmddone;  

  0052a	e9 54 22 00 00	 jmp	 $cmddone$5511
$LN259@ProcessCom:

; 255  : 	}
; 256  : 
; 257  : 	if (strcmp(strCMD, "BUFFER") == 0)

  0052f	68 00 00 00 00	 push	 OFFSET ??_C@_06HKFEAHGA@BUFFER?$AA@
  00534	8b 45 08	 mov	 eax, DWORD PTR _strCMD$[ebp]
  00537	50		 push	 eax
  00538	e8 00 00 00 00	 call	 _strcmp
  0053d	83 c4 08	 add	 esp, 8
  00540	85 c0		 test	 eax, eax
  00542	75 56		 jne	 SHORT $LN258@ProcessCom

; 258  : 	{
; 259  : 		if (ptrParams == 0)

  00544	83 7d f4 00	 cmp	 DWORD PTR _ptrParams$[ebp], 0
  00548	75 2f		 jne	 SHORT $LN257@ProcessCom

; 260  : 		{
; 261  : 			sprintf(cmdReply, "%s %d", strCMD, bytDataToSendLength);

  0054a	a1 00 00 00 00	 mov	 eax, DWORD PTR _bytDataToSendLength
  0054f	50		 push	 eax
  00550	8b 4d 08	 mov	 ecx, DWORD PTR _strCMD$[ebp]
  00553	51		 push	 ecx
  00554	68 00 00 00 00	 push	 OFFSET ??_C@_05DIALNFFA@?$CFs?5?$CFd?$AA@
  00559	8d 95 28 fb ff
	ff		 lea	 edx, DWORD PTR _cmdReply$[ebp]
  0055f	52		 push	 edx
  00560	e8 00 00 00 00	 call	 _sprintf
  00565	83 c4 10	 add	 esp, 16			; 00000010H

; 262  : 			SendReplyToHost(cmdReply);

  00568	8d 85 28 fb ff
	ff		 lea	 eax, DWORD PTR _cmdReply$[ebp]
  0056e	50		 push	 eax
  0056f	e8 00 00 00 00	 call	 _SendReplyToHost
  00574	83 c4 04	 add	 esp, 4

; 263  : 		}
; 264  : 		else

  00577	eb 1c		 jmp	 SHORT $LN256@ProcessCom
$LN257@ProcessCom:

; 265  : 			sprintf(strFault, "Syntax Err: %s %s", strCMD, ptrParams);

  00579	8b 45 f4	 mov	 eax, DWORD PTR _ptrParams$[ebp]
  0057c	50		 push	 eax
  0057d	8b 4d 08	 mov	 ecx, DWORD PTR _strCMD$[ebp]
  00580	51		 push	 ecx
  00581	68 00 00 00 00	 push	 OFFSET ??_C@_0BC@LMEKCHED@Syntax?5Err?3?5?$CFs?5?$CFs?$AA@
  00586	8d 95 30 ff ff
	ff		 lea	 edx, DWORD PTR _strFault$[ebp]
  0058c	52		 push	 edx
  0058d	e8 00 00 00 00	 call	 _sprintf
  00592	83 c4 10	 add	 esp, 16			; 00000010H
$LN256@ProcessCom:

; 266  : 
; 267  : 		goto cmddone;

  00595	e9 e9 21 00 00	 jmp	 $cmddone$5511
$LN258@ProcessCom:

; 268  : 	}
; 269  : 			
; 270  : 	if (strcmp(strCMD, "BUSYBLOCK") == 0)

  0059a	68 00 00 00 00	 push	 OFFSET ??_C@_09KOKOOPHP@BUSYBLOCK?$AA@
  0059f	8b 45 08	 mov	 eax, DWORD PTR _strCMD$[ebp]
  005a2	50		 push	 eax
  005a3	e8 00 00 00 00	 call	 _strcmp
  005a8	83 c4 08	 add	 esp, 8
  005ab	85 c0		 test	 eax, eax
  005ad	0f 85 f7 00 00
	00		 jne	 $LN255@ProcessCom

; 271  : 	{
; 272  : 		if (ptrParams == NULL)

  005b3	83 7d f4 00	 cmp	 DWORD PTR _ptrParams$[ebp], 0
  005b7	75 47		 jne	 SHORT $LN254@ProcessCom

; 273  : 		{
; 274  : 			if (BusyBlock)

  005b9	83 3d 00 00 00
	00 00		 cmp	 DWORD PTR _BusyBlock, 0
  005c0	74 16		 je	 SHORT $LN253@ProcessCom

; 275  : 				sprintf(cmdReply, "BUSYBLOCK TRUE");

  005c2	68 00 00 00 00	 push	 OFFSET ??_C@_0P@FKLODLHC@BUSYBLOCK?5TRUE?$AA@
  005c7	8d 85 28 fb ff
	ff		 lea	 eax, DWORD PTR _cmdReply$[ebp]
  005cd	50		 push	 eax
  005ce	e8 00 00 00 00	 call	 _sprintf
  005d3	83 c4 08	 add	 esp, 8

; 276  : 			else

  005d6	eb 14		 jmp	 SHORT $LN252@ProcessCom
$LN253@ProcessCom:

; 277  : 				sprintf(cmdReply, "BUSYBLOCK FALSE");

  005d8	68 00 00 00 00	 push	 OFFSET ??_C@_0BA@GPLLJMHO@BUSYBLOCK?5FALSE?$AA@
  005dd	8d 85 28 fb ff
	ff		 lea	 eax, DWORD PTR _cmdReply$[ebp]
  005e3	50		 push	 eax
  005e4	e8 00 00 00 00	 call	 _sprintf
  005e9	83 c4 08	 add	 esp, 8
$LN252@ProcessCom:

; 278  : 
; 279  : 			SendReplyToHost(cmdReply);

  005ec	8d 85 28 fb ff
	ff		 lea	 eax, DWORD PTR _cmdReply$[ebp]
  005f2	50		 push	 eax
  005f3	e8 00 00 00 00	 call	 _SendReplyToHost
  005f8	83 c4 04	 add	 esp, 4

; 280  : 			goto cmddone;

  005fb	e9 83 21 00 00	 jmp	 $cmddone$5511
$LN254@ProcessCom:

; 281  : 		}
; 282  : 		
; 283  : 		if (strcmp(ptrParams, "TRUE") == 0)

  00600	68 00 00 00 00	 push	 OFFSET ??_C@_04HCDDPBNL@TRUE?$AA@
  00605	8b 45 f4	 mov	 eax, DWORD PTR _ptrParams$[ebp]
  00608	50		 push	 eax
  00609	e8 00 00 00 00	 call	 _strcmp
  0060e	83 c4 08	 add	 esp, 8
  00611	85 c0		 test	 eax, eax
  00613	75 0c		 jne	 SHORT $LN251@ProcessCom

; 284  : 			BusyBlock = TRUE;

  00615	c7 05 00 00 00
	00 01 00 00 00	 mov	 DWORD PTR _BusyBlock, 1

; 285  : 		else 

  0061f	eb 42		 jmp	 SHORT $LN250@ProcessCom
$LN251@ProcessCom:

; 286  : 		if (strcmp(ptrParams, "FALSE") == 0)

  00621	68 00 00 00 00	 push	 OFFSET ??_C@_05MAJJAKPI@FALSE?$AA@
  00626	8b 45 f4	 mov	 eax, DWORD PTR _ptrParams$[ebp]
  00629	50		 push	 eax
  0062a	e8 00 00 00 00	 call	 _strcmp
  0062f	83 c4 08	 add	 esp, 8
  00632	85 c0		 test	 eax, eax
  00634	75 0c		 jne	 SHORT $LN249@ProcessCom

; 287  : 			BusyBlock = FALSE;

  00636	c7 05 00 00 00
	00 00 00 00 00	 mov	 DWORD PTR _BusyBlock, 0

; 288  : 		else

  00640	eb 21		 jmp	 SHORT $LN250@ProcessCom
$LN249@ProcessCom:

; 289  : 		{
; 290  : 			sprintf(strFault, "Syntax Err: %s %s", strCMD, ptrParams);

  00642	8b 45 f4	 mov	 eax, DWORD PTR _ptrParams$[ebp]
  00645	50		 push	 eax
  00646	8b 4d 08	 mov	 ecx, DWORD PTR _strCMD$[ebp]
  00649	51		 push	 ecx
  0064a	68 00 00 00 00	 push	 OFFSET ??_C@_0BC@LMEKCHED@Syntax?5Err?3?5?$CFs?5?$CFs?$AA@
  0064f	8d 95 30 ff ff
	ff		 lea	 edx, DWORD PTR _strFault$[ebp]
  00655	52		 push	 edx
  00656	e8 00 00 00 00	 call	 _sprintf
  0065b	83 c4 10	 add	 esp, 16			; 00000010H

; 291  : 			goto cmddone;

  0065e	e9 20 21 00 00	 jmp	 $cmddone$5511
$LN250@ProcessCom:

; 292  : 		}
; 293  : 		if (BusyBlock)

  00663	83 3d 00 00 00
	00 00		 cmp	 DWORD PTR _BusyBlock, 0
  0066a	74 16		 je	 SHORT $LN247@ProcessCom

; 294  : 			sprintf(cmdReply, "BUSYBLOCK now TRUE");

  0066c	68 00 00 00 00	 push	 OFFSET ??_C@_0BD@PGNCBKDP@BUSYBLOCK?5now?5TRUE?$AA@
  00671	8d 85 28 fb ff
	ff		 lea	 eax, DWORD PTR _cmdReply$[ebp]
  00677	50		 push	 eax
  00678	e8 00 00 00 00	 call	 _sprintf
  0067d	83 c4 08	 add	 esp, 8

; 295  : 		else

  00680	eb 14		 jmp	 SHORT $LN246@ProcessCom
$LN247@ProcessCom:

; 296  : 			sprintf(cmdReply, "BUSYBLOCK now FALSE");

  00682	68 00 00 00 00	 push	 OFFSET ??_C@_0BE@GHHKMNHC@BUSYBLOCK?5now?5FALSE?$AA@
  00687	8d 85 28 fb ff
	ff		 lea	 eax, DWORD PTR _cmdReply$[ebp]
  0068d	50		 push	 eax
  0068e	e8 00 00 00 00	 call	 _sprintf
  00693	83 c4 08	 add	 esp, 8
$LN246@ProcessCom:

; 297  : 		
; 298  : 		SendReplyToHost(cmdReply);

  00696	8d 85 28 fb ff
	ff		 lea	 eax, DWORD PTR _cmdReply$[ebp]
  0069c	50		 push	 eax
  0069d	e8 00 00 00 00	 call	 _SendReplyToHost
  006a2	83 c4 04	 add	 esp, 4

; 299  : 		goto cmddone;

  006a5	e9 d9 20 00 00	 jmp	 $cmddone$5511
$LN255@ProcessCom:

; 300  : 	}
; 301  :  
; 302  : 	if (strcmp(strCMD, "BUSYDET") == 0)

  006aa	68 00 00 00 00	 push	 OFFSET ??_C@_07IDGBOMOE@BUSYDET?$AA@
  006af	8b 45 08	 mov	 eax, DWORD PTR _strCMD$[ebp]
  006b2	50		 push	 eax
  006b3	e8 00 00 00 00	 call	 _strcmp
  006b8	83 c4 08	 add	 esp, 8
  006bb	85 c0		 test	 eax, eax
  006bd	0f 85 b4 00 00
	00		 jne	 $LN245@ProcessCom

; 303  : 	{
; 304  : 		int i;
; 305  : 
; 306  : 		if (ptrParams == 0)

  006c3	83 7d f4 00	 cmp	 DWORD PTR _ptrParams$[ebp], 0
  006c7	75 2f		 jne	 SHORT $LN244@ProcessCom

; 307  : 		{
; 308  : 			sprintf(cmdReply, "%s %d", strCMD, BusyDet);

  006c9	a1 00 00 00 00	 mov	 eax, DWORD PTR _BusyDet
  006ce	50		 push	 eax
  006cf	8b 4d 08	 mov	 ecx, DWORD PTR _strCMD$[ebp]
  006d2	51		 push	 ecx
  006d3	68 00 00 00 00	 push	 OFFSET ??_C@_05DIALNFFA@?$CFs?5?$CFd?$AA@
  006d8	8d 95 28 fb ff
	ff		 lea	 edx, DWORD PTR _cmdReply$[ebp]
  006de	52		 push	 edx
  006df	e8 00 00 00 00	 call	 _sprintf
  006e4	83 c4 10	 add	 esp, 16			; 00000010H

; 309  : 			SendReplyToHost(cmdReply);

  006e7	8d 85 28 fb ff
	ff		 lea	 eax, DWORD PTR _cmdReply$[ebp]
  006ed	50		 push	 eax
  006ee	e8 00 00 00 00	 call	 _SendReplyToHost
  006f3	83 c4 04	 add	 esp, 4

; 310  : 		}
; 311  : 		else

  006f6	eb 7a		 jmp	 SHORT $LN243@ProcessCom
$LN244@ProcessCom:

; 312  : 		{
; 313  : 			i = atoi(ptrParams);

  006f8	8b 45 f4	 mov	 eax, DWORD PTR _ptrParams$[ebp]
  006fb	50		 push	 eax
  006fc	e8 00 00 00 00	 call	 _atoi
  00701	83 c4 04	 add	 esp, 4
  00704	89 85 ec fa ff
	ff		 mov	 DWORD PTR _i$5593[ebp], eax

; 314  : 
; 315  : 			if (i >= 1  && i <= 10)

  0070a	83 bd ec fa ff
	ff 01		 cmp	 DWORD PTR _i$5593[ebp], 1
  00711	7c 43		 jl	 SHORT $LN242@ProcessCom
  00713	83 bd ec fa ff
	ff 0a		 cmp	 DWORD PTR _i$5593[ebp], 10 ; 0000000aH
  0071a	7f 3a		 jg	 SHORT $LN242@ProcessCom

; 316  : 			{
; 317  : 				BusyDet = i;

  0071c	8b 85 ec fa ff
	ff		 mov	 eax, DWORD PTR _i$5593[ebp]
  00722	a3 00 00 00 00	 mov	 DWORD PTR _BusyDet, eax

; 318  : 				sprintf(cmdReply, "%s now %d", strCMD, BusyDet);

  00727	a1 00 00 00 00	 mov	 eax, DWORD PTR _BusyDet
  0072c	50		 push	 eax
  0072d	8b 4d 08	 mov	 ecx, DWORD PTR _strCMD$[ebp]
  00730	51		 push	 ecx
  00731	68 00 00 00 00	 push	 OFFSET ??_C@_09HDKFPBCF@?$CFs?5now?5?$CFd?$AA@
  00736	8d 95 28 fb ff
	ff		 lea	 edx, DWORD PTR _cmdReply$[ebp]
  0073c	52		 push	 edx
  0073d	e8 00 00 00 00	 call	 _sprintf
  00742	83 c4 10	 add	 esp, 16			; 00000010H

; 319  : 				SendReplyToHost(cmdReply);

  00745	8d 85 28 fb ff
	ff		 lea	 eax, DWORD PTR _cmdReply$[ebp]
  0074b	50		 push	 eax
  0074c	e8 00 00 00 00	 call	 _SendReplyToHost
  00751	83 c4 04	 add	 esp, 4

; 320  : 
; 321  : 			}
; 322  : 			else

  00754	eb 1c		 jmp	 SHORT $LN243@ProcessCom
$LN242@ProcessCom:

; 323  : 				sprintf(strFault, "Syntax Err: %s %s", strCMD, ptrParams);	

  00756	8b 45 f4	 mov	 eax, DWORD PTR _ptrParams$[ebp]
  00759	50		 push	 eax
  0075a	8b 4d 08	 mov	 ecx, DWORD PTR _strCMD$[ebp]
  0075d	51		 push	 ecx
  0075e	68 00 00 00 00	 push	 OFFSET ??_C@_0BC@LMEKCHED@Syntax?5Err?3?5?$CFs?5?$CFs?$AA@
  00763	8d 95 30 ff ff
	ff		 lea	 edx, DWORD PTR _strFault$[ebp]
  00769	52		 push	 edx
  0076a	e8 00 00 00 00	 call	 _sprintf
  0076f	83 c4 10	 add	 esp, 16			; 00000010H
$LN243@ProcessCom:

; 324  : 		}
; 325  : 		goto cmddone;

  00772	e9 0c 20 00 00	 jmp	 $cmddone$5511
$LN245@ProcessCom:

; 326  : 	}
; 327  : 
; 328  : 	if (strcmp(strCMD, "CAPTURE") == 0)

  00777	68 00 00 00 00	 push	 OFFSET ??_C@_07ELEEKH@CAPTURE?$AA@
  0077c	8b 45 08	 mov	 eax, DWORD PTR _strCMD$[ebp]
  0077f	50		 push	 eax
  00780	e8 00 00 00 00	 call	 _strcmp
  00785	83 c4 08	 add	 esp, 8
  00788	85 c0		 test	 eax, eax
  0078a	75 76		 jne	 SHORT $LN240@ProcessCom

; 329  : 	{
; 330  : 		if (ptrParams == 0)

  0078c	83 7d f4 00	 cmp	 DWORD PTR _ptrParams$[ebp], 0
  00790	75 2e		 jne	 SHORT $LN239@ProcessCom

; 331  : 		{
; 332  : 			sprintf(cmdReply, "%s %s", strCMD, CaptureDevice);

  00792	68 00 00 00 00	 push	 OFFSET _CaptureDevice
  00797	8b 45 08	 mov	 eax, DWORD PTR _strCMD$[ebp]
  0079a	50		 push	 eax
  0079b	68 00 00 00 00	 push	 OFFSET ??_C@_05DNIIFBMG@?$CFs?5?$CFs?$AA@
  007a0	8d 8d 28 fb ff
	ff		 lea	 ecx, DWORD PTR _cmdReply$[ebp]
  007a6	51		 push	 ecx
  007a7	e8 00 00 00 00	 call	 _sprintf
  007ac	83 c4 10	 add	 esp, 16			; 00000010H

; 333  : 			SendReplyToHost(cmdReply);

  007af	8d 85 28 fb ff
	ff		 lea	 eax, DWORD PTR _cmdReply$[ebp]
  007b5	50		 push	 eax
  007b6	e8 00 00 00 00	 call	 _SendReplyToHost
  007bb	83 c4 04	 add	 esp, 4

; 334  : 		}
; 335  : 		else

  007be	eb 3d		 jmp	 SHORT $LN238@ProcessCom
$LN239@ProcessCom:

; 336  : 		{
; 337  : 			// Can't change on Teensy
; 338  : #ifndef Teensy
; 339  : 			strcpy(CaptureDevice, ptrParams);

  007c0	8b 45 f4	 mov	 eax, DWORD PTR _ptrParams$[ebp]
  007c3	50		 push	 eax
  007c4	68 00 00 00 00	 push	 OFFSET _CaptureDevice
  007c9	e8 00 00 00 00	 call	 _strcpy
  007ce	83 c4 08	 add	 esp, 8

; 340  : #endif
; 341  : 			sprintf(cmdReply, "%s now %s", strCMD, CaptureDevice);

  007d1	68 00 00 00 00	 push	 OFFSET _CaptureDevice
  007d6	8b 45 08	 mov	 eax, DWORD PTR _strCMD$[ebp]
  007d9	50		 push	 eax
  007da	68 00 00 00 00	 push	 OFFSET ??_C@_09HGCGHFLD@?$CFs?5now?5?$CFs?$AA@
  007df	8d 8d 28 fb ff
	ff		 lea	 ecx, DWORD PTR _cmdReply$[ebp]
  007e5	51		 push	 ecx
  007e6	e8 00 00 00 00	 call	 _sprintf
  007eb	83 c4 10	 add	 esp, 16			; 00000010H

; 342  : 			SendReplyToHost(cmdReply);

  007ee	8d 85 28 fb ff
	ff		 lea	 eax, DWORD PTR _cmdReply$[ebp]
  007f4	50		 push	 eax
  007f5	e8 00 00 00 00	 call	 _SendReplyToHost
  007fa	83 c4 04	 add	 esp, 4
$LN238@ProcessCom:

; 343  : 		}
; 344  : 		goto cmddone;

  007fd	e9 81 1f 00 00	 jmp	 $cmddone$5511
$LN240@ProcessCom:

; 345  : 	}
; 346  :      
; 347  : 	if (strcmp(strCMD, "CAPTUREDEVICES") == 0)

  00802	68 00 00 00 00	 push	 OFFSET ??_C@_0P@GDFADNLG@CAPTUREDEVICES?$AA@
  00807	8b 45 08	 mov	 eax, DWORD PTR _strCMD$[ebp]
  0080a	50		 push	 eax
  0080b	e8 00 00 00 00	 call	 _strcmp
  00810	83 c4 08	 add	 esp, 8
  00813	85 c0		 test	 eax, eax
  00815	75 32		 jne	 SHORT $LN237@ProcessCom

; 348  : 	{
; 349  : 		sprintf(cmdReply, "%s %s", strCMD, CaptureDevices);

  00817	a1 00 00 00 00	 mov	 eax, DWORD PTR _CaptureDevices
  0081c	50		 push	 eax
  0081d	8b 4d 08	 mov	 ecx, DWORD PTR _strCMD$[ebp]
  00820	51		 push	 ecx
  00821	68 00 00 00 00	 push	 OFFSET ??_C@_05DNIIFBMG@?$CFs?5?$CFs?$AA@
  00826	8d 95 28 fb ff
	ff		 lea	 edx, DWORD PTR _cmdReply$[ebp]
  0082c	52		 push	 edx
  0082d	e8 00 00 00 00	 call	 _sprintf
  00832	83 c4 10	 add	 esp, 16			; 00000010H

; 350  : 		SendReplyToHost(cmdReply);

  00835	8d 85 28 fb ff
	ff		 lea	 eax, DWORD PTR _cmdReply$[ebp]
  0083b	50		 push	 eax
  0083c	e8 00 00 00 00	 call	 _SendReplyToHost
  00841	83 c4 04	 add	 esp, 4

; 351  : 		goto cmddone;

  00844	e9 3a 1f 00 00	 jmp	 $cmddone$5511
$LN237@ProcessCom:

; 352  : 	}
; 353  : 
; 354  : 	if (strcmp(strCMD, "CL") == 0)		// For PTC Emulator

  00849	68 00 00 00 00	 push	 OFFSET ??_C@_02COKOBFHN@CL?$AA@
  0084e	8b 45 08	 mov	 eax, DWORD PTR _strCMD$[ebp]
  00851	50		 push	 eax
  00852	e8 00 00 00 00	 call	 _strcmp
  00857	83 c4 08	 add	 esp, 8
  0085a	85 c0		 test	 eax, eax
  0085c	75 0a		 jne	 SHORT $LN236@ProcessCom

; 355  : 	{
; 356  : 		ClearDataToSend();

  0085e	e8 00 00 00 00	 call	 _ClearDataToSend

; 357  : 		goto cmddone;

  00863	e9 1b 1f 00 00	 jmp	 $cmddone$5511
$LN236@ProcessCom:

; 358  : 	}
; 359  : 
; 360  : 
; 361  : 	if (strcmp(strCMD, "CLOSE") == 0)

  00868	68 00 00 00 00	 push	 OFFSET ??_C@_05HKHBPABE@CLOSE?$AA@
  0086d	8b 45 08	 mov	 eax, DWORD PTR _strCMD$[ebp]
  00870	50		 push	 eax
  00871	e8 00 00 00 00	 call	 _strcmp
  00876	83 c4 08	 add	 esp, 8
  00879	85 c0		 test	 eax, eax
  0087b	75 0f		 jne	 SHORT $LN235@ProcessCom

; 362  : 	{
; 363  : 		blnClosing = TRUE;

  0087d	c7 05 00 00 00
	00 01 00 00 00	 mov	 DWORD PTR _blnClosing, 1

; 364  : 		goto cmddone;

  00887	e9 f7 1e 00 00	 jmp	 $cmddone$5511
$LN235@ProcessCom:

; 365  : 	}
; 366  : 
; 367  : 	if (strcmp(strCMD, "CMDTRACE") == 0)

  0088c	68 00 00 00 00	 push	 OFFSET ??_C@_08PFIDDDAO@CMDTRACE?$AA@
  00891	8b 45 08	 mov	 eax, DWORD PTR _strCMD$[ebp]
  00894	50		 push	 eax
  00895	e8 00 00 00 00	 call	 _strcmp
  0089a	83 c4 08	 add	 esp, 8
  0089d	85 c0		 test	 eax, eax
  0089f	0f 85 f7 00 00
	00		 jne	 $LN234@ProcessCom

; 368  : 	{
; 369  : 		if (ptrParams == NULL)

  008a5	83 7d f4 00	 cmp	 DWORD PTR _ptrParams$[ebp], 0
  008a9	75 47		 jne	 SHORT $LN233@ProcessCom

; 370  : 		{
; 371  : 			if (CommandTrace)

  008ab	83 3d 00 00 00
	00 00		 cmp	 DWORD PTR _CommandTrace, 0
  008b2	74 16		 je	 SHORT $LN232@ProcessCom

; 372  : 				sprintf(cmdReply, "CMDTRACE TRUE");

  008b4	68 00 00 00 00	 push	 OFFSET ??_C@_0O@JLFEKFAA@CMDTRACE?5TRUE?$AA@
  008b9	8d 85 28 fb ff
	ff		 lea	 eax, DWORD PTR _cmdReply$[ebp]
  008bf	50		 push	 eax
  008c0	e8 00 00 00 00	 call	 _sprintf
  008c5	83 c4 08	 add	 esp, 8

; 373  : 			else

  008c8	eb 14		 jmp	 SHORT $LN231@ProcessCom
$LN232@ProcessCom:

; 374  : 				sprintf(cmdReply, "CMDTRACE FALSE");

  008ca	68 00 00 00 00	 push	 OFFSET ??_C@_0P@NBHBGGPA@CMDTRACE?5FALSE?$AA@
  008cf	8d 85 28 fb ff
	ff		 lea	 eax, DWORD PTR _cmdReply$[ebp]
  008d5	50		 push	 eax
  008d6	e8 00 00 00 00	 call	 _sprintf
  008db	83 c4 08	 add	 esp, 8
$LN231@ProcessCom:

; 375  : 
; 376  : 			SendReplyToHost(cmdReply);

  008de	8d 85 28 fb ff
	ff		 lea	 eax, DWORD PTR _cmdReply$[ebp]
  008e4	50		 push	 eax
  008e5	e8 00 00 00 00	 call	 _SendReplyToHost
  008ea	83 c4 04	 add	 esp, 4

; 377  : 			goto cmddone;

  008ed	e9 91 1e 00 00	 jmp	 $cmddone$5511
$LN233@ProcessCom:

; 378  : 		}
; 379  : 		
; 380  : 		if (strcmp(ptrParams, "TRUE") == 0)

  008f2	68 00 00 00 00	 push	 OFFSET ??_C@_04HCDDPBNL@TRUE?$AA@
  008f7	8b 45 f4	 mov	 eax, DWORD PTR _ptrParams$[ebp]
  008fa	50		 push	 eax
  008fb	e8 00 00 00 00	 call	 _strcmp
  00900	83 c4 08	 add	 esp, 8
  00903	85 c0		 test	 eax, eax
  00905	75 0c		 jne	 SHORT $LN230@ProcessCom

; 381  : 			CommandTrace = TRUE;

  00907	c7 05 00 00 00
	00 01 00 00 00	 mov	 DWORD PTR _CommandTrace, 1

; 382  : 		else 

  00911	eb 42		 jmp	 SHORT $LN229@ProcessCom
$LN230@ProcessCom:

; 383  : 		if (strcmp(ptrParams, "FALSE") == 0)

  00913	68 00 00 00 00	 push	 OFFSET ??_C@_05MAJJAKPI@FALSE?$AA@
  00918	8b 45 f4	 mov	 eax, DWORD PTR _ptrParams$[ebp]
  0091b	50		 push	 eax
  0091c	e8 00 00 00 00	 call	 _strcmp
  00921	83 c4 08	 add	 esp, 8
  00924	85 c0		 test	 eax, eax
  00926	75 0c		 jne	 SHORT $LN228@ProcessCom

; 384  : 			CommandTrace = FALSE;

  00928	c7 05 00 00 00
	00 00 00 00 00	 mov	 DWORD PTR _CommandTrace, 0

; 385  : 		else

  00932	eb 21		 jmp	 SHORT $LN229@ProcessCom
$LN228@ProcessCom:

; 386  : 		{
; 387  : 			sprintf(strFault, "Syntax Err: %s %s", strCMD, ptrParams);

  00934	8b 45 f4	 mov	 eax, DWORD PTR _ptrParams$[ebp]
  00937	50		 push	 eax
  00938	8b 4d 08	 mov	 ecx, DWORD PTR _strCMD$[ebp]
  0093b	51		 push	 ecx
  0093c	68 00 00 00 00	 push	 OFFSET ??_C@_0BC@LMEKCHED@Syntax?5Err?3?5?$CFs?5?$CFs?$AA@
  00941	8d 95 30 ff ff
	ff		 lea	 edx, DWORD PTR _strFault$[ebp]
  00947	52		 push	 edx
  00948	e8 00 00 00 00	 call	 _sprintf
  0094d	83 c4 10	 add	 esp, 16			; 00000010H

; 388  : 			goto cmddone;

  00950	e9 2e 1e 00 00	 jmp	 $cmddone$5511
$LN229@ProcessCom:

; 389  : 		}
; 390  : 
; 391  : 		if (CommandTrace)

  00955	83 3d 00 00 00
	00 00		 cmp	 DWORD PTR _CommandTrace, 0
  0095c	74 16		 je	 SHORT $LN226@ProcessCom

; 392  : 			sprintf(cmdReply, "CMDTRACE now TRUE");

  0095e	68 00 00 00 00	 push	 OFFSET ??_C@_0BC@IIJLAOJC@CMDTRACE?5now?5TRUE?$AA@
  00963	8d 85 28 fb ff
	ff		 lea	 eax, DWORD PTR _cmdReply$[ebp]
  00969	50		 push	 eax
  0096a	e8 00 00 00 00	 call	 _sprintf
  0096f	83 c4 08	 add	 esp, 8

; 393  : 		else

  00972	eb 14		 jmp	 SHORT $LN225@ProcessCom
$LN226@ProcessCom:

; 394  : 			sprintf(cmdReply, "CMDTRACE now FALSE");

  00974	68 00 00 00 00	 push	 OFFSET ??_C@_0BD@MPGDFLDD@CMDTRACE?5now?5FALSE?$AA@
  00979	8d 85 28 fb ff
	ff		 lea	 eax, DWORD PTR _cmdReply$[ebp]
  0097f	50		 push	 eax
  00980	e8 00 00 00 00	 call	 _sprintf
  00985	83 c4 08	 add	 esp, 8
$LN225@ProcessCom:

; 395  : 		
; 396  : 		SendReplyToHost(cmdReply);

  00988	8d 85 28 fb ff
	ff		 lea	 eax, DWORD PTR _cmdReply$[ebp]
  0098e	50		 push	 eax
  0098f	e8 00 00 00 00	 call	 _SendReplyToHost
  00994	83 c4 04	 add	 esp, 4

; 397  : 		goto cmddone;

  00997	e9 e7 1d 00 00	 jmp	 $cmddone$5511
$LN234@ProcessCom:

; 398  : 	}
; 399  : 
; 400  : 	if (strcmp(strCMD, "CODEC") == 0)

  0099c	68 00 00 00 00	 push	 OFFSET ??_C@_05KECBHFIB@CODEC?$AA@
  009a1	8b 45 08	 mov	 eax, DWORD PTR _strCMD$[ebp]
  009a4	50		 push	 eax
  009a5	e8 00 00 00 00	 call	 _strcmp
  009aa	83 c4 08	 add	 esp, 8
  009ad	85 c0		 test	 eax, eax
  009af	0f 85 01 01 00
	00		 jne	 $LN224@ProcessCom

; 401  : 	{
; 402  : 		if (ptrParams == NULL)

  009b5	83 7d f4 00	 cmp	 DWORD PTR _ptrParams$[ebp], 0
  009b9	75 47		 jne	 SHORT $LN223@ProcessCom

; 403  : 		{
; 404  : 			if (blnCodecStarted)

  009bb	83 3d 00 00 00
	00 00		 cmp	 DWORD PTR _blnCodecStarted, 0
  009c2	74 16		 je	 SHORT $LN222@ProcessCom

; 405  : 				sprintf(cmdReply, "CODEC TRUE");

  009c4	68 00 00 00 00	 push	 OFFSET ??_C@_0L@GPMBGALJ@CODEC?5TRUE?$AA@
  009c9	8d 85 28 fb ff
	ff		 lea	 eax, DWORD PTR _cmdReply$[ebp]
  009cf	50		 push	 eax
  009d0	e8 00 00 00 00	 call	 _sprintf
  009d5	83 c4 08	 add	 esp, 8

; 406  : 			else

  009d8	eb 14		 jmp	 SHORT $LN221@ProcessCom
$LN222@ProcessCom:

; 407  : 				sprintf(cmdReply, "CODEC FALSE");

  009da	68 00 00 00 00	 push	 OFFSET ??_C@_0M@GDDIPIBN@CODEC?5FALSE?$AA@
  009df	8d 85 28 fb ff
	ff		 lea	 eax, DWORD PTR _cmdReply$[ebp]
  009e5	50		 push	 eax
  009e6	e8 00 00 00 00	 call	 _sprintf
  009eb	83 c4 08	 add	 esp, 8
$LN221@ProcessCom:

; 408  : 
; 409  : 			SendReplyToHost(cmdReply);

  009ee	8d 85 28 fb ff
	ff		 lea	 eax, DWORD PTR _cmdReply$[ebp]
  009f4	50		 push	 eax
  009f5	e8 00 00 00 00	 call	 _SendReplyToHost
  009fa	83 c4 04	 add	 esp, 4

; 410  : 			goto cmddone;

  009fd	e9 81 1d 00 00	 jmp	 $cmddone$5511
$LN223@ProcessCom:

; 411  : 		}
; 412  : 		
; 413  : 		if (strcmp(ptrParams, "TRUE") == 0)

  00a02	68 00 00 00 00	 push	 OFFSET ??_C@_04HCDDPBNL@TRUE?$AA@
  00a07	8b 45 f4	 mov	 eax, DWORD PTR _ptrParams$[ebp]
  00a0a	50		 push	 eax
  00a0b	e8 00 00 00 00	 call	 _strcmp
  00a10	83 c4 08	 add	 esp, 8
  00a13	85 c0		 test	 eax, eax
  00a15	75 11		 jne	 SHORT $LN220@ProcessCom

; 414  : 			StartCodec(strFault);

  00a17	8d 85 30 ff ff
	ff		 lea	 eax, DWORD PTR _strFault$[ebp]
  00a1d	50		 push	 eax
  00a1e	e8 00 00 00 00	 call	 _StartCodec
  00a23	83 c4 04	 add	 esp, 4

; 415  : 		else 

  00a26	eb 47		 jmp	 SHORT $LN219@ProcessCom
$LN220@ProcessCom:

; 416  : 		if (strcmp(ptrParams, "FALSE") == 0)

  00a28	68 00 00 00 00	 push	 OFFSET ??_C@_05MAJJAKPI@FALSE?$AA@
  00a2d	8b 45 f4	 mov	 eax, DWORD PTR _ptrParams$[ebp]
  00a30	50		 push	 eax
  00a31	e8 00 00 00 00	 call	 _strcmp
  00a36	83 c4 08	 add	 esp, 8
  00a39	85 c0		 test	 eax, eax
  00a3b	75 11		 jne	 SHORT $LN218@ProcessCom

; 417  : 			StopCodec(strFault);

  00a3d	8d 85 30 ff ff
	ff		 lea	 eax, DWORD PTR _strFault$[ebp]
  00a43	50		 push	 eax
  00a44	e8 00 00 00 00	 call	 _StopCodec
  00a49	83 c4 04	 add	 esp, 4

; 418  : 		else

  00a4c	eb 21		 jmp	 SHORT $LN219@ProcessCom
$LN218@ProcessCom:

; 419  : 		{
; 420  : 			sprintf(strFault, "Syntax Err: %s %s", strCMD, ptrParams);

  00a4e	8b 45 f4	 mov	 eax, DWORD PTR _ptrParams$[ebp]
  00a51	50		 push	 eax
  00a52	8b 4d 08	 mov	 ecx, DWORD PTR _strCMD$[ebp]
  00a55	51		 push	 ecx
  00a56	68 00 00 00 00	 push	 OFFSET ??_C@_0BC@LMEKCHED@Syntax?5Err?3?5?$CFs?5?$CFs?$AA@
  00a5b	8d 95 30 ff ff
	ff		 lea	 edx, DWORD PTR _strFault$[ebp]
  00a61	52		 push	 edx
  00a62	e8 00 00 00 00	 call	 _sprintf
  00a67	83 c4 10	 add	 esp, 16			; 00000010H

; 421  : 			goto cmddone;

  00a6a	e9 14 1d 00 00	 jmp	 $cmddone$5511
$LN219@ProcessCom:

; 422  : 		}
; 423  : 		if (blnCodecStarted)

  00a6f	83 3d 00 00 00
	00 00		 cmp	 DWORD PTR _blnCodecStarted, 0
  00a76	74 16		 je	 SHORT $LN216@ProcessCom

; 424  : 			sprintf(cmdReply, "CODEC now TRUE");

  00a78	68 00 00 00 00	 push	 OFFSET ??_C@_0P@MJGDBDHD@CODEC?5now?5TRUE?$AA@
  00a7d	8d 85 28 fb ff
	ff		 lea	 eax, DWORD PTR _cmdReply$[ebp]
  00a83	50		 push	 eax
  00a84	e8 00 00 00 00	 call	 _sprintf
  00a89	83 c4 08	 add	 esp, 8

; 425  : 		else

  00a8c	eb 14		 jmp	 SHORT $LN215@ProcessCom
$LN216@ProcessCom:

; 426  : 			sprintf(cmdReply, "CODEC now FALSE");

  00a8e	68 00 00 00 00	 push	 OFFSET ??_C@_0BA@BICPHBMA@CODEC?5now?5FALSE?$AA@
  00a93	8d 85 28 fb ff
	ff		 lea	 eax, DWORD PTR _cmdReply$[ebp]
  00a99	50		 push	 eax
  00a9a	e8 00 00 00 00	 call	 _sprintf
  00a9f	83 c4 08	 add	 esp, 8
$LN215@ProcessCom:

; 427  : 
; 428  : 		SendReplyToHost(cmdReply);

  00aa2	8d 85 28 fb ff
	ff		 lea	 eax, DWORD PTR _cmdReply$[ebp]
  00aa8	50		 push	 eax
  00aa9	e8 00 00 00 00	 call	 _SendReplyToHost
  00aae	83 c4 04	 add	 esp, 4

; 429  : 		goto cmddone;

  00ab1	e9 cd 1c 00 00	 jmp	 $cmddone$5511
$LN224@ProcessCom:

; 430  : 	}
; 431  : 
; 432  : 	if (strcmp(strCMD, "CONSOLELOG") == 0)

  00ab6	68 00 00 00 00	 push	 OFFSET ??_C@_0L@DGGMKNGE@CONSOLELOG?$AA@
  00abb	8b 45 08	 mov	 eax, DWORD PTR _strCMD$[ebp]
  00abe	50		 push	 eax
  00abf	e8 00 00 00 00	 call	 _strcmp
  00ac4	83 c4 08	 add	 esp, 8
  00ac7	85 c0		 test	 eax, eax
  00ac9	0f 85 b4 00 00
	00		 jne	 $LN214@ProcessCom

; 433  : 	{
; 434  : 		int i;
; 435  : 
; 436  : 		if (ptrParams == 0)

  00acf	83 7d f4 00	 cmp	 DWORD PTR _ptrParams$[ebp], 0
  00ad3	75 2f		 jne	 SHORT $LN213@ProcessCom

; 437  : 		{
; 438  : 			sprintf(cmdReply, "%s %d", strCMD, ConsoleLogLevel);

  00ad5	a1 00 00 00 00	 mov	 eax, DWORD PTR _ConsoleLogLevel
  00ada	50		 push	 eax
  00adb	8b 4d 08	 mov	 ecx, DWORD PTR _strCMD$[ebp]
  00ade	51		 push	 ecx
  00adf	68 00 00 00 00	 push	 OFFSET ??_C@_05DIALNFFA@?$CFs?5?$CFd?$AA@
  00ae4	8d 95 28 fb ff
	ff		 lea	 edx, DWORD PTR _cmdReply$[ebp]
  00aea	52		 push	 edx
  00aeb	e8 00 00 00 00	 call	 _sprintf
  00af0	83 c4 10	 add	 esp, 16			; 00000010H

; 439  : 			SendReplyToHost(cmdReply);

  00af3	8d 85 28 fb ff
	ff		 lea	 eax, DWORD PTR _cmdReply$[ebp]
  00af9	50		 push	 eax
  00afa	e8 00 00 00 00	 call	 _SendReplyToHost
  00aff	83 c4 04	 add	 esp, 4

; 440  : 		}
; 441  : 		else

  00b02	eb 7a		 jmp	 SHORT $LN212@ProcessCom
$LN213@ProcessCom:

; 442  : 		{
; 443  : 			i = atoi(ptrParams);

  00b04	8b 45 f4	 mov	 eax, DWORD PTR _ptrParams$[ebp]
  00b07	50		 push	 eax
  00b08	e8 00 00 00 00	 call	 _atoi
  00b0d	83 c4 04	 add	 esp, 4
  00b10	89 85 e0 fa ff
	ff		 mov	 DWORD PTR _i$5644[ebp], eax

; 444  : 
; 445  : 			if (i >= LOGEMERGENCY  && i <= LOGDEBUG)

  00b16	83 bd e0 fa ff
	ff 00		 cmp	 DWORD PTR _i$5644[ebp], 0
  00b1d	7c 43		 jl	 SHORT $LN211@ProcessCom
  00b1f	83 bd e0 fa ff
	ff 07		 cmp	 DWORD PTR _i$5644[ebp], 7
  00b26	7f 3a		 jg	 SHORT $LN211@ProcessCom

; 446  : 			{
; 447  : 				ConsoleLogLevel = i;

  00b28	8b 85 e0 fa ff
	ff		 mov	 eax, DWORD PTR _i$5644[ebp]
  00b2e	a3 00 00 00 00	 mov	 DWORD PTR _ConsoleLogLevel, eax

; 448  : 				sprintf(cmdReply, "%s now %d", strCMD, ConsoleLogLevel);

  00b33	a1 00 00 00 00	 mov	 eax, DWORD PTR _ConsoleLogLevel
  00b38	50		 push	 eax
  00b39	8b 4d 08	 mov	 ecx, DWORD PTR _strCMD$[ebp]
  00b3c	51		 push	 ecx
  00b3d	68 00 00 00 00	 push	 OFFSET ??_C@_09HDKFPBCF@?$CFs?5now?5?$CFd?$AA@
  00b42	8d 95 28 fb ff
	ff		 lea	 edx, DWORD PTR _cmdReply$[ebp]
  00b48	52		 push	 edx
  00b49	e8 00 00 00 00	 call	 _sprintf
  00b4e	83 c4 10	 add	 esp, 16			; 00000010H

; 449  : 				SendReplyToHost(cmdReply);

  00b51	8d 85 28 fb ff
	ff		 lea	 eax, DWORD PTR _cmdReply$[ebp]
  00b57	50		 push	 eax
  00b58	e8 00 00 00 00	 call	 _SendReplyToHost
  00b5d	83 c4 04	 add	 esp, 4

; 450  : 			}
; 451  : 			else

  00b60	eb 1c		 jmp	 SHORT $LN212@ProcessCom
$LN211@ProcessCom:

; 452  : 				sprintf(strFault, "Syntax Err: %s %s", strCMD, ptrParams);	

  00b62	8b 45 f4	 mov	 eax, DWORD PTR _ptrParams$[ebp]
  00b65	50		 push	 eax
  00b66	8b 4d 08	 mov	 ecx, DWORD PTR _strCMD$[ebp]
  00b69	51		 push	 ecx
  00b6a	68 00 00 00 00	 push	 OFFSET ??_C@_0BC@LMEKCHED@Syntax?5Err?3?5?$CFs?5?$CFs?$AA@
  00b6f	8d 95 30 ff ff
	ff		 lea	 edx, DWORD PTR _strFault$[ebp]
  00b75	52		 push	 edx
  00b76	e8 00 00 00 00	 call	 _sprintf
  00b7b	83 c4 10	 add	 esp, 16			; 00000010H
$LN212@ProcessCom:

; 453  : 		}
; 454  : 		goto cmddone;

  00b7e	e9 00 1c 00 00	 jmp	 $cmddone$5511
$LN214@ProcessCom:

; 455  : 	}
; 456  : 
; 457  : 
; 458  : 
; 459  : 	if (strcmp(strCMD, "CWID") == 0)

  00b83	68 00 00 00 00	 push	 OFFSET ??_C@_04JLAKCBCO@CWID?$AA@
  00b88	8b 45 08	 mov	 eax, DWORD PTR _strCMD$[ebp]
  00b8b	50		 push	 eax
  00b8c	e8 00 00 00 00	 call	 _strcmp
  00b91	83 c4 08	 add	 esp, 8
  00b94	85 c0		 test	 eax, eax
  00b96	0f 85 6a 01 00
	00		 jne	 $LN209@ProcessCom

; 460  : 	{
; 461  : 		if (ptrParams == NULL)

  00b9c	83 7d f4 00	 cmp	 DWORD PTR _ptrParams$[ebp], 0
  00ba0	75 66		 jne	 SHORT $LN208@ProcessCom

; 462  : 		{
; 463  : 			if (wantCWID)

  00ba2	83 3d 00 00 00
	00 00		 cmp	 DWORD PTR _wantCWID, 0
  00ba9	74 35		 je	 SHORT $LN207@ProcessCom

; 464  : 				if	(CWOnOff)

  00bab	83 3d 00 00 00
	00 00		 cmp	 DWORD PTR _CWOnOff, 0
  00bb2	74 16		 je	 SHORT $LN206@ProcessCom

; 465  : 					sprintf(cmdReply, "CWID ONOFF");

  00bb4	68 00 00 00 00	 push	 OFFSET ??_C@_0L@JIMPODBA@CWID?5ONOFF?$AA@
  00bb9	8d 85 28 fb ff
	ff		 lea	 eax, DWORD PTR _cmdReply$[ebp]
  00bbf	50		 push	 eax
  00bc0	e8 00 00 00 00	 call	 _sprintf
  00bc5	83 c4 08	 add	 esp, 8

; 466  : 				else

  00bc8	eb 14		 jmp	 SHORT $LN205@ProcessCom
$LN206@ProcessCom:

; 467  : 					sprintf(cmdReply, "CWID TRUE");

  00bca	68 00 00 00 00	 push	 OFFSET ??_C@_09LFBPHDDG@CWID?5TRUE?$AA@
  00bcf	8d 85 28 fb ff
	ff		 lea	 eax, DWORD PTR _cmdReply$[ebp]
  00bd5	50		 push	 eax
  00bd6	e8 00 00 00 00	 call	 _sprintf
  00bdb	83 c4 08	 add	 esp, 8
$LN205@ProcessCom:

; 468  : 			else

  00bde	eb 14		 jmp	 SHORT $LN204@ProcessCom
$LN207@ProcessCom:

; 469  : 				sprintf(cmdReply, "CWID FALSE");

  00be0	68 00 00 00 00	 push	 OFFSET ??_C@_0L@BOOFLILP@CWID?5FALSE?$AA@
  00be5	8d 85 28 fb ff
	ff		 lea	 eax, DWORD PTR _cmdReply$[ebp]
  00beb	50		 push	 eax
  00bec	e8 00 00 00 00	 call	 _sprintf
  00bf1	83 c4 08	 add	 esp, 8
$LN204@ProcessCom:

; 470  : 
; 471  : 			SendReplyToHost(cmdReply);

  00bf4	8d 85 28 fb ff
	ff		 lea	 eax, DWORD PTR _cmdReply$[ebp]
  00bfa	50		 push	 eax
  00bfb	e8 00 00 00 00	 call	 _SendReplyToHost
  00c00	83 c4 04	 add	 esp, 4

; 472  : 			goto cmddone;

  00c03	e9 7b 1b 00 00	 jmp	 $cmddone$5511
$LN208@ProcessCom:

; 473  : 		}
; 474  : 		
; 475  : 		if (strcmp(ptrParams, "TRUE") == 0)

  00c08	68 00 00 00 00	 push	 OFFSET ??_C@_04HCDDPBNL@TRUE?$AA@
  00c0d	8b 45 f4	 mov	 eax, DWORD PTR _ptrParams$[ebp]
  00c10	50		 push	 eax
  00c11	e8 00 00 00 00	 call	 _strcmp
  00c16	83 c4 08	 add	 esp, 8
  00c19	85 c0		 test	 eax, eax
  00c1b	75 16		 jne	 SHORT $LN203@ProcessCom

; 476  : 		{
; 477  : 			wantCWID = TRUE;

  00c1d	c7 05 00 00 00
	00 01 00 00 00	 mov	 DWORD PTR _wantCWID, 1

; 478  : 			CWOnOff = FALSE;

  00c27	c7 05 00 00 00
	00 00 00 00 00	 mov	 DWORD PTR _CWOnOff, 0

; 479  : 		}
; 480  : 		else 

  00c31	eb 6d		 jmp	 SHORT $LN202@ProcessCom
$LN203@ProcessCom:

; 481  : 		if (strcmp(ptrParams, "FALSE") == 0)

  00c33	68 00 00 00 00	 push	 OFFSET ??_C@_05MAJJAKPI@FALSE?$AA@
  00c38	8b 45 f4	 mov	 eax, DWORD PTR _ptrParams$[ebp]
  00c3b	50		 push	 eax
  00c3c	e8 00 00 00 00	 call	 _strcmp
  00c41	83 c4 08	 add	 esp, 8
  00c44	85 c0		 test	 eax, eax
  00c46	75 0c		 jne	 SHORT $LN201@ProcessCom

; 482  : 			wantCWID = FALSE;

  00c48	c7 05 00 00 00
	00 00 00 00 00	 mov	 DWORD PTR _wantCWID, 0

; 483  : 		else 

  00c52	eb 4c		 jmp	 SHORT $LN202@ProcessCom
$LN201@ProcessCom:

; 484  : 		if (strcmp(ptrParams, "ONOFF") == 0)

  00c54	68 00 00 00 00	 push	 OFFSET ??_C@_05EGLDFBFH@ONOFF?$AA@
  00c59	8b 45 f4	 mov	 eax, DWORD PTR _ptrParams$[ebp]
  00c5c	50		 push	 eax
  00c5d	e8 00 00 00 00	 call	 _strcmp
  00c62	83 c4 08	 add	 esp, 8
  00c65	85 c0		 test	 eax, eax
  00c67	75 16		 jne	 SHORT $LN199@ProcessCom

; 485  : 		{
; 486  : 			wantCWID = TRUE;

  00c69	c7 05 00 00 00
	00 01 00 00 00	 mov	 DWORD PTR _wantCWID, 1

; 487  : 			CWOnOff = TRUE;

  00c73	c7 05 00 00 00
	00 01 00 00 00	 mov	 DWORD PTR _CWOnOff, 1

; 488  : 		}
; 489  : 		else

  00c7d	eb 21		 jmp	 SHORT $LN202@ProcessCom
$LN199@ProcessCom:

; 490  : 		{
; 491  : 			sprintf(strFault, "Syntax Err: %s %s", strCMD, ptrParams);

  00c7f	8b 45 f4	 mov	 eax, DWORD PTR _ptrParams$[ebp]
  00c82	50		 push	 eax
  00c83	8b 4d 08	 mov	 ecx, DWORD PTR _strCMD$[ebp]
  00c86	51		 push	 ecx
  00c87	68 00 00 00 00	 push	 OFFSET ??_C@_0BC@LMEKCHED@Syntax?5Err?3?5?$CFs?5?$CFs?$AA@
  00c8c	8d 95 30 ff ff
	ff		 lea	 edx, DWORD PTR _strFault$[ebp]
  00c92	52		 push	 edx
  00c93	e8 00 00 00 00	 call	 _sprintf
  00c98	83 c4 10	 add	 esp, 16			; 00000010H

; 492  : 			goto cmddone;

  00c9b	e9 e3 1a 00 00	 jmp	 $cmddone$5511
$LN202@ProcessCom:

; 493  : 		}
; 494  : 			
; 495  : 		if (wantCWID)

  00ca0	83 3d 00 00 00
	00 00		 cmp	 DWORD PTR _wantCWID, 0
  00ca7	74 35		 je	 SHORT $LN197@ProcessCom

; 496  : 			if	(CWOnOff)

  00ca9	83 3d 00 00 00
	00 00		 cmp	 DWORD PTR _CWOnOff, 0
  00cb0	74 16		 je	 SHORT $LN196@ProcessCom

; 497  : 				sprintf(cmdReply, "CWID now ONOFF");

  00cb2	68 00 00 00 00	 push	 OFFSET ??_C@_0P@BDNPMAPC@CWID?5now?5ONOFF?$AA@
  00cb7	8d 85 28 fb ff
	ff		 lea	 eax, DWORD PTR _cmdReply$[ebp]
  00cbd	50		 push	 eax
  00cbe	e8 00 00 00 00	 call	 _sprintf
  00cc3	83 c4 08	 add	 esp, 8

; 498  : 			else

  00cc6	eb 14		 jmp	 SHORT $LN195@ProcessCom
$LN196@ProcessCom:

; 499  : 				sprintf(cmdReply, "CWID now TRUE");

  00cc8	68 00 00 00 00	 push	 OFFSET ??_C@_0O@BLIEHLGM@CWID?5now?5TRUE?$AA@
  00ccd	8d 85 28 fb ff
	ff		 lea	 eax, DWORD PTR _cmdReply$[ebp]
  00cd3	50		 push	 eax
  00cd4	e8 00 00 00 00	 call	 _sprintf
  00cd9	83 c4 08	 add	 esp, 8
$LN195@ProcessCom:

; 500  : 		else

  00cdc	eb 14		 jmp	 SHORT $LN194@ProcessCom
$LN197@ProcessCom:

; 501  : 			sprintf(cmdReply, "CWID now FALSE");

  00cde	68 00 00 00 00	 push	 OFFSET ??_C@_0P@JFPFJLFN@CWID?5now?5FALSE?$AA@
  00ce3	8d 85 28 fb ff
	ff		 lea	 eax, DWORD PTR _cmdReply$[ebp]
  00ce9	50		 push	 eax
  00cea	e8 00 00 00 00	 call	 _sprintf
  00cef	83 c4 08	 add	 esp, 8
$LN194@ProcessCom:

; 502  : 
; 503  : 		SendReplyToHost(cmdReply);

  00cf2	8d 85 28 fb ff
	ff		 lea	 eax, DWORD PTR _cmdReply$[ebp]
  00cf8	50		 push	 eax
  00cf9	e8 00 00 00 00	 call	 _SendReplyToHost
  00cfe	83 c4 04	 add	 esp, 4

; 504  : 		goto cmddone;

  00d01	e9 7d 1a 00 00	 jmp	 $cmddone$5511
$LN209@ProcessCom:

; 505  : 	}
; 506  : 
; 507  : 	if (strcmp(strCMD, "DATATOSEND") == 0)

  00d06	68 00 00 00 00	 push	 OFFSET ??_C@_0L@FNOENICL@DATATOSEND?$AA@
  00d0b	8b 45 08	 mov	 eax, DWORD PTR _strCMD$[ebp]
  00d0e	50		 push	 eax
  00d0f	e8 00 00 00 00	 call	 _strcmp
  00d14	83 c4 08	 add	 esp, 8
  00d17	85 c0		 test	 eax, eax
  00d19	0f 85 af 00 00
	00		 jne	 $LN193@ProcessCom

; 508  : 	{
; 509  : 		int i;
; 510  : 
; 511  : 		if (ptrParams == 0)

  00d1f	83 7d f4 00	 cmp	 DWORD PTR _ptrParams$[ebp], 0
  00d23	75 34		 jne	 SHORT $LN192@ProcessCom

; 512  : 		{
; 513  : 			sprintf(cmdReply, "%s %d", strCMD, bytDataToSendLength);

  00d25	a1 00 00 00 00	 mov	 eax, DWORD PTR _bytDataToSendLength
  00d2a	50		 push	 eax
  00d2b	8b 4d 08	 mov	 ecx, DWORD PTR _strCMD$[ebp]
  00d2e	51		 push	 ecx
  00d2f	68 00 00 00 00	 push	 OFFSET ??_C@_05DIALNFFA@?$CFs?5?$CFd?$AA@
  00d34	8d 95 28 fb ff
	ff		 lea	 edx, DWORD PTR _cmdReply$[ebp]
  00d3a	52		 push	 edx
  00d3b	e8 00 00 00 00	 call	 _sprintf
  00d40	83 c4 10	 add	 esp, 16			; 00000010H

; 514  : 			SendReplyToHost(cmdReply);

  00d43	8d 85 28 fb ff
	ff		 lea	 eax, DWORD PTR _cmdReply$[ebp]
  00d49	50		 push	 eax
  00d4a	e8 00 00 00 00	 call	 _SendReplyToHost
  00d4f	83 c4 04	 add	 esp, 4

; 515  : 			goto cmddone;

  00d52	e9 2c 1a 00 00	 jmp	 $cmddone$5511

; 516  : 		}
; 517  : 		else

  00d57	eb 70		 jmp	 SHORT $LN191@ProcessCom
$LN192@ProcessCom:

; 518  : 		{
; 519  : 			i = atoi(ptrParams);

  00d59	8b 45 f4	 mov	 eax, DWORD PTR _ptrParams$[ebp]
  00d5c	50		 push	 eax
  00d5d	e8 00 00 00 00	 call	 _atoi
  00d62	83 c4 04	 add	 esp, 4
  00d65	89 85 d4 fa ff
	ff		 mov	 DWORD PTR _i$5676[ebp], eax

; 520  : 
; 521  : 			if (i == 0)	

  00d6b	83 bd d4 fa ff
	ff 00		 cmp	 DWORD PTR _i$5676[ebp], 0
  00d72	75 39		 jne	 SHORT $LN190@ProcessCom

; 522  : 			{
; 523  : 				bytDataToSendLength = 0;

  00d74	c7 05 00 00 00
	00 00 00 00 00	 mov	 DWORD PTR _bytDataToSendLength, 0

; 524  : 				sprintf(cmdReply, "%s now %d", strCMD, bytDataToSendLength);

  00d7e	a1 00 00 00 00	 mov	 eax, DWORD PTR _bytDataToSendLength
  00d83	50		 push	 eax
  00d84	8b 4d 08	 mov	 ecx, DWORD PTR _strCMD$[ebp]
  00d87	51		 push	 ecx
  00d88	68 00 00 00 00	 push	 OFFSET ??_C@_09HDKFPBCF@?$CFs?5now?5?$CFd?$AA@
  00d8d	8d 95 28 fb ff
	ff		 lea	 edx, DWORD PTR _cmdReply$[ebp]
  00d93	52		 push	 edx
  00d94	e8 00 00 00 00	 call	 _sprintf
  00d99	83 c4 10	 add	 esp, 16			; 00000010H

; 525  : 				SendReplyToHost(cmdReply);

  00d9c	8d 85 28 fb ff
	ff		 lea	 eax, DWORD PTR _cmdReply$[ebp]
  00da2	50		 push	 eax
  00da3	e8 00 00 00 00	 call	 _SendReplyToHost
  00da8	83 c4 04	 add	 esp, 4

; 526  : 			}
; 527  : 			else

  00dab	eb 1c		 jmp	 SHORT $LN191@ProcessCom
$LN190@ProcessCom:

; 528  : 				sprintf(strFault, "Syntax Err: %s %s", strCMD, ptrParams);	

  00dad	8b 45 f4	 mov	 eax, DWORD PTR _ptrParams$[ebp]
  00db0	50		 push	 eax
  00db1	8b 4d 08	 mov	 ecx, DWORD PTR _strCMD$[ebp]
  00db4	51		 push	 ecx
  00db5	68 00 00 00 00	 push	 OFFSET ??_C@_0BC@LMEKCHED@Syntax?5Err?3?5?$CFs?5?$CFs?$AA@
  00dba	8d 95 30 ff ff
	ff		 lea	 edx, DWORD PTR _strFault$[ebp]
  00dc0	52		 push	 edx
  00dc1	e8 00 00 00 00	 call	 _sprintf
  00dc6	83 c4 10	 add	 esp, 16			; 00000010H
$LN191@ProcessCom:

; 529  : 		}
; 530  : 		goto cmddone;

  00dc9	e9 b5 19 00 00	 jmp	 $cmddone$5511
$LN193@ProcessCom:

; 531  : 	}
; 532  :   
; 533  : 	if (strcmp(strCMD, "DEBUGLOG") == 0)

  00dce	68 00 00 00 00	 push	 OFFSET ??_C@_08ILMNPICE@DEBUGLOG?$AA@
  00dd3	8b 45 08	 mov	 eax, DWORD PTR _strCMD$[ebp]
  00dd6	50		 push	 eax
  00dd7	e8 00 00 00 00	 call	 _strcmp
  00ddc	83 c4 08	 add	 esp, 8
  00ddf	85 c0		 test	 eax, eax
  00de1	0f 85 f7 00 00
	00		 jne	 $LN188@ProcessCom

; 534  : 	{
; 535  : 		if (ptrParams == NULL)

  00de7	83 7d f4 00	 cmp	 DWORD PTR _ptrParams$[ebp], 0
  00deb	75 47		 jne	 SHORT $LN187@ProcessCom

; 536  : 		{
; 537  : 			if (DebugLog)

  00ded	83 3d 00 00 00
	00 00		 cmp	 DWORD PTR _DebugLog, 0
  00df4	74 16		 je	 SHORT $LN186@ProcessCom

; 538  : 				sprintf(cmdReply, "DEBUGLOG TRUE");

  00df6	68 00 00 00 00	 push	 OFFSET ??_C@_0O@HKNBAPBA@DEBUGLOG?5TRUE?$AA@
  00dfb	8d 85 28 fb ff
	ff		 lea	 eax, DWORD PTR _cmdReply$[ebp]
  00e01	50		 push	 eax
  00e02	e8 00 00 00 00	 call	 _sprintf
  00e07	83 c4 08	 add	 esp, 8

; 539  : 			else

  00e0a	eb 14		 jmp	 SHORT $LN185@ProcessCom
$LN186@ProcessCom:

; 540  : 				sprintf(cmdReply, "DEBUGLOG FALSE");

  00e0c	68 00 00 00 00	 push	 OFFSET ??_C@_0P@MMCHPDDO@DEBUGLOG?5FALSE?$AA@
  00e11	8d 85 28 fb ff
	ff		 lea	 eax, DWORD PTR _cmdReply$[ebp]
  00e17	50		 push	 eax
  00e18	e8 00 00 00 00	 call	 _sprintf
  00e1d	83 c4 08	 add	 esp, 8
$LN185@ProcessCom:

; 541  : 
; 542  : 			SendReplyToHost(cmdReply);

  00e20	8d 85 28 fb ff
	ff		 lea	 eax, DWORD PTR _cmdReply$[ebp]
  00e26	50		 push	 eax
  00e27	e8 00 00 00 00	 call	 _SendReplyToHost
  00e2c	83 c4 04	 add	 esp, 4

; 543  : 			goto cmddone;

  00e2f	e9 4f 19 00 00	 jmp	 $cmddone$5511
$LN187@ProcessCom:

; 544  : 		}
; 545  : 		
; 546  : 		if (strcmp(ptrParams, "TRUE") == 0)

  00e34	68 00 00 00 00	 push	 OFFSET ??_C@_04HCDDPBNL@TRUE?$AA@
  00e39	8b 45 f4	 mov	 eax, DWORD PTR _ptrParams$[ebp]
  00e3c	50		 push	 eax
  00e3d	e8 00 00 00 00	 call	 _strcmp
  00e42	83 c4 08	 add	 esp, 8
  00e45	85 c0		 test	 eax, eax
  00e47	75 0c		 jne	 SHORT $LN184@ProcessCom

; 547  : 			DebugLog = TRUE;

  00e49	c7 05 00 00 00
	00 01 00 00 00	 mov	 DWORD PTR _DebugLog, 1

; 548  : 		else 

  00e53	eb 42		 jmp	 SHORT $LN183@ProcessCom
$LN184@ProcessCom:

; 549  : 		if (strcmp(ptrParams, "FALSE") == 0)

  00e55	68 00 00 00 00	 push	 OFFSET ??_C@_05MAJJAKPI@FALSE?$AA@
  00e5a	8b 45 f4	 mov	 eax, DWORD PTR _ptrParams$[ebp]
  00e5d	50		 push	 eax
  00e5e	e8 00 00 00 00	 call	 _strcmp
  00e63	83 c4 08	 add	 esp, 8
  00e66	85 c0		 test	 eax, eax
  00e68	75 0c		 jne	 SHORT $LN182@ProcessCom

; 550  : 			DebugLog = FALSE;

  00e6a	c7 05 00 00 00
	00 00 00 00 00	 mov	 DWORD PTR _DebugLog, 0

; 551  : 		else

  00e74	eb 21		 jmp	 SHORT $LN183@ProcessCom
$LN182@ProcessCom:

; 552  : 		{
; 553  : 			sprintf(strFault, "Syntax Err: %s %s", strCMD, ptrParams);

  00e76	8b 45 f4	 mov	 eax, DWORD PTR _ptrParams$[ebp]
  00e79	50		 push	 eax
  00e7a	8b 4d 08	 mov	 ecx, DWORD PTR _strCMD$[ebp]
  00e7d	51		 push	 ecx
  00e7e	68 00 00 00 00	 push	 OFFSET ??_C@_0BC@LMEKCHED@Syntax?5Err?3?5?$CFs?5?$CFs?$AA@
  00e83	8d 95 30 ff ff
	ff		 lea	 edx, DWORD PTR _strFault$[ebp]
  00e89	52		 push	 edx
  00e8a	e8 00 00 00 00	 call	 _sprintf
  00e8f	83 c4 10	 add	 esp, 16			; 00000010H

; 554  : 			goto cmddone;

  00e92	e9 ec 18 00 00	 jmp	 $cmddone$5511
$LN183@ProcessCom:

; 555  : 		}
; 556  : 		if (DebugLog)

  00e97	83 3d 00 00 00
	00 00		 cmp	 DWORD PTR _DebugLog, 0
  00e9e	74 16		 je	 SHORT $LN180@ProcessCom

; 557  : 			sprintf(cmdReply, "DEBUGLOG now TRUE");

  00ea0	68 00 00 00 00	 push	 OFFSET ??_C@_0BC@JNJEDPFL@DEBUGLOG?5now?5TRUE?$AA@
  00ea5	8d 85 28 fb ff
	ff		 lea	 eax, DWORD PTR _cmdReply$[ebp]
  00eab	50		 push	 eax
  00eac	e8 00 00 00 00	 call	 _sprintf
  00eb1	83 c4 08	 add	 esp, 8

; 558  : 		else

  00eb4	eb 14		 jmp	 SHORT $LN179@ProcessCom
$LN180@ProcessCom:

; 559  : 			sprintf(cmdReply, "DEBUGLOG now FALSE");

  00eb6	68 00 00 00 00	 push	 OFFSET ??_C@_0BD@CNMOCOBG@DEBUGLOG?5now?5FALSE?$AA@
  00ebb	8d 85 28 fb ff
	ff		 lea	 eax, DWORD PTR _cmdReply$[ebp]
  00ec1	50		 push	 eax
  00ec2	e8 00 00 00 00	 call	 _sprintf
  00ec7	83 c4 08	 add	 esp, 8
$LN179@ProcessCom:

; 560  : 
; 561  : 		SendReplyToHost(cmdReply);

  00eca	8d 85 28 fb ff
	ff		 lea	 eax, DWORD PTR _cmdReply$[ebp]
  00ed0	50		 push	 eax
  00ed1	e8 00 00 00 00	 call	 _SendReplyToHost
  00ed6	83 c4 04	 add	 esp, 4

; 562  : 
; 563  : 		goto cmddone;

  00ed9	e9 a5 18 00 00	 jmp	 $cmddone$5511
$LN188@ProcessCom:

; 564  : 	}
; 565  : 
; 566  : 	if (strcmp(strCMD, "DISCONNECT") == 0)

  00ede	68 00 00 00 00	 push	 OFFSET ??_C@_0L@BMJIDLML@DISCONNECT?$AA@
  00ee3	8b 45 08	 mov	 eax, DWORD PTR _strCMD$[ebp]
  00ee6	50		 push	 eax
  00ee7	e8 00 00 00 00	 call	 _strcmp
  00eec	83 c4 08	 add	 esp, 8
  00eef	85 c0		 test	 eax, eax
  00ef1	75 33		 jne	 SHORT $LN178@ProcessCom

; 567  : 	{
; 568  : 		if (ProtocolState == IDLE || ProtocolState == IRS || ProtocolState == ISS || ProtocolState == IRStoISS)

  00ef3	83 3d 00 00 00
	00 04		 cmp	 DWORD PTR _ProtocolState, 4
  00efa	74 1b		 je	 SHORT $LN176@ProcessCom
  00efc	83 3d 00 00 00
	00 03		 cmp	 DWORD PTR _ProtocolState, 3
  00f03	74 12		 je	 SHORT $LN176@ProcessCom
  00f05	83 3d 00 00 00
	00 02		 cmp	 DWORD PTR _ProtocolState, 2
  00f0c	74 09		 je	 SHORT $LN176@ProcessCom
  00f0e	83 3d 00 00 00
	00 05		 cmp	 DWORD PTR _ProtocolState, 5
  00f15	75 0a		 jne	 SHORT $LN177@ProcessCom
$LN176@ProcessCom:

; 569  : 		{
; 570  : 			blnARQDisconnect = TRUE;

  00f17	c7 05 00 00 00
	00 01 00 00 00	 mov	 DWORD PTR _blnARQDisconnect, 1
$LN177@ProcessCom:

; 571  : //			CheckForDisconnect();
; 572  : 		}
; 573  : 		goto cmddone;

  00f21	e9 5d 18 00 00	 jmp	 $cmddone$5511
$LN178@ProcessCom:

; 574  : 	}
; 575  : /*
; 576  :             Case "DISPLAY"
; 577  :                 If ptrSpace = -1 Then
; 578  :                     SendReplyToHost(strCommand & " " & Format(MCB.DisplayFreq, "#.000"))
; 579  :                 ElseIf IsNumeric(strParameters) Then
; 580  :                     MCB.DisplayFreq = Val(strParameters)
; 581  :                     Dim stcStatus As Status = Nothing
; 582  :                     If Val(strParameters) > 100000 Then
; 583  :                         stcStatus.Text = "Dial: " & Format(Val(strParameters) / 1000, "##0.000") & "MHz"
; 584  :                     Else
; 585  :                         stcStatus.Text = "Dial: " & strParameters & "KHz"
; 586  :                     End If
; 587  :                     stcStatus.ControlName = "lblCF"
; 588  :                     queTNCStatus.Enqueue(stcStatus)
; 589  :                 Else
; 590  :                     strFault = "Syntax Err:" & strCMD
; 591  :                 End If
; 592  : 				*/
; 593  : 
; 594  : 	if (strcmp(strCMD, "DRIVELEVEL") == 0)

  00f26	68 00 00 00 00	 push	 OFFSET ??_C@_0L@JEDBGFLK@DRIVELEVEL?$AA@
  00f2b	8b 45 08	 mov	 eax, DWORD PTR _strCMD$[ebp]
  00f2e	50		 push	 eax
  00f2f	e8 00 00 00 00	 call	 _strcmp
  00f34	83 c4 08	 add	 esp, 8
  00f37	85 c0		 test	 eax, eax
  00f39	0f 85 be 00 00
	00		 jne	 $LN175@ProcessCom

; 595  : 	{
; 596  : 		int i;
; 597  : 
; 598  : 		if (ptrParams == 0)

  00f3f	83 7d f4 00	 cmp	 DWORD PTR _ptrParams$[ebp], 0
  00f43	75 34		 jne	 SHORT $LN174@ProcessCom

; 599  : 		{
; 600  : 			sprintf(cmdReply, "%s %d", strCMD, DriveLevel);

  00f45	a1 00 00 00 00	 mov	 eax, DWORD PTR _DriveLevel
  00f4a	50		 push	 eax
  00f4b	8b 4d 08	 mov	 ecx, DWORD PTR _strCMD$[ebp]
  00f4e	51		 push	 ecx
  00f4f	68 00 00 00 00	 push	 OFFSET ??_C@_05DIALNFFA@?$CFs?5?$CFd?$AA@
  00f54	8d 95 28 fb ff
	ff		 lea	 edx, DWORD PTR _cmdReply$[ebp]
  00f5a	52		 push	 edx
  00f5b	e8 00 00 00 00	 call	 _sprintf
  00f60	83 c4 10	 add	 esp, 16			; 00000010H

; 601  : 			SendReplyToHost(cmdReply);

  00f63	8d 85 28 fb ff
	ff		 lea	 eax, DWORD PTR _cmdReply$[ebp]
  00f69	50		 push	 eax
  00f6a	e8 00 00 00 00	 call	 _SendReplyToHost
  00f6f	83 c4 04	 add	 esp, 4

; 602  : 			goto cmddone;

  00f72	e9 0c 18 00 00	 jmp	 $cmddone$5511

; 603  : 		}
; 604  : 		else

  00f77	eb 7f		 jmp	 SHORT $LN173@ProcessCom
$LN174@ProcessCom:

; 605  : 		{
; 606  : 			i = atoi(ptrParams);

  00f79	8b 45 f4	 mov	 eax, DWORD PTR _ptrParams$[ebp]
  00f7c	50		 push	 eax
  00f7d	e8 00 00 00 00	 call	 _atoi
  00f82	83 c4 04	 add	 esp, 4
  00f85	89 85 c8 fa ff
	ff		 mov	 DWORD PTR _i$5703[ebp], eax

; 607  : 
; 608  : 			if (i >= 0 && i <= 100)

  00f8b	83 bd c8 fa ff
	ff 00		 cmp	 DWORD PTR _i$5703[ebp], 0
  00f92	7c 48		 jl	 SHORT $LN172@ProcessCom
  00f94	83 bd c8 fa ff
	ff 64		 cmp	 DWORD PTR _i$5703[ebp], 100 ; 00000064H
  00f9b	7f 3f		 jg	 SHORT $LN172@ProcessCom

; 609  : 			{
; 610  : 				DriveLevel = i;

  00f9d	8b 85 c8 fa ff
	ff		 mov	 eax, DWORD PTR _i$5703[ebp]
  00fa3	a3 00 00 00 00	 mov	 DWORD PTR _DriveLevel, eax

; 611  : 				sprintf(cmdReply, "%s now %d", strCMD, DriveLevel);

  00fa8	a1 00 00 00 00	 mov	 eax, DWORD PTR _DriveLevel
  00fad	50		 push	 eax
  00fae	8b 4d 08	 mov	 ecx, DWORD PTR _strCMD$[ebp]
  00fb1	51		 push	 ecx
  00fb2	68 00 00 00 00	 push	 OFFSET ??_C@_09HDKFPBCF@?$CFs?5now?5?$CFd?$AA@
  00fb7	8d 95 28 fb ff
	ff		 lea	 edx, DWORD PTR _cmdReply$[ebp]
  00fbd	52		 push	 edx
  00fbe	e8 00 00 00 00	 call	 _sprintf
  00fc3	83 c4 10	 add	 esp, 16			; 00000010H

; 612  : 				SendReplyToHost(cmdReply);

  00fc6	8d 85 28 fb ff
	ff		 lea	 eax, DWORD PTR _cmdReply$[ebp]
  00fcc	50		 push	 eax
  00fcd	e8 00 00 00 00	 call	 _SendReplyToHost
  00fd2	83 c4 04	 add	 esp, 4

; 613  : 				goto cmddone;

  00fd5	e9 a9 17 00 00	 jmp	 $cmddone$5511

; 614  : 			}
; 615  : 			else

  00fda	eb 1c		 jmp	 SHORT $LN173@ProcessCom
$LN172@ProcessCom:

; 616  : 				sprintf(strFault, "Syntax Err: %s %s", strCMD, ptrParams);	

  00fdc	8b 45 f4	 mov	 eax, DWORD PTR _ptrParams$[ebp]
  00fdf	50		 push	 eax
  00fe0	8b 4d 08	 mov	 ecx, DWORD PTR _strCMD$[ebp]
  00fe3	51		 push	 ecx
  00fe4	68 00 00 00 00	 push	 OFFSET ??_C@_0BC@LMEKCHED@Syntax?5Err?3?5?$CFs?5?$CFs?$AA@
  00fe9	8d 95 30 ff ff
	ff		 lea	 edx, DWORD PTR _strFault$[ebp]
  00fef	52		 push	 edx
  00ff0	e8 00 00 00 00	 call	 _sprintf
  00ff5	83 c4 10	 add	 esp, 16			; 00000010H
$LN173@ProcessCom:

; 617  : 		}
; 618  : 		goto cmddone;

  00ff8	e9 86 17 00 00	 jmp	 $cmddone$5511
$LN175@ProcessCom:

; 619  : 	}
; 620  : 
; 621  : 	if (strcmp(strCMD, "FECID") == 0)

  00ffd	68 00 00 00 00	 push	 OFFSET ??_C@_05GFNAKLIJ@FECID?$AA@
  01002	8b 45 08	 mov	 eax, DWORD PTR _strCMD$[ebp]
  01005	50		 push	 eax
  01006	e8 00 00 00 00	 call	 _strcmp
  0100b	83 c4 08	 add	 esp, 8
  0100e	85 c0		 test	 eax, eax
  01010	0f 85 f7 00 00
	00		 jne	 $LN170@ProcessCom

; 622  : 	{
; 623  : 		if (ptrParams == NULL)

  01016	83 7d f4 00	 cmp	 DWORD PTR _ptrParams$[ebp], 0
  0101a	75 47		 jne	 SHORT $LN169@ProcessCom

; 624  : 		{
; 625  : 			if (FECId)

  0101c	83 3d 00 00 00
	00 00		 cmp	 DWORD PTR _FECId, 0
  01023	74 16		 je	 SHORT $LN168@ProcessCom

; 626  : 				sprintf(cmdReply, "FECID TRUE");

  01025	68 00 00 00 00	 push	 OFFSET ??_C@_0L@PPNNBKDK@FECID?5TRUE?$AA@
  0102a	8d 85 28 fb ff
	ff		 lea	 eax, DWORD PTR _cmdReply$[ebp]
  01030	50		 push	 eax
  01031	e8 00 00 00 00	 call	 _sprintf
  01036	83 c4 08	 add	 esp, 8

; 627  : 			else

  01039	eb 14		 jmp	 SHORT $LN167@ProcessCom
$LN168@ProcessCom:

; 628  : 				sprintf(cmdReply, "FECID FALSE");

  0103b	68 00 00 00 00	 push	 OFFSET ??_C@_0M@BHBJDGPN@FECID?5FALSE?$AA@
  01040	8d 85 28 fb ff
	ff		 lea	 eax, DWORD PTR _cmdReply$[ebp]
  01046	50		 push	 eax
  01047	e8 00 00 00 00	 call	 _sprintf
  0104c	83 c4 08	 add	 esp, 8
$LN167@ProcessCom:

; 629  : 
; 630  : 			SendReplyToHost(cmdReply);

  0104f	8d 85 28 fb ff
	ff		 lea	 eax, DWORD PTR _cmdReply$[ebp]
  01055	50		 push	 eax
  01056	e8 00 00 00 00	 call	 _SendReplyToHost
  0105b	83 c4 04	 add	 esp, 4

; 631  : 			goto cmddone;

  0105e	e9 20 17 00 00	 jmp	 $cmddone$5511
$LN169@ProcessCom:

; 632  : 		}
; 633  : 		
; 634  : 		if (strcmp(ptrParams, "TRUE") == 0)

  01063	68 00 00 00 00	 push	 OFFSET ??_C@_04HCDDPBNL@TRUE?$AA@
  01068	8b 45 f4	 mov	 eax, DWORD PTR _ptrParams$[ebp]
  0106b	50		 push	 eax
  0106c	e8 00 00 00 00	 call	 _strcmp
  01071	83 c4 08	 add	 esp, 8
  01074	85 c0		 test	 eax, eax
  01076	75 0c		 jne	 SHORT $LN166@ProcessCom

; 635  : 			FECId = TRUE;

  01078	c7 05 00 00 00
	00 01 00 00 00	 mov	 DWORD PTR _FECId, 1

; 636  : 		else 

  01082	eb 42		 jmp	 SHORT $LN165@ProcessCom
$LN166@ProcessCom:

; 637  : 		if (strcmp(ptrParams, "FALSE") == 0)

  01084	68 00 00 00 00	 push	 OFFSET ??_C@_05MAJJAKPI@FALSE?$AA@
  01089	8b 45 f4	 mov	 eax, DWORD PTR _ptrParams$[ebp]
  0108c	50		 push	 eax
  0108d	e8 00 00 00 00	 call	 _strcmp
  01092	83 c4 08	 add	 esp, 8
  01095	85 c0		 test	 eax, eax
  01097	75 0c		 jne	 SHORT $LN164@ProcessCom

; 638  : 			FECId = FALSE;

  01099	c7 05 00 00 00
	00 00 00 00 00	 mov	 DWORD PTR _FECId, 0

; 639  : 		else

  010a3	eb 21		 jmp	 SHORT $LN165@ProcessCom
$LN164@ProcessCom:

; 640  : 		{
; 641  : 			sprintf(strFault, "Syntax Err: %s %s", strCMD, ptrParams);

  010a5	8b 45 f4	 mov	 eax, DWORD PTR _ptrParams$[ebp]
  010a8	50		 push	 eax
  010a9	8b 4d 08	 mov	 ecx, DWORD PTR _strCMD$[ebp]
  010ac	51		 push	 ecx
  010ad	68 00 00 00 00	 push	 OFFSET ??_C@_0BC@LMEKCHED@Syntax?5Err?3?5?$CFs?5?$CFs?$AA@
  010b2	8d 95 30 ff ff
	ff		 lea	 edx, DWORD PTR _strFault$[ebp]
  010b8	52		 push	 edx
  010b9	e8 00 00 00 00	 call	 _sprintf
  010be	83 c4 10	 add	 esp, 16			; 00000010H

; 642  : 			goto cmddone;

  010c1	e9 bd 16 00 00	 jmp	 $cmddone$5511
$LN165@ProcessCom:

; 643  : 		}
; 644  : 		if (FECId)

  010c6	83 3d 00 00 00
	00 00		 cmp	 DWORD PTR _FECId, 0
  010cd	74 16		 je	 SHORT $LN162@ProcessCom

; 645  : 			sprintf(cmdReply, "FECID now TRUE");

  010cf	68 00 00 00 00	 push	 OFFSET ??_C@_0P@HJJBCJDJ@FECID?5now?5TRUE?$AA@
  010d4	8d 85 28 fb ff
	ff		 lea	 eax, DWORD PTR _cmdReply$[ebp]
  010da	50		 push	 eax
  010db	e8 00 00 00 00	 call	 _sprintf
  010e0	83 c4 08	 add	 esp, 8

; 646  : 		else

  010e3	eb 14		 jmp	 SHORT $LN161@ProcessCom
$LN162@ProcessCom:

; 647  : 			sprintf(cmdReply, "FECID now FALSE");

  010e5	68 00 00 00 00	 push	 OFFSET ??_C@_0BA@IOJGCLHE@FECID?5now?5FALSE?$AA@
  010ea	8d 85 28 fb ff
	ff		 lea	 eax, DWORD PTR _cmdReply$[ebp]
  010f0	50		 push	 eax
  010f1	e8 00 00 00 00	 call	 _sprintf
  010f6	83 c4 08	 add	 esp, 8
$LN161@ProcessCom:

; 648  : 
; 649  : 		SendReplyToHost(cmdReply);

  010f9	8d 85 28 fb ff
	ff		 lea	 eax, DWORD PTR _cmdReply$[ebp]
  010ff	50		 push	 eax
  01100	e8 00 00 00 00	 call	 _SendReplyToHost
  01105	83 c4 04	 add	 esp, 4

; 650  : 		goto cmddone;

  01108	e9 76 16 00 00	 jmp	 $cmddone$5511
$LN170@ProcessCom:

; 651  : 	}
; 652  : 
; 653  : 	if (strcmp(strCMD, "FASTSTART") == 0)

  0110d	68 00 00 00 00	 push	 OFFSET ??_C@_09JPMFIACP@FASTSTART?$AA@
  01112	8b 45 08	 mov	 eax, DWORD PTR _strCMD$[ebp]
  01115	50		 push	 eax
  01116	e8 00 00 00 00	 call	 _strcmp
  0111b	83 c4 08	 add	 esp, 8
  0111e	85 c0		 test	 eax, eax
  01120	0f 85 f7 00 00
	00		 jne	 $LN160@ProcessCom

; 654  : 	{
; 655  : 		if (ptrParams == NULL)

  01126	83 7d f4 00	 cmp	 DWORD PTR _ptrParams$[ebp], 0
  0112a	75 47		 jne	 SHORT $LN159@ProcessCom

; 656  : 		{
; 657  : 			if (fastStart)

  0112c	83 3d 00 00 00
	00 00		 cmp	 DWORD PTR _fastStart, 0
  01133	74 16		 je	 SHORT $LN158@ProcessCom

; 658  : 				sprintf(cmdReply, "FASTSTART TRUE");

  01135	68 00 00 00 00	 push	 OFFSET ??_C@_0P@IDDHDAJP@FASTSTART?5TRUE?$AA@
  0113a	8d 85 28 fb ff
	ff		 lea	 eax, DWORD PTR _cmdReply$[ebp]
  01140	50		 push	 eax
  01141	e8 00 00 00 00	 call	 _sprintf
  01146	83 c4 08	 add	 esp, 8

; 659  : 			else

  01149	eb 14		 jmp	 SHORT $LN157@ProcessCom
$LN158@ProcessCom:

; 660  : 				sprintf(cmdReply, "FASTSTART FALSE");

  0114b	68 00 00 00 00	 push	 OFFSET ??_C@_0BA@LBNJILLA@FASTSTART?5FALSE?$AA@
  01150	8d 85 28 fb ff
	ff		 lea	 eax, DWORD PTR _cmdReply$[ebp]
  01156	50		 push	 eax
  01157	e8 00 00 00 00	 call	 _sprintf
  0115c	83 c4 08	 add	 esp, 8
$LN157@ProcessCom:

; 661  : 
; 662  : 			SendReplyToHost(cmdReply);

  0115f	8d 85 28 fb ff
	ff		 lea	 eax, DWORD PTR _cmdReply$[ebp]
  01165	50		 push	 eax
  01166	e8 00 00 00 00	 call	 _SendReplyToHost
  0116b	83 c4 04	 add	 esp, 4

; 663  : 			goto cmddone;

  0116e	e9 10 16 00 00	 jmp	 $cmddone$5511
$LN159@ProcessCom:

; 664  : 		}
; 665  : 		
; 666  : 		if (strcmp(ptrParams, "TRUE") == 0)

  01173	68 00 00 00 00	 push	 OFFSET ??_C@_04HCDDPBNL@TRUE?$AA@
  01178	8b 45 f4	 mov	 eax, DWORD PTR _ptrParams$[ebp]
  0117b	50		 push	 eax
  0117c	e8 00 00 00 00	 call	 _strcmp
  01181	83 c4 08	 add	 esp, 8
  01184	85 c0		 test	 eax, eax
  01186	75 0c		 jne	 SHORT $LN156@ProcessCom

; 667  : 			fastStart = TRUE;

  01188	c7 05 00 00 00
	00 01 00 00 00	 mov	 DWORD PTR _fastStart, 1

; 668  : 		else 

  01192	eb 42		 jmp	 SHORT $LN155@ProcessCom
$LN156@ProcessCom:

; 669  : 		if (strcmp(ptrParams, "FALSE") == 0)

  01194	68 00 00 00 00	 push	 OFFSET ??_C@_05MAJJAKPI@FALSE?$AA@
  01199	8b 45 f4	 mov	 eax, DWORD PTR _ptrParams$[ebp]
  0119c	50		 push	 eax
  0119d	e8 00 00 00 00	 call	 _strcmp
  011a2	83 c4 08	 add	 esp, 8
  011a5	85 c0		 test	 eax, eax
  011a7	75 0c		 jne	 SHORT $LN154@ProcessCom

; 670  : 			fastStart = FALSE;

  011a9	c7 05 00 00 00
	00 00 00 00 00	 mov	 DWORD PTR _fastStart, 0

; 671  : 		else

  011b3	eb 21		 jmp	 SHORT $LN155@ProcessCom
$LN154@ProcessCom:

; 672  : 		{
; 673  : 			sprintf(strFault, "Syntax Err: %s %s", strCMD, ptrParams);

  011b5	8b 45 f4	 mov	 eax, DWORD PTR _ptrParams$[ebp]
  011b8	50		 push	 eax
  011b9	8b 4d 08	 mov	 ecx, DWORD PTR _strCMD$[ebp]
  011bc	51		 push	 ecx
  011bd	68 00 00 00 00	 push	 OFFSET ??_C@_0BC@LMEKCHED@Syntax?5Err?3?5?$CFs?5?$CFs?$AA@
  011c2	8d 95 30 ff ff
	ff		 lea	 edx, DWORD PTR _strFault$[ebp]
  011c8	52		 push	 edx
  011c9	e8 00 00 00 00	 call	 _sprintf
  011ce	83 c4 10	 add	 esp, 16			; 00000010H

; 674  : 			goto cmddone;

  011d1	e9 ad 15 00 00	 jmp	 $cmddone$5511
$LN155@ProcessCom:

; 675  : 		}
; 676  : 		if (fastStart)

  011d6	83 3d 00 00 00
	00 00		 cmp	 DWORD PTR _fastStart, 0
  011dd	74 16		 je	 SHORT $LN152@ProcessCom

; 677  : 			sprintf(cmdReply, "FASTSTART now TRUE");

  011df	68 00 00 00 00	 push	 OFFSET ??_C@_0BD@MLNMCFEJ@FASTSTART?5now?5TRUE?$AA@
  011e4	8d 85 28 fb ff
	ff		 lea	 eax, DWORD PTR _cmdReply$[ebp]
  011ea	50		 push	 eax
  011eb	e8 00 00 00 00	 call	 _sprintf
  011f0	83 c4 08	 add	 esp, 8

; 678  : 		else

  011f3	eb 14		 jmp	 SHORT $LN151@ProcessCom
$LN152@ProcessCom:

; 679  : 			sprintf(cmdReply, "FASTSTART now FALSE");

  011f5	68 00 00 00 00	 push	 OFFSET ??_C@_0BE@NOCBBHEE@FASTSTART?5now?5FALSE?$AA@
  011fa	8d 85 28 fb ff
	ff		 lea	 eax, DWORD PTR _cmdReply$[ebp]
  01200	50		 push	 eax
  01201	e8 00 00 00 00	 call	 _sprintf
  01206	83 c4 08	 add	 esp, 8
$LN151@ProcessCom:

; 680  : 
; 681  : 		SendReplyToHost(cmdReply);

  01209	8d 85 28 fb ff
	ff		 lea	 eax, DWORD PTR _cmdReply$[ebp]
  0120f	50		 push	 eax
  01210	e8 00 00 00 00	 call	 _SendReplyToHost
  01215	83 c4 04	 add	 esp, 4

; 682  : 
; 683  : 		goto cmddone;

  01218	e9 66 15 00 00	 jmp	 $cmddone$5511
$LN160@ProcessCom:

; 684  : 	}
; 685  : 
; 686  : 	if (strcmp(strCMD, "FECMODE") == 0)

  0121d	68 00 00 00 00	 push	 OFFSET ??_C@_07HDFJIDCP@FECMODE?$AA@
  01222	8b 45 08	 mov	 eax, DWORD PTR _strCMD$[ebp]
  01225	50		 push	 eax
  01226	e8 00 00 00 00	 call	 _strcmp
  0122b	83 c4 08	 add	 esp, 8
  0122e	85 c0		 test	 eax, eax
  01230	0f 85 f1 00 00
	00		 jne	 $LN150@ProcessCom

; 687  : 	{
; 688  : 		int i;
; 689  : 
; 690  : 		if (ptrParams == 0)

  01236	83 7d f4 00	 cmp	 DWORD PTR _ptrParams$[ebp], 0
  0123a	75 31		 jne	 SHORT $LN149@ProcessCom

; 691  : 		{
; 692  : 			sprintf(cmdReply, "%s %s", strCMD, strFECMode);

  0123c	68 00 00 00 00	 push	 OFFSET _strFECMode
  01241	8b 45 08	 mov	 eax, DWORD PTR _strCMD$[ebp]
  01244	50		 push	 eax
  01245	68 00 00 00 00	 push	 OFFSET ??_C@_05DNIIFBMG@?$CFs?5?$CFs?$AA@
  0124a	8d 8d 28 fb ff
	ff		 lea	 ecx, DWORD PTR _cmdReply$[ebp]
  01250	51		 push	 ecx
  01251	e8 00 00 00 00	 call	 _sprintf
  01256	83 c4 10	 add	 esp, 16			; 00000010H

; 693  : 			SendReplyToHost(cmdReply);

  01259	8d 85 28 fb ff
	ff		 lea	 eax, DWORD PTR _cmdReply$[ebp]
  0125f	50		 push	 eax
  01260	e8 00 00 00 00	 call	 _SendReplyToHost
  01265	83 c4 04	 add	 esp, 4

; 694  : 		}
; 695  : 		else

  01268	e9 b5 00 00 00	 jmp	 $LN148@ProcessCom
$LN149@ProcessCom:

; 696  : 		{
; 697  : 			for (i = 0;  i < strAllDataModesLen; i++)

  0126d	c7 85 bc fa ff
	ff 00 00 00 00	 mov	 DWORD PTR _i$5742[ebp], 0
  01277	eb 0f		 jmp	 SHORT $LN147@ProcessCom
$LN146@ProcessCom:
  01279	8b 85 bc fa ff
	ff		 mov	 eax, DWORD PTR _i$5742[ebp]
  0127f	83 c0 01	 add	 eax, 1
  01282	89 85 bc fa ff
	ff		 mov	 DWORD PTR _i$5742[ebp], eax
$LN147@ProcessCom:
  01288	8b 85 bc fa ff
	ff		 mov	 eax, DWORD PTR _i$5742[ebp]
  0128e	3b 05 00 00 00
	00		 cmp	 eax, DWORD PTR _strAllDataModesLen
  01294	7d 70		 jge	 SHORT $LN145@ProcessCom

; 698  : 			{
; 699  : 				if (strcmp(ptrParams, strAllDataModes[i]) == 0)

  01296	8b 85 bc fa ff
	ff		 mov	 eax, DWORD PTR _i$5742[ebp]
  0129c	6b c0 0f	 imul	 eax, 15			; 0000000fH
  0129f	05 00 00 00 00	 add	 eax, OFFSET _strAllDataModes
  012a4	50		 push	 eax
  012a5	8b 4d f4	 mov	 ecx, DWORD PTR _ptrParams$[ebp]
  012a8	51		 push	 ecx
  012a9	e8 00 00 00 00	 call	 _strcmp
  012ae	83 c4 08	 add	 esp, 8
  012b1	85 c0		 test	 eax, eax
  012b3	75 4c		 jne	 SHORT $LN144@ProcessCom

; 700  : 				{
; 701  : 					strcpy(strFECMode, ptrParams);

  012b5	8b 45 f4	 mov	 eax, DWORD PTR _ptrParams$[ebp]
  012b8	50		 push	 eax
  012b9	68 00 00 00 00	 push	 OFFSET _strFECMode
  012be	e8 00 00 00 00	 call	 _strcpy
  012c3	83 c4 08	 add	 esp, 8

; 702  : 					intFECFramesSent = 0;		// Force mode to be reevaluated

  012c6	c7 05 00 00 00
	00 00 00 00 00	 mov	 DWORD PTR _intFECFramesSent, 0

; 703  : 					sprintf(cmdReply, "%s now %s", strCMD, strFECMode);

  012d0	68 00 00 00 00	 push	 OFFSET _strFECMode
  012d5	8b 45 08	 mov	 eax, DWORD PTR _strCMD$[ebp]
  012d8	50		 push	 eax
  012d9	68 00 00 00 00	 push	 OFFSET ??_C@_09HGCGHFLD@?$CFs?5now?5?$CFs?$AA@
  012de	8d 8d 28 fb ff
	ff		 lea	 ecx, DWORD PTR _cmdReply$[ebp]
  012e4	51		 push	 ecx
  012e5	e8 00 00 00 00	 call	 _sprintf
  012ea	83 c4 10	 add	 esp, 16			; 00000010H

; 704  : 					SendReplyToHost(cmdReply);

  012ed	8d 85 28 fb ff
	ff		 lea	 eax, DWORD PTR _cmdReply$[ebp]
  012f3	50		 push	 eax
  012f4	e8 00 00 00 00	 call	 _SendReplyToHost
  012f9	83 c4 04	 add	 esp, 4

; 705  : 					goto cmddone;

  012fc	e9 82 14 00 00	 jmp	 $cmddone$5511
$LN144@ProcessCom:

; 706  : 				}
; 707  : 			}

  01301	e9 73 ff ff ff	 jmp	 $LN146@ProcessCom
$LN145@ProcessCom:

; 708  : 			sprintf(strFault, "Syntax Err: %s %s", strCMD, ptrParams);

  01306	8b 45 f4	 mov	 eax, DWORD PTR _ptrParams$[ebp]
  01309	50		 push	 eax
  0130a	8b 4d 08	 mov	 ecx, DWORD PTR _strCMD$[ebp]
  0130d	51		 push	 ecx
  0130e	68 00 00 00 00	 push	 OFFSET ??_C@_0BC@LMEKCHED@Syntax?5Err?3?5?$CFs?5?$CFs?$AA@
  01313	8d 95 30 ff ff
	ff		 lea	 edx, DWORD PTR _strFault$[ebp]
  01319	52		 push	 edx
  0131a	e8 00 00 00 00	 call	 _sprintf
  0131f	83 c4 10	 add	 esp, 16			; 00000010H
$LN148@ProcessCom:

; 709  : 		}	
; 710  : 		goto cmddone;

  01322	e9 5c 14 00 00	 jmp	 $cmddone$5511
$LN150@ProcessCom:

; 711  : 	}
; 712  : 		
; 713  : 	if (strcmp(strCMD, "FECREPEATS") == 0)

  01327	68 00 00 00 00	 push	 OFFSET ??_C@_0L@HBCPKIJB@FECREPEATS?$AA@
  0132c	8b 45 08	 mov	 eax, DWORD PTR _strCMD$[ebp]
  0132f	50		 push	 eax
  01330	e8 00 00 00 00	 call	 _strcmp
  01335	83 c4 08	 add	 esp, 8
  01338	85 c0		 test	 eax, eax
  0133a	0f 85 b4 00 00
	00		 jne	 $LN143@ProcessCom

; 714  : 	{
; 715  : 		int i;
; 716  : 
; 717  : 		if (ptrParams == 0)

  01340	83 7d f4 00	 cmp	 DWORD PTR _ptrParams$[ebp], 0
  01344	75 2f		 jne	 SHORT $LN142@ProcessCom

; 718  : 		{
; 719  : 			sprintf(cmdReply, "%s %d", strCMD, FECRepeats);

  01346	a1 00 00 00 00	 mov	 eax, DWORD PTR _FECRepeats
  0134b	50		 push	 eax
  0134c	8b 4d 08	 mov	 ecx, DWORD PTR _strCMD$[ebp]
  0134f	51		 push	 ecx
  01350	68 00 00 00 00	 push	 OFFSET ??_C@_05DIALNFFA@?$CFs?5?$CFd?$AA@
  01355	8d 95 28 fb ff
	ff		 lea	 edx, DWORD PTR _cmdReply$[ebp]
  0135b	52		 push	 edx
  0135c	e8 00 00 00 00	 call	 _sprintf
  01361	83 c4 10	 add	 esp, 16			; 00000010H

; 720  : 			SendReplyToHost(cmdReply);

  01364	8d 85 28 fb ff
	ff		 lea	 eax, DWORD PTR _cmdReply$[ebp]
  0136a	50		 push	 eax
  0136b	e8 00 00 00 00	 call	 _SendReplyToHost
  01370	83 c4 04	 add	 esp, 4

; 721  : 		}
; 722  : 		else

  01373	eb 7a		 jmp	 SHORT $LN141@ProcessCom
$LN142@ProcessCom:

; 723  : 		{
; 724  : 			i = atoi(ptrParams);

  01375	8b 45 f4	 mov	 eax, DWORD PTR _ptrParams$[ebp]
  01378	50		 push	 eax
  01379	e8 00 00 00 00	 call	 _atoi
  0137e	83 c4 04	 add	 esp, 4
  01381	89 85 b0 fa ff
	ff		 mov	 DWORD PTR _i$5751[ebp], eax

; 725  : 
; 726  : 			if (i >= 0 && i <= 5)	

  01387	83 bd b0 fa ff
	ff 00		 cmp	 DWORD PTR _i$5751[ebp], 0
  0138e	7c 43		 jl	 SHORT $LN140@ProcessCom
  01390	83 bd b0 fa ff
	ff 05		 cmp	 DWORD PTR _i$5751[ebp], 5
  01397	7f 3a		 jg	 SHORT $LN140@ProcessCom

; 727  : 			{
; 728  : 				FECRepeats = i;

  01399	8b 85 b0 fa ff
	ff		 mov	 eax, DWORD PTR _i$5751[ebp]
  0139f	a3 00 00 00 00	 mov	 DWORD PTR _FECRepeats, eax

; 729  : 				sprintf(cmdReply, "%s now %d", strCMD, FECRepeats);

  013a4	a1 00 00 00 00	 mov	 eax, DWORD PTR _FECRepeats
  013a9	50		 push	 eax
  013aa	8b 4d 08	 mov	 ecx, DWORD PTR _strCMD$[ebp]
  013ad	51		 push	 ecx
  013ae	68 00 00 00 00	 push	 OFFSET ??_C@_09HDKFPBCF@?$CFs?5now?5?$CFd?$AA@
  013b3	8d 95 28 fb ff
	ff		 lea	 edx, DWORD PTR _cmdReply$[ebp]
  013b9	52		 push	 edx
  013ba	e8 00 00 00 00	 call	 _sprintf
  013bf	83 c4 10	 add	 esp, 16			; 00000010H

; 730  : 				SendReplyToHost(cmdReply);

  013c2	8d 85 28 fb ff
	ff		 lea	 eax, DWORD PTR _cmdReply$[ebp]
  013c8	50		 push	 eax
  013c9	e8 00 00 00 00	 call	 _SendReplyToHost
  013ce	83 c4 04	 add	 esp, 4

; 731  : 			}
; 732  : 			else

  013d1	eb 1c		 jmp	 SHORT $LN141@ProcessCom
$LN140@ProcessCom:

; 733  : 				sprintf(strFault, "Syntax Err: %s %s", strCMD, ptrParams);	

  013d3	8b 45 f4	 mov	 eax, DWORD PTR _ptrParams$[ebp]
  013d6	50		 push	 eax
  013d7	8b 4d 08	 mov	 ecx, DWORD PTR _strCMD$[ebp]
  013da	51		 push	 ecx
  013db	68 00 00 00 00	 push	 OFFSET ??_C@_0BC@LMEKCHED@Syntax?5Err?3?5?$CFs?5?$CFs?$AA@
  013e0	8d 95 30 ff ff
	ff		 lea	 edx, DWORD PTR _strFault$[ebp]
  013e6	52		 push	 edx
  013e7	e8 00 00 00 00	 call	 _sprintf
  013ec	83 c4 10	 add	 esp, 16			; 00000010H
$LN141@ProcessCom:

; 734  : 		}
; 735  : 		goto cmddone;

  013ef	e9 8f 13 00 00	 jmp	 $cmddone$5511
$LN143@ProcessCom:

; 736  : 	}
; 737  : 
; 738  : 	if (strcmp(strCMD, "FECSEND") == 0)

  013f4	68 00 00 00 00	 push	 OFFSET ??_C@_07NHLIPODP@FECSEND?$AA@
  013f9	8b 45 08	 mov	 eax, DWORD PTR _strCMD$[ebp]
  013fc	50		 push	 eax
  013fd	e8 00 00 00 00	 call	 _strcmp
  01402	83 c4 08	 add	 esp, 8
  01405	85 c0		 test	 eax, eax
  01407	0f 85 b4 00 00
	00		 jne	 $LN138@ProcessCom

; 739  : 	{
; 740  : 		if (ptrParams == 0)

  0140d	83 7d f4 00	 cmp	 DWORD PTR _ptrParams$[ebp], 0
  01411	75 1d		 jne	 SHORT $LN137@ProcessCom

; 741  : 		{
; 742  : 			sprintf(strFault, "Syntax Err: %s", strCMD);	

  01413	8b 45 08	 mov	 eax, DWORD PTR _strCMD$[ebp]
  01416	50		 push	 eax
  01417	68 00 00 00 00	 push	 OFFSET ??_C@_0P@PLMKFMGC@Syntax?5Err?3?5?$CFs?$AA@
  0141c	8d 8d 30 ff ff
	ff		 lea	 ecx, DWORD PTR _strFault$[ebp]
  01422	51		 push	 ecx
  01423	e8 00 00 00 00	 call	 _sprintf
  01428	83 c4 0c	 add	 esp, 12			; 0000000cH

; 743  : 			goto cmddone;

  0142b	e9 53 13 00 00	 jmp	 $cmddone$5511
$LN137@ProcessCom:

; 744  : 		}
; 745  : 		if (strcmp(ptrParams, "TRUE") == 0)

  01430	68 00 00 00 00	 push	 OFFSET ??_C@_04HCDDPBNL@TRUE?$AA@
  01435	8b 45 f4	 mov	 eax, DWORD PTR _ptrParams$[ebp]
  01438	50		 push	 eax
  01439	e8 00 00 00 00	 call	 _strcmp
  0143e	83 c4 08	 add	 esp, 8
  01441	85 c0		 test	 eax, eax
  01443	75 2d		 jne	 SHORT $LN136@ProcessCom

; 746  : 		{				
; 747  : 			StartFEC(NULL, 0, strFECMode, FECRepeats, FECId);

  01445	a1 00 00 00 00	 mov	 eax, DWORD PTR _FECId
  0144a	50		 push	 eax
  0144b	8b 0d 00 00 00
	00		 mov	 ecx, DWORD PTR _FECRepeats
  01451	51		 push	 ecx
  01452	68 00 00 00 00	 push	 OFFSET _strFECMode
  01457	6a 00		 push	 0
  01459	6a 00		 push	 0
  0145b	e8 00 00 00 00	 call	 _StartFEC
  01460	83 c4 14	 add	 esp, 20			; 00000014H

; 748  : 			SendReplyToHost("FECSEND now TRUE");

  01463	68 00 00 00 00	 push	 OFFSET ??_C@_0BB@LAHCNNHA@FECSEND?5now?5TRUE?$AA@
  01468	e8 00 00 00 00	 call	 _SendReplyToHost
  0146d	83 c4 04	 add	 esp, 4
  01470	eb 4a		 jmp	 SHORT $LN135@ProcessCom
$LN136@ProcessCom:

; 749  : 		}
; 750  : 		else if (strcmp(ptrParams, "FALSE") == 0)

  01472	68 00 00 00 00	 push	 OFFSET ??_C@_05MAJJAKPI@FALSE?$AA@
  01477	8b 45 f4	 mov	 eax, DWORD PTR _ptrParams$[ebp]
  0147a	50		 push	 eax
  0147b	e8 00 00 00 00	 call	 _strcmp
  01480	83 c4 08	 add	 esp, 8
  01483	85 c0		 test	 eax, eax
  01485	75 19		 jne	 SHORT $LN134@ProcessCom

; 751  : 		{
; 752  : 			blnAbort = TRUE;

  01487	c7 05 00 00 00
	00 01 00 00 00	 mov	 DWORD PTR _blnAbort, 1

; 753  : 			SendReplyToHost("FECSEND now FALSE");

  01491	68 00 00 00 00	 push	 OFFSET ??_C@_0BC@IBFPDBLE@FECSEND?5now?5FALSE?$AA@
  01496	e8 00 00 00 00	 call	 _SendReplyToHost
  0149b	83 c4 04	 add	 esp, 4

; 754  : 		}
; 755  : 		else

  0149e	eb 1c		 jmp	 SHORT $LN135@ProcessCom
$LN134@ProcessCom:

; 756  : 			sprintf(strFault, "Syntax Err: %s %s", strCMD, ptrParams);

  014a0	8b 45 f4	 mov	 eax, DWORD PTR _ptrParams$[ebp]
  014a3	50		 push	 eax
  014a4	8b 4d 08	 mov	 ecx, DWORD PTR _strCMD$[ebp]
  014a7	51		 push	 ecx
  014a8	68 00 00 00 00	 push	 OFFSET ??_C@_0BC@LMEKCHED@Syntax?5Err?3?5?$CFs?5?$CFs?$AA@
  014ad	8d 95 30 ff ff
	ff		 lea	 edx, DWORD PTR _strFault$[ebp]
  014b3	52		 push	 edx
  014b4	e8 00 00 00 00	 call	 _sprintf
  014b9	83 c4 10	 add	 esp, 16			; 00000010H
$LN135@ProcessCom:

; 757  : 
; 758  : 		goto cmddone;

  014bc	e9 c2 12 00 00	 jmp	 $cmddone$5511
$LN138@ProcessCom:

; 759  : 	}
; 760  : 
; 761  : 	if (strcmp(strCMD, "FSKONLY") == 0)

  014c1	68 00 00 00 00	 push	 OFFSET ??_C@_07LBBMJAFG@FSKONLY?$AA@
  014c6	8b 45 08	 mov	 eax, DWORD PTR _strCMD$[ebp]
  014c9	50		 push	 eax
  014ca	e8 00 00 00 00	 call	 _strcmp
  014cf	83 c4 08	 add	 esp, 8
  014d2	85 c0		 test	 eax, eax
  014d4	0f 85 f7 00 00
	00		 jne	 $LN132@ProcessCom

; 762  : 	{
; 763  : 		if (ptrParams == NULL)

  014da	83 7d f4 00	 cmp	 DWORD PTR _ptrParams$[ebp], 0
  014de	75 47		 jne	 SHORT $LN131@ProcessCom

; 764  : 		{
; 765  : 			if (FSKOnly)

  014e0	83 3d 00 00 00
	00 00		 cmp	 DWORD PTR _FSKOnly, 0
  014e7	74 16		 je	 SHORT $LN130@ProcessCom

; 766  : 				sprintf(cmdReply, "FSKONLY TRUE");

  014e9	68 00 00 00 00	 push	 OFFSET ??_C@_0N@KOLDOCCN@FSKONLY?5TRUE?$AA@
  014ee	8d 85 28 fb ff
	ff		 lea	 eax, DWORD PTR _cmdReply$[ebp]
  014f4	50		 push	 eax
  014f5	e8 00 00 00 00	 call	 _sprintf
  014fa	83 c4 08	 add	 esp, 8

; 767  : 			else

  014fd	eb 14		 jmp	 SHORT $LN129@ProcessCom
$LN130@ProcessCom:

; 768  : 				sprintf(cmdReply, "FSKONLY FALSE");

  014ff	68 00 00 00 00	 push	 OFFSET ??_C@_0O@JEJLNNMC@FSKONLY?5FALSE?$AA@
  01504	8d 85 28 fb ff
	ff		 lea	 eax, DWORD PTR _cmdReply$[ebp]
  0150a	50		 push	 eax
  0150b	e8 00 00 00 00	 call	 _sprintf
  01510	83 c4 08	 add	 esp, 8
$LN129@ProcessCom:

; 769  : 
; 770  : 			SendReplyToHost(cmdReply);

  01513	8d 85 28 fb ff
	ff		 lea	 eax, DWORD PTR _cmdReply$[ebp]
  01519	50		 push	 eax
  0151a	e8 00 00 00 00	 call	 _SendReplyToHost
  0151f	83 c4 04	 add	 esp, 4

; 771  : 			goto cmddone;

  01522	e9 5c 12 00 00	 jmp	 $cmddone$5511
$LN131@ProcessCom:

; 772  : 		}
; 773  : 		
; 774  : 		if (strcmp(ptrParams, "TRUE") == 0)

  01527	68 00 00 00 00	 push	 OFFSET ??_C@_04HCDDPBNL@TRUE?$AA@
  0152c	8b 45 f4	 mov	 eax, DWORD PTR _ptrParams$[ebp]
  0152f	50		 push	 eax
  01530	e8 00 00 00 00	 call	 _strcmp
  01535	83 c4 08	 add	 esp, 8
  01538	85 c0		 test	 eax, eax
  0153a	75 0c		 jne	 SHORT $LN128@ProcessCom

; 775  : 			FSKOnly = TRUE;

  0153c	c7 05 00 00 00
	00 01 00 00 00	 mov	 DWORD PTR _FSKOnly, 1

; 776  : 		else 

  01546	eb 42		 jmp	 SHORT $LN127@ProcessCom
$LN128@ProcessCom:

; 777  : 		if (strcmp(ptrParams, "FALSE") == 0)

  01548	68 00 00 00 00	 push	 OFFSET ??_C@_05MAJJAKPI@FALSE?$AA@
  0154d	8b 45 f4	 mov	 eax, DWORD PTR _ptrParams$[ebp]
  01550	50		 push	 eax
  01551	e8 00 00 00 00	 call	 _strcmp
  01556	83 c4 08	 add	 esp, 8
  01559	85 c0		 test	 eax, eax
  0155b	75 0c		 jne	 SHORT $LN126@ProcessCom

; 778  : 			FSKOnly = FALSE;

  0155d	c7 05 00 00 00
	00 00 00 00 00	 mov	 DWORD PTR _FSKOnly, 0

; 779  : 		else

  01567	eb 21		 jmp	 SHORT $LN127@ProcessCom
$LN126@ProcessCom:

; 780  : 		{
; 781  : 			sprintf(strFault, "Syntax Err: %s %s", strCMD, ptrParams);

  01569	8b 45 f4	 mov	 eax, DWORD PTR _ptrParams$[ebp]
  0156c	50		 push	 eax
  0156d	8b 4d 08	 mov	 ecx, DWORD PTR _strCMD$[ebp]
  01570	51		 push	 ecx
  01571	68 00 00 00 00	 push	 OFFSET ??_C@_0BC@LMEKCHED@Syntax?5Err?3?5?$CFs?5?$CFs?$AA@
  01576	8d 95 30 ff ff
	ff		 lea	 edx, DWORD PTR _strFault$[ebp]
  0157c	52		 push	 edx
  0157d	e8 00 00 00 00	 call	 _sprintf
  01582	83 c4 10	 add	 esp, 16			; 00000010H

; 782  : 			goto cmddone;

  01585	e9 f9 11 00 00	 jmp	 $cmddone$5511
$LN127@ProcessCom:

; 783  : 		}
; 784  : 		if (FSKOnly)

  0158a	83 3d 00 00 00
	00 00		 cmp	 DWORD PTR _FSKOnly, 0
  01591	74 16		 je	 SHORT $LN124@ProcessCom

; 785  : 			sprintf(cmdReply, "FSKONLY now TRUE");

  01593	68 00 00 00 00	 push	 OFFSET ??_C@_0BB@OIJKEDDM@FSKONLY?5now?5TRUE?$AA@
  01598	8d 85 28 fb ff
	ff		 lea	 eax, DWORD PTR _cmdReply$[ebp]
  0159e	50		 push	 eax
  0159f	e8 00 00 00 00	 call	 _sprintf
  015a4	83 c4 08	 add	 esp, 8

; 786  : 		else

  015a7	eb 14		 jmp	 SHORT $LN123@ProcessCom
$LN124@ProcessCom:

; 787  : 			sprintf(cmdReply, "FSKONLY now FALSE");

  015a9	68 00 00 00 00	 push	 OFFSET ??_C@_0BC@POGNNEJB@FSKONLY?5now?5FALSE?$AA@
  015ae	8d 85 28 fb ff
	ff		 lea	 eax, DWORD PTR _cmdReply$[ebp]
  015b4	50		 push	 eax
  015b5	e8 00 00 00 00	 call	 _sprintf
  015ba	83 c4 08	 add	 esp, 8
$LN123@ProcessCom:

; 788  : 
; 789  : 		SendReplyToHost(cmdReply);

  015bd	8d 85 28 fb ff
	ff		 lea	 eax, DWORD PTR _cmdReply$[ebp]
  015c3	50		 push	 eax
  015c4	e8 00 00 00 00	 call	 _SendReplyToHost
  015c9	83 c4 04	 add	 esp, 4

; 790  : 		goto cmddone;

  015cc	e9 b2 11 00 00	 jmp	 $cmddone$5511
$LN132@ProcessCom:

; 791  : 	}
; 792  : 
; 793  : 
; 794  : 
; 795  : 	if (strcmp(strCMD, "GRIDSQUARE") == 0)

  015d1	68 00 00 00 00	 push	 OFFSET ??_C@_0L@ONIOHLEE@GRIDSQUARE?$AA@
  015d6	8b 45 08	 mov	 eax, DWORD PTR _strCMD$[ebp]
  015d9	50		 push	 eax
  015da	e8 00 00 00 00	 call	 _strcmp
  015df	83 c4 08	 add	 esp, 8
  015e2	85 c0		 test	 eax, eax
  015e4	0f 85 a4 00 00
	00		 jne	 $LN122@ProcessCom

; 796  : 	{
; 797  : 		if (ptrParams == 0)

  015ea	83 7d f4 00	 cmp	 DWORD PTR _ptrParams$[ebp], 0
  015ee	75 2e		 jne	 SHORT $LN121@ProcessCom

; 798  : 		{
; 799  : 			sprintf(cmdReply, "%s %s", strCMD, GridSquare);

  015f0	68 00 00 00 00	 push	 OFFSET _GridSquare
  015f5	8b 45 08	 mov	 eax, DWORD PTR _strCMD$[ebp]
  015f8	50		 push	 eax
  015f9	68 00 00 00 00	 push	 OFFSET ??_C@_05DNIIFBMG@?$CFs?5?$CFs?$AA@
  015fe	8d 8d 28 fb ff
	ff		 lea	 ecx, DWORD PTR _cmdReply$[ebp]
  01604	51		 push	 ecx
  01605	e8 00 00 00 00	 call	 _sprintf
  0160a	83 c4 10	 add	 esp, 16			; 00000010H

; 800  : 			SendReplyToHost(cmdReply);

  0160d	8d 85 28 fb ff
	ff		 lea	 eax, DWORD PTR _cmdReply$[ebp]
  01613	50		 push	 eax
  01614	e8 00 00 00 00	 call	 _SendReplyToHost
  01619	83 c4 04	 add	 esp, 4

; 801  : 		}
; 802  : 		else

  0161c	eb 6b		 jmp	 SHORT $LN120@ProcessCom
$LN121@ProcessCom:

; 803  : 			if (CheckGSSyntax(ptrParams))

  0161e	8b 45 f4	 mov	 eax, DWORD PTR _ptrParams$[ebp]
  01621	50		 push	 eax
  01622	e8 00 00 00 00	 call	 _CheckGSSyntax
  01627	83 c4 04	 add	 esp, 4
  0162a	85 c0		 test	 eax, eax
  0162c	74 3f		 je	 SHORT $LN119@ProcessCom

; 804  : 			{
; 805  : 				strcpy(GridSquare, ptrParams);

  0162e	8b 45 f4	 mov	 eax, DWORD PTR _ptrParams$[ebp]
  01631	50		 push	 eax
  01632	68 00 00 00 00	 push	 OFFSET _GridSquare
  01637	e8 00 00 00 00	 call	 _strcpy
  0163c	83 c4 08	 add	 esp, 8

; 806  : 				sprintf(cmdReply, "%s now %s", strCMD, GridSquare);

  0163f	68 00 00 00 00	 push	 OFFSET _GridSquare
  01644	8b 45 08	 mov	 eax, DWORD PTR _strCMD$[ebp]
  01647	50		 push	 eax
  01648	68 00 00 00 00	 push	 OFFSET ??_C@_09HGCGHFLD@?$CFs?5now?5?$CFs?$AA@
  0164d	8d 8d 28 fb ff
	ff		 lea	 ecx, DWORD PTR _cmdReply$[ebp]
  01653	51		 push	 ecx
  01654	e8 00 00 00 00	 call	 _sprintf
  01659	83 c4 10	 add	 esp, 16			; 00000010H

; 807  : 				SendReplyToHost(cmdReply);

  0165c	8d 85 28 fb ff
	ff		 lea	 eax, DWORD PTR _cmdReply$[ebp]
  01662	50		 push	 eax
  01663	e8 00 00 00 00	 call	 _SendReplyToHost
  01668	83 c4 04	 add	 esp, 4

; 808  : 			}
; 809  : 			else

  0166b	eb 1c		 jmp	 SHORT $LN120@ProcessCom
$LN119@ProcessCom:

; 810  : 				sprintf(strFault, "Syntax Err: %s %s", strCMD, ptrParams);

  0166d	8b 45 f4	 mov	 eax, DWORD PTR _ptrParams$[ebp]
  01670	50		 push	 eax
  01671	8b 4d 08	 mov	 ecx, DWORD PTR _strCMD$[ebp]
  01674	51		 push	 ecx
  01675	68 00 00 00 00	 push	 OFFSET ??_C@_0BC@LMEKCHED@Syntax?5Err?3?5?$CFs?5?$CFs?$AA@
  0167a	8d 95 30 ff ff
	ff		 lea	 edx, DWORD PTR _strFault$[ebp]
  01680	52		 push	 edx
  01681	e8 00 00 00 00	 call	 _sprintf
  01686	83 c4 10	 add	 esp, 16			; 00000010H
$LN120@ProcessCom:

; 811  : 
; 812  : 		goto cmddone;

  01689	e9 f5 10 00 00	 jmp	 $cmddone$5511
$LN122@ProcessCom:

; 813  : 	}
; 814  : 
; 815  : 	if (strcmp(strCMD, "INITIALIZE") == 0)

  0168e	68 00 00 00 00	 push	 OFFSET ??_C@_0L@JIPOENLA@INITIALIZE?$AA@
  01693	8b 45 08	 mov	 eax, DWORD PTR _strCMD$[ebp]
  01696	50		 push	 eax
  01697	e8 00 00 00 00	 call	 _strcmp
  0169c	83 c4 08	 add	 esp, 8
  0169f	85 c0		 test	 eax, eax
  016a1	75 35		 jne	 SHORT $LN117@ProcessCom

; 816  : 	{
; 817  : 		blnInitializing = TRUE;

  016a3	c7 05 00 00 00
	00 01 00 00 00	 mov	 DWORD PTR _blnInitializing, 1

; 818  : 		ClearDataToSend();

  016ad	e8 00 00 00 00	 call	 _ClearDataToSend

; 819  : 		blnHostRDY = TRUE;

  016b2	c7 05 00 00 00
	00 01 00 00 00	 mov	 DWORD PTR _blnHostRDY, 1

; 820  : 		blnInitializing = FALSE;

  016bc	c7 05 00 00 00
	00 00 00 00 00	 mov	 DWORD PTR _blnInitializing, 0

; 821  : 
; 822  : 		SendReplyToHost("INITIALIZE");

  016c6	68 00 00 00 00	 push	 OFFSET ??_C@_0L@JIPOENLA@INITIALIZE?$AA@
  016cb	e8 00 00 00 00	 call	 _SendReplyToHost
  016d0	83 c4 04	 add	 esp, 4

; 823  : 		goto cmddone;

  016d3	e9 ab 10 00 00	 jmp	 $cmddone$5511
$LN117@ProcessCom:

; 824  : 	}
; 825  : 
; 826  : 	if (strcmp(strCMD, "LEADER") == 0)

  016d8	68 00 00 00 00	 push	 OFFSET ??_C@_06DBJEGKDN@LEADER?$AA@
  016dd	8b 45 08	 mov	 eax, DWORD PTR _strCMD$[ebp]
  016e0	50		 push	 eax
  016e1	e8 00 00 00 00	 call	 _strcmp
  016e6	83 c4 08	 add	 esp, 8
  016e9	85 c0		 test	 eax, eax
  016eb	0f 85 d2 00 00
	00		 jne	 $LN116@ProcessCom

; 827  : 	{
; 828  : 		int i;
; 829  : 
; 830  : 		if (ptrParams == 0)

  016f1	83 7d f4 00	 cmp	 DWORD PTR _ptrParams$[ebp], 0
  016f5	75 32		 jne	 SHORT $LN115@ProcessCom

; 831  : 		{
; 832  : 			sprintf(cmdReply, "%s %d", strCMD, LeaderLength);

  016f7	a1 00 00 00 00	 mov	 eax, DWORD PTR _LeaderLength
  016fc	50		 push	 eax
  016fd	8b 4d 08	 mov	 ecx, DWORD PTR _strCMD$[ebp]
  01700	51		 push	 ecx
  01701	68 00 00 00 00	 push	 OFFSET ??_C@_05DIALNFFA@?$CFs?5?$CFd?$AA@
  01706	8d 95 28 fb ff
	ff		 lea	 edx, DWORD PTR _cmdReply$[ebp]
  0170c	52		 push	 edx
  0170d	e8 00 00 00 00	 call	 _sprintf
  01712	83 c4 10	 add	 esp, 16			; 00000010H

; 833  : 			SendReplyToHost(cmdReply);

  01715	8d 85 28 fb ff
	ff		 lea	 eax, DWORD PTR _cmdReply$[ebp]
  0171b	50		 push	 eax
  0171c	e8 00 00 00 00	 call	 _SendReplyToHost
  01721	83 c4 04	 add	 esp, 4

; 834  : 		}
; 835  : 		else

  01724	e9 95 00 00 00	 jmp	 $LN114@ProcessCom
$LN115@ProcessCom:

; 836  : 		{
; 837  : 			i = atoi(ptrParams);

  01729	8b 45 f4	 mov	 eax, DWORD PTR _ptrParams$[ebp]
  0172c	50		 push	 eax
  0172d	e8 00 00 00 00	 call	 _atoi
  01732	83 c4 04	 add	 esp, 4
  01735	89 85 a4 fa ff
	ff		 mov	 DWORD PTR _i$5792[ebp], eax

; 838  : 
; 839  : 			if (i >= 120  && i <= 2500)

  0173b	83 bd a4 fa ff
	ff 78		 cmp	 DWORD PTR _i$5792[ebp], 120 ; 00000078H
  01742	7c 5e		 jl	 SHORT $LN113@ProcessCom
  01744	81 bd a4 fa ff
	ff c4 09 00 00	 cmp	 DWORD PTR _i$5792[ebp], 2500 ; 000009c4H
  0174e	7f 52		 jg	 SHORT $LN113@ProcessCom

; 840  : 			{
; 841  : 				LeaderLength = (i + 9) /10;

  01750	8b 85 a4 fa ff
	ff		 mov	 eax, DWORD PTR _i$5792[ebp]
  01756	83 c0 09	 add	 eax, 9
  01759	99		 cdq
  0175a	b9 0a 00 00 00	 mov	 ecx, 10			; 0000000aH
  0175f	f7 f9		 idiv	 ecx
  01761	a3 00 00 00 00	 mov	 DWORD PTR _LeaderLength, eax

; 842  : 				LeaderLength *= 10;				// round to 10 mS

  01766	a1 00 00 00 00	 mov	 eax, DWORD PTR _LeaderLength
  0176b	6b c0 0a	 imul	 eax, 10			; 0000000aH
  0176e	a3 00 00 00 00	 mov	 DWORD PTR _LeaderLength, eax

; 843  : 				sprintf(cmdReply, "%s now %d", strCMD, LeaderLength);

  01773	a1 00 00 00 00	 mov	 eax, DWORD PTR _LeaderLength
  01778	50		 push	 eax
  01779	8b 4d 08	 mov	 ecx, DWORD PTR _strCMD$[ebp]
  0177c	51		 push	 ecx
  0177d	68 00 00 00 00	 push	 OFFSET ??_C@_09HDKFPBCF@?$CFs?5now?5?$CFd?$AA@
  01782	8d 95 28 fb ff
	ff		 lea	 edx, DWORD PTR _cmdReply$[ebp]
  01788	52		 push	 edx
  01789	e8 00 00 00 00	 call	 _sprintf
  0178e	83 c4 10	 add	 esp, 16			; 00000010H

; 844  : 				SendReplyToHost(cmdReply);

  01791	8d 85 28 fb ff
	ff		 lea	 eax, DWORD PTR _cmdReply$[ebp]
  01797	50		 push	 eax
  01798	e8 00 00 00 00	 call	 _SendReplyToHost
  0179d	83 c4 04	 add	 esp, 4

; 845  : 			}
; 846  : 			else

  017a0	eb 1c		 jmp	 SHORT $LN114@ProcessCom
$LN113@ProcessCom:

; 847  : 				sprintf(strFault, "Syntax Err: %s %s", strCMD, ptrParams);	

  017a2	8b 45 f4	 mov	 eax, DWORD PTR _ptrParams$[ebp]
  017a5	50		 push	 eax
  017a6	8b 4d 08	 mov	 ecx, DWORD PTR _strCMD$[ebp]
  017a9	51		 push	 ecx
  017aa	68 00 00 00 00	 push	 OFFSET ??_C@_0BC@LMEKCHED@Syntax?5Err?3?5?$CFs?5?$CFs?$AA@
  017af	8d 95 30 ff ff
	ff		 lea	 edx, DWORD PTR _strFault$[ebp]
  017b5	52		 push	 edx
  017b6	e8 00 00 00 00	 call	 _sprintf
  017bb	83 c4 10	 add	 esp, 16			; 00000010H
$LN114@ProcessCom:

; 848  : 		}
; 849  : 		goto cmddone;

  017be	e9 c0 0f 00 00	 jmp	 $cmddone$5511
$LN116@ProcessCom:

; 850  : 	}
; 851  : 
; 852  : 	if (strcmp(strCMD, "LISTEN") == 0)

  017c3	68 00 00 00 00	 push	 OFFSET ??_C@_06OKBIGEGG@LISTEN?$AA@
  017c8	8b 45 08	 mov	 eax, DWORD PTR _strCMD$[ebp]
  017cb	50		 push	 eax
  017cc	e8 00 00 00 00	 call	 _strcmp
  017d1	83 c4 08	 add	 esp, 8
  017d4	85 c0		 test	 eax, eax
  017d6	0f 85 fc 00 00
	00		 jne	 $LN111@ProcessCom

; 853  : 	{
; 854  : 		if (ptrParams == NULL)

  017dc	83 7d f4 00	 cmp	 DWORD PTR _ptrParams$[ebp], 0
  017e0	75 47		 jne	 SHORT $LN110@ProcessCom

; 855  : 		{
; 856  : 			if (blnListen)

  017e2	83 3d 00 00 00
	00 00		 cmp	 DWORD PTR _blnListen, 0
  017e9	74 16		 je	 SHORT $LN109@ProcessCom

; 857  : 				sprintf(cmdReply, "LISTEN TRUE");

  017eb	68 00 00 00 00	 push	 OFFSET ??_C@_0M@FINAPHBI@LISTEN?5TRUE?$AA@
  017f0	8d 85 28 fb ff
	ff		 lea	 eax, DWORD PTR _cmdReply$[ebp]
  017f6	50		 push	 eax
  017f7	e8 00 00 00 00	 call	 _sprintf
  017fc	83 c4 08	 add	 esp, 8

; 858  : 			else

  017ff	eb 14		 jmp	 SHORT $LN108@ProcessCom
$LN109@ProcessCom:

; 859  : 				sprintf(cmdReply, "LISTEN FALSE");

  01801	68 00 00 00 00	 push	 OFFSET ??_C@_0N@MCNOHKPE@LISTEN?5FALSE?$AA@
  01806	8d 85 28 fb ff
	ff		 lea	 eax, DWORD PTR _cmdReply$[ebp]
  0180c	50		 push	 eax
  0180d	e8 00 00 00 00	 call	 _sprintf
  01812	83 c4 08	 add	 esp, 8
$LN108@ProcessCom:

; 860  : 
; 861  : 			SendReplyToHost(cmdReply);

  01815	8d 85 28 fb ff
	ff		 lea	 eax, DWORD PTR _cmdReply$[ebp]
  0181b	50		 push	 eax
  0181c	e8 00 00 00 00	 call	 _SendReplyToHost
  01821	83 c4 04	 add	 esp, 4

; 862  : 			goto cmddone;

  01824	e9 5a 0f 00 00	 jmp	 $cmddone$5511
$LN110@ProcessCom:

; 863  : 		}
; 864  : 		
; 865  : 		if (strcmp(ptrParams, "TRUE") == 0)

  01829	68 00 00 00 00	 push	 OFFSET ??_C@_04HCDDPBNL@TRUE?$AA@
  0182e	8b 45 f4	 mov	 eax, DWORD PTR _ptrParams$[ebp]
  01831	50		 push	 eax
  01832	e8 00 00 00 00	 call	 _strcmp
  01837	83 c4 08	 add	 esp, 8
  0183a	85 c0		 test	 eax, eax
  0183c	75 11		 jne	 SHORT $LN107@ProcessCom

; 866  : 		{
; 867  : 			blnListen = TRUE;

  0183e	c7 05 00 00 00
	00 01 00 00 00	 mov	 DWORD PTR _blnListen, 1

; 868  : 			ClearBusy();

  01848	e8 00 00 00 00	 call	 _ClearBusy

; 869  : 		}
; 870  : 		else 

  0184d	eb 42		 jmp	 SHORT $LN106@ProcessCom
$LN107@ProcessCom:

; 871  : 		if (strcmp(ptrParams, "FALSE") == 0)

  0184f	68 00 00 00 00	 push	 OFFSET ??_C@_05MAJJAKPI@FALSE?$AA@
  01854	8b 45 f4	 mov	 eax, DWORD PTR _ptrParams$[ebp]
  01857	50		 push	 eax
  01858	e8 00 00 00 00	 call	 _strcmp
  0185d	83 c4 08	 add	 esp, 8
  01860	85 c0		 test	 eax, eax
  01862	75 0c		 jne	 SHORT $LN105@ProcessCom

; 872  : 			blnListen = FALSE;

  01864	c7 05 00 00 00
	00 00 00 00 00	 mov	 DWORD PTR _blnListen, 0

; 873  : 		else

  0186e	eb 21		 jmp	 SHORT $LN106@ProcessCom
$LN105@ProcessCom:

; 874  : 		{
; 875  : 			sprintf(strFault, "Syntax Err: %s %s", strCMD, ptrParams);

  01870	8b 45 f4	 mov	 eax, DWORD PTR _ptrParams$[ebp]
  01873	50		 push	 eax
  01874	8b 4d 08	 mov	 ecx, DWORD PTR _strCMD$[ebp]
  01877	51		 push	 ecx
  01878	68 00 00 00 00	 push	 OFFSET ??_C@_0BC@LMEKCHED@Syntax?5Err?3?5?$CFs?5?$CFs?$AA@
  0187d	8d 95 30 ff ff
	ff		 lea	 edx, DWORD PTR _strFault$[ebp]
  01883	52		 push	 edx
  01884	e8 00 00 00 00	 call	 _sprintf
  01889	83 c4 10	 add	 esp, 16			; 00000010H

; 876  : 			goto cmddone;

  0188c	e9 f2 0e 00 00	 jmp	 $cmddone$5511
$LN106@ProcessCom:

; 877  : 		}
; 878  : 		if (blnListen)

  01891	83 3d 00 00 00
	00 00		 cmp	 DWORD PTR _blnListen, 0
  01898	74 16		 je	 SHORT $LN103@ProcessCom

; 879  : 			sprintf(cmdReply, "LISTEN now TRUE");

  0189a	68 00 00 00 00	 push	 OFFSET ??_C@_0BA@CPIMEFHJ@LISTEN?5now?5TRUE?$AA@
  0189f	8d 85 28 fb ff
	ff		 lea	 eax, DWORD PTR _cmdReply$[ebp]
  018a5	50		 push	 eax
  018a6	e8 00 00 00 00	 call	 _sprintf
  018ab	83 c4 08	 add	 esp, 8

; 880  : 		else

  018ae	eb 14		 jmp	 SHORT $LN102@ProcessCom
$LN103@ProcessCom:

; 881  : 			sprintf(cmdReply, "LISTEN now FALSE");

  018b0	68 00 00 00 00	 push	 OFFSET ??_C@_0BB@PIBMHHII@LISTEN?5now?5FALSE?$AA@
  018b5	8d 85 28 fb ff
	ff		 lea	 eax, DWORD PTR _cmdReply$[ebp]
  018bb	50		 push	 eax
  018bc	e8 00 00 00 00	 call	 _sprintf
  018c1	83 c4 08	 add	 esp, 8
$LN102@ProcessCom:

; 882  : 		
; 883  : 		SendReplyToHost(cmdReply);

  018c4	8d 85 28 fb ff
	ff		 lea	 eax, DWORD PTR _cmdReply$[ebp]
  018ca	50		 push	 eax
  018cb	e8 00 00 00 00	 call	 _SendReplyToHost
  018d0	83 c4 04	 add	 esp, 4

; 884  : 		goto cmddone;

  018d3	e9 ab 0e 00 00	 jmp	 $cmddone$5511
$LN111@ProcessCom:

; 885  : 	}
; 886  : 
; 887  : 	if (strcmp(strCMD, "MONITOR") == 0)

  018d8	68 00 00 00 00	 push	 OFFSET ??_C@_07ENJDMOMA@MONITOR?$AA@
  018dd	8b 45 08	 mov	 eax, DWORD PTR _strCMD$[ebp]
  018e0	50		 push	 eax
  018e1	e8 00 00 00 00	 call	 _strcmp
  018e6	83 c4 08	 add	 esp, 8
  018e9	85 c0		 test	 eax, eax
  018eb	0f 85 f7 00 00
	00		 jne	 $LN101@ProcessCom

; 888  : 	{
; 889  : 		if (ptrParams == NULL)

  018f1	83 7d f4 00	 cmp	 DWORD PTR _ptrParams$[ebp], 0
  018f5	75 47		 jne	 SHORT $LN100@ProcessCom

; 890  : 		{
; 891  : 			if (Monitor)

  018f7	83 3d 00 00 00
	00 00		 cmp	 DWORD PTR _Monitor, 0
  018fe	74 16		 je	 SHORT $LN99@ProcessCom

; 892  : 				sprintf(cmdReply, "MONITOR TRUE");

  01900	68 00 00 00 00	 push	 OFFSET ??_C@_0N@IJEHLKAA@MONITOR?5TRUE?$AA@
  01905	8d 85 28 fb ff
	ff		 lea	 eax, DWORD PTR _cmdReply$[ebp]
  0190b	50		 push	 eax
  0190c	e8 00 00 00 00	 call	 _sprintf
  01911	83 c4 08	 add	 esp, 8

; 893  : 			else

  01914	eb 14		 jmp	 SHORT $LN98@ProcessCom
$LN99@ProcessCom:

; 894  : 				sprintf(cmdReply, "MONITOR FALSE");

  01916	68 00 00 00 00	 push	 OFFSET ??_C@_0O@NBGDHFOP@MONITOR?5FALSE?$AA@
  0191b	8d 85 28 fb ff
	ff		 lea	 eax, DWORD PTR _cmdReply$[ebp]
  01921	50		 push	 eax
  01922	e8 00 00 00 00	 call	 _sprintf
  01927	83 c4 08	 add	 esp, 8
$LN98@ProcessCom:

; 895  : 
; 896  : 			SendReplyToHost(cmdReply);

  0192a	8d 85 28 fb ff
	ff		 lea	 eax, DWORD PTR _cmdReply$[ebp]
  01930	50		 push	 eax
  01931	e8 00 00 00 00	 call	 _SendReplyToHost
  01936	83 c4 04	 add	 esp, 4

; 897  : 			goto cmddone;

  01939	e9 45 0e 00 00	 jmp	 $cmddone$5511
$LN100@ProcessCom:

; 898  : 		}
; 899  : 		
; 900  : 		if (strcmp(ptrParams, "TRUE") == 0)

  0193e	68 00 00 00 00	 push	 OFFSET ??_C@_04HCDDPBNL@TRUE?$AA@
  01943	8b 45 f4	 mov	 eax, DWORD PTR _ptrParams$[ebp]
  01946	50		 push	 eax
  01947	e8 00 00 00 00	 call	 _strcmp
  0194c	83 c4 08	 add	 esp, 8
  0194f	85 c0		 test	 eax, eax
  01951	75 0c		 jne	 SHORT $LN97@ProcessCom

; 901  : 			Monitor = TRUE;

  01953	c7 05 00 00 00
	00 01 00 00 00	 mov	 DWORD PTR _Monitor, 1

; 902  : 		else 

  0195d	eb 42		 jmp	 SHORT $LN96@ProcessCom
$LN97@ProcessCom:

; 903  : 		if (strcmp(ptrParams, "FALSE") == 0)

  0195f	68 00 00 00 00	 push	 OFFSET ??_C@_05MAJJAKPI@FALSE?$AA@
  01964	8b 45 f4	 mov	 eax, DWORD PTR _ptrParams$[ebp]
  01967	50		 push	 eax
  01968	e8 00 00 00 00	 call	 _strcmp
  0196d	83 c4 08	 add	 esp, 8
  01970	85 c0		 test	 eax, eax
  01972	75 0c		 jne	 SHORT $LN95@ProcessCom

; 904  : 			Monitor = FALSE;

  01974	c7 05 00 00 00
	00 00 00 00 00	 mov	 DWORD PTR _Monitor, 0

; 905  : 		else

  0197e	eb 21		 jmp	 SHORT $LN96@ProcessCom
$LN95@ProcessCom:

; 906  : 		{
; 907  : 			sprintf(strFault, "Syntax Err: %s %s", strCMD, ptrParams);

  01980	8b 45 f4	 mov	 eax, DWORD PTR _ptrParams$[ebp]
  01983	50		 push	 eax
  01984	8b 4d 08	 mov	 ecx, DWORD PTR _strCMD$[ebp]
  01987	51		 push	 ecx
  01988	68 00 00 00 00	 push	 OFFSET ??_C@_0BC@LMEKCHED@Syntax?5Err?3?5?$CFs?5?$CFs?$AA@
  0198d	8d 95 30 ff ff
	ff		 lea	 edx, DWORD PTR _strFault$[ebp]
  01993	52		 push	 edx
  01994	e8 00 00 00 00	 call	 _sprintf
  01999	83 c4 10	 add	 esp, 16			; 00000010H

; 908  : 			goto cmddone;

  0199c	e9 e2 0d 00 00	 jmp	 $cmddone$5511
$LN96@ProcessCom:

; 909  : 		}
; 910  : 		if (Monitor)

  019a1	83 3d 00 00 00
	00 00		 cmp	 DWORD PTR _Monitor, 0
  019a8	74 16		 je	 SHORT $LN93@ProcessCom

; 911  : 			sprintf(cmdReply, "MONITOR now TRUE");

  019aa	68 00 00 00 00	 push	 OFFSET ??_C@_0BB@NLHNKAF@MONITOR?5now?5TRUE?$AA@
  019af	8d 85 28 fb ff
	ff		 lea	 eax, DWORD PTR _cmdReply$[ebp]
  019b5	50		 push	 eax
  019b6	e8 00 00 00 00	 call	 _sprintf
  019bb	83 c4 08	 add	 esp, 8

; 912  : 		else

  019be	eb 14		 jmp	 SHORT $LN92@ProcessCom
$LN93@ProcessCom:

; 913  : 			sprintf(cmdReply, "MONITOR now FALSE");

  019c0	68 00 00 00 00	 push	 OFFSET ??_C@_0BC@KBINHBAA@MONITOR?5now?5FALSE?$AA@
  019c5	8d 85 28 fb ff
	ff		 lea	 eax, DWORD PTR _cmdReply$[ebp]
  019cb	50		 push	 eax
  019cc	e8 00 00 00 00	 call	 _sprintf
  019d1	83 c4 08	 add	 esp, 8
$LN92@ProcessCom:

; 914  : 		
; 915  : 		SendReplyToHost(cmdReply);

  019d4	8d 85 28 fb ff
	ff		 lea	 eax, DWORD PTR _cmdReply$[ebp]
  019da	50		 push	 eax
  019db	e8 00 00 00 00	 call	 _SendReplyToHost
  019e0	83 c4 04	 add	 esp, 4

; 916  : 		goto cmddone;

  019e3	e9 9b 0d 00 00	 jmp	 $cmddone$5511
$LN101@ProcessCom:

; 917  : 	}
; 918  :    
; 919  : 	if (strcmp(strCMD, "MYAUX") == 0)

  019e8	68 00 00 00 00	 push	 OFFSET ??_C@_05PDEFOOAL@MYAUX?$AA@
  019ed	8b 45 08	 mov	 eax, DWORD PTR _strCMD$[ebp]
  019f0	50		 push	 eax
  019f1	e8 00 00 00 00	 call	 _strcmp
  019f6	83 c4 08	 add	 esp, 8
  019f9	85 c0		 test	 eax, eax
  019fb	0f 85 f1 01 00
	00		 jne	 $LN91@ProcessCom

; 920  : 	{
; 921  : 		int i, len;
; 922  : 		char * ptr, * context;
; 923  : 
; 924  : 		if (ptrParams == 0)

  01a01	83 7d f4 00	 cmp	 DWORD PTR _ptrParams$[ebp], 0
  01a05	0f 85 a2 00 00
	00		 jne	 $LN90@ProcessCom

; 925  : 		{
; 926  : 			len = sprintf(cmdReply, "%s", "MYAUX ");

  01a0b	68 00 00 00 00	 push	 OFFSET ??_C@_06CKFLIME@MYAUX?5?$AA@
  01a10	68 00 00 00 00	 push	 OFFSET ??_C@_02DKCKIIND@?$CFs?$AA@
  01a15	8d 85 28 fb ff
	ff		 lea	 eax, DWORD PTR _cmdReply$[ebp]
  01a1b	50		 push	 eax
  01a1c	e8 00 00 00 00	 call	 _sprintf
  01a21	83 c4 0c	 add	 esp, 12			; 0000000cH
  01a24	89 85 8c fa ff
	ff		 mov	 DWORD PTR _len$5832[ebp], eax

; 927  : 
; 928  : 			for (i = 0; i < AuxCallsLength; i++)

  01a2a	c7 85 98 fa ff
	ff 00 00 00 00	 mov	 DWORD PTR _i$5831[ebp], 0
  01a34	eb 0f		 jmp	 SHORT $LN89@ProcessCom
$LN88@ProcessCom:
  01a36	8b 85 98 fa ff
	ff		 mov	 eax, DWORD PTR _i$5831[ebp]
  01a3c	83 c0 01	 add	 eax, 1
  01a3f	89 85 98 fa ff
	ff		 mov	 DWORD PTR _i$5831[ebp], eax
$LN89@ProcessCom:
  01a45	8b 85 98 fa ff
	ff		 mov	 eax, DWORD PTR _i$5831[ebp]
  01a4b	3b 05 00 00 00
	00		 cmp	 eax, DWORD PTR _AuxCallsLength
  01a51	7d 38		 jge	 SHORT $LN87@ProcessCom

; 929  : 			{
; 930  : 				len += sprintf(&cmdReply[len], "%s,", AuxCalls[i]);

  01a53	8b 85 98 fa ff
	ff		 mov	 eax, DWORD PTR _i$5831[ebp]
  01a59	6b c0 0a	 imul	 eax, 10			; 0000000aH
  01a5c	05 00 00 00 00	 add	 eax, OFFSET _AuxCalls
  01a61	50		 push	 eax
  01a62	68 00 00 00 00	 push	 OFFSET ??_C@_03CGNBMCEI@?$CFs?0?$AA@
  01a67	8b 8d 8c fa ff
	ff		 mov	 ecx, DWORD PTR _len$5832[ebp]
  01a6d	8d 94 0d 28 fb
	ff ff		 lea	 edx, DWORD PTR _cmdReply$[ebp+ecx]
  01a74	52		 push	 edx
  01a75	e8 00 00 00 00	 call	 _sprintf
  01a7a	83 c4 0c	 add	 esp, 12			; 0000000cH
  01a7d	03 85 8c fa ff
	ff		 add	 eax, DWORD PTR _len$5832[ebp]
  01a83	89 85 8c fa ff
	ff		 mov	 DWORD PTR _len$5832[ebp], eax

; 931  : 			}

  01a89	eb ab		 jmp	 SHORT $LN88@ProcessCom
$LN87@ProcessCom:

; 932  : 			cmdReply[len - 1] = 0;	// remove trailing space or ,

  01a8b	8b 85 8c fa ff
	ff		 mov	 eax, DWORD PTR _len$5832[ebp]
  01a91	c6 84 05 27 fb
	ff ff 00	 mov	 BYTE PTR _cmdReply$[ebp+eax-1], 0

; 933  : 			SendReplyToHost(cmdReply);	

  01a99	8d 85 28 fb ff
	ff		 lea	 eax, DWORD PTR _cmdReply$[ebp]
  01a9f	50		 push	 eax
  01aa0	e8 00 00 00 00	 call	 _SendReplyToHost
  01aa5	83 c4 04	 add	 esp, 4

; 934  : 			goto cmddone;

  01aa8	e9 d6 0c 00 00	 jmp	 $cmddone$5511
$LN90@ProcessCom:

; 935  : 		}
; 936  : 
; 937  : 		ptr = strtok_s(ptrParams, ", ", &context);

  01aad	8d 85 74 fa ff
	ff		 lea	 eax, DWORD PTR _context$5834[ebp]
  01ab3	50		 push	 eax
  01ab4	68 00 00 00 00	 push	 OFFSET ??_C@_02KEGNLNML@?0?5?$AA@
  01ab9	8b 4d f4	 mov	 ecx, DWORD PTR _ptrParams$[ebp]
  01abc	51		 push	 ecx
  01abd	e8 00 00 00 00	 call	 _strtok_s
  01ac2	83 c4 0c	 add	 esp, 12			; 0000000cH
  01ac5	89 85 80 fa ff
	ff		 mov	 DWORD PTR _ptr$5833[ebp], eax

; 938  : 
; 939  : 		AuxCallsLength = 0;

  01acb	c7 05 00 00 00
	00 00 00 00 00	 mov	 DWORD PTR _AuxCallsLength, 0
$LN86@ProcessCom:

; 940  : 
; 941  : 		while (ptr && AuxCallsLength < 10)

  01ad5	83 bd 80 fa ff
	ff 00		 cmp	 DWORD PTR _ptr$5833[ebp], 0
  01adc	74 72		 je	 SHORT $LN85@ProcessCom
  01ade	83 3d 00 00 00
	00 0a		 cmp	 DWORD PTR _AuxCallsLength, 10 ; 0000000aH
  01ae5	7d 69		 jge	 SHORT $LN85@ProcessCom

; 942  : 		{
; 943  : 			if (CheckValidCallsignSyntax(ptr))

  01ae7	8b 85 80 fa ff
	ff		 mov	 eax, DWORD PTR _ptr$5833[ebp]
  01aed	50		 push	 eax
  01aee	e8 00 00 00 00	 call	 _CheckValidCallsignSyntax
  01af3	83 c4 04	 add	 esp, 4
  01af6	85 c0		 test	 eax, eax
  01af8	74 38		 je	 SHORT $LN84@ProcessCom

; 944  : 				strcpy(AuxCalls[AuxCallsLength++], ptr);

  01afa	a1 00 00 00 00	 mov	 eax, DWORD PTR _AuxCallsLength
  01aff	6b c0 0a	 imul	 eax, 10			; 0000000aH
  01b02	05 00 00 00 00	 add	 eax, OFFSET _AuxCalls
  01b07	89 85 88 f9 ff
	ff		 mov	 DWORD PTR tv998[ebp], eax
  01b0d	8b 0d 00 00 00
	00		 mov	 ecx, DWORD PTR _AuxCallsLength
  01b13	83 c1 01	 add	 ecx, 1
  01b16	89 0d 00 00 00
	00		 mov	 DWORD PTR _AuxCallsLength, ecx
  01b1c	8b 95 80 fa ff
	ff		 mov	 edx, DWORD PTR _ptr$5833[ebp]
  01b22	52		 push	 edx
  01b23	8b 85 88 f9 ff
	ff		 mov	 eax, DWORD PTR tv998[ebp]
  01b29	50		 push	 eax
  01b2a	e8 00 00 00 00	 call	 _strcpy
  01b2f	83 c4 08	 add	 esp, 8
$LN84@ProcessCom:

; 945  : 
; 946  : 			ptr = strtok_s(NULL, ", ", &context);

  01b32	8d 85 74 fa ff
	ff		 lea	 eax, DWORD PTR _context$5834[ebp]
  01b38	50		 push	 eax
  01b39	68 00 00 00 00	 push	 OFFSET ??_C@_02KEGNLNML@?0?5?$AA@
  01b3e	6a 00		 push	 0
  01b40	e8 00 00 00 00	 call	 _strtok_s
  01b45	83 c4 0c	 add	 esp, 12			; 0000000cH
  01b48	89 85 80 fa ff
	ff		 mov	 DWORD PTR _ptr$5833[ebp], eax

; 947  : 		}

  01b4e	eb 85		 jmp	 SHORT $LN86@ProcessCom
$LN85@ProcessCom:

; 948  : 
; 949  : 		len = sprintf(cmdReply, "%s", "MYAUX now ");

  01b50	68 00 00 00 00	 push	 OFFSET ??_C@_0L@IOGBILHH@MYAUX?5now?5?$AA@
  01b55	68 00 00 00 00	 push	 OFFSET ??_C@_02DKCKIIND@?$CFs?$AA@
  01b5a	8d 85 28 fb ff
	ff		 lea	 eax, DWORD PTR _cmdReply$[ebp]
  01b60	50		 push	 eax
  01b61	e8 00 00 00 00	 call	 _sprintf
  01b66	83 c4 0c	 add	 esp, 12			; 0000000cH
  01b69	89 85 8c fa ff
	ff		 mov	 DWORD PTR _len$5832[ebp], eax

; 950  : 		for (i = 0; i < AuxCallsLength; i++)

  01b6f	c7 85 98 fa ff
	ff 00 00 00 00	 mov	 DWORD PTR _i$5831[ebp], 0
  01b79	eb 0f		 jmp	 SHORT $LN83@ProcessCom
$LN82@ProcessCom:
  01b7b	8b 85 98 fa ff
	ff		 mov	 eax, DWORD PTR _i$5831[ebp]
  01b81	83 c0 01	 add	 eax, 1
  01b84	89 85 98 fa ff
	ff		 mov	 DWORD PTR _i$5831[ebp], eax
$LN83@ProcessCom:
  01b8a	8b 85 98 fa ff
	ff		 mov	 eax, DWORD PTR _i$5831[ebp]
  01b90	3b 05 00 00 00
	00		 cmp	 eax, DWORD PTR _AuxCallsLength
  01b96	7d 38		 jge	 SHORT $LN81@ProcessCom

; 951  : 		{
; 952  : 			len += sprintf(&cmdReply[len], "%s,", AuxCalls[i]);

  01b98	8b 85 98 fa ff
	ff		 mov	 eax, DWORD PTR _i$5831[ebp]
  01b9e	6b c0 0a	 imul	 eax, 10			; 0000000aH
  01ba1	05 00 00 00 00	 add	 eax, OFFSET _AuxCalls
  01ba6	50		 push	 eax
  01ba7	68 00 00 00 00	 push	 OFFSET ??_C@_03CGNBMCEI@?$CFs?0?$AA@
  01bac	8b 8d 8c fa ff
	ff		 mov	 ecx, DWORD PTR _len$5832[ebp]
  01bb2	8d 94 0d 28 fb
	ff ff		 lea	 edx, DWORD PTR _cmdReply$[ebp+ecx]
  01bb9	52		 push	 edx
  01bba	e8 00 00 00 00	 call	 _sprintf
  01bbf	83 c4 0c	 add	 esp, 12			; 0000000cH
  01bc2	03 85 8c fa ff
	ff		 add	 eax, DWORD PTR _len$5832[ebp]
  01bc8	89 85 8c fa ff
	ff		 mov	 DWORD PTR _len$5832[ebp], eax

; 953  : 		}

  01bce	eb ab		 jmp	 SHORT $LN82@ProcessCom
$LN81@ProcessCom:

; 954  : 		cmdReply[len - 1] = 0;	// remove trailing space or ,

  01bd0	8b 85 8c fa ff
	ff		 mov	 eax, DWORD PTR _len$5832[ebp]
  01bd6	c6 84 05 27 fb
	ff ff 00	 mov	 BYTE PTR _cmdReply$[ebp+eax-1], 0

; 955  : 		SendReplyToHost(cmdReply);	

  01bde	8d 85 28 fb ff
	ff		 lea	 eax, DWORD PTR _cmdReply$[ebp]
  01be4	50		 push	 eax
  01be5	e8 00 00 00 00	 call	 _SendReplyToHost
  01bea	83 c4 04	 add	 esp, 4

; 956  : 
; 957  : 		goto cmddone;

  01bed	e9 91 0b 00 00	 jmp	 $cmddone$5511
$LN91@ProcessCom:

; 958  : 	}
; 959  : 
; 960  : 	if (strcmp(strCMD, "MYCALL") == 0)

  01bf2	68 00 00 00 00	 push	 OFFSET ??_C@_06HFHJAEGL@MYCALL?$AA@
  01bf7	8b 45 08	 mov	 eax, DWORD PTR _strCMD$[ebp]
  01bfa	50		 push	 eax
  01bfb	e8 00 00 00 00	 call	 _strcmp
  01c00	83 c4 08	 add	 esp, 8
  01c03	85 c0		 test	 eax, eax
  01c05	0f 85 a4 00 00
	00		 jne	 $LN80@ProcessCom

; 961  : 	{
; 962  : 		if (ptrParams == 0)

  01c0b	83 7d f4 00	 cmp	 DWORD PTR _ptrParams$[ebp], 0
  01c0f	75 2e		 jne	 SHORT $LN79@ProcessCom

; 963  : 		{
; 964  : 			sprintf(cmdReply, "%s %s", strCMD, Callsign);

  01c11	68 00 00 00 00	 push	 OFFSET _Callsign
  01c16	8b 45 08	 mov	 eax, DWORD PTR _strCMD$[ebp]
  01c19	50		 push	 eax
  01c1a	68 00 00 00 00	 push	 OFFSET ??_C@_05DNIIFBMG@?$CFs?5?$CFs?$AA@
  01c1f	8d 8d 28 fb ff
	ff		 lea	 ecx, DWORD PTR _cmdReply$[ebp]
  01c25	51		 push	 ecx
  01c26	e8 00 00 00 00	 call	 _sprintf
  01c2b	83 c4 10	 add	 esp, 16			; 00000010H

; 965  : 			SendReplyToHost(cmdReply);

  01c2e	8d 85 28 fb ff
	ff		 lea	 eax, DWORD PTR _cmdReply$[ebp]
  01c34	50		 push	 eax
  01c35	e8 00 00 00 00	 call	 _SendReplyToHost
  01c3a	83 c4 04	 add	 esp, 4

; 966  : 		}
; 967  : 		else

  01c3d	eb 6b		 jmp	 SHORT $LN78@ProcessCom
$LN79@ProcessCom:

; 968  : 		{
; 969  : 			if (CheckValidCallsignSyntax(ptrParams))

  01c3f	8b 45 f4	 mov	 eax, DWORD PTR _ptrParams$[ebp]
  01c42	50		 push	 eax
  01c43	e8 00 00 00 00	 call	 _CheckValidCallsignSyntax
  01c48	83 c4 04	 add	 esp, 4
  01c4b	85 c0		 test	 eax, eax
  01c4d	74 3f		 je	 SHORT $LN77@ProcessCom

; 970  : 			{
; 971  : 				strcpy(Callsign, ptrParams);

  01c4f	8b 45 f4	 mov	 eax, DWORD PTR _ptrParams$[ebp]
  01c52	50		 push	 eax
  01c53	68 00 00 00 00	 push	 OFFSET _Callsign
  01c58	e8 00 00 00 00	 call	 _strcpy
  01c5d	83 c4 08	 add	 esp, 8

; 972  : 				sprintf(cmdReply, "%s now %s", strCMD, Callsign);

  01c60	68 00 00 00 00	 push	 OFFSET _Callsign
  01c65	8b 45 08	 mov	 eax, DWORD PTR _strCMD$[ebp]
  01c68	50		 push	 eax
  01c69	68 00 00 00 00	 push	 OFFSET ??_C@_09HGCGHFLD@?$CFs?5now?5?$CFs?$AA@
  01c6e	8d 8d 28 fb ff
	ff		 lea	 ecx, DWORD PTR _cmdReply$[ebp]
  01c74	51		 push	 ecx
  01c75	e8 00 00 00 00	 call	 _sprintf
  01c7a	83 c4 10	 add	 esp, 16			; 00000010H

; 973  : 				SendReplyToHost(cmdReply);

  01c7d	8d 85 28 fb ff
	ff		 lea	 eax, DWORD PTR _cmdReply$[ebp]
  01c83	50		 push	 eax
  01c84	e8 00 00 00 00	 call	 _SendReplyToHost
  01c89	83 c4 04	 add	 esp, 4

; 974  : 			}
; 975  : 			else

  01c8c	eb 1c		 jmp	 SHORT $LN78@ProcessCom
$LN77@ProcessCom:

; 976  : 				sprintf(strFault, "Syntax Err: %s %s", strCMD, ptrParams);

  01c8e	8b 45 f4	 mov	 eax, DWORD PTR _ptrParams$[ebp]
  01c91	50		 push	 eax
  01c92	8b 4d 08	 mov	 ecx, DWORD PTR _strCMD$[ebp]
  01c95	51		 push	 ecx
  01c96	68 00 00 00 00	 push	 OFFSET ??_C@_0BC@LMEKCHED@Syntax?5Err?3?5?$CFs?5?$CFs?$AA@
  01c9b	8d 95 30 ff ff
	ff		 lea	 edx, DWORD PTR _strFault$[ebp]
  01ca1	52		 push	 edx
  01ca2	e8 00 00 00 00	 call	 _sprintf
  01ca7	83 c4 10	 add	 esp, 16			; 00000010H
$LN78@ProcessCom:

; 977  : 		}
; 978  : 		goto cmddone;

  01caa	e9 d4 0a 00 00	 jmp	 $cmddone$5511
$LN80@ProcessCom:

; 979  : 	}
; 980  : 
; 981  : 	if (strcmp(strCMD, "PLAYBACK") == 0)

  01caf	68 00 00 00 00	 push	 OFFSET ??_C@_08LMKBMLFB@PLAYBACK?$AA@
  01cb4	8b 45 08	 mov	 eax, DWORD PTR _strCMD$[ebp]
  01cb7	50		 push	 eax
  01cb8	e8 00 00 00 00	 call	 _strcmp
  01cbd	83 c4 08	 add	 esp, 8
  01cc0	85 c0		 test	 eax, eax
  01cc2	75 76		 jne	 SHORT $LN75@ProcessCom

; 982  : 	{
; 983  : 		if (ptrParams == 0)

  01cc4	83 7d f4 00	 cmp	 DWORD PTR _ptrParams$[ebp], 0
  01cc8	75 2e		 jne	 SHORT $LN74@ProcessCom

; 984  : 		{
; 985  : 			sprintf(cmdReply, "%s %s", strCMD, PlaybackDevice);

  01cca	68 00 00 00 00	 push	 OFFSET _PlaybackDevice
  01ccf	8b 45 08	 mov	 eax, DWORD PTR _strCMD$[ebp]
  01cd2	50		 push	 eax
  01cd3	68 00 00 00 00	 push	 OFFSET ??_C@_05DNIIFBMG@?$CFs?5?$CFs?$AA@
  01cd8	8d 8d 28 fb ff
	ff		 lea	 ecx, DWORD PTR _cmdReply$[ebp]
  01cde	51		 push	 ecx
  01cdf	e8 00 00 00 00	 call	 _sprintf
  01ce4	83 c4 10	 add	 esp, 16			; 00000010H

; 986  : 			SendReplyToHost(cmdReply);

  01ce7	8d 85 28 fb ff
	ff		 lea	 eax, DWORD PTR _cmdReply$[ebp]
  01ced	50		 push	 eax
  01cee	e8 00 00 00 00	 call	 _SendReplyToHost
  01cf3	83 c4 04	 add	 esp, 4

; 987  : 		}
; 988  : 		else

  01cf6	eb 3d		 jmp	 SHORT $LN73@ProcessCom
$LN74@ProcessCom:

; 989  : 		{
; 990  : 			// Can't change sound devices on Teensy
; 991  : #ifndef Teensy
; 992  : 			strcpy(PlaybackDevice, ptrParams);

  01cf8	8b 45 f4	 mov	 eax, DWORD PTR _ptrParams$[ebp]
  01cfb	50		 push	 eax
  01cfc	68 00 00 00 00	 push	 OFFSET _PlaybackDevice
  01d01	e8 00 00 00 00	 call	 _strcpy
  01d06	83 c4 08	 add	 esp, 8

; 993  : #endif
; 994  : 			sprintf(cmdReply, "%s now %s", strCMD, PlaybackDevice);

  01d09	68 00 00 00 00	 push	 OFFSET _PlaybackDevice
  01d0e	8b 45 08	 mov	 eax, DWORD PTR _strCMD$[ebp]
  01d11	50		 push	 eax
  01d12	68 00 00 00 00	 push	 OFFSET ??_C@_09HGCGHFLD@?$CFs?5now?5?$CFs?$AA@
  01d17	8d 8d 28 fb ff
	ff		 lea	 ecx, DWORD PTR _cmdReply$[ebp]
  01d1d	51		 push	 ecx
  01d1e	e8 00 00 00 00	 call	 _sprintf
  01d23	83 c4 10	 add	 esp, 16			; 00000010H

; 995  : 			SendReplyToHost(cmdReply);

  01d26	8d 85 28 fb ff
	ff		 lea	 eax, DWORD PTR _cmdReply$[ebp]
  01d2c	50		 push	 eax
  01d2d	e8 00 00 00 00	 call	 _SendReplyToHost
  01d32	83 c4 04	 add	 esp, 4
$LN73@ProcessCom:

; 996  : 		}
; 997  : 		goto cmddone;

  01d35	e9 49 0a 00 00	 jmp	 $cmddone$5511
$LN75@ProcessCom:

; 998  : 	}
; 999  :      
; 1000 : 	if (strcmp(strCMD, "PLAYBACKDEVICES") == 0)

  01d3a	68 00 00 00 00	 push	 OFFSET ??_C@_0BA@LONILKAE@PLAYBACKDEVICES?$AA@
  01d3f	8b 45 08	 mov	 eax, DWORD PTR _strCMD$[ebp]
  01d42	50		 push	 eax
  01d43	e8 00 00 00 00	 call	 _strcmp
  01d48	83 c4 08	 add	 esp, 8
  01d4b	85 c0		 test	 eax, eax
  01d4d	75 32		 jne	 SHORT $LN72@ProcessCom

; 1001 : 	{
; 1002 : 		sprintf(cmdReply, "%s %s", strCMD, PlaybackDevices);

  01d4f	a1 00 00 00 00	 mov	 eax, DWORD PTR _PlaybackDevices
  01d54	50		 push	 eax
  01d55	8b 4d 08	 mov	 ecx, DWORD PTR _strCMD$[ebp]
  01d58	51		 push	 ecx
  01d59	68 00 00 00 00	 push	 OFFSET ??_C@_05DNIIFBMG@?$CFs?5?$CFs?$AA@
  01d5e	8d 95 28 fb ff
	ff		 lea	 edx, DWORD PTR _cmdReply$[ebp]
  01d64	52		 push	 edx
  01d65	e8 00 00 00 00	 call	 _sprintf
  01d6a	83 c4 10	 add	 esp, 16			; 00000010H

; 1003 : 		SendReplyToHost(cmdReply);

  01d6d	8d 85 28 fb ff
	ff		 lea	 eax, DWORD PTR _cmdReply$[ebp]
  01d73	50		 push	 eax
  01d74	e8 00 00 00 00	 call	 _SendReplyToHost
  01d79	83 c4 04	 add	 esp, 4

; 1004 : 		goto cmddone;

  01d7c	e9 02 0a 00 00	 jmp	 $cmddone$5511
$LN72@ProcessCom:

; 1005 : 	}
; 1006 : 
; 1007 : 	if (strcmp(strCMD, "PROTOCOLMODE") == 0)

  01d81	68 00 00 00 00	 push	 OFFSET ??_C@_0N@CJGHANBE@PROTOCOLMODE?$AA@
  01d86	8b 45 08	 mov	 eax, DWORD PTR _strCMD$[ebp]
  01d89	50		 push	 eax
  01d8a	e8 00 00 00 00	 call	 _strcmp
  01d8f	83 c4 08	 add	 esp, 8
  01d92	85 c0		 test	 eax, eax
  01d94	0f 85 01 01 00
	00		 jne	 $LN71@ProcessCom

; 1008 : 	{
; 1009 : 		if (ptrParams == NULL)

  01d9a	83 7d f4 00	 cmp	 DWORD PTR _ptrParams$[ebp], 0
  01d9e	75 47		 jne	 SHORT $LN70@ProcessCom

; 1010 : 		{
; 1011 : 			if (ProtocolMode == ARQ)

  01da0	83 3d 00 00 00
	00 02		 cmp	 DWORD PTR _ProtocolMode, 2
  01da7	75 16		 jne	 SHORT $LN69@ProcessCom

; 1012 : 				sprintf(cmdReply, "PROTOCOLMODE ARQ");

  01da9	68 00 00 00 00	 push	 OFFSET ??_C@_0BB@JBFMLAAA@PROTOCOLMODE?5ARQ?$AA@
  01dae	8d 85 28 fb ff
	ff		 lea	 eax, DWORD PTR _cmdReply$[ebp]
  01db4	50		 push	 eax
  01db5	e8 00 00 00 00	 call	 _sprintf
  01dba	83 c4 08	 add	 esp, 8

; 1013 : 			else

  01dbd	eb 14		 jmp	 SHORT $LN68@ProcessCom
$LN69@ProcessCom:

; 1014 : 				sprintf(cmdReply, "PROTOCOLMODE FEC");

  01dbf	68 00 00 00 00	 push	 OFFSET ??_C@_0BB@GNBGENJP@PROTOCOLMODE?5FEC?$AA@
  01dc4	8d 85 28 fb ff
	ff		 lea	 eax, DWORD PTR _cmdReply$[ebp]
  01dca	50		 push	 eax
  01dcb	e8 00 00 00 00	 call	 _sprintf
  01dd0	83 c4 08	 add	 esp, 8
$LN68@ProcessCom:

; 1015 : 
; 1016 : 			SendReplyToHost(cmdReply);

  01dd3	8d 85 28 fb ff
	ff		 lea	 eax, DWORD PTR _cmdReply$[ebp]
  01dd9	50		 push	 eax
  01dda	e8 00 00 00 00	 call	 _SendReplyToHost
  01ddf	83 c4 04	 add	 esp, 4

; 1017 : 			goto cmddone;

  01de2	e9 9c 09 00 00	 jmp	 $cmddone$5511
$LN70@ProcessCom:

; 1018 : 		}
; 1019 : 		
; 1020 : 		if (strcmp(ptrParams, "ARQ") == 0)

  01de7	68 00 00 00 00	 push	 OFFSET ??_C@_03DBILIJHA@ARQ?$AA@
  01dec	8b 45 f4	 mov	 eax, DWORD PTR _ptrParams$[ebp]
  01def	50		 push	 eax
  01df0	e8 00 00 00 00	 call	 _strcmp
  01df5	83 c4 08	 add	 esp, 8
  01df8	85 c0		 test	 eax, eax
  01dfa	75 0c		 jne	 SHORT $LN67@ProcessCom

; 1021 : 			ProtocolMode = ARQ;

  01dfc	c7 05 00 00 00
	00 02 00 00 00	 mov	 DWORD PTR _ProtocolMode, 2

; 1022 : 		else 

  01e06	eb 42		 jmp	 SHORT $LN66@ProcessCom
$LN67@ProcessCom:

; 1023 : 		if (strcmp(ptrParams, "FEC") == 0)

  01e08	68 00 00 00 00	 push	 OFFSET ??_C@_03MNMBHEOP@FEC?$AA@
  01e0d	8b 45 f4	 mov	 eax, DWORD PTR _ptrParams$[ebp]
  01e10	50		 push	 eax
  01e11	e8 00 00 00 00	 call	 _strcmp
  01e16	83 c4 08	 add	 esp, 8
  01e19	85 c0		 test	 eax, eax
  01e1b	75 0c		 jne	 SHORT $LN65@ProcessCom

; 1024 : 			ProtocolMode = FEC;

  01e1d	c7 05 00 00 00
	00 01 00 00 00	 mov	 DWORD PTR _ProtocolMode, 1

; 1025 : 		else

  01e27	eb 21		 jmp	 SHORT $LN66@ProcessCom
$LN65@ProcessCom:

; 1026 : 		{
; 1027 : 			sprintf(strFault, "Syntax Err: %s %s", strCMD, ptrParams);

  01e29	8b 45 f4	 mov	 eax, DWORD PTR _ptrParams$[ebp]
  01e2c	50		 push	 eax
  01e2d	8b 4d 08	 mov	 ecx, DWORD PTR _strCMD$[ebp]
  01e30	51		 push	 ecx
  01e31	68 00 00 00 00	 push	 OFFSET ??_C@_0BC@LMEKCHED@Syntax?5Err?3?5?$CFs?5?$CFs?$AA@
  01e36	8d 95 30 ff ff
	ff		 lea	 edx, DWORD PTR _strFault$[ebp]
  01e3c	52		 push	 edx
  01e3d	e8 00 00 00 00	 call	 _sprintf
  01e42	83 c4 10	 add	 esp, 16			; 00000010H

; 1028 : 			goto cmddone;

  01e45	e9 39 09 00 00	 jmp	 $cmddone$5511
$LN66@ProcessCom:

; 1029 : 		}
; 1030 : 		if (ProtocolMode == ARQ)

  01e4a	83 3d 00 00 00
	00 02		 cmp	 DWORD PTR _ProtocolMode, 2
  01e51	75 16		 jne	 SHORT $LN63@ProcessCom

; 1031 : 			sprintf(cmdReply, "PROTOCOLMODE now ARQ");

  01e53	68 00 00 00 00	 push	 OFFSET ??_C@_0BF@ECLOJLEO@PROTOCOLMODE?5now?5ARQ?$AA@
  01e58	8d 85 28 fb ff
	ff		 lea	 eax, DWORD PTR _cmdReply$[ebp]
  01e5e	50		 push	 eax
  01e5f	e8 00 00 00 00	 call	 _sprintf
  01e64	83 c4 08	 add	 esp, 8

; 1032 : 		else

  01e67	eb 14		 jmp	 SHORT $LN62@ProcessCom
$LN63@ProcessCom:

; 1033 : 			sprintf(cmdReply, "PROTOCOLMODE now FEC");

  01e69	68 00 00 00 00	 push	 OFFSET ??_C@_0BF@LOPEGGNB@PROTOCOLMODE?5now?5FEC?$AA@
  01e6e	8d 85 28 fb ff
	ff		 lea	 eax, DWORD PTR _cmdReply$[ebp]
  01e74	50		 push	 eax
  01e75	e8 00 00 00 00	 call	 _sprintf
  01e7a	83 c4 08	 add	 esp, 8
$LN62@ProcessCom:

; 1034 : 
; 1035 : 		SendReplyToHost(cmdReply);

  01e7d	8d 85 28 fb ff
	ff		 lea	 eax, DWORD PTR _cmdReply$[ebp]
  01e83	50		 push	 eax
  01e84	e8 00 00 00 00	 call	 _SendReplyToHost
  01e89	83 c4 04	 add	 esp, 4

; 1036 : 
; 1037 : 		SetARDOPProtocolState(DISC);	// set state to DISC on any Protocol mode change. 

  01e8c	6a 01		 push	 1
  01e8e	e8 00 00 00 00	 call	 _SetARDOPProtocolState
  01e93	83 c4 04	 add	 esp, 4

; 1038 : 		goto cmddone;

  01e96	e9 e8 08 00 00	 jmp	 $cmddone$5511
$LN71@ProcessCom:

; 1039 : 	}
; 1040 : 
; 1041 : 	if (strcmp(strCMD, "PURGEBUFFER") == 0)

  01e9b	68 00 00 00 00	 push	 OFFSET ??_C@_0M@MPBAMBCJ@PURGEBUFFER?$AA@
  01ea0	8b 45 08	 mov	 eax, DWORD PTR _strCMD$[ebp]
  01ea3	50		 push	 eax
  01ea4	e8 00 00 00 00	 call	 _strcmp
  01ea9	83 c4 08	 add	 esp, 8
  01eac	85 c0		 test	 eax, eax
  01eae	75 16		 jne	 SHORT $LN61@ProcessCom

; 1042 : 	{
; 1043 : 		ClearDataToSend();  // Should precipitate an asynchonous BUFFER 0 reponse. 

  01eb0	e8 00 00 00 00	 call	 _ClearDataToSend

; 1044 : 
; 1045 : 		SendReplyToHost(strCMD);

  01eb5	8b 45 08	 mov	 eax, DWORD PTR _strCMD$[ebp]
  01eb8	50		 push	 eax
  01eb9	e8 00 00 00 00	 call	 _SendReplyToHost
  01ebe	83 c4 04	 add	 esp, 4

; 1046 : 		goto cmddone;  

  01ec1	e9 bd 08 00 00	 jmp	 $cmddone$5511
$LN61@ProcessCom:

; 1047 : 	}
; 1048 : 
; 1049 : /*
; 1050 :             Case "RADIOANT"
; 1051 :                 If ptrSpace = -1 Then
; 1052 :                     SendReplyToHost(strCommand & " " & RCB.Ant.ToString)
; 1053 :                 ElseIf strParameters = "0" Or strParameters = "1" Or strParameters = "2" Then
; 1054 :                     RCB.Ant = CInt(strParameters)
; 1055 :                 Else
; 1056 :                     strFault = "Syntax Err:" & strCMD
; 1057 :                 End If
; 1058 :             Case "RADIOCTRL"
; 1059 :                 If ptrSpace = -1 Then
; 1060 :                     SendReplyToHost(strCommand & " " & RCB.RadioControl.ToString)
; 1061 :                 ElseIf strParameters = "TRUE" Then
; 1062 :                     If IsNothing(objMain.objRadio) Then
; 1063 :                         objMain.SetNewRadio()
; 1064 :                         objMain.objRadio.InitRadioPorts()
; 1065 :                     End If
; 1066 :                     RCB.RadioControl = CBool(strParameters)
; 1067 :                 ElseIf strParameters = "FALSE" Then
; 1068 :                     If Not IsNothing(objMain.objRadio) Then
; 1069 :                         objMain.objRadio = Nothing
; 1070 :                     End If
; 1071 :                     RCB.RadioControl = CBool(strParameters)
; 1072 :                 Else
; 1073 :                     strFault = "Syntax Err:" & strCMD
; 1074 :                 End If
; 1075 :             Case "RADIOCTRLBAUD"
; 1076 :                 If ptrSpace = -1 Then
; 1077 :                     SendReplyToHost(strCommand & " " & RCB.CtrlPortBaud.ToString)
; 1078 :                 ElseIf IsNumeric(strParameters) Then  ' Later expand to tighter syntax checking
; 1079 :                     RCB.CtrlPortBaud = CInt(strParameters)
; 1080 :                 Else
; 1081 :                     strFault = "Syntax Err:" & strCMD
; 1082 :                 End If
; 1083 :             Case "RADIOCTRLDTR"
; 1084 :                 If ptrSpace = -1 Then
; 1085 :                     SendReplyToHost(strCommand & " " & RCB.CtrlPortDTR.ToString)
; 1086 :                 ElseIf strParameters = "TRUE" Or strParameters = "FALSE" Then
; 1087 :                     RCB.CtrlPortDTR = CBool(strParameters)
; 1088 :                     objMain.objRadio.InitRadioPorts()
; 1089 :                 Else
; 1090 :                     strFault = "Syntax Err:" & strCMD
; 1091 :                 End If
; 1092 :             Case "RADIOCTRLPORT"
; 1093 :                 If ptrSpace = -1 Then
; 1094 :                     SendReplyToHost(strCommand & " " & RCB.CtrlPort)
; 1095 :                 Else ' Later expand to tighter syntax checking
; 1096 :                     RCB.CtrlPort = strParameters
; 1097 :                     objMain.objRadio.InitRadioPorts()
; 1098 :                 End If
; 1099 :             Case "RADIOCTRLRTS"
; 1100 :                 If ptrSpace = -1 Then
; 1101 :                     SendReplyToHost(strCommand & " " & RCB.CtrlPortRTS.ToString)
; 1102 :                 ElseIf strParameters = "TRUE" Or strParameters = "FALSE" Then
; 1103 :                     RCB.CtrlPortRTS = CBool(strParameters)
; 1104 :                     objMain.objRadio.InitRadioPorts()
; 1105 :                 Else
; 1106 :                     strFault = "Syntax Err:" & strCMD
; 1107 :                 End If
; 1108 :             Case "RADIOFILTER"
; 1109 :                 If ptrSpace = -1 Then
; 1110 :                     SendReplyToHost(strCommand & " " & RCB.Filter.ToString)
; 1111 :                 ElseIf IsNumeric(strParameters) AndAlso (CInt(strParameters) >= 0 And CInt(strParameters <= 3)) Then
; 1112 :                     RCB.Filter = CInt(strParameters)
; 1113 :                 Else
; 1114 :                     strFault = "Syntax Err:" & strCMD
; 1115 :                 End If
; 1116 :             Case "RADIOFREQ"
; 1117 :                 If ptrSpace = -1 Then
; 1118 :                     SendReplyToHost(strCommand & " " & RCB.Frequency.ToString)
; 1119 :                 ElseIf IsNumeric(strParameters) Then ' Later expand to tighter syntax checking
; 1120 :                     RCB.Frequency = CInt(strParameters)
; 1121 :                     If Not IsNothing(objMain.objRadio) Then
; 1122 :                         objMain.objRadio.SetDialFrequency(RCB.Frequency)
; 1123 :                     End If
; 1124 :                 Else
; 1125 :                     strFault = "Syntax Err:" & strCMD
; 1126 :                 End If
; 1127 :             Case "RADIOICOMADD"
; 1128 :                 If ptrSpace = -1 Then
; 1129 :                     SendReplyToHost(strCommand & " " & RCB.IcomAdd)
; 1130 :                 ElseIf strParameters.Length = 2 AndAlso ("0123456789ABCDEF".IndexOf(strParameters(0)) <> -1) AndAlso _
; 1131 :                         ("0123456789ABCDEF".IndexOf(strParameters(1)) <> -1) Then
; 1132 :                     RCB.IcomAdd = strParameters
; 1133 :                 Else
; 1134 :                     strFault = "Syntax Err:" & strCMD
; 1135 :                 End If
; 1136 :             Case "RADIOISC"
; 1137 :                 If ptrSpace = -1 Then
; 1138 :                     SendReplyToHost(strCommand & " " & RCB.InternalSoundCard)
; 1139 :                 ElseIf strParameters = "TRUE" Or strParameters = "FALSE" Then
; 1140 :                     RCB.InternalSoundCard = CBool(strParameters)
; 1141 :                 Else
; 1142 :                     strFault = "Syntax Err:" & strCMD
; 1143 :                 End If
; 1144 :             Case "RADIOMENU"
; 1145 :                 If ptrSpace = -1 Then
; 1146 :                     SendReplyToHost(strCommand & " " & objMain.RadioMenu.Enabled.ToString)
; 1147 :                 ElseIf strParameters = "TRUE" Or strParameters = "FALSE" Then
; 1148 :                     objMain.RadioMenu.Enabled = CBool(strParameters)
; 1149 :                 Else
; 1150 :                     strFault = "Syntax Err:" & strCMD
; 1151 :                 End If
; 1152 :             Case "RADIOMODE"
; 1153 :                 If ptrSpace = -1 Then
; 1154 :                     SendReplyToHost(strCommand & " " & RCB.Mode)
; 1155 :                 ElseIf strParameters = "USB" Or strParameters = "USBD" Or strParameters = "FM" Then
; 1156 :                     RCB.Mode = strParameters
; 1157 :                 Else
; 1158 :                     strFault = "Syntax Err:" & strCMD
; 1159 :                 End If
; 1160 :             Case "RADIOMODEL"
; 1161 :                 If ptrSpace = -1 Then
; 1162 :                     SendReplyToHost(strCommand & " " & RCB.Model)
; 1163 :                 Else
; 1164 :                     Dim strRadios() As String = objMain.objRadio.strSupportedRadios.Split(",")
; 1165 :                     Dim strRadioModel As String = ""
; 1166 :                     For Each strModel As String In strRadios
; 1167 :                         If strModel.ToUpper = strParameters.ToUpper Then
; 1168 :                             strRadioModel = strParameters
; 1169 :                             Exit For
; 1170 :                         End If
; 1171 :                     Next
; 1172 :                     If strRadioModel.Length > 0 Then
; 1173 :                         RCB.Model = strParameters
; 1174 :                     Else
; 1175 :                         strFault = "Model not supported :" & strCMD
; 1176 :                     End If
; 1177 :                 End If
; 1178 : 
; 1179 :             Case "RADIOMODELS"
; 1180 :                 If ptrSpace = -1 And Not IsNothing(objMain.objRadio) Then
; 1181 :                     ' Send a comma delimited list of models?
; 1182 :                     SendReplyToHost(strCommand & " " & objMain.objRadio.strSupportedRadios) ' Need to insure this isn't too long for Interfaces:
; 1183 :                 Else
; 1184 :                     strFault = "Syntax Err:" & strCMD
; 1185 :                 End If
; 1186 : 				*/
; 1187 : 
; 1188 : #ifndef TEENSY
; 1189 : 	if (strcmp(strCMD, "RADIOPTT") == 0)

  01ec6	68 00 00 00 00	 push	 OFFSET ??_C@_08JMLKJEBK@RADIOPTT?$AA@
  01ecb	8b 45 08	 mov	 eax, DWORD PTR _strCMD$[ebp]
  01ece	50		 push	 eax
  01ecf	e8 00 00 00 00	 call	 _strcmp
  01ed4	83 c4 08	 add	 esp, 8
  01ed7	85 c0		 test	 eax, eax
  01ed9	0f 85 0f 01 00
	00		 jne	 $LN60@ProcessCom

; 1190 : 	{
; 1191 : 		if (ptrParams == NULL)

  01edf	83 7d f4 00	 cmp	 DWORD PTR _ptrParams$[ebp], 0
  01ee3	75 2d		 jne	 SHORT $LN59@ProcessCom

; 1192 : 		{
; 1193 : 			sprintf(cmdReply, "RADIOPTT %s", PTTPORT);

  01ee5	68 00 00 00 00	 push	 OFFSET _PTTPORT
  01eea	68 00 00 00 00	 push	 OFFSET ??_C@_0M@LFIODCLG@RADIOPTT?5?$CFs?$AA@
  01eef	8d 85 28 fb ff
	ff		 lea	 eax, DWORD PTR _cmdReply$[ebp]
  01ef5	50		 push	 eax
  01ef6	e8 00 00 00 00	 call	 _sprintf
  01efb	83 c4 0c	 add	 esp, 12			; 0000000cH

; 1194 : 			SendReplyToHost(cmdReply);

  01efe	8d 85 28 fb ff
	ff		 lea	 eax, DWORD PTR _cmdReply$[ebp]
  01f04	50		 push	 eax
  01f05	e8 00 00 00 00	 call	 _SendReplyToHost
  01f0a	83 c4 04	 add	 esp, 4

; 1195 :   			goto cmddone;

  01f0d	e9 71 08 00 00	 jmp	 $cmddone$5511
$LN59@ProcessCom:

; 1196 : 		}
; 1197 : 
; 1198 : 		strcpy(PTTPORT, &cmdCopy[9]);	// Need original case

  01f12	8d 45 a5	 lea	 eax, DWORD PTR _cmdCopy$[ebp+9]
  01f15	50		 push	 eax
  01f16	68 00 00 00 00	 push	 OFFSET _PTTPORT
  01f1b	e8 00 00 00 00	 call	 _strcpy
  01f20	83 c4 08	 add	 esp, 8

; 1199 : 
; 1200 : 		if (hPTTDevice)

  01f23	83 3d 00 00 00
	00 00		 cmp	 DWORD PTR _hPTTDevice, 0
  01f2a	74 0e		 je	 SHORT $LN58@ProcessCom

; 1201 : 			CloseCOMPort(hPTTDevice);

  01f2c	a1 00 00 00 00	 mov	 eax, DWORD PTR _hPTTDevice
  01f31	50		 push	 eax
  01f32	e8 00 00 00 00	 call	 _CloseCOMPort
  01f37	83 c4 04	 add	 esp, 4
$LN58@ProcessCom:

; 1202 : 			
; 1203 : 		hPTTDevice = OpenCOMPort(PTTPORT, 19200, FALSE, FALSE, FALSE, 0);

  01f3a	6a 00		 push	 0
  01f3c	6a 00		 push	 0
  01f3e	6a 00		 push	 0
  01f40	6a 00		 push	 0
  01f42	68 00 4b 00 00	 push	 19200			; 00004b00H
  01f47	68 00 00 00 00	 push	 OFFSET _PTTPORT
  01f4c	e8 00 00 00 00	 call	 _OpenCOMPort
  01f51	83 c4 18	 add	 esp, 24			; 00000018H
  01f54	a3 00 00 00 00	 mov	 DWORD PTR _hPTTDevice, eax

; 1204 : 
; 1205 : 		if (hPTTDevice)

  01f59	83 3d 00 00 00
	00 00		 cmp	 DWORD PTR _hPTTDevice, 0
  01f60	74 3c		 je	 SHORT $LN57@ProcessCom

; 1206 : 		{
; 1207 : 			COMClearRTS(hPTTDevice);

  01f62	a1 00 00 00 00	 mov	 eax, DWORD PTR _hPTTDevice
  01f67	50		 push	 eax
  01f68	e8 00 00 00 00	 call	 _COMClearRTS
  01f6d	83 c4 04	 add	 esp, 4

; 1208 : 			COMClearDTR(hPTTDevice);

  01f70	a1 00 00 00 00	 mov	 eax, DWORD PTR _hPTTDevice
  01f75	50		 push	 eax
  01f76	e8 00 00 00 00	 call	 _COMClearDTR
  01f7b	83 c4 04	 add	 esp, 4

; 1209 : 			WriteDebugLog(LOGALERT, "Using RTS on port %s for PTT", PTTPORT); 

  01f7e	68 00 00 00 00	 push	 OFFSET _PTTPORT
  01f83	68 00 00 00 00	 push	 OFFSET ??_C@_0BN@HAJDAIGK@Using?5RTS?5on?5port?5?$CFs?5for?5PTT?$AA@
  01f88	6a 01		 push	 1
  01f8a	e8 00 00 00 00	 call	 _WriteDebugLog
  01f8f	83 c4 0c	 add	 esp, 12			; 0000000cH

; 1210 : 			RadioControl = TRUE;

  01f92	c7 05 00 00 00
	00 01 00 00 00	 mov	 DWORD PTR _RadioControl, 1

; 1211 : 		}
; 1212 : 		else

  01f9c	eb 23		 jmp	 SHORT $LN56@ProcessCom
$LN57@ProcessCom:

; 1213 : 		{
; 1214 : 			RadioControl = FALSE;

  01f9e	c7 05 00 00 00
	00 00 00 00 00	 mov	 DWORD PTR _RadioControl, 0

; 1215 : 			sprintf(strFault, "Could'n open PTT device %s", PTTPORT);

  01fa8	68 00 00 00 00	 push	 OFFSET _PTTPORT
  01fad	68 00 00 00 00	 push	 OFFSET ??_C@_0BL@EDEJGDHF@Could?8n?5open?5PTT?5device?5?$CFs?$AA@
  01fb2	8d 85 30 ff ff
	ff		 lea	 eax, DWORD PTR _strFault$[ebp]
  01fb8	50		 push	 eax
  01fb9	e8 00 00 00 00	 call	 _sprintf
  01fbe	83 c4 0c	 add	 esp, 12			; 0000000cH
$LN56@ProcessCom:

; 1216 : 		}
; 1217 : 		sprintf(cmdReply, "RADIOPTT now %s", PTTPORT);

  01fc1	68 00 00 00 00	 push	 OFFSET _PTTPORT
  01fc6	68 00 00 00 00	 push	 OFFSET ??_C@_0BA@OCLBAMMC@RADIOPTT?5now?5?$CFs?$AA@
  01fcb	8d 85 28 fb ff
	ff		 lea	 eax, DWORD PTR _cmdReply$[ebp]
  01fd1	50		 push	 eax
  01fd2	e8 00 00 00 00	 call	 _sprintf
  01fd7	83 c4 0c	 add	 esp, 12			; 0000000cH

; 1218 : 		SendReplyToHost(cmdReply);

  01fda	8d 85 28 fb ff
	ff		 lea	 eax, DWORD PTR _cmdReply$[ebp]
  01fe0	50		 push	 eax
  01fe1	e8 00 00 00 00	 call	 _SendReplyToHost
  01fe6	83 c4 04	 add	 esp, 4

; 1219 : 		goto cmddone;

  01fe9	e9 95 07 00 00	 jmp	 $cmddone$5511
$LN60@ProcessCom:

; 1220 : 	}
; 1221 : 	/*
; 1222 : 
; 1223 :              Case "RADIOPTTDTR"
; 1224 :                 If ptrSpace = -1 Then
; 1225 :                     SendReplyToHost(strCommand & " " & RCB.PTTDTR.ToString)
; 1226 :                 ElseIf strParameters = "TRUE" Or strParameters = "FALSE" Then
; 1227 :                     RCB.PTTDTR = CBool(strParameters)
; 1228 :                     objMain.objRadio.InitRadioPorts()
; 1229 :                 Else
; 1230 :                     strFault = "Syntax Err:" & strCMD
; 1231 :                 End If
; 1232 :             Case "RADIOPTTRTS"
; 1233 :                 If ptrSpace = -1 Then
; 1234 :                     SendReplyToHost(strCommand & " " & RCB.PTTRTS.ToString)
; 1235 :                 ElseIf strParameters = "TRUE" Or strParameters = "FALSE" Then
; 1236 :                     RCB.PTTRTS = CBool(strParameters)
; 1237 :                     objMain.objRadio.InitRadioPorts()
; 1238 :                 Else
; 1239 :                     strFault = "Syntax Err:" & strCMD
; 1240 :                 End If
; 1241 :                 ' End of optional Radio Commands
; 1242 : */
; 1243 : 
; 1244 :  	if (strcmp(strCMD, "RADIOPTTGPIO") == 0)

  01fee	68 00 00 00 00	 push	 OFFSET ??_C@_0N@LFJFAPE@RADIOPTTGPIO?$AA@
  01ff3	8b 45 08	 mov	 eax, DWORD PTR _strCMD$[ebp]
  01ff6	50		 push	 eax
  01ff7	e8 00 00 00 00	 call	 _strcmp
  01ffc	83 c4 08	 add	 esp, 8
  01fff	85 c0		 test	 eax, eax
  02001	0f 85 d3 00 00
	00		 jne	 $LN55@ProcessCom

; 1245 : 	{
; 1246 : 		if (!gotGPIO)

  02007	83 3d 00 00 00
	00 00		 cmp	 DWORD PTR _gotGPIO, 0
  0200e	75 19		 jne	 SHORT $LN54@ProcessCom

; 1247 : 		{
; 1248 : 			sprintf(strFault, "PTT via GPIO not available on this system");

  02010	68 00 00 00 00	 push	 OFFSET ??_C@_0CK@CAMMMBMA@PTT?5via?5GPIO?5not?5available?5on?5th@
  02015	8d 85 30 ff ff
	ff		 lea	 eax, DWORD PTR _strFault$[ebp]
  0201b	50		 push	 eax
  0201c	e8 00 00 00 00	 call	 _sprintf
  02021	83 c4 08	 add	 esp, 8

; 1249 : 			goto cmddone;

  02024	e9 5a 07 00 00	 jmp	 $cmddone$5511
$LN54@ProcessCom:

; 1250 : 		}
; 1251 : 
; 1252 : 		if (ptrParams == NULL)

  02029	83 7d f4 00	 cmp	 DWORD PTR _ptrParams$[ebp], 0
  0202d	75 4d		 jne	 SHORT $LN53@ProcessCom

; 1253 : 		{
; 1254 : 			if (pttGPIOPin == -1)

  0202f	83 3d 00 00 00
	00 ff		 cmp	 DWORD PTR _pttGPIOPin, -1
  02036	75 16		 jne	 SHORT $LN52@ProcessCom

; 1255 : 				sprintf(cmdReply, "RADIOPTTGPIO DISABLED");

  02038	68 00 00 00 00	 push	 OFFSET ??_C@_0BG@HPMLLGIP@RADIOPTTGPIO?5DISABLED?$AA@
  0203d	8d 85 28 fb ff
	ff		 lea	 eax, DWORD PTR _cmdReply$[ebp]
  02043	50		 push	 eax
  02044	e8 00 00 00 00	 call	 _sprintf
  02049	83 c4 08	 add	 esp, 8

; 1256 : 			else

  0204c	eb 1a		 jmp	 SHORT $LN51@ProcessCom
$LN52@ProcessCom:

; 1257 : 				sprintf(cmdReply, "RADIOPTTGPIO ENABLED on pin %d", pttGPIOPin);

  0204e	a1 00 00 00 00	 mov	 eax, DWORD PTR _pttGPIOPin
  02053	50		 push	 eax
  02054	68 00 00 00 00	 push	 OFFSET ??_C@_0BP@CCAIIMNG@RADIOPTTGPIO?5ENABLED?5on?5pin?5?$CFd?$AA@
  02059	8d 8d 28 fb ff
	ff		 lea	 ecx, DWORD PTR _cmdReply$[ebp]
  0205f	51		 push	 ecx
  02060	e8 00 00 00 00	 call	 _sprintf
  02065	83 c4 0c	 add	 esp, 12			; 0000000cH
$LN51@ProcessCom:

; 1258 : 
; 1259 : 			SendReplyToHost(cmdReply);

  02068	8d 85 28 fb ff
	ff		 lea	 eax, DWORD PTR _cmdReply$[ebp]
  0206e	50		 push	 eax
  0206f	e8 00 00 00 00	 call	 _SendReplyToHost
  02074	83 c4 04	 add	 esp, 4

; 1260 : 			goto cmddone;

  02077	e9 07 07 00 00	 jmp	 $cmddone$5511
$LN53@ProcessCom:

; 1261 : 		}
; 1262 : 
; 1263 : 		pttGPIOPin = atoi(ptrParams);

  0207c	8b 45 f4	 mov	 eax, DWORD PTR _ptrParams$[ebp]
  0207f	50		 push	 eax
  02080	e8 00 00 00 00	 call	 _atoi
  02085	83 c4 04	 add	 esp, 4
  02088	a3 00 00 00 00	 mov	 DWORD PTR _pttGPIOPin, eax

; 1264 : #ifdef __ARM_ARCH
; 1265 : 		SetupGPIOPTT();
; 1266 : #endif
; 1267 : 		if (pttGPIOPin == -1)

  0208d	83 3d 00 00 00
	00 ff		 cmp	 DWORD PTR _pttGPIOPin, -1
  02094	75 16		 jne	 SHORT $LN50@ProcessCom

; 1268 : 			sprintf(cmdReply, "RADIOPTTGPIO now DISABLED");

  02096	68 00 00 00 00	 push	 OFFSET ??_C@_0BK@JEJMOABI@RADIOPTTGPIO?5now?5DISABLED?$AA@
  0209b	8d 85 28 fb ff
	ff		 lea	 eax, DWORD PTR _cmdReply$[ebp]
  020a1	50		 push	 eax
  020a2	e8 00 00 00 00	 call	 _sprintf
  020a7	83 c4 08	 add	 esp, 8

; 1269 : 		else

  020aa	eb 1a		 jmp	 SHORT $LN49@ProcessCom
$LN50@ProcessCom:

; 1270 : 			sprintf(cmdReply, "RADIOPTTGPIO now ENABLED on pin %d", pttGPIOPin);

  020ac	a1 00 00 00 00	 mov	 eax, DWORD PTR _pttGPIOPin
  020b1	50		 push	 eax
  020b2	68 00 00 00 00	 push	 OFFSET ??_C@_0CD@IFEEGFBI@RADIOPTTGPIO?5now?5ENABLED?5on?5pin?5@
  020b7	8d 8d 28 fb ff
	ff		 lea	 ecx, DWORD PTR _cmdReply$[ebp]
  020bd	51		 push	 ecx
  020be	e8 00 00 00 00	 call	 _sprintf
  020c3	83 c4 0c	 add	 esp, 12			; 0000000cH
$LN49@ProcessCom:

; 1271 : 		
; 1272 : 		SendReplyToHost(cmdReply);

  020c6	8d 85 28 fb ff
	ff		 lea	 eax, DWORD PTR _cmdReply$[ebp]
  020cc	50		 push	 eax
  020cd	e8 00 00 00 00	 call	 _SendReplyToHost
  020d2	83 c4 04	 add	 esp, 4

; 1273 : 		goto cmddone;

  020d5	e9 a9 06 00 00	 jmp	 $cmddone$5511
$LN55@ProcessCom:

; 1274 : 	}
; 1275 : #endif
; 1276 : 
; 1277 : 	if (strcmp(strCMD, "RXLEVEL") == 0)

  020da	68 00 00 00 00	 push	 OFFSET ??_C@_07LBJGHBIP@RXLEVEL?$AA@
  020df	8b 45 08	 mov	 eax, DWORD PTR _strCMD$[ebp]
  020e2	50		 push	 eax
  020e3	e8 00 00 00 00	 call	 _strcmp
  020e8	83 c4 08	 add	 esp, 8
  020eb	85 c0		 test	 eax, eax
  020ed	75 28		 jne	 SHORT $LN48@ProcessCom

; 1278 : 	{
; 1279 : #ifndef HASPOTS
; 1280 : 		sprintf(cmdReply, "RXLEVEL command not available on this platform");

  020ef	68 00 00 00 00	 push	 OFFSET ??_C@_0CP@GGKPCLGL@RXLEVEL?5command?5not?5available?5on@
  020f4	8d 85 28 fb ff
	ff		 lea	 eax, DWORD PTR _cmdReply$[ebp]
  020fa	50		 push	 eax
  020fb	e8 00 00 00 00	 call	 _sprintf
  02100	83 c4 08	 add	 esp, 8

; 1281 : 		SendReplyToHost(cmdReply);

  02103	8d 85 28 fb ff
	ff		 lea	 eax, DWORD PTR _cmdReply$[ebp]
  02109	50		 push	 eax
  0210a	e8 00 00 00 00	 call	 _SendReplyToHost
  0210f	83 c4 04	 add	 esp, 4

; 1282 : 		goto cmddone;

  02112	e9 6c 06 00 00	 jmp	 $cmddone$5511
$LN48@ProcessCom:

; 1283 : #else
; 1284 : 		int i;
; 1285 : 
; 1286 : 		if (ptrParams == 0)
; 1287 : 		{
; 1288 : 			sprintf(cmdReply, "%s %d", strCMD, RXLevel);
; 1289 : 			SendReplyToHost(cmdReply);
; 1290 : 			goto cmddone;
; 1291 : 		}
; 1292 : 		else
; 1293 : 		{
; 1294 : 			i = atoi(ptrParams);
; 1295 : 
; 1296 : 			if (i >= 0 && i <= 3000)
; 1297 : 			{
; 1298 : 				int Pot;
; 1299 : 				RXLevel = i;
; 1300 : 				AdjustRXLevel(RXLevel);
; 1301 : 				sprintf(cmdReply, "%s now %d", strCMD, RXLevel);
; 1302 : 				SendReplyToHost(cmdReply);
; 1303 : 			}
; 1304 : 			else
; 1305 : 				sprintf(strFault, "Syntax Err: %s %s", strCMD, ptrParams);	
; 1306 : 		}
; 1307 : 		goto cmddone;
; 1308 : #endif
; 1309 : 	}
; 1310 : 
; 1311 : 	if (strcmp(strCMD, "SENDID") == 0)

  02117	68 00 00 00 00	 push	 OFFSET ??_C@_06DHNAFNHI@SENDID?$AA@
  0211c	8b 45 08	 mov	 eax, DWORD PTR _strCMD$[ebp]
  0211f	50		 push	 eax
  02120	e8 00 00 00 00	 call	 _strcmp
  02125	83 c4 08	 add	 esp, 8
  02128	85 c0		 test	 eax, eax
  0212a	75 48		 jne	 SHORT $LN47@ProcessCom

; 1312 : 	{
; 1313 : 		if (ProtocolState == DISC)

  0212c	83 3d 00 00 00
	00 01		 cmp	 DWORD PTR _ProtocolState, 1
  02133	75 18		 jne	 SHORT $LN46@ProcessCom

; 1314 : 		{
; 1315 : 			NeedID = TRUE;			// Send from background

  02135	c7 05 00 00 00
	00 01 00 00 00	 mov	 DWORD PTR _NeedID, 1

; 1316 : 			SendReplyToHost(strCMD);

  0213f	8b 45 08	 mov	 eax, DWORD PTR _strCMD$[ebp]
  02142	50		 push	 eax
  02143	e8 00 00 00 00	 call	 _SendReplyToHost
  02148	83 c4 04	 add	 esp, 4

; 1317 : 		}
; 1318 : 		else

  0214b	eb 22		 jmp	 SHORT $LN45@ProcessCom
$LN46@ProcessCom:

; 1319 : 			sprintf(strFault, "Not from State %s", ARDOPStates[ProtocolState]);

  0214d	a1 00 00 00 00	 mov	 eax, DWORD PTR _ProtocolState
  02152	6b c0 09	 imul	 eax, 9
  02155	05 00 00 00 00	 add	 eax, OFFSET _ARDOPStates
  0215a	50		 push	 eax
  0215b	68 00 00 00 00	 push	 OFFSET ??_C@_0BC@DIBOMCCE@Not?5from?5State?5?$CFs?$AA@
  02160	8d 8d 30 ff ff
	ff		 lea	 ecx, DWORD PTR _strFault$[ebp]
  02166	51		 push	 ecx
  02167	e8 00 00 00 00	 call	 _sprintf
  0216c	83 c4 0c	 add	 esp, 12			; 0000000cH
$LN45@ProcessCom:

; 1320 : 
; 1321 : 		goto cmddone;

  0216f	e9 0f 06 00 00	 jmp	 $cmddone$5511
$LN47@ProcessCom:

; 1322 : 	}
; 1323 : /*
; 1324 :             Case "SETUPMENU"
; 1325 :                 If ptrSpace = -1 Then
; 1326 :                     SendReplyToHost(strCommand & " " & objMain.SetupMenu.Enabled.ToString)
; 1327 :                 ElseIf strParameters = "TRUE" Or strParameters = "FALSE" Then
; 1328 :                     objMain.SetupMenu.Enabled = CBool(strParameters)
; 1329 :                 Else
; 1330 :                     strFault = "Syntax Err:" & strCMD
; 1331 :                 End If
; 1332 : 
; 1333 : */
; 1334 : 
; 1335 : 	if (strcmp(strCMD, "NO2000.167") == 0)

  02174	68 00 00 00 00	 push	 OFFSET ??_C@_0L@NAGDAOLG@NO2000?4167?$AA@
  02179	8b 45 08	 mov	 eax, DWORD PTR _strCMD$[ebp]
  0217c	50		 push	 eax
  0217d	e8 00 00 00 00	 call	 _strcmp
  02182	83 c4 08	 add	 esp, 8
  02185	85 c0		 test	 eax, eax
  02187	0f 85 f7 00 00
	00		 jne	 $LN44@ProcessCom

; 1336 : 	{
; 1337 : 		if (ptrParams == NULL)

  0218d	83 7d f4 00	 cmp	 DWORD PTR _ptrParams$[ebp], 0
  02191	75 47		 jne	 SHORT $LN43@ProcessCom

; 1338 : 		{
; 1339 : 			if (skip167)

  02193	83 3d 00 00 00
	00 00		 cmp	 DWORD PTR _skip167, 0
  0219a	74 16		 je	 SHORT $LN42@ProcessCom

; 1340 : 				sprintf(cmdReply, "NO2000.167 TRUE");

  0219c	68 00 00 00 00	 push	 OFFSET ??_C@_0BA@PILDMGOO@NO2000?4167?5TRUE?$AA@
  021a1	8d 85 28 fb ff
	ff		 lea	 eax, DWORD PTR _cmdReply$[ebp]
  021a7	50		 push	 eax
  021a8	e8 00 00 00 00	 call	 _sprintf
  021ad	83 c4 08	 add	 esp, 8

; 1341 : 			else

  021b0	eb 14		 jmp	 SHORT $LN41@ProcessCom
$LN42@ProcessCom:

; 1342 : 				sprintf(cmdReply, "NO2000.167 FALSE");

  021b2	68 00 00 00 00	 push	 OFFSET ??_C@_0BB@JGKAEOOM@NO2000?4167?5FALSE?$AA@
  021b7	8d 85 28 fb ff
	ff		 lea	 eax, DWORD PTR _cmdReply$[ebp]
  021bd	50		 push	 eax
  021be	e8 00 00 00 00	 call	 _sprintf
  021c3	83 c4 08	 add	 esp, 8
$LN41@ProcessCom:

; 1343 : 
; 1344 : 			SendReplyToHost(cmdReply);

  021c6	8d 85 28 fb ff
	ff		 lea	 eax, DWORD PTR _cmdReply$[ebp]
  021cc	50		 push	 eax
  021cd	e8 00 00 00 00	 call	 _SendReplyToHost
  021d2	83 c4 04	 add	 esp, 4

; 1345 : 			goto cmddone;

  021d5	e9 a9 05 00 00	 jmp	 $cmddone$5511
$LN43@ProcessCom:

; 1346 : 		}
; 1347 : 		
; 1348 : 		if (strcmp(ptrParams, "TRUE") == 0)

  021da	68 00 00 00 00	 push	 OFFSET ??_C@_04HCDDPBNL@TRUE?$AA@
  021df	8b 45 f4	 mov	 eax, DWORD PTR _ptrParams$[ebp]
  021e2	50		 push	 eax
  021e3	e8 00 00 00 00	 call	 _strcmp
  021e8	83 c4 08	 add	 esp, 8
  021eb	85 c0		 test	 eax, eax
  021ed	75 0c		 jne	 SHORT $LN40@ProcessCom

; 1349 : 			skip167 = TRUE;

  021ef	c7 05 00 00 00
	00 01 00 00 00	 mov	 DWORD PTR _skip167, 1

; 1350 : 		else 

  021f9	eb 42		 jmp	 SHORT $LN39@ProcessCom
$LN40@ProcessCom:

; 1351 : 		if (strcmp(ptrParams, "FALSE") == 0)

  021fb	68 00 00 00 00	 push	 OFFSET ??_C@_05MAJJAKPI@FALSE?$AA@
  02200	8b 45 f4	 mov	 eax, DWORD PTR _ptrParams$[ebp]
  02203	50		 push	 eax
  02204	e8 00 00 00 00	 call	 _strcmp
  02209	83 c4 08	 add	 esp, 8
  0220c	85 c0		 test	 eax, eax
  0220e	75 0c		 jne	 SHORT $LN38@ProcessCom

; 1352 : 			skip167 = FALSE;

  02210	c7 05 00 00 00
	00 00 00 00 00	 mov	 DWORD PTR _skip167, 0

; 1353 : 		else

  0221a	eb 21		 jmp	 SHORT $LN39@ProcessCom
$LN38@ProcessCom:

; 1354 : 		{
; 1355 : 			sprintf(strFault, "Syntax Err: %s %s", strCMD, ptrParams);

  0221c	8b 45 f4	 mov	 eax, DWORD PTR _ptrParams$[ebp]
  0221f	50		 push	 eax
  02220	8b 4d 08	 mov	 ecx, DWORD PTR _strCMD$[ebp]
  02223	51		 push	 ecx
  02224	68 00 00 00 00	 push	 OFFSET ??_C@_0BC@LMEKCHED@Syntax?5Err?3?5?$CFs?5?$CFs?$AA@
  02229	8d 95 30 ff ff
	ff		 lea	 edx, DWORD PTR _strFault$[ebp]
  0222f	52		 push	 edx
  02230	e8 00 00 00 00	 call	 _sprintf
  02235	83 c4 10	 add	 esp, 16			; 00000010H

; 1356 : 			goto cmddone;

  02238	e9 46 05 00 00	 jmp	 $cmddone$5511
$LN39@ProcessCom:

; 1357 : 		}
; 1358 : 		if (skip167)

  0223d	83 3d 00 00 00
	00 00		 cmp	 DWORD PTR _skip167, 0
  02244	74 16		 je	 SHORT $LN36@ProcessCom

; 1359 : 			sprintf(cmdReply, "NO2000.167 now TRUE");

  02246	68 00 00 00 00	 push	 OFFSET ??_C@_0BE@DBCOBICJ@NO2000?4167?5now?5TRUE?$AA@
  0224b	8d 85 28 fb ff
	ff		 lea	 eax, DWORD PTR _cmdReply$[ebp]
  02251	50		 push	 eax
  02252	e8 00 00 00 00	 call	 _sprintf
  02257	83 c4 08	 add	 esp, 8

; 1360 : 		else

  0225a	eb 14		 jmp	 SHORT $LN35@ProcessCom
$LN36@ProcessCom:

; 1361 : 			sprintf(cmdReply, "NO2000.167 now FALSE");

  0225c	68 00 00 00 00	 push	 OFFSET ??_C@_0BF@JDGJIECB@NO2000?4167?5now?5FALSE?$AA@
  02261	8d 85 28 fb ff
	ff		 lea	 eax, DWORD PTR _cmdReply$[ebp]
  02267	50		 push	 eax
  02268	e8 00 00 00 00	 call	 _sprintf
  0226d	83 c4 08	 add	 esp, 8
$LN35@ProcessCom:

; 1362 : 		
; 1363 : 		SendReplyToHost(cmdReply);

  02270	8d 85 28 fb ff
	ff		 lea	 eax, DWORD PTR _cmdReply$[ebp]
  02276	50		 push	 eax
  02277	e8 00 00 00 00	 call	 _SendReplyToHost
  0227c	83 c4 04	 add	 esp, 4

; 1364 : 		goto cmddone;

  0227f	e9 ff 04 00 00	 jmp	 $cmddone$5511
$LN44@ProcessCom:

; 1365 : 	}
; 1366 : 
; 1367 : 
; 1368 : 	if (strcmp(strCMD, "SQUELCH") == 0)

  02284	68 00 00 00 00	 push	 OFFSET ??_C@_07JDDIGJNM@SQUELCH?$AA@
  02289	8b 45 08	 mov	 eax, DWORD PTR _strCMD$[ebp]
  0228c	50		 push	 eax
  0228d	e8 00 00 00 00	 call	 _strcmp
  02292	83 c4 08	 add	 esp, 8
  02295	85 c0		 test	 eax, eax
  02297	0f 85 b4 00 00
	00		 jne	 $LN34@ProcessCom

; 1369 : 	{
; 1370 : 		int i;
; 1371 : 
; 1372 : 		if (ptrParams == 0)

  0229d	83 7d f4 00	 cmp	 DWORD PTR _ptrParams$[ebp], 0
  022a1	75 2f		 jne	 SHORT $LN33@ProcessCom

; 1373 : 		{
; 1374 : 			sprintf(cmdReply, "%s %d", strCMD, Squelch);

  022a3	a1 00 00 00 00	 mov	 eax, DWORD PTR _Squelch
  022a8	50		 push	 eax
  022a9	8b 4d 08	 mov	 ecx, DWORD PTR _strCMD$[ebp]
  022ac	51		 push	 ecx
  022ad	68 00 00 00 00	 push	 OFFSET ??_C@_05DIALNFFA@?$CFs?5?$CFd?$AA@
  022b2	8d 95 28 fb ff
	ff		 lea	 edx, DWORD PTR _cmdReply$[ebp]
  022b8	52		 push	 edx
  022b9	e8 00 00 00 00	 call	 _sprintf
  022be	83 c4 10	 add	 esp, 16			; 00000010H

; 1375 : 			SendReplyToHost(cmdReply);

  022c1	8d 85 28 fb ff
	ff		 lea	 eax, DWORD PTR _cmdReply$[ebp]
  022c7	50		 push	 eax
  022c8	e8 00 00 00 00	 call	 _SendReplyToHost
  022cd	83 c4 04	 add	 esp, 4

; 1376 : 		}
; 1377 : 		else

  022d0	eb 7a		 jmp	 SHORT $LN32@ProcessCom
$LN33@ProcessCom:

; 1378 : 		{
; 1379 : 			i = atoi(ptrParams);

  022d2	8b 45 f4	 mov	 eax, DWORD PTR _ptrParams$[ebp]
  022d5	50		 push	 eax
  022d6	e8 00 00 00 00	 call	 _atoi
  022db	83 c4 04	 add	 esp, 4
  022de	89 85 68 fa ff
	ff		 mov	 DWORD PTR _i$5935[ebp], eax

; 1380 : 
; 1381 : 			if (i >= 1  && i <= 10)

  022e4	83 bd 68 fa ff
	ff 01		 cmp	 DWORD PTR _i$5935[ebp], 1
  022eb	7c 43		 jl	 SHORT $LN31@ProcessCom
  022ed	83 bd 68 fa ff
	ff 0a		 cmp	 DWORD PTR _i$5935[ebp], 10 ; 0000000aH
  022f4	7f 3a		 jg	 SHORT $LN31@ProcessCom

; 1382 : 			{
; 1383 : 				Squelch = i;

  022f6	8b 85 68 fa ff
	ff		 mov	 eax, DWORD PTR _i$5935[ebp]
  022fc	a3 00 00 00 00	 mov	 DWORD PTR _Squelch, eax

; 1384 : 				sprintf(cmdReply, "%s now %d", strCMD, Squelch);

  02301	a1 00 00 00 00	 mov	 eax, DWORD PTR _Squelch
  02306	50		 push	 eax
  02307	8b 4d 08	 mov	 ecx, DWORD PTR _strCMD$[ebp]
  0230a	51		 push	 ecx
  0230b	68 00 00 00 00	 push	 OFFSET ??_C@_09HDKFPBCF@?$CFs?5now?5?$CFd?$AA@
  02310	8d 95 28 fb ff
	ff		 lea	 edx, DWORD PTR _cmdReply$[ebp]
  02316	52		 push	 edx
  02317	e8 00 00 00 00	 call	 _sprintf
  0231c	83 c4 10	 add	 esp, 16			; 00000010H

; 1385 : 				SendReplyToHost(cmdReply);

  0231f	8d 85 28 fb ff
	ff		 lea	 eax, DWORD PTR _cmdReply$[ebp]
  02325	50		 push	 eax
  02326	e8 00 00 00 00	 call	 _SendReplyToHost
  0232b	83 c4 04	 add	 esp, 4

; 1386 : 			}
; 1387 : 			else

  0232e	eb 1c		 jmp	 SHORT $LN32@ProcessCom
$LN31@ProcessCom:

; 1388 : 				sprintf(strFault, "Syntax Err: %s %s", strCMD, ptrParams);	

  02330	8b 45 f4	 mov	 eax, DWORD PTR _ptrParams$[ebp]
  02333	50		 push	 eax
  02334	8b 4d 08	 mov	 ecx, DWORD PTR _strCMD$[ebp]
  02337	51		 push	 ecx
  02338	68 00 00 00 00	 push	 OFFSET ??_C@_0BC@LMEKCHED@Syntax?5Err?3?5?$CFs?5?$CFs?$AA@
  0233d	8d 95 30 ff ff
	ff		 lea	 edx, DWORD PTR _strFault$[ebp]
  02343	52		 push	 edx
  02344	e8 00 00 00 00	 call	 _sprintf
  02349	83 c4 10	 add	 esp, 16			; 00000010H
$LN32@ProcessCom:

; 1389 : 		}
; 1390 : 		goto cmddone;

  0234c	e9 32 04 00 00	 jmp	 $cmddone$5511
$LN34@ProcessCom:

; 1391 : 	}
; 1392 : 
; 1393 : 
; 1394 : 	if (strcmp(strCMD, "STATE") == 0)

  02351	68 00 00 00 00	 push	 OFFSET ??_C@_05MMKHEPHK@STATE?$AA@
  02356	8b 45 08	 mov	 eax, DWORD PTR _strCMD$[ebp]
  02359	50		 push	 eax
  0235a	e8 00 00 00 00	 call	 _strcmp
  0235f	83 c4 08	 add	 esp, 8
  02362	85 c0		 test	 eax, eax
  02364	75 5e		 jne	 SHORT $LN29@ProcessCom

; 1395 : 	{
; 1396 : 		if (ptrParams == 0)

  02366	83 7d f4 00	 cmp	 DWORD PTR _ptrParams$[ebp], 0
  0236a	75 37		 jne	 SHORT $LN28@ProcessCom

; 1397 : 		{
; 1398 : 			sprintf(cmdReply, "%s %s", strCMD, ARDOPStates[ProtocolState]);

  0236c	a1 00 00 00 00	 mov	 eax, DWORD PTR _ProtocolState
  02371	6b c0 09	 imul	 eax, 9
  02374	05 00 00 00 00	 add	 eax, OFFSET _ARDOPStates
  02379	50		 push	 eax
  0237a	8b 4d 08	 mov	 ecx, DWORD PTR _strCMD$[ebp]
  0237d	51		 push	 ecx
  0237e	68 00 00 00 00	 push	 OFFSET ??_C@_05DNIIFBMG@?$CFs?5?$CFs?$AA@
  02383	8d 95 28 fb ff
	ff		 lea	 edx, DWORD PTR _cmdReply$[ebp]
  02389	52		 push	 edx
  0238a	e8 00 00 00 00	 call	 _sprintf
  0238f	83 c4 10	 add	 esp, 16			; 00000010H

; 1399 : 			SendReplyToHost(cmdReply);

  02392	8d 85 28 fb ff
	ff		 lea	 eax, DWORD PTR _cmdReply$[ebp]
  02398	50		 push	 eax
  02399	e8 00 00 00 00	 call	 _SendReplyToHost
  0239e	83 c4 04	 add	 esp, 4

; 1400 : 		}
; 1401 : 		else

  023a1	eb 1c		 jmp	 SHORT $LN27@ProcessCom
$LN28@ProcessCom:

; 1402 : 			sprintf(strFault, "Syntax Err: %s %s", strCMD, ptrParams);

  023a3	8b 45 f4	 mov	 eax, DWORD PTR _ptrParams$[ebp]
  023a6	50		 push	 eax
  023a7	8b 4d 08	 mov	 ecx, DWORD PTR _strCMD$[ebp]
  023aa	51		 push	 ecx
  023ab	68 00 00 00 00	 push	 OFFSET ??_C@_0BC@LMEKCHED@Syntax?5Err?3?5?$CFs?5?$CFs?$AA@
  023b0	8d 95 30 ff ff
	ff		 lea	 edx, DWORD PTR _strFault$[ebp]
  023b6	52		 push	 edx
  023b7	e8 00 00 00 00	 call	 _sprintf
  023bc	83 c4 10	 add	 esp, 16			; 00000010H
$LN27@ProcessCom:

; 1403 : 
; 1404 : 		goto cmddone;

  023bf	e9 bf 03 00 00	 jmp	 $cmddone$5511
$LN29@ProcessCom:

; 1405 : 	}
; 1406 : 
; 1407 : 	if (strcmp(strCMD, "TRAILER") == 0)

  023c4	68 00 00 00 00	 push	 OFFSET ??_C@_07EBACFBLN@TRAILER?$AA@
  023c9	8b 45 08	 mov	 eax, DWORD PTR _strCMD$[ebp]
  023cc	50		 push	 eax
  023cd	e8 00 00 00 00	 call	 _strcmp
  023d2	83 c4 08	 add	 esp, 8
  023d5	85 c0		 test	 eax, eax
  023d7	0f 85 d2 00 00
	00		 jne	 $LN26@ProcessCom

; 1408 : 	{
; 1409 : 		int i;
; 1410 : 
; 1411 : 		if (ptrParams == 0)

  023dd	83 7d f4 00	 cmp	 DWORD PTR _ptrParams$[ebp], 0
  023e1	75 32		 jne	 SHORT $LN25@ProcessCom

; 1412 : 		{
; 1413 : 			sprintf(cmdReply, "%s %d", strCMD, TrailerLength);

  023e3	a1 00 00 00 00	 mov	 eax, DWORD PTR _TrailerLength
  023e8	50		 push	 eax
  023e9	8b 4d 08	 mov	 ecx, DWORD PTR _strCMD$[ebp]
  023ec	51		 push	 ecx
  023ed	68 00 00 00 00	 push	 OFFSET ??_C@_05DIALNFFA@?$CFs?5?$CFd?$AA@
  023f2	8d 95 28 fb ff
	ff		 lea	 edx, DWORD PTR _cmdReply$[ebp]
  023f8	52		 push	 edx
  023f9	e8 00 00 00 00	 call	 _sprintf
  023fe	83 c4 10	 add	 esp, 16			; 00000010H

; 1414 : 			SendReplyToHost(cmdReply);

  02401	8d 85 28 fb ff
	ff		 lea	 eax, DWORD PTR _cmdReply$[ebp]
  02407	50		 push	 eax
  02408	e8 00 00 00 00	 call	 _SendReplyToHost
  0240d	83 c4 04	 add	 esp, 4

; 1415 : 		}
; 1416 : 		else

  02410	e9 95 00 00 00	 jmp	 $LN24@ProcessCom
$LN25@ProcessCom:

; 1417 : 		{
; 1418 : 			i = atoi(ptrParams);

  02415	8b 45 f4	 mov	 eax, DWORD PTR _ptrParams$[ebp]
  02418	50		 push	 eax
  02419	e8 00 00 00 00	 call	 _atoi
  0241e	83 c4 04	 add	 esp, 4
  02421	89 85 5c fa ff
	ff		 mov	 DWORD PTR _i$5946[ebp], eax

; 1419 : 
; 1420 : 			if (i >= 0  && i <= 200)

  02427	83 bd 5c fa ff
	ff 00		 cmp	 DWORD PTR _i$5946[ebp], 0
  0242e	7c 5e		 jl	 SHORT $LN23@ProcessCom
  02430	81 bd 5c fa ff
	ff c8 00 00 00	 cmp	 DWORD PTR _i$5946[ebp], 200 ; 000000c8H
  0243a	7f 52		 jg	 SHORT $LN23@ProcessCom

; 1421 : 			{
; 1422 : 				TrailerLength = (i + 9) /10;

  0243c	8b 85 5c fa ff
	ff		 mov	 eax, DWORD PTR _i$5946[ebp]
  02442	83 c0 09	 add	 eax, 9
  02445	99		 cdq
  02446	b9 0a 00 00 00	 mov	 ecx, 10			; 0000000aH
  0244b	f7 f9		 idiv	 ecx
  0244d	a3 00 00 00 00	 mov	 DWORD PTR _TrailerLength, eax

; 1423 : 				TrailerLength *= 10;				// round to 10 mS

  02452	a1 00 00 00 00	 mov	 eax, DWORD PTR _TrailerLength
  02457	6b c0 0a	 imul	 eax, 10			; 0000000aH
  0245a	a3 00 00 00 00	 mov	 DWORD PTR _TrailerLength, eax

; 1424 : 				
; 1425 : 				sprintf(cmdReply, "%s now %d", strCMD, TrailerLength);

  0245f	a1 00 00 00 00	 mov	 eax, DWORD PTR _TrailerLength
  02464	50		 push	 eax
  02465	8b 4d 08	 mov	 ecx, DWORD PTR _strCMD$[ebp]
  02468	51		 push	 ecx
  02469	68 00 00 00 00	 push	 OFFSET ??_C@_09HDKFPBCF@?$CFs?5now?5?$CFd?$AA@
  0246e	8d 95 28 fb ff
	ff		 lea	 edx, DWORD PTR _cmdReply$[ebp]
  02474	52		 push	 edx
  02475	e8 00 00 00 00	 call	 _sprintf
  0247a	83 c4 10	 add	 esp, 16			; 00000010H

; 1426 : 				SendReplyToHost(cmdReply);

  0247d	8d 85 28 fb ff
	ff		 lea	 eax, DWORD PTR _cmdReply$[ebp]
  02483	50		 push	 eax
  02484	e8 00 00 00 00	 call	 _SendReplyToHost
  02489	83 c4 04	 add	 esp, 4

; 1427 : 			}
; 1428 : 			else

  0248c	eb 1c		 jmp	 SHORT $LN24@ProcessCom
$LN23@ProcessCom:

; 1429 : 				sprintf(strFault, "Syntax Err: %s %s", strCMD, ptrParams);	

  0248e	8b 45 f4	 mov	 eax, DWORD PTR _ptrParams$[ebp]
  02491	50		 push	 eax
  02492	8b 4d 08	 mov	 ecx, DWORD PTR _strCMD$[ebp]
  02495	51		 push	 ecx
  02496	68 00 00 00 00	 push	 OFFSET ??_C@_0BC@LMEKCHED@Syntax?5Err?3?5?$CFs?5?$CFs?$AA@
  0249b	8d 95 30 ff ff
	ff		 lea	 edx, DWORD PTR _strFault$[ebp]
  024a1	52		 push	 edx
  024a2	e8 00 00 00 00	 call	 _sprintf
  024a7	83 c4 10	 add	 esp, 16			; 00000010H
$LN24@ProcessCom:

; 1430 : 		}
; 1431 : 		goto cmddone;

  024aa	e9 d4 02 00 00	 jmp	 $cmddone$5511
$LN26@ProcessCom:

; 1432 : 	}
; 1433 : 
; 1434 : 	if (strcmp(strCMD, "TWOTONETEST") == 0)

  024af	68 00 00 00 00	 push	 OFFSET ??_C@_0M@MALFFABE@TWOTONETEST?$AA@
  024b4	8b 45 08	 mov	 eax, DWORD PTR _strCMD$[ebp]
  024b7	50		 push	 eax
  024b8	e8 00 00 00 00	 call	 _strcmp
  024bd	83 c4 08	 add	 esp, 8
  024c0	85 c0		 test	 eax, eax
  024c2	75 48		 jne	 SHORT $LN21@ProcessCom

; 1435 : 	{
; 1436 :        if (ProtocolState == DISC)

  024c4	83 3d 00 00 00
	00 01		 cmp	 DWORD PTR _ProtocolState, 1
  024cb	75 18		 jne	 SHORT $LN20@ProcessCom

; 1437 : 	   {
; 1438 : 		   NeedTwoToneTest = TRUE;			// Send from background

  024cd	c7 05 00 00 00
	00 01 00 00 00	 mov	 DWORD PTR _NeedTwoToneTest, 1

; 1439 : 		   SendReplyToHost(strCMD);

  024d7	8b 45 08	 mov	 eax, DWORD PTR _strCMD$[ebp]
  024da	50		 push	 eax
  024db	e8 00 00 00 00	 call	 _SendReplyToHost
  024e0	83 c4 04	 add	 esp, 4

; 1440 : 	   }
; 1441 : 	   else

  024e3	eb 22		 jmp	 SHORT $LN19@ProcessCom
$LN20@ProcessCom:

; 1442 : 		   sprintf(strFault, "Not from state %s", ARDOPStates[ProtocolState]);

  024e5	a1 00 00 00 00	 mov	 eax, DWORD PTR _ProtocolState
  024ea	6b c0 09	 imul	 eax, 9
  024ed	05 00 00 00 00	 add	 eax, OFFSET _ARDOPStates
  024f2	50		 push	 eax
  024f3	68 00 00 00 00	 push	 OFFSET ??_C@_0BC@LKOPEAIH@Not?5from?5state?5?$CFs?$AA@
  024f8	8d 8d 30 ff ff
	ff		 lea	 ecx, DWORD PTR _strFault$[ebp]
  024fe	51		 push	 ecx
  024ff	e8 00 00 00 00	 call	 _sprintf
  02504	83 c4 0c	 add	 esp, 12			; 0000000cH
$LN19@ProcessCom:

; 1443 :        
; 1444 : 		   goto cmddone;

  02507	e9 77 02 00 00	 jmp	 $cmddone$5511
$LN21@ProcessCom:

; 1445 : 
; 1446 : 	}
; 1447 : 
; 1448 : 
; 1449 : 
; 1450 : 	if (strcmp(strCMD, "TUNINGRANGE") == 0)

  0250c	68 00 00 00 00	 push	 OFFSET ??_C@_0M@FKICOHOM@TUNINGRANGE?$AA@
  02511	8b 45 08	 mov	 eax, DWORD PTR _strCMD$[ebp]
  02514	50		 push	 eax
  02515	e8 00 00 00 00	 call	 _strcmp
  0251a	83 c4 08	 add	 esp, 8
  0251d	85 c0		 test	 eax, eax
  0251f	0f 85 bc 00 00
	00		 jne	 $LN18@ProcessCom

; 1451 : 	{
; 1452 : 		int i;
; 1453 : 
; 1454 : 		if (ptrParams == 0)

  02525	83 7d f4 00	 cmp	 DWORD PTR _ptrParams$[ebp], 0
  02529	75 34		 jne	 SHORT $LN17@ProcessCom

; 1455 : 		{
; 1456 : 			sprintf(cmdReply, "%s %d", strCMD, TuningRange);

  0252b	a1 00 00 00 00	 mov	 eax, DWORD PTR _TuningRange
  02530	50		 push	 eax
  02531	8b 4d 08	 mov	 ecx, DWORD PTR _strCMD$[ebp]
  02534	51		 push	 ecx
  02535	68 00 00 00 00	 push	 OFFSET ??_C@_05DIALNFFA@?$CFs?5?$CFd?$AA@
  0253a	8d 95 28 fb ff
	ff		 lea	 edx, DWORD PTR _cmdReply$[ebp]
  02540	52		 push	 edx
  02541	e8 00 00 00 00	 call	 _sprintf
  02546	83 c4 10	 add	 esp, 16			; 00000010H

; 1457 : 			SendReplyToHost(cmdReply);

  02549	8d 85 28 fb ff
	ff		 lea	 eax, DWORD PTR _cmdReply$[ebp]
  0254f	50		 push	 eax
  02550	e8 00 00 00 00	 call	 _SendReplyToHost
  02555	83 c4 04	 add	 esp, 4

; 1458 : 			goto cmddone;

  02558	e9 26 02 00 00	 jmp	 $cmddone$5511

; 1459 : 		}
; 1460 : 		else

  0255d	eb 7d		 jmp	 SHORT $LN16@ProcessCom
$LN17@ProcessCom:

; 1461 : 		{
; 1462 : 			i = atoi(ptrParams);

  0255f	8b 45 f4	 mov	 eax, DWORD PTR _ptrParams$[ebp]
  02562	50		 push	 eax
  02563	e8 00 00 00 00	 call	 _atoi
  02568	83 c4 04	 add	 esp, 4
  0256b	89 85 50 fa ff
	ff		 mov	 DWORD PTR _i$5958[ebp], eax

; 1463 : 
; 1464 : 			if (i >= 0 && i <= 200)	

  02571	83 bd 50 fa ff
	ff 00		 cmp	 DWORD PTR _i$5958[ebp], 0
  02578	7c 46		 jl	 SHORT $LN15@ProcessCom
  0257a	81 bd 50 fa ff
	ff c8 00 00 00	 cmp	 DWORD PTR _i$5958[ebp], 200 ; 000000c8H
  02584	7f 3a		 jg	 SHORT $LN15@ProcessCom

; 1465 : 			{
; 1466 : 				TuningRange = i;

  02586	8b 85 50 fa ff
	ff		 mov	 eax, DWORD PTR _i$5958[ebp]
  0258c	a3 00 00 00 00	 mov	 DWORD PTR _TuningRange, eax

; 1467 : 				sprintf(cmdReply, "%s now %d", strCMD, TuningRange);

  02591	a1 00 00 00 00	 mov	 eax, DWORD PTR _TuningRange
  02596	50		 push	 eax
  02597	8b 4d 08	 mov	 ecx, DWORD PTR _strCMD$[ebp]
  0259a	51		 push	 ecx
  0259b	68 00 00 00 00	 push	 OFFSET ??_C@_09HDKFPBCF@?$CFs?5now?5?$CFd?$AA@
  025a0	8d 95 28 fb ff
	ff		 lea	 edx, DWORD PTR _cmdReply$[ebp]
  025a6	52		 push	 edx
  025a7	e8 00 00 00 00	 call	 _sprintf
  025ac	83 c4 10	 add	 esp, 16			; 00000010H

; 1468 : 				SendReplyToHost(cmdReply);

  025af	8d 85 28 fb ff
	ff		 lea	 eax, DWORD PTR _cmdReply$[ebp]
  025b5	50		 push	 eax
  025b6	e8 00 00 00 00	 call	 _SendReplyToHost
  025bb	83 c4 04	 add	 esp, 4

; 1469 : 			}
; 1470 : 			else

  025be	eb 1c		 jmp	 SHORT $LN16@ProcessCom
$LN15@ProcessCom:

; 1471 : 				sprintf(strFault, "Syntax Err: %s %s", strCMD, ptrParams);	

  025c0	8b 45 f4	 mov	 eax, DWORD PTR _ptrParams$[ebp]
  025c3	50		 push	 eax
  025c4	8b 4d 08	 mov	 ecx, DWORD PTR _strCMD$[ebp]
  025c7	51		 push	 ecx
  025c8	68 00 00 00 00	 push	 OFFSET ??_C@_0BC@LMEKCHED@Syntax?5Err?3?5?$CFs?5?$CFs?$AA@
  025cd	8d 95 30 ff ff
	ff		 lea	 edx, DWORD PTR _strFault$[ebp]
  025d3	52		 push	 edx
  025d4	e8 00 00 00 00	 call	 _sprintf
  025d9	83 c4 10	 add	 esp, 16			; 00000010H
$LN16@ProcessCom:

; 1472 : 		}
; 1473 : 		goto cmddone;

  025dc	e9 a2 01 00 00	 jmp	 $cmddone$5511
$LN18@ProcessCom:

; 1474 : 	}
; 1475 : 
; 1476 : 	if (strcmp(strCMD, "TXLEVEL") == 0)

  025e1	68 00 00 00 00	 push	 OFFSET ??_C@_07HHPJHIAI@TXLEVEL?$AA@
  025e6	8b 45 08	 mov	 eax, DWORD PTR _strCMD$[ebp]
  025e9	50		 push	 eax
  025ea	e8 00 00 00 00	 call	 _strcmp
  025ef	83 c4 08	 add	 esp, 8
  025f2	85 c0		 test	 eax, eax
  025f4	75 28		 jne	 SHORT $LN13@ProcessCom

; 1477 : 	{
; 1478 : #ifndef HASPOTS
; 1479 : 		sprintf(cmdReply, "TXLEVEL command not available on this platform");

  025f6	68 00 00 00 00	 push	 OFFSET ??_C@_0CP@MKMIBGHE@TXLEVEL?5command?5not?5available?5on@
  025fb	8d 85 28 fb ff
	ff		 lea	 eax, DWORD PTR _cmdReply$[ebp]
  02601	50		 push	 eax
  02602	e8 00 00 00 00	 call	 _sprintf
  02607	83 c4 08	 add	 esp, 8

; 1480 : 		SendReplyToHost(cmdReply);

  0260a	8d 85 28 fb ff
	ff		 lea	 eax, DWORD PTR _cmdReply$[ebp]
  02610	50		 push	 eax
  02611	e8 00 00 00 00	 call	 _SendReplyToHost
  02616	83 c4 04	 add	 esp, 4

; 1481 : 		goto cmddone;

  02619	e9 65 01 00 00	 jmp	 $cmddone$5511
$LN13@ProcessCom:

; 1482 : #else
; 1483 : 		int i;
; 1484 : 
; 1485 : 		if (ptrParams == 0)
; 1486 : 		{
; 1487 : 			sprintf(cmdReply, "%s %d", strCMD, TXLevel);
; 1488 : 			SendReplyToHost(cmdReply);
; 1489 : 			goto cmddone;
; 1490 : 		}
; 1491 : 		else
; 1492 : 		{
; 1493 : 			i = atoi(ptrParams);
; 1494 : 
; 1495 : 			if (i >= 0 && i <= 3000)	
; 1496 : 			{
; 1497 : 				int Pot;
; 1498 : 				TXLevel = i;
; 1499 : 				sprintf(cmdReply, "%s now %d", strCMD, i);
; 1500 : 				AdjustTXLevel(TXLevel);
; 1501 : 				SendReplyToHost(cmdReply);			}
; 1502 : 			else
; 1503 : 				sprintf(strFault, "Syntax Err: %s %s", strCMD, ptrParams);	
; 1504 : 		}
; 1505 : 		goto cmddone;
; 1506 : #endif
; 1507 : 	}
; 1508 : 
; 1509 : 
; 1510 : 	if (strcmp(strCMD, "USE600MODES") == 0)

  0261e	68 00 00 00 00	 push	 OFFSET ??_C@_0M@FDGMHEMG@USE600MODES?$AA@
  02623	8b 45 08	 mov	 eax, DWORD PTR _strCMD$[ebp]
  02626	50		 push	 eax
  02627	e8 00 00 00 00	 call	 _strcmp
  0262c	83 c4 08	 add	 esp, 8
  0262f	85 c0		 test	 eax, eax
  02631	0f 85 f4 00 00
	00		 jne	 $LN12@ProcessCom

; 1511 : 	{
; 1512 : 		if (ptrParams == NULL)

  02637	83 7d f4 00	 cmp	 DWORD PTR _ptrParams$[ebp], 0
  0263b	75 47		 jne	 SHORT $LN11@ProcessCom

; 1513 : 		{
; 1514 : 			if (Use600Modes)

  0263d	83 3d 00 00 00
	00 00		 cmp	 DWORD PTR _Use600Modes, 0
  02644	74 16		 je	 SHORT $LN10@ProcessCom

; 1515 : 				sprintf(cmdReply, "USE600MODES TRUE");

  02646	68 00 00 00 00	 push	 OFFSET ??_C@_0BB@BOBBOKGM@USE600MODES?5TRUE?$AA@
  0264b	8d 85 28 fb ff
	ff		 lea	 eax, DWORD PTR _cmdReply$[ebp]
  02651	50		 push	 eax
  02652	e8 00 00 00 00	 call	 _sprintf
  02657	83 c4 08	 add	 esp, 8

; 1516 : 			else

  0265a	eb 14		 jmp	 SHORT $LN9@ProcessCom
$LN10@ProcessCom:

; 1517 : 				sprintf(cmdReply, "USE600MODES FALSE");

  0265c	68 00 00 00 00	 push	 OFFSET ??_C@_0BC@JFPAAOMM@USE600MODES?5FALSE?$AA@
  02661	8d 85 28 fb ff
	ff		 lea	 eax, DWORD PTR _cmdReply$[ebp]
  02667	50		 push	 eax
  02668	e8 00 00 00 00	 call	 _sprintf
  0266d	83 c4 08	 add	 esp, 8
$LN9@ProcessCom:

; 1518 : 
; 1519 : 			SendReplyToHost(cmdReply);

  02670	8d 85 28 fb ff
	ff		 lea	 eax, DWORD PTR _cmdReply$[ebp]
  02676	50		 push	 eax
  02677	e8 00 00 00 00	 call	 _SendReplyToHost
  0267c	83 c4 04	 add	 esp, 4

; 1520 : 			goto cmddone;

  0267f	e9 ff 00 00 00	 jmp	 $cmddone$5511
$LN11@ProcessCom:

; 1521 : 		}
; 1522 : 		
; 1523 : 		if (strcmp(ptrParams, "TRUE") == 0)

  02684	68 00 00 00 00	 push	 OFFSET ??_C@_04HCDDPBNL@TRUE?$AA@
  02689	8b 45 f4	 mov	 eax, DWORD PTR _ptrParams$[ebp]
  0268c	50		 push	 eax
  0268d	e8 00 00 00 00	 call	 _strcmp
  02692	83 c4 08	 add	 esp, 8
  02695	85 c0		 test	 eax, eax
  02697	75 0c		 jne	 SHORT $LN8@ProcessCom

; 1524 : 			Use600Modes = TRUE;

  02699	c7 05 00 00 00
	00 01 00 00 00	 mov	 DWORD PTR _Use600Modes, 1

; 1525 : 		else 

  026a3	eb 42		 jmp	 SHORT $LN7@ProcessCom
$LN8@ProcessCom:

; 1526 : 		if (strcmp(ptrParams, "FALSE") == 0)

  026a5	68 00 00 00 00	 push	 OFFSET ??_C@_05MAJJAKPI@FALSE?$AA@
  026aa	8b 45 f4	 mov	 eax, DWORD PTR _ptrParams$[ebp]
  026ad	50		 push	 eax
  026ae	e8 00 00 00 00	 call	 _strcmp
  026b3	83 c4 08	 add	 esp, 8
  026b6	85 c0		 test	 eax, eax
  026b8	75 0c		 jne	 SHORT $LN6@ProcessCom

; 1527 : 			Use600Modes = FALSE;

  026ba	c7 05 00 00 00
	00 00 00 00 00	 mov	 DWORD PTR _Use600Modes, 0

; 1528 : 		else

  026c4	eb 21		 jmp	 SHORT $LN7@ProcessCom
$LN6@ProcessCom:

; 1529 : 		{
; 1530 : 			sprintf(strFault, "Syntax Err: %s %s", strCMD, ptrParams);

  026c6	8b 45 f4	 mov	 eax, DWORD PTR _ptrParams$[ebp]
  026c9	50		 push	 eax
  026ca	8b 4d 08	 mov	 ecx, DWORD PTR _strCMD$[ebp]
  026cd	51		 push	 ecx
  026ce	68 00 00 00 00	 push	 OFFSET ??_C@_0BC@LMEKCHED@Syntax?5Err?3?5?$CFs?5?$CFs?$AA@
  026d3	8d 95 30 ff ff
	ff		 lea	 edx, DWORD PTR _strFault$[ebp]
  026d9	52		 push	 edx
  026da	e8 00 00 00 00	 call	 _sprintf
  026df	83 c4 10	 add	 esp, 16			; 00000010H

; 1531 : 			goto cmddone;

  026e2	e9 9c 00 00 00	 jmp	 $cmddone$5511
$LN7@ProcessCom:

; 1532 : 		}
; 1533 : 		if (Use600Modes)

  026e7	83 3d 00 00 00
	00 00		 cmp	 DWORD PTR _Use600Modes, 0
  026ee	74 16		 je	 SHORT $LN4@ProcessCom

; 1534 : 			sprintf(cmdReply, "USE600MODES now TRUE");

  026f0	68 00 00 00 00	 push	 OFFSET ??_C@_0BF@JCHBEADL@USE600MODES?5now?5TRUE?$AA@
  026f5	8d 85 28 fb ff
	ff		 lea	 eax, DWORD PTR _cmdReply$[ebp]
  026fb	50		 push	 eax
  026fc	e8 00 00 00 00	 call	 _sprintf
  02701	83 c4 08	 add	 esp, 8

; 1535 : 		else

  02704	eb 14		 jmp	 SHORT $LN3@ProcessCom
$LN4@ProcessCom:

; 1536 : 			sprintf(cmdReply, "USE600MODES now FALSE");

  02706	68 00 00 00 00	 push	 OFFSET ??_C@_0BG@GAHDKKDB@USE600MODES?5now?5FALSE?$AA@
  0270b	8d 85 28 fb ff
	ff		 lea	 eax, DWORD PTR _cmdReply$[ebp]
  02711	50		 push	 eax
  02712	e8 00 00 00 00	 call	 _sprintf
  02717	83 c4 08	 add	 esp, 8
$LN3@ProcessCom:

; 1537 : 
; 1538 : 		SendReplyToHost(cmdReply);

  0271a	8d 85 28 fb ff
	ff		 lea	 eax, DWORD PTR _cmdReply$[ebp]
  02720	50		 push	 eax
  02721	e8 00 00 00 00	 call	 _SendReplyToHost
  02726	83 c4 04	 add	 esp, 4

; 1539 : 		goto cmddone;

  02729	eb 58		 jmp	 SHORT $cmddone$5511
$LN12@ProcessCom:

; 1540 : 	}
; 1541 : 
; 1542 : 
; 1543 : 	if (strcmp(strCMD, "VERSION") == 0)

  0272b	68 00 00 00 00	 push	 OFFSET ??_C@_07NCHCCDCP@VERSION?$AA@
  02730	8b 45 08	 mov	 eax, DWORD PTR _strCMD$[ebp]
  02733	50		 push	 eax
  02734	e8 00 00 00 00	 call	 _strcmp
  02739	83 c4 08	 add	 esp, 8
  0273c	85 c0		 test	 eax, eax
  0273e	75 2f		 jne	 SHORT $LN2@ProcessCom

; 1544 : 	{
; 1545 : 		sprintf(cmdReply, "VERSION %s_%s", ProductName, ProductVersion);

  02740	68 00 00 00 00	 push	 OFFSET ??_C@_0M@NIMIDGCH@0?49?40?44?9BPQ?$AA@
  02745	68 00 00 00 00	 push	 OFFSET ??_C@_09GENFIGK@ARDOP?5TNC?$AA@
  0274a	68 00 00 00 00	 push	 OFFSET ??_C@_0O@LAPEONLC@VERSION?5?$CFs_?$CFs?$AA@
  0274f	8d 85 28 fb ff
	ff		 lea	 eax, DWORD PTR _cmdReply$[ebp]
  02755	50		 push	 eax
  02756	e8 00 00 00 00	 call	 _sprintf
  0275b	83 c4 10	 add	 esp, 16			; 00000010H

; 1546 : 		SendReplyToHost(cmdReply);

  0275e	8d 85 28 fb ff
	ff		 lea	 eax, DWORD PTR _cmdReply$[ebp]
  02764	50		 push	 eax
  02765	e8 00 00 00 00	 call	 _SendReplyToHost
  0276a	83 c4 04	 add	 esp, 4

; 1547 : 		goto cmddone;

  0276d	eb 14		 jmp	 SHORT $cmddone$5511
$LN2@ProcessCom:

; 1548 : 	} 
; 1549 : 	// RDY processed earlier Case "RDY" ' no response required for RDY
; 1550 : 
; 1551 : 	sprintf(strFault, "CMD not recoginized");

  0276f	68 00 00 00 00	 push	 OFFSET ??_C@_0BE@LJDNACNJ@CMD?5not?5recoginized?$AA@
  02774	8d 85 30 ff ff
	ff		 lea	 eax, DWORD PTR _strFault$[ebp]
  0277a	50		 push	 eax
  0277b	e8 00 00 00 00	 call	 _sprintf
  02780	83 c4 08	 add	 esp, 8
$cmddone$5511:

; 1552 : 
; 1553 : cmddone:
; 1554 : 
; 1555 : 	if (strFault[0])

  02783	0f be 85 30 ff
	ff ff		 movsx	 eax, BYTE PTR _strFault$[ebp]
  0278a	85 c0		 test	 eax, eax
  0278c	74 2a		 je	 SHORT $LN295@ProcessCom

; 1556 : 	{
; 1557 : 		//Logs.Exception("[ProcessCommandFromHost] Cmd Rcvd=" & strCommand & "   Fault=" & strFault)
; 1558 : 		sprintf(cmdReply, "FAULT %s", strFault);

  0278e	8d 85 30 ff ff
	ff		 lea	 eax, DWORD PTR _strFault$[ebp]
  02794	50		 push	 eax
  02795	68 00 00 00 00	 push	 OFFSET ??_C@_08PALDHKD@FAULT?5?$CFs?$AA@
  0279a	8d 8d 28 fb ff
	ff		 lea	 ecx, DWORD PTR _cmdReply$[ebp]
  027a0	51		 push	 ecx
  027a1	e8 00 00 00 00	 call	 _sprintf
  027a6	83 c4 0c	 add	 esp, 12			; 0000000cH

; 1559 : 		SendReplyToHost(cmdReply);

  027a9	8d 85 28 fb ff
	ff		 lea	 eax, DWORD PTR _cmdReply$[ebp]
  027af	50		 push	 eax
  027b0	e8 00 00 00 00	 call	 _SendReplyToHost
  027b5	83 c4 04	 add	 esp, 4
$LN295@ProcessCom:

; 1560 : 	}
; 1561 : //	SendCommandToHost("RDY");		// signals host a new command may be sent
; 1562 : }

  027b8	52		 push	 edx
  027b9	8b cd		 mov	 ecx, ebp
  027bb	50		 push	 eax
  027bc	8d 15 00 00 00
	00		 lea	 edx, DWORD PTR $LN302@ProcessCom
  027c2	e8 00 00 00 00	 call	 @_RTC_CheckStackVars@8
  027c7	58		 pop	 eax
  027c8	5a		 pop	 edx
  027c9	5f		 pop	 edi
  027ca	5e		 pop	 esi
  027cb	5b		 pop	 ebx
  027cc	8b 4d fc	 mov	 ecx, DWORD PTR __$ArrayPad$[ebp]
  027cf	33 cd		 xor	 ecx, ebp
  027d1	e8 00 00 00 00	 call	 @__security_check_cookie@4
  027d6	81 c4 78 06 00
	00		 add	 esp, 1656		; 00000678H
  027dc	3b ec		 cmp	 ebp, esp
  027de	e8 00 00 00 00	 call	 __RTC_CheckEsp
  027e3	8b e5		 mov	 esp, ebp
  027e5	5d		 pop	 ebp
  027e6	c3		 ret	 0
  027e7	90		 npad	 1
$LN302@ProcessCom:
  027e8	04 00 00 00	 DD	 4
  027ec	00 00 00 00	 DD	 $LN301@ProcessCom
$LN301@ProcessCom:
  027f0	9c ff ff ff	 DD	 -100			; ffffff9cH
  027f4	50 00 00 00	 DD	 80			; 00000050H
  027f8	00 00 00 00	 DD	 $LN297@ProcessCom
  027fc	30 ff ff ff	 DD	 -208			; ffffff30H
  02800	64 00 00 00	 DD	 100			; 00000064H
  02804	00 00 00 00	 DD	 $LN298@ProcessCom
  02808	28 fb ff ff	 DD	 -1240			; fffffb28H
  0280c	00 04 00 00	 DD	 1024			; 00000400H
  02810	00 00 00 00	 DD	 $LN299@ProcessCom
  02814	74 fa ff ff	 DD	 -1420			; fffffa74H
  02818	04 00 00 00	 DD	 4
  0281c	00 00 00 00	 DD	 $LN300@ProcessCom
$LN300@ProcessCom:
  02820	63		 DB	 99			; 00000063H
  02821	6f		 DB	 111			; 0000006fH
  02822	6e		 DB	 110			; 0000006eH
  02823	74		 DB	 116			; 00000074H
  02824	65		 DB	 101			; 00000065H
  02825	78		 DB	 120			; 00000078H
  02826	74		 DB	 116			; 00000074H
  02827	00		 DB	 0
$LN299@ProcessCom:
  02828	63		 DB	 99			; 00000063H
  02829	6d		 DB	 109			; 0000006dH
  0282a	64		 DB	 100			; 00000064H
  0282b	52		 DB	 82			; 00000052H
  0282c	65		 DB	 101			; 00000065H
  0282d	70		 DB	 112			; 00000070H
  0282e	6c		 DB	 108			; 0000006cH
  0282f	79		 DB	 121			; 00000079H
  02830	00		 DB	 0
$LN298@ProcessCom:
  02831	73		 DB	 115			; 00000073H
  02832	74		 DB	 116			; 00000074H
  02833	72		 DB	 114			; 00000072H
  02834	46		 DB	 70			; 00000046H
  02835	61		 DB	 97			; 00000061H
  02836	75		 DB	 117			; 00000075H
  02837	6c		 DB	 108			; 0000006cH
  02838	74		 DB	 116			; 00000074H
  02839	00		 DB	 0
$LN297@ProcessCom:
  0283a	63		 DB	 99			; 00000063H
  0283b	6d		 DB	 109			; 0000006dH
  0283c	64		 DB	 100			; 00000064H
  0283d	43		 DB	 67			; 00000043H
  0283e	6f		 DB	 111			; 0000006fH
  0283f	70		 DB	 112			; 00000070H
  02840	79		 DB	 121			; 00000079H
  02841	00		 DB	 0
_ProcessCommandFromHost ENDP
_TEXT	ENDS
END
