; Listing generated by Microsoft (R) Optimizing Compiler Version 14.00.50727.42 

	TITLE	c:\SkyDrive\Dev\Source\ARDOPC\Modulate.c
	.686P
	.XMM
	include listing.inc
	.model	flat

INCLUDELIB LIBCMTD
INCLUDELIB OLDNAMES

PUBLIC	_dblZin
PUBLIC	_dblZin_1
PUBLIC	_dblZin_2
PUBLIC	_dblZComb
PUBLIC	_dblZout_0
PUBLIC	_dblZout_1
PUBLIC	_dblZout_2
PUBLIC	_outCount
PUBLIC	_largest
PUBLIC	_smallest
PUBLIC	_Last120Get
PUBLIC	_Last120Put
PUBLIC	_Number
_DATA	SEGMENT
COMM	_first:DWORD
COMM	_Last120:WORD:080H
COMM	_fp1:DWORD
COMM	_SampleNo:DWORD
COMM	_last:DWORD
COMM	_DMABuffer:DWORD
COMM	_fWidth:DWORD
_DATA	ENDS
_BSS	SEGMENT
_dblCoef DD	01aH DUP (?)
_dblZin	DD	01H DUP (?)
_dblZin_1 DD	01H DUP (?)
_dblZin_2 DD	01H DUP (?)
_dblZComb DD	01H DUP (?)
_dblZout_0 DD	01aH DUP (?)
_dblZout_1 DD	01aH DUP (?)
_dblZout_2 DD	01aH DUP (?)
_outCount DD	01H DUP (?)
_largest DD	01H DUP (?)
_smallest DD	01H DUP (?)
_Last120Get DD	01H DUP (?)
_Number	DD	01H DUP (?)
_BSS	ENDS
_DATA	SEGMENT
_dblR	DD	03f7fdf3br			; 0.9995
_intN	DD	078H
_Last120Put DD	078H
_DATA	ENDS
PUBLIC	_SampleSink
PUBLIC	_GetTwoToneLeaderWithSync
EXTRN	_int50BaudTwoToneLeaderTemplate:BYTE
EXTRN	__RTC_CheckEsp:PROC
EXTRN	__RTC_Shutdown:PROC
EXTRN	__RTC_InitBase:PROC
;	COMDAT rtc$TMZ
; File c:\skydrive\dev\source\ardopc\modulate.c
rtc$TMZ	SEGMENT
__RTC_Shutdown.rtc$TMZ DD FLAT:__RTC_Shutdown
rtc$TMZ	ENDS
;	COMDAT rtc$IMZ
rtc$IMZ	SEGMENT
__RTC_InitBase.rtc$IMZ DD FLAT:__RTC_InitBase
; Function compile flags: /Odtp /RTCsu /ZI
rtc$IMZ	ENDS
;	COMDAT _GetTwoToneLeaderWithSync
_TEXT	SEGMENT
_intSample$ = -44					; size = 2
_j$ = -32						; size = 4
_i$ = -20						; size = 4
_intSign$ = -8						; size = 4
_intSymLen$ = 8						; size = 4
_GetTwoToneLeaderWithSync PROC				; COMDAT

; 18   : {

  00000	55		 push	 ebp
  00001	8b ec		 mov	 ebp, esp
  00003	81 ec f0 00 00
	00		 sub	 esp, 240		; 000000f0H
  00009	53		 push	 ebx
  0000a	56		 push	 esi
  0000b	57		 push	 edi
  0000c	8d bd 10 ff ff
	ff		 lea	 edi, DWORD PTR [ebp-240]
  00012	b9 3c 00 00 00	 mov	 ecx, 60			; 0000003cH
  00017	b8 cc cc cc cc	 mov	 eax, -858993460		; ccccccccH
  0001c	f3 ab		 rep stosd

; 19   : 	// Generate a 50 baud (20 ms symbol time) 2 tone leader 
; 20   :     // leader tones used are 1475 and 1525 Hz.  
; 21   :   
; 22   : 	int intSign = 1;

  0001e	c7 45 f8 01 00
	00 00		 mov	 DWORD PTR _intSign$[ebp], 1

; 23   : 	int i, j;
; 24   : 	short intSample;
; 25   : 
; 26   :     if ((intSymLen & 1) == 1) 

  00025	8b 45 08	 mov	 eax, DWORD PTR _intSymLen$[ebp]
  00028	83 e0 01	 and	 eax, 1
  0002b	74 07		 je	 SHORT $LN9@GetTwoTone

; 27   : 		intSign = -1;

  0002d	c7 45 f8 ff ff
	ff ff		 mov	 DWORD PTR _intSign$[ebp], -1
$LN9@GetTwoTone:

; 28   : 
; 29   : 	for (i = 0; i < intSymLen; i++)   //for the number of symbols needed (two symbols less than total leader length) 

  00034	c7 45 ec 00 00
	00 00		 mov	 DWORD PTR _i$[ebp], 0
  0003b	eb 09		 jmp	 SHORT $LN8@GetTwoTone
$LN7@GetTwoTone:
  0003d	8b 45 ec	 mov	 eax, DWORD PTR _i$[ebp]
  00040	83 c0 01	 add	 eax, 1
  00043	89 45 ec	 mov	 DWORD PTR _i$[ebp], eax
$LN8@GetTwoTone:
  00046	8b 45 ec	 mov	 eax, DWORD PTR _i$[ebp]
  00049	3b 45 08	 cmp	 eax, DWORD PTR _intSymLen$[ebp]
  0004c	7d 6b		 jge	 SHORT $LN10@GetTwoTone

; 30   : 	{
; 31   : 		for (j = 0; j < 240; j++)	// for 240 samples per symbol (50 baud) 

  0004e	c7 45 e0 00 00
	00 00		 mov	 DWORD PTR _j$[ebp], 0
  00055	eb 09		 jmp	 SHORT $LN5@GetTwoTone
$LN4@GetTwoTone:
  00057	8b 45 e0	 mov	 eax, DWORD PTR _j$[ebp]
  0005a	83 c0 01	 add	 eax, 1
  0005d	89 45 e0	 mov	 DWORD PTR _j$[ebp], eax
$LN5@GetTwoTone:
  00060	81 7d e0 f0 00
	00 00		 cmp	 DWORD PTR _j$[ebp], 240	; 000000f0H
  00067	7d 46		 jge	 SHORT $LN3@GetTwoTone

; 32   : 		{
; 33   :            if (i != (intSymLen - 1)) 

  00069	8b 45 08	 mov	 eax, DWORD PTR _intSymLen$[ebp]
  0006c	83 e8 01	 sub	 eax, 1
  0006f	39 45 ec	 cmp	 DWORD PTR _i$[ebp], eax
  00072	74 15		 je	 SHORT $LN2@GetTwoTone

; 34   : 			   intSample = intSign * int50BaudTwoToneLeaderTemplate[j];

  00074	8b 45 e0	 mov	 eax, DWORD PTR _j$[ebp]
  00077	0f bf 0c 45 00
	00 00 00	 movsx	 ecx, WORD PTR _int50BaudTwoToneLeaderTemplate[eax*2]
  0007f	0f af 4d f8	 imul	 ecx, DWORD PTR _intSign$[ebp]
  00083	66 89 4d d4	 mov	 WORD PTR _intSample$[ebp], cx

; 35   : 		   else

  00087	eb 17		 jmp	 SHORT $LN1@GetTwoTone
$LN2@GetTwoTone:

; 36   : 			   intSample = -intSign * int50BaudTwoToneLeaderTemplate[j];

  00089	8b 45 f8	 mov	 eax, DWORD PTR _intSign$[ebp]
  0008c	f7 d8		 neg	 eax
  0008e	8b 4d e0	 mov	 ecx, DWORD PTR _j$[ebp]
  00091	0f bf 14 4d 00
	00 00 00	 movsx	 edx, WORD PTR _int50BaudTwoToneLeaderTemplate[ecx*2]
  00099	0f af c2	 imul	 eax, edx
  0009c	66 89 45 d4	 mov	 WORD PTR _intSample$[ebp], ax
$LN1@GetTwoTone:

; 37   :    
; 38   : 		   SampleSink(intSample);

  000a0	66 8b 45 d4	 mov	 ax, WORD PTR _intSample$[ebp]
  000a4	50		 push	 eax
  000a5	e8 00 00 00 00	 call	 _SampleSink
  000aa	83 c4 04	 add	 esp, 4

; 39   : 		}

  000ad	eb a8		 jmp	 SHORT $LN4@GetTwoTone
$LN3@GetTwoTone:

; 40   : 		intSign = -intSign;

  000af	8b 45 f8	 mov	 eax, DWORD PTR _intSign$[ebp]
  000b2	f7 d8		 neg	 eax
  000b4	89 45 f8	 mov	 DWORD PTR _intSign$[ebp], eax

; 41   : 	}

  000b7	eb 84		 jmp	 SHORT $LN7@GetTwoTone
$LN10@GetTwoTone:

; 42   : }

  000b9	5f		 pop	 edi
  000ba	5e		 pop	 esi
  000bb	5b		 pop	 ebx
  000bc	81 c4 f0 00 00
	00		 add	 esp, 240		; 000000f0H
  000c2	3b ec		 cmp	 ebp, esp
  000c4	e8 00 00 00 00	 call	 __RTC_CheckEsp
  000c9	8b e5		 mov	 esp, ebp
  000cb	5d		 pop	 ebp
  000cc	c3		 ret	 0
_GetTwoToneLeaderWithSync ENDP
_TEXT	ENDS
PUBLIC	_SendLeaderAndSYNC
EXTRN	_intFSK50bdCarTemplate:BYTE
EXTRN	_ComputeTypeParity:PROC
EXTRN	_LeaderLength:DWORD
; Function compile flags: /Odtp /RTCsu /ZI
;	COMDAT _SendLeaderAndSYNC
_TEXT	SEGMENT
_intSample$ = -92					; size = 2
_bytSymToSend$ = -77					; size = 1
_bytMask$ = -65						; size = 1
_n$ = -56						; size = 4
_k$ = -44						; size = 4
_j$ = -32						; size = 4
_intLeaderLenMS$ = -20					; size = 4
_intMask$ = -8						; size = 4
_bytEncodedBytes$ = 8					; size = 4
_intLeaderLen$ = 12					; size = 4
_SendLeaderAndSYNC PROC					; COMDAT

; 45   : {

  00000	55		 push	 ebp
  00001	8b ec		 mov	 ebp, esp
  00003	81 ec 20 01 00
	00		 sub	 esp, 288		; 00000120H
  00009	53		 push	 ebx
  0000a	56		 push	 esi
  0000b	57		 push	 edi
  0000c	8d bd e0 fe ff
	ff		 lea	 edi, DWORD PTR [ebp-288]
  00012	b9 48 00 00 00	 mov	 ecx, 72			; 00000048H
  00017	b8 cc cc cc cc	 mov	 eax, -858993460		; ccccccccH
  0001c	f3 ab		 rep stosd

; 46   : 	int intMask = 0;

  0001e	c7 45 f8 00 00
	00 00		 mov	 DWORD PTR _intMask$[ebp], 0

; 47   : 	int intLeaderLenMS;
; 48   : 	int j, k, n;
; 49   : 	UCHAR bytMask;
; 50   : 	UCHAR bytSymToSend;
; 51   : 	short intSample;
; 52   : 	if (intLeaderLen == 0)

  00025	83 7d 0c 00	 cmp	 DWORD PTR _intLeaderLen$[ebp], 0
  00029	75 0a		 jne	 SHORT $LN15@SendLeader

; 53   : 		intLeaderLenMS = LeaderLength;

  0002b	a1 00 00 00 00	 mov	 eax, DWORD PTR _LeaderLength
  00030	89 45 ec	 mov	 DWORD PTR _intLeaderLenMS$[ebp], eax

; 54   : 	else

  00033	eb 06		 jmp	 SHORT $LN14@SendLeader
$LN15@SendLeader:

; 55   : 		intLeaderLenMS = intLeaderLen;

  00035	8b 45 0c	 mov	 eax, DWORD PTR _intLeaderLen$[ebp]
  00038	89 45 ec	 mov	 DWORD PTR _intLeaderLenMS$[ebp], eax
$LN14@SendLeader:

; 56   : 
; 57   :  	// Create the leader
; 58   : 
; 59   : 	GetTwoToneLeaderWithSync(intLeaderLenMS / 20);

  0003b	8b 45 ec	 mov	 eax, DWORD PTR _intLeaderLenMS$[ebp]
  0003e	99		 cdq
  0003f	b9 14 00 00 00	 mov	 ecx, 20			; 00000014H
  00044	f7 f9		 idiv	 ecx
  00046	50		 push	 eax
  00047	e8 00 00 00 00	 call	 _GetTwoToneLeaderWithSync
  0004c	83 c4 04	 add	 esp, 4

; 60   : 		       
; 61   : 	//Create the 8 symbols (16 bit) 50 baud 4FSK frame type with Implied SessionID
; 62   : 	// No reference needed for 4FSK
; 63   : 
; 64   : 	// note revised To accomodate 1 parity symbol per byte (10 symbols total)
; 65   : 
; 66   : 	for(j = 0; j < 2; j++)		 // for the 2 bytes of the frame type

  0004f	c7 45 e0 00 00
	00 00		 mov	 DWORD PTR _j$[ebp], 0
  00056	eb 09		 jmp	 SHORT $LN13@SendLeader
$LN12@SendLeader:
  00058	8b 45 e0	 mov	 eax, DWORD PTR _j$[ebp]
  0005b	83 c0 01	 add	 eax, 1
  0005e	89 45 e0	 mov	 DWORD PTR _j$[ebp], eax
$LN13@SendLeader:
  00061	83 7d e0 02	 cmp	 DWORD PTR _j$[ebp], 2
  00065	0f 8d d9 00 00
	00		 jge	 $LN16@SendLeader

; 67   : 	{              
; 68   : 		bytMask = 0xc0;

  0006b	c6 45 bf c0	 mov	 BYTE PTR _bytMask$[ebp], 192 ; 000000c0H

; 69   : 		
; 70   : 		for(k = 0; k < 5; k++)	 // for 5 symbols per byte (4 data + 1 parity)

  0006f	c7 45 d4 00 00
	00 00		 mov	 DWORD PTR _k$[ebp], 0
  00076	eb 09		 jmp	 SHORT $LN10@SendLeader
$LN9@SendLeader:
  00078	8b 45 d4	 mov	 eax, DWORD PTR _k$[ebp]
  0007b	83 c0 01	 add	 eax, 1
  0007e	89 45 d4	 mov	 DWORD PTR _k$[ebp], eax
$LN10@SendLeader:
  00081	83 7d d4 05	 cmp	 DWORD PTR _k$[ebp], 5
  00085	0f 8d b4 00 00
	00		 jge	 $LN8@SendLeader

; 71   : 		{
; 72   : 			if (k < 4)

  0008b	83 7d d4 04	 cmp	 DWORD PTR _k$[ebp], 4
  0008f	7d 20		 jge	 SHORT $LN7@SendLeader

; 73   : 				bytSymToSend = (bytMask & bytEncodedBytes[j]) >> (2 * (3 - k));

  00091	0f b6 45 bf	 movzx	 eax, BYTE PTR _bytMask$[ebp]
  00095	8b 4d 08	 mov	 ecx, DWORD PTR _bytEncodedBytes$[ebp]
  00098	03 4d e0	 add	 ecx, DWORD PTR _j$[ebp]
  0009b	0f b6 11	 movzx	 edx, BYTE PTR [ecx]
  0009e	23 c2		 and	 eax, edx
  000a0	b9 03 00 00 00	 mov	 ecx, 3
  000a5	2b 4d d4	 sub	 ecx, DWORD PTR _k$[ebp]
  000a8	d1 e1		 shl	 ecx, 1
  000aa	d3 f8		 sar	 eax, cl
  000ac	88 45 b3	 mov	 BYTE PTR _bytSymToSend$[ebp], al

; 74   : 			else

  000af	eb 11		 jmp	 SHORT $LN6@SendLeader
$LN7@SendLeader:

; 75   : 				bytSymToSend = ComputeTypeParity(bytEncodedBytes[0]);

  000b1	8b 45 08	 mov	 eax, DWORD PTR _bytEncodedBytes$[ebp]
  000b4	8a 08		 mov	 cl, BYTE PTR [eax]
  000b6	51		 push	 ecx
  000b7	e8 00 00 00 00	 call	 _ComputeTypeParity
  000bc	83 c4 04	 add	 esp, 4
  000bf	88 45 b3	 mov	 BYTE PTR _bytSymToSend$[ebp], al
$LN6@SendLeader:

; 76   : 
; 77   : 			for(n = 0; n < 240; n++)

  000c2	c7 45 c8 00 00
	00 00		 mov	 DWORD PTR _n$[ebp], 0
  000c9	eb 09		 jmp	 SHORT $LN5@SendLeader
$LN4@SendLeader:
  000cb	8b 45 c8	 mov	 eax, DWORD PTR _n$[ebp]
  000ce	83 c0 01	 add	 eax, 1
  000d1	89 45 c8	 mov	 DWORD PTR _n$[ebp], eax
$LN5@SendLeader:
  000d4	81 7d c8 f0 00
	00 00		 cmp	 DWORD PTR _n$[ebp], 240	; 000000f0H
  000db	7d 53		 jge	 SHORT $LN3@SendLeader

; 78   : 			{
; 79   : 				if (((5 * j + k) & 1 ) == 0)

  000dd	8b 45 e0	 mov	 eax, DWORD PTR _j$[ebp]
  000e0	6b c0 05	 imul	 eax, 5
  000e3	03 45 d4	 add	 eax, DWORD PTR _k$[ebp]
  000e6	83 e0 01	 and	 eax, 1
  000e9	75 1b		 jne	 SHORT $LN2@SendLeader

; 80   : 					intSample = intFSK50bdCarTemplate[bytSymToSend][n];

  000eb	0f b6 45 b3	 movzx	 eax, BYTE PTR _bytSymToSend$[ebp]
  000ef	69 c0 e0 01 00
	00		 imul	 eax, 480		; 000001e0H
  000f5	8b 4d c8	 mov	 ecx, DWORD PTR _n$[ebp]
  000f8	66 8b 94 48 00
	00 00 00	 mov	 dx, WORD PTR _intFSK50bdCarTemplate[eax+ecx*2]
  00100	66 89 55 a4	 mov	 WORD PTR _intSample$[ebp], dx

; 81   : 				else

  00104	eb 1b		 jmp	 SHORT $LN1@SendLeader
$LN2@SendLeader:

; 82   : 					intSample = -intFSK50bdCarTemplate[bytSymToSend][n]; // -sign insures no phase discontinuity at symbol boundaries

  00106	0f b6 45 b3	 movzx	 eax, BYTE PTR _bytSymToSend$[ebp]
  0010a	69 c0 e0 01 00
	00		 imul	 eax, 480		; 000001e0H
  00110	8b 4d c8	 mov	 ecx, DWORD PTR _n$[ebp]
  00113	0f bf 94 48 00
	00 00 00	 movsx	 edx, WORD PTR _intFSK50bdCarTemplate[eax+ecx*2]
  0011b	f7 da		 neg	 edx
  0011d	66 89 55 a4	 mov	 WORD PTR _intSample$[ebp], dx
$LN1@SendLeader:

; 83   : 
; 84   : 				SampleSink(intSample);	

  00121	66 8b 45 a4	 mov	 ax, WORD PTR _intSample$[ebp]
  00125	50		 push	 eax
  00126	e8 00 00 00 00	 call	 _SampleSink
  0012b	83 c4 04	 add	 esp, 4

; 85   : 			}

  0012e	eb 9b		 jmp	 SHORT $LN4@SendLeader
$LN3@SendLeader:

; 86   : 			bytMask = bytMask >> 2;

  00130	0f b6 45 bf	 movzx	 eax, BYTE PTR _bytMask$[ebp]
  00134	c1 f8 02	 sar	 eax, 2
  00137	88 45 bf	 mov	 BYTE PTR _bytMask$[ebp], al

; 87   : 		}

  0013a	e9 39 ff ff ff	 jmp	 $LN9@SendLeader
$LN8@SendLeader:

; 88   : 	}

  0013f	e9 14 ff ff ff	 jmp	 $LN12@SendLeader
$LN16@SendLeader:

; 89   : }

  00144	5f		 pop	 edi
  00145	5e		 pop	 esi
  00146	5b		 pop	 ebx
  00147	81 c4 20 01 00
	00		 add	 esp, 288		; 00000120H
  0014d	3b ec		 cmp	 ebp, esp
  0014f	e8 00 00 00 00	 call	 __RTC_CheckEsp
  00154	8b e5		 mov	 esp, ebp
  00156	5d		 pop	 ebp
  00157	c3		 ret	 0
_SendLeaderAndSYNC ENDP
_TEXT	ENDS
PUBLIC	__real@3e8a3d71
PUBLIC	__real@3f028f5c
PUBLIC	_Flush
PUBLIC	__real@3f800000
PUBLIC	_initFilter
PUBLIC	??_C@_0BG@KAOACCEH@Sending?5Frame?5Type?5?$CFs?$AA@ ; `string'
PUBLIC	??_C@_04KOHEBHGC@4FSK?$AA@			; `string'
PUBLIC	??_C@_00CNPNBAHC@?$AA@				; `string'
PUBLIC	__$ArrayPad$
PUBLIC	_Mod4FSKDataAndPlay
EXTRN	_intFSK100bdCarTemplate:BYTE
EXTRN	_WriteDebugLog:PROC
EXTRN	_strcmp:PROC
EXTRN	_FrameInfo:PROC
EXTRN	___security_cookie:DWORD
EXTRN	__fltused:DWORD
EXTRN	@__security_check_cookie@4:PROC
EXTRN	@_RTC_CheckStackVars@8:PROC
EXTRN	__ftol2_sse:PROC
;	COMDAT __real@3e8a3d71
CONST	SEGMENT
__real@3e8a3d71 DD 03e8a3d71r			; 0.27
CONST	ENDS
;	COMDAT __real@3f028f5c
CONST	SEGMENT
__real@3f028f5c DD 03f028f5cr			; 0.51
CONST	ENDS
;	COMDAT __real@3f800000
CONST	SEGMENT
__real@3f800000 DD 03f800000r			; 1
CONST	ENDS
;	COMDAT ??_C@_0BG@KAOACCEH@Sending?5Frame?5Type?5?$CFs?$AA@
CONST	SEGMENT
??_C@_0BG@KAOACCEH@Sending?5Frame?5Type?5?$CFs?$AA@ DB 'Sending Frame Typ'
	DB	'e %s', 00H					; `string'
CONST	ENDS
;	COMDAT ??_C@_04KOHEBHGC@4FSK?$AA@
CONST	SEGMENT
??_C@_04KOHEBHGC@4FSK?$AA@ DB '4FSK', 00H		; `string'
CONST	ENDS
;	COMDAT ??_C@_00CNPNBAHC@?$AA@
CONST	SEGMENT
??_C@_00CNPNBAHC@?$AA@ DB 00H				; `string'
; Function compile flags: /Odtp /RTCsu /ZI
CONST	ENDS
;	COMDAT _Mod4FSKDataAndPlay
_TEXT	SEGMENT
tv479 = -468						; size = 4
tv441 = -468						; size = 4
tv146 = -468						; size = 4
tv139 = -468						; size = 4
_n$ = -268						; size = 4
_m$ = -256						; size = 4
_k$ = -244						; size = 4
_intLeaderLenMS$ = -232					; size = 4
_intMask$ = -220					; size = 4
_dblCarScalingFactor$ = -208				; size = 4
_bytMinQualThresh$ = -193				; size = 1
_bytMask$ = -181					; size = 1
_bytSymToSend$ = -169					; size = 1
_strMod$ = -160						; size = 16
_strType$ = -136					; size = 18
_intSample$ = -108					; size = 4
_blnOdd$ = -96						; size = 4
_intDataBytesPerCar$ = -84				; size = 4
_intSampPerSym$ = -72					; size = 4
_intDataPtr$ = -60					; size = 4
_intRSLen$ = -48					; size = 4
_intDataLen$ = -36					; size = 4
_intBaud$ = -24						; size = 4
_intNumCar$ = -12					; size = 4
__$ArrayPad$ = -4					; size = 4
_Type$ = 8						; size = 4
_bytEncodedBytes$ = 12					; size = 4
_Len$ = 16						; size = 4
_intLeaderLen$ = 20					; size = 4
_Mod4FSKDataAndPlay PROC				; COMDAT

; 93   : {

  00000	55		 push	 ebp
  00001	8b ec		 mov	 ebp, esp
  00003	81 ec d4 01 00
	00		 sub	 esp, 468		; 000001d4H
  00009	53		 push	 ebx
  0000a	56		 push	 esi
  0000b	57		 push	 edi
  0000c	8d bd 2c fe ff
	ff		 lea	 edi, DWORD PTR [ebp-468]
  00012	b9 75 00 00 00	 mov	 ecx, 117		; 00000075H
  00017	b8 cc cc cc cc	 mov	 eax, -858993460		; ccccccccH
  0001c	f3 ab		 rep stosd
  0001e	a1 00 00 00 00	 mov	 eax, DWORD PTR ___security_cookie
  00023	33 c5		 xor	 eax, ebp
  00025	89 45 fc	 mov	 DWORD PTR __$ArrayPad$[ebp], eax

; 94   : 	// Function to Modulate data encoded for 4FSK, create
; 95   : 	// the 16 bit samples and send to sound interface
; 96   : 
; 97   : 	// Function works for 1, 2 or 4 simultaneous carriers 
; 98   : 
; 99   : 	int intNumCar, intBaud, intDataLen, intRSLen, intDataPtr, intSampPerSym, intDataBytesPerCar;
; 100  : 	BOOL blnOdd;
; 101  : 
; 102  : 	int intSample;
; 103  : 
; 104  :     char strType[18] = "";

  00028	a0 00 00 00 00	 mov	 al, BYTE PTR ??_C@_00CNPNBAHC@?$AA@
  0002d	88 85 78 ff ff
	ff		 mov	 BYTE PTR _strType$[ebp], al
  00033	33 c0		 xor	 eax, eax
  00035	89 85 79 ff ff
	ff		 mov	 DWORD PTR _strType$[ebp+1], eax
  0003b	89 85 7d ff ff
	ff		 mov	 DWORD PTR _strType$[ebp+5], eax
  00041	89 45 81	 mov	 DWORD PTR _strType$[ebp+9], eax
  00044	89 45 85	 mov	 DWORD PTR _strType$[ebp+13], eax
  00047	88 45 89	 mov	 BYTE PTR _strType$[ebp+17], al

; 105  :     char strMod[16] = "";

  0004a	a0 00 00 00 00	 mov	 al, BYTE PTR ??_C@_00CNPNBAHC@?$AA@
  0004f	88 85 60 ff ff
	ff		 mov	 BYTE PTR _strMod$[ebp], al
  00055	33 c0		 xor	 eax, eax
  00057	89 85 61 ff ff
	ff		 mov	 DWORD PTR _strMod$[ebp+1], eax
  0005d	89 85 65 ff ff
	ff		 mov	 DWORD PTR _strMod$[ebp+5], eax
  00063	89 85 69 ff ff
	ff		 mov	 DWORD PTR _strMod$[ebp+9], eax
  00069	66 89 85 6d ff
	ff ff		 mov	 WORD PTR _strMod$[ebp+13], ax
  00070	88 85 6f ff ff
	ff		 mov	 BYTE PTR _strMod$[ebp+15], al

; 106  : 
; 107  : 	UCHAR bytSymToSend, bytMask, bytMinQualThresh;
; 108  : 
; 109  : 	float dblCarScalingFactor;
; 110  : 	int intMask = 0;

  00076	c7 85 24 ff ff
	ff 00 00 00 00	 mov	 DWORD PTR _intMask$[ebp], 0

; 111  : 	int intLeaderLenMS;
; 112  : 	int k, m, n;
; 113  : 
; 114  : 	if (!FrameInfo(Type, &blnOdd, &intNumCar, strMod, &intBaud, &intDataLen, &intRSLen, &bytMinQualThresh, strType))

  00080	8d 85 78 ff ff
	ff		 lea	 eax, DWORD PTR _strType$[ebp]
  00086	50		 push	 eax
  00087	8d 8d 3f ff ff
	ff		 lea	 ecx, DWORD PTR _bytMinQualThresh$[ebp]
  0008d	51		 push	 ecx
  0008e	8d 55 d0	 lea	 edx, DWORD PTR _intRSLen$[ebp]
  00091	52		 push	 edx
  00092	8d 45 dc	 lea	 eax, DWORD PTR _intDataLen$[ebp]
  00095	50		 push	 eax
  00096	8d 4d e8	 lea	 ecx, DWORD PTR _intBaud$[ebp]
  00099	51		 push	 ecx
  0009a	8d 95 60 ff ff
	ff		 lea	 edx, DWORD PTR _strMod$[ebp]
  000a0	52		 push	 edx
  000a1	8d 45 f4	 lea	 eax, DWORD PTR _intNumCar$[ebp]
  000a4	50		 push	 eax
  000a5	8d 4d a0	 lea	 ecx, DWORD PTR _blnOdd$[ebp]
  000a8	51		 push	 ecx
  000a9	8a 55 08	 mov	 dl, BYTE PTR _Type$[ebp]
  000ac	52		 push	 edx
  000ad	e8 00 00 00 00	 call	 _FrameInfo
  000b2	83 c4 24	 add	 esp, 36			; 00000024H
  000b5	85 c0		 test	 eax, eax
  000b7	75 05		 jne	 SHORT $LN53@Mod4FSKDat

; 115  : 		return;

  000b9	e9 51 06 00 00	 jmp	 $LN37@Mod4FSKDat
$LN53@Mod4FSKDat:

; 116  : 
; 117  : 	if (strcmp(strMod, "4FSK") != 0)

  000be	68 00 00 00 00	 push	 OFFSET ??_C@_04KOHEBHGC@4FSK?$AA@
  000c3	8d 85 60 ff ff
	ff		 lea	 eax, DWORD PTR _strMod$[ebp]
  000c9	50		 push	 eax
  000ca	e8 00 00 00 00	 call	 _strcmp
  000cf	83 c4 08	 add	 esp, 8
  000d2	85 c0		 test	 eax, eax
  000d4	74 05		 je	 SHORT $LN52@Mod4FSKDat

; 118  : 		return;

  000d6	e9 34 06 00 00	 jmp	 $LN37@Mod4FSKDat
$LN52@Mod4FSKDat:

; 119  : 
; 120  : 	WriteDebugLog(LOGDEBUG, "Sending Frame Type %s", strType);

  000db	8d 85 78 ff ff
	ff		 lea	 eax, DWORD PTR _strType$[ebp]
  000e1	50		 push	 eax
  000e2	68 00 00 00 00	 push	 OFFSET ??_C@_0BG@KAOACCEH@Sending?5Frame?5Type?5?$CFs?$AA@
  000e7	6a 07		 push	 7
  000e9	e8 00 00 00 00	 call	 _WriteDebugLog
  000ee	83 c4 0c	 add	 esp, 12			; 0000000cH

; 121  : 
; 122  : 	if (intBaud == 50)

  000f1	83 7d e8 32	 cmp	 DWORD PTR _intBaud$[ebp], 50 ; 00000032H
  000f5	75 0f		 jne	 SHORT $LN51@Mod4FSKDat

; 123  : 		initFilter(200);

  000f7	68 c8 00 00 00	 push	 200			; 000000c8H
  000fc	e8 00 00 00 00	 call	 _initFilter
  00101	83 c4 04	 add	 esp, 4
  00104	eb 3d		 jmp	 SHORT $LN45@Mod4FSKDat
$LN51@Mod4FSKDat:

; 124  : 	else if (intNumCar == 1)

  00106	83 7d f4 01	 cmp	 DWORD PTR _intNumCar$[ebp], 1
  0010a	75 0f		 jne	 SHORT $LN49@Mod4FSKDat

; 125  : 		initFilter(500);

  0010c	68 f4 01 00 00	 push	 500			; 000001f4H
  00111	e8 00 00 00 00	 call	 _initFilter
  00116	83 c4 04	 add	 esp, 4
  00119	eb 28		 jmp	 SHORT $LN45@Mod4FSKDat
$LN49@Mod4FSKDat:

; 126  : 	else if (intNumCar == 2)

  0011b	83 7d f4 02	 cmp	 DWORD PTR _intNumCar$[ebp], 2
  0011f	75 0f		 jne	 SHORT $LN47@Mod4FSKDat

; 127  : 		initFilter(1000);

  00121	68 e8 03 00 00	 push	 1000			; 000003e8H
  00126	e8 00 00 00 00	 call	 _initFilter
  0012b	83 c4 04	 add	 esp, 4
  0012e	eb 13		 jmp	 SHORT $LN45@Mod4FSKDat
$LN47@Mod4FSKDat:

; 128  : 	else if (intNumCar == 4)

  00130	83 7d f4 04	 cmp	 DWORD PTR _intNumCar$[ebp], 4
  00134	75 0d		 jne	 SHORT $LN45@Mod4FSKDat

; 129  : 		initFilter(2000);

  00136	68 d0 07 00 00	 push	 2000			; 000007d0H
  0013b	e8 00 00 00 00	 call	 _initFilter
  00140	83 c4 04	 add	 esp, 4
$LN45@Mod4FSKDat:

; 130  : 
; 131  : //	If Not (strType = "DataACK" Or strType = "DataNAK" Or strType = "IDFrame" Or strType.StartsWith("ConReq") Or strType.StartsWith("ConAck")) Then
; 132  :  //               strLastWavStream = strType
; 133  :   //          End If
; 134  : 
; 135  : 
; 136  : 	if (intLeaderLen == 0)

  00143	83 7d 14 00	 cmp	 DWORD PTR _intLeaderLen$[ebp], 0
  00147	75 0d		 jne	 SHORT $LN44@Mod4FSKDat

; 137  : 		intLeaderLenMS = LeaderLength;

  00149	a1 00 00 00 00	 mov	 eax, DWORD PTR _LeaderLength
  0014e	89 85 18 ff ff
	ff		 mov	 DWORD PTR _intLeaderLenMS$[ebp], eax

; 138  : 	else

  00154	eb 09		 jmp	 SHORT $LN43@Mod4FSKDat
$LN44@Mod4FSKDat:

; 139  : 		intLeaderLenMS = intLeaderLen;

  00156	8b 45 14	 mov	 eax, DWORD PTR _intLeaderLen$[ebp]
  00159	89 85 18 ff ff
	ff		 mov	 DWORD PTR _intLeaderLenMS$[ebp], eax
$LN43@Mod4FSKDat:

; 140  : 
; 141  :     switch(intBaud)

  0015f	8b 45 e8	 mov	 eax, DWORD PTR _intBaud$[ebp]
  00162	89 85 2c fe ff
	ff		 mov	 DWORD PTR tv139[ebp], eax
  00168	83 bd 2c fe ff
	ff 32		 cmp	 DWORD PTR tv139[ebp], 50 ; 00000032H
  0016f	74 0b		 je	 SHORT $LN40@Mod4FSKDat
  00171	83 bd 2c fe ff
	ff 64		 cmp	 DWORD PTR tv139[ebp], 100 ; 00000064H
  00178	74 0b		 je	 SHORT $LN39@Mod4FSKDat
  0017a	eb 10		 jmp	 SHORT $LN41@Mod4FSKDat
$LN40@Mod4FSKDat:

; 142  : 	{		
; 143  : 	case 50:
; 144  : 		
; 145  : 		intSampPerSym = 240;

  0017c	c7 45 b8 f0 00
	00 00		 mov	 DWORD PTR _intSampPerSym$[ebp], 240 ; 000000f0H

; 146  : 		break;

  00183	eb 07		 jmp	 SHORT $LN41@Mod4FSKDat
$LN39@Mod4FSKDat:

; 147  :                 
; 148  : 	case 100:
; 149  : 		
; 150  : 		intSampPerSym = 120;

  00185	c7 45 b8 78 00
	00 00		 mov	 DWORD PTR _intSampPerSym$[ebp], 120 ; 00000078H
$LN41@Mod4FSKDat:

; 151  : 	}
; 152  : 		
; 153  : 	intDataBytesPerCar = (Len - 2) / intNumCar;		// We queue the samples here, so dont copy below

  0018c	8b 45 10	 mov	 eax, DWORD PTR _Len$[ebp]
  0018f	83 e8 02	 sub	 eax, 2
  00192	99		 cdq
  00193	f7 7d f4	 idiv	 DWORD PTR _intNumCar$[ebp]
  00196	89 45 ac	 mov	 DWORD PTR _intDataBytesPerCar$[ebp], eax

; 154  :     
; 155  : 	SendLeaderAndSYNC(bytEncodedBytes, intLeaderLen);

  00199	8b 45 14	 mov	 eax, DWORD PTR _intLeaderLen$[ebp]
  0019c	50		 push	 eax
  0019d	8b 4d 0c	 mov	 ecx, DWORD PTR _bytEncodedBytes$[ebp]
  001a0	51		 push	 ecx
  001a1	e8 00 00 00 00	 call	 _SendLeaderAndSYNC
  001a6	83 c4 08	 add	 esp, 8

; 156  : 
; 157  : 	intDataPtr = 2;

  001a9	c7 45 c4 02 00
	00 00		 mov	 DWORD PTR _intDataPtr$[ebp], 2

; 158  : 
; 159  : 	switch(intNumCar)

  001b0	8b 45 f4	 mov	 eax, DWORD PTR _intNumCar$[ebp]
  001b3	89 85 2c fe ff
	ff		 mov	 DWORD PTR tv146[ebp], eax
  001b9	83 bd 2c fe ff
	ff 01		 cmp	 DWORD PTR tv146[ebp], 1
  001c0	74 1f		 je	 SHORT $LN36@Mod4FSKDat
  001c2	83 bd 2c fe ff
	ff 02		 cmp	 DWORD PTR tv146[ebp], 2
  001c9	0f 84 a9 01 00
	00		 je	 $LN20@Mod4FSKDat
  001cf	83 bd 2c fe ff
	ff 04		 cmp	 DWORD PTR tv146[ebp], 4
  001d6	0f 84 18 03 00
	00		 je	 $LN10@Mod4FSKDat
  001dc	e9 2e 05 00 00	 jmp	 $LN37@Mod4FSKDat
$LN36@Mod4FSKDat:

; 160  : 	{
; 161  : 	case 1:			 // use carriers 0-3
; 162  : 		
; 163  : 		dblCarScalingFactor = 1.0; //  (scaling factors determined emperically to minimize crest factor) 

  001e1	d9 e8		 fld1
  001e3	d9 9d 30 ff ff
	ff		 fstp	 DWORD PTR _dblCarScalingFactor$[ebp]

; 164  : 
; 165  : 		for (m = 0; m < intDataBytesPerCar; m++)  // For each byte of input data

  001e9	c7 85 00 ff ff
	ff 00 00 00 00	 mov	 DWORD PTR _m$[ebp], 0
  001f3	eb 0f		 jmp	 SHORT $LN35@Mod4FSKDat
$LN34@Mod4FSKDat:
  001f5	8b 85 00 ff ff
	ff		 mov	 eax, DWORD PTR _m$[ebp]
  001fb	83 c0 01	 add	 eax, 1
  001fe	89 85 00 ff ff
	ff		 mov	 DWORD PTR _m$[ebp], eax
$LN35@Mod4FSKDat:
  00204	8b 85 00 ff ff
	ff		 mov	 eax, DWORD PTR _m$[ebp]
  0020a	3b 45 ac	 cmp	 eax, DWORD PTR _intDataBytesPerCar$[ebp]
  0020d	0f 8d 5b 01 00
	00		 jge	 $LN33@Mod4FSKDat

; 166  : 		{
; 167  : 			bytMask = 0xC0;		 // Initialize mask each new data byte

  00213	c6 85 4b ff ff
	ff c0		 mov	 BYTE PTR _bytMask$[ebp], 192 ; 000000c0H

; 168  : 			
; 169  : 			for (k = 0; k < 4; k++)		// for 4 symbol values per byte of data

  0021a	c7 85 0c ff ff
	ff 00 00 00 00	 mov	 DWORD PTR _k$[ebp], 0
  00224	eb 0f		 jmp	 SHORT $LN32@Mod4FSKDat
$LN31@Mod4FSKDat:
  00226	8b 85 0c ff ff
	ff		 mov	 eax, DWORD PTR _k$[ebp]
  0022c	83 c0 01	 add	 eax, 1
  0022f	89 85 0c ff ff
	ff		 mov	 DWORD PTR _k$[ebp], eax
$LN32@Mod4FSKDat:
  00235	83 bd 0c ff ff
	ff 04		 cmp	 DWORD PTR _k$[ebp], 4
  0023c	0f 8d 1e 01 00
	00		 jge	 $LN30@Mod4FSKDat

; 170  : 			{
; 171  : 				bytSymToSend = (bytMask & bytEncodedBytes[intDataPtr]) >> (2 * (3 - k)); // Values 0-3

  00242	0f b6 85 4b ff
	ff ff		 movzx	 eax, BYTE PTR _bytMask$[ebp]
  00249	8b 4d 0c	 mov	 ecx, DWORD PTR _bytEncodedBytes$[ebp]
  0024c	03 4d c4	 add	 ecx, DWORD PTR _intDataPtr$[ebp]
  0024f	0f b6 11	 movzx	 edx, BYTE PTR [ecx]
  00252	23 c2		 and	 eax, edx
  00254	b9 03 00 00 00	 mov	 ecx, 3
  00259	2b 8d 0c ff ff
	ff		 sub	 ecx, DWORD PTR _k$[ebp]
  0025f	d1 e1		 shl	 ecx, 1
  00261	d3 f8		 sar	 eax, cl
  00263	88 85 57 ff ff
	ff		 mov	 BYTE PTR _bytSymToSend$[ebp], al

; 172  : 
; 173  : 				for (n = 0; n < intSampPerSym; n++)	 // Sum for all the samples of a symbols 

  00269	c7 85 f4 fe ff
	ff 00 00 00 00	 mov	 DWORD PTR _n$[ebp], 0
  00273	eb 0f		 jmp	 SHORT $LN29@Mod4FSKDat
$LN28@Mod4FSKDat:
  00275	8b 85 f4 fe ff
	ff		 mov	 eax, DWORD PTR _n$[ebp]
  0027b	83 c0 01	 add	 eax, 1
  0027e	89 85 f4 fe ff
	ff		 mov	 DWORD PTR _n$[ebp], eax
$LN29@Mod4FSKDat:
  00284	8b 85 f4 fe ff
	ff		 mov	 eax, DWORD PTR _n$[ebp]
  0028a	3b 45 b8	 cmp	 eax, DWORD PTR _intSampPerSym$[ebp]
  0028d	0f 8d b8 00 00
	00		 jge	 $LN27@Mod4FSKDat

; 174  : 				{
; 175  : 					if((k & 1) == 0)

  00293	8b 85 0c ff ff
	ff		 mov	 eax, DWORD PTR _k$[ebp]
  00299	83 e0 01	 and	 eax, 1
  0029c	75 53		 jne	 SHORT $LN26@Mod4FSKDat

; 176  : 					{
; 177  : 						if(intBaud == 50)

  0029e	83 7d e8 32	 cmp	 DWORD PTR _intBaud$[ebp], 50 ; 00000032H
  002a2	75 20		 jne	 SHORT $LN25@Mod4FSKDat

; 178  : 							intSample = intFSK50bdCarTemplate[bytSymToSend][n];

  002a4	0f b6 85 57 ff
	ff ff		 movzx	 eax, BYTE PTR _bytSymToSend$[ebp]
  002ab	69 c0 e0 01 00
	00		 imul	 eax, 480		; 000001e0H
  002b1	8b 8d f4 fe ff
	ff		 mov	 ecx, DWORD PTR _n$[ebp]
  002b7	0f bf 94 48 00
	00 00 00	 movsx	 edx, WORD PTR _intFSK50bdCarTemplate[eax+ecx*2]
  002bf	89 55 94	 mov	 DWORD PTR _intSample$[ebp], edx

; 179  : 						else

  002c2	eb 1e		 jmp	 SHORT $LN24@Mod4FSKDat
$LN25@Mod4FSKDat:

; 180  : 							intSample = intFSK100bdCarTemplate[bytSymToSend][n];

  002c4	0f b6 85 57 ff
	ff ff		 movzx	 eax, BYTE PTR _bytSymToSend$[ebp]
  002cb	69 c0 f0 00 00
	00		 imul	 eax, 240		; 000000f0H
  002d1	8b 8d f4 fe ff
	ff		 mov	 ecx, DWORD PTR _n$[ebp]
  002d7	0f bf 94 48 00
	00 00 00	 movsx	 edx, WORD PTR _intFSK100bdCarTemplate[eax+ecx*2]
  002df	89 55 94	 mov	 DWORD PTR _intSample$[ebp], edx
$LN24@Mod4FSKDat:

; 181  : 							
; 182  : 						SampleSink(intSample);

  002e2	66 8b 45 94	 mov	 ax, WORD PTR _intSample$[ebp]
  002e6	50		 push	 eax
  002e7	e8 00 00 00 00	 call	 _SampleSink
  002ec	83 c4 04	 add	 esp, 4

; 183  : 					}
; 184  : 					else

  002ef	eb 55		 jmp	 SHORT $LN23@Mod4FSKDat
$LN26@Mod4FSKDat:

; 185  :  					{
; 186  : 						if(intBaud == 50)

  002f1	83 7d e8 32	 cmp	 DWORD PTR _intBaud$[ebp], 50 ; 00000032H
  002f5	75 22		 jne	 SHORT $LN22@Mod4FSKDat

; 187  : 							intSample = -intFSK50bdCarTemplate[bytSymToSend][n];

  002f7	0f b6 85 57 ff
	ff ff		 movzx	 eax, BYTE PTR _bytSymToSend$[ebp]
  002fe	69 c0 e0 01 00
	00		 imul	 eax, 480		; 000001e0H
  00304	8b 8d f4 fe ff
	ff		 mov	 ecx, DWORD PTR _n$[ebp]
  0030a	0f bf 94 48 00
	00 00 00	 movsx	 edx, WORD PTR _intFSK50bdCarTemplate[eax+ecx*2]
  00312	f7 da		 neg	 edx
  00314	89 55 94	 mov	 DWORD PTR _intSample$[ebp], edx

; 188  : 						else

  00317	eb 20		 jmp	 SHORT $LN21@Mod4FSKDat
$LN22@Mod4FSKDat:

; 189  : 							intSample = -intFSK100bdCarTemplate[bytSymToSend][n];

  00319	0f b6 85 57 ff
	ff ff		 movzx	 eax, BYTE PTR _bytSymToSend$[ebp]
  00320	69 c0 f0 00 00
	00		 imul	 eax, 240		; 000000f0H
  00326	8b 8d f4 fe ff
	ff		 mov	 ecx, DWORD PTR _n$[ebp]
  0032c	0f bf 94 48 00
	00 00 00	 movsx	 edx, WORD PTR _intFSK100bdCarTemplate[eax+ecx*2]
  00334	f7 da		 neg	 edx
  00336	89 55 94	 mov	 DWORD PTR _intSample$[ebp], edx
$LN21@Mod4FSKDat:

; 190  : 							
; 191  : 						SampleSink(intSample);	

  00339	66 8b 45 94	 mov	 ax, WORD PTR _intSample$[ebp]
  0033d	50		 push	 eax
  0033e	e8 00 00 00 00	 call	 _SampleSink
  00343	83 c4 04	 add	 esp, 4
$LN23@Mod4FSKDat:

; 192  : 					}
; 193  : 				}

  00346	e9 2a ff ff ff	 jmp	 $LN28@Mod4FSKDat
$LN27@Mod4FSKDat:

; 194  : 
; 195  : 				bytMask = bytMask >> 2;

  0034b	0f b6 85 4b ff
	ff ff		 movzx	 eax, BYTE PTR _bytMask$[ebp]
  00352	c1 f8 02	 sar	 eax, 2
  00355	88 85 4b ff ff
	ff		 mov	 BYTE PTR _bytMask$[ebp], al

; 196  : 			}

  0035b	e9 c6 fe ff ff	 jmp	 $LN31@Mod4FSKDat
$LN30@Mod4FSKDat:

; 197  : 			intDataPtr += 1;

  00360	8b 45 c4	 mov	 eax, DWORD PTR _intDataPtr$[ebp]
  00363	83 c0 01	 add	 eax, 1
  00366	89 45 c4	 mov	 DWORD PTR _intDataPtr$[ebp], eax

; 198  : 		}

  00369	e9 87 fe ff ff	 jmp	 $LN34@Mod4FSKDat
$LN33@Mod4FSKDat:

; 199  : 
; 200  : 		Flush();

  0036e	e8 00 00 00 00	 call	 _Flush

; 201  : 
; 202  : 		break;

  00373	e9 97 03 00 00	 jmp	 $LN37@Mod4FSKDat
$LN20@Mod4FSKDat:

; 203  : 
; 204  : 	case 2:			// use carriers 8-15 (100 baud only)
; 205  : 
; 206  : 		dblCarScalingFactor = 0.51f; //  (scaling factors determined emperically to minimize crest factor)

  00378	d9 05 00 00 00
	00		 fld	 DWORD PTR __real@3f028f5c
  0037e	d9 9d 30 ff ff
	ff		 fstp	 DWORD PTR _dblCarScalingFactor$[ebp]

; 207  : 
; 208  : 		for (m = 0; m < intDataBytesPerCar; m++)	  // For each byte of input data 

  00384	c7 85 00 ff ff
	ff 00 00 00 00	 mov	 DWORD PTR _m$[ebp], 0
  0038e	eb 0f		 jmp	 SHORT $LN19@Mod4FSKDat
$LN18@Mod4FSKDat:
  00390	8b 85 00 ff ff
	ff		 mov	 eax, DWORD PTR _m$[ebp]
  00396	83 c0 01	 add	 eax, 1
  00399	89 85 00 ff ff
	ff		 mov	 DWORD PTR _m$[ebp], eax
$LN19@Mod4FSKDat:
  0039f	8b 85 00 ff ff
	ff		 mov	 eax, DWORD PTR _m$[ebp]
  003a5	3b 45 ac	 cmp	 eax, DWORD PTR _intDataBytesPerCar$[ebp]
  003a8	0f 8d 3c 01 00
	00		 jge	 $LN17@Mod4FSKDat

; 209  : 		{
; 210  : 			bytMask = 0xC0;	// Initialize mask each new data byte

  003ae	c6 85 4b ff ff
	ff c0		 mov	 BYTE PTR _bytMask$[ebp], 192 ; 000000c0H

; 211  :                         			
; 212  : 			for (k = 0; k < 4; k++)		// for 4 symbol values per byte of data

  003b5	c7 85 0c ff ff
	ff 00 00 00 00	 mov	 DWORD PTR _k$[ebp], 0
  003bf	eb 0f		 jmp	 SHORT $LN16@Mod4FSKDat
$LN15@Mod4FSKDat:
  003c1	8b 85 0c ff ff
	ff		 mov	 eax, DWORD PTR _k$[ebp]
  003c7	83 c0 01	 add	 eax, 1
  003ca	89 85 0c ff ff
	ff		 mov	 DWORD PTR _k$[ebp], eax
$LN16@Mod4FSKDat:
  003d0	83 bd 0c ff ff
	ff 04		 cmp	 DWORD PTR _k$[ebp], 4
  003d7	0f 8d ff 00 00
	00		 jge	 $LN14@Mod4FSKDat

; 213  : 			{
; 214  : 				for (n = 0; n < intSampPerSym; n++)	 // for all the samples of a symbol for 2 carriers

  003dd	c7 85 f4 fe ff
	ff 00 00 00 00	 mov	 DWORD PTR _n$[ebp], 0
  003e7	eb 0f		 jmp	 SHORT $LN13@Mod4FSKDat
$LN12@Mod4FSKDat:
  003e9	8b 85 f4 fe ff
	ff		 mov	 eax, DWORD PTR _n$[ebp]
  003ef	83 c0 01	 add	 eax, 1
  003f2	89 85 f4 fe ff
	ff		 mov	 DWORD PTR _n$[ebp], eax
$LN13@Mod4FSKDat:
  003f8	8b 85 f4 fe ff
	ff		 mov	 eax, DWORD PTR _n$[ebp]
  003fe	3b 45 b8	 cmp	 eax, DWORD PTR _intSampPerSym$[ebp]
  00401	0f 8d c0 00 00
	00		 jge	 $LN11@Mod4FSKDat

; 215  : 				{
; 216  : 					//' First carrier
; 217  :                       
; 218  : 					bytSymToSend = (bytMask & bytEncodedBytes[intDataPtr]) >> (2 * (3 - k)); // Values 0-3

  00407	0f b6 85 4b ff
	ff ff		 movzx	 eax, BYTE PTR _bytMask$[ebp]
  0040e	8b 4d 0c	 mov	 ecx, DWORD PTR _bytEncodedBytes$[ebp]
  00411	03 4d c4	 add	 ecx, DWORD PTR _intDataPtr$[ebp]
  00414	0f b6 11	 movzx	 edx, BYTE PTR [ecx]
  00417	23 c2		 and	 eax, edx
  00419	b9 03 00 00 00	 mov	 ecx, 3
  0041e	2b 8d 0c ff ff
	ff		 sub	 ecx, DWORD PTR _k$[ebp]
  00424	d1 e1		 shl	 ecx, 1
  00426	d3 f8		 sar	 eax, cl
  00428	88 85 57 ff ff
	ff		 mov	 BYTE PTR _bytSymToSend$[ebp], al

; 219  : 					intSample = intFSK100bdCarTemplate[8 + bytSymToSend][n];

  0042e	0f b6 85 57 ff
	ff ff		 movzx	 eax, BYTE PTR _bytSymToSend$[ebp]
  00435	83 c0 08	 add	 eax, 8
  00438	69 c0 f0 00 00
	00		 imul	 eax, 240		; 000000f0H
  0043e	8b 8d f4 fe ff
	ff		 mov	 ecx, DWORD PTR _n$[ebp]
  00444	0f bf 94 48 00
	00 00 00	 movsx	 edx, WORD PTR _intFSK100bdCarTemplate[eax+ecx*2]
  0044c	89 55 94	 mov	 DWORD PTR _intSample$[ebp], edx

; 220  : 					// Second carrier
; 221  :                     
; 222  : 					bytSymToSend = (bytMask & bytEncodedBytes[intDataPtr + intDataBytesPerCar]) >> (2 * (3 - k));	// Values 0-3

  0044f	0f b6 85 4b ff
	ff ff		 movzx	 eax, BYTE PTR _bytMask$[ebp]
  00456	8b 4d c4	 mov	 ecx, DWORD PTR _intDataPtr$[ebp]
  00459	03 4d ac	 add	 ecx, DWORD PTR _intDataBytesPerCar$[ebp]
  0045c	8b 55 0c	 mov	 edx, DWORD PTR _bytEncodedBytes$[ebp]
  0045f	0f b6 0c 0a	 movzx	 ecx, BYTE PTR [edx+ecx]
  00463	23 c1		 and	 eax, ecx
  00465	b9 03 00 00 00	 mov	 ecx, 3
  0046a	2b 8d 0c ff ff
	ff		 sub	 ecx, DWORD PTR _k$[ebp]
  00470	d1 e1		 shl	 ecx, 1
  00472	d3 f8		 sar	 eax, cl
  00474	88 85 57 ff ff
	ff		 mov	 BYTE PTR _bytSymToSend$[ebp], al

; 223  : 					intSample = dblCarScalingFactor * (intSample + intFSK100bdCarTemplate[12 + bytSymToSend][n]);

  0047a	0f b6 85 57 ff
	ff ff		 movzx	 eax, BYTE PTR _bytSymToSend$[ebp]
  00481	83 c0 0c	 add	 eax, 12			; 0000000cH
  00484	69 c0 f0 00 00
	00		 imul	 eax, 240		; 000000f0H
  0048a	8b 8d f4 fe ff
	ff		 mov	 ecx, DWORD PTR _n$[ebp]
  00490	0f bf 94 48 00
	00 00 00	 movsx	 edx, WORD PTR _intFSK100bdCarTemplate[eax+ecx*2]
  00498	03 55 94	 add	 edx, DWORD PTR _intSample$[ebp]
  0049b	89 95 2c fe ff
	ff		 mov	 DWORD PTR tv441[ebp], edx
  004a1	db 85 2c fe ff
	ff		 fild	 DWORD PTR tv441[ebp]
  004a7	d8 8d 30 ff ff
	ff		 fmul	 DWORD PTR _dblCarScalingFactor$[ebp]
  004ad	e8 00 00 00 00	 call	 __ftol2_sse
  004b2	89 45 94	 mov	 DWORD PTR _intSample$[ebp], eax

; 224  : 			
; 225  : 					SampleSink(intSample);

  004b5	66 8b 45 94	 mov	 ax, WORD PTR _intSample$[ebp]
  004b9	50		 push	 eax
  004ba	e8 00 00 00 00	 call	 _SampleSink
  004bf	83 c4 04	 add	 esp, 4

; 226  : 				}

  004c2	e9 22 ff ff ff	 jmp	 $LN12@Mod4FSKDat
$LN11@Mod4FSKDat:

; 227  : 				bytMask = bytMask >> 2;

  004c7	0f b6 85 4b ff
	ff ff		 movzx	 eax, BYTE PTR _bytMask$[ebp]
  004ce	c1 f8 02	 sar	 eax, 2
  004d1	88 85 4b ff ff
	ff		 mov	 BYTE PTR _bytMask$[ebp], al

; 228  : 			}

  004d7	e9 e5 fe ff ff	 jmp	 $LN15@Mod4FSKDat
$LN14@Mod4FSKDat:

; 229  : 			intDataPtr += 1;

  004dc	8b 45 c4	 mov	 eax, DWORD PTR _intDataPtr$[ebp]
  004df	83 c0 01	 add	 eax, 1
  004e2	89 45 c4	 mov	 DWORD PTR _intDataPtr$[ebp], eax

; 230  : 		}

  004e5	e9 a6 fe ff ff	 jmp	 $LN18@Mod4FSKDat
$LN17@Mod4FSKDat:

; 231  :              
; 232  : 		Flush();

  004ea	e8 00 00 00 00	 call	 _Flush

; 233  : 
; 234  : 		break;

  004ef	e9 1b 02 00 00	 jmp	 $LN37@Mod4FSKDat
$LN10@Mod4FSKDat:

; 235  : 
; 236  : 	case 4:		 // use carriers 4-19 (100 baud only)
; 237  : 
; 238  :  		dblCarScalingFactor = 0.27f; //  (scaling factors determined emperically to minimize crest factor)

  004f4	d9 05 00 00 00
	00		 fld	 DWORD PTR __real@3e8a3d71
  004fa	d9 9d 30 ff ff
	ff		 fstp	 DWORD PTR _dblCarScalingFactor$[ebp]

; 239  : 
; 240  : 		for (m = 0; m < intDataBytesPerCar; m++)	  // For each byte of input data 

  00500	c7 85 00 ff ff
	ff 00 00 00 00	 mov	 DWORD PTR _m$[ebp], 0
  0050a	eb 0f		 jmp	 SHORT $LN9@Mod4FSKDat
$LN8@Mod4FSKDat:
  0050c	8b 85 00 ff ff
	ff		 mov	 eax, DWORD PTR _m$[ebp]
  00512	83 c0 01	 add	 eax, 1
  00515	89 85 00 ff ff
	ff		 mov	 DWORD PTR _m$[ebp], eax
$LN9@Mod4FSKDat:
  0051b	8b 85 00 ff ff
	ff		 mov	 eax, DWORD PTR _m$[ebp]
  00521	3b 45 ac	 cmp	 eax, DWORD PTR _intDataBytesPerCar$[ebp]
  00524	0f 8d e0 01 00
	00		 jge	 $LN7@Mod4FSKDat

; 241  : 		{
; 242  : 			bytMask = 0xC0;	// Initialize mask each new data byte

  0052a	c6 85 4b ff ff
	ff c0		 mov	 BYTE PTR _bytMask$[ebp], 192 ; 000000c0H

; 243  :                         			
; 244  : 			for (k = 0; k < 4; k++)		// for 4 symbol values per byte of data

  00531	c7 85 0c ff ff
	ff 00 00 00 00	 mov	 DWORD PTR _k$[ebp], 0
  0053b	eb 0f		 jmp	 SHORT $LN6@Mod4FSKDat
$LN5@Mod4FSKDat:
  0053d	8b 85 0c ff ff
	ff		 mov	 eax, DWORD PTR _k$[ebp]
  00543	83 c0 01	 add	 eax, 1
  00546	89 85 0c ff ff
	ff		 mov	 DWORD PTR _k$[ebp], eax
$LN6@Mod4FSKDat:
  0054c	83 bd 0c ff ff
	ff 04		 cmp	 DWORD PTR _k$[ebp], 4
  00553	0f 8d a3 01 00
	00		 jge	 $LN4@Mod4FSKDat

; 245  : 			{
; 246  : 				for (n = 0; n < intSampPerSym; n++)	 // for all the samples of a symbol for 2 carriers

  00559	c7 85 f4 fe ff
	ff 00 00 00 00	 mov	 DWORD PTR _n$[ebp], 0
  00563	eb 0f		 jmp	 SHORT $LN3@Mod4FSKDat
$LN2@Mod4FSKDat:
  00565	8b 85 f4 fe ff
	ff		 mov	 eax, DWORD PTR _n$[ebp]
  0056b	83 c0 01	 add	 eax, 1
  0056e	89 85 f4 fe ff
	ff		 mov	 DWORD PTR _n$[ebp], eax
$LN3@Mod4FSKDat:
  00574	8b 85 f4 fe ff
	ff		 mov	 eax, DWORD PTR _n$[ebp]
  0057a	3b 45 b8	 cmp	 eax, DWORD PTR _intSampPerSym$[ebp]
  0057d	0f 8d 64 01 00
	00		 jge	 $LN1@Mod4FSKDat

; 247  : 				{
; 248  : 					//' First carrier
; 249  :                       
; 250  : 					bytSymToSend = (bytMask & bytEncodedBytes[intDataPtr]) >> (2 * (3 - k)); // Values 0-3

  00583	0f b6 85 4b ff
	ff ff		 movzx	 eax, BYTE PTR _bytMask$[ebp]
  0058a	8b 4d 0c	 mov	 ecx, DWORD PTR _bytEncodedBytes$[ebp]
  0058d	03 4d c4	 add	 ecx, DWORD PTR _intDataPtr$[ebp]
  00590	0f b6 11	 movzx	 edx, BYTE PTR [ecx]
  00593	23 c2		 and	 eax, edx
  00595	b9 03 00 00 00	 mov	 ecx, 3
  0059a	2b 8d 0c ff ff
	ff		 sub	 ecx, DWORD PTR _k$[ebp]
  005a0	d1 e1		 shl	 ecx, 1
  005a2	d3 f8		 sar	 eax, cl
  005a4	88 85 57 ff ff
	ff		 mov	 BYTE PTR _bytSymToSend$[ebp], al

; 251  : 					intSample = intFSK100bdCarTemplate[4 + bytSymToSend][n];

  005aa	0f b6 85 57 ff
	ff ff		 movzx	 eax, BYTE PTR _bytSymToSend$[ebp]
  005b1	83 c0 04	 add	 eax, 4
  005b4	69 c0 f0 00 00
	00		 imul	 eax, 240		; 000000f0H
  005ba	8b 8d f4 fe ff
	ff		 mov	 ecx, DWORD PTR _n$[ebp]
  005c0	0f bf 94 48 00
	00 00 00	 movsx	 edx, WORD PTR _intFSK100bdCarTemplate[eax+ecx*2]
  005c8	89 55 94	 mov	 DWORD PTR _intSample$[ebp], edx

; 252  : 					// Second carrier
; 253  :                     
; 254  : 					bytSymToSend = (bytMask & bytEncodedBytes[intDataPtr + intDataBytesPerCar]) >> (2 * (3 - k));	// Values 0-3

  005cb	0f b6 85 4b ff
	ff ff		 movzx	 eax, BYTE PTR _bytMask$[ebp]
  005d2	8b 4d c4	 mov	 ecx, DWORD PTR _intDataPtr$[ebp]
  005d5	03 4d ac	 add	 ecx, DWORD PTR _intDataBytesPerCar$[ebp]
  005d8	8b 55 0c	 mov	 edx, DWORD PTR _bytEncodedBytes$[ebp]
  005db	0f b6 0c 0a	 movzx	 ecx, BYTE PTR [edx+ecx]
  005df	23 c1		 and	 eax, ecx
  005e1	b9 03 00 00 00	 mov	 ecx, 3
  005e6	2b 8d 0c ff ff
	ff		 sub	 ecx, DWORD PTR _k$[ebp]
  005ec	d1 e1		 shl	 ecx, 1
  005ee	d3 f8		 sar	 eax, cl
  005f0	88 85 57 ff ff
	ff		 mov	 BYTE PTR _bytSymToSend$[ebp], al

; 255  : 					intSample = intSample + intFSK100bdCarTemplate[8 + bytSymToSend][n];

  005f6	0f b6 85 57 ff
	ff ff		 movzx	 eax, BYTE PTR _bytSymToSend$[ebp]
  005fd	83 c0 08	 add	 eax, 8
  00600	69 c0 f0 00 00
	00		 imul	 eax, 240		; 000000f0H
  00606	8b 8d f4 fe ff
	ff		 mov	 ecx, DWORD PTR _n$[ebp]
  0060c	0f bf 94 48 00
	00 00 00	 movsx	 edx, WORD PTR _intFSK100bdCarTemplate[eax+ecx*2]
  00614	03 55 94	 add	 edx, DWORD PTR _intSample$[ebp]
  00617	89 55 94	 mov	 DWORD PTR _intSample$[ebp], edx

; 256  : 			
; 257  : 					//' Third carrier
; 258  : 					
; 259  : 					bytSymToSend = (bytMask & bytEncodedBytes[intDataPtr + 2 * intDataBytesPerCar]) >> (2 * (3 - k));	// Values 0-3

  0061a	0f b6 85 4b ff
	ff ff		 movzx	 eax, BYTE PTR _bytMask$[ebp]
  00621	8b 4d ac	 mov	 ecx, DWORD PTR _intDataBytesPerCar$[ebp]
  00624	8b 55 c4	 mov	 edx, DWORD PTR _intDataPtr$[ebp]
  00627	8d 0c 4a	 lea	 ecx, DWORD PTR [edx+ecx*2]
  0062a	8b 55 0c	 mov	 edx, DWORD PTR _bytEncodedBytes$[ebp]
  0062d	0f b6 0c 0a	 movzx	 ecx, BYTE PTR [edx+ecx]
  00631	23 c1		 and	 eax, ecx
  00633	b9 03 00 00 00	 mov	 ecx, 3
  00638	2b 8d 0c ff ff
	ff		 sub	 ecx, DWORD PTR _k$[ebp]
  0063e	d1 e1		 shl	 ecx, 1
  00640	d3 f8		 sar	 eax, cl
  00642	88 85 57 ff ff
	ff		 mov	 BYTE PTR _bytSymToSend$[ebp], al

; 260  : 					intSample = intSample + intFSK100bdCarTemplate[12 + bytSymToSend][n];

  00648	0f b6 85 57 ff
	ff ff		 movzx	 eax, BYTE PTR _bytSymToSend$[ebp]
  0064f	83 c0 0c	 add	 eax, 12			; 0000000cH
  00652	69 c0 f0 00 00
	00		 imul	 eax, 240		; 000000f0H
  00658	8b 8d f4 fe ff
	ff		 mov	 ecx, DWORD PTR _n$[ebp]
  0065e	0f bf 94 48 00
	00 00 00	 movsx	 edx, WORD PTR _intFSK100bdCarTemplate[eax+ecx*2]
  00666	03 55 94	 add	 edx, DWORD PTR _intSample$[ebp]
  00669	89 55 94	 mov	 DWORD PTR _intSample$[ebp], edx

; 261  : 
; 262  : 					// ' Fourth carrier
; 263  :    
; 264  : 					bytSymToSend = (bytMask & bytEncodedBytes[intDataPtr + 3 * intDataBytesPerCar]) >> (2 * (3 - k));	// Values 0-3

  0066c	0f b6 85 4b ff
	ff ff		 movzx	 eax, BYTE PTR _bytMask$[ebp]
  00673	8b 4d ac	 mov	 ecx, DWORD PTR _intDataBytesPerCar$[ebp]
  00676	6b c9 03	 imul	 ecx, 3
  00679	03 4d c4	 add	 ecx, DWORD PTR _intDataPtr$[ebp]
  0067c	8b 55 0c	 mov	 edx, DWORD PTR _bytEncodedBytes$[ebp]
  0067f	0f b6 0c 0a	 movzx	 ecx, BYTE PTR [edx+ecx]
  00683	23 c1		 and	 eax, ecx
  00685	b9 03 00 00 00	 mov	 ecx, 3
  0068a	2b 8d 0c ff ff
	ff		 sub	 ecx, DWORD PTR _k$[ebp]
  00690	d1 e1		 shl	 ecx, 1
  00692	d3 f8		 sar	 eax, cl
  00694	88 85 57 ff ff
	ff		 mov	 BYTE PTR _bytSymToSend$[ebp], al

; 265  : 					intSample = dblCarScalingFactor * (intSample + intFSK100bdCarTemplate[16 + bytSymToSend][n]);

  0069a	0f b6 85 57 ff
	ff ff		 movzx	 eax, BYTE PTR _bytSymToSend$[ebp]
  006a1	83 c0 10	 add	 eax, 16			; 00000010H
  006a4	69 c0 f0 00 00
	00		 imul	 eax, 240		; 000000f0H
  006aa	8b 8d f4 fe ff
	ff		 mov	 ecx, DWORD PTR _n$[ebp]
  006b0	0f bf 94 48 00
	00 00 00	 movsx	 edx, WORD PTR _intFSK100bdCarTemplate[eax+ecx*2]
  006b8	03 55 94	 add	 edx, DWORD PTR _intSample$[ebp]
  006bb	89 95 2c fe ff
	ff		 mov	 DWORD PTR tv479[ebp], edx
  006c1	db 85 2c fe ff
	ff		 fild	 DWORD PTR tv479[ebp]
  006c7	d8 8d 30 ff ff
	ff		 fmul	 DWORD PTR _dblCarScalingFactor$[ebp]
  006cd	e8 00 00 00 00	 call	 __ftol2_sse
  006d2	89 45 94	 mov	 DWORD PTR _intSample$[ebp], eax

; 266  : 
; 267  : 					SampleSink(intSample);

  006d5	66 8b 45 94	 mov	 ax, WORD PTR _intSample$[ebp]
  006d9	50		 push	 eax
  006da	e8 00 00 00 00	 call	 _SampleSink
  006df	83 c4 04	 add	 esp, 4

; 268  : 				}

  006e2	e9 7e fe ff ff	 jmp	 $LN2@Mod4FSKDat
$LN1@Mod4FSKDat:

; 269  : 				bytMask = bytMask >> 2;

  006e7	0f b6 85 4b ff
	ff ff		 movzx	 eax, BYTE PTR _bytMask$[ebp]
  006ee	c1 f8 02	 sar	 eax, 2
  006f1	88 85 4b ff ff
	ff		 mov	 BYTE PTR _bytMask$[ebp], al

; 270  : 			}

  006f7	e9 41 fe ff ff	 jmp	 $LN5@Mod4FSKDat
$LN4@Mod4FSKDat:

; 271  : 			intDataPtr += 1;

  006fc	8b 45 c4	 mov	 eax, DWORD PTR _intDataPtr$[ebp]
  006ff	83 c0 01	 add	 eax, 1
  00702	89 45 c4	 mov	 DWORD PTR _intDataPtr$[ebp], eax

; 272  : 		}       

  00705	e9 02 fe ff ff	 jmp	 $LN8@Mod4FSKDat
$LN7@Mod4FSKDat:

; 273  : 		Flush();

  0070a	e8 00 00 00 00	 call	 _Flush
$LN37@Mod4FSKDat:

; 274  : 		break;
; 275  : 	}
; 276  : }

  0070f	52		 push	 edx
  00710	8b cd		 mov	 ecx, ebp
  00712	50		 push	 eax
  00713	8d 15 00 00 00
	00		 lea	 edx, DWORD PTR $LN65@Mod4FSKDat
  00719	e8 00 00 00 00	 call	 @_RTC_CheckStackVars@8
  0071e	58		 pop	 eax
  0071f	5a		 pop	 edx
  00720	5f		 pop	 edi
  00721	5e		 pop	 esi
  00722	5b		 pop	 ebx
  00723	8b 4d fc	 mov	 ecx, DWORD PTR __$ArrayPad$[ebp]
  00726	33 cd		 xor	 ecx, ebp
  00728	e8 00 00 00 00	 call	 @__security_check_cookie@4
  0072d	81 c4 d4 01 00
	00		 add	 esp, 468		; 000001d4H
  00733	3b ec		 cmp	 ebp, esp
  00735	e8 00 00 00 00	 call	 __RTC_CheckEsp
  0073a	8b e5		 mov	 esp, ebp
  0073c	5d		 pop	 ebp
  0073d	c3		 ret	 0
  0073e	8b ff		 npad	 2
$LN65@Mod4FSKDat:
  00740	08 00 00 00	 DD	 8
  00744	00 00 00 00	 DD	 $LN64@Mod4FSKDat
$LN64@Mod4FSKDat:
  00748	f4 ff ff ff	 DD	 -12			; fffffff4H
  0074c	04 00 00 00	 DD	 4
  00750	00 00 00 00	 DD	 $LN56@Mod4FSKDat
  00754	e8 ff ff ff	 DD	 -24			; ffffffe8H
  00758	04 00 00 00	 DD	 4
  0075c	00 00 00 00	 DD	 $LN57@Mod4FSKDat
  00760	dc ff ff ff	 DD	 -36			; ffffffdcH
  00764	04 00 00 00	 DD	 4
  00768	00 00 00 00	 DD	 $LN58@Mod4FSKDat
  0076c	d0 ff ff ff	 DD	 -48			; ffffffd0H
  00770	04 00 00 00	 DD	 4
  00774	00 00 00 00	 DD	 $LN59@Mod4FSKDat
  00778	a0 ff ff ff	 DD	 -96			; ffffffa0H
  0077c	04 00 00 00	 DD	 4
  00780	00 00 00 00	 DD	 $LN60@Mod4FSKDat
  00784	78 ff ff ff	 DD	 -136			; ffffff78H
  00788	12 00 00 00	 DD	 18			; 00000012H
  0078c	00 00 00 00	 DD	 $LN61@Mod4FSKDat
  00790	60 ff ff ff	 DD	 -160			; ffffff60H
  00794	10 00 00 00	 DD	 16			; 00000010H
  00798	00 00 00 00	 DD	 $LN62@Mod4FSKDat
  0079c	3f ff ff ff	 DD	 -193			; ffffff3fH
  007a0	01 00 00 00	 DD	 1
  007a4	00 00 00 00	 DD	 $LN63@Mod4FSKDat
$LN63@Mod4FSKDat:
  007a8	62		 DB	 98			; 00000062H
  007a9	79		 DB	 121			; 00000079H
  007aa	74		 DB	 116			; 00000074H
  007ab	4d		 DB	 77			; 0000004dH
  007ac	69		 DB	 105			; 00000069H
  007ad	6e		 DB	 110			; 0000006eH
  007ae	51		 DB	 81			; 00000051H
  007af	75		 DB	 117			; 00000075H
  007b0	61		 DB	 97			; 00000061H
  007b1	6c		 DB	 108			; 0000006cH
  007b2	54		 DB	 84			; 00000054H
  007b3	68		 DB	 104			; 00000068H
  007b4	72		 DB	 114			; 00000072H
  007b5	65		 DB	 101			; 00000065H
  007b6	73		 DB	 115			; 00000073H
  007b7	68		 DB	 104			; 00000068H
  007b8	00		 DB	 0
$LN62@Mod4FSKDat:
  007b9	73		 DB	 115			; 00000073H
  007ba	74		 DB	 116			; 00000074H
  007bb	72		 DB	 114			; 00000072H
  007bc	4d		 DB	 77			; 0000004dH
  007bd	6f		 DB	 111			; 0000006fH
  007be	64		 DB	 100			; 00000064H
  007bf	00		 DB	 0
$LN61@Mod4FSKDat:
  007c0	73		 DB	 115			; 00000073H
  007c1	74		 DB	 116			; 00000074H
  007c2	72		 DB	 114			; 00000072H
  007c3	54		 DB	 84			; 00000054H
  007c4	79		 DB	 121			; 00000079H
  007c5	70		 DB	 112			; 00000070H
  007c6	65		 DB	 101			; 00000065H
  007c7	00		 DB	 0
$LN60@Mod4FSKDat:
  007c8	62		 DB	 98			; 00000062H
  007c9	6c		 DB	 108			; 0000006cH
  007ca	6e		 DB	 110			; 0000006eH
  007cb	4f		 DB	 79			; 0000004fH
  007cc	64		 DB	 100			; 00000064H
  007cd	64		 DB	 100			; 00000064H
  007ce	00		 DB	 0
$LN59@Mod4FSKDat:
  007cf	69		 DB	 105			; 00000069H
  007d0	6e		 DB	 110			; 0000006eH
  007d1	74		 DB	 116			; 00000074H
  007d2	52		 DB	 82			; 00000052H
  007d3	53		 DB	 83			; 00000053H
  007d4	4c		 DB	 76			; 0000004cH
  007d5	65		 DB	 101			; 00000065H
  007d6	6e		 DB	 110			; 0000006eH
  007d7	00		 DB	 0
$LN58@Mod4FSKDat:
  007d8	69		 DB	 105			; 00000069H
  007d9	6e		 DB	 110			; 0000006eH
  007da	74		 DB	 116			; 00000074H
  007db	44		 DB	 68			; 00000044H
  007dc	61		 DB	 97			; 00000061H
  007dd	74		 DB	 116			; 00000074H
  007de	61		 DB	 97			; 00000061H
  007df	4c		 DB	 76			; 0000004cH
  007e0	65		 DB	 101			; 00000065H
  007e1	6e		 DB	 110			; 0000006eH
  007e2	00		 DB	 0
$LN57@Mod4FSKDat:
  007e3	69		 DB	 105			; 00000069H
  007e4	6e		 DB	 110			; 0000006eH
  007e5	74		 DB	 116			; 00000074H
  007e6	42		 DB	 66			; 00000042H
  007e7	61		 DB	 97			; 00000061H
  007e8	75		 DB	 117			; 00000075H
  007e9	64		 DB	 100			; 00000064H
  007ea	00		 DB	 0
$LN56@Mod4FSKDat:
  007eb	69		 DB	 105			; 00000069H
  007ec	6e		 DB	 110			; 0000006eH
  007ed	74		 DB	 116			; 00000074H
  007ee	4e		 DB	 78			; 0000004eH
  007ef	75		 DB	 117			; 00000075H
  007f0	6d		 DB	 109			; 0000006dH
  007f1	43		 DB	 67			; 00000043H
  007f2	61		 DB	 97			; 00000061H
  007f3	72		 DB	 114			; 00000072H
  007f4	00		 DB	 0
_Mod4FSKDataAndPlay ENDP
_TEXT	ENDS
PUBLIC	??_C@_04GLIEPKGD@8FSK?$AA@			; `string'
PUBLIC	__$ArrayPad$
PUBLIC	_Mod8FSKDataAndPlay
EXTRN	_intFSK25bdCarTemplate:BYTE
;	COMDAT ??_C@_04GLIEPKGD@8FSK?$AA@
CONST	SEGMENT
??_C@_04GLIEPKGD@8FSK?$AA@ DB '8FSK', 00H		; `string'
; Function compile flags: /Odtp /RTCsu /ZI
CONST	ENDS
;	COMDAT _Mod8FSKDataAndPlay
_TEXT	SEGMENT
_n$ = -244						; size = 4
_m$ = -232						; size = 4
_k$ = -220						; size = 4
_intMask$ = -208					; size = 4
_bytMinQualThresh$ = -193				; size = 1
_bytSymToSend$ = -181					; size = 1
_strMod$ = -172						; size = 16
_strType$ = -148					; size = 18
_intThreeBytes$ = -120					; size = 4
_intSample$ = -108					; size = 2
_intNumCar$ = -96					; size = 4
_blnOdd$ = -84						; size = 4
_intDataBytesPerCar$ = -72				; size = 4
_intSampPerSym$ = -60					; size = 4
_intDataPtr$ = -48					; size = 4
_intRSLen$ = -36					; size = 4
_intDataLen$ = -24					; size = 4
_intBaud$ = -12						; size = 4
__$ArrayPad$ = -4					; size = 4
_Type$ = 8						; size = 4
_bytEncodedBytes$ = 12					; size = 4
_Len$ = 16						; size = 4
_intLeaderLen$ = 20					; size = 4
_Mod8FSKDataAndPlay PROC				; COMDAT

; 281  : {

  00000	55		 push	 ebp
  00001	8b ec		 mov	 ebp, esp
  00003	81 ec b8 01 00
	00		 sub	 esp, 440		; 000001b8H
  00009	53		 push	 ebx
  0000a	56		 push	 esi
  0000b	57		 push	 edi
  0000c	8d bd 48 fe ff
	ff		 lea	 edi, DWORD PTR [ebp-440]
  00012	b9 6e 00 00 00	 mov	 ecx, 110		; 0000006eH
  00017	b8 cc cc cc cc	 mov	 eax, -858993460		; ccccccccH
  0001c	f3 ab		 rep stosd
  0001e	a1 00 00 00 00	 mov	 eax, DWORD PTR ___security_cookie
  00023	33 c5		 xor	 eax, ebp
  00025	89 45 fc	 mov	 DWORD PTR __$ArrayPad$[ebp], eax

; 282  : 	// Function to Modulate data encoded for 8FSK, create
; 283  : 	// the 16 bit samples and send to sound interface
; 284  : 
; 285  : 	int intBaud, intDataLen, intRSLen, intDataPtr, intSampPerSym, intDataBytesPerCar;
; 286  : 	BOOL blnOdd;
; 287  : 	int intNumCar;
; 288  : 
; 289  : 	short intSample;
; 290  : 	unsigned int intThreeBytes = 0;

  00028	c7 45 88 00 00
	00 00		 mov	 DWORD PTR _intThreeBytes$[ebp], 0

; 291  : 
; 292  :     char strType[18] = "";

  0002f	a0 00 00 00 00	 mov	 al, BYTE PTR ??_C@_00CNPNBAHC@?$AA@
  00034	88 85 6c ff ff
	ff		 mov	 BYTE PTR _strType$[ebp], al
  0003a	33 c0		 xor	 eax, eax
  0003c	89 85 6d ff ff
	ff		 mov	 DWORD PTR _strType$[ebp+1], eax
  00042	89 85 71 ff ff
	ff		 mov	 DWORD PTR _strType$[ebp+5], eax
  00048	89 85 75 ff ff
	ff		 mov	 DWORD PTR _strType$[ebp+9], eax
  0004e	89 85 79 ff ff
	ff		 mov	 DWORD PTR _strType$[ebp+13], eax
  00054	88 85 7d ff ff
	ff		 mov	 BYTE PTR _strType$[ebp+17], al

; 293  :     char strMod[16] = "";

  0005a	a0 00 00 00 00	 mov	 al, BYTE PTR ??_C@_00CNPNBAHC@?$AA@
  0005f	88 85 54 ff ff
	ff		 mov	 BYTE PTR _strMod$[ebp], al
  00065	33 c0		 xor	 eax, eax
  00067	89 85 55 ff ff
	ff		 mov	 DWORD PTR _strMod$[ebp+1], eax
  0006d	89 85 59 ff ff
	ff		 mov	 DWORD PTR _strMod$[ebp+5], eax
  00073	89 85 5d ff ff
	ff		 mov	 DWORD PTR _strMod$[ebp+9], eax
  00079	66 89 85 61 ff
	ff ff		 mov	 WORD PTR _strMod$[ebp+13], ax
  00080	88 85 63 ff ff
	ff		 mov	 BYTE PTR _strMod$[ebp+15], al

; 294  : 
; 295  : 	UCHAR bytSymToSend, bytMinQualThresh;
; 296  : 	int intMask = 0;

  00086	c7 85 30 ff ff
	ff 00 00 00 00	 mov	 DWORD PTR _intMask$[ebp], 0

; 297  : 	int k, m, n;
; 298  : 
; 299  : 	if (!FrameInfo(Type, &blnOdd, &intNumCar, strMod, &intBaud, &intDataLen, &intRSLen, &bytMinQualThresh, strType))

  00090	8d 85 6c ff ff
	ff		 lea	 eax, DWORD PTR _strType$[ebp]
  00096	50		 push	 eax
  00097	8d 8d 3f ff ff
	ff		 lea	 ecx, DWORD PTR _bytMinQualThresh$[ebp]
  0009d	51		 push	 ecx
  0009e	8d 55 dc	 lea	 edx, DWORD PTR _intRSLen$[ebp]
  000a1	52		 push	 edx
  000a2	8d 45 e8	 lea	 eax, DWORD PTR _intDataLen$[ebp]
  000a5	50		 push	 eax
  000a6	8d 4d f4	 lea	 ecx, DWORD PTR _intBaud$[ebp]
  000a9	51		 push	 ecx
  000aa	8d 95 54 ff ff
	ff		 lea	 edx, DWORD PTR _strMod$[ebp]
  000b0	52		 push	 edx
  000b1	8d 45 a0	 lea	 eax, DWORD PTR _intNumCar$[ebp]
  000b4	50		 push	 eax
  000b5	8d 4d ac	 lea	 ecx, DWORD PTR _blnOdd$[ebp]
  000b8	51		 push	 ecx
  000b9	8a 55 08	 mov	 dl, BYTE PTR _Type$[ebp]
  000bc	52		 push	 edx
  000bd	e8 00 00 00 00	 call	 _FrameInfo
  000c2	83 c4 24	 add	 esp, 36			; 00000024H
  000c5	85 c0		 test	 eax, eax
  000c7	75 05		 jne	 SHORT $LN13@Mod8FSKDat

; 300  : 		return;

  000c9	e9 e2 01 00 00	 jmp	 $LN14@Mod8FSKDat
$LN13@Mod8FSKDat:

; 301  : 
; 302  : 	if (strcmp(strMod, "8FSK") != 0)

  000ce	68 00 00 00 00	 push	 OFFSET ??_C@_04GLIEPKGD@8FSK?$AA@
  000d3	8d 85 54 ff ff
	ff		 lea	 eax, DWORD PTR _strMod$[ebp]
  000d9	50		 push	 eax
  000da	e8 00 00 00 00	 call	 _strcmp
  000df	83 c4 08	 add	 esp, 8
  000e2	85 c0		 test	 eax, eax
  000e4	74 05		 je	 SHORT $LN12@Mod8FSKDat

; 303  : 		return;

  000e6	e9 c5 01 00 00	 jmp	 $LN14@Mod8FSKDat
$LN12@Mod8FSKDat:

; 304  : 
; 305  : 	WriteDebugLog(LOGDEBUG, "Sending Frame Type %s", strType);

  000eb	8d 85 6c ff ff
	ff		 lea	 eax, DWORD PTR _strType$[ebp]
  000f1	50		 push	 eax
  000f2	68 00 00 00 00	 push	 OFFSET ??_C@_0BG@KAOACCEH@Sending?5Frame?5Type?5?$CFs?$AA@
  000f7	6a 07		 push	 7
  000f9	e8 00 00 00 00	 call	 _WriteDebugLog
  000fe	83 c4 0c	 add	 esp, 12			; 0000000cH

; 306  : 
; 307  : 	initFilter(200);

  00101	68 c8 00 00 00	 push	 200			; 000000c8H
  00106	e8 00 00 00 00	 call	 _initFilter
  0010b	83 c4 04	 add	 esp, 4

; 308  : 
; 309  : //	If Not (strType = "DataACK" Or strType = "DataNAK" Or strType = "IDFrame" Or strType.StartsWith("ConReq") Or strType.StartsWith("ConAck")) Then
; 310  :  //               strLastWavStream = strType
; 311  :   //          End If
; 312  : 
; 313  : 
; 314  : 	intSampPerSym = 240;

  0010e	c7 45 c4 f0 00
	00 00		 mov	 DWORD PTR _intSampPerSym$[ebp], 240 ; 000000f0H

; 315  : 	
; 316  : 	intDataBytesPerCar = (Len - 2) / intNumCar;		// We queue the samples here, so dont copy below

  00115	8b 45 10	 mov	 eax, DWORD PTR _Len$[ebp]
  00118	83 e8 02	 sub	 eax, 2
  0011b	99		 cdq
  0011c	f7 7d a0	 idiv	 DWORD PTR _intNumCar$[ebp]
  0011f	89 45 b8	 mov	 DWORD PTR _intDataBytesPerCar$[ebp], eax

; 317  :     
; 318  : 	SendLeaderAndSYNC(bytEncodedBytes, intLeaderLen);

  00122	8b 45 14	 mov	 eax, DWORD PTR _intLeaderLen$[ebp]
  00125	50		 push	 eax
  00126	8b 4d 0c	 mov	 ecx, DWORD PTR _bytEncodedBytes$[ebp]
  00129	51		 push	 ecx
  0012a	e8 00 00 00 00	 call	 _SendLeaderAndSYNC
  0012f	83 c4 08	 add	 esp, 8

; 319  : 
; 320  : 	intSampPerSym = 480;			// 25 Baud

  00132	c7 45 c4 e0 01
	00 00		 mov	 DWORD PTR _intSampPerSym$[ebp], 480 ; 000001e0H

; 321  : 
; 322  : 	intDataPtr = 2;

  00139	c7 45 d0 02 00
	00 00		 mov	 DWORD PTR _intDataPtr$[ebp], 2

; 323  : 
; 324  :  	for (m = 0; m < intDataBytesPerCar; m += 3)  // For each byte of input data

  00140	c7 85 18 ff ff
	ff 00 00 00 00	 mov	 DWORD PTR _m$[ebp], 0
  0014a	eb 0f		 jmp	 SHORT $LN11@Mod8FSKDat
$LN10@Mod8FSKDat:
  0014c	8b 85 18 ff ff
	ff		 mov	 eax, DWORD PTR _m$[ebp]
  00152	83 c0 03	 add	 eax, 3
  00155	89 85 18 ff ff
	ff		 mov	 DWORD PTR _m$[ebp], eax
$LN11@Mod8FSKDat:
  0015b	8b 85 18 ff ff
	ff		 mov	 eax, DWORD PTR _m$[ebp]
  00161	3b 45 b8	 cmp	 eax, DWORD PTR _intDataBytesPerCar$[ebp]
  00164	0f 8d 41 01 00
	00		 jge	 $LN9@Mod8FSKDat

; 325  : 	{
; 326  : 		intThreeBytes = bytEncodedBytes[intDataPtr++];

  0016a	8b 45 0c	 mov	 eax, DWORD PTR _bytEncodedBytes$[ebp]
  0016d	03 45 d0	 add	 eax, DWORD PTR _intDataPtr$[ebp]
  00170	0f b6 08	 movzx	 ecx, BYTE PTR [eax]
  00173	89 4d 88	 mov	 DWORD PTR _intThreeBytes$[ebp], ecx
  00176	8b 55 d0	 mov	 edx, DWORD PTR _intDataPtr$[ebp]
  00179	83 c2 01	 add	 edx, 1
  0017c	89 55 d0	 mov	 DWORD PTR _intDataPtr$[ebp], edx

; 327  : 		intThreeBytes = (intThreeBytes << 8) + bytEncodedBytes[intDataPtr++];

  0017f	8b 45 88	 mov	 eax, DWORD PTR _intThreeBytes$[ebp]
  00182	c1 e0 08	 shl	 eax, 8
  00185	8b 4d 0c	 mov	 ecx, DWORD PTR _bytEncodedBytes$[ebp]
  00188	03 4d d0	 add	 ecx, DWORD PTR _intDataPtr$[ebp]
  0018b	0f b6 11	 movzx	 edx, BYTE PTR [ecx]
  0018e	03 c2		 add	 eax, edx
  00190	89 45 88	 mov	 DWORD PTR _intThreeBytes$[ebp], eax
  00193	8b 45 d0	 mov	 eax, DWORD PTR _intDataPtr$[ebp]
  00196	83 c0 01	 add	 eax, 1
  00199	89 45 d0	 mov	 DWORD PTR _intDataPtr$[ebp], eax

; 328  : 		intThreeBytes = (intThreeBytes << 8) + bytEncodedBytes[intDataPtr++];

  0019c	8b 45 88	 mov	 eax, DWORD PTR _intThreeBytes$[ebp]
  0019f	c1 e0 08	 shl	 eax, 8
  001a2	8b 4d 0c	 mov	 ecx, DWORD PTR _bytEncodedBytes$[ebp]
  001a5	03 4d d0	 add	 ecx, DWORD PTR _intDataPtr$[ebp]
  001a8	0f b6 11	 movzx	 edx, BYTE PTR [ecx]
  001ab	03 c2		 add	 eax, edx
  001ad	89 45 88	 mov	 DWORD PTR _intThreeBytes$[ebp], eax
  001b0	8b 45 d0	 mov	 eax, DWORD PTR _intDataPtr$[ebp]
  001b3	83 c0 01	 add	 eax, 1
  001b6	89 45 d0	 mov	 DWORD PTR _intDataPtr$[ebp], eax

; 329  : 		intMask = 0xE00000;

  001b9	c7 85 30 ff ff
	ff 00 00 e0 00	 mov	 DWORD PTR _intMask$[ebp], 14680064 ; 00e00000H

; 330  :                  
; 331  : 		for (k = 0; k < 8; k++)

  001c3	c7 85 24 ff ff
	ff 00 00 00 00	 mov	 DWORD PTR _k$[ebp], 0
  001cd	eb 0f		 jmp	 SHORT $LN8@Mod8FSKDat
$LN7@Mod8FSKDat:
  001cf	8b 85 24 ff ff
	ff		 mov	 eax, DWORD PTR _k$[ebp]
  001d5	83 c0 01	 add	 eax, 1
  001d8	89 85 24 ff ff
	ff		 mov	 DWORD PTR _k$[ebp], eax
$LN8@Mod8FSKDat:
  001de	83 bd 24 ff ff
	ff 08		 cmp	 DWORD PTR _k$[ebp], 8
  001e5	0f 8d bb 00 00
	00		 jge	 $LN6@Mod8FSKDat

; 332  : 		{
; 333  : 			bytSymToSend = (intMask & intThreeBytes) >> (3 * (7 - k));

  001eb	8b 85 30 ff ff
	ff		 mov	 eax, DWORD PTR _intMask$[ebp]
  001f1	23 45 88	 and	 eax, DWORD PTR _intThreeBytes$[ebp]
  001f4	b9 07 00 00 00	 mov	 ecx, 7
  001f9	2b 8d 24 ff ff
	ff		 sub	 ecx, DWORD PTR _k$[ebp]
  001ff	6b c9 03	 imul	 ecx, 3
  00202	d3 e8		 shr	 eax, cl
  00204	88 85 4b ff ff
	ff		 mov	 BYTE PTR _bytSymToSend$[ebp], al

; 334  : 
; 335  : 			// note value of "+ 4" below allows using 16FSK template for 8FSK using only the "inner" 8 tones around 1500
; 336  : 
; 337  : 			for (n = 0; n < intSampPerSym; n++)	 // Sum for all the samples of a symbols 

  0020a	c7 85 0c ff ff
	ff 00 00 00 00	 mov	 DWORD PTR _n$[ebp], 0
  00214	eb 0f		 jmp	 SHORT $LN5@Mod8FSKDat
$LN4@Mod8FSKDat:
  00216	8b 85 0c ff ff
	ff		 mov	 eax, DWORD PTR _n$[ebp]
  0021c	83 c0 01	 add	 eax, 1
  0021f	89 85 0c ff ff
	ff		 mov	 DWORD PTR _n$[ebp], eax
$LN5@Mod8FSKDat:
  00225	8b 85 0c ff ff
	ff		 mov	 eax, DWORD PTR _n$[ebp]
  0022b	3b 45 c4	 cmp	 eax, DWORD PTR _intSampPerSym$[ebp]
  0022e	7d 62		 jge	 SHORT $LN3@Mod8FSKDat

; 338  : 			{
; 339  : 				if((k & 1) == 0)

  00230	8b 85 24 ff ff
	ff		 mov	 eax, DWORD PTR _k$[ebp]
  00236	83 e0 01	 and	 eax, 1
  00239	75 24		 jne	 SHORT $LN2@Mod8FSKDat

; 340  : 					intSample = intFSK25bdCarTemplate[bytSymToSend + 4][n]; // Symbol vlaues 4- 11 (surrounding 1500 Hz)  

  0023b	0f b6 85 4b ff
	ff ff		 movzx	 eax, BYTE PTR _bytSymToSend$[ebp]
  00242	83 c0 04	 add	 eax, 4
  00245	69 c0 c0 03 00
	00		 imul	 eax, 960		; 000003c0H
  0024b	8b 8d 0c ff ff
	ff		 mov	 ecx, DWORD PTR _n$[ebp]
  00251	66 8b 94 48 00
	00 00 00	 mov	 dx, WORD PTR _intFSK25bdCarTemplate[eax+ecx*2]
  00259	66 89 55 94	 mov	 WORD PTR _intSample$[ebp], dx

; 341  : 				else

  0025d	eb 24		 jmp	 SHORT $LN1@Mod8FSKDat
$LN2@Mod8FSKDat:

; 342  : 					intSample = -intFSK25bdCarTemplate[bytSymToSend + 4][n]; // Symbol vlaues 4- 11 (surrounding 1500 Hz)  

  0025f	0f b6 85 4b ff
	ff ff		 movzx	 eax, BYTE PTR _bytSymToSend$[ebp]
  00266	83 c0 04	 add	 eax, 4
  00269	69 c0 c0 03 00
	00		 imul	 eax, 960		; 000003c0H
  0026f	8b 8d 0c ff ff
	ff		 mov	 ecx, DWORD PTR _n$[ebp]
  00275	0f bf 94 48 00
	00 00 00	 movsx	 edx, WORD PTR _intFSK25bdCarTemplate[eax+ecx*2]
  0027d	f7 da		 neg	 edx
  0027f	66 89 55 94	 mov	 WORD PTR _intSample$[ebp], dx
$LN1@Mod8FSKDat:

; 343  : 
; 344  : 				SampleSink(intSample);

  00283	66 8b 45 94	 mov	 ax, WORD PTR _intSample$[ebp]
  00287	50		 push	 eax
  00288	e8 00 00 00 00	 call	 _SampleSink
  0028d	83 c4 04	 add	 esp, 4

; 345  : 			}

  00290	eb 84		 jmp	 SHORT $LN4@Mod8FSKDat
$LN3@Mod8FSKDat:

; 346  : 			intMask = intMask >> 3;

  00292	8b 85 30 ff ff
	ff		 mov	 eax, DWORD PTR _intMask$[ebp]
  00298	c1 f8 03	 sar	 eax, 3
  0029b	89 85 30 ff ff
	ff		 mov	 DWORD PTR _intMask$[ebp], eax

; 347  : 		}

  002a1	e9 29 ff ff ff	 jmp	 $LN7@Mod8FSKDat
$LN6@Mod8FSKDat:

; 348  : 	}

  002a6	e9 a1 fe ff ff	 jmp	 $LN10@Mod8FSKDat
$LN9@Mod8FSKDat:

; 349  : 	Flush();

  002ab	e8 00 00 00 00	 call	 _Flush
$LN14@Mod8FSKDat:

; 350  : }

  002b0	52		 push	 edx
  002b1	8b cd		 mov	 ecx, ebp
  002b3	50		 push	 eax
  002b4	8d 15 00 00 00
	00		 lea	 edx, DWORD PTR $LN25@Mod8FSKDat
  002ba	e8 00 00 00 00	 call	 @_RTC_CheckStackVars@8
  002bf	58		 pop	 eax
  002c0	5a		 pop	 edx
  002c1	5f		 pop	 edi
  002c2	5e		 pop	 esi
  002c3	5b		 pop	 ebx
  002c4	8b 4d fc	 mov	 ecx, DWORD PTR __$ArrayPad$[ebp]
  002c7	33 cd		 xor	 ecx, ebp
  002c9	e8 00 00 00 00	 call	 @__security_check_cookie@4
  002ce	81 c4 b8 01 00
	00		 add	 esp, 440		; 000001b8H
  002d4	3b ec		 cmp	 ebp, esp
  002d6	e8 00 00 00 00	 call	 __RTC_CheckEsp
  002db	8b e5		 mov	 esp, ebp
  002dd	5d		 pop	 ebp
  002de	c3		 ret	 0
  002df	90		 npad	 1
$LN25@Mod8FSKDat:
  002e0	08 00 00 00	 DD	 8
  002e4	00 00 00 00	 DD	 $LN24@Mod8FSKDat
$LN24@Mod8FSKDat:
  002e8	f4 ff ff ff	 DD	 -12			; fffffff4H
  002ec	04 00 00 00	 DD	 4
  002f0	00 00 00 00	 DD	 $LN16@Mod8FSKDat
  002f4	e8 ff ff ff	 DD	 -24			; ffffffe8H
  002f8	04 00 00 00	 DD	 4
  002fc	00 00 00 00	 DD	 $LN17@Mod8FSKDat
  00300	dc ff ff ff	 DD	 -36			; ffffffdcH
  00304	04 00 00 00	 DD	 4
  00308	00 00 00 00	 DD	 $LN18@Mod8FSKDat
  0030c	ac ff ff ff	 DD	 -84			; ffffffacH
  00310	04 00 00 00	 DD	 4
  00314	00 00 00 00	 DD	 $LN19@Mod8FSKDat
  00318	a0 ff ff ff	 DD	 -96			; ffffffa0H
  0031c	04 00 00 00	 DD	 4
  00320	00 00 00 00	 DD	 $LN20@Mod8FSKDat
  00324	6c ff ff ff	 DD	 -148			; ffffff6cH
  00328	12 00 00 00	 DD	 18			; 00000012H
  0032c	00 00 00 00	 DD	 $LN21@Mod8FSKDat
  00330	54 ff ff ff	 DD	 -172			; ffffff54H
  00334	10 00 00 00	 DD	 16			; 00000010H
  00338	00 00 00 00	 DD	 $LN22@Mod8FSKDat
  0033c	3f ff ff ff	 DD	 -193			; ffffff3fH
  00340	01 00 00 00	 DD	 1
  00344	00 00 00 00	 DD	 $LN23@Mod8FSKDat
$LN23@Mod8FSKDat:
  00348	62		 DB	 98			; 00000062H
  00349	79		 DB	 121			; 00000079H
  0034a	74		 DB	 116			; 00000074H
  0034b	4d		 DB	 77			; 0000004dH
  0034c	69		 DB	 105			; 00000069H
  0034d	6e		 DB	 110			; 0000006eH
  0034e	51		 DB	 81			; 00000051H
  0034f	75		 DB	 117			; 00000075H
  00350	61		 DB	 97			; 00000061H
  00351	6c		 DB	 108			; 0000006cH
  00352	54		 DB	 84			; 00000054H
  00353	68		 DB	 104			; 00000068H
  00354	72		 DB	 114			; 00000072H
  00355	65		 DB	 101			; 00000065H
  00356	73		 DB	 115			; 00000073H
  00357	68		 DB	 104			; 00000068H
  00358	00		 DB	 0
$LN22@Mod8FSKDat:
  00359	73		 DB	 115			; 00000073H
  0035a	74		 DB	 116			; 00000074H
  0035b	72		 DB	 114			; 00000072H
  0035c	4d		 DB	 77			; 0000004dH
  0035d	6f		 DB	 111			; 0000006fH
  0035e	64		 DB	 100			; 00000064H
  0035f	00		 DB	 0
$LN21@Mod8FSKDat:
  00360	73		 DB	 115			; 00000073H
  00361	74		 DB	 116			; 00000074H
  00362	72		 DB	 114			; 00000072H
  00363	54		 DB	 84			; 00000054H
  00364	79		 DB	 121			; 00000079H
  00365	70		 DB	 112			; 00000070H
  00366	65		 DB	 101			; 00000065H
  00367	00		 DB	 0
$LN20@Mod8FSKDat:
  00368	69		 DB	 105			; 00000069H
  00369	6e		 DB	 110			; 0000006eH
  0036a	74		 DB	 116			; 00000074H
  0036b	4e		 DB	 78			; 0000004eH
  0036c	75		 DB	 117			; 00000075H
  0036d	6d		 DB	 109			; 0000006dH
  0036e	43		 DB	 67			; 00000043H
  0036f	61		 DB	 97			; 00000061H
  00370	72		 DB	 114			; 00000072H
  00371	00		 DB	 0
$LN19@Mod8FSKDat:
  00372	62		 DB	 98			; 00000062H
  00373	6c		 DB	 108			; 0000006cH
  00374	6e		 DB	 110			; 0000006eH
  00375	4f		 DB	 79			; 0000004fH
  00376	64		 DB	 100			; 00000064H
  00377	64		 DB	 100			; 00000064H
  00378	00		 DB	 0
$LN18@Mod8FSKDat:
  00379	69		 DB	 105			; 00000069H
  0037a	6e		 DB	 110			; 0000006eH
  0037b	74		 DB	 116			; 00000074H
  0037c	52		 DB	 82			; 00000052H
  0037d	53		 DB	 83			; 00000053H
  0037e	4c		 DB	 76			; 0000004cH
  0037f	65		 DB	 101			; 00000065H
  00380	6e		 DB	 110			; 0000006eH
  00381	00		 DB	 0
$LN17@Mod8FSKDat:
  00382	69		 DB	 105			; 00000069H
  00383	6e		 DB	 110			; 0000006eH
  00384	74		 DB	 116			; 00000074H
  00385	44		 DB	 68			; 00000044H
  00386	61		 DB	 97			; 00000061H
  00387	74		 DB	 116			; 00000074H
  00388	61		 DB	 97			; 00000061H
  00389	4c		 DB	 76			; 0000004cH
  0038a	65		 DB	 101			; 00000065H
  0038b	6e		 DB	 110			; 0000006eH
  0038c	00		 DB	 0
$LN16@Mod8FSKDat:
  0038d	69		 DB	 105			; 00000069H
  0038e	6e		 DB	 110			; 0000006eH
  0038f	74		 DB	 116			; 00000074H
  00390	42		 DB	 66			; 00000042H
  00391	61		 DB	 97			; 00000061H
  00392	75		 DB	 117			; 00000075H
  00393	64		 DB	 100			; 00000064H
  00394	00		 DB	 0
_Mod8FSKDataAndPlay ENDP
_TEXT	ENDS
PUBLIC	??_C@_05GMHCMGLE@16FSK?$AA@			; `string'
PUBLIC	__$ArrayPad$
PUBLIC	_Mod16FSKDataAndPlay
;	COMDAT ??_C@_05GMHCMGLE@16FSK?$AA@
CONST	SEGMENT
??_C@_05GMHCMGLE@16FSK?$AA@ DB '16FSK', 00H		; `string'
; Function compile flags: /Odtp /RTCsu /ZI
CONST	ENDS
;	COMDAT _Mod16FSKDataAndPlay
_TEXT	SEGMENT
_n$ = -256						; size = 4
_m$ = -244						; size = 4
_k$ = -232						; size = 4
_intMask$ = -220					; size = 4
_bytMinQualThresh$ = -205				; size = 1
_bytMask$ = -193					; size = 1
_bytSymToSend$ = -181					; size = 1
_strMod$ = -172						; size = 16
_strType$ = -148					; size = 18
_intThreeBytes$ = -120					; size = 4
_intSample$ = -108					; size = 2
_intNumCar$ = -96					; size = 4
_blnOdd$ = -84						; size = 4
_intDataBytesPerCar$ = -72				; size = 4
_intSampPerSym$ = -60					; size = 4
_intDataPtr$ = -48					; size = 4
_intRSLen$ = -36					; size = 4
_intDataLen$ = -24					; size = 4
_intBaud$ = -12						; size = 4
__$ArrayPad$ = -4					; size = 4
_Type$ = 8						; size = 4
_bytEncodedBytes$ = 12					; size = 4
_Len$ = 16						; size = 4
_intLeaderLen$ = 20					; size = 4
_Mod16FSKDataAndPlay PROC				; COMDAT

; 355  : {

  00000	55		 push	 ebp
  00001	8b ec		 mov	 ebp, esp
  00003	81 ec c4 01 00
	00		 sub	 esp, 452		; 000001c4H
  00009	53		 push	 ebx
  0000a	56		 push	 esi
  0000b	57		 push	 edi
  0000c	8d bd 3c fe ff
	ff		 lea	 edi, DWORD PTR [ebp-452]
  00012	b9 71 00 00 00	 mov	 ecx, 113		; 00000071H
  00017	b8 cc cc cc cc	 mov	 eax, -858993460		; ccccccccH
  0001c	f3 ab		 rep stosd
  0001e	a1 00 00 00 00	 mov	 eax, DWORD PTR ___security_cookie
  00023	33 c5		 xor	 eax, ebp
  00025	89 45 fc	 mov	 DWORD PTR __$ArrayPad$[ebp], eax

; 356  : 	// Function to Modulate data encoded for 16FSK, create
; 357  : 	// the 16 bit samples and send to sound interface
; 358  : 
; 359  : 	int intBaud, intDataLen, intRSLen, intDataPtr, intSampPerSym, intDataBytesPerCar;
; 360  : 	BOOL blnOdd;
; 361  : 	int intNumCar;
; 362  : 
; 363  : 	short intSample;
; 364  : 	unsigned int intThreeBytes = 0;

  00028	c7 45 88 00 00
	00 00		 mov	 DWORD PTR _intThreeBytes$[ebp], 0

; 365  : 
; 366  :     char strType[18] = "";

  0002f	a0 00 00 00 00	 mov	 al, BYTE PTR ??_C@_00CNPNBAHC@?$AA@
  00034	88 85 6c ff ff
	ff		 mov	 BYTE PTR _strType$[ebp], al
  0003a	33 c0		 xor	 eax, eax
  0003c	89 85 6d ff ff
	ff		 mov	 DWORD PTR _strType$[ebp+1], eax
  00042	89 85 71 ff ff
	ff		 mov	 DWORD PTR _strType$[ebp+5], eax
  00048	89 85 75 ff ff
	ff		 mov	 DWORD PTR _strType$[ebp+9], eax
  0004e	89 85 79 ff ff
	ff		 mov	 DWORD PTR _strType$[ebp+13], eax
  00054	88 85 7d ff ff
	ff		 mov	 BYTE PTR _strType$[ebp+17], al

; 367  :     char strMod[16] = "";

  0005a	a0 00 00 00 00	 mov	 al, BYTE PTR ??_C@_00CNPNBAHC@?$AA@
  0005f	88 85 54 ff ff
	ff		 mov	 BYTE PTR _strMod$[ebp], al
  00065	33 c0		 xor	 eax, eax
  00067	89 85 55 ff ff
	ff		 mov	 DWORD PTR _strMod$[ebp+1], eax
  0006d	89 85 59 ff ff
	ff		 mov	 DWORD PTR _strMod$[ebp+5], eax
  00073	89 85 5d ff ff
	ff		 mov	 DWORD PTR _strMod$[ebp+9], eax
  00079	66 89 85 61 ff
	ff ff		 mov	 WORD PTR _strMod$[ebp+13], ax
  00080	88 85 63 ff ff
	ff		 mov	 BYTE PTR _strMod$[ebp+15], al

; 368  : 
; 369  : 	UCHAR bytSymToSend, bytMask, bytMinQualThresh;
; 370  : 
; 371  : 	int intMask = 0;

  00086	c7 85 24 ff ff
	ff 00 00 00 00	 mov	 DWORD PTR _intMask$[ebp], 0

; 372  : 	int k, m, n;
; 373  : 
; 374  : 	if (!FrameInfo(Type, &blnOdd, &intNumCar, strMod, &intBaud, &intDataLen, &intRSLen, &bytMinQualThresh, strType))

  00090	8d 85 6c ff ff
	ff		 lea	 eax, DWORD PTR _strType$[ebp]
  00096	50		 push	 eax
  00097	8d 8d 33 ff ff
	ff		 lea	 ecx, DWORD PTR _bytMinQualThresh$[ebp]
  0009d	51		 push	 ecx
  0009e	8d 55 dc	 lea	 edx, DWORD PTR _intRSLen$[ebp]
  000a1	52		 push	 edx
  000a2	8d 45 e8	 lea	 eax, DWORD PTR _intDataLen$[ebp]
  000a5	50		 push	 eax
  000a6	8d 4d f4	 lea	 ecx, DWORD PTR _intBaud$[ebp]
  000a9	51		 push	 ecx
  000aa	8d 95 54 ff ff
	ff		 lea	 edx, DWORD PTR _strMod$[ebp]
  000b0	52		 push	 edx
  000b1	8d 45 a0	 lea	 eax, DWORD PTR _intNumCar$[ebp]
  000b4	50		 push	 eax
  000b5	8d 4d ac	 lea	 ecx, DWORD PTR _blnOdd$[ebp]
  000b8	51		 push	 ecx
  000b9	8a 55 08	 mov	 dl, BYTE PTR _Type$[ebp]
  000bc	52		 push	 edx
  000bd	e8 00 00 00 00	 call	 _FrameInfo
  000c2	83 c4 24	 add	 esp, 36			; 00000024H
  000c5	85 c0		 test	 eax, eax
  000c7	75 05		 jne	 SHORT $LN13@Mod16FSKDa

; 375  : 		return;

  000c9	e9 96 01 00 00	 jmp	 $LN14@Mod16FSKDa
$LN13@Mod16FSKDa:

; 376  : 
; 377  : 	if (strcmp(strMod, "16FSK") != 0)

  000ce	68 00 00 00 00	 push	 OFFSET ??_C@_05GMHCMGLE@16FSK?$AA@
  000d3	8d 85 54 ff ff
	ff		 lea	 eax, DWORD PTR _strMod$[ebp]
  000d9	50		 push	 eax
  000da	e8 00 00 00 00	 call	 _strcmp
  000df	83 c4 08	 add	 esp, 8
  000e2	85 c0		 test	 eax, eax
  000e4	74 05		 je	 SHORT $LN12@Mod16FSKDa

; 378  : 		return;

  000e6	e9 79 01 00 00	 jmp	 $LN14@Mod16FSKDa
$LN12@Mod16FSKDa:

; 379  : 
; 380  : 	WriteDebugLog(LOGDEBUG, "Sending Frame Type %s", strType);

  000eb	8d 85 6c ff ff
	ff		 lea	 eax, DWORD PTR _strType$[ebp]
  000f1	50		 push	 eax
  000f2	68 00 00 00 00	 push	 OFFSET ??_C@_0BG@KAOACCEH@Sending?5Frame?5Type?5?$CFs?$AA@
  000f7	6a 07		 push	 7
  000f9	e8 00 00 00 00	 call	 _WriteDebugLog
  000fe	83 c4 0c	 add	 esp, 12			; 0000000cH

; 381  : 
; 382  : 	initFilter(500);

  00101	68 f4 01 00 00	 push	 500			; 000001f4H
  00106	e8 00 00 00 00	 call	 _initFilter
  0010b	83 c4 04	 add	 esp, 4

; 383  : 
; 384  : //	If Not (strType = "DataACK" Or strType = "DataNAK" Or strType = "IDFrame" Or strType.StartsWith("ConReq") Or strType.StartsWith("ConAck")) Then
; 385  :  //               strLastWavStream = strType
; 386  :   //          End If
; 387  : 
; 388  : 	intDataBytesPerCar = (Len - 2) / intNumCar;		// We queue the samples here, so dont copy below    

  0010e	8b 45 10	 mov	 eax, DWORD PTR _Len$[ebp]
  00111	83 e8 02	 sub	 eax, 2
  00114	99		 cdq
  00115	f7 7d a0	 idiv	 DWORD PTR _intNumCar$[ebp]
  00118	89 45 b8	 mov	 DWORD PTR _intDataBytesPerCar$[ebp], eax

; 389  : 	intSampPerSym = 480;			// 25 Baud

  0011b	c7 45 c4 e0 01
	00 00		 mov	 DWORD PTR _intSampPerSym$[ebp], 480 ; 000001e0H

; 390  : 
; 391  : 	SendLeaderAndSYNC(bytEncodedBytes, intLeaderLen);

  00122	8b 45 14	 mov	 eax, DWORD PTR _intLeaderLen$[ebp]
  00125	50		 push	 eax
  00126	8b 4d 0c	 mov	 ecx, DWORD PTR _bytEncodedBytes$[ebp]
  00129	51		 push	 ecx
  0012a	e8 00 00 00 00	 call	 _SendLeaderAndSYNC
  0012f	83 c4 08	 add	 esp, 8

; 392  : 
; 393  : 	intDataPtr = 2;

  00132	c7 45 d0 02 00
	00 00		 mov	 DWORD PTR _intDataPtr$[ebp], 2

; 394  : 
; 395  : 	for (m = 0; m < intDataBytesPerCar; m++)  // For each byte of input data 

  00139	c7 85 0c ff ff
	ff 00 00 00 00	 mov	 DWORD PTR _m$[ebp], 0
  00143	eb 0f		 jmp	 SHORT $LN11@Mod16FSKDa
$LN10@Mod16FSKDa:
  00145	8b 85 0c ff ff
	ff		 mov	 eax, DWORD PTR _m$[ebp]
  0014b	83 c0 01	 add	 eax, 1
  0014e	89 85 0c ff ff
	ff		 mov	 DWORD PTR _m$[ebp], eax
$LN11@Mod16FSKDa:
  00154	8b 85 0c ff ff
	ff		 mov	 eax, DWORD PTR _m$[ebp]
  0015a	3b 45 b8	 cmp	 eax, DWORD PTR _intDataBytesPerCar$[ebp]
  0015d	0f 8d fc 00 00
	00		 jge	 $LN9@Mod16FSKDa

; 396  : 	{
; 397  : 		bytMask = 0xF0;	 // Initialize mask each new data byte

  00163	c6 85 3f ff ff
	ff f0		 mov	 BYTE PTR _bytMask$[ebp], 240 ; 000000f0H

; 398  : 		for (k = 0; k < 2; k++)	// for 2 symbol values per byte of data

  0016a	c7 85 18 ff ff
	ff 00 00 00 00	 mov	 DWORD PTR _k$[ebp], 0
  00174	eb 0f		 jmp	 SHORT $LN8@Mod16FSKDa
$LN7@Mod16FSKDa:
  00176	8b 85 18 ff ff
	ff		 mov	 eax, DWORD PTR _k$[ebp]
  0017c	83 c0 01	 add	 eax, 1
  0017f	89 85 18 ff ff
	ff		 mov	 DWORD PTR _k$[ebp], eax
$LN8@Mod16FSKDa:
  00185	83 bd 18 ff ff
	ff 02		 cmp	 DWORD PTR _k$[ebp], 2
  0018c	0f 8d bf 00 00
	00		 jge	 $LN6@Mod16FSKDa

; 399  : 		{
; 400  : 			bytSymToSend = (bytMask & bytEncodedBytes[intDataPtr]) >> (4 * (1 - k)); // Values 0 - 15

  00192	0f b6 85 3f ff
	ff ff		 movzx	 eax, BYTE PTR _bytMask$[ebp]
  00199	8b 4d 0c	 mov	 ecx, DWORD PTR _bytEncodedBytes$[ebp]
  0019c	03 4d d0	 add	 ecx, DWORD PTR _intDataPtr$[ebp]
  0019f	0f b6 11	 movzx	 edx, BYTE PTR [ecx]
  001a2	23 c2		 and	 eax, edx
  001a4	b9 01 00 00 00	 mov	 ecx, 1
  001a9	2b 8d 18 ff ff
	ff		 sub	 ecx, DWORD PTR _k$[ebp]
  001af	c1 e1 02	 shl	 ecx, 2
  001b2	d3 f8		 sar	 eax, cl
  001b4	88 85 4b ff ff
	ff		 mov	 BYTE PTR _bytSymToSend$[ebp], al

; 401  : 
; 402  : 			for (n = 0; n < intSampPerSym; n++)	 // Sum for all the samples of a symbols 

  001ba	c7 85 00 ff ff
	ff 00 00 00 00	 mov	 DWORD PTR _n$[ebp], 0
  001c4	eb 0f		 jmp	 SHORT $LN5@Mod16FSKDa
$LN4@Mod16FSKDa:
  001c6	8b 85 00 ff ff
	ff		 mov	 eax, DWORD PTR _n$[ebp]
  001cc	83 c0 01	 add	 eax, 1
  001cf	89 85 00 ff ff
	ff		 mov	 DWORD PTR _n$[ebp], eax
$LN5@Mod16FSKDa:
  001d5	8b 85 00 ff ff
	ff		 mov	 eax, DWORD PTR _n$[ebp]
  001db	3b 45 c4	 cmp	 eax, DWORD PTR _intSampPerSym$[ebp]
  001de	7d 5c		 jge	 SHORT $LN3@Mod16FSKDa

; 403  : 			{
; 404  : 				if((k & 1) == 0)

  001e0	8b 85 18 ff ff
	ff		 mov	 eax, DWORD PTR _k$[ebp]
  001e6	83 e0 01	 and	 eax, 1
  001e9	75 21		 jne	 SHORT $LN2@Mod16FSKDa

; 405  : 					intSample = intFSK25bdCarTemplate[bytSymToSend][n];

  001eb	0f b6 85 4b ff
	ff ff		 movzx	 eax, BYTE PTR _bytSymToSend$[ebp]
  001f2	69 c0 c0 03 00
	00		 imul	 eax, 960		; 000003c0H
  001f8	8b 8d 00 ff ff
	ff		 mov	 ecx, DWORD PTR _n$[ebp]
  001fe	66 8b 94 48 00
	00 00 00	 mov	 dx, WORD PTR _intFSK25bdCarTemplate[eax+ecx*2]
  00206	66 89 55 94	 mov	 WORD PTR _intSample$[ebp], dx

; 406  : 				else

  0020a	eb 21		 jmp	 SHORT $LN1@Mod16FSKDa
$LN2@Mod16FSKDa:

; 407  : 					intSample = -intFSK25bdCarTemplate[bytSymToSend][n];

  0020c	0f b6 85 4b ff
	ff ff		 movzx	 eax, BYTE PTR _bytSymToSend$[ebp]
  00213	69 c0 c0 03 00
	00		 imul	 eax, 960		; 000003c0H
  00219	8b 8d 00 ff ff
	ff		 mov	 ecx, DWORD PTR _n$[ebp]
  0021f	0f bf 94 48 00
	00 00 00	 movsx	 edx, WORD PTR _intFSK25bdCarTemplate[eax+ecx*2]
  00227	f7 da		 neg	 edx
  00229	66 89 55 94	 mov	 WORD PTR _intSample$[ebp], dx
$LN1@Mod16FSKDa:

; 408  : 
; 409  : 				SampleSink(intSample);

  0022d	66 8b 45 94	 mov	 ax, WORD PTR _intSample$[ebp]
  00231	50		 push	 eax
  00232	e8 00 00 00 00	 call	 _SampleSink
  00237	83 c4 04	 add	 esp, 4

; 410  : 			}

  0023a	eb 8a		 jmp	 SHORT $LN4@Mod16FSKDa
$LN3@Mod16FSKDa:

; 411  : 			bytMask = bytMask >> 4;

  0023c	0f b6 85 3f ff
	ff ff		 movzx	 eax, BYTE PTR _bytMask$[ebp]
  00243	c1 f8 04	 sar	 eax, 4
  00246	88 85 3f ff ff
	ff		 mov	 BYTE PTR _bytMask$[ebp], al

; 412  : 		}

  0024c	e9 25 ff ff ff	 jmp	 $LN7@Mod16FSKDa
$LN6@Mod16FSKDa:

; 413  : 		intDataPtr++;

  00251	8b 45 d0	 mov	 eax, DWORD PTR _intDataPtr$[ebp]
  00254	83 c0 01	 add	 eax, 1
  00257	89 45 d0	 mov	 DWORD PTR _intDataPtr$[ebp], eax

; 414  : 	}

  0025a	e9 e6 fe ff ff	 jmp	 $LN10@Mod16FSKDa
$LN9@Mod16FSKDa:

; 415  : 	Flush();

  0025f	e8 00 00 00 00	 call	 _Flush
$LN14@Mod16FSKDa:

; 416  : }

  00264	52		 push	 edx
  00265	8b cd		 mov	 ecx, ebp
  00267	50		 push	 eax
  00268	8d 15 00 00 00
	00		 lea	 edx, DWORD PTR $LN25@Mod16FSKDa
  0026e	e8 00 00 00 00	 call	 @_RTC_CheckStackVars@8
  00273	58		 pop	 eax
  00274	5a		 pop	 edx
  00275	5f		 pop	 edi
  00276	5e		 pop	 esi
  00277	5b		 pop	 ebx
  00278	8b 4d fc	 mov	 ecx, DWORD PTR __$ArrayPad$[ebp]
  0027b	33 cd		 xor	 ecx, ebp
  0027d	e8 00 00 00 00	 call	 @__security_check_cookie@4
  00282	81 c4 c4 01 00
	00		 add	 esp, 452		; 000001c4H
  00288	3b ec		 cmp	 ebp, esp
  0028a	e8 00 00 00 00	 call	 __RTC_CheckEsp
  0028f	8b e5		 mov	 esp, ebp
  00291	5d		 pop	 ebp
  00292	c3		 ret	 0
  00293	90		 npad	 1
$LN25@Mod16FSKDa:
  00294	08 00 00 00	 DD	 8
  00298	00 00 00 00	 DD	 $LN24@Mod16FSKDa
$LN24@Mod16FSKDa:
  0029c	f4 ff ff ff	 DD	 -12			; fffffff4H
  002a0	04 00 00 00	 DD	 4
  002a4	00 00 00 00	 DD	 $LN16@Mod16FSKDa
  002a8	e8 ff ff ff	 DD	 -24			; ffffffe8H
  002ac	04 00 00 00	 DD	 4
  002b0	00 00 00 00	 DD	 $LN17@Mod16FSKDa
  002b4	dc ff ff ff	 DD	 -36			; ffffffdcH
  002b8	04 00 00 00	 DD	 4
  002bc	00 00 00 00	 DD	 $LN18@Mod16FSKDa
  002c0	ac ff ff ff	 DD	 -84			; ffffffacH
  002c4	04 00 00 00	 DD	 4
  002c8	00 00 00 00	 DD	 $LN19@Mod16FSKDa
  002cc	a0 ff ff ff	 DD	 -96			; ffffffa0H
  002d0	04 00 00 00	 DD	 4
  002d4	00 00 00 00	 DD	 $LN20@Mod16FSKDa
  002d8	6c ff ff ff	 DD	 -148			; ffffff6cH
  002dc	12 00 00 00	 DD	 18			; 00000012H
  002e0	00 00 00 00	 DD	 $LN21@Mod16FSKDa
  002e4	54 ff ff ff	 DD	 -172			; ffffff54H
  002e8	10 00 00 00	 DD	 16			; 00000010H
  002ec	00 00 00 00	 DD	 $LN22@Mod16FSKDa
  002f0	33 ff ff ff	 DD	 -205			; ffffff33H
  002f4	01 00 00 00	 DD	 1
  002f8	00 00 00 00	 DD	 $LN23@Mod16FSKDa
$LN23@Mod16FSKDa:
  002fc	62		 DB	 98			; 00000062H
  002fd	79		 DB	 121			; 00000079H
  002fe	74		 DB	 116			; 00000074H
  002ff	4d		 DB	 77			; 0000004dH
  00300	69		 DB	 105			; 00000069H
  00301	6e		 DB	 110			; 0000006eH
  00302	51		 DB	 81			; 00000051H
  00303	75		 DB	 117			; 00000075H
  00304	61		 DB	 97			; 00000061H
  00305	6c		 DB	 108			; 0000006cH
  00306	54		 DB	 84			; 00000054H
  00307	68		 DB	 104			; 00000068H
  00308	72		 DB	 114			; 00000072H
  00309	65		 DB	 101			; 00000065H
  0030a	73		 DB	 115			; 00000073H
  0030b	68		 DB	 104			; 00000068H
  0030c	00		 DB	 0
$LN22@Mod16FSKDa:
  0030d	73		 DB	 115			; 00000073H
  0030e	74		 DB	 116			; 00000074H
  0030f	72		 DB	 114			; 00000072H
  00310	4d		 DB	 77			; 0000004dH
  00311	6f		 DB	 111			; 0000006fH
  00312	64		 DB	 100			; 00000064H
  00313	00		 DB	 0
$LN21@Mod16FSKDa:
  00314	73		 DB	 115			; 00000073H
  00315	74		 DB	 116			; 00000074H
  00316	72		 DB	 114			; 00000072H
  00317	54		 DB	 84			; 00000054H
  00318	79		 DB	 121			; 00000079H
  00319	70		 DB	 112			; 00000070H
  0031a	65		 DB	 101			; 00000065H
  0031b	00		 DB	 0
$LN20@Mod16FSKDa:
  0031c	69		 DB	 105			; 00000069H
  0031d	6e		 DB	 110			; 0000006eH
  0031e	74		 DB	 116			; 00000074H
  0031f	4e		 DB	 78			; 0000004eH
  00320	75		 DB	 117			; 00000075H
  00321	6d		 DB	 109			; 0000006dH
  00322	43		 DB	 67			; 00000043H
  00323	61		 DB	 97			; 00000061H
  00324	72		 DB	 114			; 00000072H
  00325	00		 DB	 0
$LN19@Mod16FSKDa:
  00326	62		 DB	 98			; 00000062H
  00327	6c		 DB	 108			; 0000006cH
  00328	6e		 DB	 110			; 0000006eH
  00329	4f		 DB	 79			; 0000004fH
  0032a	64		 DB	 100			; 00000064H
  0032b	64		 DB	 100			; 00000064H
  0032c	00		 DB	 0
$LN18@Mod16FSKDa:
  0032d	69		 DB	 105			; 00000069H
  0032e	6e		 DB	 110			; 0000006eH
  0032f	74		 DB	 116			; 00000074H
  00330	52		 DB	 82			; 00000052H
  00331	53		 DB	 83			; 00000053H
  00332	4c		 DB	 76			; 0000004cH
  00333	65		 DB	 101			; 00000065H
  00334	6e		 DB	 110			; 0000006eH
  00335	00		 DB	 0
$LN17@Mod16FSKDa:
  00336	69		 DB	 105			; 00000069H
  00337	6e		 DB	 110			; 0000006eH
  00338	74		 DB	 116			; 00000074H
  00339	44		 DB	 68			; 00000044H
  0033a	61		 DB	 97			; 00000061H
  0033b	74		 DB	 116			; 00000074H
  0033c	61		 DB	 97			; 00000061H
  0033d	4c		 DB	 76			; 0000004cH
  0033e	65		 DB	 101			; 00000065H
  0033f	6e		 DB	 110			; 0000006eH
  00340	00		 DB	 0
$LN16@Mod16FSKDa:
  00341	69		 DB	 105			; 00000069H
  00342	6e		 DB	 110			; 0000006eH
  00343	74		 DB	 116			; 00000074H
  00344	42		 DB	 66			; 00000042H
  00345	61		 DB	 97			; 00000061H
  00346	75		 DB	 117			; 00000075H
  00347	64		 DB	 100			; 00000064H
  00348	00		 DB	 0
_Mod16FSKDataAndPlay ENDP
_TEXT	ENDS
PUBLIC	__$ArrayPad$
PUBLIC	_Mod4FSK600BdDataAndPlay
EXTRN	_intFSK600bdCarTemplate:BYTE
; Function compile flags: /Odtp /RTCsu /ZI
;	COMDAT _Mod4FSK600BdDataAndPlay
_TEXT	SEGMENT
_n$ = -244						; size = 4
_m$ = -232						; size = 4
_k$ = -220						; size = 4
_intMask$ = -208					; size = 4
_bytMinQualThresh$ = -193				; size = 1
_bytMask$ = -181					; size = 1
_bytSymToSend$ = -169					; size = 1
_strMod$ = -160						; size = 16
_strType$ = -136					; size = 18
_intSample$ = -108					; size = 2
_blnOdd$ = -96						; size = 4
_intDataBytesPerCar$ = -84				; size = 4
_intSampPerSym$ = -72					; size = 4
_intDataPtr$ = -60					; size = 4
_intRSLen$ = -48					; size = 4
_intDataLen$ = -36					; size = 4
_intBaud$ = -24						; size = 4
_intNumCar$ = -12					; size = 4
__$ArrayPad$ = -4					; size = 4
_Type$ = 8						; size = 4
_bytEncodedBytes$ = 12					; size = 4
_Len$ = 16						; size = 4
_intLeaderLen$ = 20					; size = 4
_Mod4FSK600BdDataAndPlay PROC				; COMDAT

; 423  : {

  00000	55		 push	 ebp
  00001	8b ec		 mov	 ebp, esp
  00003	81 ec b8 01 00
	00		 sub	 esp, 440		; 000001b8H
  00009	53		 push	 ebx
  0000a	56		 push	 esi
  0000b	57		 push	 edi
  0000c	8d bd 48 fe ff
	ff		 lea	 edi, DWORD PTR [ebp-440]
  00012	b9 6e 00 00 00	 mov	 ecx, 110		; 0000006eH
  00017	b8 cc cc cc cc	 mov	 eax, -858993460		; ccccccccH
  0001c	f3 ab		 rep stosd
  0001e	a1 00 00 00 00	 mov	 eax, DWORD PTR ___security_cookie
  00023	33 c5		 xor	 eax, ebp
  00025	89 45 fc	 mov	 DWORD PTR __$ArrayPad$[ebp], eax

; 424  : 	// Function to Modulate data encoded for 4FSK, create
; 425  : 	// the 16 bit samples and send to sound interface
; 426  : 
; 427  : 	// Function works for 1, 2 or 4 simultaneous carriers 
; 428  : 
; 429  : 	int intNumCar, intBaud, intDataLen, intRSLen, intDataPtr, intSampPerSym, intDataBytesPerCar;
; 430  : 	BOOL blnOdd;
; 431  : 
; 432  : 	short intSample;
; 433  : 
; 434  :     char strType[18] = "";

  00028	a0 00 00 00 00	 mov	 al, BYTE PTR ??_C@_00CNPNBAHC@?$AA@
  0002d	88 85 78 ff ff
	ff		 mov	 BYTE PTR _strType$[ebp], al
  00033	33 c0		 xor	 eax, eax
  00035	89 85 79 ff ff
	ff		 mov	 DWORD PTR _strType$[ebp+1], eax
  0003b	89 85 7d ff ff
	ff		 mov	 DWORD PTR _strType$[ebp+5], eax
  00041	89 45 81	 mov	 DWORD PTR _strType$[ebp+9], eax
  00044	89 45 85	 mov	 DWORD PTR _strType$[ebp+13], eax
  00047	88 45 89	 mov	 BYTE PTR _strType$[ebp+17], al

; 435  :     char strMod[16] = "";

  0004a	a0 00 00 00 00	 mov	 al, BYTE PTR ??_C@_00CNPNBAHC@?$AA@
  0004f	88 85 60 ff ff
	ff		 mov	 BYTE PTR _strMod$[ebp], al
  00055	33 c0		 xor	 eax, eax
  00057	89 85 61 ff ff
	ff		 mov	 DWORD PTR _strMod$[ebp+1], eax
  0005d	89 85 65 ff ff
	ff		 mov	 DWORD PTR _strMod$[ebp+5], eax
  00063	89 85 69 ff ff
	ff		 mov	 DWORD PTR _strMod$[ebp+9], eax
  00069	66 89 85 6d ff
	ff ff		 mov	 WORD PTR _strMod$[ebp+13], ax
  00070	88 85 6f ff ff
	ff		 mov	 BYTE PTR _strMod$[ebp+15], al

; 436  : 
; 437  : 	UCHAR bytSymToSend, bytMask, bytMinQualThresh;
; 438  : 
; 439  : 	int intMask = 0;

  00076	c7 85 30 ff ff
	ff 00 00 00 00	 mov	 DWORD PTR _intMask$[ebp], 0

; 440  : 	int k, m, n;
; 441  : 
; 442  : 	if (!FrameInfo(Type, &blnOdd, &intNumCar, strMod, &intBaud, &intDataLen, &intRSLen, &bytMinQualThresh, strType))

  00080	8d 85 78 ff ff
	ff		 lea	 eax, DWORD PTR _strType$[ebp]
  00086	50		 push	 eax
  00087	8d 8d 3f ff ff
	ff		 lea	 ecx, DWORD PTR _bytMinQualThresh$[ebp]
  0008d	51		 push	 ecx
  0008e	8d 55 d0	 lea	 edx, DWORD PTR _intRSLen$[ebp]
  00091	52		 push	 edx
  00092	8d 45 dc	 lea	 eax, DWORD PTR _intDataLen$[ebp]
  00095	50		 push	 eax
  00096	8d 4d e8	 lea	 ecx, DWORD PTR _intBaud$[ebp]
  00099	51		 push	 ecx
  0009a	8d 95 60 ff ff
	ff		 lea	 edx, DWORD PTR _strMod$[ebp]
  000a0	52		 push	 edx
  000a1	8d 45 f4	 lea	 eax, DWORD PTR _intNumCar$[ebp]
  000a4	50		 push	 eax
  000a5	8d 4d a0	 lea	 ecx, DWORD PTR _blnOdd$[ebp]
  000a8	51		 push	 ecx
  000a9	8a 55 08	 mov	 dl, BYTE PTR _Type$[ebp]
  000ac	52		 push	 edx
  000ad	e8 00 00 00 00	 call	 _FrameInfo
  000b2	83 c4 24	 add	 esp, 36			; 00000024H
  000b5	85 c0		 test	 eax, eax
  000b7	75 05		 jne	 SHORT $LN11@Mod4FSK600

; 443  : 		return;

  000b9	e9 69 01 00 00	 jmp	 $LN12@Mod4FSK600
$LN11@Mod4FSK600:

; 444  : 
; 445  : 	if (strcmp(strMod, "4FSK") != 0)

  000be	68 00 00 00 00	 push	 OFFSET ??_C@_04KOHEBHGC@4FSK?$AA@
  000c3	8d 85 60 ff ff
	ff		 lea	 eax, DWORD PTR _strMod$[ebp]
  000c9	50		 push	 eax
  000ca	e8 00 00 00 00	 call	 _strcmp
  000cf	83 c4 08	 add	 esp, 8
  000d2	85 c0		 test	 eax, eax
  000d4	74 05		 je	 SHORT $LN10@Mod4FSK600

; 446  : 		return;

  000d6	e9 4c 01 00 00	 jmp	 $LN12@Mod4FSK600
$LN10@Mod4FSK600:

; 447  : 
; 448  : 	WriteDebugLog(LOGDEBUG, "Sending Frame Type %s", strType);

  000db	8d 85 78 ff ff
	ff		 lea	 eax, DWORD PTR _strType$[ebp]
  000e1	50		 push	 eax
  000e2	68 00 00 00 00	 push	 OFFSET ??_C@_0BG@KAOACCEH@Sending?5Frame?5Type?5?$CFs?$AA@
  000e7	6a 07		 push	 7
  000e9	e8 00 00 00 00	 call	 _WriteDebugLog
  000ee	83 c4 0c	 add	 esp, 12			; 0000000cH

; 449  : 
; 450  : 	initFilter(2000);

  000f1	68 d0 07 00 00	 push	 2000			; 000007d0H
  000f6	e8 00 00 00 00	 call	 _initFilter
  000fb	83 c4 04	 add	 esp, 4

; 451  : 
; 452  : //	If Not (strType = "DataACK" Or strType = "DataNAK" Or strType = "IDFrame" Or strType.StartsWith("ConReq") Or strType.StartsWith("ConAck")) Then
; 453  :  //               strLastWavStream = strType
; 454  :   //          End If
; 455  : 
; 456  : 	intDataBytesPerCar = (Len - 2) / intNumCar;		// We queue the samples here, so dont copy below

  000fe	8b 45 10	 mov	 eax, DWORD PTR _Len$[ebp]
  00101	83 e8 02	 sub	 eax, 2
  00104	99		 cdq
  00105	f7 7d f4	 idiv	 DWORD PTR _intNumCar$[ebp]
  00108	89 45 ac	 mov	 DWORD PTR _intDataBytesPerCar$[ebp], eax

; 457  : 
; 458  : 	intSampPerSym = 12000 / intBaud;

  0010b	b8 e0 2e 00 00	 mov	 eax, 12000		; 00002ee0H
  00110	99		 cdq
  00111	f7 7d e8	 idiv	 DWORD PTR _intBaud$[ebp]
  00114	89 45 b8	 mov	 DWORD PTR _intSampPerSym$[ebp], eax

; 459  :     
; 460  : 	SendLeaderAndSYNC(bytEncodedBytes, intLeaderLen);

  00117	8b 45 14	 mov	 eax, DWORD PTR _intLeaderLen$[ebp]
  0011a	50		 push	 eax
  0011b	8b 4d 0c	 mov	 ecx, DWORD PTR _bytEncodedBytes$[ebp]
  0011e	51		 push	 ecx
  0011f	e8 00 00 00 00	 call	 _SendLeaderAndSYNC
  00124	83 c4 08	 add	 esp, 8

; 461  : 
; 462  : 	intDataPtr = 2;

  00127	c7 45 c4 02 00
	00 00		 mov	 DWORD PTR _intDataPtr$[ebp], 2

; 463  : 
; 464  : 	for (m = 0; m < intDataBytesPerCar; m++)  // For each byte of input data

  0012e	c7 85 18 ff ff
	ff 00 00 00 00	 mov	 DWORD PTR _m$[ebp], 0
  00138	eb 0f		 jmp	 SHORT $LN9@Mod4FSK600
$LN8@Mod4FSK600:
  0013a	8b 85 18 ff ff
	ff		 mov	 eax, DWORD PTR _m$[ebp]
  00140	83 c0 01	 add	 eax, 1
  00143	89 85 18 ff ff
	ff		 mov	 DWORD PTR _m$[ebp], eax
$LN9@Mod4FSK600:
  00149	8b 85 18 ff ff
	ff		 mov	 eax, DWORD PTR _m$[ebp]
  0014f	3b 45 ac	 cmp	 eax, DWORD PTR _intDataBytesPerCar$[ebp]
  00152	0f 8d ca 00 00
	00		 jge	 $LN7@Mod4FSK600

; 465  : 	{
; 466  : 		bytMask = 0xC0;		 // Initialize mask each new data byte			

  00158	c6 85 4b ff ff
	ff c0		 mov	 BYTE PTR _bytMask$[ebp], 192 ; 000000c0H

; 467  : 		for (k = 0; k < 4; k++)		// for 4 symbol values per byte of data

  0015f	c7 85 24 ff ff
	ff 00 00 00 00	 mov	 DWORD PTR _k$[ebp], 0
  00169	eb 0f		 jmp	 SHORT $LN6@Mod4FSK600
$LN5@Mod4FSK600:
  0016b	8b 85 24 ff ff
	ff		 mov	 eax, DWORD PTR _k$[ebp]
  00171	83 c0 01	 add	 eax, 1
  00174	89 85 24 ff ff
	ff		 mov	 DWORD PTR _k$[ebp], eax
$LN6@Mod4FSK600:
  0017a	83 bd 24 ff ff
	ff 04		 cmp	 DWORD PTR _k$[ebp], 4
  00181	0f 8d 8d 00 00
	00		 jge	 $LN4@Mod4FSK600

; 468  : 		{
; 469  : 			bytSymToSend = (bytMask & bytEncodedBytes[intDataPtr]) >> (2 * (3 - k)); // Values 0-3

  00187	0f b6 85 4b ff
	ff ff		 movzx	 eax, BYTE PTR _bytMask$[ebp]
  0018e	8b 4d 0c	 mov	 ecx, DWORD PTR _bytEncodedBytes$[ebp]
  00191	03 4d c4	 add	 ecx, DWORD PTR _intDataPtr$[ebp]
  00194	0f b6 11	 movzx	 edx, BYTE PTR [ecx]
  00197	23 c2		 and	 eax, edx
  00199	b9 03 00 00 00	 mov	 ecx, 3
  0019e	2b 8d 24 ff ff
	ff		 sub	 ecx, DWORD PTR _k$[ebp]
  001a4	d1 e1		 shl	 ecx, 1
  001a6	d3 f8		 sar	 eax, cl
  001a8	88 85 57 ff ff
	ff		 mov	 BYTE PTR _bytSymToSend$[ebp], al

; 470  : 			for (n = 0; n < intSampPerSym; n++)	 // Sum for all the samples of a symbols 

  001ae	c7 85 0c ff ff
	ff 00 00 00 00	 mov	 DWORD PTR _n$[ebp], 0
  001b8	eb 0f		 jmp	 SHORT $LN3@Mod4FSK600
$LN2@Mod4FSK600:
  001ba	8b 85 0c ff ff
	ff		 mov	 eax, DWORD PTR _n$[ebp]
  001c0	83 c0 01	 add	 eax, 1
  001c3	89 85 0c ff ff
	ff		 mov	 DWORD PTR _n$[ebp], eax
$LN3@Mod4FSK600:
  001c9	8b 85 0c ff ff
	ff		 mov	 eax, DWORD PTR _n$[ebp]
  001cf	3b 45 b8	 cmp	 eax, DWORD PTR _intSampPerSym$[ebp]
  001d2	7d 2b		 jge	 SHORT $LN1@Mod4FSK600

; 471  : 			{
; 472  :     			intSample = intFSK600bdCarTemplate[bytSymToSend][n];

  001d4	0f b6 85 57 ff
	ff ff		 movzx	 eax, BYTE PTR _bytSymToSend$[ebp]
  001db	6b c0 28	 imul	 eax, 40			; 00000028H
  001de	8b 8d 0c ff ff
	ff		 mov	 ecx, DWORD PTR _n$[ebp]
  001e4	66 8b 94 48 00
	00 00 00	 mov	 dx, WORD PTR _intFSK600bdCarTemplate[eax+ecx*2]
  001ec	66 89 55 94	 mov	 WORD PTR _intSample$[ebp], dx

; 473  : 				SampleSink(intSample);

  001f0	66 8b 45 94	 mov	 ax, WORD PTR _intSample$[ebp]
  001f4	50		 push	 eax
  001f5	e8 00 00 00 00	 call	 _SampleSink
  001fa	83 c4 04	 add	 esp, 4

; 474  : 			}

  001fd	eb bb		 jmp	 SHORT $LN2@Mod4FSK600
$LN1@Mod4FSK600:

; 475  : 			bytMask = bytMask >> 2;

  001ff	0f b6 85 4b ff
	ff ff		 movzx	 eax, BYTE PTR _bytMask$[ebp]
  00206	c1 f8 02	 sar	 eax, 2
  00209	88 85 4b ff ff
	ff		 mov	 BYTE PTR _bytMask$[ebp], al

; 476  : 		}

  0020f	e9 57 ff ff ff	 jmp	 $LN5@Mod4FSK600
$LN4@Mod4FSK600:

; 477  : 		intDataPtr += 1;

  00214	8b 45 c4	 mov	 eax, DWORD PTR _intDataPtr$[ebp]
  00217	83 c0 01	 add	 eax, 1
  0021a	89 45 c4	 mov	 DWORD PTR _intDataPtr$[ebp], eax

; 478  : 	}

  0021d	e9 18 ff ff ff	 jmp	 $LN8@Mod4FSK600
$LN7@Mod4FSK600:

; 479  : 	Flush();

  00222	e8 00 00 00 00	 call	 _Flush
$LN12@Mod4FSK600:

; 480  : }

  00227	52		 push	 edx
  00228	8b cd		 mov	 ecx, ebp
  0022a	50		 push	 eax
  0022b	8d 15 00 00 00
	00		 lea	 edx, DWORD PTR $LN23@Mod4FSK600
  00231	e8 00 00 00 00	 call	 @_RTC_CheckStackVars@8
  00236	58		 pop	 eax
  00237	5a		 pop	 edx
  00238	5f		 pop	 edi
  00239	5e		 pop	 esi
  0023a	5b		 pop	 ebx
  0023b	8b 4d fc	 mov	 ecx, DWORD PTR __$ArrayPad$[ebp]
  0023e	33 cd		 xor	 ecx, ebp
  00240	e8 00 00 00 00	 call	 @__security_check_cookie@4
  00245	81 c4 b8 01 00
	00		 add	 esp, 440		; 000001b8H
  0024b	3b ec		 cmp	 ebp, esp
  0024d	e8 00 00 00 00	 call	 __RTC_CheckEsp
  00252	8b e5		 mov	 esp, ebp
  00254	5d		 pop	 ebp
  00255	c3		 ret	 0
  00256	8b ff		 npad	 2
$LN23@Mod4FSK600:
  00258	08 00 00 00	 DD	 8
  0025c	00 00 00 00	 DD	 $LN22@Mod4FSK600
$LN22@Mod4FSK600:
  00260	f4 ff ff ff	 DD	 -12			; fffffff4H
  00264	04 00 00 00	 DD	 4
  00268	00 00 00 00	 DD	 $LN14@Mod4FSK600
  0026c	e8 ff ff ff	 DD	 -24			; ffffffe8H
  00270	04 00 00 00	 DD	 4
  00274	00 00 00 00	 DD	 $LN15@Mod4FSK600
  00278	dc ff ff ff	 DD	 -36			; ffffffdcH
  0027c	04 00 00 00	 DD	 4
  00280	00 00 00 00	 DD	 $LN16@Mod4FSK600
  00284	d0 ff ff ff	 DD	 -48			; ffffffd0H
  00288	04 00 00 00	 DD	 4
  0028c	00 00 00 00	 DD	 $LN17@Mod4FSK600
  00290	a0 ff ff ff	 DD	 -96			; ffffffa0H
  00294	04 00 00 00	 DD	 4
  00298	00 00 00 00	 DD	 $LN18@Mod4FSK600
  0029c	78 ff ff ff	 DD	 -136			; ffffff78H
  002a0	12 00 00 00	 DD	 18			; 00000012H
  002a4	00 00 00 00	 DD	 $LN19@Mod4FSK600
  002a8	60 ff ff ff	 DD	 -160			; ffffff60H
  002ac	10 00 00 00	 DD	 16			; 00000010H
  002b0	00 00 00 00	 DD	 $LN20@Mod4FSK600
  002b4	3f ff ff ff	 DD	 -193			; ffffff3fH
  002b8	01 00 00 00	 DD	 1
  002bc	00 00 00 00	 DD	 $LN21@Mod4FSK600
$LN21@Mod4FSK600:
  002c0	62		 DB	 98			; 00000062H
  002c1	79		 DB	 121			; 00000079H
  002c2	74		 DB	 116			; 00000074H
  002c3	4d		 DB	 77			; 0000004dH
  002c4	69		 DB	 105			; 00000069H
  002c5	6e		 DB	 110			; 0000006eH
  002c6	51		 DB	 81			; 00000051H
  002c7	75		 DB	 117			; 00000075H
  002c8	61		 DB	 97			; 00000061H
  002c9	6c		 DB	 108			; 0000006cH
  002ca	54		 DB	 84			; 00000054H
  002cb	68		 DB	 104			; 00000068H
  002cc	72		 DB	 114			; 00000072H
  002cd	65		 DB	 101			; 00000065H
  002ce	73		 DB	 115			; 00000073H
  002cf	68		 DB	 104			; 00000068H
  002d0	00		 DB	 0
$LN20@Mod4FSK600:
  002d1	73		 DB	 115			; 00000073H
  002d2	74		 DB	 116			; 00000074H
  002d3	72		 DB	 114			; 00000072H
  002d4	4d		 DB	 77			; 0000004dH
  002d5	6f		 DB	 111			; 0000006fH
  002d6	64		 DB	 100			; 00000064H
  002d7	00		 DB	 0
$LN19@Mod4FSK600:
  002d8	73		 DB	 115			; 00000073H
  002d9	74		 DB	 116			; 00000074H
  002da	72		 DB	 114			; 00000072H
  002db	54		 DB	 84			; 00000054H
  002dc	79		 DB	 121			; 00000079H
  002dd	70		 DB	 112			; 00000070H
  002de	65		 DB	 101			; 00000065H
  002df	00		 DB	 0
$LN18@Mod4FSK600:
  002e0	62		 DB	 98			; 00000062H
  002e1	6c		 DB	 108			; 0000006cH
  002e2	6e		 DB	 110			; 0000006eH
  002e3	4f		 DB	 79			; 0000004fH
  002e4	64		 DB	 100			; 00000064H
  002e5	64		 DB	 100			; 00000064H
  002e6	00		 DB	 0
$LN17@Mod4FSK600:
  002e7	69		 DB	 105			; 00000069H
  002e8	6e		 DB	 110			; 0000006eH
  002e9	74		 DB	 116			; 00000074H
  002ea	52		 DB	 82			; 00000052H
  002eb	53		 DB	 83			; 00000053H
  002ec	4c		 DB	 76			; 0000004cH
  002ed	65		 DB	 101			; 00000065H
  002ee	6e		 DB	 110			; 0000006eH
  002ef	00		 DB	 0
$LN16@Mod4FSK600:
  002f0	69		 DB	 105			; 00000069H
  002f1	6e		 DB	 110			; 0000006eH
  002f2	74		 DB	 116			; 00000074H
  002f3	44		 DB	 68			; 00000044H
  002f4	61		 DB	 97			; 00000061H
  002f5	74		 DB	 116			; 00000074H
  002f6	61		 DB	 97			; 00000061H
  002f7	4c		 DB	 76			; 0000004cH
  002f8	65		 DB	 101			; 00000065H
  002f9	6e		 DB	 110			; 0000006eH
  002fa	00		 DB	 0
$LN15@Mod4FSK600:
  002fb	69		 DB	 105			; 00000069H
  002fc	6e		 DB	 110			; 0000006eH
  002fd	74		 DB	 116			; 00000074H
  002fe	42		 DB	 66			; 00000042H
  002ff	61		 DB	 97			; 00000061H
  00300	75		 DB	 117			; 00000075H
  00301	64		 DB	 100			; 00000064H
  00302	00		 DB	 0
$LN14@Mod4FSK600:
  00303	69		 DB	 105			; 00000069H
  00304	6e		 DB	 110			; 0000006eH
  00305	74		 DB	 116			; 00000074H
  00306	4e		 DB	 78			; 0000004eH
  00307	75		 DB	 117			; 00000075H
  00308	6d		 DB	 109			; 0000006dH
  00309	43		 DB	 67			; 00000043H
  0030a	61		 DB	 97			; 00000061H
  0030b	72		 DB	 114			; 00000072H
  0030c	00		 DB	 0
_Mod4FSK600BdDataAndPlay ENDP
_TEXT	ENDS
PUBLIC	_GetSym8PSK
; Function compile flags: /Odtp /RTCsu /ZI
;	COMDAT _GetSym8PSK
_TEXT	SEGMENT
_bytSym$ = -29						; size = 1
_intSym$ = -20						; size = 4
_int3Bytes$ = -8					; size = 4
_intDataPtr$ = 8					; size = 4
_k$ = 12						; size = 4
_intCar$ = 16						; size = 4
_bytEncodedBytes$ = 20					; size = 4
_intDataBytesPerCar$ = 24				; size = 4
_GetSym8PSK PROC					; COMDAT

; 487  : {

  00000	55		 push	 ebp
  00001	8b ec		 mov	 ebp, esp
  00003	81 ec e4 00 00
	00		 sub	 esp, 228		; 000000e4H
  00009	53		 push	 ebx
  0000a	56		 push	 esi
  0000b	57		 push	 edi
  0000c	8d bd 1c ff ff
	ff		 lea	 edi, DWORD PTR [ebp-228]
  00012	b9 39 00 00 00	 mov	 ecx, 57			; 00000039H
  00017	b8 cc cc cc cc	 mov	 eax, -858993460		; ccccccccH
  0001c	f3 ab		 rep stosd

; 488  : 	int int3Bytes = bytEncodedBytes[intDataPtr + intCar * intDataBytesPerCar];

  0001e	8b 45 10	 mov	 eax, DWORD PTR _intCar$[ebp]
  00021	0f af 45 18	 imul	 eax, DWORD PTR _intDataBytesPerCar$[ebp]
  00025	03 45 08	 add	 eax, DWORD PTR _intDataPtr$[ebp]
  00028	8b 4d 14	 mov	 ecx, DWORD PTR _bytEncodedBytes$[ebp]
  0002b	0f b6 14 01	 movzx	 edx, BYTE PTR [ecx+eax]
  0002f	89 55 f8	 mov	 DWORD PTR _int3Bytes$[ebp], edx

; 489  : //	int intMask  = 7;
; 490  : 	int intSym;
; 491  : 	UCHAR bytSym;
; 492  : 
; 493  : 	int3Bytes = int3Bytes << 8;

  00032	8b 45 f8	 mov	 eax, DWORD PTR _int3Bytes$[ebp]
  00035	c1 e0 08	 shl	 eax, 8
  00038	89 45 f8	 mov	 DWORD PTR _int3Bytes$[ebp], eax

; 494  : 	int3Bytes += bytEncodedBytes[intDataPtr + intCar * intDataBytesPerCar + 1];

  0003b	8b 45 10	 mov	 eax, DWORD PTR _intCar$[ebp]
  0003e	0f af 45 18	 imul	 eax, DWORD PTR _intDataBytesPerCar$[ebp]
  00042	03 45 08	 add	 eax, DWORD PTR _intDataPtr$[ebp]
  00045	8b 4d 14	 mov	 ecx, DWORD PTR _bytEncodedBytes$[ebp]
  00048	0f b6 54 01 01	 movzx	 edx, BYTE PTR [ecx+eax+1]
  0004d	03 55 f8	 add	 edx, DWORD PTR _int3Bytes$[ebp]
  00050	89 55 f8	 mov	 DWORD PTR _int3Bytes$[ebp], edx

; 495  : 	int3Bytes = int3Bytes << 8;

  00053	8b 45 f8	 mov	 eax, DWORD PTR _int3Bytes$[ebp]
  00056	c1 e0 08	 shl	 eax, 8
  00059	89 45 f8	 mov	 DWORD PTR _int3Bytes$[ebp], eax

; 496  : 	int3Bytes += bytEncodedBytes[intDataPtr + intCar * intDataBytesPerCar + 2];  // now have 3 bytes, 24 bits or 8 8PSK symbols 

  0005c	8b 45 10	 mov	 eax, DWORD PTR _intCar$[ebp]
  0005f	0f af 45 18	 imul	 eax, DWORD PTR _intDataBytesPerCar$[ebp]
  00063	03 45 08	 add	 eax, DWORD PTR _intDataPtr$[ebp]
  00066	8b 4d 14	 mov	 ecx, DWORD PTR _bytEncodedBytes$[ebp]
  00069	0f b6 54 01 02	 movzx	 edx, BYTE PTR [ecx+eax+2]
  0006e	03 55 f8	 add	 edx, DWORD PTR _int3Bytes$[ebp]
  00071	89 55 f8	 mov	 DWORD PTR _int3Bytes$[ebp], edx

; 497  : //	intMask = intMask << (3 * (7 - k));
; 498  : 	intSym = int3Bytes >> (3 * (7 - k));

  00074	b9 07 00 00 00	 mov	 ecx, 7
  00079	2b 4d 0c	 sub	 ecx, DWORD PTR _k$[ebp]
  0007c	6b c9 03	 imul	 ecx, 3
  0007f	8b 45 f8	 mov	 eax, DWORD PTR _int3Bytes$[ebp]
  00082	d3 f8		 sar	 eax, cl
  00084	89 45 ec	 mov	 DWORD PTR _intSym$[ebp], eax

; 499  : 	bytSym = intSym & 7;	//(intMask && int3Bytes) >> (3 * (7 - k));

  00087	8b 45 ec	 mov	 eax, DWORD PTR _intSym$[ebp]
  0008a	83 e0 07	 and	 eax, 7
  0008d	88 45 e3	 mov	 BYTE PTR _bytSym$[ebp], al

; 500  : 
; 501  : 	return bytSym;

  00090	8a 45 e3	 mov	 al, BYTE PTR _bytSym$[ebp]

; 502  : }

  00093	5f		 pop	 edi
  00094	5e		 pop	 esi
  00095	5b		 pop	 ebx
  00096	8b e5		 mov	 esp, ebp
  00098	5d		 pop	 ebp
  00099	c3		 ret	 0
_GetSym8PSK ENDP
_TEXT	ENDS
PUBLIC	__real@3fe0000000000000
PUBLIC	??_C@_05OIEEHJAK@16QAM?$AA@			; `string'
PUBLIC	??_C@_04BOPGPCCA@8PSK?$AA@			; `string'
PUBLIC	??_C@_04NLAGBPCB@4PSK?$AA@			; `string'
PUBLIC	__real@3e2e147b
PUBLIC	__real@3e947ae1
PUBLIC	__real@3f07ae14
PUBLIC	__$ArrayPad$
PUBLIC	_ModPSKDataAndPlay
EXTRN	_intPSK200bdCarTemplate:BYTE
EXTRN	_intPSK100bdCarTemplate:BYTE
;	COMDAT __real@3fe0000000000000
CONST	SEGMENT
__real@3fe0000000000000 DQ 03fe0000000000000r	; 0.5
CONST	ENDS
;	COMDAT ??_C@_05OIEEHJAK@16QAM?$AA@
CONST	SEGMENT
??_C@_05OIEEHJAK@16QAM?$AA@ DB '16QAM', 00H		; `string'
CONST	ENDS
;	COMDAT ??_C@_04BOPGPCCA@8PSK?$AA@
CONST	SEGMENT
??_C@_04BOPGPCCA@8PSK?$AA@ DB '8PSK', 00H		; `string'
CONST	ENDS
;	COMDAT ??_C@_04NLAGBPCB@4PSK?$AA@
CONST	SEGMENT
??_C@_04NLAGBPCB@4PSK?$AA@ DB '4PSK', 00H		; `string'
CONST	ENDS
;	COMDAT __real@3e2e147b
CONST	SEGMENT
__real@3e2e147b DD 03e2e147br			; 0.17
CONST	ENDS
;	COMDAT __real@3e947ae1
CONST	SEGMENT
__real@3e947ae1 DD 03e947ae1r			; 0.29
CONST	ENDS
;	COMDAT __real@3f07ae14
CONST	SEGMENT
__real@3f07ae14 DD 03f07ae14r			; 0.53
; Function compile flags: /Odtp /RTCsu /ZI
CONST	ENDS
;	COMDAT _ModPSKDataAndPlay
_TEXT	SEGMENT
tv656 = -548						; size = 4
tv648 = -548						; size = 4
tv138 = -548						; size = 4
tv135 = -548						; size = 4
_bytLastSym$ = -348					; size = 9
_intCarIndex$ = -328					; size = 4
_intPeakAmp$ = -316					; size = 4
_intCarStartIndex$ = -304				; size = 4
_n$ = -292						; size = 4
_m$ = -280						; size = 4
_k$ = -268						; size = 4
_i$ = -256						; size = 4
_intLeaderLenMS$ = -244					; size = 4
_intMask$ = -232					; size = 4
_dblCarScalingFactor$ = -220				; size = 4
_bytMinQualThresh$ = -205				; size = 1
_bytMask$ = -193					; size = 1
_bytSymToSend$ = -181					; size = 1
_bytSym$ = -169						; size = 1
_strMod$ = -160						; size = 16
_strType$ = -136					; size = 18
_intSample$ = -108					; size = 4
_blnOdd$ = -96						; size = 4
_intDataBytesPerCar$ = -84				; size = 4
_intSampPerSym$ = -72					; size = 4
_intDataPtr$ = -60					; size = 4
_intRSLen$ = -48					; size = 4
_intDataLen$ = -36					; size = 4
_intBaud$ = -24						; size = 4
_intNumCar$ = -12					; size = 4
__$ArrayPad$ = -4					; size = 4
_Type$ = 8						; size = 4
_bytEncodedBytes$ = 12					; size = 4
_Len$ = 16						; size = 4
_intLeaderLen$ = 20					; size = 4
_ModPSKDataAndPlay PROC					; COMDAT

; 509  : {

  00000	55		 push	 ebp
  00001	8b ec		 mov	 ebp, esp
  00003	81 ec 24 02 00
	00		 sub	 esp, 548		; 00000224H
  00009	53		 push	 ebx
  0000a	56		 push	 esi
  0000b	57		 push	 edi
  0000c	8d bd dc fd ff
	ff		 lea	 edi, DWORD PTR [ebp-548]
  00012	b9 89 00 00 00	 mov	 ecx, 137		; 00000089H
  00017	b8 cc cc cc cc	 mov	 eax, -858993460		; ccccccccH
  0001c	f3 ab		 rep stosd
  0001e	a1 00 00 00 00	 mov	 eax, DWORD PTR ___security_cookie
  00023	33 c5		 xor	 eax, ebp
  00025	89 45 fc	 mov	 DWORD PTR __$ArrayPad$[ebp], eax

; 510  : 	int intNumCar, intBaud, intDataLen, intRSLen, intDataPtr, intSampPerSym, intDataBytesPerCar;
; 511  : 	BOOL blnOdd;
; 512  : 
; 513  : 	int intSample;
; 514  :     char strType[18] = "";

  00028	a0 00 00 00 00	 mov	 al, BYTE PTR ??_C@_00CNPNBAHC@?$AA@
  0002d	88 85 78 ff ff
	ff		 mov	 BYTE PTR _strType$[ebp], al
  00033	33 c0		 xor	 eax, eax
  00035	89 85 79 ff ff
	ff		 mov	 DWORD PTR _strType$[ebp+1], eax
  0003b	89 85 7d ff ff
	ff		 mov	 DWORD PTR _strType$[ebp+5], eax
  00041	89 45 81	 mov	 DWORD PTR _strType$[ebp+9], eax
  00044	89 45 85	 mov	 DWORD PTR _strType$[ebp+13], eax
  00047	88 45 89	 mov	 BYTE PTR _strType$[ebp+17], al

; 515  :     char strMod[16] = "";

  0004a	a0 00 00 00 00	 mov	 al, BYTE PTR ??_C@_00CNPNBAHC@?$AA@
  0004f	88 85 60 ff ff
	ff		 mov	 BYTE PTR _strMod$[ebp], al
  00055	33 c0		 xor	 eax, eax
  00057	89 85 61 ff ff
	ff		 mov	 DWORD PTR _strMod$[ebp+1], eax
  0005d	89 85 65 ff ff
	ff		 mov	 DWORD PTR _strMod$[ebp+5], eax
  00063	89 85 69 ff ff
	ff		 mov	 DWORD PTR _strMod$[ebp+9], eax
  00069	66 89 85 6d ff
	ff ff		 mov	 WORD PTR _strMod$[ebp+13], ax
  00070	88 85 6f ff ff
	ff		 mov	 BYTE PTR _strMod$[ebp+15], al

; 516  : 	UCHAR bytSym, bytSymToSend, bytMask, bytMinQualThresh;
; 517  : 	float dblCarScalingFactor;
; 518  : 	int intMask = 0;

  00076	c7 85 18 ff ff
	ff 00 00 00 00	 mov	 DWORD PTR _intMask$[ebp], 0

; 519  : 	int intLeaderLenMS;
; 520  : 	int i, k, m, n;
; 521  : 	int intCarStartIndex;
; 522  : 	int intPeakAmp;
; 523  : 	int intCarIndex;
; 524  : 
; 525  : 	UCHAR bytLastSym[9]; // = {0}; // Holds the last symbol sent (per carrier). bytLastSym(4) is 1500 Hz carrier (only used on 1 carrier modes) 
; 526  :  
; 527  : 	if (!FrameInfo(Type, &blnOdd, &intNumCar, strMod, &intBaud, &intDataLen, &intRSLen, &bytMinQualThresh, strType))

  00080	8d 85 78 ff ff
	ff		 lea	 eax, DWORD PTR _strType$[ebp]
  00086	50		 push	 eax
  00087	8d 8d 33 ff ff
	ff		 lea	 ecx, DWORD PTR _bytMinQualThresh$[ebp]
  0008d	51		 push	 ecx
  0008e	8d 55 d0	 lea	 edx, DWORD PTR _intRSLen$[ebp]
  00091	52		 push	 edx
  00092	8d 45 dc	 lea	 eax, DWORD PTR _intDataLen$[ebp]
  00095	50		 push	 eax
  00096	8d 4d e8	 lea	 ecx, DWORD PTR _intBaud$[ebp]
  00099	51		 push	 ecx
  0009a	8d 95 60 ff ff
	ff		 lea	 edx, DWORD PTR _strMod$[ebp]
  000a0	52		 push	 edx
  000a1	8d 45 f4	 lea	 eax, DWORD PTR _intNumCar$[ebp]
  000a4	50		 push	 eax
  000a5	8d 4d a0	 lea	 ecx, DWORD PTR _blnOdd$[ebp]
  000a8	51		 push	 ecx
  000a9	8a 55 08	 mov	 dl, BYTE PTR _Type$[ebp]
  000ac	52		 push	 edx
  000ad	e8 00 00 00 00	 call	 _FrameInfo
  000b2	83 c4 24	 add	 esp, 36			; 00000024H
  000b5	85 c0		 test	 eax, eax
  000b7	75 05		 jne	 SHORT $LN100@ModPSKData

; 528  : 		return;

  000b9	e9 24 0b 00 00	 jmp	 $LN101@ModPSKData
$LN100@ModPSKData:

; 529  : 
; 530  : 	WriteDebugLog(LOGDEBUG, "Sending Frame Type %s", strType);

  000be	8d 85 78 ff ff
	ff		 lea	 eax, DWORD PTR _strType$[ebp]
  000c4	50		 push	 eax
  000c5	68 00 00 00 00	 push	 OFFSET ??_C@_0BG@KAOACCEH@Sending?5Frame?5Type?5?$CFs?$AA@
  000ca	6a 07		 push	 7
  000cc	e8 00 00 00 00	 call	 _WriteDebugLog
  000d1	83 c4 0c	 add	 esp, 12			; 0000000cH

; 531  : 
; 532  : 	if (intNumCar == 1)

  000d4	83 7d f4 01	 cmp	 DWORD PTR _intNumCar$[ebp], 1
  000d8	75 0f		 jne	 SHORT $LN99@ModPSKData

; 533  : 		initFilter(200);

  000da	68 c8 00 00 00	 push	 200			; 000000c8H
  000df	e8 00 00 00 00	 call	 _initFilter
  000e4	83 c4 04	 add	 esp, 4
  000e7	eb 3d		 jmp	 SHORT $LN93@ModPSKData
$LN99@ModPSKData:

; 534  : 	else if (intNumCar == 2)

  000e9	83 7d f4 02	 cmp	 DWORD PTR _intNumCar$[ebp], 2
  000ed	75 0f		 jne	 SHORT $LN97@ModPSKData

; 535  : 		initFilter(500);

  000ef	68 f4 01 00 00	 push	 500			; 000001f4H
  000f4	e8 00 00 00 00	 call	 _initFilter
  000f9	83 c4 04	 add	 esp, 4
  000fc	eb 28		 jmp	 SHORT $LN93@ModPSKData
$LN97@ModPSKData:

; 536  : 	else if (intNumCar == 4)

  000fe	83 7d f4 04	 cmp	 DWORD PTR _intNumCar$[ebp], 4
  00102	75 0f		 jne	 SHORT $LN95@ModPSKData

; 537  : 		initFilter(1000);

  00104	68 e8 03 00 00	 push	 1000			; 000003e8H
  00109	e8 00 00 00 00	 call	 _initFilter
  0010e	83 c4 04	 add	 esp, 4
  00111	eb 13		 jmp	 SHORT $LN93@ModPSKData
$LN95@ModPSKData:

; 538  : 	else if (intNumCar == 8)

  00113	83 7d f4 08	 cmp	 DWORD PTR _intNumCar$[ebp], 8
  00117	75 0d		 jne	 SHORT $LN93@ModPSKData

; 539  : 		initFilter(2000);

  00119	68 d0 07 00 00	 push	 2000			; 000007d0H
  0011e	e8 00 00 00 00	 call	 _initFilter
  00123	83 c4 04	 add	 esp, 4
$LN93@ModPSKData:

; 540  : 
; 541  : //	If Not (strType = "DataACK" Or strType = "DataNAK" Or strType = "IDFrame" Or strType.StartsWith("ConReq") Or strType.StartsWith("ConAck")) Then
; 542  : //               strLastWavStream = strType
; 543  : //          End If
; 544  : 
; 545  : 	if (intLeaderLen == 0)

  00126	83 7d 14 00	 cmp	 DWORD PTR _intLeaderLen$[ebp], 0
  0012a	75 0d		 jne	 SHORT $LN92@ModPSKData

; 546  : 		intLeaderLenMS = LeaderLength;

  0012c	a1 00 00 00 00	 mov	 eax, DWORD PTR _LeaderLength
  00131	89 85 0c ff ff
	ff		 mov	 DWORD PTR _intLeaderLenMS$[ebp], eax

; 547  : 	else

  00137	eb 09		 jmp	 SHORT $LN91@ModPSKData
$LN92@ModPSKData:

; 548  : 		intLeaderLenMS = intLeaderLen;

  00139	8b 45 14	 mov	 eax, DWORD PTR _intLeaderLen$[ebp]
  0013c	89 85 0c ff ff
	ff		 mov	 DWORD PTR _intLeaderLenMS$[ebp], eax
$LN91@ModPSKData:

; 549  : 
; 550  : 	switch(intBaud)

  00142	8b 45 e8	 mov	 eax, DWORD PTR _intBaud$[ebp]
  00145	89 85 dc fd ff
	ff		 mov	 DWORD PTR tv135[ebp], eax
  0014b	83 bd dc fd ff
	ff 64		 cmp	 DWORD PTR tv135[ebp], 100 ; 00000064H
  00152	74 0e		 je	 SHORT $LN88@ModPSKData
  00154	81 bd dc fd ff
	ff a7 00 00 00	 cmp	 DWORD PTR tv135[ebp], 167 ; 000000a7H
  0015e	74 0b		 je	 SHORT $LN87@ModPSKData
  00160	eb 10		 jmp	 SHORT $LN89@ModPSKData
$LN88@ModPSKData:

; 551  : 	{		
; 552  : 	case 100:
; 553  : 		
; 554  : 		intSampPerSym = 120;

  00162	c7 45 b8 78 00
	00 00		 mov	 DWORD PTR _intSampPerSym$[ebp], 120 ; 00000078H

; 555  : 		break;

  00169	eb 07		 jmp	 SHORT $LN89@ModPSKData
$LN87@ModPSKData:

; 556  :                 
; 557  : 	case 167:
; 558  : 		
; 559  : 		intSampPerSym = 72; // the total number of samples per symbol 

  0016b	c7 45 b8 48 00
	00 00		 mov	 DWORD PTR _intSampPerSym$[ebp], 72 ; 00000048H
$LN89@ModPSKData:

; 560  : 		break;
; 561  : 	}
; 562  : 	
; 563  : 	// Create the leader
; 564  : 	
; 565  : 	switch(intNumCar)

  00172	8b 45 f4	 mov	 eax, DWORD PTR _intNumCar$[ebp]
  00175	89 85 dc fd ff
	ff		 mov	 DWORD PTR tv138[ebp], eax
  0017b	8b 8d dc fd ff
	ff		 mov	 ecx, DWORD PTR tv138[ebp]
  00181	83 e9 01	 sub	 ecx, 1
  00184	89 8d dc fd ff
	ff		 mov	 DWORD PTR tv138[ebp], ecx
  0018a	83 bd dc fd ff
	ff 07		 cmp	 DWORD PTR tv138[ebp], 7
  00191	77 67		 ja	 SHORT $LN85@ModPSKData
  00193	8b 95 dc fd ff
	ff		 mov	 edx, DWORD PTR tv138[ebp]
  00199	ff 24 95 00 00
	00 00		 jmp	 DWORD PTR $LN114@ModPSKData[edx*4]
$LN84@ModPSKData:

; 566  : 	{		
; 567  : 	case 1:
; 568  : 		intCarStartIndex = 4;

  001a0	c7 85 d0 fe ff
	ff 04 00 00 00	 mov	 DWORD PTR _intCarStartIndex$[ebp], 4

; 569  : 		dblCarScalingFactor = 1.0f; // Starting at 1500 Hz  (scaling factors determined emperically to minimize crest factor)  TODO:  needs verification

  001aa	d9 e8		 fld1
  001ac	d9 9d 24 ff ff
	ff		 fstp	 DWORD PTR _dblCarScalingFactor$[ebp]

; 570  : 		break;

  001b2	eb 46		 jmp	 SHORT $LN85@ModPSKData
$LN83@ModPSKData:

; 571  : 	case 2:
; 572  : 		intCarStartIndex = 3;

  001b4	c7 85 d0 fe ff
	ff 03 00 00 00	 mov	 DWORD PTR _intCarStartIndex$[ebp], 3

; 573  : 		dblCarScalingFactor = 0.53f; // Starting at 1400 Hz

  001be	d9 05 00 00 00
	00		 fld	 DWORD PTR __real@3f07ae14
  001c4	d9 9d 24 ff ff
	ff		 fstp	 DWORD PTR _dblCarScalingFactor$[ebp]

; 574  : 		break;

  001ca	eb 2e		 jmp	 SHORT $LN85@ModPSKData
$LN82@ModPSKData:

; 575  : 	case 4:
; 576  : 		intCarStartIndex = 2;

  001cc	c7 85 d0 fe ff
	ff 02 00 00 00	 mov	 DWORD PTR _intCarStartIndex$[ebp], 2

; 577  : 		dblCarScalingFactor = 0.29f; // Starting at 1200 Hz

  001d6	d9 05 00 00 00
	00		 fld	 DWORD PTR __real@3e947ae1
  001dc	d9 9d 24 ff ff
	ff		 fstp	 DWORD PTR _dblCarScalingFactor$[ebp]

; 578  : 		break;

  001e2	eb 16		 jmp	 SHORT $LN85@ModPSKData
$LN81@ModPSKData:

; 579  : 	case 8:
; 580  : 		intCarStartIndex = 0;

  001e4	c7 85 d0 fe ff
	ff 00 00 00 00	 mov	 DWORD PTR _intCarStartIndex$[ebp], 0

; 581  : 		dblCarScalingFactor = 0.17f; // Starting at 800 Hz

  001ee	d9 05 00 00 00
	00		 fld	 DWORD PTR __real@3e2e147b
  001f4	d9 9d 24 ff ff
	ff		 fstp	 DWORD PTR _dblCarScalingFactor$[ebp]
$LN85@ModPSKData:

; 582  : 	} 
; 583  : 
; 584  : 	intDataBytesPerCar = (Len - 2) / intNumCar;		// We queue the samples here, so dont copy below

  001fa	8b 45 10	 mov	 eax, DWORD PTR _Len$[ebp]
  001fd	83 e8 02	 sub	 eax, 2
  00200	99		 cdq
  00201	f7 7d f4	 idiv	 DWORD PTR _intNumCar$[ebp]
  00204	89 45 ac	 mov	 DWORD PTR _intDataBytesPerCar$[ebp], eax

; 585  : 
; 586  : 	// Create the leader
; 587  : 
; 588  : 	SendLeaderAndSYNC(bytEncodedBytes, intLeaderLen);

  00207	8b 45 14	 mov	 eax, DWORD PTR _intLeaderLen$[ebp]
  0020a	50		 push	 eax
  0020b	8b 4d 0c	 mov	 ecx, DWORD PTR _bytEncodedBytes$[ebp]
  0020e	51		 push	 ecx
  0020f	e8 00 00 00 00	 call	 _SendLeaderAndSYNC
  00214	83 c4 08	 add	 esp, 8

; 589  : 
; 590  : 	intPeakAmp = 0;

  00217	c7 85 c4 fe ff
	ff 00 00 00 00	 mov	 DWORD PTR _intPeakAmp$[ebp], 0

; 591  :             
; 592  : 	// Now create a reference symbol for each carrier
; 593  :       
; 594  : 	//	We have to do each carrier for each sample, as we write
; 595  : 	//	the sample immediately 
; 596  : 
; 597  : 	for (n = 0; n < intSampPerSym; n++)  // Sum for all the samples of a symbols 

  00221	c7 85 dc fe ff
	ff 00 00 00 00	 mov	 DWORD PTR _n$[ebp], 0
  0022b	eb 0f		 jmp	 SHORT $LN80@ModPSKData
$LN79@ModPSKData:
  0022d	8b 85 dc fe ff
	ff		 mov	 eax, DWORD PTR _n$[ebp]
  00233	83 c0 01	 add	 eax, 1
  00236	89 85 dc fe ff
	ff		 mov	 DWORD PTR _n$[ebp], eax
$LN80@ModPSKData:
  0023c	8b 85 dc fe ff
	ff		 mov	 eax, DWORD PTR _n$[ebp]
  00242	3b 45 b8	 cmp	 eax, DWORD PTR _intSampPerSym$[ebp]
  00245	0f 8d ee 00 00
	00		 jge	 $LN78@ModPSKData

; 598  : 	{
; 599  : 		intSample = 0;

  0024b	c7 45 94 00 00
	00 00		 mov	 DWORD PTR _intSample$[ebp], 0

; 600  : 		intCarIndex = intCarStartIndex;  // initialize to correct starting carrier

  00252	8b 85 d0 fe ff
	ff		 mov	 eax, DWORD PTR _intCarStartIndex$[ebp]
  00258	89 85 b8 fe ff
	ff		 mov	 DWORD PTR _intCarIndex$[ebp], eax

; 601  : 
; 602  : 		for (i = 0; i < intNumCar; i++)	// across all carriers

  0025e	c7 85 00 ff ff
	ff 00 00 00 00	 mov	 DWORD PTR _i$[ebp], 0
  00268	eb 0f		 jmp	 SHORT $LN77@ModPSKData
$LN76@ModPSKData:
  0026a	8b 85 00 ff ff
	ff		 mov	 eax, DWORD PTR _i$[ebp]
  00270	83 c0 01	 add	 eax, 1
  00273	89 85 00 ff ff
	ff		 mov	 DWORD PTR _i$[ebp], eax
$LN77@ModPSKData:
  00279	8b 85 00 ff ff
	ff		 mov	 eax, DWORD PTR _i$[ebp]
  0027f	3b 45 f4	 cmp	 eax, DWORD PTR _intNumCar$[ebp]
  00282	0f 8d 8e 00 00
	00		 jge	 $LN75@ModPSKData

; 603  : 		{
; 604  : 			bytSymToSend = 0;  //  using non 0 causes error on first data byte 12/8/2014   ...Values 0-3  not important (carries no data).   (Possible chance for Crest Factor reduction?)

  00288	c6 85 4b ff ff
	ff 00		 mov	 BYTE PTR _bytSymToSend$[ebp], 0

; 605  :                 
; 606  : 			bytLastSym[intCarIndex] = bytSymToSend;

  0028f	8b 85 b8 fe ff
	ff		 mov	 eax, DWORD PTR _intCarIndex$[ebp]
  00295	8a 8d 4b ff ff
	ff		 mov	 cl, BYTE PTR _bytSymToSend$[ebp]
  0029b	88 8c 05 a4 fe
	ff ff		 mov	 BYTE PTR _bytLastSym$[ebp+eax], cl

; 607  : 
; 608  : 			if (intBaud == 100)

  002a2	83 7d e8 64	 cmp	 DWORD PTR _intBaud$[ebp], 100 ; 00000064H
  002a6	75 22		 jne	 SHORT $LN74@ModPSKData

; 609  : 				intSample += intPSK100bdCarTemplate[intCarIndex][0][n];  // double the symbol value during template lookup for 4PSK. (skips over odd PSK 8 symbols)

  002a8	8b 85 b8 fe ff
	ff		 mov	 eax, DWORD PTR _intCarIndex$[ebp]
  002ae	69 c0 c0 03 00
	00		 imul	 eax, 960		; 000003c0H
  002b4	8b 8d dc fe ff
	ff		 mov	 ecx, DWORD PTR _n$[ebp]
  002ba	0f bf 94 48 00
	00 00 00	 movsx	 edx, WORD PTR _intPSK100bdCarTemplate[eax+ecx*2]
  002c2	03 55 94	 add	 edx, DWORD PTR _intSample$[ebp]
  002c5	89 55 94	 mov	 DWORD PTR _intSample$[ebp], edx

; 610  : 			else

  002c8	eb 20		 jmp	 SHORT $LN73@ModPSKData
$LN74@ModPSKData:

; 611  : 				intSample += intPSK200bdCarTemplate[intCarIndex][0][n]; // subtract 2 from the symbol value before doubling and subtract value of table 

  002ca	8b 85 b8 fe ff
	ff		 mov	 eax, DWORD PTR _intCarIndex$[ebp]
  002d0	69 c0 40 02 00
	00		 imul	 eax, 576		; 00000240H
  002d6	8b 8d dc fe ff
	ff		 mov	 ecx, DWORD PTR _n$[ebp]
  002dc	0f bf 94 48 00
	00 00 00	 movsx	 edx, WORD PTR _intPSK200bdCarTemplate[eax+ecx*2]
  002e4	03 55 94	 add	 edx, DWORD PTR _intSample$[ebp]
  002e7	89 55 94	 mov	 DWORD PTR _intSample$[ebp], edx
$LN73@ModPSKData:

; 612  : 
; 613  : 			intCarIndex += 1;

  002ea	8b 85 b8 fe ff
	ff		 mov	 eax, DWORD PTR _intCarIndex$[ebp]
  002f0	83 c0 01	 add	 eax, 1
  002f3	89 85 b8 fe ff
	ff		 mov	 DWORD PTR _intCarIndex$[ebp], eax

; 614  : 			if (intCarIndex == 4)

  002f9	83 bd b8 fe ff
	ff 04		 cmp	 DWORD PTR _intCarIndex$[ebp], 4
  00300	75 0f		 jne	 SHORT $LN72@ModPSKData

; 615  : 				intCarIndex += 1;	// skip over 1500 Hz for multi carrier modes (multi carrier modes all use even hundred Hz tones)

  00302	8b 85 b8 fe ff
	ff		 mov	 eax, DWORD PTR _intCarIndex$[ebp]
  00308	83 c0 01	 add	 eax, 1
  0030b	89 85 b8 fe ff
	ff		 mov	 DWORD PTR _intCarIndex$[ebp], eax
$LN72@ModPSKData:

; 616  : 		}

  00311	e9 54 ff ff ff	 jmp	 $LN76@ModPSKData
$LN75@ModPSKData:

; 617  : 		intSample = intSample * dblCarScalingFactor; // on the last carrier rescale value based on # of carriers to bound output

  00316	db 45 94	 fild	 DWORD PTR _intSample$[ebp]
  00319	d8 8d 24 ff ff
	ff		 fmul	 DWORD PTR _dblCarScalingFactor$[ebp]
  0031f	e8 00 00 00 00	 call	 __ftol2_sse
  00324	89 45 94	 mov	 DWORD PTR _intSample$[ebp], eax

; 618  : 		SampleSink(intSample);

  00327	66 8b 45 94	 mov	 ax, WORD PTR _intSample$[ebp]
  0032b	50		 push	 eax
  0032c	e8 00 00 00 00	 call	 _SampleSink
  00331	83 c4 04	 add	 esp, 4

; 619  : 	}

  00334	e9 f4 fe ff ff	 jmp	 $LN79@ModPSKData
$LN78@ModPSKData:

; 620  :       
; 621  : 	// End of reference phase generation 
; 622  : 
; 623  : 	intDataPtr = 2;  // initialize pointer to start of data.

  00339	c7 45 c4 02 00
	00 00		 mov	 DWORD PTR _intDataPtr$[ebp], 2

; 624  : 		
; 625  : 	if (strcmp(strMod, "4PSK") == 0)

  00340	68 00 00 00 00	 push	 OFFSET ??_C@_04NLAGBPCB@4PSK?$AA@
  00345	8d 85 60 ff ff
	ff		 lea	 eax, DWORD PTR _strMod$[ebp]
  0034b	50		 push	 eax
  0034c	e8 00 00 00 00	 call	 _strcmp
  00351	83 c4 08	 add	 esp, 8
  00354	85 c0		 test	 eax, eax
  00356	0f 85 be 02 00
	00		 jne	 $LN71@ModPSKData

; 626  : 	{
; 627  : 		for (m = 0; m < intDataBytesPerCar; m++)  // For each byte of input data (all carriers) 

  0035c	c7 85 e8 fe ff
	ff 00 00 00 00	 mov	 DWORD PTR _m$[ebp], 0
  00366	eb 0f		 jmp	 SHORT $LN70@ModPSKData
$LN69@ModPSKData:
  00368	8b 85 e8 fe ff
	ff		 mov	 eax, DWORD PTR _m$[ebp]
  0036e	83 c0 01	 add	 eax, 1
  00371	89 85 e8 fe ff
	ff		 mov	 DWORD PTR _m$[ebp], eax
$LN70@ModPSKData:
  00377	8b 85 e8 fe ff
	ff		 mov	 eax, DWORD PTR _m$[ebp]
  0037d	3b 45 ac	 cmp	 eax, DWORD PTR _intDataBytesPerCar$[ebp]
  00380	0f 8d 8f 02 00
	00		 jge	 $LN68@ModPSKData

; 628  : 		{
; 629  : 			bytMask = 0xC0; // Initialize mask each new data byte

  00386	c6 85 3f ff ff
	ff c0		 mov	 BYTE PTR _bytMask$[ebp], 192 ; 000000c0H

; 630  :                         
; 631  : 			for (k = 0; k < 4; k++)  // for 4 symbol values per byte of data

  0038d	c7 85 f4 fe ff
	ff 00 00 00 00	 mov	 DWORD PTR _k$[ebp], 0
  00397	eb 0f		 jmp	 SHORT $LN67@ModPSKData
$LN66@ModPSKData:
  00399	8b 85 f4 fe ff
	ff		 mov	 eax, DWORD PTR _k$[ebp]
  0039f	83 c0 01	 add	 eax, 1
  003a2	89 85 f4 fe ff
	ff		 mov	 DWORD PTR _k$[ebp], eax
$LN67@ModPSKData:
  003a8	83 bd f4 fe ff
	ff 04		 cmp	 DWORD PTR _k$[ebp], 4
  003af	0f 8d 52 02 00
	00		 jge	 $LN65@ModPSKData

; 632  : 			{                 
; 633  : 				for (n = 0; n < intSampPerSym; n++)  // Sum for all the samples of a symbols 

  003b5	c7 85 dc fe ff
	ff 00 00 00 00	 mov	 DWORD PTR _n$[ebp], 0
  003bf	eb 0f		 jmp	 SHORT $LN64@ModPSKData
$LN63@ModPSKData:
  003c1	8b 85 dc fe ff
	ff		 mov	 eax, DWORD PTR _n$[ebp]
  003c7	83 c0 01	 add	 eax, 1
  003ca	89 85 dc fe ff
	ff		 mov	 DWORD PTR _n$[ebp], eax
$LN64@ModPSKData:
  003d0	8b 85 dc fe ff
	ff		 mov	 eax, DWORD PTR _n$[ebp]
  003d6	3b 45 b8	 cmp	 eax, DWORD PTR _intSampPerSym$[ebp]
  003d9	0f 8d 13 02 00
	00		 jge	 $LN62@ModPSKData

; 634  : 				{
; 635  : 					intSample = 0;

  003df	c7 45 94 00 00
	00 00		 mov	 DWORD PTR _intSample$[ebp], 0

; 636  : 					intCarIndex = intCarStartIndex; // initialize the carrrier index

  003e6	8b 85 d0 fe ff
	ff		 mov	 eax, DWORD PTR _intCarStartIndex$[ebp]
  003ec	89 85 b8 fe ff
	ff		 mov	 DWORD PTR _intCarIndex$[ebp], eax

; 637  : 	
; 638  : 					for (i = 0; i < intNumCar ; i++) // across all carriers

  003f2	c7 85 00 ff ff
	ff 00 00 00 00	 mov	 DWORD PTR _i$[ebp], 0
  003fc	eb 0f		 jmp	 SHORT $LN61@ModPSKData
$LN60@ModPSKData:
  003fe	8b 85 00 ff ff
	ff		 mov	 eax, DWORD PTR _i$[ebp]
  00404	83 c0 01	 add	 eax, 1
  00407	89 85 00 ff ff
	ff		 mov	 DWORD PTR _i$[ebp], eax
$LN61@ModPSKData:
  0040d	8b 85 00 ff ff
	ff		 mov	 eax, DWORD PTR _i$[ebp]
  00413	3b 45 f4	 cmp	 eax, DWORD PTR _intNumCar$[ebp]
  00416	0f 8d 93 01 00
	00		 jge	 $LN59@ModPSKData

; 639  : 					{
; 640  : 						bytSym = (bytMask & bytEncodedBytes[intDataPtr + i * intDataBytesPerCar]) >> (2 * (3 - k));

  0041c	0f b6 85 3f ff
	ff ff		 movzx	 eax, BYTE PTR _bytMask$[ebp]
  00423	8b 8d 00 ff ff
	ff		 mov	 ecx, DWORD PTR _i$[ebp]
  00429	0f af 4d ac	 imul	 ecx, DWORD PTR _intDataBytesPerCar$[ebp]
  0042d	03 4d c4	 add	 ecx, DWORD PTR _intDataPtr$[ebp]
  00430	8b 55 0c	 mov	 edx, DWORD PTR _bytEncodedBytes$[ebp]
  00433	0f b6 0c 0a	 movzx	 ecx, BYTE PTR [edx+ecx]
  00437	23 c1		 and	 eax, ecx
  00439	b9 03 00 00 00	 mov	 ecx, 3
  0043e	2b 8d f4 fe ff
	ff		 sub	 ecx, DWORD PTR _k$[ebp]
  00444	d1 e1		 shl	 ecx, 1
  00446	d3 f8		 sar	 eax, cl
  00448	88 85 57 ff ff
	ff		 mov	 BYTE PTR _bytSym$[ebp], al

; 641  : 						bytSymToSend = ((bytLastSym[intCarIndex] + bytSym) & 3);  // Values 0-3

  0044e	8b 85 b8 fe ff
	ff		 mov	 eax, DWORD PTR _intCarIndex$[ebp]
  00454	0f b6 8c 05 a4
	fe ff ff	 movzx	 ecx, BYTE PTR _bytLastSym$[ebp+eax]
  0045c	0f b6 95 57 ff
	ff ff		 movzx	 edx, BYTE PTR _bytSym$[ebp]
  00463	03 ca		 add	 ecx, edx
  00465	83 e1 03	 and	 ecx, 3
  00468	88 8d 4b ff ff
	ff		 mov	 BYTE PTR _bytSymToSend$[ebp], cl

; 642  : 			
; 643  : 						if (intBaud == 100)

  0046e	83 7d e8 64	 cmp	 DWORD PTR _intBaud$[ebp], 100 ; 00000064H
  00472	75 78		 jne	 SHORT $LN58@ModPSKData

; 644  : 						{
; 645  : 							if (bytSymToSend < 2)

  00474	0f b6 85 4b ff
	ff ff		 movzx	 eax, BYTE PTR _bytSymToSend$[ebp]
  0047b	83 f8 02	 cmp	 eax, 2
  0047e	7d 34		 jge	 SHORT $LN57@ModPSKData

; 646  : 								intSample += intPSK100bdCarTemplate[intCarIndex][bytSymToSend * 2][n];  // double the symbol value during template lookup for 4PSK. (skips over odd PSK 8 symbols)

  00480	8b 85 b8 fe ff
	ff		 mov	 eax, DWORD PTR _intCarIndex$[ebp]
  00486	69 c0 c0 03 00
	00		 imul	 eax, 960		; 000003c0H
  0048c	0f b6 8d 4b ff
	ff ff		 movzx	 ecx, BYTE PTR _bytSymToSend$[ebp]
  00493	d1 e1		 shl	 ecx, 1
  00495	69 c9 f0 00 00
	00		 imul	 ecx, 240		; 000000f0H
  0049b	8d 94 08 00 00
	00 00		 lea	 edx, DWORD PTR _intPSK100bdCarTemplate[eax+ecx]
  004a2	8b 85 dc fe ff
	ff		 mov	 eax, DWORD PTR _n$[ebp]
  004a8	0f bf 0c 42	 movsx	 ecx, WORD PTR [edx+eax*2]
  004ac	03 4d 94	 add	 ecx, DWORD PTR _intSample$[ebp]
  004af	89 4d 94	 mov	 DWORD PTR _intSample$[ebp], ecx

; 647  : 							else

  004b2	eb 36		 jmp	 SHORT $LN56@ModPSKData
$LN57@ModPSKData:

; 648  : 								intSample -= intPSK100bdCarTemplate[intCarIndex][2 * (bytSymToSend - 2)][n]; // subtract 2 from the symbol value before doubling and subtract value of table 

  004b4	8b 85 b8 fe ff
	ff		 mov	 eax, DWORD PTR _intCarIndex$[ebp]
  004ba	69 c0 c0 03 00
	00		 imul	 eax, 960		; 000003c0H
  004c0	0f b6 8d 4b ff
	ff ff		 movzx	 ecx, BYTE PTR _bytSymToSend$[ebp]
  004c7	8d 54 09 fc	 lea	 edx, DWORD PTR [ecx+ecx-4]
  004cb	69 d2 f0 00 00
	00		 imul	 edx, 240		; 000000f0H
  004d1	8d 84 10 00 00
	00 00		 lea	 eax, DWORD PTR _intPSK100bdCarTemplate[eax+edx]
  004d8	8b 8d dc fe ff
	ff		 mov	 ecx, DWORD PTR _n$[ebp]
  004de	0f bf 14 48	 movsx	 edx, WORD PTR [eax+ecx*2]
  004e2	8b 45 94	 mov	 eax, DWORD PTR _intSample$[ebp]
  004e5	2b c2		 sub	 eax, edx
  004e7	89 45 94	 mov	 DWORD PTR _intSample$[ebp], eax
$LN56@ModPSKData:

; 649  : 						}
; 650  : 						else

  004ea	eb 76		 jmp	 SHORT $LN53@ModPSKData
$LN58@ModPSKData:

; 651  : 						{
; 652  : 							if (bytSymToSend < 2)

  004ec	0f b6 85 4b ff
	ff ff		 movzx	 eax, BYTE PTR _bytSymToSend$[ebp]
  004f3	83 f8 02	 cmp	 eax, 2
  004f6	7d 34		 jge	 SHORT $LN54@ModPSKData

; 653  : 								intSample += intPSK200bdCarTemplate[intCarIndex][bytSymToSend * 2][n];  // double the symbol value during template lookup for 4PSK. (skips over odd PSK 8 symbols)

  004f8	8b 85 b8 fe ff
	ff		 mov	 eax, DWORD PTR _intCarIndex$[ebp]
  004fe	69 c0 40 02 00
	00		 imul	 eax, 576		; 00000240H
  00504	0f b6 8d 4b ff
	ff ff		 movzx	 ecx, BYTE PTR _bytSymToSend$[ebp]
  0050b	d1 e1		 shl	 ecx, 1
  0050d	69 c9 90 00 00
	00		 imul	 ecx, 144		; 00000090H
  00513	8d 94 08 00 00
	00 00		 lea	 edx, DWORD PTR _intPSK200bdCarTemplate[eax+ecx]
  0051a	8b 85 dc fe ff
	ff		 mov	 eax, DWORD PTR _n$[ebp]
  00520	0f bf 0c 42	 movsx	 ecx, WORD PTR [edx+eax*2]
  00524	03 4d 94	 add	 ecx, DWORD PTR _intSample$[ebp]
  00527	89 4d 94	 mov	 DWORD PTR _intSample$[ebp], ecx

; 654  : 							else

  0052a	eb 36		 jmp	 SHORT $LN53@ModPSKData
$LN54@ModPSKData:

; 655  : 								intSample -= intPSK200bdCarTemplate[intCarIndex][2 * (bytSymToSend - 2)][n]; // subtract 2 from the symbol value before doubling and subtract value of table 

  0052c	8b 85 b8 fe ff
	ff		 mov	 eax, DWORD PTR _intCarIndex$[ebp]
  00532	69 c0 40 02 00
	00		 imul	 eax, 576		; 00000240H
  00538	0f b6 8d 4b ff
	ff ff		 movzx	 ecx, BYTE PTR _bytSymToSend$[ebp]
  0053f	8d 54 09 fc	 lea	 edx, DWORD PTR [ecx+ecx-4]
  00543	69 d2 90 00 00
	00		 imul	 edx, 144		; 00000090H
  00549	8d 84 10 00 00
	00 00		 lea	 eax, DWORD PTR _intPSK200bdCarTemplate[eax+edx]
  00550	8b 8d dc fe ff
	ff		 mov	 ecx, DWORD PTR _n$[ebp]
  00556	0f bf 14 48	 movsx	 edx, WORD PTR [eax+ecx*2]
  0055a	8b 45 94	 mov	 eax, DWORD PTR _intSample$[ebp]
  0055d	2b c2		 sub	 eax, edx
  0055f	89 45 94	 mov	 DWORD PTR _intSample$[ebp], eax
$LN53@ModPSKData:

; 656  : 						}
; 657  : 						if (n == intSampPerSym - 1)		// Last sample?

  00562	8b 45 b8	 mov	 eax, DWORD PTR _intSampPerSym$[ebp]
  00565	83 e8 01	 sub	 eax, 1
  00568	39 85 dc fe ff
	ff		 cmp	 DWORD PTR _n$[ebp], eax
  0056e	75 13		 jne	 SHORT $LN52@ModPSKData

; 658  : 							bytLastSym[intCarIndex] = bytSymToSend;

  00570	8b 85 b8 fe ff
	ff		 mov	 eax, DWORD PTR _intCarIndex$[ebp]
  00576	8a 8d 4b ff ff
	ff		 mov	 cl, BYTE PTR _bytSymToSend$[ebp]
  0057c	88 8c 05 a4 fe
	ff ff		 mov	 BYTE PTR _bytLastSym$[ebp+eax], cl
$LN52@ModPSKData:

; 659  : 
; 660  : 						intCarIndex += 1;

  00583	8b 85 b8 fe ff
	ff		 mov	 eax, DWORD PTR _intCarIndex$[ebp]
  00589	83 c0 01	 add	 eax, 1
  0058c	89 85 b8 fe ff
	ff		 mov	 DWORD PTR _intCarIndex$[ebp], eax

; 661  : 						if (intCarIndex == 4)

  00592	83 bd b8 fe ff
	ff 04		 cmp	 DWORD PTR _intCarIndex$[ebp], 4
  00599	75 0f		 jne	 SHORT $LN51@ModPSKData

; 662  : 							intCarIndex += 1;	// skip over 1500 Hz for multi carrier modes (multi carrier modes all use even hundred Hz tones)

  0059b	8b 85 b8 fe ff
	ff		 mov	 eax, DWORD PTR _intCarIndex$[ebp]
  005a1	83 c0 01	 add	 eax, 1
  005a4	89 85 b8 fe ff
	ff		 mov	 DWORD PTR _intCarIndex$[ebp], eax
$LN51@ModPSKData:

; 663  : 					}

  005aa	e9 4f fe ff ff	 jmp	 $LN60@ModPSKData
$LN59@ModPSKData:

; 664  : 					intSample = intSample * dblCarScalingFactor; // on the last carrier rescale value based on # of carriers to bound output

  005af	db 45 94	 fild	 DWORD PTR _intSample$[ebp]
  005b2	d8 8d 24 ff ff
	ff		 fmul	 DWORD PTR _dblCarScalingFactor$[ebp]
  005b8	e8 00 00 00 00	 call	 __ftol2_sse
  005bd	89 45 94	 mov	 DWORD PTR _intSample$[ebp], eax

; 665  : 
; 666  : 					if (intSample > 32700)

  005c0	81 7d 94 bc 7f
	00 00		 cmp	 DWORD PTR _intSample$[ebp], 32700 ; 00007fbcH
  005c7	7e 07		 jle	 SHORT $LN50@ModPSKData

; 667  : 						intSample = 32700;

  005c9	c7 45 94 bc 7f
	00 00		 mov	 DWORD PTR _intSample$[ebp], 32700 ; 00007fbcH
$LN50@ModPSKData:

; 668  : 				
; 669  : 					if (intSample < -32700)

  005d0	81 7d 94 44 80
	ff ff		 cmp	 DWORD PTR _intSample$[ebp], -32700 ; ffff8044H
  005d7	7d 07		 jge	 SHORT $LN49@ModPSKData

; 670  : 					  	intSample = -32700;

  005d9	c7 45 94 44 80
	ff ff		 mov	 DWORD PTR _intSample$[ebp], -32700 ; ffff8044H
$LN49@ModPSKData:

; 671  : 	
; 672  : 					SampleSink(intSample);		

  005e0	66 8b 45 94	 mov	 ax, WORD PTR _intSample$[ebp]
  005e4	50		 push	 eax
  005e5	e8 00 00 00 00	 call	 _SampleSink
  005ea	83 c4 04	 add	 esp, 4

; 673  : 				}       

  005ed	e9 cf fd ff ff	 jmp	 $LN63@ModPSKData
$LN62@ModPSKData:

; 674  : 				bytMask = bytMask >> 2;

  005f2	0f b6 85 3f ff
	ff ff		 movzx	 eax, BYTE PTR _bytMask$[ebp]
  005f9	c1 f8 02	 sar	 eax, 2
  005fc	88 85 3f ff ff
	ff		 mov	 BYTE PTR _bytMask$[ebp], al

; 675  : 			}

  00602	e9 92 fd ff ff	 jmp	 $LN66@ModPSKData
$LN65@ModPSKData:

; 676  : 			intDataPtr += 1;

  00607	8b 45 c4	 mov	 eax, DWORD PTR _intDataPtr$[ebp]
  0060a	83 c0 01	 add	 eax, 1
  0060d	89 45 c4	 mov	 DWORD PTR _intDataPtr$[ebp], eax

; 677  : 		}

  00610	e9 53 fd ff ff	 jmp	 $LN69@ModPSKData
$LN68@ModPSKData:

; 678  : 	}
; 679  : 	else if (strcmp(strMod, "8PSK") == 0)

  00615	e9 c3 05 00 00	 jmp	 $LN20@ModPSKData
$LN71@ModPSKData:
  0061a	68 00 00 00 00	 push	 OFFSET ??_C@_04BOPGPCCA@8PSK?$AA@
  0061f	8d 85 60 ff ff
	ff		 lea	 eax, DWORD PTR _strMod$[ebp]
  00625	50		 push	 eax
  00626	e8 00 00 00 00	 call	 _strcmp
  0062b	83 c4 08	 add	 esp, 8
  0062e	85 c0		 test	 eax, eax
  00630	0f 85 9f 02 00
	00		 jne	 $LN47@ModPSKData

; 680  : 	{
; 681  : 		// More complex ...must go through data in 3 byte chunks creating 8 Three bit symbols for each 3 bytes of data. 
; 682  :      
; 683  : 		for (m = 0; m < intDataBytesPerCar / 3; m++)

  00636	c7 85 e8 fe ff
	ff 00 00 00 00	 mov	 DWORD PTR _m$[ebp], 0
  00640	eb 0f		 jmp	 SHORT $LN46@ModPSKData
$LN45@ModPSKData:
  00642	8b 85 e8 fe ff
	ff		 mov	 eax, DWORD PTR _m$[ebp]
  00648	83 c0 01	 add	 eax, 1
  0064b	89 85 e8 fe ff
	ff		 mov	 DWORD PTR _m$[ebp], eax
$LN46@ModPSKData:
  00651	8b 45 ac	 mov	 eax, DWORD PTR _intDataBytesPerCar$[ebp]
  00654	99		 cdq
  00655	b9 03 00 00 00	 mov	 ecx, 3
  0065a	f7 f9		 idiv	 ecx
  0065c	39 85 e8 fe ff
	ff		 cmp	 DWORD PTR _m$[ebp], eax
  00662	0f 8d 68 02 00
	00		 jge	 $LN44@ModPSKData

; 684  : 		{
; 685  : 			for (k = 0; k < 8; k++) // for 8 symbols in 24 bits of int3Bytes

  00668	c7 85 f4 fe ff
	ff 00 00 00 00	 mov	 DWORD PTR _k$[ebp], 0
  00672	eb 0f		 jmp	 SHORT $LN43@ModPSKData
$LN42@ModPSKData:
  00674	8b 85 f4 fe ff
	ff		 mov	 eax, DWORD PTR _k$[ebp]
  0067a	83 c0 01	 add	 eax, 1
  0067d	89 85 f4 fe ff
	ff		 mov	 DWORD PTR _k$[ebp], eax
$LN43@ModPSKData:
  00683	83 bd f4 fe ff
	ff 08		 cmp	 DWORD PTR _k$[ebp], 8
  0068a	0f 8d 32 02 00
	00		 jge	 $LN41@ModPSKData

; 686  : 			{
; 687  : 				for (n = 0; n < intSampPerSym; n++)	//  Sum for all the samples of a symbols 

  00690	c7 85 dc fe ff
	ff 00 00 00 00	 mov	 DWORD PTR _n$[ebp], 0
  0069a	eb 0f		 jmp	 SHORT $LN40@ModPSKData
$LN39@ModPSKData:
  0069c	8b 85 dc fe ff
	ff		 mov	 eax, DWORD PTR _n$[ebp]
  006a2	83 c0 01	 add	 eax, 1
  006a5	89 85 dc fe ff
	ff		 mov	 DWORD PTR _n$[ebp], eax
$LN40@ModPSKData:
  006ab	8b 85 dc fe ff
	ff		 mov	 eax, DWORD PTR _n$[ebp]
  006b1	3b 45 b8	 cmp	 eax, DWORD PTR _intSampPerSym$[ebp]
  006b4	0f 8d 03 02 00
	00		 jge	 $LN38@ModPSKData

; 688  : 				{
; 689  : 					intSample = 0;

  006ba	c7 45 94 00 00
	00 00		 mov	 DWORD PTR _intSample$[ebp], 0

; 690  : 		
; 691  : 					// We have to sum all samples for all carriers
; 692  : 
; 693  : 					intCarIndex = intCarStartIndex;

  006c1	8b 85 d0 fe ff
	ff		 mov	 eax, DWORD PTR _intCarStartIndex$[ebp]
  006c7	89 85 b8 fe ff
	ff		 mov	 DWORD PTR _intCarIndex$[ebp], eax

; 694  : 				
; 695  : 					for (i = 0; i < intNumCar; i++)

  006cd	c7 85 00 ff ff
	ff 00 00 00 00	 mov	 DWORD PTR _i$[ebp], 0
  006d7	eb 0f		 jmp	 SHORT $LN37@ModPSKData
$LN36@ModPSKData:
  006d9	8b 85 00 ff ff
	ff		 mov	 eax, DWORD PTR _i$[ebp]
  006df	83 c0 01	 add	 eax, 1
  006e2	89 85 00 ff ff
	ff		 mov	 DWORD PTR _i$[ebp], eax
$LN37@ModPSKData:
  006e8	8b 85 00 ff ff
	ff		 mov	 eax, DWORD PTR _i$[ebp]
  006ee	3b 45 f4	 cmp	 eax, DWORD PTR _intNumCar$[ebp]
  006f1	0f 8d 83 01 00
	00		 jge	 $LN35@ModPSKData

; 696  : 					{
; 697  : 						bytSym = GetSym8PSK(intDataPtr, k, i, bytEncodedBytes, intDataBytesPerCar);

  006f7	8b 45 ac	 mov	 eax, DWORD PTR _intDataBytesPerCar$[ebp]
  006fa	50		 push	 eax
  006fb	8b 4d 0c	 mov	 ecx, DWORD PTR _bytEncodedBytes$[ebp]
  006fe	51		 push	 ecx
  006ff	8b 95 00 ff ff
	ff		 mov	 edx, DWORD PTR _i$[ebp]
  00705	52		 push	 edx
  00706	8b 85 f4 fe ff
	ff		 mov	 eax, DWORD PTR _k$[ebp]
  0070c	50		 push	 eax
  0070d	8b 4d c4	 mov	 ecx, DWORD PTR _intDataPtr$[ebp]
  00710	51		 push	 ecx
  00711	e8 00 00 00 00	 call	 _GetSym8PSK
  00716	83 c4 14	 add	 esp, 20			; 00000014H
  00719	88 85 57 ff ff
	ff		 mov	 BYTE PTR _bytSym$[ebp], al

; 698  : 						bytSymToSend = ((bytLastSym[intCarIndex] + bytSym) & 7);	// mod 8

  0071f	8b 85 b8 fe ff
	ff		 mov	 eax, DWORD PTR _intCarIndex$[ebp]
  00725	0f b6 8c 05 a4
	fe ff ff	 movzx	 ecx, BYTE PTR _bytLastSym$[ebp+eax]
  0072d	0f b6 95 57 ff
	ff ff		 movzx	 edx, BYTE PTR _bytSym$[ebp]
  00734	03 ca		 add	 ecx, edx
  00736	83 e1 07	 and	 ecx, 7
  00739	88 8d 4b ff ff
	ff		 mov	 BYTE PTR _bytSymToSend$[ebp], cl

; 699  : 				
; 700  : 						if (intBaud == 100)

  0073f	83 7d e8 64	 cmp	 DWORD PTR _intBaud$[ebp], 100 ; 00000064H
  00743	75 75		 jne	 SHORT $LN34@ModPSKData

; 701  : 						{
; 702  : 							if (bytSymToSend < 4) // This uses the symmetry of the symbols to reduce the table size by a factor of 2

  00745	0f b6 85 4b ff
	ff ff		 movzx	 eax, BYTE PTR _bytSymToSend$[ebp]
  0074c	83 f8 04	 cmp	 eax, 4
  0074f	7d 32		 jge	 SHORT $LN33@ModPSKData

; 703  : 								intSample += intPSK100bdCarTemplate[intCarIndex][bytSymToSend][n]; // positive phase values template lookup for 8PSK.

  00751	8b 85 b8 fe ff
	ff		 mov	 eax, DWORD PTR _intCarIndex$[ebp]
  00757	69 c0 c0 03 00
	00		 imul	 eax, 960		; 000003c0H
  0075d	0f b6 8d 4b ff
	ff ff		 movzx	 ecx, BYTE PTR _bytSymToSend$[ebp]
  00764	69 c9 f0 00 00
	00		 imul	 ecx, 240		; 000000f0H
  0076a	8d 94 08 00 00
	00 00		 lea	 edx, DWORD PTR _intPSK100bdCarTemplate[eax+ecx]
  00771	8b 85 dc fe ff
	ff		 mov	 eax, DWORD PTR _n$[ebp]
  00777	0f bf 0c 42	 movsx	 ecx, WORD PTR [edx+eax*2]
  0077b	03 4d 94	 add	 ecx, DWORD PTR _intSample$[ebp]
  0077e	89 4d 94	 mov	 DWORD PTR _intSample$[ebp], ecx

; 704  : 							else

  00781	eb 35		 jmp	 SHORT $LN32@ModPSKData
$LN33@ModPSKData:

; 705  : 								intSample -= intPSK100bdCarTemplate[intCarIndex][bytSymToSend - 4][n]; // negative phase values,  subtract value of table 

  00783	8b 85 b8 fe ff
	ff		 mov	 eax, DWORD PTR _intCarIndex$[ebp]
  00789	69 c0 c0 03 00
	00		 imul	 eax, 960		; 000003c0H
  0078f	0f b6 8d 4b ff
	ff ff		 movzx	 ecx, BYTE PTR _bytSymToSend$[ebp]
  00796	83 e9 04	 sub	 ecx, 4
  00799	69 c9 f0 00 00
	00		 imul	 ecx, 240		; 000000f0H
  0079f	8d 94 08 00 00
	00 00		 lea	 edx, DWORD PTR _intPSK100bdCarTemplate[eax+ecx]
  007a6	8b 85 dc fe ff
	ff		 mov	 eax, DWORD PTR _n$[ebp]
  007ac	0f bf 0c 42	 movsx	 ecx, WORD PTR [edx+eax*2]
  007b0	8b 55 94	 mov	 edx, DWORD PTR _intSample$[ebp]
  007b3	2b d1		 sub	 edx, ecx
  007b5	89 55 94	 mov	 DWORD PTR _intSample$[ebp], edx
$LN32@ModPSKData:

; 706  : 						}
; 707  : 						else

  007b8	eb 73		 jmp	 SHORT $LN29@ModPSKData
$LN34@ModPSKData:

; 708  : 						{
; 709  : 							if (bytSymToSend < 4) // This uses the symmetry of the symbols to reduce the table size by a factor of 2

  007ba	0f b6 85 4b ff
	ff ff		 movzx	 eax, BYTE PTR _bytSymToSend$[ebp]
  007c1	83 f8 04	 cmp	 eax, 4
  007c4	7d 32		 jge	 SHORT $LN30@ModPSKData

; 710  : 								intSample += intPSK200bdCarTemplate[intCarIndex][bytSymToSend][n]; // positive phase values template lookup for 8PSK.

  007c6	8b 85 b8 fe ff
	ff		 mov	 eax, DWORD PTR _intCarIndex$[ebp]
  007cc	69 c0 40 02 00
	00		 imul	 eax, 576		; 00000240H
  007d2	0f b6 8d 4b ff
	ff ff		 movzx	 ecx, BYTE PTR _bytSymToSend$[ebp]
  007d9	69 c9 90 00 00
	00		 imul	 ecx, 144		; 00000090H
  007df	8d 94 08 00 00
	00 00		 lea	 edx, DWORD PTR _intPSK200bdCarTemplate[eax+ecx]
  007e6	8b 85 dc fe ff
	ff		 mov	 eax, DWORD PTR _n$[ebp]
  007ec	0f bf 0c 42	 movsx	 ecx, WORD PTR [edx+eax*2]
  007f0	03 4d 94	 add	 ecx, DWORD PTR _intSample$[ebp]
  007f3	89 4d 94	 mov	 DWORD PTR _intSample$[ebp], ecx

; 711  : 							else

  007f6	eb 35		 jmp	 SHORT $LN29@ModPSKData
$LN30@ModPSKData:

; 712  : 								intSample -= intPSK200bdCarTemplate[intCarIndex][bytSymToSend - 4][n]; // negative phase values,  subtract value of table 

  007f8	8b 85 b8 fe ff
	ff		 mov	 eax, DWORD PTR _intCarIndex$[ebp]
  007fe	69 c0 40 02 00
	00		 imul	 eax, 576		; 00000240H
  00804	0f b6 8d 4b ff
	ff ff		 movzx	 ecx, BYTE PTR _bytSymToSend$[ebp]
  0080b	83 e9 04	 sub	 ecx, 4
  0080e	69 c9 90 00 00
	00		 imul	 ecx, 144		; 00000090H
  00814	8d 94 08 00 00
	00 00		 lea	 edx, DWORD PTR _intPSK200bdCarTemplate[eax+ecx]
  0081b	8b 85 dc fe ff
	ff		 mov	 eax, DWORD PTR _n$[ebp]
  00821	0f bf 0c 42	 movsx	 ecx, WORD PTR [edx+eax*2]
  00825	8b 55 94	 mov	 edx, DWORD PTR _intSample$[ebp]
  00828	2b d1		 sub	 edx, ecx
  0082a	89 55 94	 mov	 DWORD PTR _intSample$[ebp], edx
$LN29@ModPSKData:

; 713  : 						}
; 714  : 
; 715  : 						if (n == intSampPerSym - 1)		// Last sample?

  0082d	8b 45 b8	 mov	 eax, DWORD PTR _intSampPerSym$[ebp]
  00830	83 e8 01	 sub	 eax, 1
  00833	39 85 dc fe ff
	ff		 cmp	 DWORD PTR _n$[ebp], eax
  00839	75 13		 jne	 SHORT $LN28@ModPSKData

; 716  : 							bytLastSym[intCarIndex] = bytSymToSend;

  0083b	8b 85 b8 fe ff
	ff		 mov	 eax, DWORD PTR _intCarIndex$[ebp]
  00841	8a 8d 4b ff ff
	ff		 mov	 cl, BYTE PTR _bytSymToSend$[ebp]
  00847	88 8c 05 a4 fe
	ff ff		 mov	 BYTE PTR _bytLastSym$[ebp+eax], cl
$LN28@ModPSKData:

; 717  : 
; 718  : 						intCarIndex += 1;

  0084e	8b 85 b8 fe ff
	ff		 mov	 eax, DWORD PTR _intCarIndex$[ebp]
  00854	83 c0 01	 add	 eax, 1
  00857	89 85 b8 fe ff
	ff		 mov	 DWORD PTR _intCarIndex$[ebp], eax

; 719  : 						if (intCarIndex == 4)

  0085d	83 bd b8 fe ff
	ff 04		 cmp	 DWORD PTR _intCarIndex$[ebp], 4
  00864	75 0f		 jne	 SHORT $LN27@ModPSKData

; 720  : 							intCarIndex += 1;  // skip over 1500 Hz for multi carrier modes (multi carrier modes all use even hundred Hz tones)

  00866	8b 85 b8 fe ff
	ff		 mov	 eax, DWORD PTR _intCarIndex$[ebp]
  0086c	83 c0 01	 add	 eax, 1
  0086f	89 85 b8 fe ff
	ff		 mov	 DWORD PTR _intCarIndex$[ebp], eax
$LN27@ModPSKData:

; 721  : 					}

  00875	e9 5f fe ff ff	 jmp	 $LN36@ModPSKData
$LN35@ModPSKData:

; 722  : 					intSample = intSample * dblCarScalingFactor; // on the last carrier rescale value based on # of carriers to bound output

  0087a	db 45 94	 fild	 DWORD PTR _intSample$[ebp]
  0087d	d8 8d 24 ff ff
	ff		 fmul	 DWORD PTR _dblCarScalingFactor$[ebp]
  00883	e8 00 00 00 00	 call	 __ftol2_sse
  00888	89 45 94	 mov	 DWORD PTR _intSample$[ebp], eax

; 723  : 
; 724  : 					if (intSample > 32700)

  0088b	81 7d 94 bc 7f
	00 00		 cmp	 DWORD PTR _intSample$[ebp], 32700 ; 00007fbcH
  00892	7e 07		 jle	 SHORT $LN26@ModPSKData

; 725  : 						intSample = 32700;

  00894	c7 45 94 bc 7f
	00 00		 mov	 DWORD PTR _intSample$[ebp], 32700 ; 00007fbcH
$LN26@ModPSKData:

; 726  : 				
; 727  : 					if (intSample < -32700)

  0089b	81 7d 94 44 80
	ff ff		 cmp	 DWORD PTR _intSample$[ebp], -32700 ; ffff8044H
  008a2	7d 07		 jge	 SHORT $LN25@ModPSKData

; 728  : 					  	intSample = -32700;

  008a4	c7 45 94 44 80
	ff ff		 mov	 DWORD PTR _intSample$[ebp], -32700 ; ffff8044H
$LN25@ModPSKData:

; 729  : 					
; 730  : 					SampleSink(intSample);		

  008ab	66 8b 45 94	 mov	 ax, WORD PTR _intSample$[ebp]
  008af	50		 push	 eax
  008b0	e8 00 00 00 00	 call	 _SampleSink
  008b5	83 c4 04	 add	 esp, 4

; 731  : 				}

  008b8	e9 df fd ff ff	 jmp	 $LN39@ModPSKData
$LN38@ModPSKData:

; 732  : 			}

  008bd	e9 b2 fd ff ff	 jmp	 $LN42@ModPSKData
$LN41@ModPSKData:

; 733  : 			intDataPtr += 3;

  008c2	8b 45 c4	 mov	 eax, DWORD PTR _intDataPtr$[ebp]
  008c5	83 c0 03	 add	 eax, 3
  008c8	89 45 c4	 mov	 DWORD PTR _intDataPtr$[ebp], eax

; 734  : 		}

  008cb	e9 72 fd ff ff	 jmp	 $LN45@ModPSKData
$LN44@ModPSKData:

; 735  : 	}
; 736  : 	else if (strcmp(strMod, "16QAM") == 0)

  008d0	e9 08 03 00 00	 jmp	 $LN20@ModPSKData
$LN47@ModPSKData:
  008d5	68 00 00 00 00	 push	 OFFSET ??_C@_05OIEEHJAK@16QAM?$AA@
  008da	8d 85 60 ff ff
	ff		 lea	 eax, DWORD PTR _strMod$[ebp]
  008e0	50		 push	 eax
  008e1	e8 00 00 00 00	 call	 _strcmp
  008e6	83 c4 08	 add	 esp, 8
  008e9	85 c0		 test	 eax, eax
  008eb	0f 85 ec 02 00
	00		 jne	 $LN20@ModPSKData

; 737  : 	{
; 738  : 		for (m = 0; m < intDataBytesPerCar; m++)  // For each byte of input data (all carriers) 

  008f1	c7 85 e8 fe ff
	ff 00 00 00 00	 mov	 DWORD PTR _m$[ebp], 0
  008fb	eb 0f		 jmp	 SHORT $LN22@ModPSKData
$LN21@ModPSKData:
  008fd	8b 85 e8 fe ff
	ff		 mov	 eax, DWORD PTR _m$[ebp]
  00903	83 c0 01	 add	 eax, 1
  00906	89 85 e8 fe ff
	ff		 mov	 DWORD PTR _m$[ebp], eax
$LN22@ModPSKData:
  0090c	8b 85 e8 fe ff
	ff		 mov	 eax, DWORD PTR _m$[ebp]
  00912	3b 45 ac	 cmp	 eax, DWORD PTR _intDataBytesPerCar$[ebp]
  00915	0f 8d c2 02 00
	00		 jge	 $LN20@ModPSKData

; 739  : 		{
; 740  : 			bytMask = 0xF0; // Initialize mask each new data byte

  0091b	c6 85 3f ff ff
	ff f0		 mov	 BYTE PTR _bytMask$[ebp], 240 ; 000000f0H

; 741  :                         
; 742  : 			for (k = 0; k < 2; k++)  // for 2 symbol values per byte of data

  00922	c7 85 f4 fe ff
	ff 00 00 00 00	 mov	 DWORD PTR _k$[ebp], 0
  0092c	eb 0f		 jmp	 SHORT $LN19@ModPSKData
$LN18@ModPSKData:
  0092e	8b 85 f4 fe ff
	ff		 mov	 eax, DWORD PTR _k$[ebp]
  00934	83 c0 01	 add	 eax, 1
  00937	89 85 f4 fe ff
	ff		 mov	 DWORD PTR _k$[ebp], eax
$LN19@ModPSKData:
  0093d	83 bd f4 fe ff
	ff 02		 cmp	 DWORD PTR _k$[ebp], 2
  00944	0f 8d 85 02 00
	00		 jge	 $LN17@ModPSKData

; 743  : 			{                 
; 744  : 				for (n = 0; n < intSampPerSym; n++)  // Sum for all the samples of a symbols 

  0094a	c7 85 dc fe ff
	ff 00 00 00 00	 mov	 DWORD PTR _n$[ebp], 0
  00954	eb 0f		 jmp	 SHORT $LN16@ModPSKData
$LN15@ModPSKData:
  00956	8b 85 dc fe ff
	ff		 mov	 eax, DWORD PTR _n$[ebp]
  0095c	83 c0 01	 add	 eax, 1
  0095f	89 85 dc fe ff
	ff		 mov	 DWORD PTR _n$[ebp], eax
$LN16@ModPSKData:
  00965	8b 85 dc fe ff
	ff		 mov	 eax, DWORD PTR _n$[ebp]
  0096b	3b 45 b8	 cmp	 eax, DWORD PTR _intSampPerSym$[ebp]
  0096e	0f 8d 46 02 00
	00		 jge	 $LN14@ModPSKData

; 745  : 				{
; 746  : 					intSample = 0;

  00974	c7 45 94 00 00
	00 00		 mov	 DWORD PTR _intSample$[ebp], 0

; 747  : 					intCarIndex = intCarStartIndex; // initialize the carrrier index

  0097b	8b 85 d0 fe ff
	ff		 mov	 eax, DWORD PTR _intCarStartIndex$[ebp]
  00981	89 85 b8 fe ff
	ff		 mov	 DWORD PTR _intCarIndex$[ebp], eax

; 748  : 		
; 749  : 					for (i = 0; i < intNumCar ; i++) // across all carriers

  00987	c7 85 00 ff ff
	ff 00 00 00 00	 mov	 DWORD PTR _i$[ebp], 0
  00991	eb 0f		 jmp	 SHORT $LN13@ModPSKData
$LN12@ModPSKData:
  00993	8b 85 00 ff ff
	ff		 mov	 eax, DWORD PTR _i$[ebp]
  00999	83 c0 01	 add	 eax, 1
  0099c	89 85 00 ff ff
	ff		 mov	 DWORD PTR _i$[ebp], eax
$LN13@ModPSKData:
  009a2	8b 85 00 ff ff
	ff		 mov	 eax, DWORD PTR _i$[ebp]
  009a8	3b 45 f4	 cmp	 eax, DWORD PTR _intNumCar$[ebp]
  009ab	0f 8d c6 01 00
	00		 jge	 $LN11@ModPSKData

; 750  : 					{
; 751  : 						bytSym = (bytMask & bytEncodedBytes[intDataPtr + i * intDataBytesPerCar]) >> (4 * (1 - k));

  009b1	0f b6 85 3f ff
	ff ff		 movzx	 eax, BYTE PTR _bytMask$[ebp]
  009b8	8b 8d 00 ff ff
	ff		 mov	 ecx, DWORD PTR _i$[ebp]
  009be	0f af 4d ac	 imul	 ecx, DWORD PTR _intDataBytesPerCar$[ebp]
  009c2	03 4d c4	 add	 ecx, DWORD PTR _intDataPtr$[ebp]
  009c5	8b 55 0c	 mov	 edx, DWORD PTR _bytEncodedBytes$[ebp]
  009c8	0f b6 0c 0a	 movzx	 ecx, BYTE PTR [edx+ecx]
  009cc	23 c1		 and	 eax, ecx
  009ce	b9 01 00 00 00	 mov	 ecx, 1
  009d3	2b 8d f4 fe ff
	ff		 sub	 ecx, DWORD PTR _k$[ebp]
  009d9	c1 e1 02	 shl	 ecx, 2
  009dc	d3 f8		 sar	 eax, cl
  009de	88 85 57 ff ff
	ff		 mov	 BYTE PTR _bytSym$[ebp], al

; 752  : 						bytSymToSend = (bytLastSym[intCarIndex] + (bytSym & 7)) & 7;  // Values 0-7

  009e4	8b 85 b8 fe ff
	ff		 mov	 eax, DWORD PTR _intCarIndex$[ebp]
  009ea	0f b6 8c 05 a4
	fe ff ff	 movzx	 ecx, BYTE PTR _bytLastSym$[ebp+eax]
  009f2	0f b6 95 57 ff
	ff ff		 movzx	 edx, BYTE PTR _bytSym$[ebp]
  009f9	83 e2 07	 and	 edx, 7
  009fc	03 ca		 add	 ecx, edx
  009fe	83 e1 07	 and	 ecx, 7
  00a01	88 8d 4b ff ff
	ff		 mov	 BYTE PTR _bytSymToSend$[ebp], cl

; 753  : 								
; 754  : 					//if (intBaud == 100) only use 100
; 755  : 					//{
; 756  : 						if (bytSym < 8)

  00a07	0f b6 85 57 ff
	ff ff		 movzx	 eax, BYTE PTR _bytSym$[ebp]
  00a0e	83 f8 08	 cmp	 eax, 8
  00a11	7d 78		 jge	 SHORT $LN10@ModPSKData

; 757  : 						{
; 758  : 							if (bytSymToSend < 4) // This uses the symmetry of the symbols to reduce the table size by a factor of 2

  00a13	0f b6 85 4b ff
	ff ff		 movzx	 eax, BYTE PTR _bytSymToSend$[ebp]
  00a1a	83 f8 04	 cmp	 eax, 4
  00a1d	7d 32		 jge	 SHORT $LN9@ModPSKData

; 759  : 								intSample += intPSK100bdCarTemplate[intCarIndex][bytSymToSend][n]; // positive phase values template lookup for 8PSK.

  00a1f	8b 85 b8 fe ff
	ff		 mov	 eax, DWORD PTR _intCarIndex$[ebp]
  00a25	69 c0 c0 03 00
	00		 imul	 eax, 960		; 000003c0H
  00a2b	0f b6 8d 4b ff
	ff ff		 movzx	 ecx, BYTE PTR _bytSymToSend$[ebp]
  00a32	69 c9 f0 00 00
	00		 imul	 ecx, 240		; 000000f0H
  00a38	8d 94 08 00 00
	00 00		 lea	 edx, DWORD PTR _intPSK100bdCarTemplate[eax+ecx]
  00a3f	8b 85 dc fe ff
	ff		 mov	 eax, DWORD PTR _n$[ebp]
  00a45	0f bf 0c 42	 movsx	 ecx, WORD PTR [edx+eax*2]
  00a49	03 4d 94	 add	 ecx, DWORD PTR _intSample$[ebp]
  00a4c	89 4d 94	 mov	 DWORD PTR _intSample$[ebp], ecx

; 760  : 							else

  00a4f	eb 35		 jmp	 SHORT $LN8@ModPSKData
$LN9@ModPSKData:

; 761  : 								intSample -= intPSK100bdCarTemplate[intCarIndex][bytSymToSend - 4][n]; // negative phase values,  subtract value of table 

  00a51	8b 85 b8 fe ff
	ff		 mov	 eax, DWORD PTR _intCarIndex$[ebp]
  00a57	69 c0 c0 03 00
	00		 imul	 eax, 960		; 000003c0H
  00a5d	0f b6 8d 4b ff
	ff ff		 movzx	 ecx, BYTE PTR _bytSymToSend$[ebp]
  00a64	83 e9 04	 sub	 ecx, 4
  00a67	69 c9 f0 00 00
	00		 imul	 ecx, 240		; 000000f0H
  00a6d	8d 94 08 00 00
	00 00		 lea	 edx, DWORD PTR _intPSK100bdCarTemplate[eax+ecx]
  00a74	8b 85 dc fe ff
	ff		 mov	 eax, DWORD PTR _n$[ebp]
  00a7a	0f bf 0c 42	 movsx	 ecx, WORD PTR [edx+eax*2]
  00a7e	8b 55 94	 mov	 edx, DWORD PTR _intSample$[ebp]
  00a81	2b d1		 sub	 edx, ecx
  00a83	89 55 94	 mov	 DWORD PTR _intSample$[ebp], edx
$LN8@ModPSKData:

; 762  : 						}
; 763  : 						else

  00a86	e9 9f 00 00 00	 jmp	 $LN5@ModPSKData
$LN10@ModPSKData:

; 764  : 						{
; 765  : 							if (bytSymToSend < 4) // This uses the symmetry of the symbols to reduce the table size by a factor of 2

  00a8b	0f b6 85 4b ff
	ff ff		 movzx	 eax, BYTE PTR _bytSymToSend$[ebp]
  00a92	83 f8 04	 cmp	 eax, 4
  00a95	7d 49		 jge	 SHORT $LN6@ModPSKData

; 766  : 								intSample += 0.5f * intPSK100bdCarTemplate[intCarIndex][bytSymToSend][n]; // positive phase values template lookup for 8PSK.

  00a97	8b 85 b8 fe ff
	ff		 mov	 eax, DWORD PTR _intCarIndex$[ebp]
  00a9d	69 c0 c0 03 00
	00		 imul	 eax, 960		; 000003c0H
  00aa3	0f b6 8d 4b ff
	ff ff		 movzx	 ecx, BYTE PTR _bytSymToSend$[ebp]
  00aaa	69 c9 f0 00 00
	00		 imul	 ecx, 240		; 000000f0H
  00ab0	8d 94 08 00 00
	00 00		 lea	 edx, DWORD PTR _intPSK100bdCarTemplate[eax+ecx]
  00ab7	8b 85 dc fe ff
	ff		 mov	 eax, DWORD PTR _n$[ebp]
  00abd	0f bf 0c 42	 movsx	 ecx, WORD PTR [edx+eax*2]
  00ac1	89 8d dc fd ff
	ff		 mov	 DWORD PTR tv648[ebp], ecx
  00ac7	db 85 dc fd ff
	ff		 fild	 DWORD PTR tv648[ebp]
  00acd	dc 0d 00 00 00
	00		 fmul	 QWORD PTR __real@3fe0000000000000
  00ad3	da 45 94	 fiadd	 DWORD PTR _intSample$[ebp]
  00ad6	e8 00 00 00 00	 call	 __ftol2_sse
  00adb	89 45 94	 mov	 DWORD PTR _intSample$[ebp], eax

; 767  : 							else

  00ade	eb 4a		 jmp	 SHORT $LN5@ModPSKData
$LN6@ModPSKData:

; 768  : 								intSample -= 0.5f * intPSK100bdCarTemplate[intCarIndex][bytSymToSend - 4][n]; // negative phase values,  subtract value of table 

  00ae0	8b 85 b8 fe ff
	ff		 mov	 eax, DWORD PTR _intCarIndex$[ebp]
  00ae6	69 c0 c0 03 00
	00		 imul	 eax, 960		; 000003c0H
  00aec	0f b6 8d 4b ff
	ff ff		 movzx	 ecx, BYTE PTR _bytSymToSend$[ebp]
  00af3	83 e9 04	 sub	 ecx, 4
  00af6	69 c9 f0 00 00
	00		 imul	 ecx, 240		; 000000f0H
  00afc	8d 94 08 00 00
	00 00		 lea	 edx, DWORD PTR _intPSK100bdCarTemplate[eax+ecx]
  00b03	8b 85 dc fe ff
	ff		 mov	 eax, DWORD PTR _n$[ebp]
  00b09	0f bf 0c 42	 movsx	 ecx, WORD PTR [edx+eax*2]
  00b0d	89 8d dc fd ff
	ff		 mov	 DWORD PTR tv656[ebp], ecx
  00b13	db 85 dc fd ff
	ff		 fild	 DWORD PTR tv656[ebp]
  00b19	dc 0d 00 00 00
	00		 fmul	 QWORD PTR __real@3fe0000000000000
  00b1f	da 6d 94	 fisubr	 DWORD PTR _intSample$[ebp]
  00b22	e8 00 00 00 00	 call	 __ftol2_sse
  00b27	89 45 94	 mov	 DWORD PTR _intSample$[ebp], eax
$LN5@ModPSKData:

; 769  : 						}
; 770  : 					//}	
; 771  : 						if (n == intSampPerSym - 1)		// Last sample?

  00b2a	8b 45 b8	 mov	 eax, DWORD PTR _intSampPerSym$[ebp]
  00b2d	83 e8 01	 sub	 eax, 1
  00b30	39 85 dc fe ff
	ff		 cmp	 DWORD PTR _n$[ebp], eax
  00b36	75 13		 jne	 SHORT $LN4@ModPSKData

; 772  : 							bytLastSym[intCarIndex] = bytSymToSend;

  00b38	8b 85 b8 fe ff
	ff		 mov	 eax, DWORD PTR _intCarIndex$[ebp]
  00b3e	8a 8d 4b ff ff
	ff		 mov	 cl, BYTE PTR _bytSymToSend$[ebp]
  00b44	88 8c 05 a4 fe
	ff ff		 mov	 BYTE PTR _bytLastSym$[ebp+eax], cl
$LN4@ModPSKData:

; 773  : 					
; 774  : 						intCarIndex += 1;

  00b4b	8b 85 b8 fe ff
	ff		 mov	 eax, DWORD PTR _intCarIndex$[ebp]
  00b51	83 c0 01	 add	 eax, 1
  00b54	89 85 b8 fe ff
	ff		 mov	 DWORD PTR _intCarIndex$[ebp], eax

; 775  : 						if (intCarIndex == 4)

  00b5a	83 bd b8 fe ff
	ff 04		 cmp	 DWORD PTR _intCarIndex$[ebp], 4
  00b61	75 0f		 jne	 SHORT $LN3@ModPSKData

; 776  : 							intCarIndex += 1;  // skip over 1500 Hz for multi carrier modes (multi carrier modes all use even hundred Hz tones)

  00b63	8b 85 b8 fe ff
	ff		 mov	 eax, DWORD PTR _intCarIndex$[ebp]
  00b69	83 c0 01	 add	 eax, 1
  00b6c	89 85 b8 fe ff
	ff		 mov	 DWORD PTR _intCarIndex$[ebp], eax
$LN3@ModPSKData:

; 777  : 					}

  00b72	e9 1c fe ff ff	 jmp	 $LN12@ModPSKData
$LN11@ModPSKData:

; 778  : 
; 779  : 					intSample = intSample * dblCarScalingFactor; // on the last carrier rescale value based on # of carriers to bound output

  00b77	db 45 94	 fild	 DWORD PTR _intSample$[ebp]
  00b7a	d8 8d 24 ff ff
	ff		 fmul	 DWORD PTR _dblCarScalingFactor$[ebp]
  00b80	e8 00 00 00 00	 call	 __ftol2_sse
  00b85	89 45 94	 mov	 DWORD PTR _intSample$[ebp], eax

; 780  : 
; 781  : 					if (intSample > 32700)

  00b88	81 7d 94 bc 7f
	00 00		 cmp	 DWORD PTR _intSample$[ebp], 32700 ; 00007fbcH
  00b8f	7e 07		 jle	 SHORT $LN2@ModPSKData

; 782  : 						intSample = 32700;

  00b91	c7 45 94 bc 7f
	00 00		 mov	 DWORD PTR _intSample$[ebp], 32700 ; 00007fbcH
$LN2@ModPSKData:

; 783  : 				
; 784  : 					if (intSample < -32700)

  00b98	81 7d 94 44 80
	ff ff		 cmp	 DWORD PTR _intSample$[ebp], -32700 ; ffff8044H
  00b9f	7d 07		 jge	 SHORT $LN1@ModPSKData

; 785  : 					  	intSample = -32700;

  00ba1	c7 45 94 44 80
	ff ff		 mov	 DWORD PTR _intSample$[ebp], -32700 ; ffff8044H
$LN1@ModPSKData:

; 786  : 					
; 787  : 					SampleSink(intSample);		

  00ba8	66 8b 45 94	 mov	 ax, WORD PTR _intSample$[ebp]
  00bac	50		 push	 eax
  00bad	e8 00 00 00 00	 call	 _SampleSink
  00bb2	83 c4 04	 add	 esp, 4

; 788  : 				}      

  00bb5	e9 9c fd ff ff	 jmp	 $LN15@ModPSKData
$LN14@ModPSKData:

; 789  : 				bytMask = bytMask >> 4;

  00bba	0f b6 85 3f ff
	ff ff		 movzx	 eax, BYTE PTR _bytMask$[ebp]
  00bc1	c1 f8 04	 sar	 eax, 4
  00bc4	88 85 3f ff ff
	ff		 mov	 BYTE PTR _bytMask$[ebp], al

; 790  : 			}

  00bca	e9 5f fd ff ff	 jmp	 $LN18@ModPSKData
$LN17@ModPSKData:

; 791  : 			intDataPtr += 1;

  00bcf	8b 45 c4	 mov	 eax, DWORD PTR _intDataPtr$[ebp]
  00bd2	83 c0 01	 add	 eax, 1
  00bd5	89 45 c4	 mov	 DWORD PTR _intDataPtr$[ebp], eax

; 792  : 		}

  00bd8	e9 20 fd ff ff	 jmp	 $LN21@ModPSKData
$LN20@ModPSKData:

; 793  : 	}
; 794  : 
; 795  : 	Flush();

  00bdd	e8 00 00 00 00	 call	 _Flush
$LN101@ModPSKData:

; 796  : }

  00be2	52		 push	 edx
  00be3	8b cd		 mov	 ecx, ebp
  00be5	50		 push	 eax
  00be6	8d 15 00 00 00
	00		 lea	 edx, DWORD PTR $LN113@ModPSKData
  00bec	e8 00 00 00 00	 call	 @_RTC_CheckStackVars@8
  00bf1	58		 pop	 eax
  00bf2	5a		 pop	 edx
  00bf3	5f		 pop	 edi
  00bf4	5e		 pop	 esi
  00bf5	5b		 pop	 ebx
  00bf6	8b 4d fc	 mov	 ecx, DWORD PTR __$ArrayPad$[ebp]
  00bf9	33 cd		 xor	 ecx, ebp
  00bfb	e8 00 00 00 00	 call	 @__security_check_cookie@4
  00c00	81 c4 24 02 00
	00		 add	 esp, 548		; 00000224H
  00c06	3b ec		 cmp	 ebp, esp
  00c08	e8 00 00 00 00	 call	 __RTC_CheckEsp
  00c0d	8b e5		 mov	 esp, ebp
  00c0f	5d		 pop	 ebp
  00c10	c3		 ret	 0
  00c11	8d 49 00	 npad	 3
$LN113@ModPSKData:
  00c14	09 00 00 00	 DD	 9
  00c18	00 00 00 00	 DD	 $LN112@ModPSKData
$LN112@ModPSKData:
  00c1c	f4 ff ff ff	 DD	 -12			; fffffff4H
  00c20	04 00 00 00	 DD	 4
  00c24	00 00 00 00	 DD	 $LN103@ModPSKData
  00c28	e8 ff ff ff	 DD	 -24			; ffffffe8H
  00c2c	04 00 00 00	 DD	 4
  00c30	00 00 00 00	 DD	 $LN104@ModPSKData
  00c34	dc ff ff ff	 DD	 -36			; ffffffdcH
  00c38	04 00 00 00	 DD	 4
  00c3c	00 00 00 00	 DD	 $LN105@ModPSKData
  00c40	d0 ff ff ff	 DD	 -48			; ffffffd0H
  00c44	04 00 00 00	 DD	 4
  00c48	00 00 00 00	 DD	 $LN106@ModPSKData
  00c4c	a0 ff ff ff	 DD	 -96			; ffffffa0H
  00c50	04 00 00 00	 DD	 4
  00c54	00 00 00 00	 DD	 $LN107@ModPSKData
  00c58	78 ff ff ff	 DD	 -136			; ffffff78H
  00c5c	12 00 00 00	 DD	 18			; 00000012H
  00c60	00 00 00 00	 DD	 $LN108@ModPSKData
  00c64	60 ff ff ff	 DD	 -160			; ffffff60H
  00c68	10 00 00 00	 DD	 16			; 00000010H
  00c6c	00 00 00 00	 DD	 $LN109@ModPSKData
  00c70	33 ff ff ff	 DD	 -205			; ffffff33H
  00c74	01 00 00 00	 DD	 1
  00c78	00 00 00 00	 DD	 $LN110@ModPSKData
  00c7c	a4 fe ff ff	 DD	 -348			; fffffea4H
  00c80	09 00 00 00	 DD	 9
  00c84	00 00 00 00	 DD	 $LN111@ModPSKData
$LN111@ModPSKData:
  00c88	62		 DB	 98			; 00000062H
  00c89	79		 DB	 121			; 00000079H
  00c8a	74		 DB	 116			; 00000074H
  00c8b	4c		 DB	 76			; 0000004cH
  00c8c	61		 DB	 97			; 00000061H
  00c8d	73		 DB	 115			; 00000073H
  00c8e	74		 DB	 116			; 00000074H
  00c8f	53		 DB	 83			; 00000053H
  00c90	79		 DB	 121			; 00000079H
  00c91	6d		 DB	 109			; 0000006dH
  00c92	00		 DB	 0
$LN110@ModPSKData:
  00c93	62		 DB	 98			; 00000062H
  00c94	79		 DB	 121			; 00000079H
  00c95	74		 DB	 116			; 00000074H
  00c96	4d		 DB	 77			; 0000004dH
  00c97	69		 DB	 105			; 00000069H
  00c98	6e		 DB	 110			; 0000006eH
  00c99	51		 DB	 81			; 00000051H
  00c9a	75		 DB	 117			; 00000075H
  00c9b	61		 DB	 97			; 00000061H
  00c9c	6c		 DB	 108			; 0000006cH
  00c9d	54		 DB	 84			; 00000054H
  00c9e	68		 DB	 104			; 00000068H
  00c9f	72		 DB	 114			; 00000072H
  00ca0	65		 DB	 101			; 00000065H
  00ca1	73		 DB	 115			; 00000073H
  00ca2	68		 DB	 104			; 00000068H
  00ca3	00		 DB	 0
$LN109@ModPSKData:
  00ca4	73		 DB	 115			; 00000073H
  00ca5	74		 DB	 116			; 00000074H
  00ca6	72		 DB	 114			; 00000072H
  00ca7	4d		 DB	 77			; 0000004dH
  00ca8	6f		 DB	 111			; 0000006fH
  00ca9	64		 DB	 100			; 00000064H
  00caa	00		 DB	 0
$LN108@ModPSKData:
  00cab	73		 DB	 115			; 00000073H
  00cac	74		 DB	 116			; 00000074H
  00cad	72		 DB	 114			; 00000072H
  00cae	54		 DB	 84			; 00000054H
  00caf	79		 DB	 121			; 00000079H
  00cb0	70		 DB	 112			; 00000070H
  00cb1	65		 DB	 101			; 00000065H
  00cb2	00		 DB	 0
$LN107@ModPSKData:
  00cb3	62		 DB	 98			; 00000062H
  00cb4	6c		 DB	 108			; 0000006cH
  00cb5	6e		 DB	 110			; 0000006eH
  00cb6	4f		 DB	 79			; 0000004fH
  00cb7	64		 DB	 100			; 00000064H
  00cb8	64		 DB	 100			; 00000064H
  00cb9	00		 DB	 0
$LN106@ModPSKData:
  00cba	69		 DB	 105			; 00000069H
  00cbb	6e		 DB	 110			; 0000006eH
  00cbc	74		 DB	 116			; 00000074H
  00cbd	52		 DB	 82			; 00000052H
  00cbe	53		 DB	 83			; 00000053H
  00cbf	4c		 DB	 76			; 0000004cH
  00cc0	65		 DB	 101			; 00000065H
  00cc1	6e		 DB	 110			; 0000006eH
  00cc2	00		 DB	 0
$LN105@ModPSKData:
  00cc3	69		 DB	 105			; 00000069H
  00cc4	6e		 DB	 110			; 0000006eH
  00cc5	74		 DB	 116			; 00000074H
  00cc6	44		 DB	 68			; 00000044H
  00cc7	61		 DB	 97			; 00000061H
  00cc8	74		 DB	 116			; 00000074H
  00cc9	61		 DB	 97			; 00000061H
  00cca	4c		 DB	 76			; 0000004cH
  00ccb	65		 DB	 101			; 00000065H
  00ccc	6e		 DB	 110			; 0000006eH
  00ccd	00		 DB	 0
$LN104@ModPSKData:
  00cce	69		 DB	 105			; 00000069H
  00ccf	6e		 DB	 110			; 0000006eH
  00cd0	74		 DB	 116			; 00000074H
  00cd1	42		 DB	 66			; 00000042H
  00cd2	61		 DB	 97			; 00000061H
  00cd3	75		 DB	 117			; 00000075H
  00cd4	64		 DB	 100			; 00000064H
  00cd5	00		 DB	 0
$LN103@ModPSKData:
  00cd6	69		 DB	 105			; 00000069H
  00cd7	6e		 DB	 110			; 0000006eH
  00cd8	74		 DB	 116			; 00000074H
  00cd9	4e		 DB	 78			; 0000004eH
  00cda	75		 DB	 117			; 00000075H
  00cdb	6d		 DB	 109			; 0000006dH
  00cdc	43		 DB	 67			; 00000043H
  00cdd	61		 DB	 97			; 00000061H
  00cde	72		 DB	 114			; 00000072H
  00cdf	00		 DB	 0
$LN114@ModPSKData:
  00ce0	00 00 00 00	 DD	 $LN84@ModPSKData
  00ce4	00 00 00 00	 DD	 $LN83@ModPSKData
  00ce8	00 00 00 00	 DD	 $LN85@ModPSKData
  00cec	00 00 00 00	 DD	 $LN82@ModPSKData
  00cf0	00 00 00 00	 DD	 $LN85@ModPSKData
  00cf4	00 00 00 00	 DD	 $LN85@ModPSKData
  00cf8	00 00 00 00	 DD	 $LN85@ModPSKData
  00cfc	00 00 00 00	 DD	 $LN81@ModPSKData
_ModPSKDataAndPlay ENDP
_TEXT	ENDS
PUBLIC	_AddTrailer
EXTRN	_TrailerLength:DWORD
; Function compile flags: /Odtp /RTCsu /ZI
;	COMDAT _AddTrailer
_TEXT	SEGMENT
_k$ = -32						; size = 4
_i$ = -20						; size = 4
_intAddedSymbols$ = -8					; size = 4
_AddTrailer PROC					; COMDAT

; 802  : {

  00000	55		 push	 ebp
  00001	8b ec		 mov	 ebp, esp
  00003	81 ec e4 00 00
	00		 sub	 esp, 228		; 000000e4H
  00009	53		 push	 ebx
  0000a	56		 push	 esi
  0000b	57		 push	 edi
  0000c	8d bd 1c ff ff
	ff		 lea	 edi, DWORD PTR [ebp-228]
  00012	b9 39 00 00 00	 mov	 ecx, 57			; 00000039H
  00017	b8 cc cc cc cc	 mov	 eax, -858993460		; ccccccccH
  0001c	f3 ab		 rep stosd

; 803  : 	int intAddedSymbols = 1 + TrailerLength / 10; // add 1 symbol + 1 per each 10 ms of MCB.Trailer

  0001e	a1 00 00 00 00	 mov	 eax, DWORD PTR _TrailerLength
  00023	99		 cdq
  00024	b9 0a 00 00 00	 mov	 ecx, 10			; 0000000aH
  00029	f7 f9		 idiv	 ecx
  0002b	83 c0 01	 add	 eax, 1
  0002e	89 45 f8	 mov	 DWORD PTR _intAddedSymbols$[ebp], eax

; 804  : 	int i, k;
; 805  : 
; 806  : 	for (i = 1; i <= intAddedSymbols; i++)

  00031	c7 45 ec 01 00
	00 00		 mov	 DWORD PTR _i$[ebp], 1
  00038	eb 09		 jmp	 SHORT $LN6@AddTrailer
$LN5@AddTrailer:
  0003a	8b 45 ec	 mov	 eax, DWORD PTR _i$[ebp]
  0003d	83 c0 01	 add	 eax, 1
  00040	89 45 ec	 mov	 DWORD PTR _i$[ebp], eax
$LN6@AddTrailer:
  00043	8b 45 ec	 mov	 eax, DWORD PTR _i$[ebp]
  00046	3b 45 f8	 cmp	 eax, DWORD PTR _intAddedSymbols$[ebp]
  00049	7f 30		 jg	 SHORT $LN7@AddTrailer

; 807  : 	{
; 808  : 		for (k = 0; k < 120; k++)

  0004b	c7 45 e0 00 00
	00 00		 mov	 DWORD PTR _k$[ebp], 0
  00052	eb 09		 jmp	 SHORT $LN3@AddTrailer
$LN2@AddTrailer:
  00054	8b 45 e0	 mov	 eax, DWORD PTR _k$[ebp]
  00057	83 c0 01	 add	 eax, 1
  0005a	89 45 e0	 mov	 DWORD PTR _k$[ebp], eax
$LN3@AddTrailer:
  0005d	83 7d e0 78	 cmp	 DWORD PTR _k$[ebp], 120	; 00000078H
  00061	7d 16		 jge	 SHORT $LN1@AddTrailer

; 809  : 		{
; 810  : 			SampleSink(intPSK100bdCarTemplate[4][0][k]);

  00063	8b 45 e0	 mov	 eax, DWORD PTR _k$[ebp]
  00066	66 8b 0c 45 00
	0f 00 00	 mov	 cx, WORD PTR _intPSK100bdCarTemplate[eax*2+3840]
  0006e	51		 push	 ecx
  0006f	e8 00 00 00 00	 call	 _SampleSink
  00074	83 c4 04	 add	 esp, 4

; 811  : 		}

  00077	eb db		 jmp	 SHORT $LN2@AddTrailer
$LN1@AddTrailer:

; 812  : 	}

  00079	eb bf		 jmp	 SHORT $LN5@AddTrailer
$LN7@AddTrailer:

; 813  : }

  0007b	5f		 pop	 edi
  0007c	5e		 pop	 esi
  0007d	5b		 pop	 ebx
  0007e	81 c4 e4 00 00
	00		 add	 esp, 228		; 000000e4H
  00084	3b ec		 cmp	 ebp, esp
  00086	e8 00 00 00 00	 call	 __RTC_CheckEsp
  0008b	8b e5		 mov	 esp, ebp
  0008d	5d		 pop	 ebp
  0008e	c3		 ret	 0
_AddTrailer ENDP
_TEXT	ENDS
PUBLIC	__$ArrayPad$
PUBLIC	_RemodulateLastFrame
EXTRN	_EncLen:DWORD
EXTRN	_intCalcLeader:DWORD
EXTRN	_bytEncodedBytes:BYTE
; Function compile flags: /Odtp /RTCsu /ZI
;	COMDAT _RemodulateLastFrame
_TEXT	SEGMENT
_strMod$ = -124						; size = 16
_strType$ = -100					; size = 18
_blnOdd$ = -72						; size = 4
_bytMinQualThresh$ = -57				; size = 1
_intRSLen$ = -48					; size = 4
_intDataLen$ = -36					; size = 4
_intBaud$ = -24						; size = 4
_intNumCar$ = -12					; size = 4
__$ArrayPad$ = -4					; size = 4
_RemodulateLastFrame PROC				; COMDAT

; 818  : {	

  00000	55		 push	 ebp
  00001	8b ec		 mov	 ebp, esp
  00003	81 ec 40 01 00
	00		 sub	 esp, 320		; 00000140H
  00009	53		 push	 ebx
  0000a	56		 push	 esi
  0000b	57		 push	 edi
  0000c	8d bd c0 fe ff
	ff		 lea	 edi, DWORD PTR [ebp-320]
  00012	b9 50 00 00 00	 mov	 ecx, 80			; 00000050H
  00017	b8 cc cc cc cc	 mov	 eax, -858993460		; ccccccccH
  0001c	f3 ab		 rep stosd
  0001e	a1 00 00 00 00	 mov	 eax, DWORD PTR ___security_cookie
  00023	33 c5		 xor	 eax, ebp
  00025	89 45 fc	 mov	 DWORD PTR __$ArrayPad$[ebp], eax

; 819  : 	int intNumCar, intBaud, intDataLen, intRSLen;
; 820  : 	UCHAR bytMinQualThresh;
; 821  : 	BOOL blnOdd;
; 822  : 
; 823  : 	char strType[18] = "";

  00028	a0 00 00 00 00	 mov	 al, BYTE PTR ??_C@_00CNPNBAHC@?$AA@
  0002d	88 45 9c	 mov	 BYTE PTR _strType$[ebp], al
  00030	33 c0		 xor	 eax, eax
  00032	89 45 9d	 mov	 DWORD PTR _strType$[ebp+1], eax
  00035	89 45 a1	 mov	 DWORD PTR _strType$[ebp+5], eax
  00038	89 45 a5	 mov	 DWORD PTR _strType$[ebp+9], eax
  0003b	89 45 a9	 mov	 DWORD PTR _strType$[ebp+13], eax
  0003e	88 45 ad	 mov	 BYTE PTR _strType$[ebp+17], al

; 824  :     char strMod[16] = "";

  00041	a0 00 00 00 00	 mov	 al, BYTE PTR ??_C@_00CNPNBAHC@?$AA@
  00046	88 45 84	 mov	 BYTE PTR _strMod$[ebp], al
  00049	33 c0		 xor	 eax, eax
  0004b	89 45 85	 mov	 DWORD PTR _strMod$[ebp+1], eax
  0004e	89 45 89	 mov	 DWORD PTR _strMod$[ebp+5], eax
  00051	89 45 8d	 mov	 DWORD PTR _strMod$[ebp+9], eax
  00054	66 89 45 91	 mov	 WORD PTR _strMod$[ebp+13], ax
  00058	88 45 93	 mov	 BYTE PTR _strMod$[ebp+15], al

; 825  : 
; 826  : 	if (!FrameInfo(bytEncodedBytes[0], &blnOdd, &intNumCar, strMod, &intBaud, &intDataLen, &intRSLen, &bytMinQualThresh, strType))

  0005b	8d 45 9c	 lea	 eax, DWORD PTR _strType$[ebp]
  0005e	50		 push	 eax
  0005f	8d 4d c7	 lea	 ecx, DWORD PTR _bytMinQualThresh$[ebp]
  00062	51		 push	 ecx
  00063	8d 55 d0	 lea	 edx, DWORD PTR _intRSLen$[ebp]
  00066	52		 push	 edx
  00067	8d 45 dc	 lea	 eax, DWORD PTR _intDataLen$[ebp]
  0006a	50		 push	 eax
  0006b	8d 4d e8	 lea	 ecx, DWORD PTR _intBaud$[ebp]
  0006e	51		 push	 ecx
  0006f	8d 55 84	 lea	 edx, DWORD PTR _strMod$[ebp]
  00072	52		 push	 edx
  00073	8d 45 f4	 lea	 eax, DWORD PTR _intNumCar$[ebp]
  00076	50		 push	 eax
  00077	8d 4d b8	 lea	 ecx, DWORD PTR _blnOdd$[ebp]
  0007a	51		 push	 ecx
  0007b	8a 15 00 00 00
	00		 mov	 dl, BYTE PTR _bytEncodedBytes
  00081	52		 push	 edx
  00082	e8 00 00 00 00	 call	 _FrameInfo
  00087	83 c4 24	 add	 esp, 36			; 00000024H
  0008a	85 c0		 test	 eax, eax
  0008c	75 05		 jne	 SHORT $LN6@Remodulate

; 827  : 		return;

  0008e	e9 0c 01 00 00	 jmp	 $LN7@Remodulate
$LN6@Remodulate:

; 828  : 
; 829  : 	if (strcmp(strMod, "4FSK") == 0)

  00093	68 00 00 00 00	 push	 OFFSET ??_C@_04KOHEBHGC@4FSK?$AA@
  00098	8d 45 84	 lea	 eax, DWORD PTR _strMod$[ebp]
  0009b	50		 push	 eax
  0009c	e8 00 00 00 00	 call	 _strcmp
  000a1	83 c4 08	 add	 esp, 8
  000a4	85 c0		 test	 eax, eax
  000a6	75 63		 jne	 SHORT $LN5@Remodulate

; 830  : 	{
; 831  : 		if (bytEncodedBytes[0] >= 0x7A && bytEncodedBytes[0] <= 0x7D)

  000a8	0f b6 05 00 00
	00 00		 movzx	 eax, BYTE PTR _bytEncodedBytes
  000af	83 f8 7a	 cmp	 eax, 122		; 0000007aH
  000b2	7c 30		 jl	 SHORT $LN4@Remodulate
  000b4	0f b6 05 00 00
	00 00		 movzx	 eax, BYTE PTR _bytEncodedBytes
  000bb	83 f8 7d	 cmp	 eax, 125		; 0000007dH
  000be	7f 24		 jg	 SHORT $LN4@Remodulate

; 832  : 			Mod4FSK600BdDataAndPlay(bytEncodedBytes[0], bytEncodedBytes, EncLen, intCalcLeader);  // Modulate Data frame 

  000c0	a1 00 00 00 00	 mov	 eax, DWORD PTR _intCalcLeader
  000c5	50		 push	 eax
  000c6	8b 0d 00 00 00
	00		 mov	 ecx, DWORD PTR _EncLen
  000cc	51		 push	 ecx
  000cd	68 00 00 00 00	 push	 OFFSET _bytEncodedBytes
  000d2	0f b6 15 00 00
	00 00		 movzx	 edx, BYTE PTR _bytEncodedBytes
  000d9	52		 push	 edx
  000da	e8 00 00 00 00	 call	 _Mod4FSK600BdDataAndPlay
  000df	83 c4 10	 add	 esp, 16			; 00000010H

; 833  : 		else

  000e2	eb 22		 jmp	 SHORT $LN3@Remodulate
$LN4@Remodulate:

; 834  : 			Mod4FSKDataAndPlay(bytEncodedBytes[0], bytEncodedBytes, EncLen, intCalcLeader);  // Modulate Data frame 

  000e4	a1 00 00 00 00	 mov	 eax, DWORD PTR _intCalcLeader
  000e9	50		 push	 eax
  000ea	8b 0d 00 00 00
	00		 mov	 ecx, DWORD PTR _EncLen
  000f0	51		 push	 ecx
  000f1	68 00 00 00 00	 push	 OFFSET _bytEncodedBytes
  000f6	0f b6 15 00 00
	00 00		 movzx	 edx, BYTE PTR _bytEncodedBytes
  000fd	52		 push	 edx
  000fe	e8 00 00 00 00	 call	 _Mod4FSKDataAndPlay
  00103	83 c4 10	 add	 esp, 16			; 00000010H
$LN3@Remodulate:

; 835  : 
; 836  : 		return;

  00106	e9 94 00 00 00	 jmp	 $LN7@Remodulate
$LN5@Remodulate:

; 837  : 	}
; 838  : 	if (strcmp(strMod, "16FSK") == 0)

  0010b	68 00 00 00 00	 push	 OFFSET ??_C@_05GMHCMGLE@16FSK?$AA@
  00110	8d 45 84	 lea	 eax, DWORD PTR _strMod$[ebp]
  00113	50		 push	 eax
  00114	e8 00 00 00 00	 call	 _strcmp
  00119	83 c4 08	 add	 esp, 8
  0011c	85 c0		 test	 eax, eax
  0011e	75 24		 jne	 SHORT $LN2@Remodulate

; 839  : 	{
; 840  : 		Mod16FSKDataAndPlay(bytEncodedBytes[0], bytEncodedBytes, EncLen, intCalcLeader);  // Modulate Data frame 

  00120	a1 00 00 00 00	 mov	 eax, DWORD PTR _intCalcLeader
  00125	50		 push	 eax
  00126	8b 0d 00 00 00
	00		 mov	 ecx, DWORD PTR _EncLen
  0012c	51		 push	 ecx
  0012d	68 00 00 00 00	 push	 OFFSET _bytEncodedBytes
  00132	0f b6 15 00 00
	00 00		 movzx	 edx, BYTE PTR _bytEncodedBytes
  00139	52		 push	 edx
  0013a	e8 00 00 00 00	 call	 _Mod16FSKDataAndPlay
  0013f	83 c4 10	 add	 esp, 16			; 00000010H

; 841  : 		return;

  00142	eb 5b		 jmp	 SHORT $LN7@Remodulate
$LN2@Remodulate:

; 842  : 	}
; 843  : 	if (strcmp(strMod, "8FSK") == 0)

  00144	68 00 00 00 00	 push	 OFFSET ??_C@_04GLIEPKGD@8FSK?$AA@
  00149	8d 45 84	 lea	 eax, DWORD PTR _strMod$[ebp]
  0014c	50		 push	 eax
  0014d	e8 00 00 00 00	 call	 _strcmp
  00152	83 c4 08	 add	 esp, 8
  00155	85 c0		 test	 eax, eax
  00157	75 24		 jne	 SHORT $LN1@Remodulate

; 844  : 	{
; 845  : 		Mod8FSKDataAndPlay(bytEncodedBytes[0], bytEncodedBytes, EncLen, intCalcLeader);  // Modulate Data frame 

  00159	a1 00 00 00 00	 mov	 eax, DWORD PTR _intCalcLeader
  0015e	50		 push	 eax
  0015f	8b 0d 00 00 00
	00		 mov	 ecx, DWORD PTR _EncLen
  00165	51		 push	 ecx
  00166	68 00 00 00 00	 push	 OFFSET _bytEncodedBytes
  0016b	0f b6 15 00 00
	00 00		 movzx	 edx, BYTE PTR _bytEncodedBytes
  00172	52		 push	 edx
  00173	e8 00 00 00 00	 call	 _Mod8FSKDataAndPlay
  00178	83 c4 10	 add	 esp, 16			; 00000010H

; 846  : 		return;

  0017b	eb 22		 jmp	 SHORT $LN7@Remodulate
$LN1@Remodulate:

; 847  : 	}
; 848  : 	ModPSKDataAndPlay(bytEncodedBytes[0], bytEncodedBytes, EncLen, intCalcLeader);  // Modulate Data frame 

  0017d	a1 00 00 00 00	 mov	 eax, DWORD PTR _intCalcLeader
  00182	50		 push	 eax
  00183	8b 0d 00 00 00
	00		 mov	 ecx, DWORD PTR _EncLen
  00189	51		 push	 ecx
  0018a	68 00 00 00 00	 push	 OFFSET _bytEncodedBytes
  0018f	0f b6 15 00 00
	00 00		 movzx	 edx, BYTE PTR _bytEncodedBytes
  00196	52		 push	 edx
  00197	e8 00 00 00 00	 call	 _ModPSKDataAndPlay
  0019c	83 c4 10	 add	 esp, 16			; 00000010H
$LN7@Remodulate:

; 849  : }

  0019f	52		 push	 edx
  001a0	8b cd		 mov	 ecx, ebp
  001a2	50		 push	 eax
  001a3	8d 15 00 00 00
	00		 lea	 edx, DWORD PTR $LN18@Remodulate
  001a9	e8 00 00 00 00	 call	 @_RTC_CheckStackVars@8
  001ae	58		 pop	 eax
  001af	5a		 pop	 edx
  001b0	5f		 pop	 edi
  001b1	5e		 pop	 esi
  001b2	5b		 pop	 ebx
  001b3	8b 4d fc	 mov	 ecx, DWORD PTR __$ArrayPad$[ebp]
  001b6	33 cd		 xor	 ecx, ebp
  001b8	e8 00 00 00 00	 call	 @__security_check_cookie@4
  001bd	81 c4 40 01 00
	00		 add	 esp, 320		; 00000140H
  001c3	3b ec		 cmp	 ebp, esp
  001c5	e8 00 00 00 00	 call	 __RTC_CheckEsp
  001ca	8b e5		 mov	 esp, ebp
  001cc	5d		 pop	 ebp
  001cd	c3		 ret	 0
  001ce	8b ff		 npad	 2
$LN18@Remodulate:
  001d0	08 00 00 00	 DD	 8
  001d4	00 00 00 00	 DD	 $LN17@Remodulate
$LN17@Remodulate:
  001d8	f4 ff ff ff	 DD	 -12			; fffffff4H
  001dc	04 00 00 00	 DD	 4
  001e0	00 00 00 00	 DD	 $LN9@Remodulate
  001e4	e8 ff ff ff	 DD	 -24			; ffffffe8H
  001e8	04 00 00 00	 DD	 4
  001ec	00 00 00 00	 DD	 $LN10@Remodulate
  001f0	dc ff ff ff	 DD	 -36			; ffffffdcH
  001f4	04 00 00 00	 DD	 4
  001f8	00 00 00 00	 DD	 $LN11@Remodulate
  001fc	d0 ff ff ff	 DD	 -48			; ffffffd0H
  00200	04 00 00 00	 DD	 4
  00204	00 00 00 00	 DD	 $LN12@Remodulate
  00208	c7 ff ff ff	 DD	 -57			; ffffffc7H
  0020c	01 00 00 00	 DD	 1
  00210	00 00 00 00	 DD	 $LN13@Remodulate
  00214	b8 ff ff ff	 DD	 -72			; ffffffb8H
  00218	04 00 00 00	 DD	 4
  0021c	00 00 00 00	 DD	 $LN14@Remodulate
  00220	9c ff ff ff	 DD	 -100			; ffffff9cH
  00224	12 00 00 00	 DD	 18			; 00000012H
  00228	00 00 00 00	 DD	 $LN15@Remodulate
  0022c	84 ff ff ff	 DD	 -124			; ffffff84H
  00230	10 00 00 00	 DD	 16			; 00000010H
  00234	00 00 00 00	 DD	 $LN16@Remodulate
$LN16@Remodulate:
  00238	73		 DB	 115			; 00000073H
  00239	74		 DB	 116			; 00000074H
  0023a	72		 DB	 114			; 00000072H
  0023b	4d		 DB	 77			; 0000004dH
  0023c	6f		 DB	 111			; 0000006fH
  0023d	64		 DB	 100			; 00000064H
  0023e	00		 DB	 0
$LN15@Remodulate:
  0023f	73		 DB	 115			; 00000073H
  00240	74		 DB	 116			; 00000074H
  00241	72		 DB	 114			; 00000072H
  00242	54		 DB	 84			; 00000054H
  00243	79		 DB	 121			; 00000079H
  00244	70		 DB	 112			; 00000070H
  00245	65		 DB	 101			; 00000065H
  00246	00		 DB	 0
$LN14@Remodulate:
  00247	62		 DB	 98			; 00000062H
  00248	6c		 DB	 108			; 0000006cH
  00249	6e		 DB	 110			; 0000006eH
  0024a	4f		 DB	 79			; 0000004fH
  0024b	64		 DB	 100			; 00000064H
  0024c	64		 DB	 100			; 00000064H
  0024d	00		 DB	 0
$LN13@Remodulate:
  0024e	62		 DB	 98			; 00000062H
  0024f	79		 DB	 121			; 00000079H
  00250	74		 DB	 116			; 00000074H
  00251	4d		 DB	 77			; 0000004dH
  00252	69		 DB	 105			; 00000069H
  00253	6e		 DB	 110			; 0000006eH
  00254	51		 DB	 81			; 00000051H
  00255	75		 DB	 117			; 00000075H
  00256	61		 DB	 97			; 00000061H
  00257	6c		 DB	 108			; 0000006cH
  00258	54		 DB	 84			; 00000054H
  00259	68		 DB	 104			; 00000068H
  0025a	72		 DB	 114			; 00000072H
  0025b	65		 DB	 101			; 00000065H
  0025c	73		 DB	 115			; 00000073H
  0025d	68		 DB	 104			; 00000068H
  0025e	00		 DB	 0
$LN12@Remodulate:
  0025f	69		 DB	 105			; 00000069H
  00260	6e		 DB	 110			; 0000006eH
  00261	74		 DB	 116			; 00000074H
  00262	52		 DB	 82			; 00000052H
  00263	53		 DB	 83			; 00000053H
  00264	4c		 DB	 76			; 0000004cH
  00265	65		 DB	 101			; 00000065H
  00266	6e		 DB	 110			; 0000006eH
  00267	00		 DB	 0
$LN11@Remodulate:
  00268	69		 DB	 105			; 00000069H
  00269	6e		 DB	 110			; 0000006eH
  0026a	74		 DB	 116			; 00000074H
  0026b	44		 DB	 68			; 00000044H
  0026c	61		 DB	 97			; 00000061H
  0026d	74		 DB	 116			; 00000074H
  0026e	61		 DB	 97			; 00000061H
  0026f	4c		 DB	 76			; 0000004cH
  00270	65		 DB	 101			; 00000065H
  00271	6e		 DB	 110			; 0000006eH
  00272	00		 DB	 0
$LN10@Remodulate:
  00273	69		 DB	 105			; 00000069H
  00274	6e		 DB	 110			; 0000006eH
  00275	74		 DB	 116			; 00000074H
  00276	42		 DB	 66			; 00000042H
  00277	61		 DB	 97			; 00000061H
  00278	75		 DB	 117			; 00000075H
  00279	64		 DB	 100			; 00000064H
  0027a	00		 DB	 0
$LN9@Remodulate:
  0027b	69		 DB	 105			; 00000069H
  0027c	6e		 DB	 110			; 0000006eH
  0027d	74		 DB	 116			; 00000074H
  0027e	4e		 DB	 78			; 0000004eH
  0027f	75		 DB	 117			; 00000075H
  00280	6d		 DB	 109			; 0000006dH
  00281	43		 DB	 67			; 00000043H
  00282	61		 DB	 97			; 00000061H
  00283	72		 DB	 114			; 00000072H
  00284	00		 DB	 0
_RemodulateLastFrame ENDP
_TEXT	ENDS
PUBLIC	__real@401921fb00000000
PUBLIC	__real@0000000000000000
PUBLIC	__real@4000000000000000
PUBLIC	__real@00000000
EXTRN	_cos:PROC
EXTRN	_pow:PROC
EXTRN	_StopCapture:PROC
EXTRN	_SoundIsPlaying:DWORD
EXTRN	_KeyPTT:PROC
EXTRN	_SoundInit:PROC
EXTRN	_memset:PROC
_BSS	SEGMENT
_dblR2	DD	01H DUP (?)
_dblRn	DD	01H DUP (?)
_BSS	ENDS
;	COMDAT __real@401921fb00000000
CONST	SEGMENT
__real@401921fb00000000 DQ 0401921fb00000000r	; 6.28318
CONST	ENDS
;	COMDAT __real@0000000000000000
CONST	SEGMENT
__real@0000000000000000 DQ 00000000000000000r	; 0
CONST	ENDS
;	COMDAT __real@4000000000000000
CONST	SEGMENT
__real@4000000000000000 DQ 04000000000000000r	; 2
CONST	ENDS
;	COMDAT __real@00000000
CONST	SEGMENT
__real@00000000 DD 000000000r			; 0
; Function compile flags: /Odtp /RTCsu /ZI
CONST	ENDS
;	COMDAT _initFilter
_TEXT	SEGMENT
tv200 = -228						; size = 4
tv205 = -224						; size = 8
tv170 = -220						; size = 4
tv162 = -220						; size = 4
tv82 = -220						; size = 4
_j$ = -20						; size = 4
_i$ = -8						; size = 4
_Width$ = 8						; size = 4
_initFilter PROC					; COMDAT

; 892  : {

  00000	55		 push	 ebp
  00001	8b ec		 mov	 ebp, esp
  00003	81 ec e4 00 00
	00		 sub	 esp, 228		; 000000e4H
  00009	53		 push	 ebx
  0000a	56		 push	 esi
  0000b	57		 push	 edi
  0000c	8d bd 1c ff ff
	ff		 lea	 edi, DWORD PTR [ebp-228]
  00012	b9 39 00 00 00	 mov	 ecx, 57			; 00000039H
  00017	b8 cc cc cc cc	 mov	 eax, -858993460		; ccccccccH
  0001c	f3 ab		 rep stosd

; 893  : 	int i, j;
; 894  : 	fWidth = Width;

  0001e	8b 45 08	 mov	 eax, DWORD PTR _Width$[ebp]
  00021	a3 00 00 00 00	 mov	 DWORD PTR _fWidth, eax

; 895  : 	largest = smallest = 0;

  00026	d9 ee		 fldz
  00028	d9 1d 00 00 00
	00		 fstp	 DWORD PTR _smallest
  0002e	d9 05 00 00 00
	00		 fld	 DWORD PTR _smallest
  00034	d9 1d 00 00 00
	00		 fstp	 DWORD PTR _largest

; 896  : 	SampleNo = 0;

  0003a	c7 05 00 00 00
	00 00 00 00 00	 mov	 DWORD PTR _SampleNo, 0

; 897  : 	Number = 0;

  00044	c7 05 00 00 00
	00 00 00 00 00	 mov	 DWORD PTR _Number, 0

; 898  : 	outCount = 0;

  0004e	c7 05 00 00 00
	00 00 00 00 00	 mov	 DWORD PTR _outCount, 0

; 899  : 	memset(Last120, 0, 256);

  00058	68 00 01 00 00	 push	 256			; 00000100H
  0005d	6a 00		 push	 0
  0005f	68 00 00 00 00	 push	 OFFSET _Last120
  00064	e8 00 00 00 00	 call	 _memset
  00069	83 c4 0c	 add	 esp, 12			; 0000000cH

; 900  : 
; 901  : 	DMABuffer = SoundInit();

  0006c	e8 00 00 00 00	 call	 _SoundInit
  00071	a3 00 00 00 00	 mov	 DWORD PTR _DMABuffer, eax

; 902  : 
; 903  : 	KeyPTT(TRUE);

  00076	6a 01		 push	 1
  00078	e8 00 00 00 00	 call	 _KeyPTT
  0007d	83 c4 04	 add	 esp, 4

; 904  : 	SoundIsPlaying = TRUE;

  00080	c7 05 00 00 00
	00 01 00 00 00	 mov	 DWORD PTR _SoundIsPlaying, 1

; 905  : 	StopCapture();

  0008a	e8 00 00 00 00	 call	 _StopCapture

; 906  : 
; 907  : 	Last120Get = 0;

  0008f	c7 05 00 00 00
	00 00 00 00 00	 mov	 DWORD PTR _Last120Get, 0

; 908  : 	Last120Put = 120;

  00099	c7 05 00 00 00
	00 78 00 00 00	 mov	 DWORD PTR _Last120Put, 120 ; 00000078H

; 909  : 
; 910  : 	dblRn = powf(dblR, intN);

  000a3	db 05 00 00 00
	00		 fild	 DWORD PTR _intN
  000a9	83 ec 08	 sub	 esp, 8
  000ac	dd 1c 24	 fstp	 QWORD PTR [esp]
  000af	d9 05 00 00 00
	00		 fld	 DWORD PTR _dblR
  000b5	83 ec 08	 sub	 esp, 8
  000b8	dd 1c 24	 fstp	 QWORD PTR [esp]
  000bb	e8 00 00 00 00	 call	 _pow
  000c0	83 c4 10	 add	 esp, 16			; 00000010H
  000c3	d9 9d 24 ff ff
	ff		 fstp	 DWORD PTR tv162[ebp]
  000c9	d9 85 24 ff ff
	ff		 fld	 DWORD PTR tv162[ebp]
  000cf	d9 1d 00 00 00
	00		 fstp	 DWORD PTR _dblRn

; 911  : 	dblR2 = powf(dblR, 2);

  000d5	83 ec 08	 sub	 esp, 8
  000d8	dd 05 00 00 00
	00		 fld	 QWORD PTR __real@4000000000000000
  000de	dd 1c 24	 fstp	 QWORD PTR [esp]
  000e1	d9 05 00 00 00
	00		 fld	 DWORD PTR _dblR
  000e7	83 ec 08	 sub	 esp, 8
  000ea	dd 1c 24	 fstp	 QWORD PTR [esp]
  000ed	e8 00 00 00 00	 call	 _pow
  000f2	83 c4 10	 add	 esp, 16			; 00000010H
  000f5	d9 9d 24 ff ff
	ff		 fstp	 DWORD PTR tv170[ebp]
  000fb	d9 85 24 ff ff
	ff		 fld	 DWORD PTR tv170[ebp]
  00101	d9 1d 00 00 00
	00		 fstp	 DWORD PTR _dblR2

; 912  : 
; 913  : 	dblZin_2 = dblZin_1 = 0;

  00107	d9 ee		 fldz
  00109	d9 1d 00 00 00
	00		 fstp	 DWORD PTR _dblZin_1
  0010f	d9 05 00 00 00
	00		 fld	 DWORD PTR _dblZin_1
  00115	d9 1d 00 00 00
	00		 fstp	 DWORD PTR _dblZin_2

; 914  : 
; 915  : 	switch (fWidth)

  0011b	a1 00 00 00 00	 mov	 eax, DWORD PTR _fWidth
  00120	89 85 24 ff ff
	ff		 mov	 DWORD PTR tv82[ebp], eax
  00126	81 bd 24 ff ff
	ff e8 03 00 00	 cmp	 DWORD PTR tv82[ebp], 1000 ; 000003e8H
  00130	7f 26		 jg	 SHORT $LN16@initFilter
  00132	81 bd 24 ff ff
	ff e8 03 00 00	 cmp	 DWORD PTR tv82[ebp], 1000 ; 000003e8H
  0013c	74 54		 je	 SHORT $LN9@initFilter
  0013e	81 bd 24 ff ff
	ff c8 00 00 00	 cmp	 DWORD PTR tv82[ebp], 200 ; 000000c8H
  00148	74 1c		 je	 SHORT $LN11@initFilter
  0014a	81 bd 24 ff ff
	ff f4 01 00 00	 cmp	 DWORD PTR tv82[ebp], 500 ; 000001f4H
  00154	74 26		 je	 SHORT $LN10@initFilter
  00156	eb 64		 jmp	 SHORT $LN12@initFilter
$LN16@initFilter:
  00158	81 bd 24 ff ff
	ff d0 07 00 00	 cmp	 DWORD PTR tv82[ebp], 2000 ; 000007d0H
  00162	74 44		 je	 SHORT $LN8@initFilter
  00164	eb 56		 jmp	 SHORT $LN12@initFilter
$LN11@initFilter:

; 916  : 	{
; 917  : 	case 200:
; 918  : 
; 919  : 		// implements 3 100 Hz wide sections centered on 1500 Hz  (~200 Hz wide @ - 30dB centered on 1500 Hz)
; 920  : 
; 921  : 		first = 14;

  00166	c7 05 00 00 00
	00 0e 00 00 00	 mov	 DWORD PTR _first, 14	; 0000000eH

; 922  : 		last = 16;		// 3 filter sections

  00170	c7 05 00 00 00
	00 10 00 00 00	 mov	 DWORD PTR _last, 16	; 00000010H

; 923  : 		break;

  0017a	eb 40		 jmp	 SHORT $LN12@initFilter
$LN10@initFilter:

; 924  : 
; 925  : 	case 500:
; 926  : 
; 927  : 		// implements 7 100 Hz wide sections centered on 1500 Hz  (~500 Hz wide @ - 30dB centered on 1500 Hz)
; 928  : 
; 929  : 		first = 12;

  0017c	c7 05 00 00 00
	00 0c 00 00 00	 mov	 DWORD PTR _first, 12	; 0000000cH

; 930  : 		last = 18;		// 7 filter sections

  00186	c7 05 00 00 00
	00 12 00 00 00	 mov	 DWORD PTR _last, 18	; 00000012H

; 931  : 		break;

  00190	eb 2a		 jmp	 SHORT $LN12@initFilter
$LN9@initFilter:

; 932  : 
; 933  : 	case 1000:
; 934  : 		
; 935  : 		// implements 11 100 Hz wide sections centered on 1500 Hz  (~1000 Hz wide @ - 30dB centered on 1500 Hz)
; 936  : 
; 937  : 		first = 10;

  00192	c7 05 00 00 00
	00 0a 00 00 00	 mov	 DWORD PTR _first, 10	; 0000000aH

; 938  : 		last = 20;		// 7 filter sections

  0019c	c7 05 00 00 00
	00 14 00 00 00	 mov	 DWORD PTR _last, 20	; 00000014H

; 939  : 		break;

  001a6	eb 14		 jmp	 SHORT $LN12@initFilter
$LN8@initFilter:

; 940  : 
; 941  : 	case 2000:
; 942  : 		
; 943  : 		// implements 21 100 Hz wide sections centered on 1500 Hz  (~2000 Hz wide @ - 30dB centered on 1500 Hz)
; 944  : 
; 945  : 		first = 5;

  001a8	c7 05 00 00 00
	00 05 00 00 00	 mov	 DWORD PTR _first, 5

; 946  : 		last = 25;		// 7 filter sections

  001b2	c7 05 00 00 00
	00 19 00 00 00	 mov	 DWORD PTR _last, 25	; 00000019H
$LN12@initFilter:

; 947  : 	}
; 948  : 
; 949  : 	for (j = first; j <= last; j++)	   // calculate output for 3 resonators 

  001bc	a1 00 00 00 00	 mov	 eax, DWORD PTR _first
  001c1	89 45 ec	 mov	 DWORD PTR _j$[ebp], eax
  001c4	eb 09		 jmp	 SHORT $LN7@initFilter
$LN6@initFilter:
  001c6	8b 45 ec	 mov	 eax, DWORD PTR _j$[ebp]
  001c9	83 c0 01	 add	 eax, 1
  001cc	89 45 ec	 mov	 DWORD PTR _j$[ebp], eax
$LN7@initFilter:
  001cf	8b 45 ec	 mov	 eax, DWORD PTR _j$[ebp]
  001d2	3b 05 00 00 00
	00		 cmp	 eax, DWORD PTR _last
  001d8	7f 26		 jg	 SHORT $LN5@initFilter

; 950  : 	{
; 951  : 		dblZout_0[j] = 0;

  001da	8b 45 ec	 mov	 eax, DWORD PTR _j$[ebp]
  001dd	d9 ee		 fldz
  001df	d9 1c 85 00 00
	00 00		 fstp	 DWORD PTR _dblZout_0[eax*4]

; 952  : 		dblZout_1[j] = 0;

  001e6	8b 45 ec	 mov	 eax, DWORD PTR _j$[ebp]
  001e9	d9 ee		 fldz
  001eb	d9 1c 85 00 00
	00 00		 fstp	 DWORD PTR _dblZout_1[eax*4]

; 953  : 		dblZout_2[j] = 0;

  001f2	8b 45 ec	 mov	 eax, DWORD PTR _j$[ebp]
  001f5	d9 ee		 fldz
  001f7	d9 1c 85 00 00
	00 00		 fstp	 DWORD PTR _dblZout_2[eax*4]

; 954  : 	}

  001fe	eb c6		 jmp	 SHORT $LN6@initFilter
$LN5@initFilter:

; 955  : 
; 956  : 	// Initialise the coefficients
; 957  : 
; 958  : 	if (dblCoef[last] == 0.0)

  00200	a1 00 00 00 00	 mov	 eax, DWORD PTR _last
  00205	d9 04 85 00 00
	00 00		 fld	 DWORD PTR _dblCoef[eax*4]
  0020c	dc 1d 00 00 00
	00		 fcomp	 QWORD PTR __real@0000000000000000
  00212	df e0		 fnstsw	 ax
  00214	f6 c4 44	 test	 ah, 68			; 00000044H
  00217	7a 6b		 jp	 SHORT $LN1@initFilter

; 959  : 	{
; 960  : 		for (i = first; i <= last; i++)

  00219	a1 00 00 00 00	 mov	 eax, DWORD PTR _first
  0021e	89 45 f8	 mov	 DWORD PTR _i$[ebp], eax
  00221	eb 09		 jmp	 SHORT $LN3@initFilter
$LN2@initFilter:
  00223	8b 45 f8	 mov	 eax, DWORD PTR _i$[ebp]
  00226	83 c0 01	 add	 eax, 1
  00229	89 45 f8	 mov	 DWORD PTR _i$[ebp], eax
$LN3@initFilter:
  0022c	8b 45 f8	 mov	 eax, DWORD PTR _i$[ebp]
  0022f	3b 05 00 00 00
	00		 cmp	 eax, DWORD PTR _last
  00235	7f 4d		 jg	 SHORT $LN1@initFilter

; 961  : 		{
; 962  : 			dblCoef[i] = 2 * dblR * cosf(2 * M_PI * i / intN); // For Frequency = bin i

  00237	d9 05 00 00 00
	00		 fld	 DWORD PTR _dblR
  0023d	dc 0d 00 00 00
	00		 fmul	 QWORD PTR __real@4000000000000000
  00243	db 45 f8	 fild	 DWORD PTR _i$[ebp]
  00246	dc 0d 00 00 00
	00		 fmul	 QWORD PTR __real@401921fb00000000
  0024c	da 35 00 00 00
	00		 fidiv	 DWORD PTR _intN
  00252	83 ec 08	 sub	 esp, 8
  00255	dd 1c 24	 fstp	 QWORD PTR [esp]
  00258	dd 9d 20 ff ff
	ff		 fstp	 QWORD PTR tv205[ebp]
  0025e	e8 00 00 00 00	 call	 _cos
  00263	83 c4 08	 add	 esp, 8
  00266	d9 9d 1c ff ff
	ff		 fstp	 DWORD PTR tv200[ebp]
  0026c	d9 85 1c ff ff
	ff		 fld	 DWORD PTR tv200[ebp]
  00272	dc 8d 20 ff ff
	ff		 fmul	 QWORD PTR tv205[ebp]
  00278	8b 45 f8	 mov	 eax, DWORD PTR _i$[ebp]
  0027b	d9 1c 85 00 00
	00 00		 fstp	 DWORD PTR _dblCoef[eax*4]

; 963  : 		}

  00282	eb 9f		 jmp	 SHORT $LN2@initFilter
$LN1@initFilter:

; 964  : 	}
; 965  :  }

  00284	5f		 pop	 edi
  00285	5e		 pop	 esi
  00286	5b		 pop	 ebx
  00287	81 c4 e4 00 00
	00		 add	 esp, 228		; 000000e4H
  0028d	3b ec		 cmp	 ebp, esp
  0028f	e8 00 00 00 00	 call	 __RTC_CheckEsp
  00294	8b e5		 mov	 esp, ebp
  00296	5d		 pop	 ebp
  00297	c3		 ret	 0
_initFilter ENDP
_TEXT	ENDS
PUBLIC	__real@c6ff7800
PUBLIC	__real@c0dfef0000000000
PUBLIC	__real@46ff7800
PUBLIC	__real@40dfef0000000000
PUBLIC	__real@3f81111120000000
PUBLIC	__real@3fd7be76c0000000
PUBLIC	__real@3fd820c4a0000000
PUBLIC	__real@3fe300a7c0000000
PUBLIC	__real@3fbb2378a0000000
PUBLIC	__real@3fe7a511a0000000
EXTRN	_SendtoCard:PROC
;	COMDAT __real@c6ff7800
CONST	SEGMENT
__real@c6ff7800 DD 0c6ff7800r			; -32700
CONST	ENDS
;	COMDAT __real@c0dfef0000000000
CONST	SEGMENT
__real@c0dfef0000000000 DQ 0c0dfef0000000000r	; -32700
CONST	ENDS
;	COMDAT __real@46ff7800
CONST	SEGMENT
__real@46ff7800 DD 046ff7800r			; 32700
CONST	ENDS
;	COMDAT __real@40dfef0000000000
CONST	SEGMENT
__real@40dfef0000000000 DQ 040dfef0000000000r	; 32700
CONST	ENDS
;	COMDAT __real@3f81111120000000
CONST	SEGMENT
__real@3f81111120000000 DQ 03f81111120000000r	; 0.00833333
CONST	ENDS
;	COMDAT __real@3fd7be76c0000000
CONST	SEGMENT
__real@3fd7be76c0000000 DQ 03fd7be76c0000000r	; 0.371
CONST	ENDS
;	COMDAT __real@3fd820c4a0000000
CONST	SEGMENT
__real@3fd820c4a0000000 DQ 03fd820c4a0000000r	; 0.377
CONST	ENDS
;	COMDAT __real@3fe300a7c0000000
CONST	SEGMENT
__real@3fe300a7c0000000 DQ 03fe300a7c0000000r	; 0.59383
CONST	ENDS
;	COMDAT __real@3fbb2378a0000000
CONST	SEGMENT
__real@3fbb2378a0000000 DQ 03fbb2378a0000000r	; 0.10601
CONST	ENDS
;	COMDAT __real@3fe7a511a0000000
CONST	SEGMENT
__real@3fe7a511a0000000 DQ 03fe7a511a0000000r	; 0.7389
; Function compile flags: /Odtp /RTCsu /ZI
CONST	ENDS
;	COMDAT _SampleSink
_TEXT	SEGMENT
tv302 = -236						; size = 4
tv400 = -232						; size = 4
tv391 = -232						; size = 4
tv377 = -232						; size = 4
tv368 = -232						; size = 4
tv354 = -232						; size = 4
tv345 = -232						; size = 4
tv300 = -232						; size = 4
tv299 = -232						; size = 4
tv274 = -232						; size = 4
tv270 = -232						; size = 4
tv148 = -232						; size = 4
_intFilteredSample$ = -32				; size = 4
_j$ = -20						; size = 4
_intFilLen$ = -8					; size = 4
_Sample$ = 8						; size = 2
_SampleSink PROC					; COMDAT

; 969  : {

  00000	55		 push	 ebp
  00001	8b ec		 mov	 ebp, esp
  00003	81 ec ec 00 00
	00		 sub	 esp, 236		; 000000ecH
  00009	53		 push	 ebx
  0000a	56		 push	 esi
  0000b	57		 push	 edi
  0000c	8d bd 14 ff ff
	ff		 lea	 edi, DWORD PTR [ebp-236]
  00012	b9 3b 00 00 00	 mov	 ecx, 59			; 0000003bH
  00017	b8 cc cc cc cc	 mov	 eax, -858993460		; ccccccccH
  0001c	f3 ab		 rep stosd

; 970  : 	//	Filter and send to sound interface
; 971  : 
; 972  : 	// This version is passed samples one at a time, as we don't have
; 973  : 	//	enough RAM in embedded systems to hold a full audio frame
; 974  : 
; 975  : 	int intFilLen = intN / 2;

  0001e	a1 00 00 00 00	 mov	 eax, DWORD PTR _intN
  00023	99		 cdq
  00024	2b c2		 sub	 eax, edx
  00026	d1 f8		 sar	 eax, 1
  00028	89 45 f8	 mov	 DWORD PTR _intFilLen$[ebp], eax

; 976  : 	int j;
; 977  : 	float intFilteredSample = 0;			//  Filtered sample

  0002b	d9 ee		 fldz
  0002d	d9 5d e0	 fstp	 DWORD PTR _intFilteredSample$[ebp]

; 978  : 
; 979  : 	//	We save the previous intN samples
; 980  : 	//	The samples are held in a cyclic buffer
; 981  : 
; 982  : 	if (SampleNo < intN)

  00030	a1 00 00 00 00	 mov	 eax, DWORD PTR _SampleNo
  00035	3b 05 00 00 00
	00		 cmp	 eax, DWORD PTR _intN
  0003b	7d 18		 jge	 SHORT $LN43@SampleSink

; 983  : 		dblZin = Sample;

  0003d	0f bf 45 08	 movsx	 eax, WORD PTR _Sample$[ebp]
  00041	89 85 18 ff ff
	ff		 mov	 DWORD PTR tv299[ebp], eax
  00047	db 85 18 ff ff
	ff		 fild	 DWORD PTR tv299[ebp]
  0004d	d9 1d 00 00 00
	00		 fstp	 DWORD PTR _dblZin

; 984  : 	else 

  00053	eb 38		 jmp	 SHORT $LN42@SampleSink
$LN43@SampleSink:

; 985  : 		dblZin = Sample - dblRn * Last120[Last120Get];

  00055	0f bf 45 08	 movsx	 eax, WORD PTR _Sample$[ebp]
  00059	89 85 18 ff ff
	ff		 mov	 DWORD PTR tv300[ebp], eax
  0005f	db 85 18 ff ff
	ff		 fild	 DWORD PTR tv300[ebp]
  00065	8b 0d 00 00 00
	00		 mov	 ecx, DWORD PTR _Last120Get
  0006b	0f bf 14 4d 00
	00 00 00	 movsx	 edx, WORD PTR _Last120[ecx*2]
  00073	89 95 14 ff ff
	ff		 mov	 DWORD PTR tv302[ebp], edx
  00079	db 85 14 ff ff
	ff		 fild	 DWORD PTR tv302[ebp]
  0007f	d8 0d 00 00 00
	00		 fmul	 DWORD PTR _dblRn
  00085	de e9		 fsubp	 ST(1), ST(0)
  00087	d9 1d 00 00 00
	00		 fstp	 DWORD PTR _dblZin
$LN42@SampleSink:

; 986  : 
; 987  : 	if (++Last120Get == 121)

  0008d	a1 00 00 00 00	 mov	 eax, DWORD PTR _Last120Get
  00092	83 c0 01	 add	 eax, 1
  00095	a3 00 00 00 00	 mov	 DWORD PTR _Last120Get, eax
  0009a	83 3d 00 00 00
	00 79		 cmp	 DWORD PTR _Last120Get, 121 ; 00000079H
  000a1	75 0a		 jne	 SHORT $LN41@SampleSink

; 988  : 		Last120Get = 0;

  000a3	c7 05 00 00 00
	00 00 00 00 00	 mov	 DWORD PTR _Last120Get, 0
$LN41@SampleSink:

; 989  : 
; 990  : 	//Compute the Comb
; 991  : 
; 992  : 	dblZComb = dblZin - dblZin_2 * dblR2;

  000ad	d9 05 00 00 00
	00		 fld	 DWORD PTR _dblZin_2
  000b3	d8 0d 00 00 00
	00		 fmul	 DWORD PTR _dblR2
  000b9	d8 2d 00 00 00
	00		 fsubr	 DWORD PTR _dblZin
  000bf	d9 1d 00 00 00
	00		 fstp	 DWORD PTR _dblZComb

; 993  : 	dblZin_2 = dblZin_1;

  000c5	d9 05 00 00 00
	00		 fld	 DWORD PTR _dblZin_1
  000cb	d9 1d 00 00 00
	00		 fstp	 DWORD PTR _dblZin_2

; 994  : 	dblZin_1 = dblZin;

  000d1	d9 05 00 00 00
	00		 fld	 DWORD PTR _dblZin
  000d7	d9 1d 00 00 00
	00		 fstp	 DWORD PTR _dblZin_1

; 995  : 
; 996  : 	// Now the resonators
; 997  : 		
; 998  : 	for (j = first; j <= last; j++)	   // calculate output for 3 or 7 resonators 

  000dd	a1 00 00 00 00	 mov	 eax, DWORD PTR _first
  000e2	89 45 ec	 mov	 DWORD PTR _j$[ebp], eax
  000e5	eb 09		 jmp	 SHORT $LN40@SampleSink
$LN39@SampleSink:
  000e7	8b 45 ec	 mov	 eax, DWORD PTR _j$[ebp]
  000ea	83 c0 01	 add	 eax, 1
  000ed	89 45 ec	 mov	 DWORD PTR _j$[ebp], eax
$LN40@SampleSink:
  000f0	8b 45 ec	 mov	 eax, DWORD PTR _j$[ebp]
  000f3	3b 05 00 00 00
	00		 cmp	 eax, DWORD PTR _last
  000f9	0f 8f 9c 02 00
	00		 jg	 $LN38@SampleSink

; 999  : 	{
; 1000 : 		dblZout_0[j] = dblZComb + dblCoef[j] * dblZout_1[j] - dblR2 * dblZout_2[j];

  000ff	8b 45 ec	 mov	 eax, DWORD PTR _j$[ebp]
  00102	d9 04 85 00 00
	00 00		 fld	 DWORD PTR _dblCoef[eax*4]
  00109	8b 4d ec	 mov	 ecx, DWORD PTR _j$[ebp]
  0010c	d8 0c 8d 00 00
	00 00		 fmul	 DWORD PTR _dblZout_1[ecx*4]
  00113	d8 05 00 00 00
	00		 fadd	 DWORD PTR _dblZComb
  00119	d9 05 00 00 00
	00		 fld	 DWORD PTR _dblR2
  0011f	8b 55 ec	 mov	 edx, DWORD PTR _j$[ebp]
  00122	d8 0c 95 00 00
	00 00		 fmul	 DWORD PTR _dblZout_2[edx*4]
  00129	de e9		 fsubp	 ST(1), ST(0)
  0012b	8b 45 ec	 mov	 eax, DWORD PTR _j$[ebp]
  0012e	d9 1c 85 00 00
	00 00		 fstp	 DWORD PTR _dblZout_0[eax*4]

; 1001 : 		dblZout_2[j] = dblZout_1[j];

  00135	8b 45 ec	 mov	 eax, DWORD PTR _j$[ebp]
  00138	8b 4d ec	 mov	 ecx, DWORD PTR _j$[ebp]
  0013b	d9 04 8d 00 00
	00 00		 fld	 DWORD PTR _dblZout_1[ecx*4]
  00142	d9 1c 85 00 00
	00 00		 fstp	 DWORD PTR _dblZout_2[eax*4]

; 1002 : 		dblZout_1[j] = dblZout_0[j];

  00149	8b 45 ec	 mov	 eax, DWORD PTR _j$[ebp]
  0014c	8b 4d ec	 mov	 ecx, DWORD PTR _j$[ebp]
  0014f	d9 04 8d 00 00
	00 00		 fld	 DWORD PTR _dblZout_0[ecx*4]
  00156	d9 1c 85 00 00
	00 00		 fstp	 DWORD PTR _dblZout_1[eax*4]

; 1003 : 
; 1004 : 		switch (fWidth)

  0015d	a1 00 00 00 00	 mov	 eax, DWORD PTR _fWidth
  00162	89 85 18 ff ff
	ff		 mov	 DWORD PTR tv148[ebp], eax
  00168	81 bd 18 ff ff
	ff e8 03 00 00	 cmp	 DWORD PTR tv148[ebp], 1000 ; 000003e8H
  00172	7f 2d		 jg	 SHORT $LN46@SampleSink
  00174	81 bd 18 ff ff
	ff e8 03 00 00	 cmp	 DWORD PTR tv148[ebp], 1000 ; 000003e8H
  0017e	0f 84 1c 01 00
	00		 je	 $LN20@SampleSink
  00184	81 bd 18 ff ff
	ff c8 00 00 00	 cmp	 DWORD PTR tv148[ebp], 200 ; 000000c8H
  0018e	74 26		 je	 SHORT $LN35@SampleSink
  00190	81 bd 18 ff ff
	ff f4 01 00 00	 cmp	 DWORD PTR tv148[ebp], 500 ; 000001f4H
  0019a	74 5d		 je	 SHORT $LN30@SampleSink
  0019c	e9 f5 01 00 00	 jmp	 $LN36@SampleSink
$LN46@SampleSink:
  001a1	81 bd 18 ff ff
	ff d0 07 00 00	 cmp	 DWORD PTR tv148[ebp], 2000 ; 000007d0H
  001ab	0f 84 6b 01 00
	00		 je	 $LN13@SampleSink
  001b1	e9 e0 01 00 00	 jmp	 $LN36@SampleSink
$LN35@SampleSink:

; 1005 : 		{
; 1006 : 		case 200:
; 1007 : 
; 1008 : 			// scale each by transition coeff and + (Even) or - (Odd) 
; 1009 : 
; 1010 : 			if (SampleNo >= intFilLen)

  001b6	a1 00 00 00 00	 mov	 eax, DWORD PTR _SampleNo
  001bb	3b 45 f8	 cmp	 eax, DWORD PTR _intFilLen$[ebp]
  001be	7c 34		 jl	 SHORT $LN31@SampleSink

; 1011 : 			{
; 1012 : 				if (j == 14 || j == 16)

  001c0	83 7d ec 0e	 cmp	 DWORD PTR _j$[ebp], 14	; 0000000eH
  001c4	74 06		 je	 SHORT $LN32@SampleSink
  001c6	83 7d ec 10	 cmp	 DWORD PTR _j$[ebp], 16	; 00000010H
  001ca	75 18		 jne	 SHORT $LN33@SampleSink
$LN32@SampleSink:

; 1013 : 					intFilteredSample += (float)0.7389f * dblZout_0[j];

  001cc	8b 45 ec	 mov	 eax, DWORD PTR _j$[ebp]
  001cf	d9 04 85 00 00
	00 00		 fld	 DWORD PTR _dblZout_0[eax*4]
  001d6	dc 0d 00 00 00
	00		 fmul	 QWORD PTR __real@3fe7a511a0000000
  001dc	d8 45 e0	 fadd	 DWORD PTR _intFilteredSample$[ebp]
  001df	d9 5d e0	 fstp	 DWORD PTR _intFilteredSample$[ebp]

; 1014 : 				else

  001e2	eb 10		 jmp	 SHORT $LN31@SampleSink
$LN33@SampleSink:

; 1015 : 					intFilteredSample -= (float)dblZout_0[j];

  001e4	d9 45 e0	 fld	 DWORD PTR _intFilteredSample$[ebp]
  001e7	8b 45 ec	 mov	 eax, DWORD PTR _j$[ebp]
  001ea	d8 24 85 00 00
	00 00		 fsub	 DWORD PTR _dblZout_0[eax*4]
  001f1	d9 5d e0	 fstp	 DWORD PTR _intFilteredSample$[ebp]
$LN31@SampleSink:

; 1016 : 			}
; 1017 : 			break;

  001f4	e9 9d 01 00 00	 jmp	 $LN36@SampleSink
$LN30@SampleSink:

; 1018 : 
; 1019 : 		case 500:
; 1020 : 
; 1021 : 			// scale each by transition coeff and + (Even) or - (Odd) 
; 1022 : 			// Resonators 6 and 9 scaled by .15 to get best shape and side lobe supression to - 45 dB while keeping BW at 500 Hz @ -26 dB
; 1023 : 			// practical range of scaling .05 to .25
; 1024 : 			// Scaling also accomodates for the filter "gain" of approx 60. 
; 1025 : 
; 1026 : 			if (SampleNo >= intFilLen)

  001f9	a1 00 00 00 00	 mov	 eax, DWORD PTR _SampleNo
  001fe	3b 45 f8	 cmp	 eax, DWORD PTR _intFilLen$[ebp]
  00201	0f 8c 94 00 00
	00		 jl	 $LN21@SampleSink

; 1027 : 			{
; 1028 : 				if (j == 12 || j == 18)

  00207	83 7d ec 0c	 cmp	 DWORD PTR _j$[ebp], 12	; 0000000cH
  0020b	74 06		 je	 SHORT $LN27@SampleSink
  0020d	83 7d ec 12	 cmp	 DWORD PTR _j$[ebp], 18	; 00000012H
  00211	75 18		 jne	 SHORT $LN28@SampleSink
$LN27@SampleSink:

; 1029 : 					intFilteredSample += 0.10601f * dblZout_0[j];

  00213	8b 45 ec	 mov	 eax, DWORD PTR _j$[ebp]
  00216	d9 04 85 00 00
	00 00		 fld	 DWORD PTR _dblZout_0[eax*4]
  0021d	dc 0d 00 00 00
	00		 fmul	 QWORD PTR __real@3fbb2378a0000000
  00223	d8 45 e0	 fadd	 DWORD PTR _intFilteredSample$[ebp]
  00226	d9 5d e0	 fstp	 DWORD PTR _intFilteredSample$[ebp]
  00229	eb 70		 jmp	 SHORT $LN21@SampleSink
$LN28@SampleSink:

; 1030 : 				else if (j == 13 || j == 17)

  0022b	83 7d ec 0d	 cmp	 DWORD PTR _j$[ebp], 13	; 0000000dH
  0022f	74 06		 je	 SHORT $LN24@SampleSink
  00231	83 7d ec 11	 cmp	 DWORD PTR _j$[ebp], 17	; 00000011H
  00235	75 18		 jne	 SHORT $LN25@SampleSink
$LN24@SampleSink:

; 1031 : 					intFilteredSample -= 0.59383f * dblZout_0[j];

  00237	8b 45 ec	 mov	 eax, DWORD PTR _j$[ebp]
  0023a	d9 04 85 00 00
	00 00		 fld	 DWORD PTR _dblZout_0[eax*4]
  00241	dc 0d 00 00 00
	00		 fmul	 QWORD PTR __real@3fe300a7c0000000
  00247	d8 6d e0	 fsubr	 DWORD PTR _intFilteredSample$[ebp]
  0024a	d9 5d e0	 fstp	 DWORD PTR _intFilteredSample$[ebp]
  0024d	eb 4c		 jmp	 SHORT $LN21@SampleSink
$LN25@SampleSink:

; 1032 : 				else if ((j & 1) == 0)	// 14 15 16

  0024f	8b 45 ec	 mov	 eax, DWORD PTR _j$[ebp]
  00252	83 e0 01	 and	 eax, 1
  00255	75 23		 jne	 SHORT $LN22@SampleSink

; 1033 : 					intFilteredSample += (int)dblZout_0[j];

  00257	8b 45 ec	 mov	 eax, DWORD PTR _j$[ebp]
  0025a	d9 04 85 00 00
	00 00		 fld	 DWORD PTR _dblZout_0[eax*4]
  00261	e8 00 00 00 00	 call	 __ftol2_sse
  00266	89 85 18 ff ff
	ff		 mov	 DWORD PTR tv345[ebp], eax
  0026c	db 85 18 ff ff
	ff		 fild	 DWORD PTR tv345[ebp]
  00272	d8 45 e0	 fadd	 DWORD PTR _intFilteredSample$[ebp]
  00275	d9 5d e0	 fstp	 DWORD PTR _intFilteredSample$[ebp]

; 1034 : 				else

  00278	eb 21		 jmp	 SHORT $LN21@SampleSink
$LN22@SampleSink:

; 1035 : 					intFilteredSample -= (int)dblZout_0[j];

  0027a	8b 45 ec	 mov	 eax, DWORD PTR _j$[ebp]
  0027d	d9 04 85 00 00
	00 00		 fld	 DWORD PTR _dblZout_0[eax*4]
  00284	e8 00 00 00 00	 call	 __ftol2_sse
  00289	89 85 18 ff ff
	ff		 mov	 DWORD PTR tv354[ebp], eax
  0028f	db 85 18 ff ff
	ff		 fild	 DWORD PTR tv354[ebp]
  00295	d8 6d e0	 fsubr	 DWORD PTR _intFilteredSample$[ebp]
  00298	d9 5d e0	 fstp	 DWORD PTR _intFilteredSample$[ebp]
$LN21@SampleSink:

; 1036 : 			}
; 1037 :         
; 1038 : 			break;

  0029b	e9 f6 00 00 00	 jmp	 $LN36@SampleSink
$LN20@SampleSink:

; 1039 : 		
; 1040 : 		case 1000:
; 1041 : 
; 1042 : 			// scale each by transition coeff and + (Even) or - (Odd) 
; 1043 : 			// Resonators 6 and 9 scaled by .15 to get best shape and side lobe supression to - 45 dB while keeping BW at 500 Hz @ -26 dB
; 1044 : 			// practical range of scaling .05 to .25
; 1045 : 			// Scaling also accomodates for the filter "gain" of approx 60. 
; 1046 :          
; 1047 : 
; 1048 : 			if (SampleNo >= intFilLen)

  002a0	a1 00 00 00 00	 mov	 eax, DWORD PTR _SampleNo
  002a5	3b 45 f8	 cmp	 eax, DWORD PTR _intFilLen$[ebp]
  002a8	7c 70		 jl	 SHORT $LN14@SampleSink

; 1049 : 			{
; 1050 : 				if (j == 10 || j == 20)

  002aa	83 7d ec 0a	 cmp	 DWORD PTR _j$[ebp], 10	; 0000000aH
  002ae	74 06		 je	 SHORT $LN17@SampleSink
  002b0	83 7d ec 14	 cmp	 DWORD PTR _j$[ebp], 20	; 00000014H
  002b4	75 18		 jne	 SHORT $LN18@SampleSink
$LN17@SampleSink:

; 1051 : 					intFilteredSample +=  0.377f * dblZout_0[j];

  002b6	8b 45 ec	 mov	 eax, DWORD PTR _j$[ebp]
  002b9	d9 04 85 00 00
	00 00		 fld	 DWORD PTR _dblZout_0[eax*4]
  002c0	dc 0d 00 00 00
	00		 fmul	 QWORD PTR __real@3fd820c4a0000000
  002c6	d8 45 e0	 fadd	 DWORD PTR _intFilteredSample$[ebp]
  002c9	d9 5d e0	 fstp	 DWORD PTR _intFilteredSample$[ebp]
  002cc	eb 4c		 jmp	 SHORT $LN14@SampleSink
$LN18@SampleSink:

; 1052 : 				else if ((j & 1) == 0)	// Even

  002ce	8b 45 ec	 mov	 eax, DWORD PTR _j$[ebp]
  002d1	83 e0 01	 and	 eax, 1
  002d4	75 23		 jne	 SHORT $LN15@SampleSink

; 1053 : 					intFilteredSample += (int)dblZout_0[j];

  002d6	8b 45 ec	 mov	 eax, DWORD PTR _j$[ebp]
  002d9	d9 04 85 00 00
	00 00		 fld	 DWORD PTR _dblZout_0[eax*4]
  002e0	e8 00 00 00 00	 call	 __ftol2_sse
  002e5	89 85 18 ff ff
	ff		 mov	 DWORD PTR tv368[ebp], eax
  002eb	db 85 18 ff ff
	ff		 fild	 DWORD PTR tv368[ebp]
  002f1	d8 45 e0	 fadd	 DWORD PTR _intFilteredSample$[ebp]
  002f4	d9 5d e0	 fstp	 DWORD PTR _intFilteredSample$[ebp]

; 1054 : 				else

  002f7	eb 21		 jmp	 SHORT $LN14@SampleSink
$LN15@SampleSink:

; 1055 : 					intFilteredSample -= (int)dblZout_0[j];

  002f9	8b 45 ec	 mov	 eax, DWORD PTR _j$[ebp]
  002fc	d9 04 85 00 00
	00 00		 fld	 DWORD PTR _dblZout_0[eax*4]
  00303	e8 00 00 00 00	 call	 __ftol2_sse
  00308	89 85 18 ff ff
	ff		 mov	 DWORD PTR tv377[ebp], eax
  0030e	db 85 18 ff ff
	ff		 fild	 DWORD PTR tv377[ebp]
  00314	d8 6d e0	 fsubr	 DWORD PTR _intFilteredSample$[ebp]
  00317	d9 5d e0	 fstp	 DWORD PTR _intFilteredSample$[ebp]
$LN14@SampleSink:

; 1056 : 			}
; 1057 :         
; 1058 : 			break;

  0031a	eb 7a		 jmp	 SHORT $LN36@SampleSink
$LN13@SampleSink:

; 1059 : 
; 1060 : 		case 2000:
; 1061 : 
; 1062 : 			// scale each by transition coeff and + (Even) or - (Odd) 
; 1063 : 			// Resonators 6 and 9 scaled by .15 to get best shape and side lobe supression to - 45 dB while keeping BW at 500 Hz @ -26 dB
; 1064 : 			// practical range of scaling .05 to .25
; 1065 : 			// Scaling also accomodates for the filter "gain" of approx 60. 
; 1066 :           
; 1067 : 			if (SampleNo >= intFilLen)

  0031c	a1 00 00 00 00	 mov	 eax, DWORD PTR _SampleNo
  00321	3b 45 f8	 cmp	 eax, DWORD PTR _intFilLen$[ebp]
  00324	7c 70		 jl	 SHORT $LN7@SampleSink

; 1068 : 			{
; 1069 : 				if (j == 5 || j == 25)

  00326	83 7d ec 05	 cmp	 DWORD PTR _j$[ebp], 5
  0032a	74 06		 je	 SHORT $LN10@SampleSink
  0032c	83 7d ec 19	 cmp	 DWORD PTR _j$[ebp], 25	; 00000019H
  00330	75 18		 jne	 SHORT $LN11@SampleSink
$LN10@SampleSink:

; 1070 : 					intFilteredSample +=  0.371f * dblZout_0[j];

  00332	8b 45 ec	 mov	 eax, DWORD PTR _j$[ebp]
  00335	d9 04 85 00 00
	00 00		 fld	 DWORD PTR _dblZout_0[eax*4]
  0033c	dc 0d 00 00 00
	00		 fmul	 QWORD PTR __real@3fd7be76c0000000
  00342	d8 45 e0	 fadd	 DWORD PTR _intFilteredSample$[ebp]
  00345	d9 5d e0	 fstp	 DWORD PTR _intFilteredSample$[ebp]
  00348	eb 4c		 jmp	 SHORT $LN7@SampleSink
$LN11@SampleSink:

; 1071 : 				else if ((j & 1) == 0)	// Even

  0034a	8b 45 ec	 mov	 eax, DWORD PTR _j$[ebp]
  0034d	83 e0 01	 and	 eax, 1
  00350	75 23		 jne	 SHORT $LN8@SampleSink

; 1072 : 					intFilteredSample += (int)dblZout_0[j];

  00352	8b 45 ec	 mov	 eax, DWORD PTR _j$[ebp]
  00355	d9 04 85 00 00
	00 00		 fld	 DWORD PTR _dblZout_0[eax*4]
  0035c	e8 00 00 00 00	 call	 __ftol2_sse
  00361	89 85 18 ff ff
	ff		 mov	 DWORD PTR tv391[ebp], eax
  00367	db 85 18 ff ff
	ff		 fild	 DWORD PTR tv391[ebp]
  0036d	d8 45 e0	 fadd	 DWORD PTR _intFilteredSample$[ebp]
  00370	d9 5d e0	 fstp	 DWORD PTR _intFilteredSample$[ebp]

; 1073 : 				else

  00373	eb 21		 jmp	 SHORT $LN7@SampleSink
$LN8@SampleSink:

; 1074 : 					intFilteredSample -= (int)dblZout_0[j];

  00375	8b 45 ec	 mov	 eax, DWORD PTR _j$[ebp]
  00378	d9 04 85 00 00
	00 00		 fld	 DWORD PTR _dblZout_0[eax*4]
  0037f	e8 00 00 00 00	 call	 __ftol2_sse
  00384	89 85 18 ff ff
	ff		 mov	 DWORD PTR tv400[ebp], eax
  0038a	db 85 18 ff ff
	ff		 fild	 DWORD PTR tv400[ebp]
  00390	d8 6d e0	 fsubr	 DWORD PTR _intFilteredSample$[ebp]
  00393	d9 5d e0	 fstp	 DWORD PTR _intFilteredSample$[ebp]
$LN7@SampleSink:
$LN36@SampleSink:

; 1075 : 			}
; 1076 : 		}
; 1077 : 	}

  00396	e9 4c fd ff ff	 jmp	 $LN39@SampleSink
$LN38@SampleSink:

; 1078 : 
; 1079 : 	if (SampleNo >= intFilLen)

  0039b	a1 00 00 00 00	 mov	 eax, DWORD PTR _SampleNo
  003a0	3b 45 f8	 cmp	 eax, DWORD PTR _intFilLen$[ebp]
  003a3	0f 8c fd 00 00
	00		 jl	 $LN2@SampleSink

; 1080 : 	{
; 1081 : 		intFilteredSample = intFilteredSample * 0.00833333333f; //  rescales for gain of filter

  003a9	d9 45 e0	 fld	 DWORD PTR _intFilteredSample$[ebp]
  003ac	dc 0d 00 00 00
	00		 fmul	 QWORD PTR __real@3f81111120000000
  003b2	d9 5d e0	 fstp	 DWORD PTR _intFilteredSample$[ebp]

; 1082 : 		largest = max(largest, intFilteredSample);	

  003b5	d9 05 00 00 00
	00		 fld	 DWORD PTR _largest
  003bb	d9 45 e0	 fld	 DWORD PTR _intFilteredSample$[ebp]
  003be	de d9		 fcompp
  003c0	df e0		 fnstsw	 ax
  003c2	f6 c4 05	 test	 ah, 5
  003c5	7a 0e		 jp	 SHORT $LN47@SampleSink
  003c7	d9 05 00 00 00
	00		 fld	 DWORD PTR _largest
  003cd	d9 9d 18 ff ff
	ff		 fstp	 DWORD PTR tv270[ebp]
  003d3	eb 09		 jmp	 SHORT $LN48@SampleSink
$LN47@SampleSink:
  003d5	d9 45 e0	 fld	 DWORD PTR _intFilteredSample$[ebp]
  003d8	d9 9d 18 ff ff
	ff		 fstp	 DWORD PTR tv270[ebp]
$LN48@SampleSink:
  003de	d9 85 18 ff ff
	ff		 fld	 DWORD PTR tv270[ebp]
  003e4	d9 1d 00 00 00
	00		 fstp	 DWORD PTR _largest

; 1083 : 		smallest = min(smallest, intFilteredSample);

  003ea	d9 05 00 00 00
	00		 fld	 DWORD PTR _smallest
  003f0	d9 45 e0	 fld	 DWORD PTR _intFilteredSample$[ebp]
  003f3	de d9		 fcompp
  003f5	df e0		 fnstsw	 ax
  003f7	f6 c4 41	 test	 ah, 65			; 00000041H
  003fa	75 0e		 jne	 SHORT $LN49@SampleSink
  003fc	d9 05 00 00 00
	00		 fld	 DWORD PTR _smallest
  00402	d9 9d 18 ff ff
	ff		 fstp	 DWORD PTR tv274[ebp]
  00408	eb 09		 jmp	 SHORT $LN50@SampleSink
$LN49@SampleSink:
  0040a	d9 45 e0	 fld	 DWORD PTR _intFilteredSample$[ebp]
  0040d	d9 9d 18 ff ff
	ff		 fstp	 DWORD PTR tv274[ebp]
$LN50@SampleSink:
  00413	d9 85 18 ff ff
	ff		 fld	 DWORD PTR tv274[ebp]
  00419	d9 1d 00 00 00
	00		 fstp	 DWORD PTR _smallest

; 1084 : 		
; 1085 : 		if (intFilteredSample > 32700)  // Hard clip above 32700

  0041f	d9 45 e0	 fld	 DWORD PTR _intFilteredSample$[ebp]
  00422	dc 1d 00 00 00
	00		 fcomp	 QWORD PTR __real@40dfef0000000000
  00428	df e0		 fnstsw	 ax
  0042a	f6 c4 41	 test	 ah, 65			; 00000041H
  0042d	75 0b		 jne	 SHORT $LN5@SampleSink

; 1086 : 			intFilteredSample = 32700;

  0042f	d9 05 00 00 00
	00		 fld	 DWORD PTR __real@46ff7800
  00435	d9 5d e0	 fstp	 DWORD PTR _intFilteredSample$[ebp]
  00438	eb 19		 jmp	 SHORT $LN3@SampleSink
$LN5@SampleSink:

; 1087 : 		else if (intFilteredSample < -32700)

  0043a	d9 45 e0	 fld	 DWORD PTR _intFilteredSample$[ebp]
  0043d	dc 1d 00 00 00
	00		 fcomp	 QWORD PTR __real@c0dfef0000000000
  00443	df e0		 fnstsw	 ax
  00445	f6 c4 05	 test	 ah, 5
  00448	7a 09		 jp	 SHORT $LN3@SampleSink

; 1088 : 			intFilteredSample = -32700;

  0044a	d9 05 00 00 00
	00		 fld	 DWORD PTR __real@c6ff7800
  00450	d9 5d e0	 fstp	 DWORD PTR _intFilteredSample$[ebp]
$LN3@SampleSink:

; 1089 : 
; 1090 : #ifdef TEENSY	
; 1091 : 		int work = (short)(intFilteredSample);
; 1092 : 		DMABuffer[Number++] = (work + 32768) >> 4; // 12 bit left justify
; 1093 : #else
; 1094 : 		DMABuffer[Number++] = (short)intFilteredSample;

  00453	d9 45 e0	 fld	 DWORD PTR _intFilteredSample$[ebp]
  00456	e8 00 00 00 00	 call	 __ftol2_sse
  0045b	8b 0d 00 00 00
	00		 mov	 ecx, DWORD PTR _Number
  00461	8b 15 00 00 00
	00		 mov	 edx, DWORD PTR _DMABuffer
  00467	66 89 04 4a	 mov	 WORD PTR [edx+ecx*2], ax
  0046b	a1 00 00 00 00	 mov	 eax, DWORD PTR _Number
  00470	83 c0 01	 add	 eax, 1
  00473	a3 00 00 00 00	 mov	 DWORD PTR _Number, eax

; 1095 : #endif
; 1096 : 		if (Number == SendSize)

  00478	81 3d 00 00 00
	00 b0 04 00 00	 cmp	 DWORD PTR _Number, 1200	; 000004b0H
  00482	75 22		 jne	 SHORT $LN2@SampleSink

; 1097 : 		{
; 1098 : 			// send this buffer to sound interface
; 1099 : 
; 1100 : 			DMABuffer = SendtoCard(DMABuffer, SendSize);

  00484	68 b0 04 00 00	 push	 1200			; 000004b0H
  00489	a1 00 00 00 00	 mov	 eax, DWORD PTR _DMABuffer
  0048e	50		 push	 eax
  0048f	e8 00 00 00 00	 call	 _SendtoCard
  00494	83 c4 08	 add	 esp, 8
  00497	a3 00 00 00 00	 mov	 DWORD PTR _DMABuffer, eax

; 1101 : 			Number = 0;

  0049c	c7 05 00 00 00
	00 00 00 00 00	 mov	 DWORD PTR _Number, 0
$LN2@SampleSink:

; 1102 : 		}
; 1103 : 	}
; 1104 : 		
; 1105 : 	Last120[Last120Put++] = Sample;

  004a6	a1 00 00 00 00	 mov	 eax, DWORD PTR _Last120Put
  004ab	66 8b 4d 08	 mov	 cx, WORD PTR _Sample$[ebp]
  004af	66 89 0c 45 00
	00 00 00	 mov	 WORD PTR _Last120[eax*2], cx
  004b7	8b 15 00 00 00
	00		 mov	 edx, DWORD PTR _Last120Put
  004bd	83 c2 01	 add	 edx, 1
  004c0	89 15 00 00 00
	00		 mov	 DWORD PTR _Last120Put, edx

; 1106 : 
; 1107 : 	if (Last120Put == 121)

  004c6	83 3d 00 00 00
	00 79		 cmp	 DWORD PTR _Last120Put, 121 ; 00000079H
  004cd	75 0a		 jne	 SHORT $LN1@SampleSink

; 1108 : 		Last120Put = 0;

  004cf	c7 05 00 00 00
	00 00 00 00 00	 mov	 DWORD PTR _Last120Put, 0
$LN1@SampleSink:

; 1109 : 
; 1110 : 	SampleNo++;

  004d9	a1 00 00 00 00	 mov	 eax, DWORD PTR _SampleNo
  004de	83 c0 01	 add	 eax, 1
  004e1	a3 00 00 00 00	 mov	 DWORD PTR _SampleNo, eax

; 1111 : }

  004e6	5f		 pop	 edi
  004e7	5e		 pop	 esi
  004e8	5b		 pop	 ebx
  004e9	81 c4 ec 00 00
	00		 add	 esp, 236		; 000000ecH
  004ef	3b ec		 cmp	 ebp, esp
  004f1	e8 00 00 00 00	 call	 __RTC_CheckEsp
  004f6	8b e5		 mov	 esp, ebp
  004f8	5d		 pop	 ebp
  004f9	c3		 ret	 0
_SampleSink ENDP
_TEXT	ENDS
EXTRN	_SoundFlush:PROC
; Function compile flags: /Odtp /RTCsu /ZI
;	COMDAT _Flush
_TEXT	SEGMENT
_Flush	PROC						; COMDAT

; 1119 : {

  00000	55		 push	 ebp
  00001	8b ec		 mov	 ebp, esp
  00003	81 ec c0 00 00
	00		 sub	 esp, 192		; 000000c0H
  00009	53		 push	 ebx
  0000a	56		 push	 esi
  0000b	57		 push	 edi
  0000c	8d bd 40 ff ff
	ff		 lea	 edi, DWORD PTR [ebp-192]
  00012	b9 30 00 00 00	 mov	 ecx, 48			; 00000030H
  00017	b8 cc cc cc cc	 mov	 eax, -858993460		; ccccccccH
  0001c	f3 ab		 rep stosd

; 1120 : 	SoundFlush(Number);

  0001e	a1 00 00 00 00	 mov	 eax, DWORD PTR _Number
  00023	50		 push	 eax
  00024	e8 00 00 00 00	 call	 _SoundFlush
  00029	83 c4 04	 add	 esp, 4

; 1121 : }

  0002c	5f		 pop	 edi
  0002d	5e		 pop	 esi
  0002e	5b		 pop	 ebx
  0002f	81 c4 c0 00 00
	00		 add	 esp, 192		; 000000c0H
  00035	3b ec		 cmp	 ebp, esp
  00037	e8 00 00 00 00	 call	 __RTC_CheckEsp
  0003c	8b e5		 mov	 esp, ebp
  0003e	5d		 pop	 ebp
  0003f	c3		 ret	 0
_Flush	ENDP
_TEXT	ENDS
PUBLIC	__real@3feccccccccccccd
PUBLIC	__real@3f3a66b0
PUBLIC	__real@3f57b8ff
PUBLIC	??_C@_0CH@NJFPKNKK@ABCDEFGHIJKLMNOPQRSTUVWXYZ012345@ ; `string'
PUBLIC	__$ArrayPad$
PUBLIC	_sendCWID
EXTRN	_strchr:PROC
EXTRN	_strlen:PROC
EXTRN	_sin:PROC
EXTRN	_CWOnOff:DWORD
EXTRN	_strlop:PROC
;	COMDAT __real@3feccccccccccccd
CONST	SEGMENT
__real@3feccccccccccccd DQ 03feccccccccccccdr	; 0.9
CONST	ENDS
;	COMDAT __real@3f3a66b0
CONST	SEGMENT
__real@3f3a66b0 DD 03f3a66b0r			; 0.728129
CONST	ENDS
;	COMDAT __real@3f57b8ff
CONST	SEGMENT
__real@3f57b8ff DD 03f57b8ffr			; 0.842667
CONST	ENDS
;	COMDAT ??_C@_0CH@NJFPKNKK@ABCDEFGHIJKLMNOPQRSTUVWXYZ012345@
CONST	SEGMENT
??_C@_0CH@NJFPKNKK@ABCDEFGHIJKLMNOPQRSTUVWXYZ012345@ DB 'ABCDEFGHIJKLMNOP'
	DB	'QRSTUVWXYZ0123456789-/', 00H		; `string'
; Function compile flags: /Odtp /RTCsu /ZI
CONST	ENDS
;	COMDAT _sendCWID
_TEXT	SEGMENT
_idoffset$ = -3440					; size = 4
_intMask$ = -3428					; size = 4
_index$ = -3416						; size = 4
_intAmp$ = -3404					; size = 4
_k$ = -3392						; size = 4
_j$ = -3380						; size = 4
_i$ = -3368						; size = 4
_intSpace$ = -3356					; size = 1536
_intDot$ = -1812					; size = 1536
_intDotSampCnt$ = -268					; size = 4
_dblLoPhase$ = -256					; size = 4
_dblHiPhase$ = -244					; size = 4
_dblLoPhaseInc$ = -232					; size = 4
_dblHiPhaseInc$ = -220					; size = 4
_intCW$ = -208						; size = 152
_strAlphabet$ = -48					; size = 39
__$ArrayPad$ = -4					; size = 4
_strID$ = 8						; size = 4
_blnPlay$ = 12						; size = 4
_sendCWID PROC						; COMDAT

; 1128 : {

  00000	55		 push	 ebp
  00001	8b ec		 mov	 ebp, esp
  00003	81 ec 34 0e 00
	00		 sub	 esp, 3636		; 00000e34H
  00009	53		 push	 ebx
  0000a	56		 push	 esi
  0000b	57		 push	 edi
  0000c	8d bd cc f1 ff
	ff		 lea	 edi, DWORD PTR [ebp-3636]
  00012	b9 8d 03 00 00	 mov	 ecx, 909		; 0000038dH
  00017	b8 cc cc cc cc	 mov	 eax, -858993460		; ccccccccH
  0001c	f3 ab		 rep stosd
  0001e	a1 00 00 00 00	 mov	 eax, DWORD PTR ___security_cookie
  00023	33 c5		 xor	 eax, ebp
  00025	89 45 fc	 mov	 DWORD PTR __$ArrayPad$[ebp], eax

; 1129 : 	// This generates a phase synchronous FSK MORSE keying of strID
; 1130 : 	// FSK used to maintain VOX on some sound cards
; 1131 : 	// Sent at 90% of  max ampllitude
; 1132 : 
; 1133 : 	char strAlphabet[] = "ABCDEFGHIJKLMNOPQRSTUVWXYZ0123456789-/"; 

  00028	b9 09 00 00 00	 mov	 ecx, 9
  0002d	be 00 00 00 00	 mov	 esi, OFFSET ??_C@_0CH@NJFPKNKK@ABCDEFGHIJKLMNOPQRSTUVWXYZ012345@
  00032	8d 7d d0	 lea	 edi, DWORD PTR _strAlphabet$[ebp]
  00035	f3 a5		 rep movsd
  00037	66 a5		 movsw
  00039	a4		 movsb

; 1134 : 
; 1135 : 	//Look up table for strAlphabet...each bit represents one dot time, 3 adjacent dots = 1 dash
; 1136 : 	// one dot spacing between dots or dashes
; 1137 : 
; 1138 : 	int intCW[] = {0x17, 0x1D5, 0x75D, 0x75, 0x1, 0x15D, 

  0003a	c7 85 30 ff ff
	ff 17 00 00 00	 mov	 DWORD PTR _intCW$[ebp], 23 ; 00000017H
  00044	c7 85 34 ff ff
	ff d5 01 00 00	 mov	 DWORD PTR _intCW$[ebp+4], 469 ; 000001d5H
  0004e	c7 85 38 ff ff
	ff 5d 07 00 00	 mov	 DWORD PTR _intCW$[ebp+8], 1885 ; 0000075dH
  00058	c7 85 3c ff ff
	ff 75 00 00 00	 mov	 DWORD PTR _intCW$[ebp+12], 117 ; 00000075H
  00062	c7 85 40 ff ff
	ff 01 00 00 00	 mov	 DWORD PTR _intCW$[ebp+16], 1
  0006c	c7 85 44 ff ff
	ff 5d 01 00 00	 mov	 DWORD PTR _intCW$[ebp+20], 349 ; 0000015dH

; 1139 :            0x1DD, 0x55, 0x5, 0x1777, 0x1D7, 0x175,

  00076	c7 85 48 ff ff
	ff dd 01 00 00	 mov	 DWORD PTR _intCW$[ebp+24], 477 ; 000001ddH
  00080	c7 85 4c ff ff
	ff 55 00 00 00	 mov	 DWORD PTR _intCW$[ebp+28], 85 ; 00000055H
  0008a	c7 85 50 ff ff
	ff 05 00 00 00	 mov	 DWORD PTR _intCW$[ebp+32], 5
  00094	c7 85 54 ff ff
	ff 77 17 00 00	 mov	 DWORD PTR _intCW$[ebp+36], 6007 ; 00001777H
  0009e	c7 85 58 ff ff
	ff d7 01 00 00	 mov	 DWORD PTR _intCW$[ebp+40], 471 ; 000001d7H
  000a8	c7 85 5c ff ff
	ff 75 01 00 00	 mov	 DWORD PTR _intCW$[ebp+44], 373 ; 00000175H

; 1140 :            0x77, 0x1D, 0x777, 0x5DD, 0x1DD7, 0x5D, 

  000b2	c7 85 60 ff ff
	ff 77 00 00 00	 mov	 DWORD PTR _intCW$[ebp+48], 119 ; 00000077H
  000bc	c7 85 64 ff ff
	ff 1d 00 00 00	 mov	 DWORD PTR _intCW$[ebp+52], 29 ; 0000001dH
  000c6	c7 85 68 ff ff
	ff 77 07 00 00	 mov	 DWORD PTR _intCW$[ebp+56], 1911 ; 00000777H
  000d0	c7 85 6c ff ff
	ff dd 05 00 00	 mov	 DWORD PTR _intCW$[ebp+60], 1501 ; 000005ddH
  000da	c7 85 70 ff ff
	ff d7 1d 00 00	 mov	 DWORD PTR _intCW$[ebp+64], 7639 ; 00001dd7H
  000e4	c7 85 74 ff ff
	ff 5d 00 00 00	 mov	 DWORD PTR _intCW$[ebp+68], 93 ; 0000005dH

; 1141 :            0x15, 0x7, 0x57, 0x157, 0x177, 0x757, 

  000ee	c7 85 78 ff ff
	ff 15 00 00 00	 mov	 DWORD PTR _intCW$[ebp+72], 21 ; 00000015H
  000f8	c7 85 7c ff ff
	ff 07 00 00 00	 mov	 DWORD PTR _intCW$[ebp+76], 7
  00102	c7 45 80 57 00
	00 00		 mov	 DWORD PTR _intCW$[ebp+80], 87 ; 00000057H
  00109	c7 45 84 57 01
	00 00		 mov	 DWORD PTR _intCW$[ebp+84], 343 ; 00000157H
  00110	c7 45 88 77 01
	00 00		 mov	 DWORD PTR _intCW$[ebp+88], 375 ; 00000177H
  00117	c7 45 8c 57 07
	00 00		 mov	 DWORD PTR _intCW$[ebp+92], 1879 ; 00000757H

; 1142 :            0x1D77, 0x775, 0x77777, 0x17777, 0x5777, 0x1577,

  0011e	c7 45 90 77 1d
	00 00		 mov	 DWORD PTR _intCW$[ebp+96], 7543 ; 00001d77H
  00125	c7 45 94 75 07
	00 00		 mov	 DWORD PTR _intCW$[ebp+100], 1909 ; 00000775H
  0012c	c7 45 98 77 77
	07 00		 mov	 DWORD PTR _intCW$[ebp+104], 489335 ; 00077777H
  00133	c7 45 9c 77 77
	01 00		 mov	 DWORD PTR _intCW$[ebp+108], 96119 ; 00017777H
  0013a	c7 45 a0 77 57
	00 00		 mov	 DWORD PTR _intCW$[ebp+112], 22391 ; 00005777H
  00141	c7 45 a4 77 15
	00 00		 mov	 DWORD PTR _intCW$[ebp+116], 5495 ; 00001577H

; 1143 :            0x557, 0x155, 0x755, 0x1DD5, 0x7775, 0x1DDDD, 0x1D57, 0x1D57};

  00148	c7 45 a8 57 05
	00 00		 mov	 DWORD PTR _intCW$[ebp+120], 1367 ; 00000557H
  0014f	c7 45 ac 55 01
	00 00		 mov	 DWORD PTR _intCW$[ebp+124], 341 ; 00000155H
  00156	c7 45 b0 55 07
	00 00		 mov	 DWORD PTR _intCW$[ebp+128], 1877 ; 00000755H
  0015d	c7 45 b4 d5 1d
	00 00		 mov	 DWORD PTR _intCW$[ebp+132], 7637 ; 00001dd5H
  00164	c7 45 b8 75 77
	00 00		 mov	 DWORD PTR _intCW$[ebp+136], 30581 ; 00007775H
  0016b	c7 45 bc dd dd
	01 00		 mov	 DWORD PTR _intCW$[ebp+140], 122333 ; 0001ddddH
  00172	c7 45 c0 57 1d
	00 00		 mov	 DWORD PTR _intCW$[ebp+144], 7511 ; 00001d57H
  00179	c7 45 c4 57 1d
	00 00		 mov	 DWORD PTR _intCW$[ebp+148], 7511 ; 00001d57H

; 1144 : 
; 1145 : 
; 1146 : 	float dblHiPhaseInc = 2 * M_PI * 1609.375f / 12000; // 1609.375 Hz High tone

  00180	d9 05 00 00 00
	00		 fld	 DWORD PTR __real@3f57b8ff
  00186	d9 9d 24 ff ff
	ff		 fstp	 DWORD PTR _dblHiPhaseInc$[ebp]

; 1147 : 	float dblLoPhaseInc = 2 * M_PI * 1390.625f / 12000; // 1390.625  low tone

  0018c	d9 05 00 00 00
	00		 fld	 DWORD PTR __real@3f3a66b0
  00192	d9 9d 18 ff ff
	ff		 fstp	 DWORD PTR _dblLoPhaseInc$[ebp]

; 1148 : 	float dblHiPhase = 0;

  00198	d9 ee		 fldz
  0019a	d9 9d 0c ff ff
	ff		 fstp	 DWORD PTR _dblHiPhase$[ebp]

; 1149 :  	float dblLoPhase = 0;

  001a0	d9 ee		 fldz
  001a2	d9 9d 00 ff ff
	ff		 fstp	 DWORD PTR _dblLoPhase$[ebp]

; 1150 :  	int  intDotSampCnt = 768;  // about 12 WPM or so (should be a multiple of 256

  001a8	c7 85 f4 fe ff
	ff 00 03 00 00	 mov	 DWORD PTR _intDotSampCnt$[ebp], 768 ; 00000300H

; 1151 : 	short intDot[768];
; 1152 : 	short intSpace[768];
; 1153 : 	int i, j, k;
; 1154 : 	int intAmp = 26000;	   // Selected to have some margin in calculations with 16 bit values (< 32767) this must apply to all filters as well. 

  001b2	c7 85 b4 f2 ff
	ff 90 65 00 00	 mov	 DWORD PTR _intAmp$[ebp], 26000 ; 00006590H

; 1155 : 	char * index;
; 1156 : 	int intMask;
; 1157 : 	int idoffset;
; 1158 : 
; 1159 :     strlop(strID, '-');		// Remove any SSID    

  001bc	6a 2d		 push	 45			; 0000002dH
  001be	8b 45 08	 mov	 eax, DWORD PTR _strID$[ebp]
  001c1	50		 push	 eax
  001c2	e8 00 00 00 00	 call	 _strlop
  001c7	83 c4 08	 add	 esp, 8

; 1160 : 
; 1161 : 	// Generate the dot samples (high tone) and space samples (low tone) 
; 1162 : 
; 1163 : 	for (i = 0; i < intDotSampCnt; i++)

  001ca	c7 85 d8 f2 ff
	ff 00 00 00 00	 mov	 DWORD PTR _i$[ebp], 0
  001d4	eb 0f		 jmp	 SHORT $LN52@sendCWID
$LN51@sendCWID:
  001d6	8b 85 d8 f2 ff
	ff		 mov	 eax, DWORD PTR _i$[ebp]
  001dc	83 c0 01	 add	 eax, 1
  001df	89 85 d8 f2 ff
	ff		 mov	 DWORD PTR _i$[ebp], eax
$LN52@sendCWID:
  001e5	8b 85 d8 f2 ff
	ff		 mov	 eax, DWORD PTR _i$[ebp]
  001eb	3b 85 f4 fe ff
	ff		 cmp	 eax, DWORD PTR _intDotSampCnt$[ebp]
  001f1	0f 8d f4 00 00
	00		 jge	 $LN50@sendCWID

; 1164 : 	{
; 1165 : 		if (CWOnOff)

  001f7	83 3d 00 00 00
	00 00		 cmp	 DWORD PTR _CWOnOff, 0
  001fe	74 12		 je	 SHORT $LN49@sendCWID

; 1166 : 			intSpace[i] = 0;

  00200	8b 85 d8 f2 ff
	ff		 mov	 eax, DWORD PTR _i$[ebp]
  00206	66 c7 84 45 e4
	f2 ff ff 00 00	 mov	 WORD PTR _intSpace$[ebp+eax*2], 0

; 1167 : 		else

  00210	eb 33		 jmp	 SHORT $LN48@sendCWID
$LN49@sendCWID:

; 1168 : 
; 1169 : 			intSpace[i] = sin(dblLoPhase) * 0.9 * intAmp;

  00212	d9 85 00 ff ff
	ff		 fld	 DWORD PTR _dblLoPhase$[ebp]
  00218	83 ec 08	 sub	 esp, 8
  0021b	dd 1c 24	 fstp	 QWORD PTR [esp]
  0021e	e8 00 00 00 00	 call	 _sin
  00223	83 c4 08	 add	 esp, 8
  00226	dc 0d 00 00 00
	00		 fmul	 QWORD PTR __real@3feccccccccccccd
  0022c	da 8d b4 f2 ff
	ff		 fimul	 DWORD PTR _intAmp$[ebp]
  00232	e8 00 00 00 00	 call	 __ftol2_sse
  00237	8b 8d d8 f2 ff
	ff		 mov	 ecx, DWORD PTR _i$[ebp]
  0023d	66 89 84 4d e4
	f2 ff ff	 mov	 WORD PTR _intSpace$[ebp+ecx*2], ax
$LN48@sendCWID:

; 1170 : 
; 1171 : 		intDot[i] = sin(dblHiPhase) * 0.9 * intAmp;

  00245	d9 85 0c ff ff
	ff		 fld	 DWORD PTR _dblHiPhase$[ebp]
  0024b	83 ec 08	 sub	 esp, 8
  0024e	dd 1c 24	 fstp	 QWORD PTR [esp]
  00251	e8 00 00 00 00	 call	 _sin
  00256	83 c4 08	 add	 esp, 8
  00259	dc 0d 00 00 00
	00		 fmul	 QWORD PTR __real@3feccccccccccccd
  0025f	da 8d b4 f2 ff
	ff		 fimul	 DWORD PTR _intAmp$[ebp]
  00265	e8 00 00 00 00	 call	 __ftol2_sse
  0026a	8b 8d d8 f2 ff
	ff		 mov	 ecx, DWORD PTR _i$[ebp]
  00270	66 89 84 4d ec
	f8 ff ff	 mov	 WORD PTR _intDot$[ebp+ecx*2], ax

; 1172 : 		dblHiPhase += dblHiPhaseInc;

  00278	d9 85 0c ff ff
	ff		 fld	 DWORD PTR _dblHiPhase$[ebp]
  0027e	d8 85 24 ff ff
	ff		 fadd	 DWORD PTR _dblHiPhaseInc$[ebp]
  00284	d9 9d 0c ff ff
	ff		 fstp	 DWORD PTR _dblHiPhase$[ebp]

; 1173 : 		if (dblHiPhase > 2 * M_PI)

  0028a	d9 85 0c ff ff
	ff		 fld	 DWORD PTR _dblHiPhase$[ebp]
  00290	dc 1d 00 00 00
	00		 fcomp	 QWORD PTR __real@401921fb00000000
  00296	df e0		 fnstsw	 ax
  00298	f6 c4 41	 test	 ah, 65			; 00000041H
  0029b	75 12		 jne	 SHORT $LN47@sendCWID

; 1174 : 			dblHiPhase -= 2 * M_PI;

  0029d	d9 85 0c ff ff
	ff		 fld	 DWORD PTR _dblHiPhase$[ebp]
  002a3	dc 25 00 00 00
	00		 fsub	 QWORD PTR __real@401921fb00000000
  002a9	d9 9d 0c ff ff
	ff		 fstp	 DWORD PTR _dblHiPhase$[ebp]
$LN47@sendCWID:

; 1175 : 		dblLoPhase += dblLoPhaseInc;

  002af	d9 85 00 ff ff
	ff		 fld	 DWORD PTR _dblLoPhase$[ebp]
  002b5	d8 85 18 ff ff
	ff		 fadd	 DWORD PTR _dblLoPhaseInc$[ebp]
  002bb	d9 9d 00 ff ff
	ff		 fstp	 DWORD PTR _dblLoPhase$[ebp]

; 1176 : 		if (dblLoPhase > 2 * M_PI)

  002c1	d9 85 00 ff ff
	ff		 fld	 DWORD PTR _dblLoPhase$[ebp]
  002c7	dc 1d 00 00 00
	00		 fcomp	 QWORD PTR __real@401921fb00000000
  002cd	df e0		 fnstsw	 ax
  002cf	f6 c4 41	 test	 ah, 65			; 00000041H
  002d2	75 12		 jne	 SHORT $LN46@sendCWID

; 1177 : 			dblLoPhase -= 2 * M_PI;

  002d4	d9 85 00 ff ff
	ff		 fld	 DWORD PTR _dblLoPhase$[ebp]
  002da	dc 25 00 00 00
	00		 fsub	 QWORD PTR __real@401921fb00000000
  002e0	d9 9d 00 ff ff
	ff		 fstp	 DWORD PTR _dblLoPhase$[ebp]
$LN46@sendCWID:

; 1178 : 	}

  002e6	e9 eb fe ff ff	 jmp	 $LN51@sendCWID
$LN50@sendCWID:

; 1179 : 	
; 1180 : 	initFilter(500);

  002eb	68 f4 01 00 00	 push	 500			; 000001f4H
  002f0	e8 00 00 00 00	 call	 _initFilter
  002f5	83 c4 04	 add	 esp, 4

; 1181 :    
; 1182 : 	//Generate leader for VOX 6 dots long
; 1183 : 
; 1184 : 	for (k = 6; k >0; k--)

  002f8	c7 85 c0 f2 ff
	ff 06 00 00 00	 mov	 DWORD PTR _k$[ebp], 6
  00302	eb 0f		 jmp	 SHORT $LN45@sendCWID
$LN44@sendCWID:
  00304	8b 85 c0 f2 ff
	ff		 mov	 eax, DWORD PTR _k$[ebp]
  0030a	83 e8 01	 sub	 eax, 1
  0030d	89 85 c0 f2 ff
	ff		 mov	 DWORD PTR _k$[ebp], eax
$LN45@sendCWID:
  00313	83 bd c0 f2 ff
	ff 00		 cmp	 DWORD PTR _k$[ebp], 0
  0031a	7e 44		 jle	 SHORT $LN43@sendCWID

; 1185 : 		for (i = 0; i < intDotSampCnt; i++)

  0031c	c7 85 d8 f2 ff
	ff 00 00 00 00	 mov	 DWORD PTR _i$[ebp], 0
  00326	eb 0f		 jmp	 SHORT $LN42@sendCWID
$LN41@sendCWID:
  00328	8b 85 d8 f2 ff
	ff		 mov	 eax, DWORD PTR _i$[ebp]
  0032e	83 c0 01	 add	 eax, 1
  00331	89 85 d8 f2 ff
	ff		 mov	 DWORD PTR _i$[ebp], eax
$LN42@sendCWID:
  00337	8b 85 d8 f2 ff
	ff		 mov	 eax, DWORD PTR _i$[ebp]
  0033d	3b 85 f4 fe ff
	ff		 cmp	 eax, DWORD PTR _intDotSampCnt$[ebp]
  00343	7d 19		 jge	 SHORT $LN40@sendCWID

; 1186 : 			SampleSink(intSpace[i]);

  00345	8b 85 d8 f2 ff
	ff		 mov	 eax, DWORD PTR _i$[ebp]
  0034b	66 8b 8c 45 e4
	f2 ff ff	 mov	 cx, WORD PTR _intSpace$[ebp+eax*2]
  00353	51		 push	 ecx
  00354	e8 00 00 00 00	 call	 _SampleSink
  00359	83 c4 04	 add	 esp, 4
  0035c	eb ca		 jmp	 SHORT $LN41@sendCWID
$LN40@sendCWID:
  0035e	eb a4		 jmp	 SHORT $LN44@sendCWID
$LN43@sendCWID:

; 1187 : 
; 1188 : 	for (j = 0; j < strlen(strID); j++)

  00360	c7 85 cc f2 ff
	ff 00 00 00 00	 mov	 DWORD PTR _j$[ebp], 0
  0036a	eb 0f		 jmp	 SHORT $LN39@sendCWID
$LN38@sendCWID:
  0036c	8b 85 cc f2 ff
	ff		 mov	 eax, DWORD PTR _j$[ebp]
  00372	83 c0 01	 add	 eax, 1
  00375	89 85 cc f2 ff
	ff		 mov	 DWORD PTR _j$[ebp], eax
$LN39@sendCWID:
  0037b	8b 45 08	 mov	 eax, DWORD PTR _strID$[ebp]
  0037e	50		 push	 eax
  0037f	e8 00 00 00 00	 call	 _strlen
  00384	83 c4 04	 add	 esp, 4
  00387	39 85 cc f2 ff
	ff		 cmp	 DWORD PTR _j$[ebp], eax
  0038d	0f 83 1f 02 00
	00		 jae	 $LN37@sendCWID

; 1189 : 	{
; 1190 : 		index = strchr(strAlphabet, strID[j]);

  00393	8b 45 08	 mov	 eax, DWORD PTR _strID$[ebp]
  00396	03 85 cc f2 ff
	ff		 add	 eax, DWORD PTR _j$[ebp]
  0039c	0f be 08	 movsx	 ecx, BYTE PTR [eax]
  0039f	51		 push	 ecx
  003a0	8d 55 d0	 lea	 edx, DWORD PTR _strAlphabet$[ebp]
  003a3	52		 push	 edx
  003a4	e8 00 00 00 00	 call	 _strchr
  003a9	83 c4 08	 add	 esp, 8
  003ac	89 85 a8 f2 ff
	ff		 mov	 DWORD PTR _index$[ebp], eax

; 1191 : 		if (index)

  003b2	83 bd a8 f2 ff
	ff 00		 cmp	 DWORD PTR _index$[ebp], 0
  003b9	74 13		 je	 SHORT $LN36@sendCWID

; 1192 : 			idoffset = index - &strAlphabet[0];

  003bb	8b 85 a8 f2 ff
	ff		 mov	 eax, DWORD PTR _index$[ebp]
  003c1	8d 4d d0	 lea	 ecx, DWORD PTR _strAlphabet$[ebp]
  003c4	2b c1		 sub	 eax, ecx
  003c6	89 85 90 f2 ff
	ff		 mov	 DWORD PTR _idoffset$[ebp], eax

; 1193 : 		else

  003cc	eb 0a		 jmp	 SHORT $LN35@sendCWID
$LN36@sendCWID:

; 1194 : 			idoffset = 0;

  003ce	c7 85 90 f2 ff
	ff 00 00 00 00	 mov	 DWORD PTR _idoffset$[ebp], 0
$LN35@sendCWID:

; 1195 : 
; 1196 : 		intMask = 0x40000000;

  003d8	c7 85 9c f2 ff
	ff 00 00 00 40	 mov	 DWORD PTR _intMask$[ebp], 1073741824 ; 40000000H

; 1197 : 
; 1198 : 		if (index == NULL)

  003e2	83 bd a8 f2 ff
	ff 00		 cmp	 DWORD PTR _index$[ebp], 0
  003e9	75 6d		 jne	 SHORT $LN34@sendCWID

; 1199 : 		{
; 1200 : 			// process this as a space adding 6 dots worth of space to the wave file
; 1201 : 
; 1202 : 			for (k = 6; k >0; k--)

  003eb	c7 85 c0 f2 ff
	ff 06 00 00 00	 mov	 DWORD PTR _k$[ebp], 6
  003f5	eb 0f		 jmp	 SHORT $LN33@sendCWID
$LN32@sendCWID:
  003f7	8b 85 c0 f2 ff
	ff		 mov	 eax, DWORD PTR _k$[ebp]
  003fd	83 e8 01	 sub	 eax, 1
  00400	89 85 c0 f2 ff
	ff		 mov	 DWORD PTR _k$[ebp], eax
$LN33@sendCWID:
  00406	83 bd c0 f2 ff
	ff 00		 cmp	 DWORD PTR _k$[ebp], 0
  0040d	7e 44		 jle	 SHORT $LN31@sendCWID

; 1203 : 				for (i = 0; i < intDotSampCnt; i++)

  0040f	c7 85 d8 f2 ff
	ff 00 00 00 00	 mov	 DWORD PTR _i$[ebp], 0
  00419	eb 0f		 jmp	 SHORT $LN30@sendCWID
$LN29@sendCWID:
  0041b	8b 85 d8 f2 ff
	ff		 mov	 eax, DWORD PTR _i$[ebp]
  00421	83 c0 01	 add	 eax, 1
  00424	89 85 d8 f2 ff
	ff		 mov	 DWORD PTR _i$[ebp], eax
$LN30@sendCWID:
  0042a	8b 85 d8 f2 ff
	ff		 mov	 eax, DWORD PTR _i$[ebp]
  00430	3b 85 f4 fe ff
	ff		 cmp	 eax, DWORD PTR _intDotSampCnt$[ebp]
  00436	7d 19		 jge	 SHORT $LN28@sendCWID

; 1204 : 					SampleSink(intSpace[i]);

  00438	8b 85 d8 f2 ff
	ff		 mov	 eax, DWORD PTR _i$[ebp]
  0043e	66 8b 8c 45 e4
	f2 ff ff	 mov	 cx, WORD PTR _intSpace$[ebp+eax*2]
  00446	51		 push	 ecx
  00447	e8 00 00 00 00	 call	 _SampleSink
  0044c	83 c4 04	 add	 esp, 4
  0044f	eb ca		 jmp	 SHORT $LN29@sendCWID
$LN28@sendCWID:
  00451	eb a4		 jmp	 SHORT $LN32@sendCWID
$LN31@sendCWID:

; 1205 : 		}
; 1206 : 		else

  00453	e9 ed 00 00 00	 jmp	 $LN21@sendCWID
$LN34@sendCWID:

; 1207 : 		{
; 1208 : 		while (intMask > 0) //  search for the first non 0 bit

  00458	83 bd 9c f2 ff
	ff 00		 cmp	 DWORD PTR _intMask$[ebp], 0
  0045f	7e 29		 jle	 SHORT $LN25@sendCWID

; 1209 : 			if (intMask & intCW[idoffset])

  00461	8b 85 90 f2 ff
	ff		 mov	 eax, DWORD PTR _idoffset$[ebp]
  00467	8b 8d 9c f2 ff
	ff		 mov	 ecx, DWORD PTR _intMask$[ebp]
  0046d	23 8c 85 30 ff
	ff ff		 and	 ecx, DWORD PTR _intCW$[ebp+eax*4]
  00474	74 04		 je	 SHORT $LN24@sendCWID

; 1210 : 				break;	// intMask is pointing to the first non 0 entry

  00476	eb 12		 jmp	 SHORT $LN25@sendCWID

; 1211 : 			else

  00478	eb 0e		 jmp	 SHORT $LN23@sendCWID
$LN24@sendCWID:

; 1212 : 				intMask >>= 1;	//  Right shift mask

  0047a	8b 85 9c f2 ff
	ff		 mov	 eax, DWORD PTR _intMask$[ebp]
  00480	d1 f8		 sar	 eax, 1
  00482	89 85 9c f2 ff
	ff		 mov	 DWORD PTR _intMask$[ebp], eax
$LN23@sendCWID:
  00488	eb ce		 jmp	 SHORT $LN34@sendCWID
$LN25@sendCWID:

; 1213 : 				
; 1214 : 		while (intMask > 0) //  search for the first non 0 bit

  0048a	83 bd 9c f2 ff
	ff 00		 cmp	 DWORD PTR _intMask$[ebp], 0
  00491	0f 8e ae 00 00
	00		 jle	 $LN21@sendCWID

; 1215 : 		{
; 1216 : 			if (intMask & intCW[idoffset])

  00497	8b 85 90 f2 ff
	ff		 mov	 eax, DWORD PTR _idoffset$[ebp]
  0049d	8b 8d 9c f2 ff
	ff		 mov	 ecx, DWORD PTR _intMask$[ebp]
  004a3	23 8c 85 30 ff
	ff ff		 and	 ecx, DWORD PTR _intCW$[ebp+eax*4]
  004aa	74 44		 je	 SHORT $LN20@sendCWID

; 1217 : 				for (i = 0; i < intDotSampCnt; i++)

  004ac	c7 85 d8 f2 ff
	ff 00 00 00 00	 mov	 DWORD PTR _i$[ebp], 0
  004b6	eb 0f		 jmp	 SHORT $LN19@sendCWID
$LN18@sendCWID:
  004b8	8b 85 d8 f2 ff
	ff		 mov	 eax, DWORD PTR _i$[ebp]
  004be	83 c0 01	 add	 eax, 1
  004c1	89 85 d8 f2 ff
	ff		 mov	 DWORD PTR _i$[ebp], eax
$LN19@sendCWID:
  004c7	8b 85 d8 f2 ff
	ff		 mov	 eax, DWORD PTR _i$[ebp]
  004cd	3b 85 f4 fe ff
	ff		 cmp	 eax, DWORD PTR _intDotSampCnt$[ebp]
  004d3	7d 19		 jge	 SHORT $LN17@sendCWID

; 1218 : 					SampleSink(intDot[i]);

  004d5	8b 85 d8 f2 ff
	ff		 mov	 eax, DWORD PTR _i$[ebp]
  004db	66 8b 8c 45 ec
	f8 ff ff	 mov	 cx, WORD PTR _intDot$[ebp+eax*2]
  004e3	51		 push	 ecx
  004e4	e8 00 00 00 00	 call	 _SampleSink
  004e9	83 c4 04	 add	 esp, 4
  004ec	eb ca		 jmp	 SHORT $LN18@sendCWID
$LN17@sendCWID:

; 1219 : 			else

  004ee	eb 42		 jmp	 SHORT $LN13@sendCWID
$LN20@sendCWID:

; 1220 : 				for (i = 0; i < intDotSampCnt; i++)

  004f0	c7 85 d8 f2 ff
	ff 00 00 00 00	 mov	 DWORD PTR _i$[ebp], 0
  004fa	eb 0f		 jmp	 SHORT $LN15@sendCWID
$LN14@sendCWID:
  004fc	8b 85 d8 f2 ff
	ff		 mov	 eax, DWORD PTR _i$[ebp]
  00502	83 c0 01	 add	 eax, 1
  00505	89 85 d8 f2 ff
	ff		 mov	 DWORD PTR _i$[ebp], eax
$LN15@sendCWID:
  0050b	8b 85 d8 f2 ff
	ff		 mov	 eax, DWORD PTR _i$[ebp]
  00511	3b 85 f4 fe ff
	ff		 cmp	 eax, DWORD PTR _intDotSampCnt$[ebp]
  00517	7d 19		 jge	 SHORT $LN13@sendCWID

; 1221 : 					SampleSink(intSpace[i]);

  00519	8b 85 d8 f2 ff
	ff		 mov	 eax, DWORD PTR _i$[ebp]
  0051f	66 8b 8c 45 e4
	f2 ff ff	 mov	 cx, WORD PTR _intSpace$[ebp+eax*2]
  00527	51		 push	 ecx
  00528	e8 00 00 00 00	 call	 _SampleSink
  0052d	83 c4 04	 add	 esp, 4
  00530	eb ca		 jmp	 SHORT $LN14@sendCWID
$LN13@sendCWID:

; 1222 : 	
; 1223 : 			intMask >>= 1;	//  Right shift mask

  00532	8b 85 9c f2 ff
	ff		 mov	 eax, DWORD PTR _intMask$[ebp]
  00538	d1 f8		 sar	 eax, 1
  0053a	89 85 9c f2 ff
	ff		 mov	 DWORD PTR _intMask$[ebp], eax

; 1224 : 		}

  00540	e9 45 ff ff ff	 jmp	 $LN25@sendCWID
$LN21@sendCWID:

; 1225 : 		}
; 1226 : 			// add 3 dot spaces for inter letter spacing
; 1227 : 			for (k = 6; k >0; k--)

  00545	c7 85 c0 f2 ff
	ff 06 00 00 00	 mov	 DWORD PTR _k$[ebp], 6
  0054f	eb 0f		 jmp	 SHORT $LN12@sendCWID
$LN11@sendCWID:
  00551	8b 85 c0 f2 ff
	ff		 mov	 eax, DWORD PTR _k$[ebp]
  00557	83 e8 01	 sub	 eax, 1
  0055a	89 85 c0 f2 ff
	ff		 mov	 DWORD PTR _k$[ebp], eax
$LN12@sendCWID:
  00560	83 bd c0 f2 ff
	ff 00		 cmp	 DWORD PTR _k$[ebp], 0
  00567	7e 44		 jle	 SHORT $LN10@sendCWID

; 1228 : 				for (i = 0; i < intDotSampCnt; i++)

  00569	c7 85 d8 f2 ff
	ff 00 00 00 00	 mov	 DWORD PTR _i$[ebp], 0
  00573	eb 0f		 jmp	 SHORT $LN9@sendCWID
$LN8@sendCWID:
  00575	8b 85 d8 f2 ff
	ff		 mov	 eax, DWORD PTR _i$[ebp]
  0057b	83 c0 01	 add	 eax, 1
  0057e	89 85 d8 f2 ff
	ff		 mov	 DWORD PTR _i$[ebp], eax
$LN9@sendCWID:
  00584	8b 85 d8 f2 ff
	ff		 mov	 eax, DWORD PTR _i$[ebp]
  0058a	3b 85 f4 fe ff
	ff		 cmp	 eax, DWORD PTR _intDotSampCnt$[ebp]
  00590	7d 19		 jge	 SHORT $LN7@sendCWID

; 1229 : 					SampleSink(intSpace[i]);

  00592	8b 85 d8 f2 ff
	ff		 mov	 eax, DWORD PTR _i$[ebp]
  00598	66 8b 8c 45 e4
	f2 ff ff	 mov	 cx, WORD PTR _intSpace$[ebp+eax*2]
  005a0	51		 push	 ecx
  005a1	e8 00 00 00 00	 call	 _SampleSink
  005a6	83 c4 04	 add	 esp, 4
  005a9	eb ca		 jmp	 SHORT $LN8@sendCWID
$LN7@sendCWID:
  005ab	eb a4		 jmp	 SHORT $LN11@sendCWID
$LN10@sendCWID:

; 1230 : 	}

  005ad	e9 ba fd ff ff	 jmp	 $LN38@sendCWID
$LN37@sendCWID:

; 1231 : 	
; 1232 : 	//add 3 spaces for the end tail
; 1233 : 	
; 1234 : 	for (k = 6; k >0; k--)

  005b2	c7 85 c0 f2 ff
	ff 06 00 00 00	 mov	 DWORD PTR _k$[ebp], 6
  005bc	eb 0f		 jmp	 SHORT $LN6@sendCWID
$LN5@sendCWID:
  005be	8b 85 c0 f2 ff
	ff		 mov	 eax, DWORD PTR _k$[ebp]
  005c4	83 e8 01	 sub	 eax, 1
  005c7	89 85 c0 f2 ff
	ff		 mov	 DWORD PTR _k$[ebp], eax
$LN6@sendCWID:
  005cd	83 bd c0 f2 ff
	ff 00		 cmp	 DWORD PTR _k$[ebp], 0
  005d4	7e 44		 jle	 SHORT $LN4@sendCWID

; 1235 : 		for (i = 0; i < intDotSampCnt; i++)

  005d6	c7 85 d8 f2 ff
	ff 00 00 00 00	 mov	 DWORD PTR _i$[ebp], 0
  005e0	eb 0f		 jmp	 SHORT $LN3@sendCWID
$LN2@sendCWID:
  005e2	8b 85 d8 f2 ff
	ff		 mov	 eax, DWORD PTR _i$[ebp]
  005e8	83 c0 01	 add	 eax, 1
  005eb	89 85 d8 f2 ff
	ff		 mov	 DWORD PTR _i$[ebp], eax
$LN3@sendCWID:
  005f1	8b 85 d8 f2 ff
	ff		 mov	 eax, DWORD PTR _i$[ebp]
  005f7	3b 85 f4 fe ff
	ff		 cmp	 eax, DWORD PTR _intDotSampCnt$[ebp]
  005fd	7d 19		 jge	 SHORT $LN1@sendCWID

; 1236 : 			SampleSink(intSpace[i]);

  005ff	8b 85 d8 f2 ff
	ff		 mov	 eax, DWORD PTR _i$[ebp]
  00605	66 8b 8c 45 e4
	f2 ff ff	 mov	 cx, WORD PTR _intSpace$[ebp+eax*2]
  0060d	51		 push	 ecx
  0060e	e8 00 00 00 00	 call	 _SampleSink
  00613	83 c4 04	 add	 esp, 4
  00616	eb ca		 jmp	 SHORT $LN2@sendCWID
$LN1@sendCWID:
  00618	eb a4		 jmp	 SHORT $LN5@sendCWID
$LN4@sendCWID:

; 1237 : 
; 1238 : 	SoundFlush();

  0061a	e8 00 00 00 00	 call	 _SoundFlush

; 1239 : }

  0061f	52		 push	 edx
  00620	8b cd		 mov	 ecx, ebp
  00622	50		 push	 eax
  00623	8d 15 00 00 00
	00		 lea	 edx, DWORD PTR $LN60@sendCWID
  00629	e8 00 00 00 00	 call	 @_RTC_CheckStackVars@8
  0062e	58		 pop	 eax
  0062f	5a		 pop	 edx
  00630	5f		 pop	 edi
  00631	5e		 pop	 esi
  00632	5b		 pop	 ebx
  00633	8b 4d fc	 mov	 ecx, DWORD PTR __$ArrayPad$[ebp]
  00636	33 cd		 xor	 ecx, ebp
  00638	e8 00 00 00 00	 call	 @__security_check_cookie@4
  0063d	81 c4 34 0e 00
	00		 add	 esp, 3636		; 00000e34H
  00643	3b ec		 cmp	 ebp, esp
  00645	e8 00 00 00 00	 call	 __RTC_CheckEsp
  0064a	8b e5		 mov	 esp, ebp
  0064c	5d		 pop	 ebp
  0064d	c3		 ret	 0
  0064e	8b ff		 npad	 2
$LN60@sendCWID:
  00650	04 00 00 00	 DD	 4
  00654	00 00 00 00	 DD	 $LN59@sendCWID
$LN59@sendCWID:
  00658	d0 ff ff ff	 DD	 -48			; ffffffd0H
  0065c	27 00 00 00	 DD	 39			; 00000027H
  00660	00 00 00 00	 DD	 $LN55@sendCWID
  00664	30 ff ff ff	 DD	 -208			; ffffff30H
  00668	98 00 00 00	 DD	 152			; 00000098H
  0066c	00 00 00 00	 DD	 $LN56@sendCWID
  00670	ec f8 ff ff	 DD	 -1812			; fffff8ecH
  00674	00 06 00 00	 DD	 1536			; 00000600H
  00678	00 00 00 00	 DD	 $LN57@sendCWID
  0067c	e4 f2 ff ff	 DD	 -3356			; fffff2e4H
  00680	00 06 00 00	 DD	 1536			; 00000600H
  00684	00 00 00 00	 DD	 $LN58@sendCWID
$LN58@sendCWID:
  00688	69		 DB	 105			; 00000069H
  00689	6e		 DB	 110			; 0000006eH
  0068a	74		 DB	 116			; 00000074H
  0068b	53		 DB	 83			; 00000053H
  0068c	70		 DB	 112			; 00000070H
  0068d	61		 DB	 97			; 00000061H
  0068e	63		 DB	 99			; 00000063H
  0068f	65		 DB	 101			; 00000065H
  00690	00		 DB	 0
$LN57@sendCWID:
  00691	69		 DB	 105			; 00000069H
  00692	6e		 DB	 110			; 0000006eH
  00693	74		 DB	 116			; 00000074H
  00694	44		 DB	 68			; 00000044H
  00695	6f		 DB	 111			; 0000006fH
  00696	74		 DB	 116			; 00000074H
  00697	00		 DB	 0
$LN56@sendCWID:
  00698	69		 DB	 105			; 00000069H
  00699	6e		 DB	 110			; 0000006eH
  0069a	74		 DB	 116			; 00000074H
  0069b	43		 DB	 67			; 00000043H
  0069c	57		 DB	 87			; 00000057H
  0069d	00		 DB	 0
$LN55@sendCWID:
  0069e	73		 DB	 115			; 00000073H
  0069f	74		 DB	 116			; 00000074H
  006a0	72		 DB	 114			; 00000072H
  006a1	41		 DB	 65			; 00000041H
  006a2	6c		 DB	 108			; 0000006cH
  006a3	70		 DB	 112			; 00000070H
  006a4	68		 DB	 104			; 00000068H
  006a5	61		 DB	 97			; 00000061H
  006a6	62		 DB	 98			; 00000062H
  006a7	65		 DB	 101			; 00000065H
  006a8	74		 DB	 116			; 00000074H
  006a9	00		 DB	 0
_sendCWID ENDP
_TEXT	ENDS
END
