; Listing generated by Microsoft (R) Optimizing Compiler Version 14.00.50727.42 

	TITLE	c:\SkyDrive\Dev\Source\ARDOPC\TCPHostInterface.c
	.686P
	.XMM
	include listing.inc
	.model	flat

INCLUDELIB LIBCMTD
INCLUDELIB OLDNAMES

PUBLIC	_CONNECTED
PUBLIC	_DATACONNECTED
PUBLIC	_InputLen
PUBLIC	_DataInputLen
PUBLIC	_bytDataToSendLength
PUBLIC	_InReceiveProcess
_DATA	SEGMENT
COMM	_bytLastCMD_DataSent:BYTE:0100H
COMM	_TCPDataSock:DWORD
COMM	_DataListenSock:DWORD
COMM	_bytDataToSend:BYTE:0186a0H
COMM	_TCPControlSock:DWORD
COMM	_ARDOPBuffer:BYTE:02000H
COMM	_ListenSock:DWORD
COMM	_ARDOPDataBuffer:BYTE:02000H
_DATA	ENDS
_BSS	SEGMENT
_CONNECTED DD	01H DUP (?)
_DATACONNECTED DD 01H DUP (?)
_InputLen DD	01H DUP (?)
_DataInputLen DD 01H DUP (?)
_bytDataToSendLength DD 01H DUP (?)
_InReceiveProcess DD 01H DUP (?)
_BSS	ENDS
PUBLIC	??_C@_0BN@FIGNPBO@?5Command?5Trace?5TO?5Host?5?5c?3?$CFs?$AA@ ; `string'
PUBLIC	??_C@_05FPDJHEMH@c?3?$CFs?$AN?$AA@		; `string'
PUBLIC	__$ArrayPad$
PUBLIC	_SendCommandToHost
EXTRN	_WriteDebugLog:PROC
EXTRN	_CommandTrace:DWORD
EXTRN	_WSAGetLastError@0:PROC
EXTRN	_send@16:PROC
EXTRN	_sprintf:PROC
EXTRN	___security_cookie:DWORD
EXTRN	__RTC_CheckEsp:PROC
EXTRN	@__security_check_cookie@4:PROC
EXTRN	@_RTC_CheckStackVars@8:PROC
EXTRN	__RTC_Shutdown:PROC
EXTRN	__RTC_InitBase:PROC
;	COMDAT ??_C@_0BN@FIGNPBO@?5Command?5Trace?5TO?5Host?5?5c?3?$CFs?$AA@
; File c:\skydrive\dev\source\ardopc\tcphostinterface.c
CONST	SEGMENT
??_C@_0BN@FIGNPBO@?5Command?5Trace?5TO?5Host?5?5c?3?$CFs?$AA@ DB ' Comman'
	DB	'd Trace TO Host  c:%s', 00H			; `string'
CONST	ENDS
;	COMDAT ??_C@_05FPDJHEMH@c?3?$CFs?$AN?$AA@
CONST	SEGMENT
??_C@_05FPDJHEMH@c?3?$CFs?$AN?$AA@ DB 'c:%s', 0dH, 00H	; `string'
CONST	ENDS
;	COMDAT rtc$TMZ
rtc$TMZ	SEGMENT
__RTC_Shutdown.rtc$TMZ DD FLAT:__RTC_Shutdown
rtc$TMZ	ENDS
;	COMDAT rtc$IMZ
rtc$IMZ	SEGMENT
__RTC_InitBase.rtc$IMZ DD FLAT:__RTC_InitBase
; Function compile flags: /Odtp /RTCsu /ZI
rtc$IMZ	ENDS
;	COMDAT _SendCommandToHost
_TEXT	SEGMENT
_ret$ = -288						; size = 4
_len$ = -276						; size = 4
_bytToSend$ = -264					; size = 256
__$ArrayPad$ = -4					; size = 4
_strText$ = 8						; size = 4
_SendCommandToHost PROC					; COMDAT

; 97   : {

  00000	55		 push	 ebp
  00001	8b ec		 mov	 ebp, esp
  00003	81 ec e4 01 00
	00		 sub	 esp, 484		; 000001e4H
  00009	53		 push	 ebx
  0000a	56		 push	 esi
  0000b	57		 push	 edi
  0000c	8d bd 1c fe ff
	ff		 lea	 edi, DWORD PTR [ebp-484]
  00012	b9 79 00 00 00	 mov	 ecx, 121		; 00000079H
  00017	b8 cc cc cc cc	 mov	 eax, -858993460		; ccccccccH
  0001c	f3 ab		 rep stosd
  0001e	a1 00 00 00 00	 mov	 eax, DWORD PTR ___security_cookie
  00023	33 c5		 xor	 eax, ebp
  00025	89 45 fc	 mov	 DWORD PTR __$ArrayPad$[ebp], eax

; 98   : 	// This is from TNC side as identified by the leading "c:"   (Host side sends "C:")
; 99   : 	// Subroutine to send a line of text (terminated with <Cr>) on the command port... All commands beging with "c:" and end with <Cr>
; 100  : 	// A two byte CRC appended following the <Cr>
; 101  : 	// The strText cannot contain a "c:" sequence or a <Cr>
; 102  : 	// Returns TRUE if command sent successfully.
; 103  : 	// Form byte array to send with CRC
; 104  : 
; 105  : 	UCHAR bytToSend[256];
; 106  : 	int len;
; 107  : 	int ret;
; 108  : 	len = sprintf(bytToSend,"c:%s\r", strText);

  00028	8b 45 08	 mov	 eax, DWORD PTR _strText$[ebp]
  0002b	50		 push	 eax
  0002c	68 00 00 00 00	 push	 OFFSET ??_C@_05FPDJHEMH@c?3?$CFs?$AN?$AA@
  00031	8d 8d f8 fe ff
	ff		 lea	 ecx, DWORD PTR _bytToSend$[ebp]
  00037	51		 push	 ecx
  00038	e8 00 00 00 00	 call	 _sprintf
  0003d	83 c4 0c	 add	 esp, 12			; 0000000cH
  00040	89 85 ec fe ff
	ff		 mov	 DWORD PTR _len$[ebp], eax

; 109  : 
; 110  : 	if (CONNECTED)

  00046	83 3d 00 00 00
	00 00		 cmp	 DWORD PTR _CONNECTED, 0
  0004d	74 49		 je	 SHORT $LN3@SendComman

; 111  : 	{
; 112  : 		ret = send(TCPControlSock, bytToSend, len, 0);

  0004f	6a 00		 push	 0
  00051	8b 85 ec fe ff
	ff		 mov	 eax, DWORD PTR _len$[ebp]
  00057	50		 push	 eax
  00058	8d 8d f8 fe ff
	ff		 lea	 ecx, DWORD PTR _bytToSend$[ebp]
  0005e	51		 push	 ecx
  0005f	8b 15 00 00 00
	00		 mov	 edx, DWORD PTR _TCPControlSock
  00065	52		 push	 edx
  00066	e8 00 00 00 00	 call	 _send@16
  0006b	89 85 e0 fe ff
	ff		 mov	 DWORD PTR _ret$[ebp], eax

; 113  : 		ret = WSAGetLastError();

  00071	e8 00 00 00 00	 call	 _WSAGetLastError@0
  00076	89 85 e0 fe ff
	ff		 mov	 DWORD PTR _ret$[ebp], eax

; 114  : 
; 115  : 		if (CommandTrace) WriteDebugLog(LOGINFO, " Command Trace TO Host  c:%s", strText);

  0007c	83 3d 00 00 00
	00 00		 cmp	 DWORD PTR _CommandTrace, 0
  00083	74 13		 je	 SHORT $LN3@SendComman
  00085	8b 45 08	 mov	 eax, DWORD PTR _strText$[ebp]
  00088	50		 push	 eax
  00089	68 00 00 00 00	 push	 OFFSET ??_C@_0BN@FIGNPBO@?5Command?5Trace?5TO?5Host?5?5c?3?$CFs?$AA@
  0008e	6a 06		 push	 6
  00090	e8 00 00 00 00	 call	 _WriteDebugLog
  00095	83 c4 0c	 add	 esp, 12			; 0000000cH
$LN3@SendComman:

; 116  : 		return;
; 117  : 	}
; 118  : 	return;
; 119  : }

  00098	52		 push	 edx
  00099	8b cd		 mov	 ecx, ebp
  0009b	50		 push	 eax
  0009c	8d 15 00 00 00
	00		 lea	 edx, DWORD PTR $LN7@SendComman
  000a2	e8 00 00 00 00	 call	 @_RTC_CheckStackVars@8
  000a7	58		 pop	 eax
  000a8	5a		 pop	 edx
  000a9	5f		 pop	 edi
  000aa	5e		 pop	 esi
  000ab	5b		 pop	 ebx
  000ac	8b 4d fc	 mov	 ecx, DWORD PTR __$ArrayPad$[ebp]
  000af	33 cd		 xor	 ecx, ebp
  000b1	e8 00 00 00 00	 call	 @__security_check_cookie@4
  000b6	81 c4 e4 01 00
	00		 add	 esp, 484		; 000001e4H
  000bc	3b ec		 cmp	 ebp, esp
  000be	e8 00 00 00 00	 call	 __RTC_CheckEsp
  000c3	8b e5		 mov	 esp, ebp
  000c5	5d		 pop	 ebp
  000c6	c3		 ret	 0
  000c7	90		 npad	 1
$LN7@SendComman:
  000c8	01 00 00 00	 DD	 1
  000cc	00 00 00 00	 DD	 $LN6@SendComman
$LN6@SendComman:
  000d0	f8 fe ff ff	 DD	 -264			; fffffef8H
  000d4	00 01 00 00	 DD	 256			; 00000100H
  000d8	00 00 00 00	 DD	 $LN5@SendComman
$LN5@SendComman:
  000dc	62		 DB	 98			; 00000062H
  000dd	79		 DB	 121			; 00000079H
  000de	74		 DB	 116			; 00000074H
  000df	54		 DB	 84			; 00000054H
  000e0	6f		 DB	 111			; 0000006fH
  000e1	53		 DB	 83			; 00000053H
  000e2	65		 DB	 101			; 00000065H
  000e3	6e		 DB	 110			; 0000006eH
  000e4	64		 DB	 100			; 00000064H
  000e5	00		 DB	 0
_SendCommandToHost ENDP
_TEXT	ENDS
PUBLIC	__$ArrayPad$
PUBLIC	_SendCommandToHostQuiet
; Function compile flags: /Odtp /RTCsu /ZI
;	COMDAT _SendCommandToHostQuiet
_TEXT	SEGMENT
_ret$ = -288						; size = 4
_len$ = -276						; size = 4
_bytToSend$ = -264					; size = 256
__$ArrayPad$ = -4					; size = 4
_strText$ = 8						; size = 4
_SendCommandToHostQuiet PROC				; COMDAT

; 123  : {

  00000	55		 push	 ebp
  00001	8b ec		 mov	 ebp, esp
  00003	81 ec e4 01 00
	00		 sub	 esp, 484		; 000001e4H
  00009	53		 push	 ebx
  0000a	56		 push	 esi
  0000b	57		 push	 edi
  0000c	8d bd 1c fe ff
	ff		 lea	 edi, DWORD PTR [ebp-484]
  00012	b9 79 00 00 00	 mov	 ecx, 121		; 00000079H
  00017	b8 cc cc cc cc	 mov	 eax, -858993460		; ccccccccH
  0001c	f3 ab		 rep stosd
  0001e	a1 00 00 00 00	 mov	 eax, DWORD PTR ___security_cookie
  00023	33 c5		 xor	 eax, ebp
  00025	89 45 fc	 mov	 DWORD PTR __$ArrayPad$[ebp], eax

; 124  : 	UCHAR bytToSend[256];
; 125  : 	int len;
; 126  : 	int ret;
; 127  : 	
; 128  : 	len = sprintf(bytToSend,"c:%s\r", strText);

  00028	8b 45 08	 mov	 eax, DWORD PTR _strText$[ebp]
  0002b	50		 push	 eax
  0002c	68 00 00 00 00	 push	 OFFSET ??_C@_05FPDJHEMH@c?3?$CFs?$AN?$AA@
  00031	8d 8d f8 fe ff
	ff		 lea	 ecx, DWORD PTR _bytToSend$[ebp]
  00037	51		 push	 ecx
  00038	e8 00 00 00 00	 call	 _sprintf
  0003d	83 c4 0c	 add	 esp, 12			; 0000000cH
  00040	89 85 ec fe ff
	ff		 mov	 DWORD PTR _len$[ebp], eax

; 129  : 
; 130  : 	if (CONNECTED)

  00046	83 3d 00 00 00
	00 00		 cmp	 DWORD PTR _CONNECTED, 0
  0004d	74 49		 je	 SHORT $LN3@SendComman@2

; 131  : 	{
; 132  : 		ret = send(TCPControlSock, bytToSend, len, 0);

  0004f	6a 00		 push	 0
  00051	8b 85 ec fe ff
	ff		 mov	 eax, DWORD PTR _len$[ebp]
  00057	50		 push	 eax
  00058	8d 8d f8 fe ff
	ff		 lea	 ecx, DWORD PTR _bytToSend$[ebp]
  0005e	51		 push	 ecx
  0005f	8b 15 00 00 00
	00		 mov	 edx, DWORD PTR _TCPControlSock
  00065	52		 push	 edx
  00066	e8 00 00 00 00	 call	 _send@16
  0006b	89 85 e0 fe ff
	ff		 mov	 DWORD PTR _ret$[ebp], eax

; 133  : 		ret = WSAGetLastError();

  00071	e8 00 00 00 00	 call	 _WSAGetLastError@0
  00076	89 85 e0 fe ff
	ff		 mov	 DWORD PTR _ret$[ebp], eax

; 134  : 
; 135  : 		if (CommandTrace) WriteDebugLog(LOGDEBUG, " Command Trace TO Host  c:%s", strText);

  0007c	83 3d 00 00 00
	00 00		 cmp	 DWORD PTR _CommandTrace, 0
  00083	74 13		 je	 SHORT $LN3@SendComman@2
  00085	8b 45 08	 mov	 eax, DWORD PTR _strText$[ebp]
  00088	50		 push	 eax
  00089	68 00 00 00 00	 push	 OFFSET ??_C@_0BN@FIGNPBO@?5Command?5Trace?5TO?5Host?5?5c?3?$CFs?$AA@
  0008e	6a 07		 push	 7
  00090	e8 00 00 00 00	 call	 _WriteDebugLog
  00095	83 c4 0c	 add	 esp, 12			; 0000000cH
$LN3@SendComman@2:

; 136  : 		return;
; 137  : 	}
; 138  : 	return;
; 139  : }

  00098	52		 push	 edx
  00099	8b cd		 mov	 ecx, ebp
  0009b	50		 push	 eax
  0009c	8d 15 00 00 00
	00		 lea	 edx, DWORD PTR $LN7@SendComman@2
  000a2	e8 00 00 00 00	 call	 @_RTC_CheckStackVars@8
  000a7	58		 pop	 eax
  000a8	5a		 pop	 edx
  000a9	5f		 pop	 edi
  000aa	5e		 pop	 esi
  000ab	5b		 pop	 ebx
  000ac	8b 4d fc	 mov	 ecx, DWORD PTR __$ArrayPad$[ebp]
  000af	33 cd		 xor	 ecx, ebp
  000b1	e8 00 00 00 00	 call	 @__security_check_cookie@4
  000b6	81 c4 e4 01 00
	00		 add	 esp, 484		; 000001e4H
  000bc	3b ec		 cmp	 ebp, esp
  000be	e8 00 00 00 00	 call	 __RTC_CheckEsp
  000c3	8b e5		 mov	 esp, ebp
  000c5	5d		 pop	 ebp
  000c6	c3		 ret	 0
  000c7	90		 npad	 1
$LN7@SendComman@2:
  000c8	01 00 00 00	 DD	 1
  000cc	00 00 00 00	 DD	 $LN6@SendComman@2
$LN6@SendComman@2:
  000d0	f8 fe ff ff	 DD	 -264			; fffffef8H
  000d4	00 01 00 00	 DD	 256			; 00000100H
  000d8	00 00 00 00	 DD	 $LN5@SendComman@2
$LN5@SendComman@2:
  000dc	62		 DB	 98			; 00000062H
  000dd	79		 DB	 121			; 00000079H
  000de	74		 DB	 116			; 00000074H
  000df	54		 DB	 84			; 00000054H
  000e0	6f		 DB	 111			; 0000006fH
  000e1	53		 DB	 83			; 00000053H
  000e2	65		 DB	 101			; 00000065H
  000e3	6e		 DB	 110			; 0000006eH
  000e4	64		 DB	 100			; 00000064H
  000e5	00		 DB	 0
_SendCommandToHostQuiet ENDP
_TEXT	ENDS
PUBLIC	_QueueCommandToHost
; Function compile flags: /Odtp /RTCsu /ZI
;	COMDAT _QueueCommandToHost
_TEXT	SEGMENT
_strText$ = 8						; size = 4
_QueueCommandToHost PROC				; COMDAT

; 144  : {

  00000	55		 push	 ebp
  00001	8b ec		 mov	 ebp, esp
  00003	81 ec c0 00 00
	00		 sub	 esp, 192		; 000000c0H
  00009	53		 push	 ebx
  0000a	56		 push	 esi
  0000b	57		 push	 edi
  0000c	8d bd 40 ff ff
	ff		 lea	 edi, DWORD PTR [ebp-192]
  00012	b9 30 00 00 00	 mov	 ecx, 48			; 00000030H
  00017	b8 cc cc cc cc	 mov	 eax, -858993460		; ccccccccH
  0001c	f3 ab		 rep stosd

; 145  : 	SendCommandToHost(strText);		// no queuing in lastest code

  0001e	8b 45 08	 mov	 eax, DWORD PTR _strText$[ebp]
  00021	50		 push	 eax
  00022	e8 00 00 00 00	 call	 _SendCommandToHost
  00027	83 c4 04	 add	 esp, 4

; 146  : }

  0002a	5f		 pop	 edi
  0002b	5e		 pop	 esi
  0002c	5b		 pop	 ebx
  0002d	81 c4 c0 00 00
	00		 add	 esp, 192		; 000000c0H
  00033	3b ec		 cmp	 ebp, esp
  00035	e8 00 00 00 00	 call	 __RTC_CheckEsp
  0003a	8b e5		 mov	 esp, ebp
  0003c	5d		 pop	 ebp
  0003d	c3		 ret	 0
_QueueCommandToHost ENDP
_TEXT	ENDS
PUBLIC	_SendReplyToHost
; Function compile flags: /Odtp /RTCsu /ZI
;	COMDAT _SendReplyToHost
_TEXT	SEGMENT
_strText$ = 8						; size = 4
_SendReplyToHost PROC					; COMDAT

; 149  : {

  00000	55		 push	 ebp
  00001	8b ec		 mov	 ebp, esp
  00003	81 ec c0 00 00
	00		 sub	 esp, 192		; 000000c0H
  00009	53		 push	 ebx
  0000a	56		 push	 esi
  0000b	57		 push	 edi
  0000c	8d bd 40 ff ff
	ff		 lea	 edi, DWORD PTR [ebp-192]
  00012	b9 30 00 00 00	 mov	 ecx, 48			; 00000030H
  00017	b8 cc cc cc cc	 mov	 eax, -858993460		; ccccccccH
  0001c	f3 ab		 rep stosd

; 150  : 	//	Used for replies to ARDOP commands. In TCP mode treat as SendCommandToHost
; 151  : 
; 152  : 	SendCommandToHost(strText);

  0001e	8b 45 08	 mov	 eax, DWORD PTR _strText$[ebp]
  00021	50		 push	 eax
  00022	e8 00 00 00 00	 call	 _SendCommandToHost
  00027	83 c4 04	 add	 esp, 4

; 153  : }

  0002a	5f		 pop	 edi
  0002b	5e		 pop	 esi
  0002c	5b		 pop	 ebx
  0002d	81 c4 c0 00 00
	00		 add	 esp, 192		; 000000c0H
  00033	3b ec		 cmp	 ebp, esp
  00035	e8 00 00 00 00	 call	 __RTC_CheckEsp
  0003a	8b e5		 mov	 esp, ebp
  0003c	5d		 pop	 ebp
  0003d	c3		 ret	 0
_SendReplyToHost ENDP
_TEXT	ENDS
PUBLIC	??_C@_0CM@GIECKIAC@?$FLAddTagToDataAndSendToHost?$FN?5byte@ ; `string'
PUBLIC	__$ArrayPad$
PUBLIC	_AddTagToDataAndSendToHost
EXTRN	_memcpy:PROC
EXTRN	_blnInitializing:DWORD
;	COMDAT ??_C@_0CM@GIECKIAC@?$FLAddTagToDataAndSendToHost?$FN?5byte@
CONST	SEGMENT
??_C@_0CM@GIECKIAC@?$FLAddTagToDataAndSendToHost?$FN?5byte@ DB '[AddTagTo'
	DB	'DataAndSendToHost] bytes=%d Tag %s', 00H	; `string'
; Function compile flags: /Odtp /RTCsu /ZI
CONST	ENDS
;	COMDAT _AddTagToDataAndSendToHost
_TEXT	SEGMENT
_ret$ = -1532						; size = 4
_buff$ = -1520						; size = 1500
_bytToSend$ = -12					; size = 4
__$ArrayPad$ = -4					; size = 4
_bytData$ = 8						; size = 4
_strTag$ = 12						; size = 4
_Len$ = 16						; size = 4
_AddTagToDataAndSendToHost PROC				; COMDAT

; 157  : {

  00000	55		 push	 ebp
  00001	8b ec		 mov	 ebp, esp
  00003	81 ec c0 06 00
	00		 sub	 esp, 1728		; 000006c0H
  00009	53		 push	 ebx
  0000a	56		 push	 esi
  0000b	57		 push	 edi
  0000c	8d bd 40 f9 ff
	ff		 lea	 edi, DWORD PTR [ebp-1728]
  00012	b9 b0 01 00 00	 mov	 ecx, 432		; 000001b0H
  00017	b8 cc cc cc cc	 mov	 eax, -858993460		; ccccccccH
  0001c	f3 ab		 rep stosd
  0001e	a1 00 00 00 00	 mov	 eax, DWORD PTR ___security_cookie
  00023	33 c5		 xor	 eax, ebp
  00025	89 45 fc	 mov	 DWORD PTR __$ArrayPad$[ebp], eax

; 158  : 	//  This is from TNC side as identified by the leading "d:"   (Host side sends data with leading  "D:")
; 159  : 	// includes 16 bit CRC check on Data Len + Data (does not CRC the leading "d:")
; 160  : 	// strTag has the type Tag to prepend to data  "ARQ", "FEC" or "ERR" which are examined and stripped by Host (optionally used by host for display)
; 161  : 	// Max data size should be 2000 bytes or less for timing purposes
; 162  : 	// I think largest apcet is about 1360 bytes
; 163  : 
; 164  : 	UCHAR * bytToSend;
; 165  : 	UCHAR buff[1500];
; 166  : 
; 167  : 	int ret;
; 168  : 
; 169  : 	if (blnInitializing)

  00028	83 3d 00 00 00
	00 00		 cmp	 DWORD PTR _blnInitializing, 0
  0002f	74 05		 je	 SHORT $LN2@AddTagToDa

; 170  : 		return;

  00031	e9 b8 00 00 00	 jmp	 $LN3@AddTagToDa
$LN2@AddTagToDa:

; 171  : 
; 172  : 	if (CommandTrace) WriteDebugLog(LOGINFO, "[AddTagToDataAndSendToHost] bytes=%d Tag %s", Len, strTag);

  00036	83 3d 00 00 00
	00 00		 cmp	 DWORD PTR _CommandTrace, 0
  0003d	74 17		 je	 SHORT $LN1@AddTagToDa
  0003f	8b 45 0c	 mov	 eax, DWORD PTR _strTag$[ebp]
  00042	50		 push	 eax
  00043	8b 4d 10	 mov	 ecx, DWORD PTR _Len$[ebp]
  00046	51		 push	 ecx
  00047	68 00 00 00 00	 push	 OFFSET ??_C@_0CM@GIECKIAC@?$FLAddTagToDataAndSendToHost?$FN?5byte@
  0004c	6a 06		 push	 6
  0004e	e8 00 00 00 00	 call	 _WriteDebugLog
  00053	83 c4 10	 add	 esp, 16			; 00000010H
$LN1@AddTagToDa:

; 173  : 
; 174  : 	//	Have to save copy for possible retry (and possibly until previous 
; 175  : 	//	command is acked
; 176  : 
; 177  : 	bytToSend = buff;

  00056	8d 85 10 fa ff
	ff		 lea	 eax, DWORD PTR _buff$[ebp]
  0005c	89 45 f4	 mov	 DWORD PTR _bytToSend$[ebp], eax

; 178  : 
; 179  : 	bytToSend[0] = 'd';			// indicates data from TNC

  0005f	8b 45 f4	 mov	 eax, DWORD PTR _bytToSend$[ebp]
  00062	c6 00 64	 mov	 BYTE PTR [eax], 100	; 00000064H

; 180  : 	bytToSend[1] = ':';

  00065	8b 45 f4	 mov	 eax, DWORD PTR _bytToSend$[ebp]
  00068	c6 40 01 3a	 mov	 BYTE PTR [eax+1], 58	; 0000003aH

; 181  : 	Len += 3;					// Tag

  0006c	8b 45 10	 mov	 eax, DWORD PTR _Len$[ebp]
  0006f	83 c0 03	 add	 eax, 3
  00072	89 45 10	 mov	 DWORD PTR _Len$[ebp], eax

; 182  : 	bytToSend[2] = Len >> 8;	//' MS byte of count  (Includes strDataType but does not include the two trailing CRC bytes)

  00075	8b 45 10	 mov	 eax, DWORD PTR _Len$[ebp]
  00078	c1 f8 08	 sar	 eax, 8
  0007b	8b 4d f4	 mov	 ecx, DWORD PTR _bytToSend$[ebp]
  0007e	88 41 02	 mov	 BYTE PTR [ecx+2], al

; 183  : 	bytToSend[3] = Len  & 0xFF;// LS Byte

  00081	8b 45 10	 mov	 eax, DWORD PTR _Len$[ebp]
  00084	25 ff 00 00 00	 and	 eax, 255		; 000000ffH
  00089	8b 4d f4	 mov	 ecx, DWORD PTR _bytToSend$[ebp]
  0008c	88 41 03	 mov	 BYTE PTR [ecx+3], al

; 184  : 	memcpy(&bytToSend[4], strTag, 3);

  0008f	6a 03		 push	 3
  00091	8b 45 0c	 mov	 eax, DWORD PTR _strTag$[ebp]
  00094	50		 push	 eax
  00095	8b 4d f4	 mov	 ecx, DWORD PTR _bytToSend$[ebp]
  00098	83 c1 04	 add	 ecx, 4
  0009b	51		 push	 ecx
  0009c	e8 00 00 00 00	 call	 _memcpy
  000a1	83 c4 0c	 add	 esp, 12			; 0000000cH

; 185  : 	memcpy(&bytToSend[7], bytData, Len - 3);

  000a4	8b 45 10	 mov	 eax, DWORD PTR _Len$[ebp]
  000a7	83 e8 03	 sub	 eax, 3
  000aa	50		 push	 eax
  000ab	8b 4d 08	 mov	 ecx, DWORD PTR _bytData$[ebp]
  000ae	51		 push	 ecx
  000af	8b 55 f4	 mov	 edx, DWORD PTR _bytToSend$[ebp]
  000b2	83 c2 07	 add	 edx, 7
  000b5	52		 push	 edx
  000b6	e8 00 00 00 00	 call	 _memcpy
  000bb	83 c4 0c	 add	 esp, 12			; 0000000cH

; 186  : 	Len +=4;				// d: and len

  000be	8b 45 10	 mov	 eax, DWORD PTR _Len$[ebp]
  000c1	83 c0 04	 add	 eax, 4
  000c4	89 45 10	 mov	 DWORD PTR _Len$[ebp], eax

; 187  : 
; 188  : 	ret = send(TCPDataSock, bytToSend, Len, 0);

  000c7	6a 00		 push	 0
  000c9	8b 45 10	 mov	 eax, DWORD PTR _Len$[ebp]
  000cc	50		 push	 eax
  000cd	8b 4d f4	 mov	 ecx, DWORD PTR _bytToSend$[ebp]
  000d0	51		 push	 ecx
  000d1	8b 15 00 00 00
	00		 mov	 edx, DWORD PTR _TCPDataSock
  000d7	52		 push	 edx
  000d8	e8 00 00 00 00	 call	 _send@16
  000dd	89 85 04 fa ff
	ff		 mov	 DWORD PTR _ret$[ebp], eax

; 189  : 	ret = WSAGetLastError();

  000e3	e8 00 00 00 00	 call	 _WSAGetLastError@0
  000e8	89 85 04 fa ff
	ff		 mov	 DWORD PTR _ret$[ebp], eax
$LN3@AddTagToDa:

; 190  : 
; 191  : 	return;
; 192  : }

  000ee	52		 push	 edx
  000ef	8b cd		 mov	 ecx, ebp
  000f1	50		 push	 eax
  000f2	8d 15 00 00 00
	00		 lea	 edx, DWORD PTR $LN7@AddTagToDa
  000f8	e8 00 00 00 00	 call	 @_RTC_CheckStackVars@8
  000fd	58		 pop	 eax
  000fe	5a		 pop	 edx
  000ff	5f		 pop	 edi
  00100	5e		 pop	 esi
  00101	5b		 pop	 ebx
  00102	8b 4d fc	 mov	 ecx, DWORD PTR __$ArrayPad$[ebp]
  00105	33 cd		 xor	 ecx, ebp
  00107	e8 00 00 00 00	 call	 @__security_check_cookie@4
  0010c	81 c4 c0 06 00
	00		 add	 esp, 1728		; 000006c0H
  00112	3b ec		 cmp	 ebp, esp
  00114	e8 00 00 00 00	 call	 __RTC_CheckEsp
  00119	8b e5		 mov	 esp, ebp
  0011b	5d		 pop	 ebp
  0011c	c3		 ret	 0
  0011d	8d 49 00	 npad	 3
$LN7@AddTagToDa:
  00120	01 00 00 00	 DD	 1
  00124	00 00 00 00	 DD	 $LN6@AddTagToDa
$LN6@AddTagToDa:
  00128	10 fa ff ff	 DD	 -1520			; fffffa10H
  0012c	dc 05 00 00	 DD	 1500			; 000005dcH
  00130	00 00 00 00	 DD	 $LN5@AddTagToDa
$LN5@AddTagToDa:
  00134	62		 DB	 98			; 00000062H
  00135	75		 DB	 117			; 00000075H
  00136	66		 DB	 102			; 00000066H
  00137	66		 DB	 102			; 00000066H
  00138	00		 DB	 0
_AddTagToDataAndSendToHost ENDP
_TEXT	ENDS
PUBLIC	??_C@_03KDFFCEML@RDY?$AA@			; `string'
PUBLIC	_ARDOPProcessCommand
EXTRN	_ProcessCommandFromHost:PROC
EXTRN	__memicmp:PROC
;	COMDAT ??_C@_03KDFFCEML@RDY?$AA@
CONST	SEGMENT
??_C@_03KDFFCEML@RDY?$AA@ DB 'RDY', 00H			; `string'
; Function compile flags: /Odtp /RTCsu /ZI
CONST	ENDS
;	COMDAT _ARDOPProcessCommand
_TEXT	SEGMENT
_Buffer$ = 8						; size = 4
_MsgLen$ = 12						; size = 4
_ARDOPProcessCommand PROC				; COMDAT

; 195  : {

  00000	55		 push	 ebp
  00001	8b ec		 mov	 ebp, esp
  00003	81 ec c0 00 00
	00		 sub	 esp, 192		; 000000c0H
  00009	53		 push	 ebx
  0000a	56		 push	 esi
  0000b	57		 push	 edi
  0000c	8d bd 40 ff ff
	ff		 lea	 edi, DWORD PTR [ebp-192]
  00012	b9 30 00 00 00	 mov	 ecx, 48			; 00000030H
  00017	b8 cc cc cc cc	 mov	 eax, -858993460		; ccccccccH
  0001c	f3 ab		 rep stosd

; 196  : 	Buffer[MsgLen - 1] = 0;		// Remove CR

  0001e	8b 45 08	 mov	 eax, DWORD PTR _Buffer$[ebp]
  00021	03 45 0c	 add	 eax, DWORD PTR _MsgLen$[ebp]
  00024	c6 40 ff 00	 mov	 BYTE PTR [eax-1], 0

; 197  : 	
; 198  : 	Buffer+=2;					// Skip c:

  00028	8b 45 08	 mov	 eax, DWORD PTR _Buffer$[ebp]
  0002b	83 c0 02	 add	 eax, 2
  0002e	89 45 08	 mov	 DWORD PTR _Buffer$[ebp], eax

; 199  : 
; 200  : 	if (_memicmp(Buffer, "RDY", 3) == 0)

  00031	6a 03		 push	 3
  00033	68 00 00 00 00	 push	 OFFSET ??_C@_03KDFFCEML@RDY?$AA@
  00038	8b 45 08	 mov	 eax, DWORD PTR _Buffer$[ebp]
  0003b	50		 push	 eax
  0003c	e8 00 00 00 00	 call	 __memicmp
  00041	83 c4 0c	 add	 esp, 12			; 0000000cH
  00044	85 c0		 test	 eax, eax
  00046	75 02		 jne	 SHORT $LN1@ARDOPProce

; 201  : 	{
; 202  : 		//	Command ACK. Remove from buffer and send next if a
; 203  : 
; 204  : 		return;

  00048	eb 0c		 jmp	 SHORT $LN2@ARDOPProce
$LN1@ARDOPProce:

; 205  : 	}
; 206  : 	ProcessCommandFromHost(Buffer);

  0004a	8b 45 08	 mov	 eax, DWORD PTR _Buffer$[ebp]
  0004d	50		 push	 eax
  0004e	e8 00 00 00 00	 call	 _ProcessCommandFromHost
  00053	83 c4 04	 add	 esp, 4
$LN2@ARDOPProce:

; 207  : }

  00056	5f		 pop	 edi
  00057	5e		 pop	 esi
  00058	5b		 pop	 ebx
  00059	81 c4 c0 00 00
	00		 add	 esp, 192		; 000000c0H
  0005f	3b ec		 cmp	 ebp, esp
  00061	e8 00 00 00 00	 call	 __RTC_CheckEsp
  00066	8b e5		 mov	 esp, ebp
  00068	5d		 pop	 ebp
  00069	c3		 ret	 0
_ARDOPProcessCommand ENDP
_TEXT	ENDS
PUBLIC	??_C@_0BM@IKKEFNAK@ARDOP?5BadHost?5Message?5?$DP?$DP?5?$CFs?$AA@ ; `string'
PUBLIC	__$ArrayPad$
PUBLIC	_ProcessReceivedControl
EXTRN	_memmove:PROC
EXTRN	_memchr:PROC
EXTRN	_closesocket@4:PROC
EXTRN	_recv@16:PROC
EXTRN	__chkstk:PROC
;	COMDAT ??_C@_0BM@IKKEFNAK@ARDOP?5BadHost?5Message?5?$DP?$DP?5?$CFs?$AA@
CONST	SEGMENT
??_C@_0BM@IKKEFNAK@ARDOP?5BadHost?5Message?5?$DP?$DP?5?$CFs?$AA@ DB 'ARDO'
	DB	'P BadHost Message ?? %s', 00H		; `string'
; Function compile flags: /Odtp /RTCsu /ZI
CONST	ENDS
;	COMDAT _ProcessReceivedControl
_TEXT	SEGMENT
_Buffer$ = -8248					; size = 8192
_ptr2$ = -48						; size = 4
_ptr$ = -36						; size = 4
_MsgLen$ = -24						; size = 4
_Len$ = -12						; size = 4
__$ArrayPad$ = -4					; size = 4
_ProcessReceivedControl PROC				; COMDAT

; 213  : {

  00000	55		 push	 ebp
  00001	8b ec		 mov	 ebp, esp
  00003	b8 fc 20 00 00	 mov	 eax, 8444		; 000020fcH
  00008	e8 00 00 00 00	 call	 __chkstk
  0000d	53		 push	 ebx
  0000e	56		 push	 esi
  0000f	57		 push	 edi
  00010	8d bd 04 df ff
	ff		 lea	 edi, DWORD PTR [ebp-8444]
  00016	b9 3f 08 00 00	 mov	 ecx, 2111		; 0000083fH
  0001b	b8 cc cc cc cc	 mov	 eax, -858993460		; ccccccccH
  00020	f3 ab		 rep stosd
  00022	a1 00 00 00 00	 mov	 eax, DWORD PTR ___security_cookie
  00027	33 c5		 xor	 eax, ebp
  00029	89 45 fc	 mov	 DWORD PTR __$ArrayPad$[ebp], eax

; 214  : 	int Len, MsgLen;
; 215  : 	char * ptr, * ptr2;
; 216  : 	char Buffer[8192];
; 217  : 
; 218  : 	if (InReceiveProcess)

  0002c	83 3d 00 00 00
	00 00		 cmp	 DWORD PTR _InReceiveProcess, 0
  00033	74 05		 je	 SHORT $LN10@ProcessRec

; 219  : 		return;

  00035	e9 cc 01 00 00	 jmp	 $LN11@ProcessRec
$LN10@ProcessRec:

; 220  : 
; 221  : 	// shouldn't get several messages per packet, as each should need an ack
; 222  : 	// May get message split over packets
; 223  : 
; 224  : 	//	Both command and data arrive here, which complicated things a bit
; 225  : 
; 226  : 	//	Commands start with c: and end with CR.
; 227  : 	//	Data starts with d: and has a length field
; 228  : 	//	“d:ARQ|FEC|ERR|, 2 byte count (Hex 0001 – FFFF), binary data, +2 Byte CRC”
; 229  : 
; 230  : 	//	As far as I can see, shortest frame is “c:RDY<Cr> + 2 byte CRC” = 8 bytes
; 231  : 
; 232  : 	//	I don't think it likely we will get packets this long, but be aware...
; 233  : 
; 234  : 	//	We can get pretty big ones in the faster 
; 235  : 				
; 236  : 	Len = recv(TCPControlSock, &ARDOPBuffer[InputLen], 8192 - InputLen, 0);

  0003a	6a 00		 push	 0
  0003c	b8 00 20 00 00	 mov	 eax, 8192		; 00002000H
  00041	2b 05 00 00 00
	00		 sub	 eax, DWORD PTR _InputLen
  00047	50		 push	 eax
  00048	8b 0d 00 00 00
	00		 mov	 ecx, DWORD PTR _InputLen
  0004e	81 c1 00 00 00
	00		 add	 ecx, OFFSET _ARDOPBuffer
  00054	51		 push	 ecx
  00055	8b 15 00 00 00
	00		 mov	 edx, DWORD PTR _TCPControlSock
  0005b	52		 push	 edx
  0005c	e8 00 00 00 00	 call	 _recv@16
  00061	89 45 f4	 mov	 DWORD PTR _Len$[ebp], eax

; 237  : 
; 238  : 	if (Len == 0 || Len == SOCKET_ERROR)

  00064	83 7d f4 00	 cmp	 DWORD PTR _Len$[ebp], 0
  00068	74 06		 je	 SHORT $LN8@ProcessRec
  0006a	83 7d f4 ff	 cmp	 DWORD PTR _Len$[ebp], -1
  0006e	75 24		 jne	 SHORT $LN9@ProcessRec
$LN8@ProcessRec:

; 239  : 	{
; 240  : 		// Does this mean closed?
; 241  : 		
; 242  : 		closesocket(TCPControlSock);

  00070	a1 00 00 00 00	 mov	 eax, DWORD PTR _TCPControlSock
  00075	50		 push	 eax
  00076	e8 00 00 00 00	 call	 _closesocket@4

; 243  : 		TCPControlSock = 0;

  0007b	c7 05 00 00 00
	00 00 00 00 00	 mov	 DWORD PTR _TCPControlSock, 0

; 244  : 
; 245  : 		CONNECTED = FALSE;

  00085	c7 05 00 00 00
	00 00 00 00 00	 mov	 DWORD PTR _CONNECTED, 0

; 246  : 		return;					

  0008f	e9 72 01 00 00	 jmp	 $LN11@ProcessRec
$LN9@ProcessRec:

; 247  : 	}
; 248  : 
; 249  : 	InputLen += Len;

  00094	a1 00 00 00 00	 mov	 eax, DWORD PTR _InputLen
  00099	03 45 f4	 add	 eax, DWORD PTR _Len$[ebp]
  0009c	a3 00 00 00 00	 mov	 DWORD PTR _InputLen, eax
$loop$80633:

; 250  : 
; 251  : loop:
; 252  : 
; 253  : 	if (InputLen < 6)

  000a1	83 3d 00 00 00
	00 06		 cmp	 DWORD PTR _InputLen, 6
  000a8	7d 05		 jge	 SHORT $LN7@ProcessRec

; 254  : 		return;					// Wait for more to arrive (?? timeout??)

  000aa	e9 57 01 00 00	 jmp	 $LN11@ProcessRec
$LN7@ProcessRec:

; 255  : 
; 256  : 	if (ARDOPBuffer[1] = ':')	// At least message looks reasonable

  000af	c6 05 01 00 00
	00 3a		 mov	 BYTE PTR _ARDOPBuffer+1, 58 ; 0000003aH
  000b6	0f b6 05 01 00
	00 00		 movzx	 eax, BYTE PTR _ARDOPBuffer+1
  000bd	85 c0		 test	 eax, eax
  000bf	0f 84 2d 01 00
	00		 je	 $LN6@ProcessRec

; 257  : 	{
; 258  : 		if (ARDOPBuffer[0] == 'C')

  000c5	0f b6 05 00 00
	00 00		 movzx	 eax, BYTE PTR _ARDOPBuffer
  000cc	83 f8 43	 cmp	 eax, 67			; 00000043H
  000cf	0f 85 1d 01 00
	00		 jne	 $LN6@ProcessRec

; 259  : 		{
; 260  : 			// Command = look for CR
; 261  : 
; 262  : 			ptr = memchr(ARDOPBuffer, '\r', InputLen);

  000d5	a1 00 00 00 00	 mov	 eax, DWORD PTR _InputLen
  000da	50		 push	 eax
  000db	6a 0d		 push	 13			; 0000000dH
  000dd	68 00 00 00 00	 push	 OFFSET _ARDOPBuffer
  000e2	e8 00 00 00 00	 call	 _memchr
  000e7	83 c4 0c	 add	 esp, 12			; 0000000cH
  000ea	89 45 dc	 mov	 DWORD PTR _ptr$[ebp], eax

; 263  : 
; 264  : 			if (ptr == 0)	//  CR in buffer

  000ed	83 7d dc 00	 cmp	 DWORD PTR _ptr$[ebp], 0
  000f1	75 05		 jne	 SHORT $LN4@ProcessRec

; 265  : 				return;		// Wait for it

  000f3	e9 0e 01 00 00	 jmp	 $LN11@ProcessRec
$LN4@ProcessRec:

; 266  : 
; 267  : 			ptr2 = &ARDOPBuffer[InputLen];

  000f8	a1 00 00 00 00	 mov	 eax, DWORD PTR _InputLen
  000fd	05 00 00 00 00	 add	 eax, OFFSET _ARDOPBuffer
  00102	89 45 d0	 mov	 DWORD PTR _ptr2$[ebp], eax

; 268  : 
; 269  : 			if ((ptr2 - ptr) == 1)	// CR + CRC

  00105	8b 45 d0	 mov	 eax, DWORD PTR _ptr2$[ebp]
  00108	2b 45 dc	 sub	 eax, DWORD PTR _ptr$[ebp]
  0010b	83 f8 01	 cmp	 eax, 1
  0010e	75 41		 jne	 SHORT $LN3@ProcessRec

; 270  : 			{
; 271  : 				// Usual Case - single meg in buffer
; 272  : 	
; 273  : 				MsgLen = InputLen;

  00110	a1 00 00 00 00	 mov	 eax, DWORD PTR _InputLen
  00115	89 45 e8	 mov	 DWORD PTR _MsgLen$[ebp], eax

; 274  : 
; 275  : 				// We may be reentered as a result of processing,
; 276  : 				//	so reset InputLen Here
; 277  : 
; 278  : 				InputLen=0;

  00118	c7 05 00 00 00
	00 00 00 00 00	 mov	 DWORD PTR _InputLen, 0

; 279  : 				InReceiveProcess = TRUE;

  00122	c7 05 00 00 00
	00 01 00 00 00	 mov	 DWORD PTR _InReceiveProcess, 1

; 280  : 				ARDOPProcessCommand(ARDOPBuffer, MsgLen);

  0012c	8b 45 e8	 mov	 eax, DWORD PTR _MsgLen$[ebp]
  0012f	50		 push	 eax
  00130	68 00 00 00 00	 push	 OFFSET _ARDOPBuffer
  00135	e8 00 00 00 00	 call	 _ARDOPProcessCommand
  0013a	83 c4 08	 add	 esp, 8

; 281  : 				InReceiveProcess = FALSE;

  0013d	c7 05 00 00 00
	00 00 00 00 00	 mov	 DWORD PTR _InReceiveProcess, 0

; 282  : 				return;

  00147	e9 ba 00 00 00	 jmp	 $LN11@ProcessRec

; 283  : 			}
; 284  : 			else

  0014c	e9 a1 00 00 00	 jmp	 $LN6@ProcessRec
$LN3@ProcessRec:

; 285  : 			{
; 286  : 				// buffer contains more that 1 message
; 287  : 
; 288  : 				//	I dont think this should happen, but...
; 289  : 
; 290  : 				MsgLen = InputLen - (ptr2-ptr) + 1;	// Include CR and CRC

  00151	8b 45 d0	 mov	 eax, DWORD PTR _ptr2$[ebp]
  00154	2b 45 dc	 sub	 eax, DWORD PTR _ptr$[ebp]
  00157	8b 0d 00 00 00
	00		 mov	 ecx, DWORD PTR _InputLen
  0015d	2b c8		 sub	 ecx, eax
  0015f	83 c1 01	 add	 ecx, 1
  00162	89 4d e8	 mov	 DWORD PTR _MsgLen$[ebp], ecx

; 291  : 
; 292  : 				memcpy(Buffer, ARDOPBuffer, MsgLen);

  00165	8b 45 e8	 mov	 eax, DWORD PTR _MsgLen$[ebp]
  00168	50		 push	 eax
  00169	68 00 00 00 00	 push	 OFFSET _ARDOPBuffer
  0016e	8d 8d c8 df ff
	ff		 lea	 ecx, DWORD PTR _Buffer$[ebp]
  00174	51		 push	 ecx
  00175	e8 00 00 00 00	 call	 _memcpy
  0017a	83 c4 0c	 add	 esp, 12			; 0000000cH

; 293  : 
; 294  : 				memmove(ARDOPBuffer, ptr + 1,  InputLen-MsgLen);

  0017d	a1 00 00 00 00	 mov	 eax, DWORD PTR _InputLen
  00182	2b 45 e8	 sub	 eax, DWORD PTR _MsgLen$[ebp]
  00185	50		 push	 eax
  00186	8b 4d dc	 mov	 ecx, DWORD PTR _ptr$[ebp]
  00189	83 c1 01	 add	 ecx, 1
  0018c	51		 push	 ecx
  0018d	68 00 00 00 00	 push	 OFFSET _ARDOPBuffer
  00192	e8 00 00 00 00	 call	 _memmove
  00197	83 c4 0c	 add	 esp, 12			; 0000000cH

; 295  : 				InputLen -= MsgLen;

  0019a	a1 00 00 00 00	 mov	 eax, DWORD PTR _InputLen
  0019f	2b 45 e8	 sub	 eax, DWORD PTR _MsgLen$[ebp]
  001a2	a3 00 00 00 00	 mov	 DWORD PTR _InputLen, eax

; 296  : 
; 297  : 				InReceiveProcess = TRUE;

  001a7	c7 05 00 00 00
	00 01 00 00 00	 mov	 DWORD PTR _InReceiveProcess, 1

; 298  : 				ARDOPProcessCommand(Buffer, MsgLen);

  001b1	8b 45 e8	 mov	 eax, DWORD PTR _MsgLen$[ebp]
  001b4	50		 push	 eax
  001b5	8d 8d c8 df ff
	ff		 lea	 ecx, DWORD PTR _Buffer$[ebp]
  001bb	51		 push	 ecx
  001bc	e8 00 00 00 00	 call	 _ARDOPProcessCommand
  001c1	83 c4 08	 add	 esp, 8

; 299  : 				InReceiveProcess = FALSE;

  001c4	c7 05 00 00 00
	00 00 00 00 00	 mov	 DWORD PTR _InReceiveProcess, 0

; 300  : 
; 301  : 				if (InputLen < 0)

  001ce	83 3d 00 00 00
	00 00		 cmp	 DWORD PTR _InputLen, 0
  001d5	7d 16		 jge	 SHORT $LN1@ProcessRec

; 302  : 				{
; 303  : 					InputLen = 0;

  001d7	c7 05 00 00 00
	00 00 00 00 00	 mov	 DWORD PTR _InputLen, 0

; 304  : 					InReceiveProcess = FALSE;

  001e1	c7 05 00 00 00
	00 00 00 00 00	 mov	 DWORD PTR _InReceiveProcess, 0

; 305  : 					return;

  001eb	eb 19		 jmp	 SHORT $LN11@ProcessRec
$LN1@ProcessRec:

; 306  : 				}
; 307  : 				goto loop;

  001ed	e9 af fe ff ff	 jmp	 $loop$80633
$LN6@ProcessRec:

; 308  : 			}
; 309  : 		}
; 310  : 	}
; 311  : 
; 312  : 	// Getting bad data ?? Should we just reset ??
; 313  : 	
; 314  : 	WriteDebugLog(LOGDEBUG, "ARDOP BadHost Message ?? %s", ARDOPBuffer);

  001f2	68 00 00 00 00	 push	 OFFSET _ARDOPBuffer
  001f7	68 00 00 00 00	 push	 OFFSET ??_C@_0BM@IKKEFNAK@ARDOP?5BadHost?5Message?5?$DP?$DP?5?$CFs?$AA@
  001fc	6a 07		 push	 7
  001fe	e8 00 00 00 00	 call	 _WriteDebugLog
  00203	83 c4 0c	 add	 esp, 12			; 0000000cH
$LN11@ProcessRec:

; 315  : 	return;
; 316  : }

  00206	52		 push	 edx
  00207	8b cd		 mov	 ecx, ebp
  00209	50		 push	 eax
  0020a	8d 15 00 00 00
	00		 lea	 edx, DWORD PTR $LN15@ProcessRec
  00210	e8 00 00 00 00	 call	 @_RTC_CheckStackVars@8
  00215	58		 pop	 eax
  00216	5a		 pop	 edx
  00217	5f		 pop	 edi
  00218	5e		 pop	 esi
  00219	5b		 pop	 ebx
  0021a	8b 4d fc	 mov	 ecx, DWORD PTR __$ArrayPad$[ebp]
  0021d	33 cd		 xor	 ecx, ebp
  0021f	e8 00 00 00 00	 call	 @__security_check_cookie@4
  00224	81 c4 fc 20 00
	00		 add	 esp, 8444		; 000020fcH
  0022a	3b ec		 cmp	 ebp, esp
  0022c	e8 00 00 00 00	 call	 __RTC_CheckEsp
  00231	8b e5		 mov	 esp, ebp
  00233	5d		 pop	 ebp
  00234	c3		 ret	 0
  00235	8d 49 00	 npad	 3
$LN15@ProcessRec:
  00238	01 00 00 00	 DD	 1
  0023c	00 00 00 00	 DD	 $LN14@ProcessRec
$LN14@ProcessRec:
  00240	c8 df ff ff	 DD	 -8248			; ffffdfc8H
  00244	00 20 00 00	 DD	 8192			; 00002000H
  00248	00 00 00 00	 DD	 $LN13@ProcessRec
$LN13@ProcessRec:
  0024c	42		 DB	 66			; 00000042H
  0024d	75		 DB	 117			; 00000075H
  0024e	66		 DB	 102			; 00000066H
  0024f	66		 DB	 102			; 00000066H
  00250	65		 DB	 101			; 00000065H
  00251	72		 DB	 114			; 00000072H
  00252	00		 DB	 0
_ProcessReceivedControl ENDP
_TEXT	ENDS
PUBLIC	??_C@_0CC@OPOAKILH@ARDOP?5BadHost?5Message?5?$DP?$DP?5?$CFc?5?$CFc?5?$CF@ ; `string'
PUBLIC	__$ArrayPad$
PUBLIC	_ProcessReceivedData
EXTRN	_AddDataToDataToSend:PROC
;	COMDAT ??_C@_0CC@OPOAKILH@ARDOP?5BadHost?5Message?5?$DP?$DP?5?$CFc?5?$CFc?5?$CF@
CONST	SEGMENT
??_C@_0CC@OPOAKILH@ARDOP?5BadHost?5Message?5?$DP?$DP?5?$CFc?5?$CFc?5?$CF@ DB 'A'
	DB	'RDOP BadHost Message ?? %c %c %s', 00H	; `string'
; Function compile flags: /Odtp /RTCsu /ZI
CONST	ENDS
;	COMDAT _ProcessReceivedData
_TEXT	SEGMENT
_DataLen$80654 = -8236					; size = 4
_Buffer$ = -8224					; size = 8192
_MsgLen$ = -24						; size = 4
_Len$ = -12						; size = 4
__$ArrayPad$ = -4					; size = 4
_ProcessReceivedData PROC				; COMDAT

; 323  : {

  00000	55		 push	 ebp
  00001	8b ec		 mov	 ebp, esp
  00003	b8 f0 20 00 00	 mov	 eax, 8432		; 000020f0H
  00008	e8 00 00 00 00	 call	 __chkstk
  0000d	53		 push	 ebx
  0000e	56		 push	 esi
  0000f	57		 push	 edi
  00010	8d bd 10 df ff
	ff		 lea	 edi, DWORD PTR [ebp-8432]
  00016	b9 3c 08 00 00	 mov	 ecx, 2108		; 0000083cH
  0001b	b8 cc cc cc cc	 mov	 eax, -858993460		; ccccccccH
  00020	f3 ab		 rep stosd
  00022	a1 00 00 00 00	 mov	 eax, DWORD PTR ___security_cookie
  00027	33 c5		 xor	 eax, ebp
  00029	89 45 fc	 mov	 DWORD PTR __$ArrayPad$[ebp], eax

; 324  : 	int Len, MsgLen;
; 325  : 	char Buffer[8192];
; 326  : 
; 327  : 	if (InReceiveProcess)

  0002c	83 3d 00 00 00
	00 00		 cmp	 DWORD PTR _InReceiveProcess, 0
  00033	74 05		 je	 SHORT $LN11@ProcessRec@2

; 328  : 		return;

  00035	e9 9b 01 00 00	 jmp	 $LN12@ProcessRec@2
$LN11@ProcessRec@2:

; 329  : 
; 330  : 	// shouldn't get several messages per packet, as each should need an ack
; 331  : 	// May get message split over packets
; 332  : 
; 333  : 	//	Both command and data arrive here, which complicated things a bit
; 334  : 
; 335  : 	//	Commands start with c: and end with CR.
; 336  : 	//	Data starts with d: and has a length field
; 337  : 	//	“d:ARQ|FEC|ERR|, 2 byte count (Hex 0001 – FFFF), binary data, +2 Byte CRC”
; 338  : 
; 339  : 	//	As far as I can see, shortest frame is “c:RDY<Cr> + 2 byte CRC” = 8 bytes
; 340  : 
; 341  : 	//	I don't think it likely we will get packets this long, but be aware...
; 342  : 
; 343  : 	//	We can get pretty big ones in the faster 
; 344  : 				
; 345  : 	Len = recv(TCPDataSock, &ARDOPDataBuffer[DataInputLen], 8192 - DataInputLen, 0);

  0003a	6a 00		 push	 0
  0003c	b8 00 20 00 00	 mov	 eax, 8192		; 00002000H
  00041	2b 05 00 00 00
	00		 sub	 eax, DWORD PTR _DataInputLen
  00047	50		 push	 eax
  00048	8b 0d 00 00 00
	00		 mov	 ecx, DWORD PTR _DataInputLen
  0004e	81 c1 00 00 00
	00		 add	 ecx, OFFSET _ARDOPDataBuffer
  00054	51		 push	 ecx
  00055	8b 15 00 00 00
	00		 mov	 edx, DWORD PTR _TCPDataSock
  0005b	52		 push	 edx
  0005c	e8 00 00 00 00	 call	 _recv@16
  00061	89 45 f4	 mov	 DWORD PTR _Len$[ebp], eax

; 346  : 
; 347  : 	if (Len == 0 || Len == SOCKET_ERROR)

  00064	83 7d f4 00	 cmp	 DWORD PTR _Len$[ebp], 0
  00068	74 06		 je	 SHORT $LN9@ProcessRec@2
  0006a	83 7d f4 ff	 cmp	 DWORD PTR _Len$[ebp], -1
  0006e	75 24		 jne	 SHORT $LN10@ProcessRec@2
$LN9@ProcessRec@2:

; 348  : 	{
; 349  : 		// Does this mean closed?
; 350  : 		
; 351  : 		closesocket(TCPDataSock);

  00070	a1 00 00 00 00	 mov	 eax, DWORD PTR _TCPDataSock
  00075	50		 push	 eax
  00076	e8 00 00 00 00	 call	 _closesocket@4

; 352  : 		TCPDataSock = 0;

  0007b	c7 05 00 00 00
	00 00 00 00 00	 mov	 DWORD PTR _TCPDataSock, 0

; 353  : 
; 354  : 		DATACONNECTED = FALSE;

  00085	c7 05 00 00 00
	00 00 00 00 00	 mov	 DWORD PTR _DATACONNECTED, 0

; 355  : 		return;					

  0008f	e9 41 01 00 00	 jmp	 $LN12@ProcessRec@2
$LN10@ProcessRec@2:

; 356  : 	}
; 357  : 
; 358  : 	DataInputLen += Len;

  00094	a1 00 00 00 00	 mov	 eax, DWORD PTR _DataInputLen
  00099	03 45 f4	 add	 eax, DWORD PTR _Len$[ebp]
  0009c	a3 00 00 00 00	 mov	 DWORD PTR _DataInputLen, eax
$loop$80650:

; 359  : 
; 360  : loop:
; 361  : 
; 362  : 	if (DataInputLen < 5)

  000a1	83 3d 00 00 00
	00 05		 cmp	 DWORD PTR _DataInputLen, 5
  000a8	7d 05		 jge	 SHORT $LN8@ProcessRec@2

; 363  : 		return;					// Wait for more to arrive (?? timeout??)

  000aa	e9 26 01 00 00	 jmp	 $LN12@ProcessRec@2
$LN8@ProcessRec@2:

; 364  : 
; 365  : 	if (ARDOPDataBuffer[1] == ':')	// At least message looks reasonable

  000af	0f b6 05 01 00
	00 00		 movzx	 eax, BYTE PTR _ARDOPDataBuffer+1
  000b6	83 f8 3a	 cmp	 eax, 58			; 0000003aH
  000b9	0f 85 e8 00 00
	00		 jne	 $LN7@ProcessRec@2

; 366  : 	{
; 367  : 		if (ARDOPDataBuffer[0] == 'D')

  000bf	0f b6 05 00 00
	00 00		 movzx	 eax, BYTE PTR _ARDOPDataBuffer
  000c6	83 f8 44	 cmp	 eax, 68			; 00000044H
  000c9	0f 85 d6 00 00
	00		 jne	 $LN6@ProcessRec@2

; 368  : 		{
; 369  : 			// Data = check we have it all
; 370  : 
; 371  : 			int DataLen = (ARDOPDataBuffer[2] << 8) + ARDOPDataBuffer[3]; // HI First

  000cf	0f b6 05 02 00
	00 00		 movzx	 eax, BYTE PTR _ARDOPDataBuffer+2
  000d6	c1 e0 08	 shl	 eax, 8
  000d9	0f b6 0d 03 00
	00 00		 movzx	 ecx, BYTE PTR _ARDOPDataBuffer+3
  000e0	03 c1		 add	 eax, ecx
  000e2	89 85 d4 df ff
	ff		 mov	 DWORD PTR _DataLen$80654[ebp], eax

; 372  : 			
; 373  : 			if (DataInputLen < DataLen + 4)

  000e8	8b 85 d4 df ff
	ff		 mov	 eax, DWORD PTR _DataLen$80654[ebp]
  000ee	83 c0 04	 add	 eax, 4
  000f1	39 05 00 00 00
	00		 cmp	 DWORD PTR _DataInputLen, eax
  000f7	7d 05		 jge	 SHORT $LN5@ProcessRec@2

; 374  : 				return;					// Wait for more

  000f9	e9 d7 00 00 00	 jmp	 $LN12@ProcessRec@2
$LN5@ProcessRec@2:

; 375  : 
; 376  : 			MsgLen = DataLen + 4;		// D: Len

  000fe	8b 85 d4 df ff
	ff		 mov	 eax, DWORD PTR _DataLen$80654[ebp]
  00104	83 c0 04	 add	 eax, 4
  00107	89 45 e8	 mov	 DWORD PTR _MsgLen$[ebp], eax

; 377  : 
; 378  : 			memcpy(Buffer, &ARDOPDataBuffer[4], DataLen);

  0010a	8b 85 d4 df ff
	ff		 mov	 eax, DWORD PTR _DataLen$80654[ebp]
  00110	50		 push	 eax
  00111	68 04 00 00 00	 push	 OFFSET _ARDOPDataBuffer+4
  00116	8d 8d e0 df ff
	ff		 lea	 ecx, DWORD PTR _Buffer$[ebp]
  0011c	51		 push	 ecx
  0011d	e8 00 00 00 00	 call	 _memcpy
  00122	83 c4 0c	 add	 esp, 12			; 0000000cH

; 379  : 
; 380  : 			DataInputLen -= MsgLen;

  00125	a1 00 00 00 00	 mov	 eax, DWORD PTR _DataInputLen
  0012a	2b 45 e8	 sub	 eax, DWORD PTR _MsgLen$[ebp]
  0012d	a3 00 00 00 00	 mov	 DWORD PTR _DataInputLen, eax

; 381  : 
; 382  : 			if (DataInputLen > 0)

  00132	83 3d 00 00 00
	00 00		 cmp	 DWORD PTR _DataInputLen, 0
  00139	7e 1d		 jle	 SHORT $LN4@ProcessRec@2

; 383  : 				memmove(ARDOPDataBuffer, &ARDOPDataBuffer[MsgLen],  DataInputLen);

  0013b	a1 00 00 00 00	 mov	 eax, DWORD PTR _DataInputLen
  00140	50		 push	 eax
  00141	8b 4d e8	 mov	 ecx, DWORD PTR _MsgLen$[ebp]
  00144	81 c1 00 00 00
	00		 add	 ecx, OFFSET _ARDOPDataBuffer
  0014a	51		 push	 ecx
  0014b	68 00 00 00 00	 push	 OFFSET _ARDOPDataBuffer
  00150	e8 00 00 00 00	 call	 _memmove
  00155	83 c4 0c	 add	 esp, 12			; 0000000cH
$LN4@ProcessRec@2:

; 384  : 
; 385  : 			InReceiveProcess = TRUE;

  00158	c7 05 00 00 00
	00 01 00 00 00	 mov	 DWORD PTR _InReceiveProcess, 1

; 386  : 			AddDataToDataToSend(Buffer, DataLen);

  00162	8b 85 d4 df ff
	ff		 mov	 eax, DWORD PTR _DataLen$80654[ebp]
  00168	50		 push	 eax
  00169	8d 8d e0 df ff
	ff		 lea	 ecx, DWORD PTR _Buffer$[ebp]
  0016f	51		 push	 ecx
  00170	e8 00 00 00 00	 call	 _AddDataToDataToSend
  00175	83 c4 08	 add	 esp, 8

; 387  : 			InReceiveProcess = FALSE;

  00178	c7 05 00 00 00
	00 00 00 00 00	 mov	 DWORD PTR _InReceiveProcess, 0

; 388  : 	
; 389  : 			// See if anything else in buffer
; 390  : 
; 391  : 			if (DataInputLen > 0)

  00182	83 3d 00 00 00
	00 00		 cmp	 DWORD PTR _DataInputLen, 0
  00189	7e 05		 jle	 SHORT $LN3@ProcessRec@2

; 392  : 				goto loop;

  0018b	e9 11 ff ff ff	 jmp	 $loop$80650
$LN3@ProcessRec@2:

; 393  : 
; 394  : 			if (DataInputLen < 0)

  00190	83 3d 00 00 00
	00 00		 cmp	 DWORD PTR _DataInputLen, 0
  00197	7d 0a		 jge	 SHORT $LN2@ProcessRec@2

; 395  : 				DataInputLen = 0;

  00199	c7 05 00 00 00
	00 00 00 00 00	 mov	 DWORD PTR _DataInputLen, 0
$LN2@ProcessRec@2:

; 396  : 
; 397  : 			return;

  001a3	eb 30		 jmp	 SHORT $LN12@ProcessRec@2
$LN6@ProcessRec@2:

; 398  : 
; 399  : 		}
; 400  : 	}
; 401  : 	else

  001a5	eb 2e		 jmp	 SHORT $LN12@ProcessRec@2
$LN7@ProcessRec@2:

; 402  : 	{
; 403  : 		// Duff frame - clear buffer
; 404  : 
; 405  : 		DataInputLen = 0;

  001a7	c7 05 00 00 00
	00 00 00 00 00	 mov	 DWORD PTR _DataInputLen, 0

; 406  : 
; 407  : 		// Getting bad data ?? Should we just reset ??
; 408  : 	
; 409  : 		WriteDebugLog(LOGDEBUG, "ARDOP BadHost Message ?? %c %c %s",
; 410  : 			ARDOPBuffer[0], ARDOPBuffer[1], &ARDOPBuffer[4]);

  001b1	68 04 00 00 00	 push	 OFFSET _ARDOPBuffer+4
  001b6	0f b6 05 01 00
	00 00		 movzx	 eax, BYTE PTR _ARDOPBuffer+1
  001bd	50		 push	 eax
  001be	0f b6 0d 00 00
	00 00		 movzx	 ecx, BYTE PTR _ARDOPBuffer
  001c5	51		 push	 ecx
  001c6	68 00 00 00 00	 push	 OFFSET ??_C@_0CC@OPOAKILH@ARDOP?5BadHost?5Message?5?$DP?$DP?5?$CFc?5?$CFc?5?$CF@
  001cb	6a 07		 push	 7
  001cd	e8 00 00 00 00	 call	 _WriteDebugLog
  001d2	83 c4 14	 add	 esp, 20			; 00000014H
$LN12@ProcessRec@2:

; 411  : 	}
; 412  : }

  001d5	52		 push	 edx
  001d6	8b cd		 mov	 ecx, ebp
  001d8	50		 push	 eax
  001d9	8d 15 00 00 00
	00		 lea	 edx, DWORD PTR $LN16@ProcessRec@2
  001df	e8 00 00 00 00	 call	 @_RTC_CheckStackVars@8
  001e4	58		 pop	 eax
  001e5	5a		 pop	 edx
  001e6	5f		 pop	 edi
  001e7	5e		 pop	 esi
  001e8	5b		 pop	 ebx
  001e9	8b 4d fc	 mov	 ecx, DWORD PTR __$ArrayPad$[ebp]
  001ec	33 cd		 xor	 ecx, ebp
  001ee	e8 00 00 00 00	 call	 @__security_check_cookie@4
  001f3	81 c4 f0 20 00
	00		 add	 esp, 8432		; 000020f0H
  001f9	3b ec		 cmp	 ebp, esp
  001fb	e8 00 00 00 00	 call	 __RTC_CheckEsp
  00200	8b e5		 mov	 esp, ebp
  00202	5d		 pop	 ebp
  00203	c3		 ret	 0
$LN16@ProcessRec@2:
  00204	01 00 00 00	 DD	 1
  00208	00 00 00 00	 DD	 $LN15@ProcessRec@2
$LN15@ProcessRec@2:
  0020c	e0 df ff ff	 DD	 -8224			; ffffdfe0H
  00210	00 20 00 00	 DD	 8192			; 00002000H
  00214	00 00 00 00	 DD	 $LN14@ProcessRec@2
$LN14@ProcessRec@2:
  00218	42		 DB	 66			; 00000042H
  00219	75		 DB	 117			; 00000075H
  0021a	66		 DB	 102			; 00000066H
  0021b	66		 DB	 102			; 00000066H
  0021c	65		 DB	 101			; 00000065H
  0021d	72		 DB	 114			; 00000072H
  0021e	00		 DB	 0
_ProcessReceivedData ENDP
_TEXT	ENDS
PUBLIC	??_C@_0CF@MOMCIHNO@listen?$CIsock?$CJ?5failed?5port?5?$CFd?5Erro@ ; `string'
PUBLIC	??_C@_0CD@JDLGCIB@bind?$CIsock?$CJ?5failed?5port?5?$CFd?5Error?5@ ; `string'
PUBLIC	??_C@_0BJ@GNIFIGAA@socket?$CI?$CJ?5failed?5error?5?$CFd?$AA@ ; `string'
PUBLIC	__$ArrayPad$
PUBLIC	_OpenSocket4
EXTRN	_ioctlsocket@12:PROC
EXTRN	_listen@8:PROC
EXTRN	_bind@12:PROC
EXTRN	_htons@4:PROC
EXTRN	_setsockopt@20:PROC
EXTRN	_socket@12:PROC
;	COMDAT ??_C@_0CF@MOMCIHNO@listen?$CIsock?$CJ?5failed?5port?5?$CFd?5Erro@
CONST	SEGMENT
??_C@_0CF@MOMCIHNO@listen?$CIsock?$CJ?5failed?5port?5?$CFd?5Erro@ DB 'lis'
	DB	'ten(sock) failed port %d Error %d', 00H	; `string'
CONST	ENDS
;	COMDAT ??_C@_0CD@JDLGCIB@bind?$CIsock?$CJ?5failed?5port?5?$CFd?5Error?5@
CONST	SEGMENT
??_C@_0CD@JDLGCIB@bind?$CIsock?$CJ?5failed?5port?5?$CFd?5Error?5@ DB 'bin'
	DB	'd(sock) failed port %d Error %d', 00H	; `string'
CONST	ENDS
;	COMDAT ??_C@_0BJ@GNIFIGAA@socket?$CI?$CJ?5failed?5error?5?$CFd?$AA@
CONST	SEGMENT
??_C@_0BJ@GNIFIGAA@socket?$CI?$CJ?5failed?5error?5?$CFd?$AA@ DB 'socket()'
	DB	' failed error %d', 00H			; `string'
; Function compile flags: /Odtp /RTCsu /ZI
CONST	ENDS
;	COMDAT _OpenSocket4
_TEXT	SEGMENT
_param$ = -60						; size = 4
_sock$ = -48						; size = 4
_psin$ = -36						; size = 4
_local_sin$ = -24					; size = 16
__$ArrayPad$ = -4					; size = 4
_port$ = 8						; size = 4
_OpenSocket4 PROC					; COMDAT

; 417  : {

  00000	55		 push	 ebp
  00001	8b ec		 mov	 ebp, esp
  00003	81 ec 00 01 00
	00		 sub	 esp, 256		; 00000100H
  00009	53		 push	 ebx
  0000a	56		 push	 esi
  0000b	57		 push	 edi
  0000c	8d bd 00 ff ff
	ff		 lea	 edi, DWORD PTR [ebp-256]
  00012	b9 40 00 00 00	 mov	 ecx, 64			; 00000040H
  00017	b8 cc cc cc cc	 mov	 eax, -858993460		; ccccccccH
  0001c	f3 ab		 rep stosd
  0001e	a1 00 00 00 00	 mov	 eax, DWORD PTR ___security_cookie
  00023	33 c5		 xor	 eax, ebp
  00025	89 45 fc	 mov	 DWORD PTR __$ArrayPad$[ebp], eax

; 418  : 	struct sockaddr_in  local_sin;  /* Local socket - internet style */
; 419  : 	struct sockaddr_in * psin;
; 420  : 	SOCKET sock = 0;

  00028	c7 45 d0 00 00
	00 00		 mov	 DWORD PTR _sock$[ebp], 0

; 421  : 	u_long param=1;

  0002f	c7 45 c4 01 00
	00 00		 mov	 DWORD PTR _param$[ebp], 1

; 422  : 
; 423  : 	psin=&local_sin;

  00036	8d 45 e8	 lea	 eax, DWORD PTR _local_sin$[ebp]
  00039	89 45 dc	 mov	 DWORD PTR _psin$[ebp], eax

; 424  : 	psin->sin_family = AF_INET;

  0003c	8b 45 dc	 mov	 eax, DWORD PTR _psin$[ebp]
  0003f	66 c7 00 02 00	 mov	 WORD PTR [eax], 2

; 425  : 	psin->sin_addr.s_addr = INADDR_ANY;

  00044	8b 45 dc	 mov	 eax, DWORD PTR _psin$[ebp]
  00047	c7 40 04 00 00
	00 00		 mov	 DWORD PTR [eax+4], 0

; 426  : 
; 427  : 	if (port)

  0004e	83 7d 08 00	 cmp	 DWORD PTR _port$[ebp], 0
  00052	0f 84 cf 00 00
	00		 je	 $LN4@OpenSocket

; 428  : 	{
; 429  : 		sock = socket(AF_INET, SOCK_STREAM, 0);

  00058	6a 00		 push	 0
  0005a	6a 01		 push	 1
  0005c	6a 02		 push	 2
  0005e	e8 00 00 00 00	 call	 _socket@12
  00063	89 45 d0	 mov	 DWORD PTR _sock$[ebp], eax

; 430  : 
; 431  : 	    if (sock == INVALID_SOCKET)

  00066	83 7d d0 ff	 cmp	 DWORD PTR _sock$[ebp], -1
  0006a	75 1c		 jne	 SHORT $LN3@OpenSocket

; 432  : 		{
; 433  : 	        WriteDebugLog(LOGDEBUG, "socket() failed error %d", WSAGetLastError());

  0006c	e8 00 00 00 00	 call	 _WSAGetLastError@0
  00071	50		 push	 eax
  00072	68 00 00 00 00	 push	 OFFSET ??_C@_0BJ@GNIFIGAA@socket?$CI?$CJ?5failed?5error?5?$CFd?$AA@
  00077	6a 07		 push	 7
  00079	e8 00 00 00 00	 call	 _WriteDebugLog
  0007e	83 c4 0c	 add	 esp, 12			; 0000000cH

; 434  : 			return 0;

  00081	33 c0		 xor	 eax, eax
  00083	e9 a2 00 00 00	 jmp	 $LN5@OpenSocket
$LN3@OpenSocket:

; 435  : 		}
; 436  : 
; 437  : 		setsockopt (sock, SOL_SOCKET, SO_REUSEADDR, (char *)&param,4);

  00088	6a 04		 push	 4
  0008a	8d 45 c4	 lea	 eax, DWORD PTR _param$[ebp]
  0008d	50		 push	 eax
  0008e	6a 04		 push	 4
  00090	68 ff ff 00 00	 push	 65535			; 0000ffffH
  00095	8b 4d d0	 mov	 ecx, DWORD PTR _sock$[ebp]
  00098	51		 push	 ecx
  00099	e8 00 00 00 00	 call	 _setsockopt@20

; 438  : 
; 439  : 		psin->sin_port = htons(port);        // Convert to network ordering 

  0009e	66 8b 45 08	 mov	 ax, WORD PTR _port$[ebp]
  000a2	50		 push	 eax
  000a3	e8 00 00 00 00	 call	 _htons@4
  000a8	8b 4d dc	 mov	 ecx, DWORD PTR _psin$[ebp]
  000ab	66 89 41 02	 mov	 WORD PTR [ecx+2], ax

; 440  : 
; 441  : 		if (bind( sock, (struct sockaddr *) &local_sin, sizeof(local_sin)) == SOCKET_ERROR)

  000af	6a 10		 push	 16			; 00000010H
  000b1	8d 45 e8	 lea	 eax, DWORD PTR _local_sin$[ebp]
  000b4	50		 push	 eax
  000b5	8b 4d d0	 mov	 ecx, DWORD PTR _sock$[ebp]
  000b8	51		 push	 ecx
  000b9	e8 00 00 00 00	 call	 _bind@12
  000be	83 f8 ff	 cmp	 eax, -1
  000c1	75 26		 jne	 SHORT $LN2@OpenSocket

; 442  : 		{
; 443  : 			WriteDebugLog(LOGDEBUG, "bind(sock) failed port %d Error %d", port, WSAGetLastError());

  000c3	e8 00 00 00 00	 call	 _WSAGetLastError@0
  000c8	50		 push	 eax
  000c9	8b 45 08	 mov	 eax, DWORD PTR _port$[ebp]
  000cc	50		 push	 eax
  000cd	68 00 00 00 00	 push	 OFFSET ??_C@_0CD@JDLGCIB@bind?$CIsock?$CJ?5failed?5port?5?$CFd?5Error?5@
  000d2	6a 07		 push	 7
  000d4	e8 00 00 00 00	 call	 _WriteDebugLog
  000d9	83 c4 10	 add	 esp, 16			; 00000010H

; 444  : 
; 445  : 		    closesocket(sock);

  000dc	8b 45 d0	 mov	 eax, DWORD PTR _sock$[ebp]
  000df	50		 push	 eax
  000e0	e8 00 00 00 00	 call	 _closesocket@4

; 446  : 			return FALSE;

  000e5	33 c0		 xor	 eax, eax
  000e7	eb 41		 jmp	 SHORT $LN5@OpenSocket
$LN2@OpenSocket:

; 447  : 		}
; 448  : 
; 449  : 		if (listen( sock, MAX_PENDING_CONNECTS ) < 0)

  000e9	6a 04		 push	 4
  000eb	8b 45 d0	 mov	 eax, DWORD PTR _sock$[ebp]
  000ee	50		 push	 eax
  000ef	e8 00 00 00 00	 call	 _listen@8
  000f4	85 c0		 test	 eax, eax
  000f6	7d 1d		 jge	 SHORT $LN1@OpenSocket

; 450  : 		{
; 451  : 			WriteDebugLog(LOGDEBUG, "listen(sock) failed port %d Error %d", port, WSAGetLastError());

  000f8	e8 00 00 00 00	 call	 _WSAGetLastError@0
  000fd	50		 push	 eax
  000fe	8b 45 08	 mov	 eax, DWORD PTR _port$[ebp]
  00101	50		 push	 eax
  00102	68 00 00 00 00	 push	 OFFSET ??_C@_0CF@MOMCIHNO@listen?$CIsock?$CJ?5failed?5port?5?$CFd?5Erro@
  00107	6a 07		 push	 7
  00109	e8 00 00 00 00	 call	 _WriteDebugLog
  0010e	83 c4 10	 add	 esp, 16			; 00000010H

; 452  : 			return FALSE;

  00111	33 c0		 xor	 eax, eax
  00113	eb 15		 jmp	 SHORT $LN5@OpenSocket
$LN1@OpenSocket:

; 453  : 		}
; 454  : 		ioctl(sock, FIONBIO, &param);

  00115	8d 45 c4	 lea	 eax, DWORD PTR _param$[ebp]
  00118	50		 push	 eax
  00119	68 7e 66 04 80	 push	 -2147195266		; 8004667eH
  0011e	8b 4d d0	 mov	 ecx, DWORD PTR _sock$[ebp]
  00121	51		 push	 ecx
  00122	e8 00 00 00 00	 call	 _ioctlsocket@12
$LN4@OpenSocket:

; 455  : 	}
; 456  : 	return sock;

  00127	8b 45 d0	 mov	 eax, DWORD PTR _sock$[ebp]
$LN5@OpenSocket:

; 457  : }

  0012a	52		 push	 edx
  0012b	8b cd		 mov	 ecx, ebp
  0012d	50		 push	 eax
  0012e	8d 15 00 00 00
	00		 lea	 edx, DWORD PTR $LN10@OpenSocket
  00134	e8 00 00 00 00	 call	 @_RTC_CheckStackVars@8
  00139	58		 pop	 eax
  0013a	5a		 pop	 edx
  0013b	5f		 pop	 edi
  0013c	5e		 pop	 esi
  0013d	5b		 pop	 ebx
  0013e	8b 4d fc	 mov	 ecx, DWORD PTR __$ArrayPad$[ebp]
  00141	33 cd		 xor	 ecx, ebp
  00143	e8 00 00 00 00	 call	 @__security_check_cookie@4
  00148	81 c4 00 01 00
	00		 add	 esp, 256		; 00000100H
  0014e	3b ec		 cmp	 ebp, esp
  00150	e8 00 00 00 00	 call	 __RTC_CheckEsp
  00155	8b e5		 mov	 esp, ebp
  00157	5d		 pop	 ebp
  00158	c3		 ret	 0
  00159	8d 49 00	 npad	 3
$LN10@OpenSocket:
  0015c	02 00 00 00	 DD	 2
  00160	00 00 00 00	 DD	 $LN9@OpenSocket
$LN9@OpenSocket:
  00164	e8 ff ff ff	 DD	 -24			; ffffffe8H
  00168	10 00 00 00	 DD	 16			; 00000010H
  0016c	00 00 00 00	 DD	 $LN7@OpenSocket
  00170	c4 ff ff ff	 DD	 -60			; ffffffc4H
  00174	04 00 00 00	 DD	 4
  00178	00 00 00 00	 DD	 $LN8@OpenSocket
$LN8@OpenSocket:
  0017c	70		 DB	 112			; 00000070H
  0017d	61		 DB	 97			; 00000061H
  0017e	72		 DB	 114			; 00000072H
  0017f	61		 DB	 97			; 00000061H
  00180	6d		 DB	 109			; 0000006dH
  00181	00		 DB	 0
$LN7@OpenSocket:
  00182	6c		 DB	 108			; 0000006cH
  00183	6f		 DB	 111			; 0000006fH
  00184	63		 DB	 99			; 00000063H
  00185	61		 DB	 97			; 00000061H
  00186	6c		 DB	 108			; 0000006cH
  00187	5f		 DB	 95			; 0000005fH
  00188	73		 DB	 115			; 00000073H
  00189	69		 DB	 105			; 00000069H
  0018a	6e		 DB	 110			; 0000006eH
  0018b	00		 DB	 0
_OpenSocket4 ENDP
_TEXT	ENDS
PUBLIC	??_C@_0BM@LBIEHDCM@ARDOPC?5listening?5on?5port?5?$CFd?$AA@ ; `string'
PUBLIC	__$ArrayPad$
PUBLIC	_HostInit
EXTRN	_port:DWORD
EXTRN	_WSAStartup@8:PROC
;	COMDAT ??_C@_0BM@LBIEHDCM@ARDOPC?5listening?5on?5port?5?$CFd?$AA@
CONST	SEGMENT
??_C@_0BM@LBIEHDCM@ARDOPC?5listening?5on?5port?5?$CFd?$AA@ DB 'ARDOPC lis'
	DB	'tening on port %d', 00H			; `string'
; Function compile flags: /Odtp /RTCsu /ZI
CONST	ENDS
;	COMDAT _HostInit
_TEXT	SEGMENT
_WsaData$ = -408					; size = 400
__$ArrayPad$ = -4					; size = 4
_HostInit PROC						; COMDAT

; 462  : {

  00000	55		 push	 ebp
  00001	8b ec		 mov	 ebp, esp
  00003	81 ec 5c 02 00
	00		 sub	 esp, 604		; 0000025cH
  00009	53		 push	 ebx
  0000a	56		 push	 esi
  0000b	57		 push	 edi
  0000c	8d bd a4 fd ff
	ff		 lea	 edi, DWORD PTR [ebp-604]
  00012	b9 97 00 00 00	 mov	 ecx, 151		; 00000097H
  00017	b8 cc cc cc cc	 mov	 eax, -858993460		; ccccccccH
  0001c	f3 ab		 rep stosd
  0001e	a1 00 00 00 00	 mov	 eax, DWORD PTR ___security_cookie
  00023	33 c5		 xor	 eax, ebp
  00025	89 45 fc	 mov	 DWORD PTR __$ArrayPad$[ebp], eax

; 463  : #ifdef WIN32
; 464  : 	WSADATA WsaData;			 // receives data from WSAStartup
; 465  : 
; 466  : 	WSAStartup(MAKEWORD(2, 0), &WsaData);

  00028	8d 85 68 fe ff
	ff		 lea	 eax, DWORD PTR _WsaData$[ebp]
  0002e	50		 push	 eax
  0002f	6a 02		 push	 2
  00031	e8 00 00 00 00	 call	 _WSAStartup@8

; 467  : #endif
; 468  : 
; 469  : 	WriteDebugLog(LOGALERT, "ARDOPC listening on port %d", port);

  00036	a1 00 00 00 00	 mov	 eax, DWORD PTR _port
  0003b	50		 push	 eax
  0003c	68 00 00 00 00	 push	 OFFSET ??_C@_0BM@LBIEHDCM@ARDOPC?5listening?5on?5port?5?$CFd?$AA@
  00041	6a 01		 push	 1
  00043	e8 00 00 00 00	 call	 _WriteDebugLog
  00048	83 c4 0c	 add	 esp, 12			; 0000000cH

; 470  : //	InitQueue();
; 471  : 
; 472  : 	ListenSock = OpenSocket4(port);

  0004b	a1 00 00 00 00	 mov	 eax, DWORD PTR _port
  00050	50		 push	 eax
  00051	e8 00 00 00 00	 call	 _OpenSocket4
  00056	83 c4 04	 add	 esp, 4
  00059	a3 00 00 00 00	 mov	 DWORD PTR _ListenSock, eax

; 473  : 	DataListenSock = OpenSocket4(port + 1);

  0005e	a1 00 00 00 00	 mov	 eax, DWORD PTR _port
  00063	83 c0 01	 add	 eax, 1
  00066	50		 push	 eax
  00067	e8 00 00 00 00	 call	 _OpenSocket4
  0006c	83 c4 04	 add	 esp, 4
  0006f	a3 00 00 00 00	 mov	 DWORD PTR _DataListenSock, eax

; 474  : 	return ListenSock;

  00074	a1 00 00 00 00	 mov	 eax, DWORD PTR _ListenSock

; 475  : }

  00079	52		 push	 edx
  0007a	8b cd		 mov	 ecx, ebp
  0007c	50		 push	 eax
  0007d	8d 15 00 00 00
	00		 lea	 edx, DWORD PTR $LN5@HostInit
  00083	e8 00 00 00 00	 call	 @_RTC_CheckStackVars@8
  00088	58		 pop	 eax
  00089	5a		 pop	 edx
  0008a	5f		 pop	 edi
  0008b	5e		 pop	 esi
  0008c	5b		 pop	 ebx
  0008d	8b 4d fc	 mov	 ecx, DWORD PTR __$ArrayPad$[ebp]
  00090	33 cd		 xor	 ecx, ebp
  00092	e8 00 00 00 00	 call	 @__security_check_cookie@4
  00097	81 c4 5c 02 00
	00		 add	 esp, 604		; 0000025cH
  0009d	3b ec		 cmp	 ebp, esp
  0009f	e8 00 00 00 00	 call	 __RTC_CheckEsp
  000a4	8b e5		 mov	 esp, ebp
  000a6	5d		 pop	 ebp
  000a7	c3		 ret	 0
$LN5@HostInit:
  000a8	01 00 00 00	 DD	 1
  000ac	00 00 00 00	 DD	 $LN4@HostInit
$LN4@HostInit:
  000b0	68 fe ff ff	 DD	 -408			; fffffe68H
  000b4	90 01 00 00	 DD	 400			; 00000190H
  000b8	00 00 00 00	 DD	 $LN3@HostInit
$LN3@HostInit:
  000bc	57		 DB	 87			; 00000057H
  000bd	73		 DB	 115			; 00000073H
  000be	61		 DB	 97			; 00000061H
  000bf	44		 DB	 68			; 00000044H
  000c0	61		 DB	 97			; 00000061H
  000c1	74		 DB	 116			; 00000074H
  000c2	61		 DB	 97			; 00000061H
  000c3	00		 DB	 0
_HostInit ENDP
_TEXT	ENDS
PUBLIC	??_C@_0BE@BMFBFGGN@TCP?5Connection?5lost?$AA@	; `string'
PUBLIC	??_C@_0BH@DIEGFFCM@Data?5Select?5failed?5?$CFd?5?$AA@ ; `string'
PUBLIC	??_C@_0BM@MDNEAFNG@Host?5Data?5Session?5Connected?$AA@ ; `string'
PUBLIC	??_C@_0BP@CBOBIHKI@Host?5Control?5Session?5Connected?$AA@ ; `string'
PUBLIC	??_C@_0BJ@BDIKMMJL@accept?$CI?$CJ?5failed?5error?5?$CFd?$AA@ ; `string'
PUBLIC	??_C@_0O@JCHNMNAC@listen?5select?$AA@		; `string'
PUBLIC	??_C@_03JDANDILB@?$CFd?5?$AA@			; `string'
PUBLIC	__$ArrayPad$
PUBLIC	_HostPoll
EXTRN	_FreeSemaphore:PROC
EXTRN	_GetSemaphore:PROC
EXTRN	_accept@12:PROC
EXTRN	___WSAFDIsSet@8:PROC
EXTRN	_perror:PROC
EXTRN	_select@20:PROC
;	COMDAT ??_C@_0BE@BMFBFGGN@TCP?5Connection?5lost?$AA@
CONST	SEGMENT
??_C@_0BE@BMFBFGGN@TCP?5Connection?5lost?$AA@ DB 'TCP Connection lost', 00H ; `string'
CONST	ENDS
;	COMDAT ??_C@_0BH@DIEGFFCM@Data?5Select?5failed?5?$CFd?5?$AA@
CONST	SEGMENT
??_C@_0BH@DIEGFFCM@Data?5Select?5failed?5?$CFd?5?$AA@ DB 'Data Select fai'
	DB	'led %d ', 00H				; `string'
CONST	ENDS
;	COMDAT ??_C@_0BM@MDNEAFNG@Host?5Data?5Session?5Connected?$AA@
CONST	SEGMENT
??_C@_0BM@MDNEAFNG@Host?5Data?5Session?5Connected?$AA@ DB 'Host Data Sess'
	DB	'ion Connected', 00H				; `string'
CONST	ENDS
;	COMDAT ??_C@_0BP@CBOBIHKI@Host?5Control?5Session?5Connected?$AA@
CONST	SEGMENT
??_C@_0BP@CBOBIHKI@Host?5Control?5Session?5Connected?$AA@ DB 'Host Contro'
	DB	'l Session Connected', 00H			; `string'
CONST	ENDS
;	COMDAT ??_C@_0BJ@BDIKMMJL@accept?$CI?$CJ?5failed?5error?5?$CFd?$AA@
CONST	SEGMENT
??_C@_0BJ@BDIKMMJL@accept?$CI?$CJ?5failed?5error?5?$CFd?$AA@ DB 'accept()'
	DB	' failed error %d', 00H			; `string'
CONST	ENDS
;	COMDAT ??_C@_0O@JCHNMNAC@listen?5select?$AA@
CONST	SEGMENT
??_C@_0O@JCHNMNAC@listen?5select?$AA@ DB 'listen select', 00H ; `string'
CONST	ENDS
;	COMDAT ??_C@_03JDANDILB@?$CFd?5?$AA@
CONST	SEGMENT
??_C@_03JDANDILB@?$CFd?5?$AA@ DB '%d ', 00H		; `string'
; Function compile flags: /Odtp /RTCsu /ZI
CONST	ENDS
;	COMDAT _HostPoll
_TEXT	SEGMENT
_param$ = -612						; size = 4
_sin$ = -600						; size = 16
_addrlen$ = -576					; size = 4
_ret$ = -564						; size = 4
_timeout$ = -552					; size = 8
_errorfs$ = -536					; size = 260
_readfs$ = -268						; size = 260
__$ArrayPad$ = -4					; size = 4
_HostPoll PROC						; COMDAT

; 478  : {

  00000	55		 push	 ebp
  00001	8b ec		 mov	 ebp, esp
  00003	81 ec 28 03 00
	00		 sub	 esp, 808		; 00000328H
  00009	53		 push	 ebx
  0000a	56		 push	 esi
  0000b	57		 push	 edi
  0000c	8d bd d8 fc ff
	ff		 lea	 edi, DWORD PTR [ebp-808]
  00012	b9 ca 00 00 00	 mov	 ecx, 202		; 000000caH
  00017	b8 cc cc cc cc	 mov	 eax, -858993460		; ccccccccH
  0001c	f3 ab		 rep stosd
  0001e	a1 00 00 00 00	 mov	 eax, DWORD PTR ___security_cookie
  00023	33 c5		 xor	 eax, ebp
  00025	89 45 fc	 mov	 DWORD PTR __$ArrayPad$[ebp], eax

; 479  : 	// Check for incoming connect or data
; 480  : 
; 481  : 	fd_set readfs;
; 482  : 	fd_set errorfs;
; 483  : 	struct timeval timeout;
; 484  : 	int ret;
; 485  : 	int addrlen = sizeof(struct sockaddr_in);

  00028	c7 85 c0 fd ff
	ff 10 00 00 00	 mov	 DWORD PTR _addrlen$[ebp], 16 ; 00000010H

; 486  : 	struct sockaddr_in sin;  
; 487  : 	u_long param=1;

  00032	c7 85 9c fd ff
	ff 01 00 00 00	 mov	 DWORD PTR _param$[ebp], 1

; 488  : 
; 489  : 	FD_ZERO(&readfs);	

  0003c	c7 85 f4 fe ff
	ff 00 00 00 00	 mov	 DWORD PTR _readfs$[ebp], 0

; 490  : 	FD_ZERO(&errorfs);

  00046	c7 85 e8 fd ff
	ff 00 00 00 00	 mov	 DWORD PTR _errorfs$[ebp], 0
$LN44@HostPoll:

; 491  : 
; 492  : 	FD_SET(ListenSock,&readfs);

  00050	83 bd f4 fe ff
	ff 40		 cmp	 DWORD PTR _readfs$[ebp], 64 ; 00000040H
  00057	73 22		 jae	 SHORT $LN43@HostPoll
  00059	8b 85 f4 fe ff
	ff		 mov	 eax, DWORD PTR _readfs$[ebp]
  0005f	8b 0d 00 00 00
	00		 mov	 ecx, DWORD PTR _ListenSock
  00065	89 8c 85 f8 fe
	ff ff		 mov	 DWORD PTR _readfs$[ebp+eax*4+4], ecx
  0006c	8b 95 f4 fe ff
	ff		 mov	 edx, DWORD PTR _readfs$[ebp]
  00072	83 c2 01	 add	 edx, 1
  00075	89 95 f4 fe ff
	ff		 mov	 DWORD PTR _readfs$[ebp], edx
$LN43@HostPoll:
  0007b	33 c0		 xor	 eax, eax
  0007d	75 d1		 jne	 SHORT $LN44@HostPoll

; 493  : 
; 494  : 	timeout.tv_sec = 0;				// No wait

  0007f	c7 85 d8 fd ff
	ff 00 00 00 00	 mov	 DWORD PTR _timeout$[ebp], 0

; 495  : 	timeout.tv_usec = 0;	

  00089	c7 85 dc fd ff
	ff 00 00 00 00	 mov	 DWORD PTR _timeout$[ebp+4], 0

; 496  : 
; 497  : 	ret = select(ListenSock + 1, &readfs, NULL, NULL, &timeout);

  00093	8d 85 d8 fd ff
	ff		 lea	 eax, DWORD PTR _timeout$[ebp]
  00099	50		 push	 eax
  0009a	6a 00		 push	 0
  0009c	6a 00		 push	 0
  0009e	8d 8d f4 fe ff
	ff		 lea	 ecx, DWORD PTR _readfs$[ebp]
  000a4	51		 push	 ecx
  000a5	8b 15 00 00 00
	00		 mov	 edx, DWORD PTR _ListenSock
  000ab	83 c2 01	 add	 edx, 1
  000ae	52		 push	 edx
  000af	e8 00 00 00 00	 call	 _select@20
  000b4	89 85 cc fd ff
	ff		 mov	 DWORD PTR _ret$[ebp], eax

; 498  : 
; 499  : 	if (ret == -1)

  000ba	83 bd cc fd ff
	ff ff		 cmp	 DWORD PTR _ret$[ebp], -1
  000c1	75 33		 jne	 SHORT $LN40@HostPoll

; 500  : 	{
; 501  : 		ret = WSAGetLastError();

  000c3	e8 00 00 00 00	 call	 _WSAGetLastError@0
  000c8	89 85 cc fd ff
	ff		 mov	 DWORD PTR _ret$[ebp], eax

; 502  : 		WriteDebugLog(LOGDEBUG, "%d ", ret);

  000ce	8b 85 cc fd ff
	ff		 mov	 eax, DWORD PTR _ret$[ebp]
  000d4	50		 push	 eax
  000d5	68 00 00 00 00	 push	 OFFSET ??_C@_03JDANDILB@?$CFd?5?$AA@
  000da	6a 07		 push	 7
  000dc	e8 00 00 00 00	 call	 _WriteDebugLog
  000e1	83 c4 0c	 add	 esp, 12			; 0000000cH

; 503  : 		perror("listen select");

  000e4	68 00 00 00 00	 push	 OFFSET ??_C@_0O@JCHNMNAC@listen?5select?$AA@
  000e9	e8 00 00 00 00	 call	 _perror
  000ee	83 c4 04	 add	 esp, 4

; 504  : 	}
; 505  : 	else

  000f1	e9 97 00 00 00	 jmp	 $LN35@HostPoll
$LN40@HostPoll:

; 506  : 	{
; 507  : 		if (ret)

  000f6	83 bd cc fd ff
	ff 00		 cmp	 DWORD PTR _ret$[ebp], 0
  000fd	0f 84 8a 00 00
	00		 je	 $LN35@HostPoll

; 508  : 		{
; 509  : 			if (FD_ISSET(ListenSock, &readfs))

  00103	8d 85 f4 fe ff
	ff		 lea	 eax, DWORD PTR _readfs$[ebp]
  00109	50		 push	 eax
  0010a	8b 0d 00 00 00
	00		 mov	 ecx, DWORD PTR _ListenSock
  00110	51		 push	 ecx
  00111	e8 00 00 00 00	 call	 ___WSAFDIsSet@8
  00116	85 c0		 test	 eax, eax
  00118	74 73		 je	 SHORT $LN35@HostPoll

; 510  : 			{
; 511  : 				TCPControlSock = accept(ListenSock, (struct sockaddr * )&sin, &addrlen);

  0011a	8d 85 c0 fd ff
	ff		 lea	 eax, DWORD PTR _addrlen$[ebp]
  00120	50		 push	 eax
  00121	8d 8d a8 fd ff
	ff		 lea	 ecx, DWORD PTR _sin$[ebp]
  00127	51		 push	 ecx
  00128	8b 15 00 00 00
	00		 mov	 edx, DWORD PTR _ListenSock
  0012e	52		 push	 edx
  0012f	e8 00 00 00 00	 call	 _accept@12
  00134	a3 00 00 00 00	 mov	 DWORD PTR _TCPControlSock, eax

; 512  : 	    
; 513  : 				if (TCPControlSock == INVALID_SOCKET)

  00139	83 3d 00 00 00
	00 ff		 cmp	 DWORD PTR _TCPControlSock, -1
  00140	75 1a		 jne	 SHORT $LN36@HostPoll

; 514  : 				{
; 515  : 					WriteDebugLog(LOGDEBUG, "accept() failed error %d", WSAGetLastError());

  00142	e8 00 00 00 00	 call	 _WSAGetLastError@0
  00147	50		 push	 eax
  00148	68 00 00 00 00	 push	 OFFSET ??_C@_0BJ@BDIKMMJL@accept?$CI?$CJ?5failed?5error?5?$CFd?$AA@
  0014d	6a 07		 push	 7
  0014f	e8 00 00 00 00	 call	 _WriteDebugLog
  00154	83 c4 0c	 add	 esp, 12			; 0000000cH

; 516  : 					return;

  00157	e9 17 04 00 00	 jmp	 $LN45@HostPoll
$LN36@HostPoll:

; 517  : 				}
; 518  : 				WriteDebugLog(LOGDEBUG, "Host Control Session Connected");

  0015c	68 00 00 00 00	 push	 OFFSET ??_C@_0BP@CBOBIHKI@Host?5Control?5Session?5Connected?$AA@
  00161	6a 07		 push	 7
  00163	e8 00 00 00 00	 call	 _WriteDebugLog
  00168	83 c4 08	 add	 esp, 8

; 519  : 					
; 520  : 				ioctl(TCPControlSock, FIONBIO, &param);

  0016b	8d 85 9c fd ff
	ff		 lea	 eax, DWORD PTR _param$[ebp]
  00171	50		 push	 eax
  00172	68 7e 66 04 80	 push	 -2147195266		; 8004667eH
  00177	8b 0d 00 00 00
	00		 mov	 ecx, DWORD PTR _TCPControlSock
  0017d	51		 push	 ecx
  0017e	e8 00 00 00 00	 call	 _ioctlsocket@12

; 521  : 				CONNECTED = TRUE;

  00183	c7 05 00 00 00
	00 01 00 00 00	 mov	 DWORD PTR _CONNECTED, 1
$LN35@HostPoll:

; 522  : //				SendCommandToHost("RDY");
; 523  : 			}
; 524  : 		}
; 525  : 	}
; 526  : 
; 527  : 	FD_SET(DataListenSock,&readfs);

  0018d	83 bd f4 fe ff
	ff 40		 cmp	 DWORD PTR _readfs$[ebp], 64 ; 00000040H
  00194	73 22		 jae	 SHORT $LN34@HostPoll
  00196	8b 85 f4 fe ff
	ff		 mov	 eax, DWORD PTR _readfs$[ebp]
  0019c	8b 0d 00 00 00
	00		 mov	 ecx, DWORD PTR _DataListenSock
  001a2	89 8c 85 f8 fe
	ff ff		 mov	 DWORD PTR _readfs$[ebp+eax*4+4], ecx
  001a9	8b 95 f4 fe ff
	ff		 mov	 edx, DWORD PTR _readfs$[ebp]
  001af	83 c2 01	 add	 edx, 1
  001b2	89 95 f4 fe ff
	ff		 mov	 DWORD PTR _readfs$[ebp], edx
$LN34@HostPoll:
  001b8	33 c0		 xor	 eax, eax
  001ba	75 d1		 jne	 SHORT $LN35@HostPoll

; 528  : 
; 529  : 	timeout.tv_sec = 0;				// No wait

  001bc	c7 85 d8 fd ff
	ff 00 00 00 00	 mov	 DWORD PTR _timeout$[ebp], 0

; 530  : 	timeout.tv_usec = 0;	

  001c6	c7 85 dc fd ff
	ff 00 00 00 00	 mov	 DWORD PTR _timeout$[ebp+4], 0

; 531  : 
; 532  : 	ret = select(DataListenSock + 1, &readfs, NULL, NULL, &timeout);

  001d0	8d 85 d8 fd ff
	ff		 lea	 eax, DWORD PTR _timeout$[ebp]
  001d6	50		 push	 eax
  001d7	6a 00		 push	 0
  001d9	6a 00		 push	 0
  001db	8d 8d f4 fe ff
	ff		 lea	 ecx, DWORD PTR _readfs$[ebp]
  001e1	51		 push	 ecx
  001e2	8b 15 00 00 00
	00		 mov	 edx, DWORD PTR _DataListenSock
  001e8	83 c2 01	 add	 edx, 1
  001eb	52		 push	 edx
  001ec	e8 00 00 00 00	 call	 _select@20
  001f1	89 85 cc fd ff
	ff		 mov	 DWORD PTR _ret$[ebp], eax

; 533  : 
; 534  : 	if (ret == -1)

  001f7	83 bd cc fd ff
	ff ff		 cmp	 DWORD PTR _ret$[ebp], -1
  001fe	75 33		 jne	 SHORT $LN31@HostPoll

; 535  : 	{
; 536  : 		ret = WSAGetLastError();

  00200	e8 00 00 00 00	 call	 _WSAGetLastError@0
  00205	89 85 cc fd ff
	ff		 mov	 DWORD PTR _ret$[ebp], eax

; 537  : 		WriteDebugLog(LOGDEBUG, "%d ", ret);

  0020b	8b 85 cc fd ff
	ff		 mov	 eax, DWORD PTR _ret$[ebp]
  00211	50		 push	 eax
  00212	68 00 00 00 00	 push	 OFFSET ??_C@_03JDANDILB@?$CFd?5?$AA@
  00217	6a 07		 push	 7
  00219	e8 00 00 00 00	 call	 _WriteDebugLog
  0021e	83 c4 0c	 add	 esp, 12			; 0000000cH

; 538  : 		perror("listen select");

  00221	68 00 00 00 00	 push	 OFFSET ??_C@_0O@JCHNMNAC@listen?5select?$AA@
  00226	e8 00 00 00 00	 call	 _perror
  0022b	83 c4 04	 add	 esp, 4

; 539  : 	}
; 540  : 	else

  0022e	e9 97 00 00 00	 jmp	 $LN30@HostPoll
$LN31@HostPoll:

; 541  : 	{
; 542  : 		if (ret)

  00233	83 bd cc fd ff
	ff 00		 cmp	 DWORD PTR _ret$[ebp], 0
  0023a	0f 84 8a 00 00
	00		 je	 $LN30@HostPoll

; 543  : 		{
; 544  : 			if (FD_ISSET(DataListenSock, &readfs))

  00240	8d 85 f4 fe ff
	ff		 lea	 eax, DWORD PTR _readfs$[ebp]
  00246	50		 push	 eax
  00247	8b 0d 00 00 00
	00		 mov	 ecx, DWORD PTR _DataListenSock
  0024d	51		 push	 ecx
  0024e	e8 00 00 00 00	 call	 ___WSAFDIsSet@8
  00253	85 c0		 test	 eax, eax
  00255	74 73		 je	 SHORT $LN30@HostPoll

; 545  : 			{
; 546  : 				TCPDataSock = accept(DataListenSock, (struct sockaddr * )&sin, &addrlen);

  00257	8d 85 c0 fd ff
	ff		 lea	 eax, DWORD PTR _addrlen$[ebp]
  0025d	50		 push	 eax
  0025e	8d 8d a8 fd ff
	ff		 lea	 ecx, DWORD PTR _sin$[ebp]
  00264	51		 push	 ecx
  00265	8b 15 00 00 00
	00		 mov	 edx, DWORD PTR _DataListenSock
  0026b	52		 push	 edx
  0026c	e8 00 00 00 00	 call	 _accept@12
  00271	a3 00 00 00 00	 mov	 DWORD PTR _TCPDataSock, eax

; 547  : 	    
; 548  : 				if (TCPDataSock == INVALID_SOCKET)

  00276	83 3d 00 00 00
	00 ff		 cmp	 DWORD PTR _TCPDataSock, -1
  0027d	75 1a		 jne	 SHORT $LN27@HostPoll

; 549  : 				{
; 550  : 					WriteDebugLog(LOGDEBUG, "accept() failed error %d", WSAGetLastError());

  0027f	e8 00 00 00 00	 call	 _WSAGetLastError@0
  00284	50		 push	 eax
  00285	68 00 00 00 00	 push	 OFFSET ??_C@_0BJ@BDIKMMJL@accept?$CI?$CJ?5failed?5error?5?$CFd?$AA@
  0028a	6a 07		 push	 7
  0028c	e8 00 00 00 00	 call	 _WriteDebugLog
  00291	83 c4 0c	 add	 esp, 12			; 0000000cH

; 551  : 					return;

  00294	e9 da 02 00 00	 jmp	 $LN45@HostPoll
$LN27@HostPoll:

; 552  : 				}
; 553  : 				WriteDebugLog(LOGINFO, "Host Data Session Connected");

  00299	68 00 00 00 00	 push	 OFFSET ??_C@_0BM@MDNEAFNG@Host?5Data?5Session?5Connected?$AA@
  0029e	6a 06		 push	 6
  002a0	e8 00 00 00 00	 call	 _WriteDebugLog
  002a5	83 c4 08	 add	 esp, 8

; 554  : 					
; 555  : 				ioctl(TCPDataSock, FIONBIO, &param);

  002a8	8d 85 9c fd ff
	ff		 lea	 eax, DWORD PTR _param$[ebp]
  002ae	50		 push	 eax
  002af	68 7e 66 04 80	 push	 -2147195266		; 8004667eH
  002b4	8b 0d 00 00 00
	00		 mov	 ecx, DWORD PTR _TCPDataSock
  002ba	51		 push	 ecx
  002bb	e8 00 00 00 00	 call	 _ioctlsocket@12

; 556  : 				DATACONNECTED = TRUE;

  002c0	c7 05 00 00 00
	00 01 00 00 00	 mov	 DWORD PTR _DATACONNECTED, 1
$LN30@HostPoll:

; 557  : 			}
; 558  : 		}
; 559  : 	}
; 560  : 
; 561  : 	if (CONNECTED)

  002ca	83 3d 00 00 00
	00 00		 cmp	 DWORD PTR _CONNECTED, 0
  002d1	0f 84 4a 01 00
	00		 je	 $LN26@HostPoll

; 562  : 	{
; 563  : 
; 564  : 	FD_ZERO(&readfs);	

  002d7	c7 85 f4 fe ff
	ff 00 00 00 00	 mov	 DWORD PTR _readfs$[ebp], 0

; 565  : 	FD_ZERO(&errorfs);

  002e1	c7 85 e8 fd ff
	ff 00 00 00 00	 mov	 DWORD PTR _errorfs$[ebp], 0
$LN25@HostPoll:

; 566  : 
; 567  : 	FD_SET(TCPControlSock,&readfs);

  002eb	83 bd f4 fe ff
	ff 40		 cmp	 DWORD PTR _readfs$[ebp], 64 ; 00000040H
  002f2	73 22		 jae	 SHORT $LN24@HostPoll
  002f4	8b 85 f4 fe ff
	ff		 mov	 eax, DWORD PTR _readfs$[ebp]
  002fa	8b 0d 00 00 00
	00		 mov	 ecx, DWORD PTR _TCPControlSock
  00300	89 8c 85 f8 fe
	ff ff		 mov	 DWORD PTR _readfs$[ebp+eax*4+4], ecx
  00307	8b 95 f4 fe ff
	ff		 mov	 edx, DWORD PTR _readfs$[ebp]
  0030d	83 c2 01	 add	 edx, 1
  00310	89 95 f4 fe ff
	ff		 mov	 DWORD PTR _readfs$[ebp], edx
$LN24@HostPoll:
  00316	33 c0		 xor	 eax, eax
  00318	75 d1		 jne	 SHORT $LN25@HostPoll
$LN21@HostPoll:

; 568  : 	FD_SET(TCPControlSock,&errorfs);

  0031a	83 bd e8 fd ff
	ff 40		 cmp	 DWORD PTR _errorfs$[ebp], 64 ; 00000040H
  00321	73 22		 jae	 SHORT $LN20@HostPoll
  00323	8b 85 e8 fd ff
	ff		 mov	 eax, DWORD PTR _errorfs$[ebp]
  00329	8b 0d 00 00 00
	00		 mov	 ecx, DWORD PTR _TCPControlSock
  0032f	89 8c 85 ec fd
	ff ff		 mov	 DWORD PTR _errorfs$[ebp+eax*4+4], ecx
  00336	8b 95 e8 fd ff
	ff		 mov	 edx, DWORD PTR _errorfs$[ebp]
  0033c	83 c2 01	 add	 edx, 1
  0033f	89 95 e8 fd ff
	ff		 mov	 DWORD PTR _errorfs$[ebp], edx
$LN20@HostPoll:
  00345	33 c0		 xor	 eax, eax
  00347	75 d1		 jne	 SHORT $LN21@HostPoll

; 569  : 
; 570  : 	timeout.tv_sec = 0;				// No wait

  00349	c7 85 d8 fd ff
	ff 00 00 00 00	 mov	 DWORD PTR _timeout$[ebp], 0

; 571  : 	timeout.tv_usec = 0;	

  00353	c7 85 dc fd ff
	ff 00 00 00 00	 mov	 DWORD PTR _timeout$[ebp+4], 0

; 572  : 		
; 573  : 	ret = select(TCPControlSock + 1, &readfs, NULL, &errorfs, &timeout);

  0035d	8d 85 d8 fd ff
	ff		 lea	 eax, DWORD PTR _timeout$[ebp]
  00363	50		 push	 eax
  00364	8d 8d e8 fd ff
	ff		 lea	 ecx, DWORD PTR _errorfs$[ebp]
  0036a	51		 push	 ecx
  0036b	6a 00		 push	 0
  0036d	8d 95 f4 fe ff
	ff		 lea	 edx, DWORD PTR _readfs$[ebp]
  00373	52		 push	 edx
  00374	a1 00 00 00 00	 mov	 eax, DWORD PTR _TCPControlSock
  00379	83 c0 01	 add	 eax, 1
  0037c	50		 push	 eax
  0037d	e8 00 00 00 00	 call	 _select@20
  00382	89 85 cc fd ff
	ff		 mov	 DWORD PTR _ret$[ebp], eax

; 574  : 
; 575  : 	if (ret == SOCKET_ERROR)

  00388	83 bd cc fd ff
	ff ff		 cmp	 DWORD PTR _ret$[ebp], -1
  0038f	75 17		 jne	 SHORT $LN17@HostPoll

; 576  : 	{
; 577  : 		WriteDebugLog(LOGDEBUG, "Data Select failed %d ", WSAGetLastError());

  00391	e8 00 00 00 00	 call	 _WSAGetLastError@0
  00396	50		 push	 eax
  00397	68 00 00 00 00	 push	 OFFSET ??_C@_0BH@DIEGFFCM@Data?5Select?5failed?5?$CFd?5?$AA@
  0039c	6a 07		 push	 7
  0039e	e8 00 00 00 00	 call	 _WriteDebugLog
  003a3	83 c4 0c	 add	 esp, 12			; 0000000cH

; 578  : 		goto Lost;

  003a6	eb 46		 jmp	 SHORT $Lost$80770
$LN17@HostPoll:

; 579  : 	}
; 580  : 	if (ret > 0)

  003a8	83 bd cc fd ff
	ff 00		 cmp	 DWORD PTR _ret$[ebp], 0
  003af	7e 70		 jle	 SHORT $LN26@HostPoll

; 581  : 	{
; 582  : 		//	See what happened
; 583  : 
; 584  : 		if (FD_ISSET(TCPControlSock, &readfs))

  003b1	8d 85 f4 fe ff
	ff		 lea	 eax, DWORD PTR _readfs$[ebp]
  003b7	50		 push	 eax
  003b8	8b 0d 00 00 00
	00		 mov	 ecx, DWORD PTR _TCPControlSock
  003be	51		 push	 ecx
  003bf	e8 00 00 00 00	 call	 ___WSAFDIsSet@8
  003c4	85 c0		 test	 eax, eax
  003c6	74 0f		 je	 SHORT $LN15@HostPoll

; 585  : 		{
; 586  : 			GetSemaphore();

  003c8	e8 00 00 00 00	 call	 _GetSemaphore

; 587  : 			ProcessReceivedControl();

  003cd	e8 00 00 00 00	 call	 _ProcessReceivedControl

; 588  : 			FreeSemaphore();

  003d2	e8 00 00 00 00	 call	 _FreeSemaphore
$LN15@HostPoll:

; 589  : 		}
; 590  : 								
; 591  : 		if (FD_ISSET(TCPControlSock, &errorfs))

  003d7	8d 85 e8 fd ff
	ff		 lea	 eax, DWORD PTR _errorfs$[ebp]
  003dd	50		 push	 eax
  003de	8b 0d 00 00 00
	00		 mov	 ecx, DWORD PTR _TCPControlSock
  003e4	51		 push	 ecx
  003e5	e8 00 00 00 00	 call	 ___WSAFDIsSet@8
  003ea	85 c0		 test	 eax, eax
  003ec	74 33		 je	 SHORT $LN26@HostPoll
$Lost$80770:

; 592  : 		{
; 593  : Lost:	
; 594  : 			WriteDebugLog(LOGDEBUG, "TCP Connection lost");

  003ee	68 00 00 00 00	 push	 OFFSET ??_C@_0BE@BMFBFGGN@TCP?5Connection?5lost?$AA@
  003f3	6a 07		 push	 7
  003f5	e8 00 00 00 00	 call	 _WriteDebugLog
  003fa	83 c4 08	 add	 esp, 8

; 595  : 			
; 596  : 			CONNECTED = FALSE;

  003fd	c7 05 00 00 00
	00 00 00 00 00	 mov	 DWORD PTR _CONNECTED, 0

; 597  : 
; 598  : 			closesocket(TCPControlSock);

  00407	a1 00 00 00 00	 mov	 eax, DWORD PTR _TCPControlSock
  0040c	50		 push	 eax
  0040d	e8 00 00 00 00	 call	 _closesocket@4

; 599  : 			TCPControlSock= 0;

  00412	c7 05 00 00 00
	00 00 00 00 00	 mov	 DWORD PTR _TCPControlSock, 0

; 600  : 			return;

  0041c	e9 52 01 00 00	 jmp	 $LN45@HostPoll
$LN26@HostPoll:

; 601  : 		}
; 602  : 	}
; 603  : 	}
; 604  : 	if (DATACONNECTED)

  00421	83 3d 00 00 00
	00 00		 cmp	 DWORD PTR _DATACONNECTED, 0
  00428	0f 84 45 01 00
	00		 je	 $LN45@HostPoll

; 605  : 	{
; 606  : 
; 607  : 	FD_ZERO(&readfs);	

  0042e	c7 85 f4 fe ff
	ff 00 00 00 00	 mov	 DWORD PTR _readfs$[ebp], 0

; 608  : 	FD_ZERO(&errorfs);

  00438	c7 85 e8 fd ff
	ff 00 00 00 00	 mov	 DWORD PTR _errorfs$[ebp], 0
$LN12@HostPoll:

; 609  : 
; 610  : 	FD_SET(TCPDataSock,&readfs);

  00442	83 bd f4 fe ff
	ff 40		 cmp	 DWORD PTR _readfs$[ebp], 64 ; 00000040H
  00449	73 22		 jae	 SHORT $LN11@HostPoll
  0044b	8b 85 f4 fe ff
	ff		 mov	 eax, DWORD PTR _readfs$[ebp]
  00451	8b 0d 00 00 00
	00		 mov	 ecx, DWORD PTR _TCPDataSock
  00457	89 8c 85 f8 fe
	ff ff		 mov	 DWORD PTR _readfs$[ebp+eax*4+4], ecx
  0045e	8b 95 f4 fe ff
	ff		 mov	 edx, DWORD PTR _readfs$[ebp]
  00464	83 c2 01	 add	 edx, 1
  00467	89 95 f4 fe ff
	ff		 mov	 DWORD PTR _readfs$[ebp], edx
$LN11@HostPoll:
  0046d	33 c0		 xor	 eax, eax
  0046f	75 d1		 jne	 SHORT $LN12@HostPoll
$LN8@HostPoll:

; 611  : 	FD_SET(TCPDataSock,&errorfs);

  00471	83 bd e8 fd ff
	ff 40		 cmp	 DWORD PTR _errorfs$[ebp], 64 ; 00000040H
  00478	73 22		 jae	 SHORT $LN7@HostPoll
  0047a	8b 85 e8 fd ff
	ff		 mov	 eax, DWORD PTR _errorfs$[ebp]
  00480	8b 0d 00 00 00
	00		 mov	 ecx, DWORD PTR _TCPDataSock
  00486	89 8c 85 ec fd
	ff ff		 mov	 DWORD PTR _errorfs$[ebp+eax*4+4], ecx
  0048d	8b 95 e8 fd ff
	ff		 mov	 edx, DWORD PTR _errorfs$[ebp]
  00493	83 c2 01	 add	 edx, 1
  00496	89 95 e8 fd ff
	ff		 mov	 DWORD PTR _errorfs$[ebp], edx
$LN7@HostPoll:
  0049c	33 c0		 xor	 eax, eax
  0049e	75 d1		 jne	 SHORT $LN8@HostPoll

; 612  : 
; 613  : 	timeout.tv_sec = 0;				// No wait

  004a0	c7 85 d8 fd ff
	ff 00 00 00 00	 mov	 DWORD PTR _timeout$[ebp], 0

; 614  : 	timeout.tv_usec = 0;	

  004aa	c7 85 dc fd ff
	ff 00 00 00 00	 mov	 DWORD PTR _timeout$[ebp+4], 0

; 615  : 		
; 616  : 	ret = select(TCPDataSock + 1, &readfs, NULL, &errorfs, &timeout);

  004b4	8d 85 d8 fd ff
	ff		 lea	 eax, DWORD PTR _timeout$[ebp]
  004ba	50		 push	 eax
  004bb	8d 8d e8 fd ff
	ff		 lea	 ecx, DWORD PTR _errorfs$[ebp]
  004c1	51		 push	 ecx
  004c2	6a 00		 push	 0
  004c4	8d 95 f4 fe ff
	ff		 lea	 edx, DWORD PTR _readfs$[ebp]
  004ca	52		 push	 edx
  004cb	a1 00 00 00 00	 mov	 eax, DWORD PTR _TCPDataSock
  004d0	83 c0 01	 add	 eax, 1
  004d3	50		 push	 eax
  004d4	e8 00 00 00 00	 call	 _select@20
  004d9	89 85 cc fd ff
	ff		 mov	 DWORD PTR _ret$[ebp], eax

; 617  : 
; 618  : 	if (ret == SOCKET_ERROR)

  004df	83 bd cc fd ff
	ff ff		 cmp	 DWORD PTR _ret$[ebp], -1
  004e6	75 17		 jne	 SHORT $LN4@HostPoll

; 619  : 	{
; 620  : 		WriteDebugLog(LOGDEBUG, "Data Select failed %d ", WSAGetLastError());

  004e8	e8 00 00 00 00	 call	 _WSAGetLastError@0
  004ed	50		 push	 eax
  004ee	68 00 00 00 00	 push	 OFFSET ??_C@_0BH@DIEGFFCM@Data?5Select?5failed?5?$CFd?5?$AA@
  004f3	6a 07		 push	 7
  004f5	e8 00 00 00 00	 call	 _WriteDebugLog
  004fa	83 c4 0c	 add	 esp, 12			; 0000000cH

; 621  : 		goto DCLost;

  004fd	eb 46		 jmp	 SHORT $DCLost$80798
$LN4@HostPoll:

; 622  : 	}
; 623  : 	if (ret > 0)

  004ff	83 bd cc fd ff
	ff 00		 cmp	 DWORD PTR _ret$[ebp], 0
  00506	7e 6b		 jle	 SHORT $LN45@HostPoll

; 624  : 	{
; 625  : 		//	See what happened
; 626  : 
; 627  : 		if (FD_ISSET(TCPDataSock, &readfs))

  00508	8d 85 f4 fe ff
	ff		 lea	 eax, DWORD PTR _readfs$[ebp]
  0050e	50		 push	 eax
  0050f	8b 0d 00 00 00
	00		 mov	 ecx, DWORD PTR _TCPDataSock
  00515	51		 push	 ecx
  00516	e8 00 00 00 00	 call	 ___WSAFDIsSet@8
  0051b	85 c0		 test	 eax, eax
  0051d	74 0f		 je	 SHORT $LN2@HostPoll

; 628  : 		{
; 629  : 			GetSemaphore();

  0051f	e8 00 00 00 00	 call	 _GetSemaphore

; 630  : 			ProcessReceivedData();

  00524	e8 00 00 00 00	 call	 _ProcessReceivedData

; 631  : 			FreeSemaphore();

  00529	e8 00 00 00 00	 call	 _FreeSemaphore
$LN2@HostPoll:

; 632  : 		}
; 633  : 								
; 634  : 		if (FD_ISSET(TCPDataSock, &errorfs))

  0052e	8d 85 e8 fd ff
	ff		 lea	 eax, DWORD PTR _errorfs$[ebp]
  00534	50		 push	 eax
  00535	8b 0d 00 00 00
	00		 mov	 ecx, DWORD PTR _TCPDataSock
  0053b	51		 push	 ecx
  0053c	e8 00 00 00 00	 call	 ___WSAFDIsSet@8
  00541	85 c0		 test	 eax, eax
  00543	74 2e		 je	 SHORT $LN45@HostPoll
$DCLost$80798:

; 635  : 		{
; 636  : DCLost:	
; 637  : 			WriteDebugLog(LOGDEBUG, "TCP Connection lost");

  00545	68 00 00 00 00	 push	 OFFSET ??_C@_0BE@BMFBFGGN@TCP?5Connection?5lost?$AA@
  0054a	6a 07		 push	 7
  0054c	e8 00 00 00 00	 call	 _WriteDebugLog
  00551	83 c4 08	 add	 esp, 8

; 638  : 			
; 639  : 			DATACONNECTED = FALSE;

  00554	c7 05 00 00 00
	00 00 00 00 00	 mov	 DWORD PTR _DATACONNECTED, 0

; 640  : 
; 641  : 			closesocket(TCPControlSock);

  0055e	a1 00 00 00 00	 mov	 eax, DWORD PTR _TCPControlSock
  00563	50		 push	 eax
  00564	e8 00 00 00 00	 call	 _closesocket@4

; 642  : 			TCPDataSock= 0;

  00569	c7 05 00 00 00
	00 00 00 00 00	 mov	 DWORD PTR _TCPDataSock, 0
$LN45@HostPoll:

; 643  : 			return;
; 644  : 		}
; 645  : 	}
; 646  : 	}
; 647  : }

  00573	52		 push	 edx
  00574	8b cd		 mov	 ecx, ebp
  00576	50		 push	 eax
  00577	8d 15 00 00 00
	00		 lea	 edx, DWORD PTR $LN54@HostPoll
  0057d	e8 00 00 00 00	 call	 @_RTC_CheckStackVars@8
  00582	58		 pop	 eax
  00583	5a		 pop	 edx
  00584	5f		 pop	 edi
  00585	5e		 pop	 esi
  00586	5b		 pop	 ebx
  00587	8b 4d fc	 mov	 ecx, DWORD PTR __$ArrayPad$[ebp]
  0058a	33 cd		 xor	 ecx, ebp
  0058c	e8 00 00 00 00	 call	 @__security_check_cookie@4
  00591	81 c4 28 03 00
	00		 add	 esp, 808		; 00000328H
  00597	3b ec		 cmp	 ebp, esp
  00599	e8 00 00 00 00	 call	 __RTC_CheckEsp
  0059e	8b e5		 mov	 esp, ebp
  005a0	5d		 pop	 ebp
  005a1	c3		 ret	 0
  005a2	8b ff		 npad	 2
$LN54@HostPoll:
  005a4	06 00 00 00	 DD	 6
  005a8	00 00 00 00	 DD	 $LN53@HostPoll
$LN53@HostPoll:
  005ac	f4 fe ff ff	 DD	 -268			; fffffef4H
  005b0	04 01 00 00	 DD	 260			; 00000104H
  005b4	00 00 00 00	 DD	 $LN47@HostPoll
  005b8	e8 fd ff ff	 DD	 -536			; fffffde8H
  005bc	04 01 00 00	 DD	 260			; 00000104H
  005c0	00 00 00 00	 DD	 $LN48@HostPoll
  005c4	d8 fd ff ff	 DD	 -552			; fffffdd8H
  005c8	08 00 00 00	 DD	 8
  005cc	00 00 00 00	 DD	 $LN49@HostPoll
  005d0	c0 fd ff ff	 DD	 -576			; fffffdc0H
  005d4	04 00 00 00	 DD	 4
  005d8	00 00 00 00	 DD	 $LN50@HostPoll
  005dc	a8 fd ff ff	 DD	 -600			; fffffda8H
  005e0	10 00 00 00	 DD	 16			; 00000010H
  005e4	00 00 00 00	 DD	 $LN51@HostPoll
  005e8	9c fd ff ff	 DD	 -612			; fffffd9cH
  005ec	04 00 00 00	 DD	 4
  005f0	00 00 00 00	 DD	 $LN52@HostPoll
$LN52@HostPoll:
  005f4	70		 DB	 112			; 00000070H
  005f5	61		 DB	 97			; 00000061H
  005f6	72		 DB	 114			; 00000072H
  005f7	61		 DB	 97			; 00000061H
  005f8	6d		 DB	 109			; 0000006dH
  005f9	00		 DB	 0
$LN51@HostPoll:
  005fa	73		 DB	 115			; 00000073H
  005fb	69		 DB	 105			; 00000069H
  005fc	6e		 DB	 110			; 0000006eH
  005fd	00		 DB	 0
$LN50@HostPoll:
  005fe	61		 DB	 97			; 00000061H
  005ff	64		 DB	 100			; 00000064H
  00600	64		 DB	 100			; 00000064H
  00601	72		 DB	 114			; 00000072H
  00602	6c		 DB	 108			; 0000006cH
  00603	65		 DB	 101			; 00000065H
  00604	6e		 DB	 110			; 0000006eH
  00605	00		 DB	 0
$LN49@HostPoll:
  00606	74		 DB	 116			; 00000074H
  00607	69		 DB	 105			; 00000069H
  00608	6d		 DB	 109			; 0000006dH
  00609	65		 DB	 101			; 00000065H
  0060a	6f		 DB	 111			; 0000006fH
  0060b	75		 DB	 117			; 00000075H
  0060c	74		 DB	 116			; 00000074H
  0060d	00		 DB	 0
$LN48@HostPoll:
  0060e	65		 DB	 101			; 00000065H
  0060f	72		 DB	 114			; 00000072H
  00610	72		 DB	 114			; 00000072H
  00611	6f		 DB	 111			; 0000006fH
  00612	72		 DB	 114			; 00000072H
  00613	66		 DB	 102			; 00000066H
  00614	73		 DB	 115			; 00000073H
  00615	00		 DB	 0
$LN47@HostPoll:
  00616	72		 DB	 114			; 00000072H
  00617	65		 DB	 101			; 00000065H
  00618	61		 DB	 97			; 00000061H
  00619	64		 DB	 100			; 00000064H
  0061a	66		 DB	 102			; 00000066H
  0061b	73		 DB	 115			; 00000073H
  0061c	00		 DB	 0
_HostPoll ENDP
_TEXT	ENDS
END
