; Listing generated by Microsoft (R) Optimizing Compiler Version 14.00.50727.42 

	TITLE	c:\SkyDrive\Dev\Source\ARDOPC\UZ7HOFEC.c
	.686P
	.XMM
	include listing.inc
	.model	flat

INCLUDELIB LIBCMTD
INCLUDELIB OLDNAMES

PUBLIC	_UZ7HOIndex
_DATA	SEGMENT
COMM	_CarFreq:DWORD
_UZ7HOIndex DD	0ffffffffH
_DATA	ENDS
PUBLIC	__real@408f400000000000
PUBLIC	__real@4000000000000000
PUBLIC	__real@4069000000000000
PUBLIC	__real@4018000000000000
PUBLIC	__real@400921fb00000000
PUBLIC	_Demod1CarPSKUZ7HO
EXTRN	_intSampPerSym:DWORD
EXTRN	_Corrections:DWORD
EXTRN	_Track1CarPSK:PROC
EXTRN	_strMod:BYTE
EXTRN	_intPhases:BYTE
EXTRN	_intPSKPhase_1:BYTE
EXTRN	_atan2:PROC
EXTRN	_intMags:BYTE
EXTRN	_intPhasesLen:DWORD
EXTRN	_sqrt:PROC
EXTRN	_pow:PROC
EXTRN	_GoertzelRealImag:PROC
EXTRN	__fltused:DWORD
EXTRN	__RTC_CheckEsp:PROC
EXTRN	@_RTC_CheckStackVars@8:PROC
EXTRN	__ftol2_sse:PROC
EXTRN	__RTC_Shutdown:PROC
EXTRN	__RTC_InitBase:PROC
;	COMDAT __real@408f400000000000
; File c:\skydrive\dev\source\ardopc\uz7hofec.c
CONST	SEGMENT
__real@408f400000000000 DQ 0408f400000000000r	; 1000
CONST	ENDS
;	COMDAT __real@4000000000000000
CONST	SEGMENT
__real@4000000000000000 DQ 04000000000000000r	; 2
CONST	ENDS
;	COMDAT __real@4069000000000000
CONST	SEGMENT
__real@4069000000000000 DQ 04069000000000000r	; 200
CONST	ENDS
;	COMDAT __real@4018000000000000
CONST	SEGMENT
__real@4018000000000000 DQ 04018000000000000r	; 6
CONST	ENDS
;	COMDAT __real@400921fb00000000
CONST	SEGMENT
__real@400921fb00000000 DQ 0400921fb00000000r	; 3.14159
CONST	ENDS
;	COMDAT rtc$TMZ
rtc$TMZ	SEGMENT
__RTC_Shutdown.rtc$TMZ DD FLAT:__RTC_Shutdown
rtc$TMZ	ENDS
;	COMDAT rtc$IMZ
rtc$IMZ	SEGMENT
__RTC_InitBase.rtc$IMZ DD FLAT:__RTC_InitBase
; Function compile flags: /Odtp /RTCsu /ZI
rtc$IMZ	ENDS
;	COMDAT _Demod1CarPSKUZ7HO
_TEXT	SEGMENT
tv212 = -344						; size = 4
tv203 = -340						; size = 4
tv260 = -336						; size = 8
tv244 = -328						; size = 4
tv225 = -328						; size = 4
tv195 = -328						; size = 4
_NewPhase$ = -128					; size = 4
_intDiff$ = -116					; size = 4
_intNforGoertzel$ = -104				; size = 4
_intCP$ = -92						; size = 4
_dblFreqBin$ = -80					; size = 4
_origStart$ = -68					; size = 4
_intNumOfSymbols$ = -56					; size = 4
_i$ = -44						; size = 4
_intMiliRadPerSample$ = -32				; size = 4
_dblImag$ = -20						; size = 4
_dblReal$ = -8						; size = 4
_Samples$ = 8						; size = 4
_Start$ = 12						; size = 4
_Carrier$ = 16						; size = 4
_Demod1CarPSKUZ7HO PROC					; COMDAT

; 38   : {

  00000	55		 push	 ebp
  00001	8b ec		 mov	 ebp, esp
  00003	81 ec 58 01 00
	00		 sub	 esp, 344		; 00000158H
  00009	53		 push	 ebx
  0000a	56		 push	 esi
  0000b	57		 push	 edi
  0000c	8d bd a8 fe ff
	ff		 lea	 edi, DWORD PTR [ebp-344]
  00012	b9 56 00 00 00	 mov	 ecx, 86			; 00000056H
  00017	b8 cc cc cc cc	 mov	 eax, -858993460		; ccccccccH
  0001c	f3 ab		 rep stosd

; 39   : 	// Converts intSample to an array of differential phase and magnitude values for the Specific Carrier Freq
; 40   : 	// intPtr should be pointing to the approximate start of the first reference/training symbol (1 of 3) 
; 41   : 	// intPhase() is an array of phase values (in milliradians range of 0 to 6283) for each symbol 
; 42   : 	// intMag() is an array of Magnitude values (not used in PSK decoding but for constellation plotting or QAM decoding)
; 43   : 	// Objective is to use Minimum Phase Error Tracking to maintain optimum pointer position
; 44   : 
; 45   : 	// Decodes 8 successive symbols (960 bits)
; 46   : 
; 47   : 	float dblReal, dblImag;
; 48   : 	int intMiliRadPerSample = CarFreq * M_PI / 6;

  0001e	d9 05 00 00 00
	00		 fld	 DWORD PTR _CarFreq
  00024	dc 0d 00 00 00
	00		 fmul	 QWORD PTR __real@400921fb00000000
  0002a	dc 35 00 00 00
	00		 fdiv	 QWORD PTR __real@4018000000000000
  00030	e8 00 00 00 00	 call	 __ftol2_sse
  00035	89 45 e0	 mov	 DWORD PTR _intMiliRadPerSample$[ebp], eax

; 49   : 	int i;
; 50   : 	int intNumOfSymbols = 8;

  00038	c7 45 c8 08 00
	00 00		 mov	 DWORD PTR _intNumOfSymbols$[ebp], 8

; 51   : 	int origStart = Start;

  0003f	8b 45 0c	 mov	 eax, DWORD PTR _Start$[ebp]
  00042	89 45 bc	 mov	 DWORD PTR _origStart$[ebp], eax

; 52   : 	float dblFreqBin = CarFreq / 200.0f; //200 = 12000/60

  00045	d9 05 00 00 00
	00		 fld	 DWORD PTR _CarFreq
  0004b	dc 35 00 00 00
	00		 fdiv	 QWORD PTR __real@4069000000000000
  00051	d9 5d b0	 fstp	 DWORD PTR _dblFreqBin$[ebp]

; 53   : 	int	intCP = 28; // This value selected for best decoding percentage (56%) and best Averag 4PSK Quality (77) on mpg +5 dB

  00054	c7 45 a4 1c 00
	00 00		 mov	 DWORD PTR _intCP$[ebp], 28 ; 0000001cH

; 54   : 	int	intNforGoertzel = 60;

  0005b	c7 45 98 3c 00
	00 00		 mov	 DWORD PTR _intNforGoertzel$[ebp], 60 ; 0000003cH

; 55   : 	int intDiff;
; 56   : 	int NewPhase;
; 57   : 
; 58   : 	for (i = 0; i <  intNumOfSymbols; i++)

  00062	c7 45 d4 00 00
	00 00		 mov	 DWORD PTR _i$[ebp], 0
  00069	eb 09		 jmp	 SHORT $LN4@Demod1CarP
$LN3@Demod1CarP:
  0006b	8b 45 d4	 mov	 eax, DWORD PTR _i$[ebp]
  0006e	83 c0 01	 add	 eax, 1
  00071	89 45 d4	 mov	 DWORD PTR _i$[ebp], eax
$LN4@Demod1CarP:
  00074	8b 45 d4	 mov	 eax, DWORD PTR _i$[ebp]
  00077	3b 45 c8	 cmp	 eax, DWORD PTR _intNumOfSymbols$[ebp]
  0007a	0f 8d 9a 01 00
	00		 jge	 $LN2@Demod1CarP

; 59   : 	{
; 60   : 		GoertzelRealImag(Samples, Start + intCP, intNforGoertzel, dblFreqBin, &dblReal, &dblImag);

  00080	8d 45 ec	 lea	 eax, DWORD PTR _dblImag$[ebp]
  00083	50		 push	 eax
  00084	8d 4d f8	 lea	 ecx, DWORD PTR _dblReal$[ebp]
  00087	51		 push	 ecx
  00088	51		 push	 ecx
  00089	d9 45 b0	 fld	 DWORD PTR _dblFreqBin$[ebp]
  0008c	d9 1c 24	 fstp	 DWORD PTR [esp]
  0008f	8b 55 98	 mov	 edx, DWORD PTR _intNforGoertzel$[ebp]
  00092	52		 push	 edx
  00093	8b 45 0c	 mov	 eax, DWORD PTR _Start$[ebp]
  00096	03 45 a4	 add	 eax, DWORD PTR _intCP$[ebp]
  00099	50		 push	 eax
  0009a	8b 4d 08	 mov	 ecx, DWORD PTR _Samples$[ebp]
  0009d	51		 push	 ecx
  0009e	e8 00 00 00 00	 call	 _GoertzelRealImag
  000a3	83 c4 18	 add	 esp, 24			; 00000018H

; 61   : 		intMags[Carrier][intPhasesLen] = sqrtf(powf(dblReal, 2) + powf(dblImag, 2));

  000a6	83 ec 08	 sub	 esp, 8
  000a9	dd 05 00 00 00
	00		 fld	 QWORD PTR __real@4000000000000000
  000af	dd 1c 24	 fstp	 QWORD PTR [esp]
  000b2	d9 45 f8	 fld	 DWORD PTR _dblReal$[ebp]
  000b5	83 ec 08	 sub	 esp, 8
  000b8	dd 1c 24	 fstp	 QWORD PTR [esp]
  000bb	e8 00 00 00 00	 call	 _pow
  000c0	83 c4 10	 add	 esp, 16			; 00000010H
  000c3	d9 9d b8 fe ff
	ff		 fstp	 DWORD PTR tv195[ebp]
  000c9	d9 85 b8 fe ff
	ff		 fld	 DWORD PTR tv195[ebp]
  000cf	83 ec 08	 sub	 esp, 8
  000d2	dd 05 00 00 00
	00		 fld	 QWORD PTR __real@4000000000000000
  000d8	dd 1c 24	 fstp	 QWORD PTR [esp]
  000db	d9 45 ec	 fld	 DWORD PTR _dblImag$[ebp]
  000de	83 ec 08	 sub	 esp, 8
  000e1	dd 1c 24	 fstp	 QWORD PTR [esp]
  000e4	dd 9d b0 fe ff
	ff		 fstp	 QWORD PTR tv260[ebp]
  000ea	e8 00 00 00 00	 call	 _pow
  000ef	83 c4 10	 add	 esp, 16			; 00000010H
  000f2	d9 9d ac fe ff
	ff		 fstp	 DWORD PTR tv203[ebp]
  000f8	d9 85 ac fe ff
	ff		 fld	 DWORD PTR tv203[ebp]
  000fe	dc 85 b0 fe ff
	ff		 fadd	 QWORD PTR tv260[ebp]
  00104	83 ec 08	 sub	 esp, 8
  00107	dd 1c 24	 fstp	 QWORD PTR [esp]
  0010a	e8 00 00 00 00	 call	 _sqrt
  0010f	83 c4 08	 add	 esp, 8
  00112	d9 9d a8 fe ff
	ff		 fstp	 DWORD PTR tv212[ebp]
  00118	d9 85 a8 fe ff
	ff		 fld	 DWORD PTR tv212[ebp]
  0011e	8b 75 10	 mov	 esi, DWORD PTR _Carrier$[ebp]
  00121	c1 e6 04	 shl	 esi, 4
  00124	e8 00 00 00 00	 call	 __ftol2_sse
  00129	8b 0d 00 00 00
	00		 mov	 ecx, DWORD PTR _intPhasesLen
  0012f	66 89 84 4e 00
	00 00 00	 mov	 WORD PTR _intMags[esi+ecx*2], ax

; 62   : 		NewPhase = 1000 * atan2f(dblImag, dblReal);

  00137	d9 45 f8	 fld	 DWORD PTR _dblReal$[ebp]
  0013a	83 ec 08	 sub	 esp, 8
  0013d	dd 1c 24	 fstp	 QWORD PTR [esp]
  00140	d9 45 ec	 fld	 DWORD PTR _dblImag$[ebp]
  00143	83 ec 08	 sub	 esp, 8
  00146	dd 1c 24	 fstp	 QWORD PTR [esp]
  00149	e8 00 00 00 00	 call	 _atan2
  0014e	83 c4 10	 add	 esp, 16			; 00000010H
  00151	d9 9d b8 fe ff
	ff		 fstp	 DWORD PTR tv225[ebp]
  00157	d9 85 b8 fe ff
	ff		 fld	 DWORD PTR tv225[ebp]
  0015d	dc 0d 00 00 00
	00		 fmul	 QWORD PTR __real@408f400000000000
  00163	e8 00 00 00 00	 call	 __ftol2_sse
  00168	89 45 80	 mov	 DWORD PTR _NewPhase$[ebp], eax

; 63   : 
; 64   : 		intDiff = NewPhase - intPSKPhase_1[Carrier];

  0016b	8b 45 10	 mov	 eax, DWORD PTR _Carrier$[ebp]
  0016e	0f bf 0c 45 00
	00 00 00	 movsx	 ecx, WORD PTR _intPSKPhase_1[eax*2]
  00176	8b 55 80	 mov	 edx, DWORD PTR _NewPhase$[ebp]
  00179	2b d1		 sub	 edx, ecx
  0017b	89 55 8c	 mov	 DWORD PTR _intDiff$[ebp], edx

; 65   : 
; 66   : 		if (intDiff < 0)

  0017e	79 0b		 jns	 SHORT $LN1@Demod1CarP

; 67   : 			intDiff += 6284;

  00180	8b 45 8c	 mov	 eax, DWORD PTR _intDiff$[ebp]
  00183	05 8c 18 00 00	 add	 eax, 6284		; 0000188cH
  00188	89 45 8c	 mov	 DWORD PTR _intDiff$[ebp], eax
$LN1@Demod1CarP:

; 68   : 
; 69   : 		intPhases[Carrier][intPhasesLen] = intDiff;

  0018b	8b 45 10	 mov	 eax, DWORD PTR _Carrier$[ebp]
  0018e	c1 e0 04	 shl	 eax, 4
  00191	8b 0d 00 00 00
	00		 mov	 ecx, DWORD PTR _intPhasesLen
  00197	66 8b 55 8c	 mov	 dx, WORD PTR _intDiff$[ebp]
  0019b	66 89 94 48 00
	00 00 00	 mov	 WORD PTR _intPhases[eax+ecx*2], dx

; 70   : 
; 71   : 		Corrections = Track1CarPSK(CarFreq, strMod, atan2f(dblImag, dblReal), FALSE);

  001a3	6a 00		 push	 0
  001a5	d9 45 f8	 fld	 DWORD PTR _dblReal$[ebp]
  001a8	83 ec 08	 sub	 esp, 8
  001ab	dd 1c 24	 fstp	 QWORD PTR [esp]
  001ae	d9 45 ec	 fld	 DWORD PTR _dblImag$[ebp]
  001b1	83 ec 08	 sub	 esp, 8
  001b4	dd 1c 24	 fstp	 QWORD PTR [esp]
  001b7	e8 00 00 00 00	 call	 _atan2
  001bc	83 c4 10	 add	 esp, 16			; 00000010H
  001bf	d9 9d b8 fe ff
	ff		 fstp	 DWORD PTR tv244[ebp]
  001c5	d9 85 b8 fe ff
	ff		 fld	 DWORD PTR tv244[ebp]
  001cb	51		 push	 ecx
  001cc	d9 1c 24	 fstp	 DWORD PTR [esp]
  001cf	68 00 00 00 00	 push	 OFFSET _strMod
  001d4	d9 05 00 00 00
	00		 fld	 DWORD PTR _CarFreq
  001da	e8 00 00 00 00	 call	 __ftol2_sse
  001df	50		 push	 eax
  001e0	e8 00 00 00 00	 call	 _Track1CarPSK
  001e5	83 c4 10	 add	 esp, 16			; 00000010H
  001e8	a3 00 00 00 00	 mov	 DWORD PTR _Corrections, eax

; 72   : 
; 73   : //		if (Corrections != 0)
; 74   : //		{
; 75   : //			Start += Corrections;
; 76   : //
; 77   : //			GoertzelRealImag(Samples, Start + intCP, intNforGoertzel, dblFreqBin, &dblReal, &dblImag);
; 78   : //			intPSKPhase_0[Carrier] = 1000 * atan2f(dblImag, dblReal);
; 79   : //		}
; 80   : 		intPSKPhase_1[Carrier] = NewPhase;

  001ed	8b 45 10	 mov	 eax, DWORD PTR _Carrier$[ebp]
  001f0	66 8b 4d 80	 mov	 cx, WORD PTR _NewPhase$[ebp]
  001f4	66 89 0c 45 00
	00 00 00	 mov	 WORD PTR _intPSKPhase_1[eax*2], cx

; 81   : 		intPhasesLen++;

  001fc	a1 00 00 00 00	 mov	 eax, DWORD PTR _intPhasesLen
  00201	83 c0 01	 add	 eax, 1
  00204	a3 00 00 00 00	 mov	 DWORD PTR _intPhasesLen, eax

; 82   : 		Start += intSampPerSym;

  00209	8b 45 0c	 mov	 eax, DWORD PTR _Start$[ebp]
  0020c	03 05 00 00 00
	00		 add	 eax, DWORD PTR _intSampPerSym
  00212	89 45 0c	 mov	 DWORD PTR _Start$[ebp], eax

; 83   : 	}

  00215	e9 51 fe ff ff	 jmp	 $LN3@Demod1CarP
$LN2@Demod1CarP:

; 84   :        // If AccumulateStats Then intPSKSymbolCnt += intPhase.Length
; 85   : 
; 86   : 	return (Start - origStart);	// Symbols we've consumed

  0021a	8b 45 0c	 mov	 eax, DWORD PTR _Start$[ebp]
  0021d	2b 45 bc	 sub	 eax, DWORD PTR _origStart$[ebp]

; 87   : }

  00220	52		 push	 edx
  00221	8b cd		 mov	 ecx, ebp
  00223	50		 push	 eax
  00224	8d 15 00 00 00
	00		 lea	 edx, DWORD PTR $LN10@Demod1CarP
  0022a	e8 00 00 00 00	 call	 @_RTC_CheckStackVars@8
  0022f	58		 pop	 eax
  00230	5a		 pop	 edx
  00231	5f		 pop	 edi
  00232	5e		 pop	 esi
  00233	5b		 pop	 ebx
  00234	81 c4 58 01 00
	00		 add	 esp, 344		; 00000158H
  0023a	3b ec		 cmp	 ebp, esp
  0023c	e8 00 00 00 00	 call	 __RTC_CheckEsp
  00241	8b e5		 mov	 esp, ebp
  00243	5d		 pop	 ebp
  00244	c3		 ret	 0
  00245	8d 49 00	 npad	 3
$LN10@Demod1CarP:
  00248	02 00 00 00	 DD	 2
  0024c	00 00 00 00	 DD	 $LN9@Demod1CarP
$LN9@Demod1CarP:
  00250	f8 ff ff ff	 DD	 -8			; fffffff8H
  00254	04 00 00 00	 DD	 4
  00258	00 00 00 00	 DD	 $LN7@Demod1CarP
  0025c	ec ff ff ff	 DD	 -20			; ffffffecH
  00260	04 00 00 00	 DD	 4
  00264	00 00 00 00	 DD	 $LN8@Demod1CarP
$LN8@Demod1CarP:
  00268	64		 DB	 100			; 00000064H
  00269	62		 DB	 98			; 00000062H
  0026a	6c		 DB	 108			; 0000006cH
  0026b	49		 DB	 73			; 00000049H
  0026c	6d		 DB	 109			; 0000006dH
  0026d	61		 DB	 97			; 00000061H
  0026e	67		 DB	 103			; 00000067H
  0026f	00		 DB	 0
$LN7@Demod1CarP:
  00270	64		 DB	 100			; 00000064H
  00271	62		 DB	 98			; 00000062H
  00272	6c		 DB	 108			; 0000006cH
  00273	52		 DB	 82			; 00000052H
  00274	65		 DB	 101			; 00000065H
  00275	61		 DB	 97			; 00000061H
  00276	6c		 DB	 108			; 0000006cH
  00277	00		 DB	 0
_Demod1CarPSKUZ7HO ENDP
_TEXT	ENDS
PUBLIC	??_C@_08LEDEEJEF@00000000?$AA@			; `string'
PUBLIC	??_C@_0BB@GOJHMPNO@?$CFd?5?$CFs?5?$CFs?5?$CFs?5?$CFs?5?6?$AA@ ; `string'
PUBLIC	??_C@_0BM@EGCBINDL@?$CFd?5?$CFd?5?$CFd?5?$CFd?5?$CFd?5?$CFd?5?$CFd?5?$CFd?5?$CFd?6?$AA@ ; `string'
PUBLIC	??_C@_00CNPNBAHC@?$AA@				; `string'
PUBLIC	__real@44dc5000
PUBLIC	__real@44c67000
PUBLIC	__real@44b09000
PUBLIC	__real@449ab000
PUBLIC	__$ArrayPad$
PUBLIC	_LookforUZ7HOLeader
EXTRN	_memmove:PROC
EXTRN	_strcmp:PROC
EXTRN	_printf:PROC
EXTRN	_intFilteredMixedSamples:BYTE
EXTRN	_intFilteredMixedSamplesLength:DWORD
EXTRN	_MixNCOFilter:PROC
EXTRN	_dblOffsetHz:DWORD
EXTRN	___security_cookie:DWORD
EXTRN	@__security_check_cookie@4:PROC
;	COMDAT ??_C@_08LEDEEJEF@00000000?$AA@
CONST	SEGMENT
??_C@_08LEDEEJEF@00000000?$AA@ DB '00000000', 00H	; `string'
CONST	ENDS
;	COMDAT ??_C@_0BB@GOJHMPNO@?$CFd?5?$CFs?5?$CFs?5?$CFs?5?$CFs?5?6?$AA@
CONST	SEGMENT
??_C@_0BB@GOJHMPNO@?$CFd?5?$CFs?5?$CFs?5?$CFs?5?$CFs?5?6?$AA@ DB '%d %s %'
	DB	's %s %s ', 0aH, 00H				; `string'
CONST	ENDS
;	COMDAT ??_C@_0BM@EGCBINDL@?$CFd?5?$CFd?5?$CFd?5?$CFd?5?$CFd?5?$CFd?5?$CFd?5?$CFd?5?$CFd?6?$AA@
CONST	SEGMENT
??_C@_0BM@EGCBINDL@?$CFd?5?$CFd?5?$CFd?5?$CFd?5?$CFd?5?$CFd?5?$CFd?5?$CFd?5?$CFd?6?$AA@ DB '%'
	DB	'd %d %d %d %d %d %d %d %d', 0aH, 00H	; `string'
CONST	ENDS
;	COMDAT ??_C@_00CNPNBAHC@?$AA@
CONST	SEGMENT
??_C@_00CNPNBAHC@?$AA@ DB 00H				; `string'
CONST	ENDS
;	COMDAT __real@44dc5000
CONST	SEGMENT
__real@44dc5000 DD 044dc5000r			; 1762.5
CONST	ENDS
;	COMDAT __real@44c67000
CONST	SEGMENT
__real@44c67000 DD 044c67000r			; 1587.5
CONST	ENDS
;	COMDAT __real@44b09000
CONST	SEGMENT
__real@44b09000 DD 044b09000r			; 1412.5
CONST	ENDS
;	COMDAT __real@449ab000
CONST	SEGMENT
__real@449ab000 DD 0449ab000r			; 1237.5
; Function compile flags: /Odtp /RTCsu /ZI
CONST	ENDS
;	COMDAT _LookforUZ7HOLeader
_TEXT	SEGMENT
_Start$5564 = -188					; size = 4
_j$5563 = -176						; size = 4
_x4$5562 = -164						; size = 10
_x3$5561 = -144						; size = 10
_x2$5560 = -124						; size = 10
_x1$5558 = -104						; size = 10
_carriers$ = -84					; size = 16
_y$ = -60						; size = 4
_x$ = -48						; size = 4
_i$ = -36						; size = 4
_OuterStart$ = -24					; size = 4
_Used$ = -12						; size = 4
__$ArrayPad$ = -4					; size = 4
_Samples$ = 8						; size = 4
_nSamples$ = 12						; size = 4
_LookforUZ7HOLeader PROC				; COMDAT

; 93   : {

  00000	55		 push	 ebp
  00001	8b ec		 mov	 ebp, esp
  00003	81 ec 80 01 00
	00		 sub	 esp, 384		; 00000180H
  00009	53		 push	 ebx
  0000a	56		 push	 esi
  0000b	57		 push	 edi
  0000c	8d bd 80 fe ff
	ff		 lea	 edi, DWORD PTR [ebp-384]
  00012	b9 60 00 00 00	 mov	 ecx, 96			; 00000060H
  00017	b8 cc cc cc cc	 mov	 eax, -858993460		; ccccccccH
  0001c	f3 ab		 rep stosd
  0001e	a1 00 00 00 00	 mov	 eax, DWORD PTR ___security_cookie
  00023	33 c5		 xor	 eax, ebp
  00025	89 45 fc	 mov	 DWORD PTR __$ArrayPad$[ebp], eax

; 94   : 	//	4 100 baud carriers spaced at 175 HZint Used;. BPSK
; 95   : 
; 96   : 	int Used;
; 97   : 
; 98   : 	int OuterStart = 0, i, x, y;

  00028	c7 45 e8 00 00
	00 00		 mov	 DWORD PTR _OuterStart$[ebp], 0

; 99   : 
; 100  : 	float carriers[4] = {
; 101  : 		1500 - (1.5 * 175),

  0002f	d9 05 00 00 00
	00		 fld	 DWORD PTR __real@449ab000
  00035	d9 5d ac	 fstp	 DWORD PTR _carriers$[ebp]

; 102  : 		1500 - (0.5 * 175),

  00038	d9 05 00 00 00
	00		 fld	 DWORD PTR __real@44b09000
  0003e	d9 5d b0	 fstp	 DWORD PTR _carriers$[ebp+4]

; 103  : 		1500 + (0.5 * 175),

  00041	d9 05 00 00 00
	00		 fld	 DWORD PTR __real@44c67000
  00047	d9 5d b4	 fstp	 DWORD PTR _carriers$[ebp+8]

; 104  : 		1500 + (1.5 * 175)};

  0004a	d9 05 00 00 00
	00		 fld	 DWORD PTR __real@44dc5000
  00050	d9 5d b8	 fstp	 DWORD PTR _carriers$[ebp+12]

; 105  : 		
; 106  : //	dblPhaseInc = 2 * M_PI * 1000 / 4;
; 107  : 
; 108  : 	intSampPerSym = 120;

  00053	c7 05 00 00 00
	00 78 00 00 00	 mov	 DWORD PTR _intSampPerSym, 120 ; 00000078H

; 109  : 	intPhasesLen = 0;

  0005d	c7 05 00 00 00
	00 00 00 00 00	 mov	 DWORD PTR _intPhasesLen, 0

; 110  : 
; 111  : 	for (i= 0; i < 4; i++)

  00067	c7 45 dc 00 00
	00 00		 mov	 DWORD PTR _i$[ebp], 0
  0006e	eb 09		 jmp	 SHORT $LN28@LookforUZ7
$LN27@LookforUZ7:
  00070	8b 45 dc	 mov	 eax, DWORD PTR _i$[ebp]
  00073	83 c0 01	 add	 eax, 1
  00076	89 45 dc	 mov	 DWORD PTR _i$[ebp], eax
$LN28@LookforUZ7:
  00079	83 7d dc 04	 cmp	 DWORD PTR _i$[ebp], 4
  0007d	7d 02		 jge	 SHORT $LN26@LookforUZ7

; 112  : 	{
; 113  : //		dblFreqBin[i] = CarFrew / 200.0f; //200 = 12000/60
; 114  : //		CarFreq -= 175;
; 115  : //		intPSKPhase_1[i] = 0; 
; 116  : 	}

  0007f	eb ef		 jmp	 SHORT $LN27@LookforUZ7
$LN26@LookforUZ7:

; 117  : 	
; 118  : 
; 119  : 	MixNCOFilter(Samples, nSamples, dblOffsetHz); // Mix and filter new samples (Mixing consumes all intRcvdSamples)

  00081	51		 push	 ecx
  00082	d9 05 00 00 00
	00		 fld	 DWORD PTR _dblOffsetHz
  00088	d9 1c 24	 fstp	 DWORD PTR [esp]
  0008b	8b 45 0c	 mov	 eax, DWORD PTR _nSamples$[ebp]
  0008e	50		 push	 eax
  0008f	8b 4d 08	 mov	 ecx, DWORD PTR _Samples$[ebp]
  00092	51		 push	 ecx
  00093	e8 00 00 00 00	 call	 _MixNCOFilter
  00098	83 c4 0c	 add	 esp, 12			; 0000000cH

; 120  : 	OuterStart = 0;

  0009b	c7 45 e8 00 00
	00 00		 mov	 DWORD PTR _OuterStart$[ebp], 0
$LN25@LookforUZ7:

; 121  : 
; 122  : 	while (intFilteredMixedSamplesLength > (960 + 120))		// Experimental UZ7HO FSK Detect

  000a2	81 3d 00 00 00
	00 38 04 00 00	 cmp	 DWORD PTR _intFilteredMixedSamplesLength, 1080 ; 00000438H
  000ac	0f 8e 2d 04 00
	00		 jle	 $LN24@LookforUZ7

; 123  : 	{
; 124  : 		if (UZ7HOIndex == -1)

  000b2	83 3d 00 00 00
	00 ff		 cmp	 DWORD PTR _UZ7HOIndex, -1
  000b9	75 10		 jne	 SHORT $LN23@LookforUZ7

; 125  : 		{
; 126  : 			// repeat decode with sample pointer incremented to get sample sync
; 127  : 
; 128  : 			x = 0;

  000bb	c7 45 d0 00 00
	00 00		 mov	 DWORD PTR _x$[ebp], 0

; 129  : 			y = 120;

  000c2	c7 45 c4 78 00
	00 00		 mov	 DWORD PTR _y$[ebp], 120	; 00000078H

; 130  : 		}
; 131  : 		else

  000c9	eb 11		 jmp	 SHORT $LN22@LookforUZ7
$LN23@LookforUZ7:

; 132  : 		{
; 133  : 			x = UZ7HOIndex;

  000cb	a1 00 00 00 00	 mov	 eax, DWORD PTR _UZ7HOIndex
  000d0	89 45 d0	 mov	 DWORD PTR _x$[ebp], eax

; 134  : 			y = x + 1;

  000d3	8b 45 d0	 mov	 eax, DWORD PTR _x$[ebp]
  000d6	83 c0 01	 add	 eax, 1
  000d9	89 45 c4	 mov	 DWORD PTR _y$[ebp], eax
$LN22@LookforUZ7:

; 135  : 		}
; 136  : 		for (i = x; i < y; i++)

  000dc	8b 45 d0	 mov	 eax, DWORD PTR _x$[ebp]
  000df	89 45 dc	 mov	 DWORD PTR _i$[ebp], eax
  000e2	eb 09		 jmp	 SHORT $LN21@LookforUZ7
$LN20@LookforUZ7:
  000e4	8b 45 dc	 mov	 eax, DWORD PTR _i$[ebp]
  000e7	83 c0 01	 add	 eax, 1
  000ea	89 45 dc	 mov	 DWORD PTR _i$[ebp], eax
$LN21@LookforUZ7:
  000ed	8b 45 dc	 mov	 eax, DWORD PTR _i$[ebp]
  000f0	3b 45 c4	 cmp	 eax, DWORD PTR _y$[ebp]
  000f3	0f 8d c7 03 00
	00		 jge	 $LN19@LookforUZ7

; 137  : 		{
; 138  : 			char x1[10] = "";

  000f9	a0 00 00 00 00	 mov	 al, BYTE PTR ??_C@_00CNPNBAHC@?$AA@
  000fe	88 45 98	 mov	 BYTE PTR _x1$5558[ebp], al
  00101	33 c0		 xor	 eax, eax
  00103	89 45 99	 mov	 DWORD PTR _x1$5558[ebp+1], eax
  00106	89 45 9d	 mov	 DWORD PTR _x1$5558[ebp+5], eax
  00109	88 45 a1	 mov	 BYTE PTR _x1$5558[ebp+9], al

; 139  : 			char x2[10] = "";

  0010c	a0 00 00 00 00	 mov	 al, BYTE PTR ??_C@_00CNPNBAHC@?$AA@
  00111	88 45 84	 mov	 BYTE PTR _x2$5560[ebp], al
  00114	33 c0		 xor	 eax, eax
  00116	89 45 85	 mov	 DWORD PTR _x2$5560[ebp+1], eax
  00119	89 45 89	 mov	 DWORD PTR _x2$5560[ebp+5], eax
  0011c	88 45 8d	 mov	 BYTE PTR _x2$5560[ebp+9], al

; 140  : 			char x3[10] = "";

  0011f	a0 00 00 00 00	 mov	 al, BYTE PTR ??_C@_00CNPNBAHC@?$AA@
  00124	88 85 70 ff ff
	ff		 mov	 BYTE PTR _x3$5561[ebp], al
  0012a	33 c0		 xor	 eax, eax
  0012c	89 85 71 ff ff
	ff		 mov	 DWORD PTR _x3$5561[ebp+1], eax
  00132	89 85 75 ff ff
	ff		 mov	 DWORD PTR _x3$5561[ebp+5], eax
  00138	88 85 79 ff ff
	ff		 mov	 BYTE PTR _x3$5561[ebp+9], al

; 141  : 			char x4[10] = "";

  0013e	a0 00 00 00 00	 mov	 al, BYTE PTR ??_C@_00CNPNBAHC@?$AA@
  00143	88 85 5c ff ff
	ff		 mov	 BYTE PTR _x4$5562[ebp], al
  00149	33 c0		 xor	 eax, eax
  0014b	89 85 5d ff ff
	ff		 mov	 DWORD PTR _x4$5562[ebp+1], eax
  00151	89 85 61 ff ff
	ff		 mov	 DWORD PTR _x4$5562[ebp+5], eax
  00157	88 85 65 ff ff
	ff		 mov	 BYTE PTR _x4$5562[ebp+9], al

; 142  : 			int j;
; 143  : 			int Start = OuterStart;

  0015d	8b 45 e8	 mov	 eax, DWORD PTR _OuterStart$[ebp]
  00160	89 85 44 ff ff
	ff		 mov	 DWORD PTR _Start$5564[ebp], eax

; 144  : 
; 145  : 			CarFreq = carriers[0];

  00166	d9 45 ac	 fld	 DWORD PTR _carriers$[ebp]
  00169	d9 1d 00 00 00
	00		 fstp	 DWORD PTR _CarFreq

; 146  : 		
; 147  : 			Used = Demod1CarPSKUZ7HO(intFilteredMixedSamples, Start + i, 0);

  0016f	6a 00		 push	 0
  00171	8b 85 44 ff ff
	ff		 mov	 eax, DWORD PTR _Start$5564[ebp]
  00177	03 45 dc	 add	 eax, DWORD PTR _i$[ebp]
  0017a	50		 push	 eax
  0017b	68 00 00 00 00	 push	 OFFSET _intFilteredMixedSamples
  00180	e8 00 00 00 00	 call	 _Demod1CarPSKUZ7HO
  00185	83 c4 0c	 add	 esp, 12			; 0000000cH
  00188	89 45 f4	 mov	 DWORD PTR _Used$[ebp], eax

; 148  : 			intPhasesLen -= 8; //intPSKMode;

  0018b	a1 00 00 00 00	 mov	 eax, DWORD PTR _intPhasesLen
  00190	83 e8 08	 sub	 eax, 8
  00193	a3 00 00 00 00	 mov	 DWORD PTR _intPhasesLen, eax

; 149  : 			CarFreq = carriers[1];

  00198	d9 45 b0	 fld	 DWORD PTR _carriers$[ebp+4]
  0019b	d9 1d 00 00 00
	00		 fstp	 DWORD PTR _CarFreq

; 150  : 	
; 151  : 			Demod1CarPSKUZ7HO(intFilteredMixedSamples, Start + i, 1);

  001a1	6a 01		 push	 1
  001a3	8b 85 44 ff ff
	ff		 mov	 eax, DWORD PTR _Start$5564[ebp]
  001a9	03 45 dc	 add	 eax, DWORD PTR _i$[ebp]
  001ac	50		 push	 eax
  001ad	68 00 00 00 00	 push	 OFFSET _intFilteredMixedSamples
  001b2	e8 00 00 00 00	 call	 _Demod1CarPSKUZ7HO
  001b7	83 c4 0c	 add	 esp, 12			; 0000000cH

; 152  : 			intPhasesLen -= 8; //intPSKMode;

  001ba	a1 00 00 00 00	 mov	 eax, DWORD PTR _intPhasesLen
  001bf	83 e8 08	 sub	 eax, 8
  001c2	a3 00 00 00 00	 mov	 DWORD PTR _intPhasesLen, eax

; 153  : 			CarFreq = carriers[2];

  001c7	d9 45 b4	 fld	 DWORD PTR _carriers$[ebp+8]
  001ca	d9 1d 00 00 00
	00		 fstp	 DWORD PTR _CarFreq

; 154  : 
; 155  : 			Demod1CarPSKUZ7HO(intFilteredMixedSamples, Start + i, 2);

  001d0	6a 02		 push	 2
  001d2	8b 85 44 ff ff
	ff		 mov	 eax, DWORD PTR _Start$5564[ebp]
  001d8	03 45 dc	 add	 eax, DWORD PTR _i$[ebp]
  001db	50		 push	 eax
  001dc	68 00 00 00 00	 push	 OFFSET _intFilteredMixedSamples
  001e1	e8 00 00 00 00	 call	 _Demod1CarPSKUZ7HO
  001e6	83 c4 0c	 add	 esp, 12			; 0000000cH

; 156  : 			intPhasesLen -= 8; //intPSKMode;

  001e9	a1 00 00 00 00	 mov	 eax, DWORD PTR _intPhasesLen
  001ee	83 e8 08	 sub	 eax, 8
  001f1	a3 00 00 00 00	 mov	 DWORD PTR _intPhasesLen, eax

; 157  : 			CarFreq = carriers[3];

  001f6	d9 45 b8	 fld	 DWORD PTR _carriers$[ebp+12]
  001f9	d9 1d 00 00 00
	00		 fstp	 DWORD PTR _CarFreq

; 158  : 
; 159  : 			Used = Demod1CarPSKUZ7HO(intFilteredMixedSamples, Start + i, 3);

  001ff	6a 03		 push	 3
  00201	8b 85 44 ff ff
	ff		 mov	 eax, DWORD PTR _Start$5564[ebp]
  00207	03 45 dc	 add	 eax, DWORD PTR _i$[ebp]
  0020a	50		 push	 eax
  0020b	68 00 00 00 00	 push	 OFFSET _intFilteredMixedSamples
  00210	e8 00 00 00 00	 call	 _Demod1CarPSKUZ7HO
  00215	83 c4 0c	 add	 esp, 12			; 0000000cH
  00218	89 45 f4	 mov	 DWORD PTR _Used$[ebp], eax

; 160  : 
; 161  : 			//	Decode Phases. 0 = 180 shift 1 = no shift
; 162  : 			for (j = 0; j < 8; j++)

  0021b	c7 85 50 ff ff
	ff 00 00 00 00	 mov	 DWORD PTR _j$5563[ebp], 0
  00225	eb 0f		 jmp	 SHORT $LN18@LookforUZ7
$LN17@LookforUZ7:
  00227	8b 85 50 ff ff
	ff		 mov	 eax, DWORD PTR _j$5563[ebp]
  0022d	83 c0 01	 add	 eax, 1
  00230	89 85 50 ff ff
	ff		 mov	 DWORD PTR _j$5563[ebp], eax
$LN18@LookforUZ7:
  00236	83 bd 50 ff ff
	ff 08		 cmp	 DWORD PTR _j$5563[ebp], 8
  0023d	0f 8d 21 01 00
	00		 jge	 $LN16@LookforUZ7

; 163  : 			{
; 164  : 				if (intPhases[0][j] < 1572 || intPhases[0][j] > 1572 * 3)

  00243	8b 85 50 ff ff
	ff		 mov	 eax, DWORD PTR _j$5563[ebp]
  00249	0f bf 0c 45 00
	00 00 00	 movsx	 ecx, WORD PTR _intPhases[eax*2]
  00251	81 f9 24 06 00
	00		 cmp	 ecx, 1572		; 00000624H
  00257	7c 16		 jl	 SHORT $LN14@LookforUZ7
  00259	8b 85 50 ff ff
	ff		 mov	 eax, DWORD PTR _j$5563[ebp]
  0025f	0f bf 0c 45 00
	00 00 00	 movsx	 ecx, WORD PTR _intPhases[eax*2]
  00267	81 f9 6c 12 00
	00		 cmp	 ecx, 4716		; 0000126cH
  0026d	7e 0d		 jle	 SHORT $LN15@LookforUZ7
$LN14@LookforUZ7:

; 165  : 					x1[j] = '1';

  0026f	8b 85 50 ff ff
	ff		 mov	 eax, DWORD PTR _j$5563[ebp]
  00275	c6 44 05 98 31	 mov	 BYTE PTR _x1$5558[ebp+eax], 49 ; 00000031H

; 166  : 				else

  0027a	eb 0b		 jmp	 SHORT $LN13@LookforUZ7
$LN15@LookforUZ7:

; 167  : 					x1[j] = '0';

  0027c	8b 85 50 ff ff
	ff		 mov	 eax, DWORD PTR _j$5563[ebp]
  00282	c6 44 05 98 30	 mov	 BYTE PTR _x1$5558[ebp+eax], 48 ; 00000030H
$LN13@LookforUZ7:

; 168  : 				if (intPhases[1][j] < 1572 || intPhases[1][j] > 1572 * 3)

  00287	8b 85 50 ff ff
	ff		 mov	 eax, DWORD PTR _j$5563[ebp]
  0028d	0f bf 0c 45 10
	00 00 00	 movsx	 ecx, WORD PTR _intPhases[eax*2+16]
  00295	81 f9 24 06 00
	00		 cmp	 ecx, 1572		; 00000624H
  0029b	7c 16		 jl	 SHORT $LN11@LookforUZ7
  0029d	8b 85 50 ff ff
	ff		 mov	 eax, DWORD PTR _j$5563[ebp]
  002a3	0f bf 0c 45 10
	00 00 00	 movsx	 ecx, WORD PTR _intPhases[eax*2+16]
  002ab	81 f9 6c 12 00
	00		 cmp	 ecx, 4716		; 0000126cH
  002b1	7e 0d		 jle	 SHORT $LN12@LookforUZ7
$LN11@LookforUZ7:

; 169  : 					x2[j] = '1';

  002b3	8b 85 50 ff ff
	ff		 mov	 eax, DWORD PTR _j$5563[ebp]
  002b9	c6 44 05 84 31	 mov	 BYTE PTR _x2$5560[ebp+eax], 49 ; 00000031H

; 170  : 				else

  002be	eb 0b		 jmp	 SHORT $LN10@LookforUZ7
$LN12@LookforUZ7:

; 171  : 					x2[j] = '0';

  002c0	8b 85 50 ff ff
	ff		 mov	 eax, DWORD PTR _j$5563[ebp]
  002c6	c6 44 05 84 30	 mov	 BYTE PTR _x2$5560[ebp+eax], 48 ; 00000030H
$LN10@LookforUZ7:

; 172  : 				if (intPhases[2][j] < 1572 || intPhases[2][j] > 1572 * 3)

  002cb	8b 85 50 ff ff
	ff		 mov	 eax, DWORD PTR _j$5563[ebp]
  002d1	0f bf 0c 45 20
	00 00 00	 movsx	 ecx, WORD PTR _intPhases[eax*2+32]
  002d9	81 f9 24 06 00
	00		 cmp	 ecx, 1572		; 00000624H
  002df	7c 16		 jl	 SHORT $LN8@LookforUZ7
  002e1	8b 85 50 ff ff
	ff		 mov	 eax, DWORD PTR _j$5563[ebp]
  002e7	0f bf 0c 45 20
	00 00 00	 movsx	 ecx, WORD PTR _intPhases[eax*2+32]
  002ef	81 f9 6c 12 00
	00		 cmp	 ecx, 4716		; 0000126cH
  002f5	7e 10		 jle	 SHORT $LN9@LookforUZ7
$LN8@LookforUZ7:

; 173  : 					x3[j] = '1';

  002f7	8b 85 50 ff ff
	ff		 mov	 eax, DWORD PTR _j$5563[ebp]
  002fd	c6 84 05 70 ff
	ff ff 31	 mov	 BYTE PTR _x3$5561[ebp+eax], 49 ; 00000031H

; 174  : 				else

  00305	eb 0e		 jmp	 SHORT $LN7@LookforUZ7
$LN9@LookforUZ7:

; 175  : 					x3[j] = '0';

  00307	8b 85 50 ff ff
	ff		 mov	 eax, DWORD PTR _j$5563[ebp]
  0030d	c6 84 05 70 ff
	ff ff 30	 mov	 BYTE PTR _x3$5561[ebp+eax], 48 ; 00000030H
$LN7@LookforUZ7:

; 176  : 				if (intPhases[3][j] < 1572 || intPhases[3][j] > 1572 * 3)

  00315	8b 85 50 ff ff
	ff		 mov	 eax, DWORD PTR _j$5563[ebp]
  0031b	0f bf 0c 45 30
	00 00 00	 movsx	 ecx, WORD PTR _intPhases[eax*2+48]
  00323	81 f9 24 06 00
	00		 cmp	 ecx, 1572		; 00000624H
  00329	7c 16		 jl	 SHORT $LN5@LookforUZ7
  0032b	8b 85 50 ff ff
	ff		 mov	 eax, DWORD PTR _j$5563[ebp]
  00331	0f bf 0c 45 30
	00 00 00	 movsx	 ecx, WORD PTR _intPhases[eax*2+48]
  00339	81 f9 6c 12 00
	00		 cmp	 ecx, 4716		; 0000126cH
  0033f	7e 10		 jle	 SHORT $LN6@LookforUZ7
$LN5@LookforUZ7:

; 177  : 					x4[j] = '1';

  00341	8b 85 50 ff ff
	ff		 mov	 eax, DWORD PTR _j$5563[ebp]
  00347	c6 84 05 5c ff
	ff ff 31	 mov	 BYTE PTR _x4$5562[ebp+eax], 49 ; 00000031H

; 178  : 				else

  0034f	eb 0e		 jmp	 SHORT $LN4@LookforUZ7
$LN6@LookforUZ7:

; 179  : 					x4[j] = '0';

  00351	8b 85 50 ff ff
	ff		 mov	 eax, DWORD PTR _j$5563[ebp]
  00357	c6 84 05 5c ff
	ff ff 30	 mov	 BYTE PTR _x4$5562[ebp+eax], 48 ; 00000030H
$LN4@LookforUZ7:

; 180  : 			}

  0035f	e9 c3 fe ff ff	 jmp	 $LN17@LookforUZ7
$LN16@LookforUZ7:

; 181  : 
; 182  : 	//		CorrectPhaseForTuningOffset(intPhases, intPhasesLen, strMod);
; 183  : 
; 184  : 			printf("%d %d %d %d %d %d %d %d %d\n", 
; 185  : 				i, intMags[0][0], intMags[0][1], intMags[0][2], intMags[0][3], 
; 186  : 					intMags[0][4], intMags[0][5], intMags[0][6], intMags[0][7]);

  00364	0f bf 05 0e 00
	00 00		 movsx	 eax, WORD PTR _intMags+14
  0036b	50		 push	 eax
  0036c	0f bf 0d 0c 00
	00 00		 movsx	 ecx, WORD PTR _intMags+12
  00373	51		 push	 ecx
  00374	0f bf 15 0a 00
	00 00		 movsx	 edx, WORD PTR _intMags+10
  0037b	52		 push	 edx
  0037c	0f bf 05 08 00
	00 00		 movsx	 eax, WORD PTR _intMags+8
  00383	50		 push	 eax
  00384	0f bf 0d 06 00
	00 00		 movsx	 ecx, WORD PTR _intMags+6
  0038b	51		 push	 ecx
  0038c	0f bf 15 04 00
	00 00		 movsx	 edx, WORD PTR _intMags+4
  00393	52		 push	 edx
  00394	0f bf 05 02 00
	00 00		 movsx	 eax, WORD PTR _intMags+2
  0039b	50		 push	 eax
  0039c	0f bf 0d 00 00
	00 00		 movsx	 ecx, WORD PTR _intMags
  003a3	51		 push	 ecx
  003a4	8b 55 dc	 mov	 edx, DWORD PTR _i$[ebp]
  003a7	52		 push	 edx
  003a8	68 00 00 00 00	 push	 OFFSET ??_C@_0BM@EGCBINDL@?$CFd?5?$CFd?5?$CFd?5?$CFd?5?$CFd?5?$CFd?5?$CFd?5?$CFd?5?$CFd?6?$AA@
  003ad	e8 00 00 00 00	 call	 _printf
  003b2	83 c4 28	 add	 esp, 40			; 00000028H

; 187  : 
; 188  : 			printf("%d %d %d %d %d %d %d %d %d\n", 
; 189  : 					i, intPhases[0][0], intPhases[0][1], intPhases[0][2], intPhases[0][3], 
; 190  : 					intPhases[0][4], intPhases[0][5], intPhases[0][6], intPhases[0][7]);

  003b5	0f bf 05 0e 00
	00 00		 movsx	 eax, WORD PTR _intPhases+14
  003bc	50		 push	 eax
  003bd	0f bf 0d 0c 00
	00 00		 movsx	 ecx, WORD PTR _intPhases+12
  003c4	51		 push	 ecx
  003c5	0f bf 15 0a 00
	00 00		 movsx	 edx, WORD PTR _intPhases+10
  003cc	52		 push	 edx
  003cd	0f bf 05 08 00
	00 00		 movsx	 eax, WORD PTR _intPhases+8
  003d4	50		 push	 eax
  003d5	0f bf 0d 06 00
	00 00		 movsx	 ecx, WORD PTR _intPhases+6
  003dc	51		 push	 ecx
  003dd	0f bf 15 04 00
	00 00		 movsx	 edx, WORD PTR _intPhases+4
  003e4	52		 push	 edx
  003e5	0f bf 05 02 00
	00 00		 movsx	 eax, WORD PTR _intPhases+2
  003ec	50		 push	 eax
  003ed	0f bf 0d 00 00
	00 00		 movsx	 ecx, WORD PTR _intPhases
  003f4	51		 push	 ecx
  003f5	8b 55 dc	 mov	 edx, DWORD PTR _i$[ebp]
  003f8	52		 push	 edx
  003f9	68 00 00 00 00	 push	 OFFSET ??_C@_0BM@EGCBINDL@?$CFd?5?$CFd?5?$CFd?5?$CFd?5?$CFd?5?$CFd?5?$CFd?5?$CFd?5?$CFd?6?$AA@
  003fe	e8 00 00 00 00	 call	 _printf
  00403	83 c4 28	 add	 esp, 40			; 00000028H

; 191  : 
; 192  : 			printf ("%d %s %s %s %s \n", i, x1, x2, x3, x4);

  00406	8d 85 5c ff ff
	ff		 lea	 eax, DWORD PTR _x4$5562[ebp]
  0040c	50		 push	 eax
  0040d	8d 8d 70 ff ff
	ff		 lea	 ecx, DWORD PTR _x3$5561[ebp]
  00413	51		 push	 ecx
  00414	8d 55 84	 lea	 edx, DWORD PTR _x2$5560[ebp]
  00417	52		 push	 edx
  00418	8d 45 98	 lea	 eax, DWORD PTR _x1$5558[ebp]
  0041b	50		 push	 eax
  0041c	8b 4d dc	 mov	 ecx, DWORD PTR _i$[ebp]
  0041f	51		 push	 ecx
  00420	68 00 00 00 00	 push	 OFFSET ??_C@_0BB@GOJHMPNO@?$CFd?5?$CFs?5?$CFs?5?$CFs?5?$CFs?5?6?$AA@
  00425	e8 00 00 00 00	 call	 _printf
  0042a	83 c4 18	 add	 esp, 24			; 00000018H

; 193  : //					i, intPhases[0][0], intPhases[0][1], intPhases[0][2], intPhases[0][3], 
; 194  : //					intPhases[0][4], intPhases[0][5], intPhases[0][6], intPhases[0][7]);
; 195  : 
; 196  : 			//	When we get the TXDelay preamble we should see all zeros
; 197  : 	
; 198  : 			if (UZ7HOIndex == -1)

  0042d	83 3d 00 00 00
	00 ff		 cmp	 DWORD PTR _UZ7HOIndex, -1
  00434	75 7b		 jne	 SHORT $LN1@LookforUZ7

; 199  : 			{
; 200  : 				if (strcmp(x1, "00000000") == 0 &&
; 201  : 					strcmp(x2, "00000000") == 0 &&
; 202  : 					strcmp(x3, "00000000") == 0 &&
; 203  : 					strcmp(x4, "00000000") == 0
; 204  : 					)

  00436	68 00 00 00 00	 push	 OFFSET ??_C@_08LEDEEJEF@00000000?$AA@
  0043b	8d 45 98	 lea	 eax, DWORD PTR _x1$5558[ebp]
  0043e	50		 push	 eax
  0043f	e8 00 00 00 00	 call	 _strcmp
  00444	83 c4 08	 add	 esp, 8
  00447	85 c0		 test	 eax, eax
  00449	75 66		 jne	 SHORT $LN1@LookforUZ7
  0044b	68 00 00 00 00	 push	 OFFSET ??_C@_08LEDEEJEF@00000000?$AA@
  00450	8d 45 84	 lea	 eax, DWORD PTR _x2$5560[ebp]
  00453	50		 push	 eax
  00454	e8 00 00 00 00	 call	 _strcmp
  00459	83 c4 08	 add	 esp, 8
  0045c	85 c0		 test	 eax, eax
  0045e	75 51		 jne	 SHORT $LN1@LookforUZ7
  00460	68 00 00 00 00	 push	 OFFSET ??_C@_08LEDEEJEF@00000000?$AA@
  00465	8d 85 70 ff ff
	ff		 lea	 eax, DWORD PTR _x3$5561[ebp]
  0046b	50		 push	 eax
  0046c	e8 00 00 00 00	 call	 _strcmp
  00471	83 c4 08	 add	 esp, 8
  00474	85 c0		 test	 eax, eax
  00476	75 39		 jne	 SHORT $LN1@LookforUZ7
  00478	68 00 00 00 00	 push	 OFFSET ??_C@_08LEDEEJEF@00000000?$AA@
  0047d	8d 85 5c ff ff
	ff		 lea	 eax, DWORD PTR _x4$5562[ebp]
  00483	50		 push	 eax
  00484	e8 00 00 00 00	 call	 _strcmp
  00489	83 c4 08	 add	 esp, 8
  0048c	85 c0		 test	 eax, eax
  0048e	75 21		 jne	 SHORT $LN1@LookforUZ7

; 205  : 				{
; 206  : 					UZ7HOIndex = i + 1;

  00490	8b 45 dc	 mov	 eax, DWORD PTR _i$[ebp]
  00493	83 c0 01	 add	 eax, 1
  00496	a3 00 00 00 00	 mov	 DWORD PTR _UZ7HOIndex, eax

; 207  : 					if (UZ7HOIndex > 119)

  0049b	83 3d 00 00 00
	00 77		 cmp	 DWORD PTR _UZ7HOIndex, 119 ; 00000077H
  004a2	7e 0d		 jle	 SHORT $LN1@LookforUZ7

; 208  : 						UZ7HOIndex -= 120;

  004a4	a1 00 00 00 00	 mov	 eax, DWORD PTR _UZ7HOIndex
  004a9	83 e8 78	 sub	 eax, 120		; 00000078H
  004ac	a3 00 00 00 00	 mov	 DWORD PTR _UZ7HOIndex, eax
$LN1@LookforUZ7:

; 209  : 				}
; 210  : 			}
; 211  : 			intPhasesLen = 0;

  004b1	c7 05 00 00 00
	00 00 00 00 00	 mov	 DWORD PTR _intPhasesLen, 0

; 212  : 		}	

  004bb	e9 24 fc ff ff	 jmp	 $LN20@LookforUZ7
$LN19@LookforUZ7:

; 213  : 		intFilteredMixedSamplesLength -= 960;

  004c0	a1 00 00 00 00	 mov	 eax, DWORD PTR _intFilteredMixedSamplesLength
  004c5	2d c0 03 00 00	 sub	 eax, 960		; 000003c0H
  004ca	a3 00 00 00 00	 mov	 DWORD PTR _intFilteredMixedSamplesLength, eax

; 214  : 		OuterStart += 960;

  004cf	8b 45 e8	 mov	 eax, DWORD PTR _OuterStart$[ebp]
  004d2	05 c0 03 00 00	 add	 eax, 960		; 000003c0H
  004d7	89 45 e8	 mov	 DWORD PTR _OuterStart$[ebp], eax

; 215  : 	}

  004da	e9 c3 fb ff ff	 jmp	 $LN25@LookforUZ7
$LN24@LookforUZ7:

; 216  : 	memmove(intFilteredMixedSamples,
; 217  : 		&intFilteredMixedSamples[OuterStart], intFilteredMixedSamplesLength * 2);

  004df	a1 00 00 00 00	 mov	 eax, DWORD PTR _intFilteredMixedSamplesLength
  004e4	d1 e0		 shl	 eax, 1
  004e6	50		 push	 eax
  004e7	8b 4d e8	 mov	 ecx, DWORD PTR _OuterStart$[ebp]
  004ea	8d 14 4d 00 00
	00 00		 lea	 edx, DWORD PTR _intFilteredMixedSamples[ecx*2]
  004f1	52		 push	 edx
  004f2	68 00 00 00 00	 push	 OFFSET _intFilteredMixedSamples
  004f7	e8 00 00 00 00	 call	 _memmove
  004fc	83 c4 0c	 add	 esp, 12			; 0000000cH

; 218  : 
; 219  : 	return FALSE;

  004ff	33 c0		 xor	 eax, eax

; 220  : 	
; 221  : }	// end of UZ7HO

  00501	52		 push	 edx
  00502	8b cd		 mov	 ecx, ebp
  00504	50		 push	 eax
  00505	8d 15 00 00 00
	00		 lea	 edx, DWORD PTR $LN37@LookforUZ7
  0050b	e8 00 00 00 00	 call	 @_RTC_CheckStackVars@8
  00510	58		 pop	 eax
  00511	5a		 pop	 edx
  00512	5f		 pop	 edi
  00513	5e		 pop	 esi
  00514	5b		 pop	 ebx
  00515	8b 4d fc	 mov	 ecx, DWORD PTR __$ArrayPad$[ebp]
  00518	33 cd		 xor	 ecx, ebp
  0051a	e8 00 00 00 00	 call	 @__security_check_cookie@4
  0051f	81 c4 80 01 00
	00		 add	 esp, 384		; 00000180H
  00525	3b ec		 cmp	 ebp, esp
  00527	e8 00 00 00 00	 call	 __RTC_CheckEsp
  0052c	8b e5		 mov	 esp, ebp
  0052e	5d		 pop	 ebp
  0052f	c3		 ret	 0
$LN37@LookforUZ7:
  00530	05 00 00 00	 DD	 5
  00534	00 00 00 00	 DD	 $LN36@LookforUZ7
$LN36@LookforUZ7:
  00538	ac ff ff ff	 DD	 -84			; ffffffacH
  0053c	10 00 00 00	 DD	 16			; 00000010H
  00540	00 00 00 00	 DD	 $LN31@LookforUZ7
  00544	98 ff ff ff	 DD	 -104			; ffffff98H
  00548	0a 00 00 00	 DD	 10			; 0000000aH
  0054c	00 00 00 00	 DD	 $LN32@LookforUZ7
  00550	84 ff ff ff	 DD	 -124			; ffffff84H
  00554	0a 00 00 00	 DD	 10			; 0000000aH
  00558	00 00 00 00	 DD	 $LN33@LookforUZ7
  0055c	70 ff ff ff	 DD	 -144			; ffffff70H
  00560	0a 00 00 00	 DD	 10			; 0000000aH
  00564	00 00 00 00	 DD	 $LN34@LookforUZ7
  00568	5c ff ff ff	 DD	 -164			; ffffff5cH
  0056c	0a 00 00 00	 DD	 10			; 0000000aH
  00570	00 00 00 00	 DD	 $LN35@LookforUZ7
$LN35@LookforUZ7:
  00574	78		 DB	 120			; 00000078H
  00575	34		 DB	 52			; 00000034H
  00576	00		 DB	 0
$LN34@LookforUZ7:
  00577	78		 DB	 120			; 00000078H
  00578	33		 DB	 51			; 00000033H
  00579	00		 DB	 0
$LN33@LookforUZ7:
  0057a	78		 DB	 120			; 00000078H
  0057b	32		 DB	 50			; 00000032H
  0057c	00		 DB	 0
$LN32@LookforUZ7:
  0057d	78		 DB	 120			; 00000078H
  0057e	31		 DB	 49			; 00000031H
  0057f	00		 DB	 0
$LN31@LookforUZ7:
  00580	63		 DB	 99			; 00000063H
  00581	61		 DB	 97			; 00000061H
  00582	72		 DB	 114			; 00000072H
  00583	72		 DB	 114			; 00000072H
  00584	69		 DB	 105			; 00000069H
  00585	65		 DB	 101			; 00000065H
  00586	72		 DB	 114			; 00000072H
  00587	73		 DB	 115			; 00000073H
  00588	00		 DB	 0
_LookforUZ7HOLeader ENDP
_TEXT	ENDS
END
