; Listing generated by Microsoft (R) Optimizing Compiler Version 14.00.50727.42 

	TITLE	c:\SkyDrive\Dev\Source\ARDOPC\xrs.c
	.686P
	.XMM
	include listing.inc
	.model	flat

INCLUDELIB LIBCMTD
INCLUDELIB OLDNAMES

PUBLIC	_pp
PUBLIC	_count
PUBLIC	_syn_error
_DATA	SEGMENT
COMM	_gg:DWORD:0ffH
COMM	_l:DWORD:0101H
COMM	_recd:DWORD:0ffH
COMM	_bb:DWORD:0ffH
COMM	_err:DWORD:0ffH
COMM	_reg:DWORD:065H
COMM	_loc:DWORD:064H
COMM	_s:DWORD:0100H
COMM	_alpha_to:DWORD:0100H
COMM	_u_lu:DWORD:0101H
COMM	_z:DWORD:065H
COMM	_root:DWORD:064H
COMM	_tt:DWORD
COMM	_data:DWORD:0ffH
COMM	_elp:DWORD:0ffffH
COMM	_index_of:DWORD:0100H
COMM	_d:DWORD:0101H
COMM	_kk:DWORD
_DATA	ENDS
_BSS	SEGMENT
_count	DD	01H DUP (?)
_syn_error DD	01H DUP (?)
_BSS	ENDS
_DATA	SEGMENT
_pp	DD	01H
	DD	00H
	DD	01H
	DD	01H
	DD	01H
	DD	00H
	DD	00H
	DD	00H
	DD	01H
_DATA	ENDS
PUBLIC	_generate_gf
EXTRN	__RTC_Shutdown:PROC
EXTRN	__RTC_InitBase:PROC
;	COMDAT rtc$TMZ
; File c:\skydrive\dev\source\ardopc\xrs.c
rtc$TMZ	SEGMENT
__RTC_Shutdown.rtc$TMZ DD FLAT:__RTC_Shutdown
rtc$TMZ	ENDS
;	COMDAT rtc$IMZ
rtc$IMZ	SEGMENT
__RTC_InitBase.rtc$IMZ DD FLAT:__RTC_InitBase
; Function compile flags: /Odtp /RTCsu /ZI
rtc$IMZ	ENDS
;	COMDAT _generate_gf
_TEXT	SEGMENT
_mask$ = -20						; size = 4
_i$ = -8						; size = 4
_generate_gf PROC					; COMDAT

; 69   :  {

  00000	55		 push	 ebp
  00001	8b ec		 mov	 ebp, esp
  00003	81 ec d8 00 00
	00		 sub	 esp, 216		; 000000d8H
  00009	53		 push	 ebx
  0000a	56		 push	 esi
  0000b	57		 push	 edi
  0000c	8d bd 28 ff ff
	ff		 lea	 edi, DWORD PTR [ebp-216]
  00012	b9 36 00 00 00	 mov	 ecx, 54			; 00000036H
  00017	b8 cc cc cc cc	 mov	 eax, -858993460		; ccccccccH
  0001c	f3 ab		 rep stosd

; 70   :    register int i, mask ;
; 71   : 
; 72   :   mask = 1 ;

  0001e	c7 45 ec 01 00
	00 00		 mov	 DWORD PTR _mask$[ebp], 1

; 73   :   alpha_to[mm] = 0 ;

  00025	c7 05 20 00 00
	00 00 00 00 00	 mov	 DWORD PTR _alpha_to+32, 0

; 74   :   for (i=0; i<mm; i++)

  0002f	c7 45 f8 00 00
	00 00		 mov	 DWORD PTR _i$[ebp], 0
  00036	eb 09		 jmp	 SHORT $LN9@generate_g
$LN8@generate_g:
  00038	8b 45 f8	 mov	 eax, DWORD PTR _i$[ebp]
  0003b	83 c0 01	 add	 eax, 1
  0003e	89 45 f8	 mov	 DWORD PTR _i$[ebp], eax
$LN9@generate_g:
  00041	83 7d f8 08	 cmp	 DWORD PTR _i$[ebp], 8
  00045	7d 45		 jge	 SHORT $LN7@generate_g

; 75   :    { alpha_to[i] = mask ;

  00047	8b 45 f8	 mov	 eax, DWORD PTR _i$[ebp]
  0004a	8b 4d ec	 mov	 ecx, DWORD PTR _mask$[ebp]
  0004d	89 0c 85 00 00
	00 00		 mov	 DWORD PTR _alpha_to[eax*4], ecx

; 76   :      index_of[alpha_to[i]] = i ;

  00054	8b 45 f8	 mov	 eax, DWORD PTR _i$[ebp]
  00057	8b 0c 85 00 00
	00 00		 mov	 ecx, DWORD PTR _alpha_to[eax*4]
  0005e	8b 55 f8	 mov	 edx, DWORD PTR _i$[ebp]
  00061	89 14 8d 00 00
	00 00		 mov	 DWORD PTR _index_of[ecx*4], edx

; 77   :      if (pp[i]!=0)

  00068	8b 45 f8	 mov	 eax, DWORD PTR _i$[ebp]
  0006b	83 3c 85 00 00
	00 00 00	 cmp	 DWORD PTR _pp[eax*4], 0
  00073	74 0d		 je	 SHORT $LN6@generate_g

; 78   :        alpha_to[mm] ^= mask ;

  00075	a1 20 00 00 00	 mov	 eax, DWORD PTR _alpha_to+32
  0007a	33 45 ec	 xor	 eax, DWORD PTR _mask$[ebp]
  0007d	a3 20 00 00 00	 mov	 DWORD PTR _alpha_to+32, eax
$LN6@generate_g:

; 79   :      mask <<= 1 ;

  00082	8b 45 ec	 mov	 eax, DWORD PTR _mask$[ebp]
  00085	d1 e0		 shl	 eax, 1
  00087	89 45 ec	 mov	 DWORD PTR _mask$[ebp], eax

; 80   :    }

  0008a	eb ac		 jmp	 SHORT $LN8@generate_g
$LN7@generate_g:

; 81   :   index_of[alpha_to[mm]] = mm ;

  0008c	a1 20 00 00 00	 mov	 eax, DWORD PTR _alpha_to+32
  00091	c7 04 85 00 00
	00 00 08 00 00
	00		 mov	 DWORD PTR _index_of[eax*4], 8

; 82   :   mask >>= 1 ;

  0009c	8b 45 ec	 mov	 eax, DWORD PTR _mask$[ebp]
  0009f	d1 f8		 sar	 eax, 1
  000a1	89 45 ec	 mov	 DWORD PTR _mask$[ebp], eax

; 83   :   for (i=mm+1; i<nn; i++)

  000a4	c7 45 f8 09 00
	00 00		 mov	 DWORD PTR _i$[ebp], 9
  000ab	eb 09		 jmp	 SHORT $LN5@generate_g
$LN4@generate_g:
  000ad	8b 45 f8	 mov	 eax, DWORD PTR _i$[ebp]
  000b0	83 c0 01	 add	 eax, 1
  000b3	89 45 f8	 mov	 DWORD PTR _i$[ebp], eax
$LN5@generate_g:
  000b6	81 7d f8 ff 00
	00 00		 cmp	 DWORD PTR _i$[ebp], 255	; 000000ffH
  000bd	7d 5c		 jge	 SHORT $LN3@generate_g

; 84   :    { if (alpha_to[i-1] >= mask)

  000bf	8b 45 f8	 mov	 eax, DWORD PTR _i$[ebp]
  000c2	8b 0c 85 fc ff
	ff ff		 mov	 ecx, DWORD PTR _alpha_to[eax*4-4]
  000c9	3b 4d ec	 cmp	 ecx, DWORD PTR _mask$[ebp]
  000cc	7c 21		 jl	 SHORT $LN2@generate_g

; 85   :         alpha_to[i] = alpha_to[mm] ^ ((alpha_to[i-1]^mask)<<1) ;

  000ce	8b 45 f8	 mov	 eax, DWORD PTR _i$[ebp]
  000d1	8b 0c 85 fc ff
	ff ff		 mov	 ecx, DWORD PTR _alpha_to[eax*4-4]
  000d8	33 4d ec	 xor	 ecx, DWORD PTR _mask$[ebp]
  000db	d1 e1		 shl	 ecx, 1
  000dd	33 0d 20 00 00
	00		 xor	 ecx, DWORD PTR _alpha_to+32
  000e3	8b 55 f8	 mov	 edx, DWORD PTR _i$[ebp]
  000e6	89 0c 95 00 00
	00 00		 mov	 DWORD PTR _alpha_to[edx*4], ecx
  000ed	eb 16		 jmp	 SHORT $LN1@generate_g
$LN2@generate_g:

; 86   :      else alpha_to[i] = alpha_to[i-1]<<1 ;

  000ef	8b 45 f8	 mov	 eax, DWORD PTR _i$[ebp]
  000f2	8b 0c 85 fc ff
	ff ff		 mov	 ecx, DWORD PTR _alpha_to[eax*4-4]
  000f9	d1 e1		 shl	 ecx, 1
  000fb	8b 55 f8	 mov	 edx, DWORD PTR _i$[ebp]
  000fe	89 0c 95 00 00
	00 00		 mov	 DWORD PTR _alpha_to[edx*4], ecx
$LN1@generate_g:

; 87   :      index_of[alpha_to[i]] = i ;

  00105	8b 45 f8	 mov	 eax, DWORD PTR _i$[ebp]
  00108	8b 0c 85 00 00
	00 00		 mov	 ecx, DWORD PTR _alpha_to[eax*4]
  0010f	8b 55 f8	 mov	 edx, DWORD PTR _i$[ebp]
  00112	89 14 8d 00 00
	00 00		 mov	 DWORD PTR _index_of[ecx*4], edx

; 88   :    }

  00119	eb 92		 jmp	 SHORT $LN4@generate_g
$LN3@generate_g:

; 89   :   index_of[0] = -1 ;

  0011b	c7 05 00 00 00
	00 ff ff ff ff	 mov	 DWORD PTR _index_of, -1

; 90   :  }

  00125	5f		 pop	 edi
  00126	5e		 pop	 esi
  00127	5b		 pop	 ebx
  00128	8b e5		 mov	 esp, ebp
  0012a	5d		 pop	 ebp
  0012b	c3		 ret	 0
_generate_gf ENDP
_TEXT	ENDS
PUBLIC	_gen_poly
; Function compile flags: /Odtp /RTCsu /ZI
;	COMDAT _gen_poly
_TEXT	SEGMENT
_j$ = -20						; size = 4
_i$ = -8						; size = 4
_gen_poly PROC						; COMDAT

; 97   :  {

  00000	55		 push	 ebp
  00001	8b ec		 mov	 ebp, esp
  00003	81 ec d8 00 00
	00		 sub	 esp, 216		; 000000d8H
  00009	53		 push	 ebx
  0000a	56		 push	 esi
  0000b	57		 push	 edi
  0000c	8d bd 28 ff ff
	ff		 lea	 edi, DWORD PTR [ebp-216]
  00012	b9 36 00 00 00	 mov	 ecx, 54			; 00000036H
  00017	b8 cc cc cc cc	 mov	 eax, -858993460		; ccccccccH
  0001c	f3 ab		 rep stosd

; 98   :    register int i,j ;
; 99   : 
; 100  :    gg[0] = 2 ;    /* primitive element alpha = 2  for GF(2**mm)  */

  0001e	c7 05 00 00 00
	00 02 00 00 00	 mov	 DWORD PTR _gg, 2

; 101  :    gg[1] = 1 ;    /* g(x) = (X+alpha) initially */

  00028	c7 05 04 00 00
	00 01 00 00 00	 mov	 DWORD PTR _gg+4, 1

; 102  :    for (i=2; i<=nn-kk; i++)

  00032	c7 45 f8 02 00
	00 00		 mov	 DWORD PTR _i$[ebp], 2
  00039	eb 09		 jmp	 SHORT $LN11@gen_poly
$LN10@gen_poly:
  0003b	8b 45 f8	 mov	 eax, DWORD PTR _i$[ebp]
  0003e	83 c0 01	 add	 eax, 1
  00041	89 45 f8	 mov	 DWORD PTR _i$[ebp], eax
$LN11@gen_poly:
  00044	b8 ff 00 00 00	 mov	 eax, 255		; 000000ffH
  00049	2b 05 00 00 00
	00		 sub	 eax, DWORD PTR _kk
  0004f	39 45 f8	 cmp	 DWORD PTR _i$[ebp], eax
  00052	0f 8f ad 00 00
	00		 jg	 $LN9@gen_poly

; 103  :     { gg[i] = 1 ;

  00058	8b 45 f8	 mov	 eax, DWORD PTR _i$[ebp]
  0005b	c7 04 85 00 00
	00 00 01 00 00
	00		 mov	 DWORD PTR _gg[eax*4], 1

; 104  :       for (j=i-1; j>0; j--)

  00066	8b 45 f8	 mov	 eax, DWORD PTR _i$[ebp]
  00069	83 e8 01	 sub	 eax, 1
  0006c	89 45 ec	 mov	 DWORD PTR _j$[ebp], eax
  0006f	eb 09		 jmp	 SHORT $LN8@gen_poly
$LN7@gen_poly:
  00071	8b 45 ec	 mov	 eax, DWORD PTR _j$[ebp]
  00074	83 e8 01	 sub	 eax, 1
  00077	89 45 ec	 mov	 DWORD PTR _j$[ebp], eax
$LN8@gen_poly:
  0007a	83 7d ec 00	 cmp	 DWORD PTR _j$[ebp], 0
  0007e	7e 5c		 jle	 SHORT $LN6@gen_poly

; 105  :         if (gg[j] != 0)  gg[j] = gg[j-1]^ alpha_to[(index_of[gg[j]]+i)%nn] ;

  00080	8b 45 ec	 mov	 eax, DWORD PTR _j$[ebp]
  00083	83 3c 85 00 00
	00 00 00	 cmp	 DWORD PTR _gg[eax*4], 0
  0008b	74 39		 je	 SHORT $LN5@gen_poly
  0008d	8b 45 ec	 mov	 eax, DWORD PTR _j$[ebp]
  00090	8b 0c 85 00 00
	00 00		 mov	 ecx, DWORD PTR _gg[eax*4]
  00097	8b 04 8d 00 00
	00 00		 mov	 eax, DWORD PTR _index_of[ecx*4]
  0009e	03 45 f8	 add	 eax, DWORD PTR _i$[ebp]
  000a1	99		 cdq
  000a2	b9 ff 00 00 00	 mov	 ecx, 255		; 000000ffH
  000a7	f7 f9		 idiv	 ecx
  000a9	8b 45 ec	 mov	 eax, DWORD PTR _j$[ebp]
  000ac	8b 0c 85 fc ff
	ff ff		 mov	 ecx, DWORD PTR _gg[eax*4-4]
  000b3	33 0c 95 00 00
	00 00		 xor	 ecx, DWORD PTR _alpha_to[edx*4]
  000ba	8b 55 ec	 mov	 edx, DWORD PTR _j$[ebp]
  000bd	89 0c 95 00 00
	00 00		 mov	 DWORD PTR _gg[edx*4], ecx
  000c4	eb 14		 jmp	 SHORT $LN4@gen_poly
$LN5@gen_poly:

; 106  :         else gg[j] = gg[j-1] ;

  000c6	8b 45 ec	 mov	 eax, DWORD PTR _j$[ebp]
  000c9	8b 4d ec	 mov	 ecx, DWORD PTR _j$[ebp]
  000cc	8b 14 8d fc ff
	ff ff		 mov	 edx, DWORD PTR _gg[ecx*4-4]
  000d3	89 14 85 00 00
	00 00		 mov	 DWORD PTR _gg[eax*4], edx
$LN4@gen_poly:
  000da	eb 95		 jmp	 SHORT $LN7@gen_poly
$LN6@gen_poly:

; 107  :       gg[0] = alpha_to[(index_of[gg[0]]+i)%nn] ;     /* gg[0] can never be zero */

  000dc	a1 00 00 00 00	 mov	 eax, DWORD PTR _gg
  000e1	8b 04 85 00 00
	00 00		 mov	 eax, DWORD PTR _index_of[eax*4]
  000e8	03 45 f8	 add	 eax, DWORD PTR _i$[ebp]
  000eb	99		 cdq
  000ec	b9 ff 00 00 00	 mov	 ecx, 255		; 000000ffH
  000f1	f7 f9		 idiv	 ecx
  000f3	8b 14 95 00 00
	00 00		 mov	 edx, DWORD PTR _alpha_to[edx*4]
  000fa	89 15 00 00 00
	00		 mov	 DWORD PTR _gg, edx

; 108  :     }

  00100	e9 36 ff ff ff	 jmp	 $LN10@gen_poly
$LN9@gen_poly:

; 109  :    /* convert gg[] to index form for quicker encoding */
; 110  :    for (i=0; i<=nn-kk; i++)  gg[i] = index_of[gg[i]] ;

  00105	c7 45 f8 00 00
	00 00		 mov	 DWORD PTR _i$[ebp], 0
  0010c	eb 09		 jmp	 SHORT $LN3@gen_poly
$LN2@gen_poly:
  0010e	8b 45 f8	 mov	 eax, DWORD PTR _i$[ebp]
  00111	83 c0 01	 add	 eax, 1
  00114	89 45 f8	 mov	 DWORD PTR _i$[ebp], eax
$LN3@gen_poly:
  00117	b8 ff 00 00 00	 mov	 eax, 255		; 000000ffH
  0011c	2b 05 00 00 00
	00		 sub	 eax, DWORD PTR _kk
  00122	39 45 f8	 cmp	 DWORD PTR _i$[ebp], eax
  00125	7f 1d		 jg	 SHORT $LN12@gen_poly
  00127	8b 45 f8	 mov	 eax, DWORD PTR _i$[ebp]
  0012a	8b 0c 85 00 00
	00 00		 mov	 ecx, DWORD PTR _gg[eax*4]
  00131	8b 55 f8	 mov	 edx, DWORD PTR _i$[ebp]
  00134	8b 04 8d 00 00
	00 00		 mov	 eax, DWORD PTR _index_of[ecx*4]
  0013b	89 04 95 00 00
	00 00		 mov	 DWORD PTR _gg[edx*4], eax
  00142	eb ca		 jmp	 SHORT $LN2@gen_poly
$LN12@gen_poly:

; 111  :  }

  00144	5f		 pop	 edi
  00145	5e		 pop	 esi
  00146	5b		 pop	 ebx
  00147	8b e5		 mov	 esp, ebp
  00149	5d		 pop	 ebp
  0014a	c3		 ret	 0
_gen_poly ENDP
_TEXT	ENDS
PUBLIC	??_C@_0L@LPNPPBCE@?$CFd?5?$CFd?5?$CFd?$AN?6?$AA@ ; `string'
PUBLIC	_encode_rs
EXTRN	_printf:PROC
EXTRN	__RTC_CheckEsp:PROC
;	COMDAT ??_C@_0L@LPNPPBCE@?$CFd?5?$CFd?5?$CFd?$AN?6?$AA@
CONST	SEGMENT
??_C@_0L@LPNPPBCE@?$CFd?5?$CFd?5?$CFd?$AN?6?$AA@ DB '%d %d %d', 0dH, 0aH, 00H ; `string'
; Function compile flags: /Odtp /RTCsu /ZI
CONST	ENDS
;	COMDAT _encode_rs
_TEXT	SEGMENT
_feedback$ = -32					; size = 4
_j$ = -20						; size = 4
_i$ = -8						; size = 4
_encode_rs PROC						; COMDAT

; 121  :  {

  00000	55		 push	 ebp
  00001	8b ec		 mov	 ebp, esp
  00003	81 ec e4 00 00
	00		 sub	 esp, 228		; 000000e4H
  00009	53		 push	 ebx
  0000a	56		 push	 esi
  0000b	57		 push	 edi
  0000c	8d bd 1c ff ff
	ff		 lea	 edi, DWORD PTR [ebp-228]
  00012	b9 39 00 00 00	 mov	 ecx, 57			; 00000039H
  00017	b8 cc cc cc cc	 mov	 eax, -858993460		; ccccccccH
  0001c	f3 ab		 rep stosd

; 122  :    register int i,j ;
; 123  :    int feedback ;
; 124  : 
; 125  :    for (i=0; i<nn-kk; i++)

  0001e	c7 45 f8 00 00
	00 00		 mov	 DWORD PTR _i$[ebp], 0
  00025	eb 09		 jmp	 SHORT $LN16@encode_rs
$LN15@encode_rs:
  00027	8b 45 f8	 mov	 eax, DWORD PTR _i$[ebp]
  0002a	83 c0 01	 add	 eax, 1
  0002d	89 45 f8	 mov	 DWORD PTR _i$[ebp], eax
$LN16@encode_rs:
  00030	b8 ff 00 00 00	 mov	 eax, 255		; 000000ffH
  00035	2b 05 00 00 00
	00		 sub	 eax, DWORD PTR _kk
  0003b	39 45 f8	 cmp	 DWORD PTR _i$[ebp], eax
  0003e	7d 10		 jge	 SHORT $LN14@encode_rs

; 126  : 	   bb[i] = 0 ;

  00040	8b 45 f8	 mov	 eax, DWORD PTR _i$[ebp]
  00043	c7 04 85 00 00
	00 00 00 00 00
	00		 mov	 DWORD PTR _bb[eax*4], 0
  0004e	eb d7		 jmp	 SHORT $LN15@encode_rs
$LN14@encode_rs:

; 127  : 
; 128  :    for (i=kk-1; i>=0; i--)

  00050	a1 00 00 00 00	 mov	 eax, DWORD PTR _kk
  00055	83 e8 01	 sub	 eax, 1
  00058	89 45 f8	 mov	 DWORD PTR _i$[ebp], eax
  0005b	eb 09		 jmp	 SHORT $LN13@encode_rs
$LN12@encode_rs:
  0005d	8b 45 f8	 mov	 eax, DWORD PTR _i$[ebp]
  00060	83 e8 01	 sub	 eax, 1
  00063	89 45 f8	 mov	 DWORD PTR _i$[ebp], eax
$LN13@encode_rs:
  00066	83 7d f8 00	 cmp	 DWORD PTR _i$[ebp], 0
  0006a	0f 8c 2b 01 00
	00		 jl	 $LN17@encode_rs

; 129  :    {
; 130  : 	   feedback = index_of[data[i] ^ bb[nn-kk-1]] ;

  00070	b8 ff 00 00 00	 mov	 eax, 255		; 000000ffH
  00075	2b 05 00 00 00
	00		 sub	 eax, DWORD PTR _kk
  0007b	8b 4d f8	 mov	 ecx, DWORD PTR _i$[ebp]
  0007e	8b 14 8d 00 00
	00 00		 mov	 edx, DWORD PTR _data[ecx*4]
  00085	33 14 85 fc ff
	ff ff		 xor	 edx, DWORD PTR _bb[eax*4-4]
  0008c	8b 04 95 00 00
	00 00		 mov	 eax, DWORD PTR _index_of[edx*4]
  00093	89 45 e0	 mov	 DWORD PTR _feedback$[ebp], eax

; 131  :        if (feedback != -1)

  00096	83 7d e0 ff	 cmp	 DWORD PTR _feedback$[ebp], -1
  0009a	0f 84 96 00 00
	00		 je	 $LN10@encode_rs

; 132  :        {
; 133  : 		   for (j=nn-kk-1; j>0; j--)

  000a0	b8 ff 00 00 00	 mov	 eax, 255		; 000000ffH
  000a5	2b 05 00 00 00
	00		 sub	 eax, DWORD PTR _kk
  000ab	83 e8 01	 sub	 eax, 1
  000ae	89 45 ec	 mov	 DWORD PTR _j$[ebp], eax
  000b1	eb 09		 jmp	 SHORT $LN9@encode_rs
$LN8@encode_rs:
  000b3	8b 45 ec	 mov	 eax, DWORD PTR _j$[ebp]
  000b6	83 e8 01	 sub	 eax, 1
  000b9	89 45 ec	 mov	 DWORD PTR _j$[ebp], eax
$LN9@encode_rs:
  000bc	83 7d ec 00	 cmp	 DWORD PTR _j$[ebp], 0
  000c0	7e 55		 jle	 SHORT $LN7@encode_rs

; 134  :             if (gg[j] != -1)

  000c2	8b 45 ec	 mov	 eax, DWORD PTR _j$[ebp]
  000c5	83 3c 85 00 00
	00 00 ff	 cmp	 DWORD PTR _gg[eax*4], -1
  000cd	74 32		 je	 SHORT $LN6@encode_rs

; 135  :               bb[j] = bb[j-1] ^ alpha_to[(gg[j]+feedback)%nn] ;

  000cf	8b 45 ec	 mov	 eax, DWORD PTR _j$[ebp]
  000d2	8b 04 85 00 00
	00 00		 mov	 eax, DWORD PTR _gg[eax*4]
  000d9	03 45 e0	 add	 eax, DWORD PTR _feedback$[ebp]
  000dc	99		 cdq
  000dd	b9 ff 00 00 00	 mov	 ecx, 255		; 000000ffH
  000e2	f7 f9		 idiv	 ecx
  000e4	8b 45 ec	 mov	 eax, DWORD PTR _j$[ebp]
  000e7	8b 0c 85 fc ff
	ff ff		 mov	 ecx, DWORD PTR _bb[eax*4-4]
  000ee	33 0c 95 00 00
	00 00		 xor	 ecx, DWORD PTR _alpha_to[edx*4]
  000f5	8b 55 ec	 mov	 edx, DWORD PTR _j$[ebp]
  000f8	89 0c 95 00 00
	00 00		 mov	 DWORD PTR _bb[edx*4], ecx

; 136  :             else

  000ff	eb 14		 jmp	 SHORT $LN5@encode_rs
$LN6@encode_rs:

; 137  :               bb[j] = bb[j-1] ;

  00101	8b 45 ec	 mov	 eax, DWORD PTR _j$[ebp]
  00104	8b 4d ec	 mov	 ecx, DWORD PTR _j$[ebp]
  00107	8b 14 8d fc ff
	ff ff		 mov	 edx, DWORD PTR _bb[ecx*4-4]
  0010e	89 14 85 00 00
	00 00		 mov	 DWORD PTR _bb[eax*4], edx
$LN5@encode_rs:
  00115	eb 9c		 jmp	 SHORT $LN8@encode_rs
$LN7@encode_rs:

; 138  :           bb[0] = alpha_to[(gg[0]+feedback)%nn] ;

  00117	a1 00 00 00 00	 mov	 eax, DWORD PTR _gg
  0011c	03 45 e0	 add	 eax, DWORD PTR _feedback$[ebp]
  0011f	99		 cdq
  00120	b9 ff 00 00 00	 mov	 ecx, 255		; 000000ffH
  00125	f7 f9		 idiv	 ecx
  00127	8b 14 95 00 00
	00 00		 mov	 edx, DWORD PTR _alpha_to[edx*4]
  0012e	89 15 00 00 00
	00		 mov	 DWORD PTR _bb, edx

; 139  :        }
; 140  :        else

  00134	eb 42		 jmp	 SHORT $LN4@encode_rs
$LN10@encode_rs:

; 141  :        {
; 142  : 		   for (j=nn-kk-1; j>0; j--)

  00136	b8 ff 00 00 00	 mov	 eax, 255		; 000000ffH
  0013b	2b 05 00 00 00
	00		 sub	 eax, DWORD PTR _kk
  00141	83 e8 01	 sub	 eax, 1
  00144	89 45 ec	 mov	 DWORD PTR _j$[ebp], eax
  00147	eb 09		 jmp	 SHORT $LN3@encode_rs
$LN2@encode_rs:
  00149	8b 45 ec	 mov	 eax, DWORD PTR _j$[ebp]
  0014c	83 e8 01	 sub	 eax, 1
  0014f	89 45 ec	 mov	 DWORD PTR _j$[ebp], eax
$LN3@encode_rs:
  00152	83 7d ec 00	 cmp	 DWORD PTR _j$[ebp], 0
  00156	7e 16		 jle	 SHORT $LN1@encode_rs

; 143  : 			   bb[j] = bb[j-1] ;

  00158	8b 45 ec	 mov	 eax, DWORD PTR _j$[ebp]
  0015b	8b 4d ec	 mov	 ecx, DWORD PTR _j$[ebp]
  0015e	8b 14 8d fc ff
	ff ff		 mov	 edx, DWORD PTR _bb[ecx*4-4]
  00165	89 14 85 00 00
	00 00		 mov	 DWORD PTR _bb[eax*4], edx
  0016c	eb db		 jmp	 SHORT $LN2@encode_rs
$LN1@encode_rs:

; 144  : 		   bb[0] = 0 ;

  0016e	c7 05 00 00 00
	00 00 00 00 00	 mov	 DWORD PTR _bb, 0
$LN4@encode_rs:

; 145  :        } ;
; 146  : 	   printf("%d %d %d\r\n", i, bb[0], bb[1]);

  00178	a1 04 00 00 00	 mov	 eax, DWORD PTR _bb+4
  0017d	50		 push	 eax
  0017e	8b 0d 00 00 00
	00		 mov	 ecx, DWORD PTR _bb
  00184	51		 push	 ecx
  00185	8b 55 f8	 mov	 edx, DWORD PTR _i$[ebp]
  00188	52		 push	 edx
  00189	68 00 00 00 00	 push	 OFFSET ??_C@_0L@LPNPPBCE@?$CFd?5?$CFd?5?$CFd?$AN?6?$AA@
  0018e	e8 00 00 00 00	 call	 _printf
  00193	83 c4 10	 add	 esp, 16			; 00000010H

; 147  :     } ;

  00196	e9 c2 fe ff ff	 jmp	 $LN12@encode_rs
$LN17@encode_rs:

; 148  :  } ;

  0019b	5f		 pop	 edi
  0019c	5e		 pop	 esi
  0019d	5b		 pop	 ebx
  0019e	81 c4 e4 00 00
	00		 add	 esp, 228		; 000000e4H
  001a4	3b ec		 cmp	 ebp, esp
  001a6	e8 00 00 00 00	 call	 __RTC_CheckEsp
  001ab	8b e5		 mov	 esp, ebp
  001ad	5d		 pop	 ebp
  001ae	c3		 ret	 0
_encode_rs ENDP
_TEXT	ENDS
PUBLIC	??_C@_0N@NBMOJODB@in?5decode_rs?$AA@		; `string'
PUBLIC	_decode_rs
EXTRN	_blnErrorsCorrected:DWORD
EXTRN	_printtick:PROC
;	COMDAT ??_C@_0N@NBMOJODB@in?5decode_rs?$AA@
CONST	SEGMENT
??_C@_0N@NBMOJODB@in?5decode_rs?$AA@ DB 'in decode_rs', 00H ; `string'
; Function compile flags: /Odtp /RTCsu /ZI
CONST	ENDS
;	COMDAT _decode_rs
_TEXT	SEGMENT
_q$ = -44						; size = 4
_u$ = -32						; size = 4
_j$ = -20						; size = 4
_i$ = -8						; size = 4
_decode_rs PROC						; COMDAT

; 173  :  {

  00000	55		 push	 ebp
  00001	8b ec		 mov	 ebp, esp
  00003	81 ec f0 00 00
	00		 sub	 esp, 240		; 000000f0H
  00009	53		 push	 ebx
  0000a	56		 push	 esi
  0000b	57		 push	 edi
  0000c	8d bd 10 ff ff
	ff		 lea	 edi, DWORD PTR [ebp-240]
  00012	b9 3c 00 00 00	 mov	 ecx, 60			; 0000003cH
  00017	b8 cc cc cc cc	 mov	 eax, -858993460		; ccccccccH
  0001c	f3 ab		 rep stosd

; 174  :    register int i,j,u,q ;
; 175  : 
; 176  :    count=0;

  0001e	c7 05 00 00 00
	00 00 00 00 00	 mov	 DWORD PTR _count, 0

; 177  :    syn_error=0;

  00028	c7 05 00 00 00
	00 00 00 00 00	 mov	 DWORD PTR _syn_error, 0

; 178  : 
; 179  :    printtick("in decode_rs");

  00032	68 00 00 00 00	 push	 OFFSET ??_C@_0N@NBMOJODB@in?5decode_rs?$AA@
  00037	e8 00 00 00 00	 call	 _printtick
  0003c	83 c4 04	 add	 esp, 4

; 180  : 
; 181  : /* first form the syndromes */
; 182  :    for (i=1; i<=nn-kk; i++)

  0003f	c7 45 f8 01 00
	00 00		 mov	 DWORD PTR _i$[ebp], 1
  00046	eb 09		 jmp	 SHORT $LN106@decode_rs
$LN105@decode_rs:
  00048	8b 45 f8	 mov	 eax, DWORD PTR _i$[ebp]
  0004b	83 c0 01	 add	 eax, 1
  0004e	89 45 f8	 mov	 DWORD PTR _i$[ebp], eax
$LN106@decode_rs:
  00051	b8 ff 00 00 00	 mov	 eax, 255		; 000000ffH
  00056	2b 05 00 00 00
	00		 sub	 eax, DWORD PTR _kk
  0005c	39 45 f8	 cmp	 DWORD PTR _i$[ebp], eax
  0005f	0f 8f a5 00 00
	00		 jg	 $LN104@decode_rs

; 183  :    {
; 184  : 		s[i] = 0 ;

  00065	8b 45 f8	 mov	 eax, DWORD PTR _i$[ebp]
  00068	c7 04 85 00 00
	00 00 00 00 00
	00		 mov	 DWORD PTR _s[eax*4], 0

; 185  : 		for (j=0; j<nn; j++)

  00073	c7 45 ec 00 00
	00 00		 mov	 DWORD PTR _j$[ebp], 0
  0007a	eb 09		 jmp	 SHORT $LN103@decode_rs
$LN102@decode_rs:
  0007c	8b 45 ec	 mov	 eax, DWORD PTR _j$[ebp]
  0007f	83 c0 01	 add	 eax, 1
  00082	89 45 ec	 mov	 DWORD PTR _j$[ebp], eax
$LN103@decode_rs:
  00085	81 7d ec ff 00
	00 00		 cmp	 DWORD PTR _j$[ebp], 255	; 000000ffH
  0008c	7d 45		 jge	 SHORT $LN101@decode_rs

; 186  : 		{
; 187  : 			if (recd[j]!=-1)

  0008e	8b 45 ec	 mov	 eax, DWORD PTR _j$[ebp]
  00091	83 3c 85 00 00
	00 00 ff	 cmp	 DWORD PTR _recd[eax*4], -1
  00099	74 36		 je	 SHORT $LN100@decode_rs

; 188  : 				s[i] ^= alpha_to[(recd[j]+i*j)%nn] ; /* recd[j] in index form */

  0009b	8b 45 f8	 mov	 eax, DWORD PTR _i$[ebp]
  0009e	0f af 45 ec	 imul	 eax, DWORD PTR _j$[ebp]
  000a2	8b 4d ec	 mov	 ecx, DWORD PTR _j$[ebp]
  000a5	8b 14 8d 00 00
	00 00		 mov	 edx, DWORD PTR _recd[ecx*4]
  000ac	03 c2		 add	 eax, edx
  000ae	99		 cdq
  000af	b9 ff 00 00 00	 mov	 ecx, 255		; 000000ffH
  000b4	f7 f9		 idiv	 ecx
  000b6	8b 45 f8	 mov	 eax, DWORD PTR _i$[ebp]
  000b9	8b 0c 85 00 00
	00 00		 mov	 ecx, DWORD PTR _s[eax*4]
  000c0	33 0c 95 00 00
	00 00		 xor	 ecx, DWORD PTR _alpha_to[edx*4]
  000c7	8b 55 f8	 mov	 edx, DWORD PTR _i$[ebp]
  000ca	89 0c 95 00 00
	00 00		 mov	 DWORD PTR _s[edx*4], ecx
$LN100@decode_rs:

; 189  : /* convert syndrome from polynomial form to index form  */
; 190  : 	
; 191  : //			printf("%d %d\r\n", i, s[i]);
; 192  : 		}

  000d1	eb a9		 jmp	 SHORT $LN102@decode_rs
$LN101@decode_rs:

; 193  : 		
; 194  : 		if (s[i]!=0)

  000d3	8b 45 f8	 mov	 eax, DWORD PTR _i$[ebp]
  000d6	83 3c 85 00 00
	00 00 00	 cmp	 DWORD PTR _s[eax*4], 0
  000de	74 0a		 je	 SHORT $LN99@decode_rs

; 195  : 		  syn_error=1 ;        /* set flag if non-zero syndrome => error */

  000e0	c7 05 00 00 00
	00 01 00 00 00	 mov	 DWORD PTR _syn_error, 1
$LN99@decode_rs:

; 196  : 
; 197  : 	  s[i] = index_of[s[i]] ;

  000ea	8b 45 f8	 mov	 eax, DWORD PTR _i$[ebp]
  000ed	8b 0c 85 00 00
	00 00		 mov	 ecx, DWORD PTR _s[eax*4]
  000f4	8b 55 f8	 mov	 edx, DWORD PTR _i$[ebp]
  000f7	8b 04 8d 00 00
	00 00		 mov	 eax, DWORD PTR _index_of[ecx*4]
  000fe	89 04 95 00 00
	00 00		 mov	 DWORD PTR _s[edx*4], eax

; 198  :     } ;

  00105	e9 3e ff ff ff	 jmp	 $LN105@decode_rs
$LN104@decode_rs:

; 199  : 
; 200  : 	if (syn_error)       /* if errors, try and correct */

  0010a	83 3d 00 00 00
	00 00		 cmp	 DWORD PTR _syn_error, 0
  00111	0f 84 f3 0a 00
	00		 je	 $LN98@decode_rs

; 201  : 	{
; 202  : /* compute the error location polynomial via the Berlekamp iterative algorithm,
; 203  :    following the terminology of Lin and Costello :   d[u] is the 'mu'th
; 204  :    discrepancy, where u='mu'+1 and 'mu' (the Greek letter!) is the step number
; 205  :    ranging from -1 to 2*tt (see L&C),  l[u] is the
; 206  :    degree of the elp at that step, and u_l[u] is the difference between the
; 207  :    step number and the degree of the elp.
; 208  : */
; 209  : /* initialise table entries */
; 210  :       d[0] = 0 ;           /* index form */

  00117	c7 05 00 00 00
	00 00 00 00 00	 mov	 DWORD PTR _d, 0

; 211  :       d[1] = s[1] ;        /* index form */

  00121	a1 04 00 00 00	 mov	 eax, DWORD PTR _s+4
  00126	a3 04 00 00 00	 mov	 DWORD PTR _d+4, eax

; 212  :       elp[0][0] = 0 ;      /* index form */

  0012b	c7 05 00 00 00
	00 00 00 00 00	 mov	 DWORD PTR _elp, 0

; 213  :       elp[1][0] = 1 ;      /* polynomial form */

  00135	c7 05 fc 03 00
	00 01 00 00 00	 mov	 DWORD PTR _elp+1020, 1

; 214  :       for (i=1; i<nn-kk; i++)

  0013f	c7 45 f8 01 00
	00 00		 mov	 DWORD PTR _i$[ebp], 1
  00146	eb 09		 jmp	 SHORT $LN97@decode_rs
$LN96@decode_rs:
  00148	8b 45 f8	 mov	 eax, DWORD PTR _i$[ebp]
  0014b	83 c0 01	 add	 eax, 1
  0014e	89 45 f8	 mov	 DWORD PTR _i$[ebp], eax
$LN97@decode_rs:
  00151	b8 ff 00 00 00	 mov	 eax, 255		; 000000ffH
  00156	2b 05 00 00 00
	00		 sub	 eax, DWORD PTR _kk
  0015c	39 45 f8	 cmp	 DWORD PTR _i$[ebp], eax
  0015f	7d 1e		 jge	 SHORT $LN95@decode_rs

; 215  :         { elp[0][i] = -1 ;   /* index form */

  00161	8b 45 f8	 mov	 eax, DWORD PTR _i$[ebp]
  00164	c7 04 85 00 00
	00 00 ff ff ff
	ff		 mov	 DWORD PTR _elp[eax*4], -1

; 216  :           elp[1][i] = 0 ;   /* polynomial form */

  0016f	8b 45 f8	 mov	 eax, DWORD PTR _i$[ebp]
  00172	c7 04 85 fc 03
	00 00 00 00 00
	00		 mov	 DWORD PTR _elp[eax*4+1020], 0

; 217  :         }

  0017d	eb c9		 jmp	 SHORT $LN96@decode_rs
$LN95@decode_rs:

; 218  :       l[0] = 0 ;

  0017f	c7 05 00 00 00
	00 00 00 00 00	 mov	 DWORD PTR _l, 0

; 219  :       l[1] = 0 ;

  00189	c7 05 04 00 00
	00 00 00 00 00	 mov	 DWORD PTR _l+4, 0

; 220  :       u_lu[0] = -1 ;

  00193	c7 05 00 00 00
	00 ff ff ff ff	 mov	 DWORD PTR _u_lu, -1

; 221  :       u_lu[1] = 0 ;

  0019d	c7 05 04 00 00
	00 00 00 00 00	 mov	 DWORD PTR _u_lu+4, 0

; 222  :       u = 0 ;

  001a7	c7 45 e0 00 00
	00 00		 mov	 DWORD PTR _u$[ebp], 0
$LN94@decode_rs:

; 223  : 
; 224  :       do
; 225  :       {
; 226  :         u++ ;

  001ae	8b 45 e0	 mov	 eax, DWORD PTR _u$[ebp]
  001b1	83 c0 01	 add	 eax, 1
  001b4	89 45 e0	 mov	 DWORD PTR _u$[ebp], eax

; 227  :         if (d[u]==-1)

  001b7	8b 45 e0	 mov	 eax, DWORD PTR _u$[ebp]
  001ba	83 3c 85 00 00
	00 00 ff	 cmp	 DWORD PTR _d[eax*4], -1
  001c2	0f 85 92 00 00
	00		 jne	 $LN91@decode_rs

; 228  :           { l[u+1] = l[u] ;

  001c8	8b 45 e0	 mov	 eax, DWORD PTR _u$[ebp]
  001cb	8b 4d e0	 mov	 ecx, DWORD PTR _u$[ebp]
  001ce	8b 14 8d 00 00
	00 00		 mov	 edx, DWORD PTR _l[ecx*4]
  001d5	89 14 85 04 00
	00 00		 mov	 DWORD PTR _l[eax*4+4], edx

; 229  :             for (i=0; i<=l[u]; i++)

  001dc	c7 45 f8 00 00
	00 00		 mov	 DWORD PTR _i$[ebp], 0
  001e3	eb 09		 jmp	 SHORT $LN90@decode_rs
$LN89@decode_rs:
  001e5	8b 45 f8	 mov	 eax, DWORD PTR _i$[ebp]
  001e8	83 c0 01	 add	 eax, 1
  001eb	89 45 f8	 mov	 DWORD PTR _i$[ebp], eax
$LN90@decode_rs:
  001ee	8b 45 e0	 mov	 eax, DWORD PTR _u$[ebp]
  001f1	8b 4d f8	 mov	 ecx, DWORD PTR _i$[ebp]
  001f4	3b 0c 85 00 00
	00 00		 cmp	 ecx, DWORD PTR _l[eax*4]
  001fb	7f 58		 jg	 SHORT $LN88@decode_rs

; 230  :              {  elp[u+1][i] = elp[u][i] ;

  001fd	8b 45 e0	 mov	 eax, DWORD PTR _u$[ebp]
  00200	69 c0 fc 03 00
	00		 imul	 eax, 1020		; 000003fcH
  00206	8b 4d e0	 mov	 ecx, DWORD PTR _u$[ebp]
  00209	83 c1 01	 add	 ecx, 1
  0020c	69 c9 fc 03 00
	00		 imul	 ecx, 1020		; 000003fcH
  00212	8b 55 f8	 mov	 edx, DWORD PTR _i$[ebp]
  00215	8b 75 f8	 mov	 esi, DWORD PTR _i$[ebp]
  00218	8b 84 b0 00 00
	00 00		 mov	 eax, DWORD PTR _elp[eax+esi*4]
  0021f	89 84 91 00 00
	00 00		 mov	 DWORD PTR _elp[ecx+edx*4], eax

; 231  :                 elp[u][i] = index_of[elp[u][i]] ;

  00226	8b 45 e0	 mov	 eax, DWORD PTR _u$[ebp]
  00229	69 c0 fc 03 00
	00		 imul	 eax, 1020		; 000003fcH
  0022f	8b 4d f8	 mov	 ecx, DWORD PTR _i$[ebp]
  00232	8b 94 88 00 00
	00 00		 mov	 edx, DWORD PTR _elp[eax+ecx*4]
  00239	8b 45 e0	 mov	 eax, DWORD PTR _u$[ebp]
  0023c	69 c0 fc 03 00
	00		 imul	 eax, 1020		; 000003fcH
  00242	8b 4d f8	 mov	 ecx, DWORD PTR _i$[ebp]
  00245	8b 14 95 00 00
	00 00		 mov	 edx, DWORD PTR _index_of[edx*4]
  0024c	89 94 88 00 00
	00 00		 mov	 DWORD PTR _elp[eax+ecx*4], edx

; 232  :              }

  00253	eb 90		 jmp	 SHORT $LN89@decode_rs
$LN88@decode_rs:

; 233  :           }
; 234  :         else

  00255	e9 1a 02 00 00	 jmp	 $LN87@decode_rs
$LN91@decode_rs:

; 235  : /* search for words with greatest u_lu[q] for which d[q]!=0 */
; 236  :           { q = u-1 ;

  0025a	8b 45 e0	 mov	 eax, DWORD PTR _u$[ebp]
  0025d	83 e8 01	 sub	 eax, 1
  00260	89 45 d4	 mov	 DWORD PTR _q$[ebp], eax
$LN86@decode_rs:

; 237  :             while ((d[q]==-1) && (q>0)) q-- ;

  00263	8b 45 d4	 mov	 eax, DWORD PTR _q$[ebp]
  00266	83 3c 85 00 00
	00 00 ff	 cmp	 DWORD PTR _d[eax*4], -1
  0026e	75 11		 jne	 SHORT $LN85@decode_rs
  00270	83 7d d4 00	 cmp	 DWORD PTR _q$[ebp], 0
  00274	7e 0b		 jle	 SHORT $LN85@decode_rs
  00276	8b 45 d4	 mov	 eax, DWORD PTR _q$[ebp]
  00279	83 e8 01	 sub	 eax, 1
  0027c	89 45 d4	 mov	 DWORD PTR _q$[ebp], eax
  0027f	eb e2		 jmp	 SHORT $LN86@decode_rs
$LN85@decode_rs:

; 238  : /* have found first non-zero d[q]  */
; 239  :             if (q>0)

  00281	83 7d d4 00	 cmp	 DWORD PTR _q$[ebp], 0
  00285	7e 3e		 jle	 SHORT $LN84@decode_rs

; 240  :              { j=q ;

  00287	8b 45 d4	 mov	 eax, DWORD PTR _q$[ebp]
  0028a	89 45 ec	 mov	 DWORD PTR _j$[ebp], eax
$LN83@decode_rs:

; 241  :                do
; 242  :                { j-- ;

  0028d	8b 45 ec	 mov	 eax, DWORD PTR _j$[ebp]
  00290	83 e8 01	 sub	 eax, 1
  00293	89 45 ec	 mov	 DWORD PTR _j$[ebp], eax

; 243  :                  if ((d[j]!=-1) && (u_lu[q]<u_lu[j]))

  00296	8b 45 ec	 mov	 eax, DWORD PTR _j$[ebp]
  00299	83 3c 85 00 00
	00 00 ff	 cmp	 DWORD PTR _d[eax*4], -1
  002a1	74 1c		 je	 SHORT $LN82@decode_rs
  002a3	8b 45 d4	 mov	 eax, DWORD PTR _q$[ebp]
  002a6	8b 4d ec	 mov	 ecx, DWORD PTR _j$[ebp]
  002a9	8b 14 85 00 00
	00 00		 mov	 edx, DWORD PTR _u_lu[eax*4]
  002b0	3b 14 8d 00 00
	00 00		 cmp	 edx, DWORD PTR _u_lu[ecx*4]
  002b7	7d 06		 jge	 SHORT $LN82@decode_rs

; 244  :                    q = j ;

  002b9	8b 45 ec	 mov	 eax, DWORD PTR _j$[ebp]
  002bc	89 45 d4	 mov	 DWORD PTR _q$[ebp], eax
$LN82@decode_rs:

; 245  :                }while (j>0) ;

  002bf	83 7d ec 00	 cmp	 DWORD PTR _j$[ebp], 0
  002c3	7f c8		 jg	 SHORT $LN83@decode_rs
$LN84@decode_rs:

; 246  :              } ;
; 247  : 
; 248  : /* have now found q such that d[u]!=0 and u_lu[q] is maximum */
; 249  : /* store degree of new elp polynomial */
; 250  :             if (l[u]>l[q]+u-q)  l[u+1] = l[u] ;

  002c5	8b 45 d4	 mov	 eax, DWORD PTR _q$[ebp]
  002c8	8b 0c 85 00 00
	00 00		 mov	 ecx, DWORD PTR _l[eax*4]
  002cf	03 4d e0	 add	 ecx, DWORD PTR _u$[ebp]
  002d2	2b 4d d4	 sub	 ecx, DWORD PTR _q$[ebp]
  002d5	8b 55 e0	 mov	 edx, DWORD PTR _u$[ebp]
  002d8	39 0c 95 00 00
	00 00		 cmp	 DWORD PTR _l[edx*4], ecx
  002df	7e 16		 jle	 SHORT $LN79@decode_rs
  002e1	8b 45 e0	 mov	 eax, DWORD PTR _u$[ebp]
  002e4	8b 4d e0	 mov	 ecx, DWORD PTR _u$[ebp]
  002e7	8b 14 8d 00 00
	00 00		 mov	 edx, DWORD PTR _l[ecx*4]
  002ee	89 14 85 04 00
	00 00		 mov	 DWORD PTR _l[eax*4+4], edx
  002f5	eb 1a		 jmp	 SHORT $LN78@decode_rs
$LN79@decode_rs:

; 251  :             else  l[u+1] = l[q]+u-q ;

  002f7	8b 45 d4	 mov	 eax, DWORD PTR _q$[ebp]
  002fa	8b 0c 85 00 00
	00 00		 mov	 ecx, DWORD PTR _l[eax*4]
  00301	03 4d e0	 add	 ecx, DWORD PTR _u$[ebp]
  00304	2b 4d d4	 sub	 ecx, DWORD PTR _q$[ebp]
  00307	8b 55 e0	 mov	 edx, DWORD PTR _u$[ebp]
  0030a	89 0c 95 04 00
	00 00		 mov	 DWORD PTR _l[edx*4+4], ecx
$LN78@decode_rs:

; 252  : 
; 253  : /* form new elp(x) */
; 254  :             for (i=0; i<nn-kk; i++)    elp[u+1][i] = 0 ;

  00311	c7 45 f8 00 00
	00 00		 mov	 DWORD PTR _i$[ebp], 0
  00318	eb 09		 jmp	 SHORT $LN77@decode_rs
$LN76@decode_rs:
  0031a	8b 45 f8	 mov	 eax, DWORD PTR _i$[ebp]
  0031d	83 c0 01	 add	 eax, 1
  00320	89 45 f8	 mov	 DWORD PTR _i$[ebp], eax
$LN77@decode_rs:
  00323	b8 ff 00 00 00	 mov	 eax, 255		; 000000ffH
  00328	2b 05 00 00 00
	00		 sub	 eax, DWORD PTR _kk
  0032e	39 45 f8	 cmp	 DWORD PTR _i$[ebp], eax
  00331	7d 1c		 jge	 SHORT $LN75@decode_rs
  00333	8b 45 e0	 mov	 eax, DWORD PTR _u$[ebp]
  00336	83 c0 01	 add	 eax, 1
  00339	69 c0 fc 03 00
	00		 imul	 eax, 1020		; 000003fcH
  0033f	8b 4d f8	 mov	 ecx, DWORD PTR _i$[ebp]
  00342	c7 84 88 00 00
	00 00 00 00 00
	00		 mov	 DWORD PTR _elp[eax+ecx*4], 0
  0034d	eb cb		 jmp	 SHORT $LN76@decode_rs
$LN75@decode_rs:

; 255  :             for (i=0; i<=l[q]; i++)

  0034f	c7 45 f8 00 00
	00 00		 mov	 DWORD PTR _i$[ebp], 0
  00356	eb 09		 jmp	 SHORT $LN74@decode_rs
$LN73@decode_rs:
  00358	8b 45 f8	 mov	 eax, DWORD PTR _i$[ebp]
  0035b	83 c0 01	 add	 eax, 1
  0035e	89 45 f8	 mov	 DWORD PTR _i$[ebp], eax
$LN74@decode_rs:
  00361	8b 45 d4	 mov	 eax, DWORD PTR _q$[ebp]
  00364	8b 4d f8	 mov	 ecx, DWORD PTR _i$[ebp]
  00367	3b 0c 85 00 00
	00 00		 cmp	 ecx, DWORD PTR _l[eax*4]
  0036e	7f 72		 jg	 SHORT $LN72@decode_rs

; 256  :               if (elp[q][i]!=-1)

  00370	8b 45 d4	 mov	 eax, DWORD PTR _q$[ebp]
  00373	69 c0 fc 03 00
	00		 imul	 eax, 1020		; 000003fcH
  00379	8b 4d f8	 mov	 ecx, DWORD PTR _i$[ebp]
  0037c	83 bc 88 00 00
	00 00 ff	 cmp	 DWORD PTR _elp[eax+ecx*4], -1
  00384	74 57		 je	 SHORT $LN71@decode_rs

; 257  :                 elp[u+1][i+u-q] = alpha_to[(d[u]+nn-d[q]+elp[q][i])%nn] ;

  00386	8b 45 e0	 mov	 eax, DWORD PTR _u$[ebp]
  00389	8b 04 85 00 00
	00 00		 mov	 eax, DWORD PTR _d[eax*4]
  00390	05 ff 00 00 00	 add	 eax, 255		; 000000ffH
  00395	8b 4d d4	 mov	 ecx, DWORD PTR _q$[ebp]
  00398	2b 04 8d 00 00
	00 00		 sub	 eax, DWORD PTR _d[ecx*4]
  0039f	8b 55 d4	 mov	 edx, DWORD PTR _q$[ebp]
  003a2	69 d2 fc 03 00
	00		 imul	 edx, 1020		; 000003fcH
  003a8	8b 4d f8	 mov	 ecx, DWORD PTR _i$[ebp]
  003ab	03 84 8a 00 00
	00 00		 add	 eax, DWORD PTR _elp[edx+ecx*4]
  003b2	99		 cdq
  003b3	b9 ff 00 00 00	 mov	 ecx, 255		; 000000ffH
  003b8	f7 f9		 idiv	 ecx
  003ba	8b 45 e0	 mov	 eax, DWORD PTR _u$[ebp]
  003bd	83 c0 01	 add	 eax, 1
  003c0	69 c0 fc 03 00
	00		 imul	 eax, 1020		; 000003fcH
  003c6	8b 4d f8	 mov	 ecx, DWORD PTR _i$[ebp]
  003c9	03 4d e0	 add	 ecx, DWORD PTR _u$[ebp]
  003cc	2b 4d d4	 sub	 ecx, DWORD PTR _q$[ebp]
  003cf	8b 14 95 00 00
	00 00		 mov	 edx, DWORD PTR _alpha_to[edx*4]
  003d6	89 94 88 00 00
	00 00		 mov	 DWORD PTR _elp[eax+ecx*4], edx
$LN71@decode_rs:

; 258  :             for (i=0; i<=l[u]; i++)

  003dd	e9 76 ff ff ff	 jmp	 $LN73@decode_rs
$LN72@decode_rs:
  003e2	c7 45 f8 00 00
	00 00		 mov	 DWORD PTR _i$[ebp], 0
  003e9	eb 09		 jmp	 SHORT $LN70@decode_rs
$LN69@decode_rs:
  003eb	8b 45 f8	 mov	 eax, DWORD PTR _i$[ebp]
  003ee	83 c0 01	 add	 eax, 1
  003f1	89 45 f8	 mov	 DWORD PTR _i$[ebp], eax
$LN70@decode_rs:
  003f4	8b 45 e0	 mov	 eax, DWORD PTR _u$[ebp]
  003f7	8b 4d f8	 mov	 ecx, DWORD PTR _i$[ebp]
  003fa	3b 0c 85 00 00
	00 00		 cmp	 ecx, DWORD PTR _l[eax*4]
  00401	7f 71		 jg	 SHORT $LN87@decode_rs

; 259  :               { elp[u+1][i] ^= elp[u][i] ;

  00403	8b 45 e0	 mov	 eax, DWORD PTR _u$[ebp]
  00406	83 c0 01	 add	 eax, 1
  00409	69 c0 fc 03 00
	00		 imul	 eax, 1020		; 000003fcH
  0040f	8b 4d e0	 mov	 ecx, DWORD PTR _u$[ebp]
  00412	69 c9 fc 03 00
	00		 imul	 ecx, 1020		; 000003fcH
  00418	8b 55 f8	 mov	 edx, DWORD PTR _i$[ebp]
  0041b	8b 75 f8	 mov	 esi, DWORD PTR _i$[ebp]
  0041e	8b 84 90 00 00
	00 00		 mov	 eax, DWORD PTR _elp[eax+edx*4]
  00425	33 84 b1 00 00
	00 00		 xor	 eax, DWORD PTR _elp[ecx+esi*4]
  0042c	8b 4d e0	 mov	 ecx, DWORD PTR _u$[ebp]
  0042f	83 c1 01	 add	 ecx, 1
  00432	69 c9 fc 03 00
	00		 imul	 ecx, 1020		; 000003fcH
  00438	8b 55 f8	 mov	 edx, DWORD PTR _i$[ebp]
  0043b	89 84 91 00 00
	00 00		 mov	 DWORD PTR _elp[ecx+edx*4], eax

; 260  :                 elp[u][i] = index_of[elp[u][i]] ;  /*convert old elp value to index*/

  00442	8b 45 e0	 mov	 eax, DWORD PTR _u$[ebp]
  00445	69 c0 fc 03 00
	00		 imul	 eax, 1020		; 000003fcH
  0044b	8b 4d f8	 mov	 ecx, DWORD PTR _i$[ebp]
  0044e	8b 94 88 00 00
	00 00		 mov	 edx, DWORD PTR _elp[eax+ecx*4]
  00455	8b 45 e0	 mov	 eax, DWORD PTR _u$[ebp]
  00458	69 c0 fc 03 00
	00		 imul	 eax, 1020		; 000003fcH
  0045e	8b 4d f8	 mov	 ecx, DWORD PTR _i$[ebp]
  00461	8b 14 95 00 00
	00 00		 mov	 edx, DWORD PTR _index_of[edx*4]
  00468	89 94 88 00 00
	00 00		 mov	 DWORD PTR _elp[eax+ecx*4], edx

; 261  :               }

  0046f	e9 77 ff ff ff	 jmp	 $LN69@decode_rs
$LN87@decode_rs:

; 262  :           }
; 263  :         u_lu[u+1] = u-l[u+1] ;

  00474	8b 45 e0	 mov	 eax, DWORD PTR _u$[ebp]
  00477	8b 4d e0	 mov	 ecx, DWORD PTR _u$[ebp]
  0047a	2b 0c 85 04 00
	00 00		 sub	 ecx, DWORD PTR _l[eax*4+4]
  00481	8b 55 e0	 mov	 edx, DWORD PTR _u$[ebp]
  00484	89 0c 95 04 00
	00 00		 mov	 DWORD PTR _u_lu[edx*4+4], ecx

; 264  : 
; 265  : /* form (u+1)th discrepancy */
; 266  :         if (u<nn-kk)    /* no discrepancy computed on last iteration */

  0048b	b8 ff 00 00 00	 mov	 eax, 255		; 000000ffH
  00490	2b 05 00 00 00
	00		 sub	 eax, DWORD PTR _kk
  00496	39 45 e0	 cmp	 DWORD PTR _u$[ebp], eax
  00499	0f 8d f9 00 00
	00		 jge	 $LN93@decode_rs

; 267  :           {
; 268  :             if (s[u+1]!=-1)

  0049f	8b 45 e0	 mov	 eax, DWORD PTR _u$[ebp]
  004a2	83 3c 85 04 00
	00 00 ff	 cmp	 DWORD PTR _s[eax*4+4], -1
  004aa	74 1d		 je	 SHORT $LN66@decode_rs

; 269  :                    d[u+1] = alpha_to[s[u+1]] ;

  004ac	8b 45 e0	 mov	 eax, DWORD PTR _u$[ebp]
  004af	8b 0c 85 04 00
	00 00		 mov	 ecx, DWORD PTR _s[eax*4+4]
  004b6	8b 55 e0	 mov	 edx, DWORD PTR _u$[ebp]
  004b9	8b 04 8d 00 00
	00 00		 mov	 eax, DWORD PTR _alpha_to[ecx*4]
  004c0	89 04 95 04 00
	00 00		 mov	 DWORD PTR _d[edx*4+4], eax

; 270  :             else

  004c7	eb 0e		 jmp	 SHORT $LN65@decode_rs
$LN66@decode_rs:

; 271  :               d[u+1] = 0 ;

  004c9	8b 45 e0	 mov	 eax, DWORD PTR _u$[ebp]
  004cc	c7 04 85 04 00
	00 00 00 00 00
	00		 mov	 DWORD PTR _d[eax*4+4], 0
$LN65@decode_rs:

; 272  :             for (i=1; i<=l[u+1]; i++)

  004d7	c7 45 f8 01 00
	00 00		 mov	 DWORD PTR _i$[ebp], 1
  004de	eb 09		 jmp	 SHORT $LN64@decode_rs
$LN63@decode_rs:
  004e0	8b 45 f8	 mov	 eax, DWORD PTR _i$[ebp]
  004e3	83 c0 01	 add	 eax, 1
  004e6	89 45 f8	 mov	 DWORD PTR _i$[ebp], eax
$LN64@decode_rs:
  004e9	8b 45 e0	 mov	 eax, DWORD PTR _u$[ebp]
  004ec	8b 4d f8	 mov	 ecx, DWORD PTR _i$[ebp]
  004ef	3b 0c 85 04 00
	00 00		 cmp	 ecx, DWORD PTR _l[eax*4+4]
  004f6	0f 8f 81 00 00
	00		 jg	 $LN62@decode_rs

; 273  :               if ((s[u+1-i]!=-1) && (elp[u+1][i]!=0))

  004fc	8b 45 e0	 mov	 eax, DWORD PTR _u$[ebp]
  004ff	83 c0 01	 add	 eax, 1
  00502	2b 45 f8	 sub	 eax, DWORD PTR _i$[ebp]
  00505	83 3c 85 00 00
	00 00 ff	 cmp	 DWORD PTR _s[eax*4], -1
  0050d	74 69		 je	 SHORT $LN61@decode_rs
  0050f	8b 45 e0	 mov	 eax, DWORD PTR _u$[ebp]
  00512	83 c0 01	 add	 eax, 1
  00515	69 c0 fc 03 00
	00		 imul	 eax, 1020		; 000003fcH
  0051b	8b 4d f8	 mov	 ecx, DWORD PTR _i$[ebp]
  0051e	83 bc 88 00 00
	00 00 00	 cmp	 DWORD PTR _elp[eax+ecx*4], 0
  00526	74 50		 je	 SHORT $LN61@decode_rs

; 274  :                 d[u+1] ^= alpha_to[(s[u+1-i]+index_of[elp[u+1][i]])%nn] ;

  00528	8b 45 e0	 mov	 eax, DWORD PTR _u$[ebp]
  0052b	83 c0 01	 add	 eax, 1
  0052e	2b 45 f8	 sub	 eax, DWORD PTR _i$[ebp]
  00531	8b 4d e0	 mov	 ecx, DWORD PTR _u$[ebp]
  00534	83 c1 01	 add	 ecx, 1
  00537	69 c9 fc 03 00
	00		 imul	 ecx, 1020		; 000003fcH
  0053d	8b 55 f8	 mov	 edx, DWORD PTR _i$[ebp]
  00540	8b 8c 91 00 00
	00 00		 mov	 ecx, DWORD PTR _elp[ecx+edx*4]
  00547	8b 04 85 00 00
	00 00		 mov	 eax, DWORD PTR _s[eax*4]
  0054e	03 04 8d 00 00
	00 00		 add	 eax, DWORD PTR _index_of[ecx*4]
  00555	99		 cdq
  00556	b9 ff 00 00 00	 mov	 ecx, 255		; 000000ffH
  0055b	f7 f9		 idiv	 ecx
  0055d	8b 45 e0	 mov	 eax, DWORD PTR _u$[ebp]
  00560	8b 0c 85 04 00
	00 00		 mov	 ecx, DWORD PTR _d[eax*4+4]
  00567	33 0c 95 00 00
	00 00		 xor	 ecx, DWORD PTR _alpha_to[edx*4]
  0056e	8b 55 e0	 mov	 edx, DWORD PTR _u$[ebp]
  00571	89 0c 95 04 00
	00 00		 mov	 DWORD PTR _d[edx*4+4], ecx
$LN61@decode_rs:

; 275  :             d[u+1] = index_of[d[u+1]] ;    /* put d[u+1] into index form */

  00578	e9 63 ff ff ff	 jmp	 $LN63@decode_rs
$LN62@decode_rs:
  0057d	8b 45 e0	 mov	 eax, DWORD PTR _u$[ebp]
  00580	8b 0c 85 04 00
	00 00		 mov	 ecx, DWORD PTR _d[eax*4+4]
  00587	8b 55 e0	 mov	 edx, DWORD PTR _u$[ebp]
  0058a	8b 04 8d 00 00
	00 00		 mov	 eax, DWORD PTR _index_of[ecx*4]
  00591	89 04 95 04 00
	00 00		 mov	 DWORD PTR _d[edx*4+4], eax
$LN93@decode_rs:

; 276  :           }
; 277  :       } while ((u<nn-kk) && (l[u+1]<=tt)) ;

  00598	b8 ff 00 00 00	 mov	 eax, 255		; 000000ffH
  0059d	2b 05 00 00 00
	00		 sub	 eax, DWORD PTR _kk
  005a3	39 45 e0	 cmp	 DWORD PTR _u$[ebp], eax
  005a6	7d 16		 jge	 SHORT $LN92@decode_rs
  005a8	8b 45 e0	 mov	 eax, DWORD PTR _u$[ebp]
  005ab	8b 0c 85 04 00
	00 00		 mov	 ecx, DWORD PTR _l[eax*4+4]
  005b2	3b 0d 00 00 00
	00		 cmp	 ecx, DWORD PTR _tt
  005b8	0f 8e f0 fb ff
	ff		 jle	 $LN94@decode_rs
$LN92@decode_rs:

; 278  : 
; 279  :       u++ ;

  005be	8b 45 e0	 mov	 eax, DWORD PTR _u$[ebp]
  005c1	83 c0 01	 add	 eax, 1
  005c4	89 45 e0	 mov	 DWORD PTR _u$[ebp], eax

; 280  :       if (l[u]<=tt)         /* can correct error */

  005c7	8b 45 e0	 mov	 eax, DWORD PTR _u$[ebp]
  005ca	8b 0c 85 00 00
	00 00		 mov	 ecx, DWORD PTR _l[eax*4]
  005d1	3b 0d 00 00 00
	00		 cmp	 ecx, DWORD PTR _tt
  005d7	0f 8f d6 05 00
	00		 jg	 $LN59@decode_rs

; 281  :        {
; 282  : /* put elp into index form */
; 283  :          for (i=0; i<=l[u]; i++)   elp[u][i] = index_of[elp[u][i]] ;

  005dd	c7 45 f8 00 00
	00 00		 mov	 DWORD PTR _i$[ebp], 0
  005e4	eb 09		 jmp	 SHORT $LN58@decode_rs
$LN57@decode_rs:
  005e6	8b 45 f8	 mov	 eax, DWORD PTR _i$[ebp]
  005e9	83 c0 01	 add	 eax, 1
  005ec	89 45 f8	 mov	 DWORD PTR _i$[ebp], eax
$LN58@decode_rs:
  005ef	8b 45 e0	 mov	 eax, DWORD PTR _u$[ebp]
  005f2	8b 4d f8	 mov	 ecx, DWORD PTR _i$[ebp]
  005f5	3b 0c 85 00 00
	00 00		 cmp	 ecx, DWORD PTR _l[eax*4]
  005fc	7f 2f		 jg	 SHORT $LN56@decode_rs
  005fe	8b 45 e0	 mov	 eax, DWORD PTR _u$[ebp]
  00601	69 c0 fc 03 00
	00		 imul	 eax, 1020		; 000003fcH
  00607	8b 4d f8	 mov	 ecx, DWORD PTR _i$[ebp]
  0060a	8b 94 88 00 00
	00 00		 mov	 edx, DWORD PTR _elp[eax+ecx*4]
  00611	8b 45 e0	 mov	 eax, DWORD PTR _u$[ebp]
  00614	69 c0 fc 03 00
	00		 imul	 eax, 1020		; 000003fcH
  0061a	8b 4d f8	 mov	 ecx, DWORD PTR _i$[ebp]
  0061d	8b 14 95 00 00
	00 00		 mov	 edx, DWORD PTR _index_of[edx*4]
  00624	89 94 88 00 00
	00 00		 mov	 DWORD PTR _elp[eax+ecx*4], edx
  0062b	eb b9		 jmp	 SHORT $LN57@decode_rs
$LN56@decode_rs:

; 284  : 
; 285  : /* find roots of the error location polynomial */
; 286  :          for (i=1; i<=l[u]; i++)

  0062d	c7 45 f8 01 00
	00 00		 mov	 DWORD PTR _i$[ebp], 1
  00634	eb 09		 jmp	 SHORT $LN55@decode_rs
$LN54@decode_rs:
  00636	8b 45 f8	 mov	 eax, DWORD PTR _i$[ebp]
  00639	83 c0 01	 add	 eax, 1
  0063c	89 45 f8	 mov	 DWORD PTR _i$[ebp], eax
$LN55@decode_rs:
  0063f	8b 45 e0	 mov	 eax, DWORD PTR _u$[ebp]
  00642	8b 4d f8	 mov	 ecx, DWORD PTR _i$[ebp]
  00645	3b 0c 85 00 00
	00 00		 cmp	 ecx, DWORD PTR _l[eax*4]
  0064c	7f 1f		 jg	 SHORT $LN53@decode_rs

; 287  :            reg[i] = elp[u][i] ;

  0064e	8b 45 e0	 mov	 eax, DWORD PTR _u$[ebp]
  00651	69 c0 fc 03 00
	00		 imul	 eax, 1020		; 000003fcH
  00657	8b 4d f8	 mov	 ecx, DWORD PTR _i$[ebp]
  0065a	8b 55 f8	 mov	 edx, DWORD PTR _i$[ebp]
  0065d	8b 84 90 00 00
	00 00		 mov	 eax, DWORD PTR _elp[eax+edx*4]
  00664	89 04 8d 00 00
	00 00		 mov	 DWORD PTR _reg[ecx*4], eax
  0066b	eb c9		 jmp	 SHORT $LN54@decode_rs
$LN53@decode_rs:

; 288  :          count = 0 ;

  0066d	c7 05 00 00 00
	00 00 00 00 00	 mov	 DWORD PTR _count, 0

; 289  :          for (i=1; i<=nn; i++)

  00677	c7 45 f8 01 00
	00 00		 mov	 DWORD PTR _i$[ebp], 1
  0067e	eb 09		 jmp	 SHORT $LN52@decode_rs
$LN51@decode_rs:
  00680	8b 45 f8	 mov	 eax, DWORD PTR _i$[ebp]
  00683	83 c0 01	 add	 eax, 1
  00686	89 45 f8	 mov	 DWORD PTR _i$[ebp], eax
$LN52@decode_rs:
  00689	81 7d f8 ff 00
	00 00		 cmp	 DWORD PTR _i$[ebp], 255	; 000000ffH
  00690	0f 8f a9 00 00
	00		 jg	 $LN50@decode_rs

; 290  :           {  q = 1 ;

  00696	c7 45 d4 01 00
	00 00		 mov	 DWORD PTR _q$[ebp], 1

; 291  :              for (j=1; j<=l[u]; j++)

  0069d	c7 45 ec 01 00
	00 00		 mov	 DWORD PTR _j$[ebp], 1
  006a4	eb 09		 jmp	 SHORT $LN49@decode_rs
$LN48@decode_rs:
  006a6	8b 45 ec	 mov	 eax, DWORD PTR _j$[ebp]
  006a9	83 c0 01	 add	 eax, 1
  006ac	89 45 ec	 mov	 DWORD PTR _j$[ebp], eax
$LN49@decode_rs:
  006af	8b 45 e0	 mov	 eax, DWORD PTR _u$[ebp]
  006b2	8b 4d ec	 mov	 ecx, DWORD PTR _j$[ebp]
  006b5	3b 0c 85 00 00
	00 00		 cmp	 ecx, DWORD PTR _l[eax*4]
  006bc	7f 45		 jg	 SHORT $LN47@decode_rs

; 292  :               if (reg[j]!=-1)

  006be	8b 45 ec	 mov	 eax, DWORD PTR _j$[ebp]
  006c1	83 3c 85 00 00
	00 00 ff	 cmp	 DWORD PTR _reg[eax*4], -1
  006c9	74 36		 je	 SHORT $LN46@decode_rs

; 293  :                 { reg[j] = (reg[j]+j)%nn ;

  006cb	8b 45 ec	 mov	 eax, DWORD PTR _j$[ebp]
  006ce	8b 04 85 00 00
	00 00		 mov	 eax, DWORD PTR _reg[eax*4]
  006d5	03 45 ec	 add	 eax, DWORD PTR _j$[ebp]
  006d8	99		 cdq
  006d9	b9 ff 00 00 00	 mov	 ecx, 255		; 000000ffH
  006de	f7 f9		 idiv	 ecx
  006e0	8b 45 ec	 mov	 eax, DWORD PTR _j$[ebp]
  006e3	89 14 85 00 00
	00 00		 mov	 DWORD PTR _reg[eax*4], edx

; 294  :                   q ^= alpha_to[reg[j]] ;

  006ea	8b 45 ec	 mov	 eax, DWORD PTR _j$[ebp]
  006ed	8b 0c 85 00 00
	00 00		 mov	 ecx, DWORD PTR _reg[eax*4]
  006f4	8b 55 d4	 mov	 edx, DWORD PTR _q$[ebp]
  006f7	33 14 8d 00 00
	00 00		 xor	 edx, DWORD PTR _alpha_to[ecx*4]
  006fe	89 55 d4	 mov	 DWORD PTR _q$[ebp], edx
$LN46@decode_rs:

; 295  :                 } ;

  00701	eb a3		 jmp	 SHORT $LN48@decode_rs
$LN47@decode_rs:

; 296  :              if (!q)        /* store root and error location number indices */

  00703	83 7d d4 00	 cmp	 DWORD PTR _q$[ebp], 0
  00707	75 31		 jne	 SHORT $LN45@decode_rs

; 297  :               { root[count] = i;

  00709	a1 00 00 00 00	 mov	 eax, DWORD PTR _count
  0070e	8b 4d f8	 mov	 ecx, DWORD PTR _i$[ebp]
  00711	89 0c 85 00 00
	00 00		 mov	 DWORD PTR _root[eax*4], ecx

; 298  :                 loc[count] = nn-i ;

  00718	b8 ff 00 00 00	 mov	 eax, 255		; 000000ffH
  0071d	2b 45 f8	 sub	 eax, DWORD PTR _i$[ebp]
  00720	8b 0d 00 00 00
	00		 mov	 ecx, DWORD PTR _count
  00726	89 04 8d 00 00
	00 00		 mov	 DWORD PTR _loc[ecx*4], eax

; 299  :                 count++ ;

  0072d	a1 00 00 00 00	 mov	 eax, DWORD PTR _count
  00732	83 c0 01	 add	 eax, 1
  00735	a3 00 00 00 00	 mov	 DWORD PTR _count, eax
$LN45@decode_rs:

; 300  :               };
; 301  : 		 };

  0073a	e9 41 ff ff ff	 jmp	 $LN51@decode_rs
$LN50@decode_rs:

; 302  :          if (count==l[u])    /* no. roots = degree of elp hence <= tt errors */

  0073f	8b 45 e0	 mov	 eax, DWORD PTR _u$[ebp]
  00742	8b 0d 00 00 00
	00		 mov	 ecx, DWORD PTR _count
  00748	3b 0c 85 00 00
	00 00		 cmp	 ecx, DWORD PTR _l[eax*4]
  0074f	0f 85 07 04 00
	00		 jne	 $LN44@decode_rs

; 303  : 		 {
; 304  : 			 blnErrorsCorrected = TRUE;

  00755	c7 05 00 00 00
	00 01 00 00 00	 mov	 DWORD PTR _blnErrorsCorrected, 1

; 305  : /* form polynomial z(x) */
; 306  :            for (i=1; i<=l[u]; i++)        /* Z[0] = 1 always - do not need */

  0075f	c7 45 f8 01 00
	00 00		 mov	 DWORD PTR _i$[ebp], 1
  00766	eb 09		 jmp	 SHORT $LN43@decode_rs
$LN42@decode_rs:
  00768	8b 45 f8	 mov	 eax, DWORD PTR _i$[ebp]
  0076b	83 c0 01	 add	 eax, 1
  0076e	89 45 f8	 mov	 DWORD PTR _i$[ebp], eax
$LN43@decode_rs:
  00771	8b 45 e0	 mov	 eax, DWORD PTR _u$[ebp]
  00774	8b 4d f8	 mov	 ecx, DWORD PTR _i$[ebp]
  00777	3b 0c 85 00 00
	00 00		 cmp	 ecx, DWORD PTR _l[eax*4]
  0077e	0f 8f 99 01 00
	00		 jg	 $LN41@decode_rs

; 307  :             { if ((s[i]!=-1) && (elp[u][i]!=-1))

  00784	8b 45 f8	 mov	 eax, DWORD PTR _i$[ebp]
  00787	83 3c 85 00 00
	00 00 ff	 cmp	 DWORD PTR _s[eax*4], -1
  0078f	74 50		 je	 SHORT $LN40@decode_rs
  00791	8b 45 e0	 mov	 eax, DWORD PTR _u$[ebp]
  00794	69 c0 fc 03 00
	00		 imul	 eax, 1020		; 000003fcH
  0079a	8b 4d f8	 mov	 ecx, DWORD PTR _i$[ebp]
  0079d	83 bc 88 00 00
	00 00 ff	 cmp	 DWORD PTR _elp[eax+ecx*4], -1
  007a5	74 3a		 je	 SHORT $LN40@decode_rs

; 308  :                  z[i] = alpha_to[s[i]] ^ alpha_to[elp[u][i]] ;

  007a7	8b 45 f8	 mov	 eax, DWORD PTR _i$[ebp]
  007aa	8b 0c 85 00 00
	00 00		 mov	 ecx, DWORD PTR _s[eax*4]
  007b1	8b 55 e0	 mov	 edx, DWORD PTR _u$[ebp]
  007b4	69 d2 fc 03 00
	00		 imul	 edx, 1020		; 000003fcH
  007ba	8b 45 f8	 mov	 eax, DWORD PTR _i$[ebp]
  007bd	8b 94 82 00 00
	00 00		 mov	 edx, DWORD PTR _elp[edx+eax*4]
  007c4	8b 04 8d 00 00
	00 00		 mov	 eax, DWORD PTR _alpha_to[ecx*4]
  007cb	33 04 95 00 00
	00 00		 xor	 eax, DWORD PTR _alpha_to[edx*4]
  007d2	8b 4d f8	 mov	 ecx, DWORD PTR _i$[ebp]
  007d5	89 04 8d 00 00
	00 00		 mov	 DWORD PTR _z[ecx*4], eax
  007dc	e9 97 00 00 00	 jmp	 $LN39@decode_rs
$LN40@decode_rs:

; 309  :               else if ((s[i]!=-1) && (elp[u][i]==-1))

  007e1	8b 45 f8	 mov	 eax, DWORD PTR _i$[ebp]
  007e4	83 3c 85 00 00
	00 00 ff	 cmp	 DWORD PTR _s[eax*4], -1
  007ec	74 33		 je	 SHORT $LN38@decode_rs
  007ee	8b 45 e0	 mov	 eax, DWORD PTR _u$[ebp]
  007f1	69 c0 fc 03 00
	00		 imul	 eax, 1020		; 000003fcH
  007f7	8b 4d f8	 mov	 ecx, DWORD PTR _i$[ebp]
  007fa	83 bc 88 00 00
	00 00 ff	 cmp	 DWORD PTR _elp[eax+ecx*4], -1
  00802	75 1d		 jne	 SHORT $LN38@decode_rs

; 310  :                       z[i] = alpha_to[s[i]] ;

  00804	8b 45 f8	 mov	 eax, DWORD PTR _i$[ebp]
  00807	8b 0c 85 00 00
	00 00		 mov	 ecx, DWORD PTR _s[eax*4]
  0080e	8b 55 f8	 mov	 edx, DWORD PTR _i$[ebp]
  00811	8b 04 8d 00 00
	00 00		 mov	 eax, DWORD PTR _alpha_to[ecx*4]
  00818	89 04 95 00 00
	00 00		 mov	 DWORD PTR _z[edx*4], eax
  0081f	eb 57		 jmp	 SHORT $LN39@decode_rs
$LN38@decode_rs:

; 311  :                    else if ((s[i]==-1) && (elp[u][i]!=-1))

  00821	8b 45 f8	 mov	 eax, DWORD PTR _i$[ebp]
  00824	83 3c 85 00 00
	00 00 ff	 cmp	 DWORD PTR _s[eax*4], -1
  0082c	75 3c		 jne	 SHORT $LN36@decode_rs
  0082e	8b 45 e0	 mov	 eax, DWORD PTR _u$[ebp]
  00831	69 c0 fc 03 00
	00		 imul	 eax, 1020		; 000003fcH
  00837	8b 4d f8	 mov	 ecx, DWORD PTR _i$[ebp]
  0083a	83 bc 88 00 00
	00 00 ff	 cmp	 DWORD PTR _elp[eax+ecx*4], -1
  00842	74 26		 je	 SHORT $LN36@decode_rs

; 312  :                           z[i] = alpha_to[elp[u][i]] ;

  00844	8b 45 e0	 mov	 eax, DWORD PTR _u$[ebp]
  00847	69 c0 fc 03 00
	00		 imul	 eax, 1020		; 000003fcH
  0084d	8b 4d f8	 mov	 ecx, DWORD PTR _i$[ebp]
  00850	8b 94 88 00 00
	00 00		 mov	 edx, DWORD PTR _elp[eax+ecx*4]
  00857	8b 45 f8	 mov	 eax, DWORD PTR _i$[ebp]
  0085a	8b 0c 95 00 00
	00 00		 mov	 ecx, DWORD PTR _alpha_to[edx*4]
  00861	89 0c 85 00 00
	00 00		 mov	 DWORD PTR _z[eax*4], ecx

; 313  :                         else

  00868	eb 0e		 jmp	 SHORT $LN39@decode_rs
$LN36@decode_rs:

; 314  :                           z[i] = 0 ;

  0086a	8b 45 f8	 mov	 eax, DWORD PTR _i$[ebp]
  0086d	c7 04 85 00 00
	00 00 00 00 00
	00		 mov	 DWORD PTR _z[eax*4], 0
$LN39@decode_rs:

; 315  :               for (j=1; j<i; j++)

  00878	c7 45 ec 01 00
	00 00		 mov	 DWORD PTR _j$[ebp], 1
  0087f	eb 09		 jmp	 SHORT $LN34@decode_rs
$LN33@decode_rs:
  00881	8b 45 ec	 mov	 eax, DWORD PTR _j$[ebp]
  00884	83 c0 01	 add	 eax, 1
  00887	89 45 ec	 mov	 DWORD PTR _j$[ebp], eax
$LN34@decode_rs:
  0088a	8b 45 ec	 mov	 eax, DWORD PTR _j$[ebp]
  0088d	3b 45 f8	 cmp	 eax, DWORD PTR _i$[ebp]
  00890	7d 6b		 jge	 SHORT $LN32@decode_rs

; 316  :                 if ((s[j]!=-1) && (elp[u][i-j]!=-1))

  00892	8b 45 ec	 mov	 eax, DWORD PTR _j$[ebp]
  00895	83 3c 85 00 00
	00 00 ff	 cmp	 DWORD PTR _s[eax*4], -1
  0089d	74 5c		 je	 SHORT $LN31@decode_rs
  0089f	8b 45 e0	 mov	 eax, DWORD PTR _u$[ebp]
  008a2	69 c0 fc 03 00
	00		 imul	 eax, 1020		; 000003fcH
  008a8	8b 4d f8	 mov	 ecx, DWORD PTR _i$[ebp]
  008ab	2b 4d ec	 sub	 ecx, DWORD PTR _j$[ebp]
  008ae	83 bc 88 00 00
	00 00 ff	 cmp	 DWORD PTR _elp[eax+ecx*4], -1
  008b6	74 43		 je	 SHORT $LN31@decode_rs

; 317  :                    z[i] ^= alpha_to[(elp[u][i-j] + s[j])%nn] ;

  008b8	8b 45 e0	 mov	 eax, DWORD PTR _u$[ebp]
  008bb	69 c0 fc 03 00
	00		 imul	 eax, 1020		; 000003fcH
  008c1	8b 4d f8	 mov	 ecx, DWORD PTR _i$[ebp]
  008c4	2b 4d ec	 sub	 ecx, DWORD PTR _j$[ebp]
  008c7	8b 84 88 00 00
	00 00		 mov	 eax, DWORD PTR _elp[eax+ecx*4]
  008ce	8b 55 ec	 mov	 edx, DWORD PTR _j$[ebp]
  008d1	03 04 95 00 00
	00 00		 add	 eax, DWORD PTR _s[edx*4]
  008d8	99		 cdq
  008d9	b9 ff 00 00 00	 mov	 ecx, 255		; 000000ffH
  008de	f7 f9		 idiv	 ecx
  008e0	8b 45 f8	 mov	 eax, DWORD PTR _i$[ebp]
  008e3	8b 0c 85 00 00
	00 00		 mov	 ecx, DWORD PTR _z[eax*4]
  008ea	33 0c 95 00 00
	00 00		 xor	 ecx, DWORD PTR _alpha_to[edx*4]
  008f1	8b 55 f8	 mov	 edx, DWORD PTR _i$[ebp]
  008f4	89 0c 95 00 00
	00 00		 mov	 DWORD PTR _z[edx*4], ecx
$LN31@decode_rs:

; 318  :               z[i] = index_of[z[i]] ;         /* put into index form */

  008fb	eb 84		 jmp	 SHORT $LN33@decode_rs
$LN32@decode_rs:
  008fd	8b 45 f8	 mov	 eax, DWORD PTR _i$[ebp]
  00900	8b 0c 85 00 00
	00 00		 mov	 ecx, DWORD PTR _z[eax*4]
  00907	8b 55 f8	 mov	 edx, DWORD PTR _i$[ebp]
  0090a	8b 04 8d 00 00
	00 00		 mov	 eax, DWORD PTR _index_of[ecx*4]
  00911	89 04 95 00 00
	00 00		 mov	 DWORD PTR _z[edx*4], eax

; 319  :             } ;

  00918	e9 4b fe ff ff	 jmp	 $LN42@decode_rs
$LN41@decode_rs:

; 320  : 
; 321  :   /* evaluate errors at locations given by error location numbers loc[i] */
; 322  :            for (i=0; i<nn; i++)

  0091d	c7 45 f8 00 00
	00 00		 mov	 DWORD PTR _i$[ebp], 0
  00924	eb 09		 jmp	 SHORT $LN30@decode_rs
$LN29@decode_rs:
  00926	8b 45 f8	 mov	 eax, DWORD PTR _i$[ebp]
  00929	83 c0 01	 add	 eax, 1
  0092c	89 45 f8	 mov	 DWORD PTR _i$[ebp], eax
$LN30@decode_rs:
  0092f	81 7d f8 ff 00
	00 00		 cmp	 DWORD PTR _i$[ebp], 255	; 000000ffH
  00936	7d 48		 jge	 SHORT $LN28@decode_rs

; 323  :              { err[i] = 0 ;

  00938	8b 45 f8	 mov	 eax, DWORD PTR _i$[ebp]
  0093b	c7 04 85 00 00
	00 00 00 00 00
	00		 mov	 DWORD PTR _err[eax*4], 0

; 324  :                if (recd[i]!=-1)        /* convert recd[] to polynomial form */

  00946	8b 45 f8	 mov	 eax, DWORD PTR _i$[ebp]
  00949	83 3c 85 00 00
	00 00 ff	 cmp	 DWORD PTR _recd[eax*4], -1
  00951	74 1d		 je	 SHORT $LN27@decode_rs

; 325  :                  recd[i] = alpha_to[recd[i]] ;

  00953	8b 45 f8	 mov	 eax, DWORD PTR _i$[ebp]
  00956	8b 0c 85 00 00
	00 00		 mov	 ecx, DWORD PTR _recd[eax*4]
  0095d	8b 55 f8	 mov	 edx, DWORD PTR _i$[ebp]
  00960	8b 04 8d 00 00
	00 00		 mov	 eax, DWORD PTR _alpha_to[ecx*4]
  00967	89 04 95 00 00
	00 00		 mov	 DWORD PTR _recd[edx*4], eax
  0096e	eb 0e		 jmp	 SHORT $LN26@decode_rs
$LN27@decode_rs:

; 326  :                else  recd[i] = 0 ;

  00970	8b 45 f8	 mov	 eax, DWORD PTR _i$[ebp]
  00973	c7 04 85 00 00
	00 00 00 00 00
	00		 mov	 DWORD PTR _recd[eax*4], 0
$LN26@decode_rs:

; 327  :              }

  0097e	eb a6		 jmp	 SHORT $LN29@decode_rs
$LN28@decode_rs:

; 328  :            for (i=0; i<l[u]; i++)    /* compute numerator of error term first */

  00980	c7 45 f8 00 00
	00 00		 mov	 DWORD PTR _i$[ebp], 0
  00987	eb 09		 jmp	 SHORT $LN25@decode_rs
$LN24@decode_rs:
  00989	8b 45 f8	 mov	 eax, DWORD PTR _i$[ebp]
  0098c	83 c0 01	 add	 eax, 1
  0098f	89 45 f8	 mov	 DWORD PTR _i$[ebp], eax
$LN25@decode_rs:
  00992	8b 45 e0	 mov	 eax, DWORD PTR _u$[ebp]
  00995	8b 4d f8	 mov	 ecx, DWORD PTR _i$[ebp]
  00998	3b 0c 85 00 00
	00 00		 cmp	 ecx, DWORD PTR _l[eax*4]
  0099f	0f 8d b5 01 00
	00		 jge	 $LN23@decode_rs

; 329  :             { err[loc[i]] = 1;       /* accounts for z[0] */

  009a5	8b 45 f8	 mov	 eax, DWORD PTR _i$[ebp]
  009a8	8b 0c 85 00 00
	00 00		 mov	 ecx, DWORD PTR _loc[eax*4]
  009af	c7 04 8d 00 00
	00 00 01 00 00
	00		 mov	 DWORD PTR _err[ecx*4], 1

; 330  :               for (j=1; j<=l[u]; j++)

  009ba	c7 45 ec 01 00
	00 00		 mov	 DWORD PTR _j$[ebp], 1
  009c1	eb 09		 jmp	 SHORT $LN22@decode_rs
$LN21@decode_rs:
  009c3	8b 45 ec	 mov	 eax, DWORD PTR _j$[ebp]
  009c6	83 c0 01	 add	 eax, 1
  009c9	89 45 ec	 mov	 DWORD PTR _j$[ebp], eax
$LN22@decode_rs:
  009cc	8b 45 e0	 mov	 eax, DWORD PTR _u$[ebp]
  009cf	8b 4d ec	 mov	 ecx, DWORD PTR _j$[ebp]
  009d2	3b 0c 85 00 00
	00 00		 cmp	 ecx, DWORD PTR _l[eax*4]
  009d9	7f 5a		 jg	 SHORT $LN20@decode_rs

; 331  :                 if (z[j]!=-1)

  009db	8b 45 ec	 mov	 eax, DWORD PTR _j$[ebp]
  009de	83 3c 85 00 00
	00 00 ff	 cmp	 DWORD PTR _z[eax*4], -1
  009e6	74 4b		 je	 SHORT $LN19@decode_rs

; 332  :                   err[loc[i]] ^= alpha_to[(z[j]+j*root[i])%nn] ;

  009e8	8b 45 f8	 mov	 eax, DWORD PTR _i$[ebp]
  009eb	8b 0c 85 00 00
	00 00		 mov	 ecx, DWORD PTR _loc[eax*4]
  009f2	8b 55 f8	 mov	 edx, DWORD PTR _i$[ebp]
  009f5	8b 45 ec	 mov	 eax, DWORD PTR _j$[ebp]
  009f8	0f af 04 95 00
	00 00 00	 imul	 eax, DWORD PTR _root[edx*4]
  00a00	8b 55 ec	 mov	 edx, DWORD PTR _j$[ebp]
  00a03	8b 14 95 00 00
	00 00		 mov	 edx, DWORD PTR _z[edx*4]
  00a0a	03 c2		 add	 eax, edx
  00a0c	99		 cdq
  00a0d	be ff 00 00 00	 mov	 esi, 255		; 000000ffH
  00a12	f7 fe		 idiv	 esi
  00a14	8b 04 8d 00 00
	00 00		 mov	 eax, DWORD PTR _err[ecx*4]
  00a1b	33 04 95 00 00
	00 00		 xor	 eax, DWORD PTR _alpha_to[edx*4]
  00a22	8b 4d f8	 mov	 ecx, DWORD PTR _i$[ebp]
  00a25	8b 14 8d 00 00
	00 00		 mov	 edx, DWORD PTR _loc[ecx*4]
  00a2c	89 04 95 00 00
	00 00		 mov	 DWORD PTR _err[edx*4], eax
$LN19@decode_rs:

; 333  :               if (err[loc[i]]!=0)

  00a33	eb 8e		 jmp	 SHORT $LN21@decode_rs
$LN20@decode_rs:
  00a35	8b 45 f8	 mov	 eax, DWORD PTR _i$[ebp]
  00a38	8b 0c 85 00 00
	00 00		 mov	 ecx, DWORD PTR _loc[eax*4]
  00a3f	83 3c 8d 00 00
	00 00 00	 cmp	 DWORD PTR _err[ecx*4], 0
  00a47	0f 84 08 01 00
	00		 je	 $LN18@decode_rs

; 334  :                { err[loc[i]] = index_of[err[loc[i]]] ;

  00a4d	8b 45 f8	 mov	 eax, DWORD PTR _i$[ebp]
  00a50	8b 0c 85 00 00
	00 00		 mov	 ecx, DWORD PTR _loc[eax*4]
  00a57	8b 14 8d 00 00
	00 00		 mov	 edx, DWORD PTR _err[ecx*4]
  00a5e	8b 45 f8	 mov	 eax, DWORD PTR _i$[ebp]
  00a61	8b 0c 85 00 00
	00 00		 mov	 ecx, DWORD PTR _loc[eax*4]
  00a68	8b 14 95 00 00
	00 00		 mov	 edx, DWORD PTR _index_of[edx*4]
  00a6f	89 14 8d 00 00
	00 00		 mov	 DWORD PTR _err[ecx*4], edx

; 335  :                  q = 0 ;     /* form denominator of error term */

  00a76	c7 45 d4 00 00
	00 00		 mov	 DWORD PTR _q$[ebp], 0

; 336  :                  for (j=0; j<l[u]; j++)

  00a7d	c7 45 ec 00 00
	00 00		 mov	 DWORD PTR _j$[ebp], 0
  00a84	eb 09		 jmp	 SHORT $LN17@decode_rs
$LN16@decode_rs:
  00a86	8b 45 ec	 mov	 eax, DWORD PTR _j$[ebp]
  00a89	83 c0 01	 add	 eax, 1
  00a8c	89 45 ec	 mov	 DWORD PTR _j$[ebp], eax
$LN17@decode_rs:
  00a8f	8b 45 e0	 mov	 eax, DWORD PTR _u$[ebp]
  00a92	8b 4d ec	 mov	 ecx, DWORD PTR _j$[ebp]
  00a95	3b 0c 85 00 00
	00 00		 cmp	 ecx, DWORD PTR _l[eax*4]
  00a9c	7d 3d		 jge	 SHORT $LN15@decode_rs

; 337  :                    if (j!=i)

  00a9e	8b 45 ec	 mov	 eax, DWORD PTR _j$[ebp]
  00aa1	3b 45 f8	 cmp	 eax, DWORD PTR _i$[ebp]
  00aa4	74 33		 je	 SHORT $LN14@decode_rs

; 338  :                      q += index_of[1^alpha_to[(loc[j]+root[i])%nn]] ;

  00aa6	8b 45 ec	 mov	 eax, DWORD PTR _j$[ebp]
  00aa9	8b 04 85 00 00
	00 00		 mov	 eax, DWORD PTR _loc[eax*4]
  00ab0	8b 4d f8	 mov	 ecx, DWORD PTR _i$[ebp]
  00ab3	03 04 8d 00 00
	00 00		 add	 eax, DWORD PTR _root[ecx*4]
  00aba	99		 cdq
  00abb	b9 ff 00 00 00	 mov	 ecx, 255		; 000000ffH
  00ac0	f7 f9		 idiv	 ecx
  00ac2	8b 14 95 00 00
	00 00		 mov	 edx, DWORD PTR _alpha_to[edx*4]
  00ac9	83 f2 01	 xor	 edx, 1
  00acc	8b 45 d4	 mov	 eax, DWORD PTR _q$[ebp]
  00acf	03 04 95 00 00
	00 00		 add	 eax, DWORD PTR _index_of[edx*4]
  00ad6	89 45 d4	 mov	 DWORD PTR _q$[ebp], eax
$LN14@decode_rs:

; 339  :                  q = q % nn ;

  00ad9	eb ab		 jmp	 SHORT $LN16@decode_rs
$LN15@decode_rs:
  00adb	8b 45 d4	 mov	 eax, DWORD PTR _q$[ebp]
  00ade	99		 cdq
  00adf	b9 ff 00 00 00	 mov	 ecx, 255		; 000000ffH
  00ae4	f7 f9		 idiv	 ecx
  00ae6	89 55 d4	 mov	 DWORD PTR _q$[ebp], edx

; 340  :                  err[loc[i]] = alpha_to[(err[loc[i]]-q+nn)%nn] ;

  00ae9	8b 45 f8	 mov	 eax, DWORD PTR _i$[ebp]
  00aec	8b 0c 85 00 00
	00 00		 mov	 ecx, DWORD PTR _loc[eax*4]
  00af3	8b 04 8d 00 00
	00 00		 mov	 eax, DWORD PTR _err[ecx*4]
  00afa	2b 45 d4	 sub	 eax, DWORD PTR _q$[ebp]
  00afd	05 ff 00 00 00	 add	 eax, 255		; 000000ffH
  00b02	99		 cdq
  00b03	b9 ff 00 00 00	 mov	 ecx, 255		; 000000ffH
  00b08	f7 f9		 idiv	 ecx
  00b0a	8b 45 f8	 mov	 eax, DWORD PTR _i$[ebp]
  00b0d	8b 0c 85 00 00
	00 00		 mov	 ecx, DWORD PTR _loc[eax*4]
  00b14	8b 14 95 00 00
	00 00		 mov	 edx, DWORD PTR _alpha_to[edx*4]
  00b1b	89 14 8d 00 00
	00 00		 mov	 DWORD PTR _err[ecx*4], edx

; 341  :                  recd[loc[i]] ^= err[loc[i]] ;  /*recd[i] must be in polynomial form */

  00b22	8b 45 f8	 mov	 eax, DWORD PTR _i$[ebp]
  00b25	8b 0c 85 00 00
	00 00		 mov	 ecx, DWORD PTR _loc[eax*4]
  00b2c	8b 55 f8	 mov	 edx, DWORD PTR _i$[ebp]
  00b2f	8b 04 95 00 00
	00 00		 mov	 eax, DWORD PTR _loc[edx*4]
  00b36	8b 0c 8d 00 00
	00 00		 mov	 ecx, DWORD PTR _recd[ecx*4]
  00b3d	33 0c 85 00 00
	00 00		 xor	 ecx, DWORD PTR _err[eax*4]
  00b44	8b 55 f8	 mov	 edx, DWORD PTR _i$[ebp]
  00b47	8b 04 95 00 00
	00 00		 mov	 eax, DWORD PTR _loc[edx*4]
  00b4e	89 0c 85 00 00
	00 00		 mov	 DWORD PTR _recd[eax*4], ecx
$LN18@decode_rs:

; 342  :                }
; 343  :             }

  00b55	e9 2f fe ff ff	 jmp	 $LN24@decode_rs
$LN23@decode_rs:

; 344  :           }
; 345  :          else    /* no. roots != degree of elp => >tt errors and cannot solve */

  00b5a	eb 55		 jmp	 SHORT $LN13@decode_rs
$LN44@decode_rs:

; 346  :            for (i=0; i<nn; i++)        /* could return error flag if desired */

  00b5c	c7 45 f8 00 00
	00 00		 mov	 DWORD PTR _i$[ebp], 0
  00b63	eb 09		 jmp	 SHORT $LN12@decode_rs
$LN11@decode_rs:
  00b65	8b 45 f8	 mov	 eax, DWORD PTR _i$[ebp]
  00b68	83 c0 01	 add	 eax, 1
  00b6b	89 45 f8	 mov	 DWORD PTR _i$[ebp], eax
$LN12@decode_rs:
  00b6e	81 7d f8 ff 00
	00 00		 cmp	 DWORD PTR _i$[ebp], 255	; 000000ffH
  00b75	7d 3a		 jge	 SHORT $LN13@decode_rs

; 347  :                if (recd[i]!=-1)        /* convert recd[] to polynomial form */

  00b77	8b 45 f8	 mov	 eax, DWORD PTR _i$[ebp]
  00b7a	83 3c 85 00 00
	00 00 ff	 cmp	 DWORD PTR _recd[eax*4], -1
  00b82	74 1d		 je	 SHORT $LN9@decode_rs

; 348  :                  recd[i] = alpha_to[recd[i]] ;

  00b84	8b 45 f8	 mov	 eax, DWORD PTR _i$[ebp]
  00b87	8b 0c 85 00 00
	00 00		 mov	 ecx, DWORD PTR _recd[eax*4]
  00b8e	8b 55 f8	 mov	 edx, DWORD PTR _i$[ebp]
  00b91	8b 04 8d 00 00
	00 00		 mov	 eax, DWORD PTR _alpha_to[ecx*4]
  00b98	89 04 95 00 00
	00 00		 mov	 DWORD PTR _recd[edx*4], eax
  00b9f	eb 0e		 jmp	 SHORT $LN8@decode_rs
$LN9@decode_rs:

; 349  :                else  recd[i] = 0 ;     /* just output received codeword as is */

  00ba1	8b 45 f8	 mov	 eax, DWORD PTR _i$[ebp]
  00ba4	c7 04 85 00 00
	00 00 00 00 00
	00		 mov	 DWORD PTR _recd[eax*4], 0
$LN8@decode_rs:
  00baf	eb b4		 jmp	 SHORT $LN11@decode_rs
$LN13@decode_rs:

; 350  :        }
; 351  :      else         /* elp has degree has degree >tt hence cannot solve */

  00bb1	eb 55		 jmp	 SHORT $LN7@decode_rs
$LN59@decode_rs:

; 352  :        for (i=0; i<nn; i++)       /* could return error flag if desired */

  00bb3	c7 45 f8 00 00
	00 00		 mov	 DWORD PTR _i$[ebp], 0
  00bba	eb 09		 jmp	 SHORT $LN6@decode_rs
$LN5@decode_rs:
  00bbc	8b 45 f8	 mov	 eax, DWORD PTR _i$[ebp]
  00bbf	83 c0 01	 add	 eax, 1
  00bc2	89 45 f8	 mov	 DWORD PTR _i$[ebp], eax
$LN6@decode_rs:
  00bc5	81 7d f8 ff 00
	00 00		 cmp	 DWORD PTR _i$[ebp], 255	; 000000ffH
  00bcc	7d 3a		 jge	 SHORT $LN7@decode_rs

; 353  :           if (recd[i]!=-1)        /* convert recd[] to polynomial form */

  00bce	8b 45 f8	 mov	 eax, DWORD PTR _i$[ebp]
  00bd1	83 3c 85 00 00
	00 00 ff	 cmp	 DWORD PTR _recd[eax*4], -1
  00bd9	74 1d		 je	 SHORT $LN3@decode_rs

; 354  :             recd[i] = alpha_to[recd[i]] ;

  00bdb	8b 45 f8	 mov	 eax, DWORD PTR _i$[ebp]
  00bde	8b 0c 85 00 00
	00 00		 mov	 ecx, DWORD PTR _recd[eax*4]
  00be5	8b 55 f8	 mov	 edx, DWORD PTR _i$[ebp]
  00be8	8b 04 8d 00 00
	00 00		 mov	 eax, DWORD PTR _alpha_to[ecx*4]
  00bef	89 04 95 00 00
	00 00		 mov	 DWORD PTR _recd[edx*4], eax
  00bf6	eb 0e		 jmp	 SHORT $LN2@decode_rs
$LN3@decode_rs:

; 355  :           else  recd[i] = 0 ;     /* just output received codeword as is */

  00bf8	8b 45 f8	 mov	 eax, DWORD PTR _i$[ebp]
  00bfb	c7 04 85 00 00
	00 00 00 00 00
	00		 mov	 DWORD PTR _recd[eax*4], 0
$LN2@decode_rs:
  00c06	eb b4		 jmp	 SHORT $LN5@decode_rs
$LN7@decode_rs:

; 356  : 	}
; 357  :    else       /* no non-zero syndromes => no errors: output received codeword */

  00c08	eb 07		 jmp	 SHORT $LN1@decode_rs
$LN98@decode_rs:

; 358  :    {
; 359  : 	   // Why ?? if ok just leave alone
; 360  : 
; 361  : //	   blnErrorsCorrected = TRUE;
; 362  : //	   for (i=0; i<nn; i++)
; 363  : //		   if (recd[i]!=-1)        /* convert recd[] to polynomial form */
; 364  : //			   recd[i] = alpha_to[recd[i]] ;
; 365  : //		   else
; 366  : //			   recd[i] = 0 ;
; 367  : 
; 368  : 	   return 1;

  00c0a	b8 01 00 00 00	 mov	 eax, 1
  00c0f	eb 02		 jmp	 SHORT $LN107@decode_rs
$LN1@decode_rs:

; 369  : 	   }
; 370  : 
; 371  : 	  
; 372  : 	return 0;

  00c11	33 c0		 xor	 eax, eax
$LN107@decode_rs:

; 373  : }

  00c13	5f		 pop	 edi
  00c14	5e		 pop	 esi
  00c15	5b		 pop	 ebx
  00c16	81 c4 f0 00 00
	00		 add	 esp, 240		; 000000f0H
  00c1c	3b ec		 cmp	 ebp, esp
  00c1e	e8 00 00 00 00	 call	 __RTC_CheckEsp
  00c23	8b e5		 mov	 esp, ebp
  00c25	5d		 pop	 ebp
  00c26	c3		 ret	 0
_decode_rs ENDP
_TEXT	ENDS
END
