; Listing generated by Microsoft (R) Optimizing Compiler Version 14.00.50727.762 

	TITLE	c:\Users\John\OneDrive\Dev\Source\ARDOPC\ardopSampleArrays.c
	.686P
	.XMM
	include listing.inc
	.model	flat

INCLUDELIB LIBCMTD
INCLUDELIB OLDNAMES

PUBLIC	_int50BaudTwoToneLeaderTemplate
PUBLIC	_intTwoToneLeaderTemplate
PUBLIC	_intFSK50bdCarTemplate
PUBLIC	_intFSK25bdCarTemplate
PUBLIC	_intFSK100bdCarTemplate
PUBLIC	_intFSK600bdCarTemplate
PUBLIC	_intPSK100bdCarTemplate
PUBLIC	_intPSK200bdCarTemplate
CONST	SEGMENT
_int50BaudTwoToneLeaderTemplate DW 00H
	DW	0fef9H
	DW	00H
	DW	0319H
	DW	05d8H
	DW	052aH
	DW	00H
	DW	0f8c7H
	DW	0f454H
	DW	0f6b9H
	DW	00H
	DW	0b55H
	DW	0117aH
	DW	0d60H
	DW	00H
	DW	0f098H
	DW	0e8c7H
	DW	0ee92H
	DW	00H
	DW	01372H
	DW	01ceaH
	DW	01571H
	DW	00H
	DW	0e894H
	DW	0dd7cH
	DW	0e69dH
	DW	00H
	DW	01b57H
	DW	02809H
	DW	01d45H
	DW	00H
	DW	0e0d3H
	DW	0d291H
	DW	0deefH
	DW	00H
	DW	022f0H
	DW	032b8H
	DW	024c8H
	DW	00H
	DW	0d968H
	DW	0c826H
	DW	0d79dH
	DW	00H
	DW	02a27H
	DW	03cd8H
	DW	02be3H
	DW	00H
	DW	0d26aH
	DW	0be57H
	DW	0d0bdH
	DW	00H
	DW	030e7H
	DW	0464eH
	DW	03283H
	DW	00H
	DW	0cbebH
	DW	0b540H
	DW	0ca62H
	DW	00H
	DW	0371fH
	DW	04effH
	DW	03896H
	DW	00H
	DW	0c5ffH
	DW	0acfcH
	DW	0c49dH
	DW	00H
	DW	03cbcH
	DW	056d2H
	DW	03e09H
	DW	00H
	DW	0c0b6H
	DW	0a5a0H
	DW	0bf7eH
	DW	00H
	DW	041aeH
	DW	05db1H
	DW	042cfH
	DW	00H
	DW	0bc1eH
	DW	09f41H
	DW	0bb15H
	DW	00H
	DW	045e9H
	DW	0638aH
	DW	046d9H
	DW	00H
	DW	0b844H
	DW	099f2H
	DW	0b76cH
	DW	00H
	DW	0495fH
	DW	0684cH
	DW	04a1dH
	DW	00H
	DW	0b534H
	DW	095c1H
	DW	0b490H
	DW	00H
	DW	04c07H
	DW	06be9H
	DW	04c91H
	DW	00H
	DW	0b2f5H
	DW	092baH
	DW	0b287H
	DW	00H
	DW	04ddaH
	DW	06e57H
	DW	04e2eH
	DW	00H
	DW	0b18fH
	DW	090e6H
	DW	0b157H
	DW	00H
	DW	04ed3H
	DW	06f90H
	DW	04ef0H
	DW	00H
	DW	0b104H
	DW	09049H
	DW	0b104H
	DW	00H
	DW	04eefH
	DW	06f90H
	DW	04ed4H
	DW	00H
	DW	0b157H
	DW	090e6H
	DW	0b18eH
	DW	00H
	DW	04e2dH
	DW	06e57H
	DW	04ddbH
	DW	00H
	DW	0b287H
	DW	092baH
	DW	0b2f4H
	DW	00H
	DW	04c90H
	DW	06be9H
	DW	04c08H
	DW	00H
	DW	0b490H
	DW	095c1H
	DW	0b533H
	DW	00H
	DW	04a1cH
	DW	0684cH
	DW	0495fH
	DW	00H
	DW	0b76dH
	DW	099f2H
	DW	0b843H
	DW	00H
	DW	046d9H
	DW	0638aH
	DW	045e9H
	DW	00H
	DW	0bb15H
	DW	09f41H
	DW	0bc1dH
	DW	00H
	DW	042ceH
	DW	05db1H
	DW	041afH
	DW	00H
	DW	0bf7fH
	DW	0a5a0H
	DW	0c0b5H
	DW	00H
	DW	03e09H
	DW	056d2H
	DW	03cbcH
	DW	00H
	DW	0c49dH
	DW	0acfcH
	DW	0c5ffH
	DW	00H
	DW	03895H
	DW	04effH
	DW	03720H
	DW	00H
	DW	0ca62H
	DW	0b540H
	DW	0cbebH
	DW	00H
	DW	03283H
	DW	0464eH
	DW	030e8H
	DW	00H
	DW	0d0beH
	DW	0be57H
	DW	0d269H
	DW	00H
	DW	02be3H
	DW	03cd8H
	DW	02a27H
	DW	00H
	DW	0d79eH
	DW	0c825H
	DW	0d968H
	DW	00H
	DW	024c7H
	DW	032b8H
	DW	022f0H
	DW	00H
	DW	0deefH
	DW	0d291H
	DW	0e0d2H
	DW	00H
	DW	01d45H
	DW	02809H
	DW	01b57H
	DW	00H
	DW	0e69dH
	DW	0dd7cH
	DW	0e894H
	DW	00H
	DW	01571H
	DW	01ceaH
	DW	01372H
	DW	00H
	DW	0ee92H
	DW	0e8c7H
	DW	0f098H
	DW	00H
	DW	0d60H
	DW	0117aH
	DW	0b56H
	DW	00H
	DW	0f6b9H
	DW	0f454H
	DW	0f8c7H
	DW	00H
	DW	052aH
	DW	05d8H
	DW	031aH
	DW	00H
	DW	0fef9H
_intTwoToneLeaderTemplate DW 00H
	DW	0fdc0H
	DW	00H
	DW	06c2H
	DW	0cbdH
	DW	0b3fH
	DW	00H
	DW	0f04dH
	DW	0e6abH
	DW	0ebe3H
	DW	00H
	DW	01879H
	DW	025a9H
	DW	01cc4H
	DW	00H
	DW	0df07H
	DW	0ce6fH
	DW	0dae8H
	DW	00H
	DW	0291eH
	DW	03cf0H
	DW	02d07H
	DW	00H
	DW	0cf32H
	DW	0b85fH
	DW	0cb8bH
	DW	00H
	DW	037f7H
	DW	0518cH
	DW	03b52H
	DW	00H
	DW	0c17eH
	DW	0a56fH
	DW	0be7aH
	DW	00H
	DW	0445eH
	DW	06299H
	DW	04705H
	DW	00H
	DW	0b687H
	DW	09676H
	DW	0b445H
	DW	00H
	DW	04dc8H
	DW	06f56H
	DW	04f9eH
	DW	00H
	DW	0aec5H
	DW	08c19H
	DW	0ad60H
	DW	00H
	DW	053ccH
	DW	07736H
	DW	054bcH
	DW	00H
	DW	0aa91H
	DW	086ccH
	DW	0aa18H
	DW	00H
	DW	05626H
	DW	079e0H
	DW	05626H
	DW	00H
	DW	0aa18H
	DW	086ccH
	DW	0aa91H
	DW	00H
	DW	054bcH
	DW	07736H
	DW	053ccH
	DW	00H
	DW	0ad60H
	DW	08c19H
	DW	0aec5H
	DW	00H
	DW	04f9eH
	DW	06f56H
	DW	04dc8H
	DW	00H
	DW	0b445H
	DW	09676H
	DW	0b687H
	DW	00H
	DW	04705H
	DW	06299H
	DW	0445eH
	DW	00H
	DW	0be7aH
	DW	0a56fH
	DW	0c17eH
	DW	00H
	DW	03b52H
	DW	0518cH
	DW	037f7H
	DW	00H
	DW	0cb8bH
	DW	0b85fH
	DW	0cf32H
	DW	00H
	DW	02d07H
	DW	03cefH
	DW	0291eH
	DW	00H
	DW	0dae8H
	DW	0ce6fH
	DW	0df07H
	DW	00H
	DW	01cc4H
	DW	025a9H
	DW	01879H
	DW	00H
	DW	0ebe3H
	DW	0e6abH
	DW	0f04dH
	DW	00H
	DW	0b3fH
	DW	0cbdH
	DW	06c2H
	DW	00H
	DW	0fdc0H
_intFSK50bdCarTemplate DW 00H
	DW	04bd5H
	DW	06f5fH
	DW	057bcH
	DW	0117aH
	DW	0c1efH
	DW	0935fH
	DW	09e87H
	DW	0dd7bH
	DW	02ec5H
	DW	06736H
	DW	068d0H
	DW	032b8H
	DW	0e1adH
	DW	0a0bfH
	DW	0926eH
	DW	0be56H
	DW	0d21H
	DW	054f3H
	DW	06fa1H
	DW	04effH
	DW	0462H
	DW	0b772H
	DW	0910fH
	DW	0a59fH
	DW	0ea35H
	DW	03a5fH
	DW	06b86H
	DW	0638aH
	DW	026aaH
	DW	0d540H
	DW	09a8cH
	DW	095c0H
	DW	0c96aH
	DW	01a14H
	DW	05ce4H
	DW	06e57H
	DW	0452aH
	DW	0f73dH
	DW	0adf7H
	DW	09048H
	DW	0adf7H
	DW	0f73dH
	DW	0452aH
	DW	06e57H
	DW	05ce4H
	DW	01a14H
	DW	0c96aH
	DW	095c0H
	DW	09a8cH
	DW	0d540H
	DW	026aaH
	DW	0638aH
	DW	06b86H
	DW	03a5fH
	DW	0ea35H
	DW	0a59fH
	DW	0910fH
	DW	0b772H
	DW	0462H
	DW	04effH
	DW	06fa1H
	DW	054f3H
	DW	0d21H
	DW	0be56H
	DW	0926eH
	DW	0a0bfH
	DW	0e1adH
	DW	032b8H
	DW	068d0H
	DW	06736H
	DW	02ec5H
	DW	0dd7bH
	DW	09e87H
	DW	0935fH
	DW	0c1efH
	DW	0117aH
	DW	057bcH
	DW	06f5fH
	DW	04bd5H
	DW	00H
	DW	0b42bH
	DW	090a1H
	DW	0a844H
	DW	0ee86H
	DW	03e11H
	DW	06ca1H
	DW	06179H
	DW	02285H
	DW	0d13bH
	DW	098caH
	DW	09730H
	DW	0cd48H
	DW	01e53H
	DW	05f41H
	DW	06d92H
	DW	041aaH
	DW	0f2dfH
	DW	0ab0dH
	DW	0905fH
	DW	0b101H
	DW	0fb9eH
	DW	0488eH
	DW	06ef1H
	DW	05a61H
	DW	015cbH
	DW	0c5a1H
	DW	0947aH
	DW	09c76H
	DW	0d956H
	DW	02ac0H
	DW	06574H
	DW	06a40H
	DW	03696H
	DW	0e5ecH
	DW	0a31cH
	DW	091a9H
	DW	0bad6H
	DW	08c3H
	DW	05209H
	DW	06fb8H
	DW	05209H
	DW	08c3H
	DW	0bad6H
	DW	091a9H
	DW	0a31cH
	DW	0e5ecH
	DW	03696H
	DW	06a40H
	DW	06574H
	DW	02ac0H
	DW	0d956H
	DW	09c76H
	DW	0947aH
	DW	0c5a1H
	DW	015cbH
	DW	05a61H
	DW	06ef1H
	DW	0488eH
	DW	0fb9eH
	DW	0b101H
	DW	0905fH
	DW	0ab0dH
	DW	0f2dfH
	DW	041aaH
	DW	06d92H
	DW	05f41H
	DW	01e53H
	DW	0cd48H
	DW	09730H
	DW	098caH
	DW	0d13bH
	DW	02285H
	DW	06179H
	DW	06ca1H
	DW	03e11H
	DW	0ee86H
	DW	0a844H
	DW	090a1H
	DW	0b42bH
	DW	00H
	DW	04bd5H
	DW	06f5fH
	DW	057bcH
	DW	0117aH
	DW	0c1efH
	DW	0935fH
	DW	09e87H
	DW	0dd7bH
	DW	02ec5H
	DW	06736H
	DW	068d0H
	DW	032b8H
	DW	0e1adH
	DW	0a0bfH
	DW	0926eH
	DW	0be56H
	DW	0d21H
	DW	054f3H
	DW	06fa1H
	DW	04effH
	DW	0462H
	DW	0b772H
	DW	0910fH
	DW	0a59fH
	DW	0ea35H
	DW	03a5fH
	DW	06b86H
	DW	0638aH
	DW	026aaH
	DW	0d540H
	DW	09a8cH
	DW	095c0H
	DW	0c96aH
	DW	01a14H
	DW	05ce4H
	DW	06e57H
	DW	0452aH
	DW	0f73dH
	DW	0adf7H
	DW	09048H
	DW	0adf7H
	DW	0f73dH
	DW	0452aH
	DW	06e57H
	DW	05ce4H
	DW	01a14H
	DW	0c96aH
	DW	095c0H
	DW	09a8cH
	DW	0d540H
	DW	026aaH
	DW	0638aH
	DW	06b86H
	DW	03a5fH
	DW	0ea35H
	DW	0a59fH
	DW	0910fH
	DW	0b772H
	DW	0462H
	DW	04effH
	DW	06fa1H
	DW	054f3H
	DW	0d21H
	DW	0be56H
	DW	0926eH
	DW	0a0bfH
	DW	0e1adH
	DW	032b8H
	DW	068d0H
	DW	06736H
	DW	02ec5H
	DW	0dd7bH
	DW	09e87H
	DW	0935fH
	DW	0c1efH
	DW	0117aH
	DW	057bcH
	DW	06f5fH
	DW	04bd5H
	DW	00H
	DW	04df4H
	DW	06faeH
	DW	05209H
	DW	05d8H
	DW	0b657H
	DW	090a1H
	DW	0aa1cH
	DW	0f453H
	DW	0452aH
	DW	06ec3H
	DW	05983H
	DW	0117aH
	DW	0bf86H
	DW	09227H
	DW	0a31cH
	DW	0e8c6H
	DW	03b9dH
	DW	06ca1H
	DW	06003H
	DW	01ceaH
	DW	0c96aH
	DW	094e2H
	DW	09d22H
	DW	0dd7bH
	DW	03169H
	DW	0694fH
	DW	06574H
	DW	02809H
	DW	0d3e7H
	DW	098caH
	DW	0983dH
	DW	0d290H
	DW	026aaH
	DW	064d5H
	DW	069caH
	DW	032b8H
	DW	0dedfH
	DW	09dd2H
	DW	0947aH
	DW	0c824H
	DW	01b7fH
	DW	05f41H
	DW	06cf6H
	DW	03cd8H
	DW	0ea35H
	DW	0a3eeH
	DW	091e6H
	DW	0be56H
	DW	01007H
	DW	058a1H
	DW	06ef1H
	DW	0464eH
	DW	0f5c8H
	DW	0ab0dH
	DW	09086H
	DW	0b53fH
	DW	0462H
	DW	05109H
	DW	06fb5H
	DW	04effH
	DW	0176H
	DW	0b31aH
	DW	0905fH
	DW	0acfbH
	DW	0f8b2H
	DW	0488eH
	DW	06f40H
	DW	056d2H
	DW	0d21H
	DW	0bbfeH
	DW	09170H
	DW	0a59fH
	DW	0ed15H
	DW	03f47H
	DW	06d92H
	DW	05db1H
	DW	018a7H
	DW	0c5a1H
	DW	093b8H
	DW	09f40H
	DW	0e1adH
	DW	0354eH
	DW	06ab1H
	DW	0638aH
	DW	023e9H
	DW	0cfe8H
	DW	09730H
	DW	099f1H
	DW	0d69bH
	DW	02ac0H
	DW	066a5H
	DW	0684cH
	DW	02ec5H
	DW	0dab6H
	DW	09bceH
	DW	095c0H
	DW	0cbfcH
	DW	01fbaH
	DW	06179H
	DW	06be9H
	DW	0391eH
	DW	0e5ecH
	DW	0a185H
	DW	092b9H
	DW	0c1efH
	DW	0145bH
	DW	05b3bH
	DW	06e57H
	DW	042d8H
	DW	0f16bH
	DW	0a844H
	DW	090e5H
	DW	0b891H
	DW	08c3H
	DW	053feH
	DW	06f90H
	DW	04bd5H
	DW	0fd14H
	DW	0affaH
	DW	09048H
	DW	0affaH
	DW	0fd14H
	DW	04bd5H
	DW	06f90H
	DW	053feH
	DW	08c3H
	DW	0b891H
	DW	090e5H
	DW	0a844H
	DW	0f16bH
	DW	042d8H
	DW	06e57H
	DW	05b3bH
	DW	0145bH
	DW	0c1efH
	DW	092b9H
	DW	0a185H
	DW	0e5ecH
	DW	0391eH
	DW	06be9H
	DW	06179H
	DW	01fbaH
	DW	0cbfcH
	DW	095c0H
	DW	09bceH
	DW	0dab6H
	DW	02ec5H
	DW	0684cH
	DW	066a5H
	DW	02ac0H
	DW	0d69bH
	DW	099f1H
	DW	09730H
	DW	0cfe8H
	DW	023e9H
	DW	0638aH
	DW	06ab1H
	DW	0354eH
	DW	0e1adH
	DW	09f40H
	DW	093b8H
	DW	0c5a1H
	DW	018a7H
	DW	05db1H
	DW	06d92H
	DW	03f47H
	DW	0ed15H
	DW	0a59fH
	DW	09170H
	DW	0bbfeH
	DW	0d21H
	DW	056d2H
	DW	06f40H
	DW	0488eH
	DW	0f8b2H
	DW	0acfbH
	DW	0905fH
	DW	0b31aH
	DW	0176H
	DW	04effH
	DW	06fb5H
	DW	05109H
	DW	0462H
	DW	0b53fH
	DW	09086H
	DW	0ab0dH
	DW	0f5c8H
	DW	0464eH
	DW	06ef1H
	DW	058a1H
	DW	01007H
	DW	0be56H
	DW	091e6H
	DW	0a3eeH
	DW	0ea35H
	DW	03cd8H
	DW	06cf6H
	DW	05f41H
	DW	01b7fH
	DW	0c825H
	DW	0947aH
	DW	09dd2H
	DW	0dedfH
	DW	032b8H
	DW	069caH
	DW	064d5H
	DW	026aaH
	DW	0d290H
	DW	0983dH
	DW	098caH
	DW	0d3e7H
	DW	02809H
	DW	06574H
	DW	0694fH
	DW	03169H
	DW	0dd7bH
	DW	09d22H
	DW	094e2H
	DW	0c96aH
	DW	01ceaH
	DW	06003H
	DW	06ca1H
	DW	03b9dH
	DW	0e8c6H
	DW	0a31cH
	DW	09227H
	DW	0bf86H
	DW	0117aH
	DW	05983H
	DW	06ec3H
	DW	0452aH
	DW	0f453H
	DW	0aa1cH
	DW	090a1H
	DW	0b657H
	DW	05d8H
	DW	05209H
	DW	06faeH
	DW	04df4H
	DW	00H
	DW	05006H
	DW	06faeH
	DW	04bd5H
	DW	0fa28H
	DW	0ac02H
	DW	090a1H
	DW	0b891H
	DW	0badH
	DW	057bcH
	DW	06ec3H
	DW	042d8H
	DW	0ee86H
	DW	0a4c5H
	DW	09227H
	DW	0c1efH
	DW	0173aH
	DW	05e7bH
	DW	06ca1H
	DW	0391eH
	DW	0e316H
	DW	09e87H
	DW	094e2H
	DW	0cbfcH
	DW	02285H
	DW	06432H
	DW	0694fH
	DW	02ec5H
	DW	0d7f7H
	DW	0995bH
	DW	098caH
	DW	0d69bH
	DW	02d70H
	DW	068d0H
	DW	064d5H
	DW	023e9H
	DW	0cd48H
	DW	0954fH
	DW	09dd2H
	DW	0e1adH
	DW	037dcH
	DW	06c48H
	DW	05f41H
	DW	018a7H
	DW	0c328H
	DW	0926eH
	DW	0a3eeH
	DW	0ed15H
	DW	041aaH
	DW	06e90H
	DW	058a1H
	DW	0d21H
	DW	0b9b2H
	DW	090c0H
	DW	0ab0dH
	DW	0f8b2H
	DW	04ac1H
	DW	06fa1H
	DW	05109H
	DW	0176H
	DW	0b101H
	DW	0904bH
	DW	0b31aH
	DW	0462H
	DW	05305H
	DW	06f7aH
	DW	0488eH
	DW	0f5c8H
	DW	0a92eH
	DW	0910fH
	DW	0bbfeH
	DW	01007H
	DW	05a61H
	DW	06e1aH
	DW	03f47H
	DW	0ea35H
	DW	0a24fH
	DW	0930aH
	DW	0c5a1H
	DW	01b7fH
	DW	060c0H
	DW	06b86H
	DW	0354eH
	DW	0dedfH
	DW	09c76H
	DW	09636H
	DW	0cfe8H
	DW	026aaH
	DW	0660fH
	DW	067c3H
	DW	02ac0H
	DW	0d3e7H
	DW	097b4H
	DW	09a8cH
	DW	0dab6H
	DW	03169H
	DW	06a40H
	DW	062deH
	DW	01fbaH
	DW	0c96aH
	DW	09417H
	DW	09ffdH
	DW	0e5ecH
	DW	03b9dH
	DW	06d47H
	DW	05ce4H
	DW	0145bH
	DW	0bf86H
	DW	091a9H
	DW	0a67dH
	DW	0f16bH
	DW	0452aH
	DW	06f1bH
	DW	055e4H
	DW	08c3H
	DW	0b657H
	DW	09070H
	DW	0adf7H
	DW	0fd14H
	DW	04df4H
	DW	06fb8H
	DW	04df4H
	DW	0fd14H
	DW	0adf7H
	DW	09070H
	DW	0b657H
	DW	08c3H
	DW	055e4H
	DW	06f1bH
	DW	0452aH
	DW	0f16bH
	DW	0a67dH
	DW	091a9H
	DW	0bf86H
	DW	0145bH
	DW	05ce4H
	DW	06d47H
	DW	03b9dH
	DW	0e5ecH
	DW	09ffdH
	DW	09417H
	DW	0c96aH
	DW	01fbaH
	DW	062deH
	DW	06a40H
	DW	03169H
	DW	0dab6H
	DW	09a8cH
	DW	097b4H
	DW	0d3e7H
	DW	02ac0H
	DW	067c3H
	DW	0660fH
	DW	026aaH
	DW	0cfe8H
	DW	09636H
	DW	09c76H
	DW	0dedfH
	DW	0354eH
	DW	06b86H
	DW	060c0H
	DW	01b7fH
	DW	0c5a1H
	DW	0930aH
	DW	0a24fH
	DW	0ea35H
	DW	03f47H
	DW	06e1aH
	DW	05a61H
	DW	01007H
	DW	0bbfeH
	DW	0910fH
	DW	0a92eH
	DW	0f5c8H
	DW	0488eH
	DW	06f7aH
	DW	05305H
	DW	0462H
	DW	0b31aH
	DW	0904bH
	DW	0b101H
	DW	0176H
	DW	05109H
	DW	06fa1H
	DW	04ac1H
	DW	0f8b2H
	DW	0ab0dH
	DW	090c0H
	DW	0b9b2H
	DW	0d21H
	DW	058a1H
	DW	06e90H
	DW	041aaH
	DW	0ed15H
	DW	0a3eeH
	DW	0926eH
	DW	0c328H
	DW	018a7H
	DW	05f41H
	DW	06c48H
	DW	037dbH
	DW	0e1adH
	DW	09dd2H
	DW	0954fH
	DW	0cd48H
	DW	023e9H
	DW	064d5H
	DW	068d0H
	DW	02d70H
	DW	0d69bH
	DW	098caH
	DW	0995bH
	DW	0d7f7H
	DW	02ec5H
	DW	0694fH
	DW	06432H
	DW	02285H
	DW	0cbfcH
	DW	094e2H
	DW	09e87H
	DW	0e316H
	DW	0391eH
	DW	06ca1H
	DW	05e7bH
	DW	0173aH
	DW	0c1efH
	DW	09227H
	DW	0a4c5H
	DW	0ee86H
	DW	042d8H
	DW	06ec3H
	DW	057bcH
	DW	0badH
	DW	0b891H
	DW	090a1H
	DW	0ac02H
	DW	0fa28H
	DW	04bd5H
	DW	06faeH
	DW	05006H
	DW	00H
	DW	05209H
	DW	06f5fH
	DW	0452aH
	DW	0ee86H
	DW	0a31cH
	DW	0935fH
	DW	0c96aH
	DW	02285H
	DW	06574H
	DW	06736H
	DW	026aaH
	DW	0cd48H
	DW	0947aH
	DW	0a0bfH
	DW	0ea35H
	DW	041aaH
	DW	06ef1H
	DW	054f3H
	DW	0462H
	DW	0b101H
	DW	0905fH
	DW	0b772H
	DW	0d21H
	DW	05a61H
	DW	06d92H
	DW	03a5fH
	DW	0e1adH
	DW	09c76H
	DW	09730H
	DW	0d540H
	DW	02ec5H
	DW	06a40H
	DW	06179H
	DW	01a14H
	DW	0c1efH
	DW	091a9H
	DW	0a844H
	DW	0f73dH
	DW	04bd5H
	DW	06fb8H
	DW	04bd5H
	DW	0f73dH
	DW	0a844H
	DW	091a9H
	DW	0c1efH
	DW	01a14H
	DW	06179H
	DW	06a40H
	DW	02ec5H
	DW	0d540H
	DW	09730H
	DW	09c76H
	DW	0e1adH
	DW	03a5fH
	DW	06d92H
	DW	05a61H
	DW	0d21H
	DW	0b772H
	DW	0905fH
	DW	0b101H
	DW	0462H
	DW	054f3H
	DW	06ef1H
	DW	041aaH
	DW	0ea35H
	DW	0a0bfH
	DW	0947aH
	DW	0cd48H
	DW	026aaH
	DW	06736H
	DW	06574H
	DW	02285H
	DW	0c96aH
	DW	0935fH
	DW	0a31cH
	DW	0ee86H
	DW	0452aH
	DW	06f5fH
	DW	05209H
	DW	00H
	DW	0adf7H
	DW	090a1H
	DW	0bad6H
	DW	0117aH
	DW	05ce4H
	DW	06ca1H
	DW	03696H
	DW	0dd7bH
	DW	09a8cH
	DW	098caH
	DW	0d956H
	DW	032b8H
	DW	06b86H
	DW	05f41H
	DW	015cbH
	DW	0be56H
	DW	0910fH
	DW	0ab0dH
	DW	0fb9eH
	DW	04effH
	DW	06fa1H
	DW	0488eH
	DW	0f2dfH
	DW	0a59fH
	DW	0926eH
	DW	0c5a1H
	DW	01e53H
	DW	0638aH
	DW	068d0H
	DW	02ac0H
	DW	0d13bH
	DW	095c0H
	DW	09e87H
	DW	0e5ecH
	DW	03e11H
	DW	06e57H
	DW	057bcH
	DW	08c3H
	DW	0b42bH
	DW	09048H
	DW	0b42bH
	DW	08c3H
	DW	057bcH
	DW	06e57H
	DW	03e11H
	DW	0e5ecH
	DW	09e87H
	DW	095c0H
	DW	0d13bH
	DW	02ac0H
	DW	068d0H
	DW	0638aH
	DW	01e53H
	DW	0c5a1H
	DW	0926eH
	DW	0a59fH
	DW	0f2dfH
	DW	0488eH
	DW	06fa1H
	DW	04effH
	DW	0fb9eH
	DW	0ab0dH
	DW	0910fH
	DW	0be56H
	DW	015cbH
	DW	05f41H
	DW	06b86H
	DW	032b8H
	DW	0d956H
	DW	098caH
	DW	09a8cH
	DW	0dd7bH
	DW	03696H
	DW	06ca1H
	DW	05ce4H
	DW	0117aH
	DW	0bad6H
	DW	090a1H
	DW	0adf7H
	DW	00H
	DW	05209H
	DW	06f5fH
	DW	0452aH
	DW	0ee86H
	DW	0a31cH
	DW	0935fH
	DW	0c96aH
	DW	02285H
	DW	06574H
	DW	06736H
	DW	026aaH
	DW	0cd48H
	DW	0947aH
	DW	0a0bfH
	DW	0ea35H
	DW	041aaH
	DW	06ef1H
	DW	054f3H
	DW	0462H
	DW	0b101H
	DW	0905fH
	DW	0b772H
	DW	0d21H
	DW	05a61H
	DW	06d92H
	DW	03a5fH
	DW	0e1adH
	DW	09c76H
	DW	09730H
	DW	0d540H
	DW	02ec5H
	DW	06a40H
	DW	06179H
	DW	01a14H
	DW	0c1efH
	DW	091a9H
	DW	0a844H
	DW	0f73dH
	DW	04bd5H
	DW	06fb8H
	DW	04bd5H
	DW	0f73dH
	DW	0a844H
	DW	091a9H
	DW	0c1efH
	DW	01a14H
	DW	06179H
	DW	06a40H
	DW	02ec5H
	DW	0d540H
	DW	09730H
	DW	09c76H
	DW	0e1adH
	DW	03a5fH
	DW	06d92H
	DW	05a61H
	DW	0d21H
	DW	0b772H
	DW	0905fH
	DW	0b101H
	DW	0462H
	DW	054f3H
	DW	06ef1H
	DW	041aaH
	DW	0ea35H
	DW	0a0bfH
	DW	0947aH
	DW	0cd48H
	DW	026aaH
	DW	06736H
	DW	06574H
	DW	02285H
	DW	0c96aH
	DW	0935fH
	DW	0a31cH
	DW	0ee86H
	DW	0452aH
	DW	06f5fH
	DW	05209H
_intFSK25bdCarTemplate DW 00H
	DW	046dfH
	DW	06d92H
	DW	06286H
	DW	02ac0H
	DW	0df92H
	DW	0a31cH
	DW	090d2H
	DW	0b101H
	DW	0f50dH
	DW	03e11H
	DW	06ae8H
	DW	06736H
	DW	034a9H
	DW	0ea35H
	DW	0a9a4H
	DW	09048H
	DW	0a9a4H
	DW	0ea35H
	DW	034a9H
	DW	06736H
	DW	06ae8H
	DW	03e11H
	DW	0f50dH
	DW	0b101H
	DW	090d2H
	DW	0a31cH
	DW	0df92H
	DW	02ac0H
	DW	06286H
	DW	06d92H
	DW	046dfH
	DW	00H
	DW	0b921H
	DW	0926eH
	DW	09d7aH
	DW	0d540H
	DW	0206eH
	DW	05ce4H
	DW	06f2eH
	DW	04effH
	DW	0af3H
	DW	0c1efH
	DW	09518H
	DW	098caH
	DW	0cb57H
	DW	015cbH
	DW	0565cH
	DW	06fb7H
	DW	0565cH
	DW	015cbH
	DW	0cb56H
	DW	098caH
	DW	09518H
	DW	0c1efH
	DW	0af3H
	DW	04effH
	DW	06f2eH
	DW	05ce3H
	DW	0206eH
	DW	0d540H
	DW	09d7aH
	DW	0926eH
	DW	0b921H
	DW	00H
	DW	046dfH
	DW	06d92H
	DW	06286H
	DW	02ac0H
	DW	0df92H
	DW	0a31cH
	DW	090d2H
	DW	0b101H
	DW	0f50dH
	DW	03e11H
	DW	06ae8H
	DW	06736H
	DW	034a9H
	DW	0ea35H
	DW	0a9a4H
	DW	09049H
	DW	0a9a4H
	DW	0ea35H
	DW	034aaH
	DW	06737H
	DW	06ae8H
	DW	03e11H
	DW	0f50dH
	DW	0b101H
	DW	090d2H
	DW	0a31dH
	DW	0df93H
	DW	02ac0H
	DW	06287H
	DW	06d92H
	DW	046dfH
	DW	00H
	DW	0b921H
	DW	0926eH
	DW	09d7aH
	DW	0d540H
	DW	0206eH
	DW	05ce4H
	DW	06f2eH
	DW	04effH
	DW	0af3H
	DW	0c1efH
	DW	09518H
	DW	098caH
	DW	0cb57H
	DW	015cbH
	DW	0565cH
	DW	06fb7H
	DW	0565bH
	DW	015cbH
	DW	0cb56H
	DW	098c9H
	DW	09518H
	DW	0c1efH
	DW	0af3H
	DW	04effH
	DW	06f2eH
	DW	05ce3H
	DW	0206dH
	DW	0d540H
	DW	09d79H
	DW	0926eH
	DW	0b921H
	DW	00H
	DW	046dfH
	DW	06d92H
	DW	06286H
	DW	02ac0H
	DW	0df92H
	DW	0a31cH
	DW	090d2H
	DW	0b101H
	DW	0f50dH
	DW	03e11H
	DW	06ae8H
	DW	06736H
	DW	034a9H
	DW	0ea35H
	DW	0a9a4H
	DW	09049H
	DW	0a9a5H
	DW	0ea35H
	DW	034aaH
	DW	06737H
	DW	06ae8H
	DW	03e11H
	DW	0f50dH
	DW	0b101H
	DW	090d2H
	DW	0a31dH
	DW	0df93H
	DW	02ac1H
	DW	06287H
	DW	06d92H
	DW	046dfH
	DW	00H
	DW	0b921H
	DW	0926eH
	DW	09d7aH
	DW	0d540H
	DW	0206eH
	DW	05ce4H
	DW	06f2eH
	DW	04effH
	DW	0af2H
	DW	0c1efH
	DW	09518H
	DW	098caH
	DW	0cb57H
	DW	015cbH
	DW	0565cH
	DW	06fb7H
	DW	0565bH
	DW	015cbH
	DW	0cb56H
	DW	098c9H
	DW	09518H
	DW	0c1efH
	DW	0af3H
	DW	04effH
	DW	06f2eH
	DW	05ce3H
	DW	0206dH
	DW	0d53fH
	DW	09d79H
	DW	0926eH
	DW	0b921H
	DW	00H
	DW	046dfH
	DW	06d92H
	DW	06286H
	DW	02ac0H
	DW	0df92H
	DW	0a31cH
	DW	090d2H
	DW	0b102H
	DW	0f50eH
	DW	03e11H
	DW	06ae8H
	DW	06736H
	DW	034a9H
	DW	0ea35H
	DW	0a9a4H
	DW	09049H
	DW	0a9a5H
	DW	0ea35H
	DW	034aaH
	DW	06737H
	DW	06ae8H
	DW	03e10H
	DW	0f50dH
	DW	0b101H
	DW	090d2H
	DW	0a31dH
	DW	0df93H
	DW	02ac1H
	DW	06287H
	DW	06d92H
	DW	046dfH
	DW	00H
	DW	0b921H
	DW	0926eH
	DW	09d7aH
	DW	0d540H
	DW	0206eH
	DW	05ce4H
	DW	06f2eH
	DW	04efeH
	DW	0af2H
	DW	0c1efH
	DW	09518H
	DW	098caH
	DW	0cb57H
	DW	015ccH
	DW	0565cH
	DW	06fb7H
	DW	0565bH
	DW	015cbH
	DW	0cb56H
	DW	098c9H
	DW	09518H
	DW	0c1f0H
	DW	0af3H
	DW	04effH
	DW	06f2eH
	DW	05ce3H
	DW	0206dH
	DW	0d53fH
	DW	09d79H
	DW	0926eH
	DW	0b921H
	DW	00H
	DW	046e0H
	DW	06d92H
	DW	06286H
	DW	02ac0H
	DW	0df92H
	DW	0a31cH
	DW	090d2H
	DW	0b102H
	DW	0f50eH
	DW	03e11H
	DW	06ae8H
	DW	06736H
	DW	034a9H
	DW	0ea34H
	DW	0a9a4H
	DW	09049H
	DW	0a9a5H
	DW	0ea35H
	DW	034aaH
	DW	06737H
	DW	06ae8H
	DW	03e10H
	DW	0f50dH
	DW	0b101H
	DW	090d2H
	DW	0a31dH
	DW	0df93H
	DW	02ac1H
	DW	06287H
	DW	06d92H
	DW	046dfH
	DW	00H
	DW	0b920H
	DW	0926eH
	DW	09d7aH
	DW	0d540H
	DW	0206eH
	DW	05ce4H
	DW	06f2eH
	DW	04efeH
	DW	0af2H
	DW	0c1efH
	DW	09518H
	DW	098caH
	DW	0cb57H
	DW	015ccH
	DW	0565cH
	DW	06fb7H
	DW	0565bH
	DW	015caH
	DW	0cb56H
	DW	098c9H
	DW	09518H
	DW	0c1f0H
	DW	0af3H
	DW	04effH
	DW	06f2eH
	DW	05ce3H
	DW	0206dH
	DW	0d53fH
	DW	09d79H
	DW	0926eH
	DW	0b921H
	DW	00H
	DW	046e0H
	DW	06d92H
	DW	06286H
	DW	02ac0H
	DW	0df92H
	DW	0a31cH
	DW	090d2H
	DW	0b102H
	DW	0f50eH
	DW	03e11H
	DW	06ae8H
	DW	06736H
	DW	034a9H
	DW	0ea34H
	DW	0a9a4H
	DW	09049H
	DW	0a9a5H
	DW	0ea36H
	DW	034aaH
	DW	06737H
	DW	06ae8H
	DW	03e10H
	DW	0f50dH
	DW	0b101H
	DW	090d2H
	DW	0a31dH
	DW	0df93H
	DW	02ac1H
	DW	06287H
	DW	06d92H
	DW	046dfH
	DW	00H
	DW	0b920H
	DW	0926eH
	DW	09d7aH
	DW	0d540H
	DW	0206eH
	DW	05ce4H
	DW	06f2eH
	DW	04efeH
	DW	0af2H
	DW	0c1efH
	DW	09518H
	DW	098caH
	DW	0cb57H
	DW	015ccH
	DW	0565cH
	DW	06fb7H
	DW	0565bH
	DW	015caH
	DW	0cb56H
	DW	098c9H
	DW	09518H
	DW	0c1f0H
	DW	0af4H
	DW	04effH
	DW	06f2eH
	DW	05ce3H
	DW	0206dH
	DW	0d53fH
	DW	09d79H
	DW	0926eH
	DW	0b921H
	DW	00H
	DW	046e0H
	DW	06d92H
	DW	06286H
	DW	02ac0H
	DW	0df92H
	DW	0a31cH
	DW	090d2H
	DW	0b102H
	DW	0f50eH
	DW	03e12H
	DW	06ae8H
	DW	06736H
	DW	034a9H
	DW	0ea34H
	DW	0a9a4H
	DW	09049H
	DW	0a9a5H
	DW	0ea36H
	DW	034aaH
	DW	06737H
	DW	06ae8H
	DW	03e10H
	DW	0f50cH
	DW	0b101H
	DW	090d2H
	DW	0a31dH
	DW	0df93H
	DW	02ac1H
	DW	06287H
	DW	06d92H
	DW	046deH
	DW	00H
	DW	0b920H
	DW	0926eH
	DW	09d7aH
	DW	0d541H
	DW	0206eH
	DW	05ce4H
	DW	06f2eH
	DW	04efeH
	DW	0af2H
	DW	0c1eeH
	DW	09518H
	DW	098caH
	DW	0cb57H
	DW	015ccH
	DW	0565cH
	DW	06fb7H
	DW	0565bH
	DW	015caH
	DW	0cb56H
	DW	098c9H
	DW	09518H
	DW	0c1f0H
	DW	0af4H
	DW	04effH
	DW	06f2eH
	DW	05ce3H
	DW	0206dH
	DW	0d53fH
	DW	09d79H
	DW	0926eH
	DW	0b922H
	DW	00H
	DW	046e0H
	DW	06d92H
	DW	06286H
	DW	02abfH
	DW	0df91H
	DW	0a31cH
	DW	090d2H
	DW	0b102H
	DW	0f50eH
	DW	03e12H
	DW	06ae8H
	DW	06736H
	DW	034a9H
	DW	0ea34H
	DW	0a9a4H
	DW	09049H
	DW	0a9a5H
	DW	0ea36H
	DW	034aaH
	DW	06737H
	DW	06ae8H
	DW	03e10H
	DW	0f50cH
	DW	0b101H
	DW	090d2H
	DW	0a31dH
	DW	0df93H
	DW	02ac1H
	DW	06287H
	DW	06d92H
	DW	046deH
	DW	00H
	DW	047ffH
	DW	06e1aH
	DW	06062H
	DW	0254aH
	DW	0d8a6H
	DW	09e87H
	DW	0924aH
	DW	0b9b2H
	DW	0231H
	DW	049a9H
	DW	06e74H
	DW	05f41H
	DW	02337H
	DW	0d69bH
	DW	09d7aH
	DW	092b9H
	DW	0bb6aH
	DW	0462H
	DW	04b4bH
	DW	06ec3H
	DW	05e17H
	DW	02121H
	DW	0d493H
	DW	09c76H
	DW	09334H
	DW	0bd28H
	DW	0693H
	DW	04ce6H
	DW	06f07H
	DW	05ce4H
	DW	01f07H
	DW	0d290H
	DW	09b7cH
	DW	093b8H
	DW	0beeeH
	DW	08c3H
	DW	04e7aH
	DW	06f40H
	DW	05ba7H
	DW	01ceaH
	DW	0d091H
	DW	09a8cH
	DW	09448H
	DW	0c0b9H
	DW	0af3H
	DW	05006H
	DW	06f6dH
	DW	05a61H
	DW	01acaH
	DW	0ce97H
	DW	099a6H
	DW	094e2H
	DW	0c28bH
	DW	0d21H
	DW	0518aH
	DW	06f90H
	DW	05913H
	DW	018a7H
	DW	0cca2H
	DW	098caH
	DW	09587H
	DW	0c463H
	DW	0f4eH
	DW	05305H
	DW	06fa8H
	DW	057bcH
	DW	01683H
	DW	0cab2H
	DW	097f8H
	DW	09636H
	DW	0c641H
	DW	01179H
	DW	05479H
	DW	06fb5H
	DW	0565cH
	DW	0145bH
	DW	0c8c7H
	DW	09730H
	DW	096f0H
	DW	0c824H
	DW	013a3H
	DW	055e4H
	DW	06fb7H
	DW	054f3H
	DW	01232H
	DW	0c6e2H
	DW	09673H
	DW	097b4H
	DW	0ca0dH
	DW	015cbH
	DW	05747H
	DW	06faeH
	DW	05382H
	DW	01007H
	DW	0c502H
	DW	095c0H
	DW	09882H
	DW	0cbfcH
	DW	017f1H
	DW	058a1H
	DW	06f99H
	DW	05209H
	DW	0ddbH
	DW	0c328H
	DW	09518H
	DW	0995bH
	DW	0cdefH
	DW	01a14H
	DW	059f3H
	DW	06f7aH
	DW	05088H
	DW	0badH
	DW	0c154H
	DW	0947aH
	DW	09a3eH
	DW	0cfe8H
	DW	01c35H
	DW	05b3bH
	DW	06f50H
	DW	04effH
	DW	097eH
	DW	0bf86H
	DW	093e7H
	DW	09b2bH
	DW	0d1e5H
	DW	01e53H
	DW	05c7bH
	DW	06f1bH
	DW	04d6eH
	DW	074eH
	DW	0bdbfH
	DW	0935fH
	DW	09c21H
	DW	0d3e7H
	DW	0206eH
	DW	05db1H
	DW	06edbH
	DW	04bd5H
	DW	051dH
	DW	0bbfeH
	DW	092e1H
	DW	09d22H
	DW	0d5edH
	DW	02285H
	DW	05edfH
	DW	06e90H
	DW	04a35H
	DW	02ecH
	DW	0ba44H
	DW	0926eH
	DW	09e2cH
	DW	0d7f7H
	DW	0249aH
	DW	06002H
	DW	06e3aH
	DW	0488eH
	DW	0bbH
	DW	0b891H
	DW	09206H
	DW	09f40H
	DW	0da05H
	DW	026aaH
	DW	0611dH
	DW	06dd9H
	DW	046dfH
	DW	0fe8aH
	DW	0b6e4H
	DW	091a9H
	DW	0a05eH
	DW	0dc17H
	DW	028b7H
	DW	0622eH
	DW	06d6dH
	DW	0452aH
	DW	0fc59H
	DW	0b53fH
	DW	09156H
	DW	0a185H
	DW	0de2dH
	DW	02ac0H
	DW	06335H
	DW	06cf6H
	DW	0436dH
	DW	0fa28H
	DW	0b3a2H
	DW	0910fH
	DW	0a2b5H
	DW	0e046H
	DW	02cc5H
	DW	06432H
	DW	06c75H
	DW	041aaH
	DW	0f7f7H
	DW	0b20cH
	DW	090d2H
	DW	0a3eeH
	DW	0e261H
	DW	02ec5H
	DW	06525H
	DW	06be9H
	DW	03fe1H
	DW	0f5c8H
	DW	0b07dH
	DW	090a1H
	DW	0a531H
	DW	0e480H
	DW	030c1H
	DW	0660fH
	DW	06b52H
	DW	03e11H
	DW	0f399H
	DW	0aef7H
	DW	0907aH
	DW	0a67dH
	DW	0e6a2H
	DW	032b7H
	DW	066eeH
	DW	06ab1H
	DW	03c3bH
	DW	0f16cH
	DW	0ad78H
	DW	0905fH
	DW	0a7d1H
	DW	0e8c6H
	DW	034a9H
	DW	067c3H
	DW	06a05H
	DW	03a5fH
	DW	0ef40H
	DW	0ac02H
	DW	0904eH
	DW	0a92eH
	DW	0eaecH
	DW	03696H
	DW	0688eH
	DW	0694fH
	DW	0387dH
	DW	0ed15H
	DW	0aa94H
	DW	09049H
	DW	0aa94H
	DW	0ed15H
	DW	0387dH
	DW	0694fH
	DW	0688eH
	DW	03696H
	DW	0eaedH
	DW	0a92eH
	DW	0904eH
	DW	0ac02H
	DW	0ef3fH
	DW	03a5fH
	DW	06a05H
	DW	067c4H
	DW	034aaH
	DW	0e8c6H
	DW	0a7d1H
	DW	0905fH
	DW	0ad78H
	DW	0f16bH
	DW	03c3bH
	DW	06ab1H
	DW	066eeH
	DW	032b8H
	DW	0e6a2H
	DW	0a67dH
	DW	0907aH
	DW	0aef7H
	DW	0f399H
	DW	03e11H
	DW	06b52H
	DW	0660fH
	DW	030c1H
	DW	0e481H
	DW	0a531H
	DW	090a1H
	DW	0b07dH
	DW	0f5c7H
	DW	03fe0H
	DW	06be9H
	DW	06526H
	DW	02ec5H
	DW	0e262H
	DW	0a3efH
	DW	090d2H
	DW	0b20cH
	DW	0f7f7H
	DW	041aaH
	DW	06c75H
	DW	06432H
	DW	02cc5H
	DW	0e046H
	DW	0a2b5H
	DW	0910fH
	DW	0b3a2H
	DW	0fa27H
	DW	0436dH
	DW	06cf6H
	DW	06335H
	DW	02ac0H
	DW	0de2dH
	DW	0a185H
	DW	09156H
	DW	0b53fH
	DW	0fc58H
	DW	04529H
	DW	06d6dH
	DW	0622eH
	DW	028b8H
	DW	0dc18H
	DW	0a05eH
	DW	091a9H
	DW	0b6e4H
	DW	0fe8aH
	DW	046dfH
	DW	06dd9H
	DW	0611dH
	DW	026abH
	DW	0da06H
	DW	09f40H
	DW	09206H
	DW	0b890H
	DW	0baH
	DW	0488eH
	DW	06e39H
	DW	06003H
	DW	0249aH
	DW	0d7f7H
	DW	09e2cH
	DW	0926eH
	DW	0ba44H
	DW	02ecH
	DW	04a35H
	DW	06e8fH
	DW	05edfH
	DW	02286H
	DW	0d5edH
	DW	09d22H
	DW	092e1H
	DW	0bbfeH
	DW	051dH
	DW	04bd5H
	DW	06edbH
	DW	05db2H
	DW	0206eH
	DW	0d3e7H
	DW	09c21H
	DW	0935fH
	DW	0bdbfH
	DW	074eH
	DW	04d6eH
	DW	06f1bH
	DW	05c7bH
	DW	01e53H
	DW	0d1e5H
	DW	09b2bH
	DW	093e7H
	DW	0bf86H
	DW	097eH
	DW	04effH
	DW	06f50H
	DW	05b3cH
	DW	01c35H
	DW	0cfe8H
	DW	09a3eH
	DW	0947aH
	DW	0c154H
	DW	0badH
	DW	05088H
	DW	06f7aH
	DW	059f3H
	DW	01a14H
	DW	0cdf0H
	DW	0995bH
	DW	09518H
	DW	0c328H
	DW	0ddbH
	DW	05209H
	DW	06f99H
	DW	058a2H
	DW	017f1H
	DW	0cbfcH
	DW	09883H
	DW	095c0H
	DW	0c502H
	DW	01007H
	DW	05382H
	DW	06faeH
	DW	05747H
	DW	015cbH
	DW	0ca0eH
	DW	097b4H
	DW	09673H
	DW	0c6e1H
	DW	01232H
	DW	054f3H
	DW	06fb7H
	DW	055e5H
	DW	013a4H
	DW	0c825H
	DW	096f0H
	DW	09730H
	DW	0c8c7H
	DW	0145bH
	DW	0565bH
	DW	06fb5H
	DW	05479H
	DW	0117aH
	DW	0c641H
	DW	09636H
	DW	097f8H
	DW	0cab1H
	DW	01682H
	DW	057bbH
	DW	06fa8H
	DW	05306H
	DW	0f4eH
	DW	0c463H
	DW	09587H
	DW	098c9H
	DW	0cca2H
	DW	018a7H
	DW	05913H
	DW	06f90H
	DW	0518aH
	DW	0d21H
	DW	0c28bH
	DW	094e2H
	DW	099a5H
	DW	0ce97H
	DW	01acaH
	DW	05a61H
	DW	06f6dH
	DW	05006H
	DW	0af3H
	DW	0c0baH
	DW	09448H
	DW	09a8bH
	DW	0d091H
	DW	01ce9H
	DW	05ba7H
	DW	06f40H
	DW	04e7aH
	DW	08c4H
	DW	0beeeH
	DW	093b9H
	DW	09b7cH
	DW	0d290H
	DW	01f06H
	DW	05ce3H
	DW	06f07H
	DW	04ce7H
	DW	0694H
	DW	0bd29H
	DW	09334H
	DW	09c76H
	DW	0d493H
	DW	02120H
	DW	05e17H
	DW	06ec3H
	DW	04b4cH
	DW	0463H
	DW	0bb6aH
	DW	092baH
	DW	09d79H
	DW	0d69aH
	DW	02337H
	DW	05f41H
	DW	06e74H
	DW	049a9H
	DW	0231H
	DW	0b9b2H
	DW	0924aH
	DW	09e87H
	DW	0d8a6H
	DW	0254aH
	DW	06062H
	DW	06e1aH
	DW	047ffH
	DW	00H
	DW	0491cH
	DW	06e90H
	DW	05e17H
	DW	01fbaH
	DW	0d1e5H
	DW	09a8cH
	DW	094aeH
	DW	0c328H
	DW	0f4eH
	DW	053feH
	DW	06fb7H
	DW	054f3H
	DW	010c1H
	DW	0c463H
	DW	09518H
	DW	099f1H
	DW	0d091H
	DW	01e53H
	DW	05d4bH
	DW	06ec3H
	DW	04a35H
	DW	0176H
	DW	0b801H
	DW	091a9H
	DW	0a121H
	DW	0dedfH
	DW	02cc5H
	DW	064d5H
	DW	06bb8H
	DW	03e11H
	DW	0f225H
	DW	0acfbH
	DW	0904eH
	DW	0aa1cH
	DW	0edceH
	DW	03a5fH
	DW	06a79H
	DW	066a5H
	DW	030c1H
	DW	0e316H
	DW	0a385H
	DW	0910fH
	DW	0b4b5H
	DW	0fd14H
	DW	046dfH
	DW	06e1aH
	DW	05fa2H
	DW	02285H
	DW	0d493H
	DW	09bceH
	DW	093e7H
	DW	0c0b9H
	DW	0c67H
	DW	05209H
	DW	06fa8H
	DW	056d2H
	DW	013a3H
	DW	0c6e1H
	DW	095fbH
	DW	098caH
	DW	0cdefH
	DW	01b80H
	DW	05ba7H
	DW	06f1bH
	DW	04c5eH
	DW	0462H
	DW	0ba44H
	DW	09227H
	DW	09f9eH
	DW	0dc17H
	DW	02a13H
	DW	0638aH
	DW	06c75H
	DW	0407aH
	DW	0f50dH
	DW	0aef7H
	DW	09067H
	DW	0a844H
	DW	0eaedH
	DW	037dcH
	DW	0698dH
	DW	067c3H
	DW	0335eH
	DW	0e5ecH
	DW	0a531H
	DW	090c0H
	DW	0b292H
	DW	0fa28H
	DW	04496H
	DW	06d92H
	DW	0611dH
	DW	0254aH
	DW	0d749H
	DW	09d22H
	DW	09334H
	DW	0be56H
	DW	097eH
	DW	05006H
	DW	06f86H
	DW	058a1H
	DW	01682H
	DW	0c96aH
	DW	096f0H
	DW	097b4H
	DW	0cb57H
	DW	018a8H
	DW	059f3H
	DW	06f5fH
	DW	04e7aH
	DW	074eH
	DW	0bc93H
	DW	092b9H
	DW	09e2cH
	DW	0d956H
	DW	0275aH
	DW	0622eH
	DW	06d1fH
	DW	042d7H
	DW	0f7f7H
	DW	0b101H
	DW	09093H
	DW	0a67dH
	DW	0e80fH
	DW	0354eH
	DW	0688eH
	DW	068d0H
	DW	035f2H
	DW	0e8c6H
	DW	0a6edH
	DW	09086H
	DW	0b07dH
	DW	0f73dH
	DW	04241H
	DW	06cf6H
	DW	06286H
	DW	02809H
	DW	0da05H
	DW	09e87H
	DW	09293H
	DW	0bbfeH
	DW	0693H
	DW	04df4H
	DW	06f50H
	DW	05a61H
	DW	0195eH
	DW	0cbfcH
	DW	097f8H
	DW	096b1H
	DW	0c8c7H
	DW	015cbH
	DW	0582fH
	DW	06f90H
	DW	05088H
	DW	0a38H
	DW	0beeeH
	DW	0935fH
	DW	09ccbH
	DW	0d69bH
	DW	0249aH
	DW	060c0H
	DW	06db6H
	DW	04529H
	DW	0fae3H
	DW	0b319H
	DW	090d2H
	DW	0a4c5H
	DW	0e536H
	DW	032b8H
	DW	0677eH
	DW	069caH
	DW	0387dH
	DW	0eba4H
	DW	0a8b9H
	DW	0905fH
	DW	0ae76H
	DW	0f453H
	DW	03fe1H
	DW	06c48H
	DW	063dfH
	DW	02ac0H
	DW	0dcc9H
	DW	09ffdH
	DW	09206H
	DW	0b9b2H
	DW	03a7H
	DW	04bd5H
	DW	06f07H
	DW	05c11H
	DW	01c35H
	DW	0ce97H
	DW	09912H
	DW	095c0H
	DW	0c641H
	DW	012ebH
	DW	0565cH
	DW	06faeH
	DW	05288H
	DW	0d21H
	DW	0c154H
	DW	09417H
	DW	09b7cH
	DW	0d3e7H
	DW	021d3H
	DW	05f41H
	DW	06e39H
	DW	0476fH
	DW	0fdcfH
	DW	0b53fH
	DW	09125H
	DW	0a31dH
	DW	0e262H
	DW	03018H
	DW	0665bH
	DW	06ab1H
	DW	03afeH
	DW	0ee86H
	DW	0aa94H
	DW	0904bH
	DW	0ac7eH
	DW	0f16cH
	DW	03d75H
	DW	06b86H
	DW	06525H
	DW	02d70H
	DW	0df92H
	DW	0a185H
	DW	0918cH
	DW	0b772H
	DW	0bbH
	DW	049a9H
	DW	06eaaH
	DW	05db1H
	DW	01f06H
	DW	0d13bH
	DW	09a3eH
	DW	094e2H
	DW	0c3c5H
	DW	01008H
	DW	05479H
	DW	06fb7H
	DW	05479H
	DW	01007H
	DW	0c3c5H
	DW	094e2H
	DW	09a3eH
	DW	0d13bH
	DW	01f07H
	DW	05db2H
	DW	06eaaH
	DW	049a9H
	DW	0baH
	DW	0b772H
	DW	0918cH
	DW	0a185H
	DW	0df93H
	DW	02d70H
	DW	06526H
	DW	06b86H
	DW	03d75H
	DW	0f16bH
	DW	0ac7eH
	DW	0904bH
	DW	0aa94H
	DW	0ee87H
	DW	03afeH
	DW	06ab1H
	DW	0665aH
	DW	03018H
	DW	0e261H
	DW	0a31cH
	DW	09125H
	DW	0b540H
	DW	0fdcfH
	DW	04770H
	DW	06e3aH
	DW	05f41H
	DW	021d3H
	DW	0d3e7H
	DW	09b7cH
	DW	09417H
	DW	0c154H
	DW	0d21H
	DW	05288H
	DW	06faeH
	DW	0565bH
	DW	012ebH
	DW	0c641H
	DW	095c0H
	DW	09912H
	DW	0ce97H
	DW	01c35H
	DW	05c12H
	DW	06f07H
	DW	04bd5H
	DW	03a7H
	DW	0b9b2H
	DW	09206H
	DW	09ffeH
	DW	0dcc9H
	DW	02ac1H
	DW	063dfH
	DW	06c47H
	DW	03fe0H
	DW	0f453H
	DW	0ae76H
	DW	0905fH
	DW	0a8b9H
	DW	0eba5H
	DW	0387eH
	DW	069caH
	DW	0677dH
	DW	032b7H
	DW	0e536H
	DW	0a4c4H
	DW	090d2H
	DW	0b31aH
	DW	0fae3H
	DW	0452aH
	DW	06db6H
	DW	060c0H
	DW	02499H
	DW	0d69aH
	DW	09ccbH
	DW	0935fH
	DW	0beeeH
	DW	0a39H
	DW	05088H
	DW	06f90H
	DW	0582fH
	DW	015cbH
	DW	0c8c7H
	DW	096b1H
	DW	097f8H
	DW	0cbfcH
	DW	0195eH
	DW	05a62H
	DW	06f50H
	DW	04df4H
	DW	0693H
	DW	0bbfeH
	DW	09293H
	DW	09e87H
	DW	0da06H
	DW	02809H
	DW	06287H
	DW	06cf6H
	DW	04241H
	DW	0f73cH
	DW	0b07dH
	DW	09086H
	DW	0a6edH
	DW	0e8c7H
	DW	035f3H
	DW	068d0H
	DW	0688eH
	DW	0354eH
	DW	0e80fH
	DW	0a67cH
	DW	09093H
	DW	0b101H
	DW	0f7f8H
	DW	042d8H
	DW	06d1fH
	DW	0622dH
	DW	0275aH
	DW	0d955H
	DW	09e2cH
	DW	092baH
	DW	0bc93H
	DW	074eH
	DW	04e7aH
	DW	06f5fH
	DW	059f3H
	DW	018a7H
	DW	0cb56H
	DW	097b4H
	DW	096f0H
	DW	0c96aH
	DW	01683H
	DW	058a2H
	DW	06f86H
	DW	05005H
	DW	097eH
	DW	0be56H
	DW	09334H
	DW	09d22H
	DW	0d749H
	DW	0254bH
	DW	0611dH
	DW	06d92H
	DW	04496H
	DW	0fa27H
	DW	0b292H
	DW	090c0H
	DW	0a531H
	DW	0e5ecH
	DW	0335eH
	DW	067c4H
	DW	0698dH
	DW	037dbH
	DW	0eaecH
	DW	0a844H
	DW	09067H
	DW	0aef7H
	DW	0f50eH
	DW	0407aH
	DW	06c75H
	DW	0638aH
	DW	02a13H
	DW	0dc17H
	DW	09f9eH
	DW	09227H
	DW	0ba44H
	DW	0463H
	DW	04c5fH
	DW	06f1bH
	DW	05ba7H
	DW	01b7fH
	DW	0cdefH
	DW	098c9H
	DW	095fbH
	DW	0c6e2H
	DW	013a4H
	DW	056d2H
	DW	06fa8H
	DW	05209H
	DW	0c67H
	DW	0c0b9H
	DW	093e7H
	DW	09bceH
	DW	0d493H
	DW	02286H
	DW	05fa3H
	DW	06e1aH
	DW	046dfH
	DW	0fd13H
	DW	0b4b4H
	DW	0910fH
	DW	0a385H
	DW	0e317H
	DW	030c1H
	DW	066a5H
	DW	06a79H
	DW	03a5fH
	DW	0edcdH
	DW	0aa1bH
	DW	0904eH
	DW	0acfbH
	DW	0f226H
	DW	03e11H
	DW	06bb8H
	DW	064d5H
	DW	02cc5H
	DW	0dedfH
	DW	0a121H
	DW	091a9H
	DW	0b801H
	DW	0176H
	DW	04a35H
	DW	06ec3H
	DW	05d4bH
	DW	01e52H
	DW	0d091H
	DW	099f1H
	DW	09518H
	DW	0c464H
	DW	010c1H
	DW	054f3H
	DW	06fb7H
	DW	053feH
	DW	0f4eH
	DW	0c327H
	DW	094aeH
	DW	09a8cH
	DW	0d1e5H
	DW	01fbbH
	DW	05e17H
	DW	06e8fH
	DW	0491bH
	DW	00H
	DW	04a35H
	DW	06ef1H
	DW	05ba7H
	DW	01a14H
	DW	0cb57H
	DW	09730H
	DW	097f8H
	DW	0cd48H
	DW	01c35H
	DW	05ce4H
	DW	06eaaH
	DW	0488eH
	DW	0fdcfH
	DW	0b42bH
	DW	090d2H
	DW	0a59fH
	DW	0e80fH
	DW	03696H
	DW	0698dH
	DW	06736H
	DW	030c1H
	DW	0e1adH
	DW	0a1e9H
	DW	091a9H
	DW	0b921H
	DW	0462H
	DW	04d6eH
	DW	06f5fH
	DW	05913H
	DW	015cbH
	DW	0c783H
	DW	095c0H
	DW	099a6H
	DW	0d13bH
	DW	0206eH
	DW	05f41H
	DW	06dfaH
	DW	0452aH
	DW	0f96dH
	DW	0b101H
	DW	0907aH
	DW	0a844H
	DW	0ec5dH
	DW	03a5fH
	DW	06ae8H
	DW	06574H
	DW	02cc5H
	DW	0dd7bH
	DW	09f9eH
	DW	0926eH
	DW	0bc93H
	DW	08c4H
	DW	05088H
	DW	06fa1H
	DW	0565cH
	DW	01179H
	DW	0c3c5H
	DW	0947aH
	DW	09b7cH
	DW	0d540H
	DW	0249aH
	DW	06179H
	DW	06d1fH
	DW	041aaH
	DW	0f50dH
	DW	0adf7H
	DW	0904eH
	DW	0ab0dH
	DW	0f0b2H
	DW	03e11H
	DW	06c19H
	DW	0638aH
	DW	028b7H
	DW	0d955H
	DW	09d79H
	DW	0935fH
	DW	0c020H
	DW	0d21H
	DW	05382H
	DW	06fb7H
	DW	05382H
	DW	0d21H
	DW	0c01fH
	DW	0935fH
	DW	09d7aH
	DW	0d956H
	DW	028b8H
	DW	0638aH
	DW	06c19H
	DW	03e11H
	DW	0f0b2H
	DW	0ab0dH
	DW	0904eH
	DW	0adf7H
	DW	0f50dH
	DW	041aaH
	DW	06d1fH
	DW	06179H
	DW	02499H
	DW	0d540H
	DW	09b7cH
	DW	0947aH
	DW	0c3c5H
	DW	0117aH
	DW	0565cH
	DW	06fa1H
	DW	05088H
	DW	08c3H
	DW	0bc93H
	DW	0926eH
	DW	09f9eH
	DW	0dd7bH
	DW	02cc5H
	DW	06575H
	DW	06ae8H
	DW	03a5fH
	DW	0ec5cH
	DW	0a844H
	DW	0907aH
	DW	0b101H
	DW	0f96dH
	DW	0452aH
	DW	06dfaH
	DW	05f41H
	DW	0206dH
	DW	0d13bH
	DW	099a5H
	DW	095c0H
	DW	0c783H
	DW	015cbH
	DW	05913H
	DW	06f5fH
	DW	04d6eH
	DW	0462H
	DW	0b921H
	DW	091a9H
	DW	0a1e9H
	DW	0e1aeH
	DW	030c1H
	DW	06737H
	DW	0698dH
	DW	03696H
	DW	0e80fH
	DW	0a59eH
	DW	090d2H
	DW	0b42bH
	DW	0fdcfH
	DW	0488eH
	DW	06eaaH
	DW	05ce3H
	DW	01c34H
	DW	0cd48H
	DW	097f8H
	DW	09730H
	DW	0cb57H
	DW	01a14H
	DW	05ba7H
	DW	06ef1H
	DW	04a35H
	DW	00H
	DW	0b5cbH
	DW	0910fH
	DW	0a459H
	DW	0e5ecH
	DW	034aaH
	DW	068d0H
	DW	06808H
	DW	032b7H
	DW	0e3cbH
	DW	0a31cH
	DW	09156H
	DW	0b773H
	DW	0231H
	DW	04bd6H
	DW	06f2eH
	DW	05a61H
	DW	017f0H
	DW	0c96aH
	DW	09673H
	DW	098caH
	DW	0cf40H
	DW	01e53H
	DW	05e17H
	DW	06e57H
	DW	046dfH
	DW	0fb9dH
	DW	0b292H
	DW	090a1H
	DW	0a6edH
	DW	0ea35H
	DW	0387eH
	DW	06a40H
	DW	0665aH
	DW	02ec5H
	DW	0df92H
	DW	0a0bfH
	DW	09206H
	DW	0bad7H
	DW	0694H
	DW	04effH
	DW	06f86H
	DW	057bbH
	DW	013a3H
	DW	0c5a1H
	DW	09518H
	DW	09a8cH
	DW	0d33cH
	DW	02286H
	DW	06062H
	DW	06d92H
	DW	0436dH
	DW	0f73cH
	DW	0af78H
	DW	0905fH
	DW	0a9a5H
	DW	0ee87H
	DW	03c3bH
	DW	06b86H
	DW	06484H
	DW	02ac0H
	DW	0db66H
	DW	09e87H
	DW	092e1H
	DW	0be56H
	DW	0af3H
	DW	0520aH
	DW	06fb2H
	DW	054f3H
	DW	0f4dH
	DW	0c1efH
	DW	093e7H
	DW	09c76H
	DW	0d749H
	DW	026abH
	DW	06287H
	DW	06ca1H
	DW	03fe0H
	DW	0f2deH
	DW	0ac7dH
	DW	09049H
	DW	0ac7eH
	DW	0f2e0H
	DW	03fe1H
	DW	06ca1H
	DW	06286H
	DW	026aaH
	DW	0d748H
	DW	09c75H
	DW	093e7H
	DW	0c1f0H
	DW	0f4fH
	DW	054f4H
	DW	06fb2H
	DW	05209H
	DW	0af2H
	DW	0be55H
	DW	092e1H
	DW	09e87H
	DW	0db67H
	DW	02ac1H
	DW	06485H
	DW	06b86H
	DW	03c3aH
	DW	0ee86H
	DW	0a9a4H
	DW	0905fH
	DW	0af79H
	DW	0f73dH
	DW	0436eH
	DW	06d92H
	DW	06061H
	DW	02285H
	DW	0d33aH
	DW	09a8bH
	DW	09518H
	DW	0c5a2H
	DW	013a4H
	DW	057bcH
	DW	06f86H
	DW	04efeH
	DW	0692H
	DW	0bad6H
	DW	09206H
	DW	0a0bfH
	DW	0df93H
	DW	02ec6H
	DW	0665bH
	DW	06a3fH
	DW	0387dH
	DW	0ea34H
	DW	0a6edH
	DW	090a1H
	DW	0b293H
	DW	0fb9eH
	DW	046e0H
	DW	06e58H
	DW	05e16H
	DW	01e52H
	DW	0cf3fH
	DW	098c9H
	DW	09673H
	DW	0c96bH
	DW	017f2H
	DW	05a62H
	DW	06f2eH
	DW	04bd5H
	DW	0230H
	DW	0b772H
	DW	09156H
	DW	0a31dH
	DW	0e3ccH
	DW	032b8H
	DW	06809H
	DW	068cfH
	DW	034a9H
	DW	0e5ebH
	DW	0a459H
	DW	0910fH
	DW	0b5cbH
	DW	00H
	DW	04a36H
	DW	06ef1H
	DW	05ba7H
	DW	01a13H
	DW	0cb56H
	DW	09730H
	DW	097f8H
	DW	0cd49H
	DW	01c36H
	DW	05ce4H
	DW	06eaaH
	DW	0488dH
	DW	0fdceH
	DW	0b42aH
	DW	090d2H
	DW	0a59fH
	DW	0e810H
	DW	03697H
	DW	0698dH
	DW	06736H
	DW	030c0H
	DW	0e1acH
	DW	0a1e9H
	DW	091a9H
	DW	0b922H
	DW	0463H
	DW	04d6eH
	DW	06f5fH
	DW	05912H
	DW	015caH
	DW	0c782H
	DW	095c0H
	DW	099a6H
	DW	0d13cH
	DW	0206fH
	DW	05f41H
	DW	06dfaH
	DW	04529H
	DW	0f96cH
	DW	0b101H
	DW	0907aH
	DW	0a845H
	DW	0ec5eH
	DW	03a60H
	DW	06ae8H
	DW	06574H
	DW	02cc4H
	DW	0dd7aH
	DW	09f9eH
	DW	0926eH
	DW	0bc94H
	DW	08c4H
	DW	05089H
	DW	06fa1H
	DW	0565bH
	DW	01179H
	DW	0c3c4H
	DW	0947aH
	DW	09b7cH
	DW	0d541H
	DW	0249bH
	DW	06179H
	DW	06d1fH
	DW	041a9H
	DW	0f50cH
	DW	0adf6H
	DW	0904eH
	DW	0ab0eH
	DW	0f0b3H
	DW	03e12H
	DW	06c19H
	DW	0638aH
	DW	028b6H
	DW	0d955H
	DW	09d79H
	DW	0935fH
	DW	0c020H
	DW	0d22H
	DW	05383H
	DW	06fb7H
	DW	05382H
	DW	0d20H
	DW	0c01fH
	DW	0935eH
	DW	09d7aH
	DW	0d957H
	DW	028b8H
	DW	0638bH
	DW	06c19H
	DW	03e10H
	DW	0f0b1H
	DW	0ab0cH
	DW	0904eH
	DW	0adf8H
	DW	0f50eH
	DW	041abH
	DW	06d1fH
	DW	06178H
	DW	02499H
	DW	0d53fH
	DW	09b7bH
	DW	0947bH
	DW	0c3c6H
	DW	0117bH
	DW	0565cH
	DW	06fa1H
	DW	05087H
	DW	08c2H
	DW	0bc92H
	DW	0926eH
	DW	09f9fH
	DW	0dd7cH
	DW	02cc6H
	DW	06575H
	DW	06ae8H
	DW	03a5eH
	DW	0ec5cH
	DW	0a844H
	DW	0907aH
	DW	0b102H
	DW	0f96eH
	DW	0452bH
	DW	06dfaH
	DW	05f40H
	DW	0206dH
	DW	0d13aH
	DW	099a5H
	DW	095c1H
	DW	0c784H
	DW	015ccH
	DW	05914H
	DW	06f5fH
	DW	04d6dH
	DW	0461H
	DW	0b920H
	DW	091a8H
	DW	0a1eaH
	DW	0e1aeH
	DW	030c2H
	DW	06737H
	DW	0698dH
	DW	03695H
	DW	0e80eH
	DW	0a59eH
	DW	090d2H
	DW	0b42cH
	DW	0fdd0H
	DW	0488fH
	DW	06eaaH
	DW	05ce3H
	DW	01c34H
	DW	0cd47H
	DW	097f7H
	DW	09731H
	DW	0cb58H
	DW	01a15H
	DW	05ba8H
	DW	06ef1H
	DW	04a34H
	DW	00H
	DW	04b4bH
	DW	06f40H
	DW	05913H
	DW	0145bH
	DW	0c502H
	DW	0947aH
	DW	09c21H
	DW	0d7f7H
	DW	028b7H
	DW	06432H
	DW	06b52H
	DW	03a5fH
	DW	0eaedH
	DW	0a67dH
	DW	090d2H
	DW	0b53fH
	DW	0bbH
	DW	04bd5H
	DW	06f50H
	DW	058a1H
	DW	013a3H
	DW	0c463H
	DW	09448H
	DW	09c76H
	DW	0d8a6H
	DW	02965H
	DW	06484H
	DW	06b1eH
	DW	039bfH
	DW	0ea35H
	DW	0a60dH
	DW	090e5H
	DW	0b5cbH
	DW	0176H
	DW	04c5eH
	DW	06f5fH
	DW	0582fH
	DW	012ebH
	DW	0c3c5H
	DW	09417H
	DW	09ccbH
	DW	0d956H
	DW	02a13H
	DW	064d5H
	DW	06ae8H
	DW	0391eH
	DW	0e97dH
	DW	0a59fH
	DW	090f9H
	DW	0b657H
	DW	0231H
	DW	04ce6H
	DW	06f6dH
	DW	057bcH
	DW	01232H
	DW	0c328H
	DW	093e7H
	DW	09d22H
	DW	0da05H
	DW	02ac0H
	DW	06525H
	DW	06ab1H
	DW	0387dH
	DW	0e8c6H
	DW	0a531H
	DW	0910fH
	DW	0b6e4H
	DW	02ecH
	DW	04d6eH
	DW	06f7aH
	DW	05747H
	DW	0117aH
	DW	0c28bH
	DW	093b8H
	DW	09d7aH
	DW	0dab6H
	DW	02b6dH
	DW	06574H
	DW	06a79H
	DW	037dcH
	DW	0e80fH
	DW	0a4c5H
	DW	09125H
	DW	0b772H
	DW	03a7H
	DW	04df4H
	DW	06f86H
	DW	056d2H
	DW	010c1H
	DW	0c1efH
	DW	0938bH
	DW	09dd2H
	DW	0db66H
	DW	02c19H
	DW	065c2H
	DW	06a40H
	DW	03739H
	DW	0e759H
	DW	0a459H
	DW	0913dH
	DW	0b801H
	DW	0462H
	DW	04e7aH
	DW	06f90H
	DW	0565cH
	DW	01007H
	DW	0c154H
	DW	0935fH
	DW	09e2cH
	DW	0dc17H
	DW	02cc5H
	DW	0660fH
	DW	06a05H
	DW	03696H
	DW	0e6a2H
	DW	0a3eeH
	DW	09156H
	DW	0b891H
	DW	051dH
	DW	04effH
	DW	06f99H
	DW	055e4H
	DW	0f4eH
	DW	0c0b9H
	DW	09334H
	DW	09e87H
	DW	0dcc9H
	DW	02d70H
	DW	0665aH
	DW	069caH
	DW	035f2H
	DW	0e5ecH
	DW	0a385H
	DW	09170H
	DW	0b921H
	DW	05d8H
	DW	04f83H
	DW	06fa1H
	DW	0556cH
	DW	0e95H
	DW	0c01fH
	DW	0930aH
	DW	09ee3H
	DW	0dd7bH
	DW	02e1bH
	DW	066a5H
	DW	0698dH
	DW	0354eH
	DW	0e536H
	DW	0a31cH
	DW	0918cH
	DW	0b9b2H
	DW	0693H
	DW	05006H
	DW	06fa8H
	DW	054f3H
	DW	0ddbH
	DW	0bf86H
	DW	092e1H
	DW	09f40H
	DW	0de2dH
	DW	02ec5H
	DW	066eeH
	DW	0694fH
	DW	034a9H
	DW	0e481H
	DW	0a2b5H
	DW	091a9H
	DW	0ba44H
	DW	074eH
	DW	05088H
	DW	06faeH
	DW	05479H
	DW	0d21H
	DW	0beeeH
	DW	092b9H
	DW	09f9eH
	DW	0dedfH
	DW	02f6fH
	DW	06736H
	DW	06910H
	DW	03404H
	DW	0e3cbH
	DW	0a24fH
	DW	091c7H
	DW	0bad6H
	DW	0809H
	DW	05109H
	DW	06fb2H
	DW	053feH
	DW	0c67H
	DW	0be56H
	DW	09293H
	DW	09ffdH
	DW	0df92H
	DW	03018H
	DW	0677eH
	DW	068d0H
	DW	0335eH
	DW	0e316H
	DW	0a1e9H
	DW	091e6H
	DW	0bb6aH
	DW	08c3H
	DW	0518aH
	DW	06fb5H
	DW	05382H
	DW	0badH
	DW	0bdbfH
	DW	0926eH
	DW	0a05eH
	DW	0e046H
	DW	030c1H
	DW	067c3H
	DW	0688eH
	DW	032b8H
	DW	0e262H
	DW	0a185H
	DW	09206H
	DW	0bbfeH
	DW	097eH
	DW	05209H
	DW	06fb7H
	DW	05305H
	DW	0af3H
	DW	0bd28H
	DW	0924aH
	DW	0a0bfH
	DW	0e0f9H
	DW	03169H
	DW	06808H
	DW	0684cH
	DW	03211H
	DW	0e1adH
	DW	0a121H
	DW	09227H
	DW	0bc93H
	DW	0a38H
	DW	05288H
	DW	06fb7H
	DW	05288H
	DW	0a38H
	DW	0bc93H
	DW	09227H
	DW	0a121H
	DW	0e1adH
	DW	03211H
	DW	0684cH
	DW	06808H
	DW	03169H
	DW	0e0f9H
	DW	0a0bfH
	DW	0924aH
	DW	0bd28H
	DW	0af3H
	DW	05305H
	DW	06fb7H
	DW	05209H
	DW	097eH
	DW	0bbfeH
	DW	09206H
	DW	0a185H
	DW	0e262H
	DW	032b8H
	DW	0688eH
	DW	067c3H
	DW	030c1H
	DW	0e046H
	DW	0a05eH
	DW	0926eH
	DW	0bdbfH
	DW	0badH
	DW	05382H
	DW	06fb5H
	DW	0518aH
	DW	08c3H
	DW	0bb6aH
	DW	091e6H
	DW	0a1e9H
	DW	0e316H
	DW	0335eH
	DW	068d0H
	DW	0677eH
	DW	03018H
	DW	0df92H
	DW	09ffdH
	DW	09293H
	DW	0be56H
	DW	0c67H
	DW	053feH
	DW	06fb2H
	DW	05109H
	DW	0809H
	DW	0bad6H
	DW	091c6H
	DW	0a24fH
	DW	0e3cbH
	DW	03404H
	DW	06910H
	DW	06736H
	DW	02f6fH
	DW	0dedfH
	DW	09f9eH
	DW	092b9H
	DW	0beeeH
	DW	0d21H
	DW	05479H
	DW	06faeH
	DW	05088H
	DW	074eH
	DW	0ba44H
	DW	091a9H
	DW	0a2b5H
	DW	0e481H
	DW	034a9H
	DW	0694fH
	DW	066eeH
	DW	02ec5H
	DW	0de2dH
	DW	09f40H
	DW	092e1H
	DW	0bf86H
	DW	0ddbH
	DW	054f3H
	DW	06fa8H
	DW	05006H
	DW	0693H
	DW	0b9b2H
	DW	0918cH
	DW	0a31cH
	DW	0e536H
	DW	0354eH
	DW	0698dH
	DW	066a5H
	DW	02e1bH
	DW	0dd7bH
	DW	09ee3H
	DW	0930aH
	DW	0c01fH
	DW	0e95H
	DW	0556cH
	DW	06fa1H
	DW	04f83H
	DW	05d8H
	DW	0b921H
	DW	09170H
	DW	0a385H
	DW	0e5ecH
	DW	035f2H
	DW	069caH
	DW	0665aH
	DW	02d70H
	DW	0dcc9H
	DW	09e87H
	DW	09334H
	DW	0c0b9H
	DW	0f4eH
	DW	055e4H
	DW	06f99H
	DW	04effH
	DW	051dH
	DW	0b891H
	DW	09156H
	DW	0a3efH
	DW	0e6a2H
	DW	03696H
	DW	06a05H
	DW	0660fH
	DW	02cc5H
	DW	0dc17H
	DW	09e2cH
	DW	0935fH
	DW	0c154H
	DW	01007H
	DW	0565cH
	DW	06f90H
	DW	04e7aH
	DW	0462H
	DW	0b801H
	DW	0913dH
	DW	0a459H
	DW	0e759H
	DW	03739H
	DW	06a40H
	DW	065c2H
	DW	02c19H
	DW	0db66H
	DW	09dd2H
	DW	0938bH
	DW	0c1efH
	DW	010c1H
	DW	056d2H
	DW	06f86H
	DW	04df4H
	DW	03a7H
	DW	0b772H
	DW	09125H
	DW	0a4c5H
	DW	0e80fH
	DW	037dcH
	DW	06a79H
	DW	06574H
	DW	02b6dH
	DW	0dab6H
	DW	09d7aH
	DW	093b9H
	DW	0c28bH
	DW	0117aH
	DW	05747H
	DW	06f7aH
	DW	04d6eH
	DW	02ecH
	DW	0b6e4H
	DW	0910fH
	DW	0a531H
	DW	0e8c6H
	DW	0387dH
	DW	06ab1H
	DW	06525H
	DW	02ac0H
	DW	0da05H
	DW	09d22H
	DW	093e7H
	DW	0c328H
	DW	01232H
	DW	057bcH
	DW	06f6dH
	DW	04ce6H
	DW	0231H
	DW	0b657H
	DW	090f9H
	DW	0a59fH
	DW	0e97dH
	DW	0391fH
	DW	06ae8H
	DW	064d5H
	DW	02a13H
	DW	0d956H
	DW	09ccbH
	DW	09417H
	DW	0c3c5H
	DW	012ebH
	DW	0582fH
	DW	06f5fH
	DW	04c5eH
	DW	0176H
	DW	0b5cbH
	DW	090e5H
	DW	0a60dH
	DW	0ea35H
	DW	039bfH
	DW	06b1eH
	DW	06484H
	DW	02965H
	DW	0d8a6H
	DW	09c76H
	DW	09448H
	DW	0c463H
	DW	013a3H
	DW	058a1H
	DW	06f50H
	DW	04bd5H
	DW	0bbH
	DW	0b53fH
	DW	090d2H
	DW	0a67dH
	DW	0eaedH
	DW	03a5fH
	DW	06b52H
	DW	06432H
	DW	028b7H
	DW	0d7f7H
	DW	09c21H
	DW	0947aH
	DW	0c502H
	DW	0145cH
	DW	05913H
	DW	06f40H
	DW	04b4bH
	DW	00H
	DW	04c5eH
	DW	06f7aH
	DW	0565cH
	DW	0e95H
	DW	0beeeH
	DW	0926eH
	DW	0a121H
	DW	0e316H
	DW	034a9H
	DW	069caH
	DW	065c2H
	DW	02ac0H
	DW	0d8a6H
	DW	09bceH
	DW	09518H
	DW	0c824H
	DW	0195eH
	DW	05ce4H
	DW	06e39H
	DW	04402H
	DW	0f50dH
	DW	0ac02H
	DW	09058H
	DW	0b101H
	DW	0fc59H
	DW	049a9H
	DW	06f2eH
	DW	058a1H
	DW	01232H
	DW	0c1efH
	DW	09334H
	DW	09f40H
	DW	0df92H
	DW	03169H
	DW	0688eH
	DW	06736H
	DW	02e1bH
	DW	0dc17H
	DW	09d7aH
	DW	09417H
	DW	0c502H
	DW	015cbH
	DW	05acfH
	DW	06ec3H
	DW	046dfH
	DW	0f8b2H
	DW	0ae76H
	DW	09049H
	DW	0ae76H
	DW	0f8b2H
	DW	046dfH
	DW	06ec3H
	DW	05acfH
	DW	015cbH
	DW	0c502H
	DW	09417H
	DW	09d7aH
	DW	0dc17H
	DW	02e1bH
	DW	06736H
	DW	0688eH
	DW	03169H
	DW	0df92H
	DW	09f40H
	DW	09334H
	DW	0c1efH
	DW	01232H
	DW	058a1H
	DW	06f2eH
	DW	049a9H
	DW	0fc59H
	DW	0b101H
	DW	09058H
	DW	0ac02H
	DW	0f50dH
	DW	04402H
	DW	06e3aH
	DW	05ce3H
	DW	0195eH
	DW	0c824H
	DW	09518H
	DW	09bceH
	DW	0d8a6H
	DW	02ac0H
	DW	065c2H
	DW	069caH
	DW	034a9H
	DW	0e316H
	DW	0a121H
	DW	0926eH
	DW	0beeeH
	DW	0e95H
	DW	0565cH
	DW	06f7aH
	DW	04c5eH
	DW	00H
	DW	0b3a2H
	DW	09086H
	DW	0a9a4H
	DW	0f16cH
	DW	04112H
	DW	06d92H
	DW	05edfH
	DW	01ceaH
	DW	0cb56H
	DW	09636H
	DW	09a3eH
	DW	0d540H
	DW	0275aH
	DW	06432H
	DW	06ae8H
	DW	037dbH
	DW	0e6a2H
	DW	0a31cH
	DW	091c7H
	DW	0bbfeH
	DW	0af3H
	DW	053feH
	DW	06fa8H
	DW	04effH
	DW	03a7H
	DW	0b657H
	DW	090d2H
	DW	0a75fH
	DW	0edceH
	DW	03e11H
	DW	06cccH
	DW	060c0H
	DW	0206eH
	DW	0ce97H
	DW	09772H
	DW	098caH
	DW	0d1e5H
	DW	023e9H
	DW	06287H
	DW	06be9H
	DW	03afeH
	DW	0ea35H
	DW	0a531H
	DW	0913dH
	DW	0b921H
	DW	074eH
	DW	0518aH
	DW	06fb7H
	DW	0518aH
	DW	074eH
	DW	0b921H
	DW	0913dH
	DW	0a531H
	DW	0ea35H
	DW	03afeH
	DW	06be9H
	DW	06286H
	DW	023e9H
	DW	0d1e5H
	DW	098c9H
	DW	09772H
	DW	0ce97H
	DW	0206eH
	DW	060c0H
	DW	06cccH
	DW	03e11H
	DW	0edceH
	DW	0a75eH
	DW	090d2H
	DW	0b657H
	DW	03a7H
	DW	04effH
	DW	06fa8H
	DW	053feH
	DW	0af3H
	DW	0bbfeH
	DW	091c6H
	DW	0a31dH
	DW	0e6a2H
	DW	037dcH
	DW	06ae8H
	DW	06432H
	DW	0275aH
	DW	0d540H
	DW	09a3eH
	DW	09636H
	DW	0cb57H
	DW	01ceaH
	DW	05edfH
	DW	06d92H
	DW	04112H
	DW	0f16bH
	DW	0a9a4H
	DW	09086H
	DW	0b3a2H
	DW	00H
	DW	04c5eH
	DW	06f7aH
	DW	0565bH
	DW	0e94H
	DW	0beedH
	DW	0926eH
	DW	0a121H
	DW	0e316H
	DW	034aaH
	DW	069caH
	DW	065c2H
	DW	02ac0H
	DW	0d8a6H
	DW	09bceH
	DW	09518H
	DW	0c825H
	DW	0195eH
	DW	05ce4H
	DW	06e39H
	DW	04402H
	DW	0f50dH
	DW	0ac02H
	DW	09058H
	DW	0b101H
	DW	0fc59H
	DW	049a9H
	DW	06f2eH
	DW	058a1H
	DW	01232H
	DW	0c1efH
	DW	09334H
	DW	09f40H
	DW	0df93H
	DW	03169H
	DW	0688eH
	DW	06736H
	DW	02e1bH
	DW	0dc17H
	DW	09d79H
	DW	09417H
	DW	0c502H
	DW	015cbH
	DW	05acfH
	DW	06ec3H
	DW	046dfH
	DW	0f8b2H
	DW	0ae76H
	DW	09049H
	DW	0ae77H
	DW	0f8b2H
	DW	046dfH
	DW	06ec3H
	DW	05acfH
	DW	015cbH
	DW	0c502H
	DW	09417H
	DW	09d7aH
	DW	0dc18H
	DW	02e1bH
	DW	06737H
	DW	0688eH
	DW	03169H
	DW	0df92H
	DW	09f40H
	DW	09334H
	DW	0c1efH
	DW	01233H
	DW	058a2H
	DW	06f2eH
	DW	049a9H
	DW	0fc58H
	DW	0b101H
	DW	09058H
	DW	0ac02H
	DW	0f50dH
	DW	04402H
	DW	06e3aH
	DW	05ce3H
	DW	0195eH
	DW	0c824H
	DW	09518H
	DW	09bceH
	DW	0d8a6H
	DW	02ac1H
	DW	065c2H
	DW	069caH
	DW	034a9H
	DW	0e316H
	DW	0a121H
	DW	0926eH
	DW	0beeeH
	DW	0e95H
	DW	0565cH
	DW	06f7aH
	DW	04c5eH
	DW	00H
	DW	0b3a2H
	DW	09086H
	DW	0a9a5H
	DW	0f16cH
	DW	04113H
	DW	06d92H
	DW	05edfH
	DW	01ce9H
	DW	0cb56H
	DW	09636H
	DW	09a3eH
	DW	0d540H
	DW	0275aH
	DW	06432H
	DW	06ae8H
	DW	037dbH
	DW	0e6a2H
	DW	0a31cH
	DW	091c7H
	DW	0bbfeH
	DW	0af3H
	DW	053feH
	DW	06fa8H
	DW	04effH
	DW	03a7H
	DW	0b657H
	DW	090d2H
	DW	0a75fH
	DW	0edceH
	DW	03e11H
	DW	06cccH
	DW	060c0H
	DW	0206dH
	DW	0ce97H
	DW	09771H
	DW	098caH
	DW	0d1e5H
	DW	023e9H
	DW	06287H
	DW	06be9H
	DW	03afeH
	DW	0ea35H
	DW	0a531H
	DW	0913dH
	DW	0b921H
	DW	074eH
	DW	0518aH
	DW	06fb7H
	DW	05189H
	DW	074eH
	DW	0b921H
	DW	0913dH
	DW	0a531H
	DW	0ea35H
	DW	03affH
	DW	06be9H
	DW	06286H
	DW	023e8H
	DW	0d1e5H
	DW	098c9H
	DW	09772H
	DW	0ce97H
	DW	0206eH
	DW	060c0H
	DW	06cccH
	DW	03e10H
	DW	0edcdH
	DW	0a75eH
	DW	090d2H
	DW	0b657H
	DW	03a8H
	DW	04effH
	DW	06fa8H
	DW	053feH
	DW	0af2H
	DW	0bbfeH
	DW	091c6H
	DW	0a31dH
	DW	0e6a2H
	DW	037dcH
	DW	06ae8H
	DW	06432H
	DW	02759H
	DW	0d53fH
	DW	09a3eH
	DW	09636H
	DW	0cb57H
	DW	01ceaH
	DW	05edfH
	DW	06d92H
	DW	04112H
	DW	0f16bH
	DW	0a9a4H
	DW	09086H
	DW	0b3a2H
	DW	00H
	DW	04c5fH
	DW	06f7aH
	DW	0565bH
	DW	0e94H
	DW	0beedH
	DW	0926eH
	DW	0a122H
	DW	0e317H
	DW	034aaH
	DW	069caH
	DW	065c2H
	DW	02ac0H
	DW	0d8a6H
	DW	09bceH
	DW	09518H
	DW	0c825H
	DW	0195eH
	DW	05ce4H
	DW	06e39H
	DW	04402H
	DW	0f50dH
	DW	0ac02H
	DW	09058H
	DW	0b102H
	DW	0fc59H
	DW	049a9H
	DW	06f2eH
	DW	058a1H
	DW	01232H
	DW	0c1efH
	DW	09334H
	DW	09f40H
	DW	0df93H
	DW	03169H
	DW	0688fH
	DW	06736H
	DW	02e1bH
	DW	0dc17H
	DW	09d79H
	DW	09417H
	DW	0c502H
	DW	015ccH
	DW	05acfH
	DW	06ec3H
	DW	046dfH
	DW	0f8b2H
	DW	0ae76H
	DW	09049H
	DW	0ae77H
	DW	0f8b2H
	DW	046e0H
	DW	06ec3H
	DW	05acfH
	DW	015cbH
	DW	0c501H
	DW	09417H
	DW	09d7aH
	DW	0dc18H
	DW	02e1bH
	DW	06737H
	DW	0688eH
	DW	03169H
	DW	0df92H
	DW	09f40H
	DW	09334H
	DW	0c1f0H
	DW	01233H
	DW	058a2H
	DW	06f2eH
	DW	049a8H
	DW	0fc58H
	DW	0b101H
	DW	09058H
	DW	0ac02H
	DW	0f50eH
	DW	04402H
	DW	06e3aH
	DW	05ce3H
	DW	0195dH
	DW	0c824H
	DW	09518H
	DW	09bceH
	DW	0d8a7H
	DW	02ac1H
	DW	065c2H
	DW	069caH
	DW	034a9H
	DW	0e316H
	DW	0a121H
	DW	0926eH
	DW	0beeeH
	DW	0e95H
	DW	0565cH
	DW	06f7aH
	DW	04c5eH
	DW	00H
	DW	04d6eH
	DW	06fa1H
	DW	05382H
	DW	08c3H
	DW	0b921H
	DW	0910fH
	DW	0a6edH
	DW	0ee86H
	DW	03fe1H
	DW	06d92H
	DW	05e17H
	DW	01a14H
	DW	0c783H
	DW	0947aH
	DW	09d7aH
	DW	0dd7bH
	DW	030c1H
	DW	068d0H
	DW	0665aH
	DW	02ac0H
	DW	0d749H
	DW	09a8cH
	DW	09673H
	DW	0cd48H
	DW	0206eH
	DW	06179H
	DW	06c19H
	DW	03a5fH
	DW	0e80fH
	DW	0a31cH
	DW	09206H
	DW	0be56H
	DW	0f4eH
	DW	057bcH
	DW	06f2eH
	DW	0488eH
	DW	0f96dH
	DW	0adf7H
	DW	0904eH
	DW	0b101H
	DW	0fdcfH
	DW	04bd5H
	DW	06f86H
	DW	054f3H
	DW	0af3H
	DW	0bad6H
	DW	09156H
	DW	0a59fH
	DW	0ec5dH
	DW	03e11H
	DW	06d1fH
	DW	05f41H
	DW	01c35H
	DW	0c96aH
	DW	09518H
	DW	09c76H
	DW	0db66H
	DW	02ec5H
	DW	06808H
	DW	06736H
	DW	02cc5H
	DW	0d955H
	DW	09b7cH
	DW	095c0H
	DW	0cb57H
	DW	01e53H
	DW	06062H
	DW	06ca1H
	DW	03c3bH
	DW	0ea35H
	DW	0a459H
	DW	091a9H
	DW	0bc93H
	DW	0d21H
	DW	0565cH
	DW	06f5fH
	DW	04a35H
	DW	0fb9dH
	DW	0af78H
	DW	09049H
	DW	0af78H
	DW	0fb9eH
	DW	04a35H
	DW	06f5fH
	DW	0565bH
	DW	0d21H
	DW	0bc93H
	DW	091a9H
	DW	0a459H
	DW	0ea35H
	DW	03c3bH
	DW	06ca1H
	DW	06062H
	DW	01e52H
	DW	0cb56H
	DW	095c0H
	DW	09b7cH
	DW	0d956H
	DW	02cc5H
	DW	06737H
	DW	06808H
	DW	02ec5H
	DW	0db66H
	DW	09c76H
	DW	09518H
	DW	0c96aH
	DW	01c35H
	DW	05f41H
	DW	06d1fH
	DW	03e11H
	DW	0ec5cH
	DW	0a59eH
	DW	09156H
	DW	0bad7H
	DW	0af3H
	DW	054f3H
	DW	06f86H
	DW	04bd5H
	DW	0fdcfH
	DW	0b101H
	DW	0904eH
	DW	0adf7H
	DW	0f96dH
	DW	0488eH
	DW	06f2eH
	DW	057bbH
	DW	0f4eH
	DW	0be56H
	DW	09206H
	DW	0a31dH
	DW	0e810H
	DW	03a5fH
	DW	06c19H
	DW	06179H
	DW	0206dH
	DW	0cd48H
	DW	09673H
	DW	09a8cH
	DW	0d749H
	DW	02ac1H
	DW	0665bH
	DW	068d0H
	DW	030c0H
	DW	0dd7aH
	DW	09d79H
	DW	0947aH
	DW	0c783H
	DW	01a14H
	DW	05e17H
	DW	06d92H
	DW	03fe0H
	DW	0ee86H
	DW	0a6edH
	DW	0910fH
	DW	0b921H
	DW	08c4H
	DW	05383H
	DW	06fa1H
	DW	04d6dH
	DW	00H
	DW	0b292H
	DW	0905fH
	DW	0ac7eH
	DW	0f73dH
	DW	046e0H
	DW	06ef1H
	DW	05913H
	DW	01179H
	DW	0c01fH
	DW	0926eH
	DW	0a1e9H
	DW	0e5ecH
	DW	0387eH
	DW	06b86H
	DW	06286H
	DW	02285H
	DW	0cf3fH
	DW	09730H
	DW	099a6H
	DW	0d540H
	DW	028b8H
	DW	06575H
	DW	0698dH
	DW	032b7H
	DW	0df92H
	DW	09e87H
	DW	093e7H
	DW	0c5a2H
	DW	017f1H
	DW	05ce4H
	DW	06dfaH
	DW	041aaH
	DW	0f0b1H
	DW	0a844H
	DW	090d2H
	DW	0b773H
	DW	0694H
	DW	0520aH
	DW	06fb2H
	DW	04efeH
	DW	0230H
	DW	0b42aH
	DW	0907aH
	DW	0ab0dH
	DW	0f50eH
	DW	0452aH
	DW	06eaaH
	DW	05a61H
	DW	013a3H
	DW	0c1efH
	DW	092e1H
	DW	0a0bfH
	DW	0e3ccH
	DW	03697H
	DW	06ae8H
	DW	0638aH
	DW	02499H
	DW	0d13aH
	DW	097f8H
	DW	098caH
	DW	0d33cH
	DW	026abH
	DW	06485H
	DW	06a40H
	DW	034a9H
	DW	0e1adH
	DW	09f9eH
	DW	0935fH
	DW	0c3c6H
	DW	015ccH
	DW	05ba7H
	DW	06e57H
	DW	0436dH
	DW	0f2deH
	DW	0a9a4H
	DW	090a1H
	DW	0b5cbH
	DW	0463H
	DW	05088H
	DW	06fb7H
	DW	05087H
	DW	0462H
	DW	0b5caH
	DW	090a1H
	DW	0a9a5H
	DW	0f2e0H
	DW	0436eH
	DW	06e58H
	DW	05ba7H
	DW	015caH
	DW	0c3c5H
	DW	0935fH
	DW	09f9fH
	DW	0e1aeH
	DW	034aaH
	DW	06a40H
	DW	06484H
	DW	026aaH
	DW	0d33aH
	DW	098c9H
	DW	097f8H
	DW	0d13cH
	DW	0249bH
	DW	0638bH
	DW	06ae8H
	DW	03695H
	DW	0e3caH
	DW	0a0bfH
	DW	092e1H
	DW	0c1f0H
	DW	013a4H
	DW	05a62H
	DW	06eaaH
	DW	04529H
	DW	0f50cH
	DW	0ab0cH
	DW	0907aH
	DW	0b42bH
	DW	0232H
	DW	04effH
	DW	06fb2H
	DW	05209H
	DW	0692H
	DW	0b772H
	DW	090d2H
	DW	0a845H
	DW	0f0b3H
	DW	041abH
	DW	06dfaH
	DW	05ce3H
	DW	017f0H
	DW	0c5a0H
	DW	093e7H
	DW	09e88H
	DW	0df93H
	DW	032b8H
	DW	0698dH
	DW	06574H
	DW	028b7H
	DW	0d53fH
	DW	099a5H
	DW	09731H
	DW	0cf40H
	DW	02286H
	DW	06287H
	DW	06b85H
	DW	0387cH
	DW	0e5ebH
	DW	0a1e9H
	DW	0926eH
	DW	0c020H
	DW	0117aH
	DW	05913H
	DW	06ef1H
	DW	046deH
	DW	0f73cH
	DW	0ac7dH
	DW	0905fH
	DW	0b293H
	DW	01H
	DW	04d6fH
	DW	06fa1H
	DW	05382H
	DW	08c2H
	DW	0b920H
	DW	0910fH
	DW	0a6eeH
	DW	0ee87H
	DW	03fe1H
	DW	06d92H
	DW	05e16H
	DW	01a13H
	DW	0c782H
	DW	0947aH
	DW	09d7aH
	DW	0dd7cH
	DW	030c2H
	DW	068d0H
	DW	0665aH
	DW	02abfH
	DW	0d748H
	DW	09a8bH
	DW	09673H
	DW	0cd49H
	DW	0206fH
	DW	06179H
	DW	06c19H
	DW	03a5eH
	DW	0e80eH
	DW	0a31cH
	DW	09206H
	DW	0be57H
	DW	0f4fH
	DW	057bcH
	DW	06f2eH
	DW	0488dH
	DW	0f96cH
	DW	0adf6H
	DW	0904eH
	DW	0b102H
	DW	0fdd0H
	DW	04bd6H
	DW	06f86H
	DW	054f2H
	DW	0af2H
	DW	0bad6H
	DW	09156H
	DW	0a59fH
	DW	0ec5eH
	DW	03e12H
	DW	06d1fH
	DW	05f40H
	DW	01c34H
	DW	0c969H
	DW	09518H
	DW	09c76H
	DW	0db67H
	DW	02ec6H
	DW	06809H
	DW	06736H
	DW	02cc4H
	DW	0d954H
	DW	09b7bH
	DW	095c1H
	DW	0cb58H
	DW	01e54H
	DW	06062H
	DW	06ca1H
	DW	03c3aH
	DW	0ea34H
	DW	0a458H
	DW	091a9H
	DW	0bc94H
	DW	0d22H
	DW	0565cH
	DW	06f5fH
	DW	04a34H
	DW	0fb9cH
	DW	0af77H
	DW	09049H
	DW	0af79H
	DW	0fb9fH
	DW	04a36H
	DW	06f5fH
	DW	0565bH
	DW	0d20H
	DW	0bc92H
	DW	091a8H
	DW	0a45aH
	DW	0ea36H
	DW	03c3cH
	DW	06ca2H
	DW	06061H
	DW	01e51H
	DW	0cb55H
	DW	095c0H
	DW	09b7cH
	DW	0d957H
	DW	02cc6H
	DW	06737H
	DW	06808H
	DW	02ec4H
	DW	0db65H
	DW	09c75H
	DW	09518H
	DW	0c96bH
	DW	01c36H
	DW	05f42H
	DW	06d1fH
	DW	03e10H
	DW	0ec5bH
	DW	0a59eH
	DW	09156H
	DW	0bad7H
	DW	0af4H
	DW	054f4H
	DW	06f86H
	DW	04bd4H
	DW	0fdceH
	DW	0b100H
	DW	0904eH
	DW	0adf8H
	DW	0f96eH
	DW	0488fH
	DW	06f2eH
	DW	057bbH
	DW	0f4dH
	DW	0be55H
	DW	09206H
	DW	0a31dH
	DW	0e811H
	DW	03a60H
	DW	06c19H
	DW	06178H
	DW	0206cH
	DW	0cd47H
	DW	09673H
	DW	09a8cH
	DW	0d74aH
	DW	02ac2H
	DW	0665bH
	DW	068cfH
	DW	030c0H
	DW	0dd79H
	DW	09d79H
	DW	0947bH
	DW	0c784H
	DW	01a15H
	DW	05e18H
	DW	06d92H
	DW	03fdfH
	DW	0ee85H
	DW	0a6ecH
	DW	0910fH
	DW	0b922H
	DW	08c5H
	DW	05383H
	DW	06fa1H
	DW	04d6dH
	DW	00H
	DW	04e7aH
	DW	06fb5H
	DW	05088H
	DW	02ecH
	DW	0b3a2H
	DW	0905fH
	DW	0ad78H
	DW	0fa28H
	DW	04a35H
	DW	06f7aH
	DW	05479H
	DW	08c3H
	DW	0b801H
	DW	090c0H
	DW	0a9a4H
	DW	0f453H
	DW	045bcH
	DW	06ef1H
	DW	0582fH
	DW	0e95H
	DW	0bc93H
	DW	09170H
	DW	0a60dH
	DW	0ee86H
	DW	04112H
	DW	06e1aH
	DW	05ba7H
	DW	0145bH
	DW	0c154H
	DW	0926eH
	DW	0a2b5H
	DW	0e8c6H
	DW	03c3bH
	DW	06cf6H
	DW	05edfH
	DW	01a14H
	DW	0c641H
	DW	093b9H
	DW	09f9eH
	DW	0e316H
	DW	03739H
	DW	06b86H
	DW	061d4H
	DW	01fbaH
	DW	0cb57H
	DW	0954fH
	DW	09ccbH
	DW	0dd7bH
	DW	03211H
	DW	069caH
	DW	06484H
	DW	0254aH
	DW	0d091H
	DW	09730H
	DW	09a3eH
	DW	0d7f7H
	DW	02cc5H
	DW	067c3H
	DW	066eeH
	DW	02ac0H
	DW	0d5edH
	DW	0995bH
	DW	097f8H
	DW	0d290H
	DW	0275aH
	DW	06574H
	DW	06910H
	DW	03018H
	DW	0db66H
	DW	09bceH
	DW	095fbH
	DW	0cd48H
	DW	021d3H
	DW	062deH
	DW	06ae8H
	DW	0354eH
	DW	0e0f9H
	DW	09e87H
	DW	09448H
	DW	0c824H
	DW	01c35H
	DW	06002H
	DW	06c75H
	DW	03a5fH
	DW	0e6a2H
	DW	0a185H
	DW	092e1H
	DW	0c328H
	DW	01682H
	DW	05ce3H
	DW	06db6H
	DW	03f47H
	DW	0ec5dH
	DW	0a4c5H
	DW	091c6H
	DW	0be56H
	DW	010c0H
	DW	05983H
	DW	06eaaH
	DW	04402H
	DW	0f225H
	DW	0a844H
	DW	090f9H
	DW	0b9b2H
	DW	0af3H
	DW	055e4H
	DW	06f50H
	DW	0488eH
	DW	0f7f7H
	DW	0ac02H
	DW	0907aH
	DW	0b53fH
	DW	051dH
	DW	05209H
	DW	06fa8H
	DW	04ce7H
	DW	0fdcfH
	DW	0affaH
	DW	09049H
	DW	0b101H
	DW	0ff45H
	DW	04df4H
	DW	06fb2H
	DW	05109H
	DW	03a7H
	DW	0b42bH
	DW	09067H
	DW	0acfaH
	DW	0f96dH
	DW	049a9H
	DW	06f6dH
	DW	054f3H
	DW	097eH
	DW	0b891H
	DW	090d2H
	DW	0a92eH
	DW	0f399H
	DW	0452aH
	DW	06edbH
	DW	058a1H
	DW	0f4eH
	DW	0bd29H
	DW	0918cH
	DW	0a59fH
	DW	0edceH
	DW	0407aH
	DW	06dfaH
	DW	05c12H
	DW	01513H
	DW	0c1efH
	DW	09293H
	DW	0a24eH
	DW	0e80fH
	DW	03b9dH
	DW	06cccH
	DW	05f41H
	DW	01acaH
	DW	0c6e2H
	DW	093e7H
	DW	09f40H
	DW	0e261H
	DW	03696H
	DW	06b52H
	DW	0622eH
	DW	0206eH
	DW	0cbfcH
	DW	09587H
	DW	09c76H
	DW	0dcc9H
	DW	03169H
	DW	0698dH
	DW	064d5H
	DW	025fbH
	DW	0d13bH
	DW	09772H
	DW	099f1H
	DW	0d748H
	DW	02c19H
	DW	0677dH
	DW	06737H
	DW	02b6dH
	DW	0d69bH
	DW	099a6H
	DW	097b4H
	DW	0d1e5H
	DW	026aaH
	DW	06525H
	DW	0694fH
	DW	030c1H
	DW	0dc17H
	DW	09c21H
	DW	095c0H
	DW	0cca2H
	DW	02120H
	DW	06286H
	DW	06b1eH
	DW	035f3H
	DW	0e1adH
	DW	09ee3H
	DW	09417H
	DW	0c783H
	DW	01b7fH
	DW	05fa2H
	DW	06ca1H
	DW	03afeH
	DW	0e759H
	DW	0a1e9H
	DW	092b9H
	DW	0c28bH
	DW	015cbH
	DW	05c7bH
	DW	06dd9H
	DW	03fe1H
	DW	0ed15H
	DW	0a531H
	DW	091a9H
	DW	0bdbfH
	DW	01007H
	DW	05913H
	DW	06ec3H
	DW	04496H
	DW	0f2dfH
	DW	0a8b9H
	DW	090e5H
	DW	0b921H
	DW	0a38H
	DW	0556cH
	DW	06f5fH
	DW	0491cH
	DW	0f8b2H
	DW	0ac7eH
	DW	09070H
	DW	0b4b5H
	DW	0462H
	DW	05189H
	DW	06faeH
	DW	04d6eH
	DW	0fe8aH
	DW	0b07dH
	DW	09049H
	DW	0b07dH
	DW	0fe8aH
	DW	04d6eH
	DW	06faeH
	DW	0518aH
	DW	0463H
	DW	0b4b5H
	DW	09070H
	DW	0ac7eH
	DW	0f8b2H
	DW	0491cH
	DW	06f5fH
	DW	0556cH
	DW	0a39H
	DW	0b921H
	DW	090e5H
	DW	0a8b9H
	DW	0f2dfH
	DW	04496H
	DW	06ec3H
	DW	05913H
	DW	01008H
	DW	0bdbfH
	DW	091a9H
	DW	0a531H
	DW	0ed15H
	DW	03fe0H
	DW	06dd9H
	DW	05c7bH
	DW	015cbH
	DW	0c28bH
	DW	092baH
	DW	0a1e9H
	DW	0e758H
	DW	03afeH
	DW	06ca1H
	DW	05fa2H
	DW	01b80H
	DW	0c783H
	DW	09417H
	DW	09ee3H
	DW	0e1adH
	DW	035f2H
	DW	06b1eH
	DW	06287H
	DW	02121H
	DW	0cca2H
	DW	095c0H
	DW	09c21H
	DW	0dc17H
	DW	030c1H
	DW	0694fH
	DW	06526H
	DW	026abH
	DW	0d1e5H
	DW	097b4H
	DW	099a5H
	DW	0d69aH
	DW	02b6dH
	DW	06736H
	DW	0677eH
	DW	02c19H
	DW	0d749H
	DW	099f1H
	DW	09772H
	DW	0d13bH
	DW	025faH
	DW	064d5H
	DW	0698dH
	DW	03169H
	DW	0dcc9H
	DW	09c76H
	DW	09587H
	DW	0cbfcH
	DW	0206dH
	DW	0622eH
	DW	06b52H
	DW	03696H
	DW	0e262H
	DW	09f40H
	DW	093e7H
	DW	0c6e1H
	DW	01acaH
	DW	05f41H
	DW	06cccH
	DW	03b9dH
	DW	0e80fH
	DW	0a24fH
	DW	09293H
	DW	0c1efH
	DW	01513H
	DW	05c11H
	DW	06dfaH
	DW	0407aH
	DW	0edceH
	DW	0a59fH
	DW	0918cH
	DW	0bd28H
	DW	0f4eH
	DW	058a1H
	DW	06edbH
	DW	0452aH
	DW	0f399H
	DW	0a92eH
	DW	090d2H
	DW	0b890H
	DW	097eH
	DW	054f3H
	DW	06f6dH
	DW	049a9H
	DW	0f96dH
	DW	0acfbH
	DW	09066H
	DW	0b42bH
	DW	03a7H
	DW	05109H
	DW	06fb2H
	DW	04df4H
	DW	0ff46H
	DW	0b101H
	DW	09049H
	DW	0affaH
	DW	0fdcfH
	DW	04ce6H
	DW	06fa8H
	DW	05209H
	DW	051eH
	DW	0b540H
	DW	0907aH
	DW	0ac02H
	DW	0f7f7H
	DW	0488eH
	DW	06f50H
	DW	055e5H
	DW	0af3H
	DW	0b9b2H
	DW	090f9H
	DW	0a844H
	DW	0f225H
	DW	04402H
	DW	06eaaH
	DW	05984H
	DW	010c1H
	DW	0be56H
	DW	091c7H
	DW	0a4c4H
	DW	0ec5cH
	DW	03f46H
	DW	06db6H
	DW	05ce4H
	DW	01683H
	DW	0c328H
	DW	092e1H
	DW	0a185H
	DW	0e6a2H
	DW	03a5fH
	DW	06c75H
	DW	06003H
	DW	01c35H
	DW	0c825H
	DW	09448H
	DW	09e87H
	DW	0e0f9H
	DW	0354eH
	DW	06ae8H
	DW	062deH
	DW	021d3H
	DW	0cd49H
	DW	095fbH
	DW	09bceH
	DW	0db66H
	DW	03018H
	DW	06910H
	DW	06575H
	DW	0275aH
	DW	0d290H
	DW	097f8H
	DW	0995bH
	DW	0d5edH
	DW	02ac0H
	DW	066eeH
	DW	067c4H
	DW	02cc5H
	DW	0d7f7H
	DW	09a3eH
	DW	09730H
	DW	0d091H
	DW	0254aH
	DW	06484H
	DW	069caH
	DW	03211H
	DW	0dd7bH
	DW	09ccbH
	DW	0954fH
	DW	0cb56H
	DW	01fbaH
	DW	061d4H
	DW	06b86H
	DW	03739H
	DW	0e317H
	DW	09f9eH
	DW	093b8H
	DW	0c641H
	DW	01a14H
	DW	05edfH
	DW	06cf6H
	DW	03c3bH
	DW	0e8c7H
	DW	0a2b5H
	DW	0926eH
	DW	0c154H
	DW	0145bH
	DW	05ba7H
	DW	06e1aH
	DW	04113H
	DW	0ee87H
	DW	0a60dH
	DW	09170H
	DW	0bc93H
	DW	0e94H
	DW	0582fH
	DW	06ef1H
	DW	045bcH
	DW	0f453H
	DW	0a9a5H
	DW	090c0H
	DW	0b801H
	DW	08c3H
	DW	05479H
	DW	06f7aH
	DW	04a35H
	DW	0fa28H
	DW	0ad79H
	DW	0905fH
	DW	0b3a1H
	DW	02ecH
	DW	05088H
	DW	06fb5H
	DW	04e7aH
	DW	00H
	DW	04f83H
	DW	06fb5H
	DW	04d6eH
	DW	0fd14H
	DW	0ae76H
	DW	0905fH
	DW	0b4b5H
	DW	05d8H
	DW	05382H
	DW	06f7aH
	DW	0491cH
	DW	0f73dH
	DW	0aa94H
	DW	090c0H
	DW	0b921H
	DW	0badH
	DW	05747H
	DW	06ef1H
	DW	04496H
	DW	0f16bH
	DW	0a6edH
	DW	09170H
	DW	0bdbfH
	DW	0117aH
	DW	05acfH
	DW	06e1aH
	DW	03fe1H
	DW	0eba5H
	DW	0a385H
	DW	0926eH
	DW	0c28bH
	DW	0173aH
	DW	05e17H
	DW	06cf6H
	DW	03afeH
	DW	0e5ecH
	DW	0a05eH
	DW	093b8H
	DW	0c783H
	DW	01ceaH
	DW	0611dH
	DW	06b86H
	DW	035f2H
	DW	0e046H
	DW	09d7aH
	DW	0954fH
	DW	0cca2H
	DW	02285H
	DW	063dfH
	DW	069caH
	DW	030c1H
	DW	0dab6H
	DW	09adbH
	DW	09730H
	DW	0d1e5H
	DW	02809H
	DW	0665bH
	DW	067c3H
	DW	02b6dH
	DW	0d540H
	DW	09882H
	DW	0995bH
	DW	0d749H
	DW	02d70H
	DW	0688eH
	DW	06574H
	DW	025fbH
	DW	0cfe8H
	DW	09673H
	DW	09bceH
	DW	0dcc9H
	DW	032b8H
	DW	06a79H
	DW	062deH
	DW	0206eH
	DW	0cab2H
	DW	094aeH
	DW	09e87H
	DW	0e262H
	DW	037dcH
	DW	06c19H
	DW	06002H
	DW	01acaH
	DW	0c5a1H
	DW	09334H
	DW	0a185H
	DW	0e80fH
	DW	03cd8H
	DW	06d6dH
	DW	05ce3H
	DW	01513H
	DW	0c0b9H
	DW	09206H
	DW	0a4c5H
	DW	0edceH
	DW	041aaH
	DW	06e74H
	DW	05983H
	DW	0f4eH
	DW	0bbfeH
	DW	09125H
	DW	0a845H
	DW	0f399H
	DW	0464eH
	DW	06f2eH
	DW	055e4H
	DW	097eH
	DW	0b772H
	DW	09093H
	DW	0ac02H
	DW	0f96dH
	DW	04ac1H
	DW	06f99H
	DW	05209H
	DW	03a7H
	DW	0b319H
	DW	0904eH
	DW	0affaH
	DW	0ff46H
	DW	04effH
	DW	06fb7H
	DW	04df4H
	DW	0fdcfH
	DW	0aef7H
	DW	09058H
	DW	0b42bH
	DW	051eH
	DW	05306H
	DW	06f86H
	DW	049a9H
	DW	0f7f7H
	DW	0ab0dH
	DW	090b0H
	DW	0b891H
	DW	0af3H
	DW	056d2H
	DW	06f07H
	DW	04529H
	DW	0f225H
	DW	0a75eH
	DW	09156H
	DW	0bd29H
	DW	010c1H
	DW	05a62H
	DW	06e39H
	DW	0407aH
	DW	0ec5cH
	DW	0a3eeH
	DW	0924aH
	DW	0c1efH
	DW	01683H
	DW	05db2H
	DW	06d1fH
	DW	03b9dH
	DW	0e6a2H
	DW	0a0bfH
	DW	0938bH
	DW	0c6e2H
	DW	01c35H
	DW	060c0H
	DW	06bb8H
	DW	03696H
	DW	0e0f9H
	DW	09dd2H
	DW	09518H
	DW	0cbfcH
	DW	021d3H
	DW	0638aH
	DW	06a05H
	DW	03169H
	DW	0db66H
	DW	09b2aH
	DW	096f0H
	DW	0d13bH
	DW	0275aH
	DW	0660fH
	DW	06808H
	DW	02c19H
	DW	0d5edH
	DW	098c9H
	DW	09912H
	DW	0d69bH
	DW	02cc5H
	DW	0684cH
	DW	065c2H
	DW	026aaH
	DW	0d091H
	DW	096b1H
	DW	09b7cH
	DW	0dc18H
	DW	03211H
	DW	06a40H
	DW	06335H
	DW	02120H
	DW	0cb56H
	DW	094e2H
	DW	09e2cH
	DW	0e1aeH
	DW	03739H
	DW	06be9H
	DW	06062H
	DW	01b7fH
	DW	0c641H
	DW	0935fH
	DW	0a122H
	DW	0e759H
	DW	03c3bH
	DW	06d47H
	DW	05d4bH
	DW	015cbH
	DW	0c154H
	DW	09227H
	DW	0a459H
	DW	0ed15H
	DW	04113H
	DW	06e57H
	DW	059f3H
	DW	01007H
	DW	0bc92H
	DW	0913dH
	DW	0a7d1H
	DW	0f2dfH
	DW	045bdH
	DW	06f1bH
	DW	0565bH
	DW	0a38H
	DW	0b801H
	DW	090a1H
	DW	0ab87H
	DW	0f8b2H
	DW	04a35H
	DW	06f90H
	DW	05287H
	DW	0462H
	DW	0b3a1H
	DW	09052H
	DW	0af78H
	DW	0fe8bH
	DW	04e7aH
	DW	06fb7H
	DW	04e7aH
	DW	0fe8aH
	DW	0af78H
	DW	09052H
	DW	0b3a2H
	DW	0463H
	DW	05288H
	DW	06f90H
	DW	04a35H
	DW	0f8b2H
	DW	0ab87H
	DW	090a1H
	DW	0b801H
	DW	0a39H
	DW	0565cH
	DW	06f1bH
	DW	045bcH
	DW	0f2deH
	DW	0a7d1H
	DW	0913dH
	DW	0bc93H
	DW	01008H
	DW	059f3H
	DW	06e57H
	DW	04112H
	DW	0ed15H
	DW	0a459H
	DW	09227H
	DW	0c154H
	DW	015ccH
	DW	05d4bH
	DW	06d46H
	DW	03c3aH
	DW	0e758H
	DW	0a121H
	DW	0935fH
	DW	0c641H
	DW	01b80H
	DW	06062H
	DW	06be9H
	DW	03739H
	DW	0e1adH
	DW	09e2cH
	DW	094e2H
	DW	0cb57H
	DW	02121H
	DW	06335H
	DW	06a40H
	DW	03210H
	DW	0dc17H
	DW	09b7bH
	DW	096b1H
	DW	0d092H
	DW	026abH
	DW	065c2H
	DW	0684cH
	DW	02cc4H
	DW	0d69aH
	DW	09912H
	DW	098caH
	DW	0d5edH
	DW	02c1aH
	DW	06808H
	DW	0660fH
	DW	02759H
	DW	0d13aH
	DW	096f0H
	DW	09b2bH
	DW	0db67H
	DW	03169H
	DW	06a05H
	DW	0638aH
	DW	021d3H
	DW	0cbfbH
	DW	09518H
	DW	09dd3H
	DW	0e0faH
	DW	03697H
	DW	06bb8H
	DW	060c0H
	DW	01c34H
	DW	0c6e1H
	DW	0938bH
	DW	0a0bfH
	DW	0e6a3H
	DW	03b9dH
	DW	06d1fH
	DW	05db1H
	DW	01682H
	DW	0c1efH
	DW	0924aH
	DW	0a3efH
	DW	0ec5dH
	DW	0407aH
	DW	06e3aH
	DW	05a61H
	DW	010c0H
	DW	0bd28H
	DW	09156H
	DW	0a75fH
	DW	0f226H
	DW	0452aH
	DW	06f07H
	DW	056d1H
	DW	0af2H
	DW	0b890H
	DW	090b0H
	DW	0ab0dH
	DW	0f7f8H
	DW	049a9H
	DW	06f86H
	DW	05305H
	DW	051dH
	DW	0b42aH
	DW	09058H
	DW	0aef7H
	DW	0fdd0H
	DW	04df5H
	DW	06fb7H
	DW	04efeH
	DW	0ff45H
	DW	0affaH
	DW	0904eH
	DW	0b31aH
	DW	03a8H
	DW	0520aH
	DW	06f99H
	DW	04ac0H
	DW	0f96cH
	DW	0ac01H
	DW	09093H
	DW	0b773H
	DW	097fH
	DW	055e5H
	DW	06f2eH
	DW	0464eH
	DW	0f398H
	DW	0a844H
	DW	09125H
	DW	0bbfeH
	DW	0f4fH
	DW	05984H
	DW	06e74H
	DW	041aaH
	DW	0edcdH
	DW	0a4c4H
	DW	09206H
	DW	0c0baH
	DW	01514H
	DW	05ce4H
	DW	06d6dH
	DW	03cd8H
	DW	0e80fH
	DW	0a184H
	DW	09334H
	DW	0c5a2H
	DW	01acbH
	DW	06003H
	DW	06c19H
	DW	037dbH
	DW	0e261H
	DW	09e87H
	DW	094aeH
	DW	0cab2H
	DW	0206eH
	DW	062deH
	DW	06a79H
	DW	032b7H
	DW	0dcc8H
	DW	09bceH
	DW	09673H
	DW	0cfe9H
	DW	025fbH
	DW	06575H
	DW	0688eH
	DW	02d6fH
	DW	0d748H
	DW	0995bH
	DW	09883H
	DW	0d540H
	DW	02b6eH
	DW	067c4H
	DW	0665aH
	DW	02808H
	DW	0d1e4H
	DW	09730H
	DW	09adbH
	DW	0dab6H
	DW	030c2H
	DW	069caH
	DW	063deH
	DW	02285H
	DW	0cca1H
	DW	0954fH
	DW	09d7aH
	DW	0e046H
	DW	035f3H
	DW	06b86H
	DW	0611cH
	DW	01ce9H
	DW	0c782H
	DW	093b8H
	DW	0a05eH
	DW	0e5edH
	DW	03affH
	DW	06cf6H
	DW	05e16H
	DW	01739H
	DW	0c28aH
	DW	0926eH
	DW	0a385H
	DW	0eba5H
	DW	03fe1H
	DW	06e1bH
	DW	05aceH
	DW	01179H
	DW	0bdbeH
	DW	09170H
	DW	0a6eeH
	DW	0f16cH
	DW	04497H
	DW	06ef1H
	DW	05747H
	DW	0bacH
	DW	0b920H
	DW	090c0H
	DW	0aa94H
	DW	0f73dH
	DW	0491cH
	DW	06f7aH
	DW	05382H
	DW	05d7H
	DW	0b4b4H
	DW	0905fH
	DW	0ae77H
	DW	0fd15H
	DW	04d6eH
	DW	06fb5H
	DW	04f82H
	DW	00H
	DW	05088H
	DW	06fa1H
	DW	04a35H
	DW	0f73dH
	DW	0a9a4H
	DW	0910fH
	DW	0bc93H
	DW	0117aH
	DW	05ba7H
	DW	06d92H
	DW	03c3bH
	DW	0e5ecH
	DW	09f9eH
	DW	0947aH
	DW	0cb57H
	DW	02285H
	DW	06484H
	DW	068d0H
	DW	02cc5H
	DW	0d540H
	DW	097f8H
	DW	09a8cH
	DW	0db66H
	DW	032b8H
	DW	06ae8H
	DW	06179H
	DW	01c35H
	DW	0c5a1H
	DW	092e1H
	DW	0a31dH
	DW	0ec5dH
	DW	041aaH
	DW	06eaaH
	DW	057bbH
	DW	0af3H
	DW	0b772H
	DW	0907aH
	DW	0adf7H
	DW	0fdcfH
	DW	04effH
	DW	06fb2H
	DW	04bd5H
	DW	0f96dH
	DW	0ab0dH
	DW	090d2H
	DW	0bad7H
	DW	0f4eH
	DW	05a61H
	DW	06dfaH
	DW	03e11H
	DW	0e80fH
	DW	0a0bfH
	DW	093e7H
	DW	0c96aH
	DW	0206eH
	DW	0638aH
	DW	0698dH
	DW	02ec5H
	DW	0d748H
	DW	098c9H
	DW	099a6H
	DW	0d956H
	DW	030c1H
	DW	06a40H
	DW	06286H
	DW	01e52H
	DW	0c783H
	DW	0935fH
	DW	0a1e9H
	DW	0ea35H
	DW	03fe1H
	DW	06e57H
	DW	05913H
	DW	0d21H
	DW	0b921H
	DW	090a1H
	DW	0ac7eH
	DW	0fb9eH
	DW	04d6eH
	DW	06fb7H
	DW	04d6eH
	DW	0fb9dH
	DW	0ac7eH
	DW	090a1H
	DW	0b921H
	DW	0d21H
	DW	05913H
	DW	06e57H
	DW	03fe0H
	DW	0ea35H
	DW	0a1e9H
	DW	0935fH
	DW	0c783H
	DW	01e53H
	DW	06287H
	DW	06a40H
	DW	030c1H
	DW	0d955H
	DW	099a5H
	DW	098caH
	DW	0d749H
	DW	02ec6H
	DW	0698dH
	DW	0638aH
	DW	0206dH
	DW	0c96aH
	DW	093e7H
	DW	0a0bfH
	DW	0e810H
	DW	03e11H
	DW	06dfaH
	DW	05a61H
	DW	0f4eH
	DW	0bad6H
	DW	090d2H
	DW	0ab0dH
	DW	0f96dH
	DW	04bd6H
	DW	06fb2H
	DW	04efeH
	DW	0fdcfH
	DW	0adf7H
	DW	0907aH
	DW	0b773H
	DW	0af3H
	DW	057bcH
	DW	06eaaH
	DW	041aaH
	DW	0ec5cH
	DW	0a31cH
	DW	092e1H
	DW	0c5a1H
	DW	01c35H
	DW	06179H
	DW	06ae8H
	DW	032b7H
	DW	0db66H
	DW	09a8bH
	DW	097f8H
	DW	0d540H
	DW	02cc5H
	DW	068d0H
	DW	06484H
	DW	02285H
	DW	0cb56H
	DW	0947aH
	DW	09f9fH
	DW	0e5ecH
	DW	03c3bH
	DW	06d92H
	DW	05ba7H
	DW	01179H
	DW	0bc92H
	DW	0910fH
	DW	0a9a5H
	DW	0f73dH
	DW	04a36H
	DW	06fa1H
	DW	05088H
	DW	00H
	DW	0af78H
	DW	0905fH
	DW	0b5cbH
	DW	08c4H
	DW	0565cH
	DW	06ef1H
	DW	0436dH
	DW	0ee86H
	DW	0a459H
	DW	0926eH
	DW	0c3c6H
	DW	01a15H
	DW	06062H
	DW	06b86H
	DW	034a9H
	DW	0dd7aH
	DW	09b7bH
	DW	09730H
	DW	0d33cH
	DW	02ac1H
	DW	06808H
	DW	06574H
	DW	02499H
	DW	0cd48H
	DW	09518H
	DW	09e87H
	DW	0e3ccH
	DW	03a60H
	DW	06d1fH
	DW	05ce3H
	DW	013a3H
	DW	0be55H
	DW	09156H
	DW	0a845H
	DW	0f50eH
	DW	0488eH
	DW	06f86H
	DW	05209H
	DW	0230H
	DW	0b101H
	DW	0904eH
	DW	0b42bH
	DW	0694H
	DW	054f4H
	DW	06f2eH
	DW	04529H
	DW	0f0b1H
	DW	0a59eH
	DW	09206H
	DW	0c1f0H
	DW	017f1H
	DW	05f41H
	DW	06c19H
	DW	03695H
	DW	0df92H
	DW	09c75H
	DW	09673H
	DW	0d13cH
	DW	028b8H
	DW	06737H
	DW	0665aH
	DW	026aaH
	DW	0cf3eH
	DW	095c0H
	DW	09d7aH
	DW	0e1aeH
	DW	0387eH
	DW	06ca1H
	DW	05e16H
	DW	015caH
	DW	0c01fH
	DW	091a8H
	DW	0a6eeH
	DW	0f2e0H
	DW	046e0H
	DW	06f5fH
	DW	05382H
	DW	0461H
	DW	0b292H
	DW	09049H
	DW	0b293H
	DW	0463H
	DW	05383H
	DW	06f5fH
	DW	046deH
	DW	0f2deH
	DW	0a6edH
	DW	091a9H
	DW	0c020H
	DW	015ccH
	DW	05e17H
	DW	06ca1H
	DW	0387dH
	DW	0e1acH
	DW	09d79H
	DW	095c1H
	DW	0cf40H
	DW	026abH
	DW	0665bH
	DW	06736H
	DW	028b6H
	DW	0d13aH
	DW	09673H
	DW	09c76H
	DW	0df93H
	DW	03697H
	DW	06c19H
	DW	05f41H
	DW	017f0H
	DW	0c1eeH
	DW	09206H
	DW	0a59fH
	DW	0f0b3H
	DW	0452aH
	DW	06f2eH
	DW	054f2H
	DW	0692H
	DW	0b42aH
	DW	0904eH
	DW	0b102H
	DW	0232H
	DW	0520aH
	DW	06f86H
	DW	0488dH
	DW	0f50cH
	DW	0a844H
	DW	09156H
	DW	0be57H
	DW	013a4H
	DW	05ce4H
	DW	06d1fH
	DW	03a5eH
	DW	0e3caH
	DW	09e87H
	DW	09518H
	DW	0cd49H
	DW	0249bH
	DW	06575H
	DW	06808H
	DW	02abfH
	DW	0d33aH
	DW	09730H
	DW	09b7cH
	DW	0dd7cH
	DW	034aaH
	DW	06b86H
	DW	06061H
	DW	01a13H
	DW	0c3c4H
	DW	0926eH
	DW	0a45aH
	DW	0ee88H
	DW	0436eH
	DW	06ef1H
	DW	0565bH
	DW	08c2H
	DW	0b5caH
	DW	0905fH
	DW	0af79H
	DW	01H
	DW	05089H
	DW	06fa1H
	DW	04a34H
	DW	0f73bH
	DW	0a9a4H
	DW	0910fH
	DW	0bc94H
	DW	0117bH
	DW	05ba8H
	DW	06d92H
	DW	03c3aH
	DW	0e5ebH
	DW	09f9eH
	DW	0947bH
	DW	0cb58H
	DW	02287H
	DW	06485H
	DW	068cfH
	DW	02cc4H
	DW	0d53fH
	DW	097f7H
	DW	09a8cH
	DW	0db67H
	DW	032b9H
	DW	06ae8H
	DW	06178H
	DW	01c34H
	DW	0c5a0H
	DW	092e1H
	DW	0a31dH
	DW	0ec5eH
	DW	041abH
	DW	06eaaH
	DW	057bbH
	DW	0af2H
	DW	0b771H
	DW	0907aH
	DW	0adf8H
	DW	0fdd0H
	DW	04f00H
	DW	06fb2H
	DW	04bd4H
	DW	0f96bH
	DW	0ab0cH
	DW	090d2H
	DW	0bad7H
	DW	0f4fH
	DW	05a62H
	DW	06dfaH
	DW	03e10H
	DW	0e80eH
	DW	0a0beH
	DW	093e8H
	DW	0c96bH
	DW	0206fH
	DW	0638bH
	DW	0698dH
	DW	02ec4H
	DW	0d747H
	DW	098c9H
	DW	099a6H
	DW	0d957H
	DW	030c2H
	DW	06a40H
	DW	06286H
	DW	01e51H
	DW	0c782H
	DW	0935eH
	DW	0a1eaH
	DW	0ea36H
	DW	03fe2H
	DW	06e58H
	DW	05912H
	DW	0d20H
	DW	0b920H
	DW	090a1H
	DW	0ac7fH
	DW	0fb9fH
	DW	04d6fH
	DW	06fb7H
	DW	04d6dH
	DW	0fb9cH
	DW	0ac7dH
	DW	090a1H
	DW	0b922H
	DW	0d23H
	DW	05914H
	DW	06e57H
	DW	03fdfH
	DW	0ea33H
	DW	0a1e8H
	DW	0935fH
	DW	0c784H
	DW	01e54H
	DW	06287H
	DW	06a3fH
	DW	030bfH
	DW	0d954H
	DW	099a5H
	DW	098caH
	DW	0d74aH
	DW	02ec7H
	DW	0698dH
	DW	0638aH
	DW	0206cH
	DW	0c969H
	DW	093e7H
	DW	0a0c0H
	DW	0e811H
	DW	03e12H
	DW	06dfaH
	DW	05a60H
	DW	0f4dH
	DW	0bad5H
	DW	090d2H
	DW	0ab0eH
	DW	0f96eH
	DW	04bd6H
	DW	06fb2H
	DW	04efeH
	DW	0fdcdH
	DW	0adf6H
	DW	0907aH
	DW	0b773H
	DW	0af4H
	DW	057bdH
	DW	06eaaH
	DW	041a9H
	DW	0ec5bH
	DW	0a31cH
	DW	092e1H
	DW	0c5a2H
	DW	01c36H
	DW	0617aH
	DW	06ae8H
	DW	032b6H
	DW	0db65H
	DW	09a8bH
	DW	097f8H
	DW	0d541H
	DW	02cc6H
	DW	068d0H
	DW	06484H
	DW	02284H
	DW	0cb55H
	DW	0947aH
	DW	09f9fH
	DW	0e5eeH
	DW	03c3cH
	DW	06d92H
	DW	05ba6H
	DW	01178H
	DW	0bc91H
	DW	0910fH
	DW	0a9a5H
	DW	0f73eH
	DW	04a36H
	DW	06fa2H
	DW	05087H
	DW	00H
	DW	0518aH
	DW	06f7aH
	DW	046dfH
	DW	0f16bH
	DW	0a531H
	DW	0926eH
	DW	0c502H
	DW	01ceaH
	DW	06286H
	DW	069caH
	DW	02e1bH
	DW	0d540H
	DW	09772H
	DW	09bceH
	DW	0df92H
	DW	037dbH
	DW	06cccH
	DW	05ce4H
	DW	01232H
	DW	0bbfeH
	DW	090d2H
	DW	0ac02H
	DW	0fc59H
	DW	04effH
	DW	06fa8H
	DW	049a9H
	DW	0f50dH
	DW	0a75fH
	DW	091c6H
	DW	0c1efH
	DW	0195eH
	DW	060c0H
	DW	06ae8H
	DW	03169H
	DW	0d8a6H
	DW	098caH
	DW	09a3eH
	DW	0dc17H
	DW	034a9H
	DW	06be9H
	DW	05edfH
	DW	015cbH
	DW	0beeeH
	DW	0913dH
	DW	0a9a4H
	DW	0f8b2H
	DW	04c5eH
	DW	06fb7H
	DW	04c5eH
	DW	0f8b2H
	DW	0a9a4H
	DW	0913dH
	DW	0beeeH
	DW	015cbH
	DW	05edfH
	DW	06be9H
	DW	034a9H
	DW	0dc17H
	DW	09a3eH
	DW	098caH
	DW	0d8a6H
	DW	03169H
	DW	06ae8H
	DW	060c0H
	DW	0195eH
	DW	0c1efH
	DW	091c7H
	DW	0a75fH
	DW	0f50dH
	DW	049a9H
	DW	06fa8H
	DW	04effH
	DW	0fc59H
	DW	0ac02H
	DW	090d2H
	DW	0bbfeH
	DW	01232H
	DW	05ce4H
	DW	06cccH
	DW	037dcH
	DW	0df92H
	DW	09bceH
	DW	09772H
	DW	0d540H
	DW	02e1bH
	DW	069caH
	DW	06286H
	DW	01ceaH
	DW	0c502H
	DW	0926eH
	DW	0a531H
	DW	0f16bH
	DW	046dfH
	DW	06f7aH
	DW	0518aH
	DW	00H
	DW	0ae76H
	DW	09086H
	DW	0b921H
	DW	0e95H
	DW	05acfH
	DW	06d92H
	DW	03afeH
	DW	0e316H
	DW	09d7aH
	DW	09636H
	DW	0d1e5H
	DW	02ac0H
	DW	0688eH
	DW	06432H
	DW	0206eH
	DW	0c825H
	DW	09334H
	DW	0a31cH
	DW	0edceH
	DW	04402H
	DW	06f2eH
	DW	053feH
	DW	03a7H
	DW	0b101H
	DW	09058H
	DW	0b657H
	DW	0af3H
	DW	058a1H
	DW	06e39H
	DW	03e11H
	DW	0e6a2H
	DW	09f40H
	DW	09518H
	DW	0ce97H
	DW	0275aH
	DW	06736H
	DW	065c2H
	DW	023e9H
	DW	0cb57H
	DW	09417H
	DW	0a121H
	DW	0ea35H
	DW	04112H
	DW	06ec3H
	DW	0565cH
	DW	074eH
	DW	0b3a2H
	DW	09049H
	DW	0b3a2H
	DW	074eH
	DW	0565cH
	DW	06ec3H
	DW	04112H
	DW	0ea35H
	DW	0a121H
	DW	09417H
	DW	0cb57H
	DW	023e9H
	DW	065c2H
	DW	06736H
	DW	0275aH
	DW	0ce97H
	DW	09518H
	DW	09f40H
	DW	0e6a2H
	DW	03e11H
	DW	06e39H
	DW	058a1H
	DW	0af3H
	DW	0b657H
	DW	09058H
	DW	0b101H
	DW	03a7H
	DW	053feH
	DW	06f2eH
	DW	04402H
	DW	0edceH
	DW	0a31cH
	DW	09334H
	DW	0c824H
	DW	0206eH
	DW	06432H
	DW	0688eH
	DW	02ac0H
	DW	0d1e5H
	DW	09636H
	DW	09d7aH
	DW	0e316H
	DW	03afeH
	DW	06d92H
	DW	05acfH
	DW	0e95H
	DW	0b921H
	DW	09086H
	DW	0ae76H
	DW	00H
	DW	0518aH
	DW	06f7aH
	DW	046dfH
	DW	0f16bH
	DW	0a531H
	DW	0926eH
	DW	0c502H
	DW	01ceaH
	DW	06286H
	DW	069caH
	DW	02e1bH
	DW	0d540H
	DW	09772H
	DW	09bceH
	DW	0df92H
	DW	037dcH
	DW	06cccH
	DW	05ce4H
	DW	01232H
	DW	0bbfeH
	DW	090d2H
	DW	0ac02H
	DW	0fc59H
	DW	04effH
	DW	06fa8H
	DW	049a9H
	DW	0f50dH
	DW	0a75fH
	DW	091c6H
	DW	0c1efH
	DW	0195eH
	DW	060c0H
	DW	06ae8H
	DW	03169H
	DW	0d8a6H
	DW	098caH
	DW	09a3eH
	DW	0dc17H
	DW	034a9H
	DW	06be9H
	DW	05edfH
	DW	015cbH
	DW	0beeeH
	DW	0913dH
	DW	0a9a4H
	DW	0f8b2H
	DW	04c5eH
	DW	06fb7H
	DW	04c5eH
	DW	0f8b2H
	DW	0a9a4H
	DW	0913dH
	DW	0beeeH
	DW	015cbH
	DW	05edfH
	DW	06be9H
	DW	034a9H
	DW	0dc17H
	DW	09a3eH
	DW	098caH
	DW	0d8a6H
	DW	03169H
	DW	06ae8H
	DW	060c0H
	DW	0195eH
	DW	0c1efH
	DW	091c7H
	DW	0a75fH
	DW	0f50dH
	DW	049a9H
	DW	06fa8H
	DW	04effH
	DW	0fc59H
	DW	0ac02H
	DW	090d2H
	DW	0bbfeH
	DW	01232H
	DW	05ce4H
	DW	06cccH
	DW	037dbH
	DW	0df92H
	DW	09bceH
	DW	09772H
	DW	0d540H
	DW	02e1bH
	DW	069caH
	DW	06286H
	DW	01ceaH
	DW	0c502H
	DW	0926eH
	DW	0a531H
	DW	0f16bH
	DW	046dfH
	DW	06f7aH
	DW	0518aH
	DW	00H
	DW	0ae76H
	DW	09086H
	DW	0b921H
	DW	0e95H
	DW	05acfH
	DW	06d92H
	DW	03afeH
	DW	0e316H
	DW	09d7aH
	DW	09636H
	DW	0d1e5H
	DW	02ac0H
	DW	0688eH
	DW	06432H
	DW	0206eH
	DW	0c825H
	DW	09334H
	DW	0a31cH
	DW	0edceH
	DW	04402H
	DW	06f2eH
	DW	053feH
	DW	03a7H
	DW	0b101H
	DW	09058H
	DW	0b657H
	DW	0af3H
	DW	058a1H
	DW	06e39H
	DW	03e11H
	DW	0e6a2H
	DW	09f40H
	DW	09518H
	DW	0ce97H
	DW	0275aH
	DW	06736H
	DW	065c2H
	DW	023e9H
	DW	0cb57H
	DW	09417H
	DW	0a121H
	DW	0ea35H
	DW	04112H
	DW	06ec3H
	DW	0565cH
	DW	074eH
	DW	0b3a2H
	DW	09048H
	DW	0b3a2H
	DW	074eH
	DW	0565cH
	DW	06ec3H
	DW	04112H
	DW	0ea35H
	DW	0a121H
	DW	09417H
	DW	0cb57H
	DW	023e9H
	DW	065c2H
	DW	06736H
	DW	0275aH
	DW	0ce97H
	DW	09518H
	DW	09f40H
	DW	0e6a2H
	DW	03e11H
	DW	06e3aH
	DW	058a1H
	DW	0af3H
	DW	0b657H
	DW	09058H
	DW	0b101H
	DW	03a7H
	DW	053feH
	DW	06f2eH
	DW	04402H
	DW	0edceH
	DW	0a31cH
	DW	09334H
	DW	0c824H
	DW	0206eH
	DW	06432H
	DW	0688eH
	DW	02ac0H
	DW	0d1e5H
	DW	09636H
	DW	09d7aH
	DW	0e316H
	DW	03afeH
	DW	06d92H
	DW	05acfH
	DW	0e95H
	DW	0b921H
	DW	09086H
	DW	0ae76H
	DW	00H
	DW	0518aH
	DW	06f7aH
	DW	046dfH
	DW	0f16bH
	DW	0a531H
	DW	0926eH
	DW	0c502H
	DW	01ceaH
	DW	06286H
	DW	069caH
	DW	02e1bH
	DW	0d540H
	DW	09772H
	DW	09bceH
	DW	0df92H
	DW	037dcH
	DW	06cccH
	DW	05ce4H
	DW	01232H
	DW	0bbfeH
	DW	090d2H
	DW	0ac02H
	DW	0fc59H
	DW	04effH
	DW	06fa8H
	DW	049a9H
	DW	0f50dH
	DW	0a75fH
	DW	091c7H
	DW	0c1efH
	DW	0195eH
	DW	060c0H
	DW	06ae8H
	DW	03169H
	DW	0d8a6H
	DW	098caH
	DW	09a3eH
	DW	0dc17H
	DW	034a9H
	DW	06be9H
	DW	05edfH
	DW	015cbH
	DW	0beeeH
	DW	0913dH
	DW	0a9a4H
	DW	0f8b2H
	DW	04c5eH
	DW	06fb7H
	DW	04c5eH
	DW	0f8b2H
	DW	0a9a4H
	DW	0913dH
	DW	0beeeH
	DW	015cbH
	DW	05edfH
	DW	06be9H
	DW	034a9H
	DW	0dc17H
	DW	09a3eH
	DW	098caH
	DW	0d8a6H
	DW	03169H
	DW	06ae8H
	DW	060c0H
	DW	0195eH
	DW	0c1efH
	DW	091c6H
	DW	0a75fH
	DW	0f50dH
	DW	049a9H
	DW	06fa8H
	DW	04effH
	DW	0fc59H
	DW	0ac02H
	DW	090d2H
	DW	0bbfeH
	DW	01232H
	DW	05ce4H
	DW	06cccH
	DW	037dbH
	DW	0df92H
	DW	09bceH
	DW	09772H
	DW	0d540H
	DW	02e1bH
	DW	069caH
	DW	06286H
	DW	01ceaH
	DW	0c502H
	DW	0926eH
	DW	0a531H
	DW	0f16bH
	DW	046dfH
	DW	06f7aH
	DW	0518aH
	DW	00H
	DW	05288H
	DW	06f40H
	DW	0436dH
	DW	0eba5H
	DW	0a121H
	DW	0947aH
	DW	0cdefH
	DW	02809H
	DW	06808H
	DW	06432H
	DW	01f07H
	DW	0c5a1H
	DW	0924aH
	DW	0a67dH
	DW	0f50dH
	DW	04ac1H
	DW	06fb7H
	DW	04bd5H
	DW	0f682H
	DW	0a75fH
	DW	09206H
	DW	0c463H
	DW	01d9eH
	DW	0638aH
	DW	0688eH
	DW	02965H
	DW	0cf3fH
	DW	094e2H
	DW	0a05eH
	DW	0ea35H
	DW	04241H
	DW	06f1bH
	DW	05382H
	DW	0176H
	DW	0ae76H
	DW	090a1H
	DW	0bb6aH
	DW	012ebH
	DW	05e17H
	DW	06be9H
	DW	0335eH
	DW	0d956H
	DW	09882H
	DW	09b2bH
	DW	0df92H
	DW	0391fH
	DW	06d6dH
	DW	05a61H
	DW	0c67H
	DW	0b657H
	DW	0904eH
	DW	0b31aH
	DW	0809H
	DW	057bcH
	DW	06e39H
	DW	03cd8H
	DW	0e3cbH
	DW	09d22H
	DW	096f0H
	DW	0d540H
	DW	02f6fH
	DW	06ab1H
	DW	06062H
	DW	0173aH
	DW	0beeeH
	DW	0910fH
	DW	0ab87H
	DW	0fd14H
	DW	05088H
	DW	06f7aH
	DW	045bcH
	DW	0ee86H
	DW	0a2b5H
	DW	093b9H
	DW	0cb57H
	DW	0254aH
	DW	066eeH
	DW	06574H
	DW	021d3H
	DW	0c824H
	DW	092e1H
	DW	0a4c5H
	DW	0f225H
	DW	0488eH
	DW	06fa8H
	DW	04df4H
	DW	0f96dH
	DW	0a92eH
	DW	0918cH
	DW	0c1efH
	DW	01acaH
	DW	0622eH
	DW	0698dH
	DW	02c19H
	DW	0d1e5H
	DW	095c0H
	DW	09ee3H
	DW	0e759H
	DW	03fe1H
	DW	06ec3H
	DW	0556cH
	DW	0462H
	DW	0b07dH
	DW	09070H
	DW	0b921H
	DW	01008H
	DW	05c7bH
	DW	06ca1H
	DW	035f2H
	DW	0dc17H
	DW	099a5H
	DW	099f1H
	DW	0dcc9H
	DW	03696H
	DW	06cccH
	DW	05c11H
	DW	0f4eH
	DW	0b890H
	DW	09067H
	DW	0b101H
	DW	051eH
	DW	055e4H
	DW	06eaaH
	DW	03f47H
	DW	0e6a2H
	DW	09e87H
	DW	095fbH
	DW	0d290H
	DW	02cc5H
	DW	069caH
	DW	061d4H
	DW	01a14H
	DW	0c154H
	DW	09170H
	DW	0a9a4H
	DW	0fa28H
	DW	04e7aH
	DW	06fa1H
	DW	047ffH
	DW	0f16bH
	DW	0a459H
	DW	0930aH
	DW	0c8c7H
	DW	02286H
	DW	065c2H
	DW	066a5H
	DW	0249aH
	DW	0cab2H
	DW	0938bH
	DW	0a31dH
	DW	0ef40H
	DW	0464eH
	DW	06f86H
	DW	05006H
	DW	0fc59H
	DW	0ab0dH
	DW	09125H
	DW	0bf86H
	DW	017f1H
	DW	060c0H
	DW	06a79H
	DW	02ec5H
	DW	0d493H
	DW	096b1H
	DW	09d7aH
	DW	0e481H
	DW	03d75H
	DW	06e57H
	DW	05747H
	DW	074eH
	DW	0b292H
	DW	09052H
	DW	0b6e4H
	DW	0d21H
	DW	05acfH
	DW	06d46H
	DW	0387dH
	DW	0dedfH
	DW	09adaH
	DW	098caH
	DW	0da06H
	DW	03404H
	DW	06c19H
	DW	05db1H
	DW	01232H
	DW	0bad6H
	DW	09093H
	DW	0aef7H
	DW	0231H
	DW	053feH
	DW	06f07H
	DW	041aaH
	DW	0e97dH
	DW	09ffdH
	DW	09518H
	DW	0cfe8H
	DW	02a13H
	DW	068d0H
	DW	06335H
	DW	01ce9H
	DW	0c3c5H
	DW	091e6H
	DW	0a7d1H
	DW	0f73dH
	DW	04c5eH
	DW	06fb5H
	DW	04a35H
	DW	0f453H
	DW	0a60dH
	DW	0926eH
	DW	0c641H
	DW	01fbbH
	DW	06484H
	DW	067c3H
	DW	0275aH
	DW	0cd48H
	DW	09448H
	DW	0a185H
	DW	0ec5dH
	DW	04402H
	DW	06f50H
	DW	05209H
	DW	0ff45H
	DW	0acfaH
	DW	090d2H
	DW	0bd29H
	DW	01514H
	DW	05f41H
	DW	06b52H
	DW	03169H
	DW	0d748H
	DW	097b4H
	DW	09c21H
	DW	0e1aeH
	DW	03afeH
	DW	06dd9H
	DW	05913H
	DW	0a38H
	DW	0b4b4H
	DW	09049H
	DW	0b4b5H
	DW	0a39H
	DW	05913H
	DW	06dd9H
	DW	03afeH
	DW	0e1adH
	DW	09c21H
	DW	097b4H
	DW	0d749H
	DW	03169H
	DW	06b52H
	DW	05f41H
	DW	01513H
	DW	0bd28H
	DW	090d2H
	DW	0acfbH
	DW	0ff46H
	DW	05209H
	DW	06f50H
	DW	04402H
	DW	0ec5cH
	DW	0a185H
	DW	09448H
	DW	0cd49H
	DW	0275aH
	DW	067c4H
	DW	06484H
	DW	01fbaH
	DW	0c641H
	DW	0926eH
	DW	0a60dH
	DW	0f453H
	DW	04a35H
	DW	06fb5H
	DW	04c5eH
	DW	0f73cH
	DW	0a7d1H
	DW	091e6H
	DW	0c3c5H
	DW	01ceaH
	DW	06335H
	DW	068d0H
	DW	02a13H
	DW	0cfe8H
	DW	09518H
	DW	09ffeH
	DW	0e97eH
	DW	041aaH
	DW	06f07H
	DW	053feH
	DW	0231H
	DW	0aef7H
	DW	09093H
	DW	0bad7H
	DW	01233H
	DW	05db2H
	DW	06c19H
	DW	03404H
	DW	0da05H
	DW	098c9H
	DW	09adbH
	DW	0dee0H
	DW	0387eH
	DW	06d47H
	DW	05acfH
	DW	0d21H
	DW	0b6e4H
	DW	09052H
	DW	0b292H
	DW	074eH
	DW	05747H
	DW	06e57H
	DW	03d75H
	DW	0e480H
	DW	09d79H
	DW	096b1H
	DW	0d493H
	DW	02ec6H
	DW	06a79H
	DW	060c0H
	DW	017f0H
	DW	0bf86H
	DW	09125H
	DW	0ab0dH
	DW	0fc59H
	DW	05006H
	DW	06f86H
	DW	0464eH
	DW	0ef3fH
	DW	0a31cH
	DW	0938bH
	DW	0cab2H
	DW	0249aH
	DW	066a5H
	DW	065c2H
	DW	02285H
	DW	0c8c7H
	DW	0930aH
	DW	0a459H
	DW	0f16cH
	DW	047ffH
	DW	06fa1H
	DW	04e7aH
	DW	0fa27H
	DW	0a9a4H
	DW	09171H
	DW	0c154H
	DW	01a14H
	DW	061d4H
	DW	069caH
	DW	02cc5H
	DW	0d28fH
	DW	095fbH
	DW	09e87H
	DW	0e6a3H
	DW	03f47H
	DW	06eaaH
	DW	055e4H
	DW	051dH
	DW	0b101H
	DW	09067H
	DW	0b891H
	DW	0f4fH
	DW	05c12H
	DW	06cccH
	DW	03696H
	DW	0dcc8H
	DW	099f1H
	DW	099a6H
	DW	0dc18H
	DW	035f3H
	DW	06ca1H
	DW	05c7bH
	DW	01007H
	DW	0b921H
	DW	09070H
	DW	0b07eH
	DW	0463H
	DW	0556dH
	DW	06ec3H
	DW	03fe0H
	DW	0e758H
	DW	09ee3H
	DW	095c0H
	DW	0d1e5H
	DW	02c1aH
	DW	0698dH
	DW	0622dH
	DW	01ac9H
	DW	0c1efH
	DW	0918cH
	DW	0a92eH
	DW	0f96dH
	DW	04df5H
	DW	06fa8H
	DW	0488dH
	DW	0f225H
	DW	0a4c4H
	DW	092e1H
	DW	0c825H
	DW	021d4H
	DW	06575H
	DW	066eeH
	DW	0254aH
	DW	0cb56H
	DW	093b8H
	DW	0a2b5H
	DW	0ee87H
	DW	045bdH
	DW	06f7aH
	DW	05088H
	DW	0fd13H
	DW	0ab87H
	DW	0910fH
	DW	0beeeH
	DW	0173aH
	DW	06062H
	DW	06ab1H
	DW	02f6eH
	DW	0d53fH
	DW	096f0H
	DW	09d22H
	DW	0e3ccH
	DW	03cd9H
	DW	06e3aH
	DW	057bbH
	DW	0808H
	DW	0b319H
	DW	0904eH
	DW	0b658H
	DW	0c68H
	DW	05a62H
	DW	06d6dH
	DW	0391eH
	DW	0df92H
	DW	09b2aH
	DW	09883H
	DW	0d956H
	DW	0335fH
	DW	06be9H
	DW	05e17H
	DW	012eaH
	DW	0bb69H
	DW	090a1H
	DW	0ae77H
	DW	0176H
	DW	05383H
	DW	06f1bH
	DW	04241H
	DW	0ea34H
	DW	0a05dH
	DW	094e2H
	DW	0cf40H
	DW	02966H
	DW	0688fH
	DW	0638aH
	DW	01d9eH
	DW	0c463H
	DW	09206H
	DW	0a75fH
	DW	0f683H
	DW	04bd6H
	DW	06fb7H
	DW	04ac0H
	DW	0f50dH
	DW	0a67cH
	DW	0924aH
	DW	0c5a2H
	DW	01f07H
	DW	06432H
	DW	06808H
	DW	02808H
	DW	0cdefH
	DW	0947aH
	DW	0a122H
	DW	0eba5H
	DW	0436eH
	DW	06f40H
	DW	05287H
	DW	00H
	DW	05382H
	DW	06ef1H
	DW	03fe1H
	DW	0e5ecH
	DW	09d7aH
	DW	09730H
	DW	0d749H
	DW	032b8H
	DW	06c19H
	DW	05ce4H
	DW	0f4eH
	DW	0b772H
	DW	0904eH
	DW	0b42bH
	DW	0af3H
	DW	05a61H
	DW	06d1fH
	DW	03696H
	DW	0db66H
	DW	098caH
	DW	09b7cH
	DW	0e1adH
	DW	03c3bH
	DW	06e57H
	DW	0565cH
	DW	0462H
	DW	0af78H
	DW	090a1H
	DW	0bc93H
	DW	015cbH
	DW	06062H
	DW	06a40H
	DW	02cc5H
	DW	0d13bH
	DW	09518H
	DW	0a0bfH
	DW	0ec5dH
	DW	0452aH
	DW	06f86H
	DW	04effH
	DW	0f96dH
	DW	0a844H
	DW	09206H
	DW	0c5a1H
	DW	0206eH
	DW	06574H
	DW	0665bH
	DW	02285H
	DW	0c783H
	DW	0926eH
	DW	0a6edH
	DW	0f73cH
	DW	04d6eH
	DW	06fa1H
	DW	046dfH
	DW	0ee87H
	DW	0a1e9H
	DW	0947aH
	DW	0cf3fH
	DW	02ac0H
	DW	0698dH
	DW	06179H
	DW	017f1H
	DW	0be56H
	DW	090d2H
	DW	0adf7H
	DW	0231H
	DW	054f3H
	DW	06eaaH
	DW	03e11H
	DW	0e3cbH
	DW	09c76H
	DW	097f8H
	DW	0d955H
	DW	034a9H
	DW	06ca1H
	DW	05ba7H
	DW	0d21H
	DW	0b5cbH
	DW	09049H
	DW	0b5cbH
	DW	0d21H
	DW	05ba7H
	DW	06ca1H
	DW	034aaH
	DW	0d956H
	DW	097f8H
	DW	09c76H
	DW	0e3cbH
	DW	03e11H
	DW	06eaaH
	DW	054f3H
	DW	0231H
	DW	0adf7H
	DW	090d2H
	DW	0be56H
	DW	017f1H
	DW	06179H
	DW	0698dH
	DW	02ac0H
	DW	0cf3fH
	DW	0947aH
	DW	0a1e9H
	DW	0ee86H
	DW	046dfH
	DW	06fa1H
	DW	04d6eH
	DW	0f73dH
	DW	0a6edH
	DW	0926eH
	DW	0c782H
	DW	02285H
	DW	0665aH
	DW	06574H
	DW	0206eH
	DW	0c5a1H
	DW	09206H
	DW	0a844H
	DW	0f96dH
	DW	04effH
	DW	06f86H
	DW	0452aH
	DW	0ec5dH
	DW	0a0bfH
	DW	09518H
	DW	0d13bH
	DW	02cc5H
	DW	06a40H
	DW	06062H
	DW	015cbH
	DW	0bc93H
	DW	090a1H
	DW	0af78H
	DW	0462H
	DW	0565bH
	DW	06e57H
	DW	03c3bH
	DW	0e1aeH
	DW	09b7cH
	DW	098c9H
	DW	0db66H
	DW	03696H
	DW	06d1fH
	DW	05a62H
	DW	0af3H
	DW	0b42bH
	DW	0904eH
	DW	0b772H
	DW	0f4eH
	DW	05ce3H
	DW	06c19H
	DW	032b8H
	DW	0d749H
	DW	09730H
	DW	09d79H
	DW	0e5ecH
	DW	03fe0H
	DW	06ef1H
	DW	05382H
	DW	00H
	DW	0ac7eH
	DW	0910fH
	DW	0c01fH
	DW	01a14H
	DW	06286H
	DW	068d0H
	DW	028b8H
	DW	0cd49H
	DW	093e7H
	DW	0a31cH
	DW	0f0b2H
	DW	0488dH
	DW	06fb2H
	DW	04bd5H
	DW	0f50eH
	DW	0a59fH
	DW	092e1H
	DW	0c96aH
	DW	02499H
	DW	06736H
	DW	06484H
	DW	01e53H
	DW	0c3c5H
	DW	091a9H
	DW	0a9a4H
	DW	0fb9dH
	DW	05088H
	DW	06f5fH
	DW	0436eH
	DW	0ea35H
	DW	09f9fH
	DW	095c0H
	DW	0d33bH
	DW	02ec5H
	DW	06ae8H
	DW	05f41H
	DW	013a4H
	DW	0bad7H
	DW	0907aH
	DW	0b101H
	DW	0693H
	DW	057bbH
	DW	06dfaH
	DW	03a5fH
	DW	0df93H
	DW	09a8cH
	DW	099a5H
	DW	0dd7aH
	DW	0387dH
	DW	06d92H
	DW	05913H
	DW	08c4H
	DW	0b293H
	DW	0905fH
	DW	0b920H
	DW	01179H
	DW	05e17H
	DW	06b86H
	DW	030c1H
	DW	0d540H
	DW	09673H
	DW	09e87H
	DW	0e80fH
	DW	041aaH
	DW	06f2eH
	DW	05209H
	DW	0fdcfH
	DW	0ab0dH
	DW	09156H
	DW	0c1efH
	DW	01c34H
	DW	0638aH
	DW	06808H
	DW	026abH
	DW	0cb57H
	DW	0935fH
	DW	0a459H
	DW	0f2deH
	DW	04a35H
	DW	06fb7H
	DW	04a36H
	DW	0f2dfH
	DW	0a459H
	DW	0935fH
	DW	0cb56H
	DW	026aaH
	DW	06808H
	DW	0638bH
	DW	01c35H
	DW	0c1f0H
	DW	09156H
	DW	0ab0dH
	DW	0fdceH
	DW	05209H
	DW	06f2eH
	DW	041abH
	DW	0e810H
	DW	09e87H
	DW	09673H
	DW	0d53fH
	DW	030c0H
	DW	06b86H
	DW	05e17H
	DW	0117aH
	DW	0b921H
	DW	0905fH
	DW	0b292H
	DW	08c3H
	DW	05913H
	DW	06d92H
	DW	0387eH
	DW	0dd7bH
	DW	099a6H
	DW	09a8bH
	DW	0df92H
	DW	03a5eH
	DW	06dfaH
	DW	057bcH
	DW	0694H
	DW	0b102H
	DW	0907aH
	DW	0bad6H
	DW	013a3H
	DW	05f41H
	DW	06ae8H
	DW	02ec6H
	DW	0d33cH
	DW	095c0H
	DW	09f9eH
	DW	0ea34H
	DW	0436dH
	DW	06f5fH
	DW	05088H
	DW	0fb9eH
	DW	0a9a5H
	DW	091a9H
	DW	0c3c5H
	DW	01e52H
	DW	06484H
	DW	06737H
	DW	0249aH
	DW	0c96bH
	DW	092e1H
	DW	0a59eH
	DW	0f50dH
	DW	04bd5H
	DW	06fb2H
	DW	0488eH
	DW	0f0b3H
	DW	0a31dH
	DW	093e7H
	DW	0cd48H
	DW	028b7H
	DW	068d0H
	DW	06287H
	DW	01a15H
	DW	0c020H
	DW	0910fH
	DW	0ac7dH
	DW	00H
	DW	05382H
	DW	06ef1H
	DW	03fe1H
	DW	0e5edH
	DW	09d7aH
	DW	09730H
	DW	0d748H
	DW	032b7H
	DW	06c19H
	DW	05ce4H
	DW	0f4fH
	DW	0b773H
	DW	0904eH
	DW	0b42aH
	DW	0af2H
	DW	05a61H
	DW	06d1fH
	DW	03697H
	DW	0db67H
	DW	098caH
	DW	09b7bH
	DW	0e1adH
	DW	03c3aH
	DW	06e57H
	DW	0565cH
	DW	0463H
	DW	0af79H
	DW	090a1H
	DW	0bc92H
	DW	015caH
	DW	06061H
	DW	06a40H
	DW	02cc6H
	DW	0d13cH
	DW	09518H
	DW	0a0bfH
	DW	0ec5cH
	DW	04529H
	DW	06f86H
	DW	04effH
	DW	0f96eH
	DW	0a845H
	DW	09206H
	DW	0c5a0H
	DW	0206dH
	DW	06574H
	DW	0665bH
	DW	02286H
	DW	0c783H
	DW	0926eH
	DW	0a6edH
	DW	0f73cH
	DW	04d6dH
	DW	06fa1H
	DW	046e0H
	DW	0ee87H
	DW	0a1eaH
	DW	0947aH
	DW	0cf3eH
	DW	02abfH
	DW	0698dH
	DW	06179H
	DW	017f2H
	DW	0be57H
	DW	090d2H
	DW	0adf6H
	DW	0230H
	DW	054f3H
	DW	06eaaH
	DW	03e12H
	DW	0e3ccH
	DW	09c76H
	DW	097f7H
	DW	0d955H
	DW	034a9H
	DW	06ca1H
	DW	05ba7H
	DW	0d22H
	DW	0b5ccH
	DW	09049H
	DW	0b5caH
	DW	0d20H
	DW	05ba6H
	DW	06ca1H
	DW	034aaH
	DW	0d956H
	DW	097f8H
	DW	09c75H
	DW	0e3caH
	DW	03e10H
	DW	06eaaH
	DW	054f4H
	DW	0232H
	DW	0adf7H
	DW	090d2H
	DW	0be55H
	DW	017f0H
	DW	06178H
	DW	0698dH
	DW	02ac1H
	DW	0cf40H
	DW	0947bH
	DW	0a1e9H
	DW	0ee86H
	DW	046deH
	DW	06fa1H
	DW	04d6eH
	DW	0f73dH
	DW	0a6eeH
	DW	0926eH
	DW	0c782H
	DW	02285H
	DW	0665aH
	DW	06575H
	DW	0206fH
	DW	0c5a2H
	DW	09206H
	DW	0a844H
	DW	0f96cH
	DW	04efeH
	DW	06f86H
	DW	0452aH
	DW	0ec5eH
	DW	0a0bfH
	DW	09518H
	DW	0d13aH
	DW	02cc4H
	DW	06a3fH
	DW	06062H
	DW	015ccH
	DW	0bc94H
	DW	090a1H
	DW	0af77H
	DW	0461H
	DW	0565bH
	DW	06e58H
	DW	03c3cH
	DW	0e1aeH
	DW	09b7cH
	DW	098c9H
	DW	0db65H
	DW	03695H
	DW	06d1fH
	DW	05a62H
	DW	0af4H
	DW	0b42cH
	DW	0904eH
	DW	0b772H
	DW	0f4dH
	DW	05ce3H
	DW	06c19H
	DW	032b9H
	DW	0d74aH
	DW	09731H
	DW	09d79H
	DW	0e5ebH
	DW	03fe0H
	DW	06ef1H
	DW	05383H
	DW	00H
	DW	05479H
	DW	06e90H
	DW	03c3bH
	DW	0e046H
	DW	09a3eH
	DW	09a8cH
	DW	0e0f9H
	DW	03cd8H
	DW	06eaaH
	DW	053feH
	DW	0ff45H
	DW	0ab0dH
	DW	0918cH
	DW	0c463H
	DW	0206eH
	DW	0660fH
	DW	06525H
	DW	01e53H
	DW	0c28bH
	DW	0913dH
	DW	0ac7eH
	DW	0176H
	DW	0556cH
	DW	06e57H
	DW	03afeH
	DW	0dedfH
	DW	099a6H
	DW	09b2bH
	DW	0e262H
	DW	03e11H
	DW	06edbH
	DW	05305H
	DW	0fdcfH
	DW	0aa1cH
	DW	091c7H
	DW	0c5a1H
	DW	021d3H
	DW	066a5H
	DW	06484H
	DW	01ceaH
	DW	0c154H
	DW	0910fH
	DW	0ad78H
	DW	02ecH
	DW	0565cH
	DW	06e1aH
	DW	039bfH
	DW	0dd7bH
	DW	09912H
	DW	09bceH
	DW	0e3cbH
	DW	03f47H
	DW	06f07H
	DW	05209H
	DW	0fc59H
	DW	0a92eH
	DW	09206H
	DW	0c6e2H
	DW	02337H
	DW	06736H
	DW	063dfH
	DW	01b7fH
	DW	0c01fH
	DW	090e5H
	DW	0ae76H
	DW	0462H
	DW	05747H
	DW	06dd9H
	DW	0387dH
	DW	0dc17H
	DW	09882H
	DW	09c76H
	DW	0e536H
	DW	0407aH
	DW	06f2eH
	DW	05109H
	DW	0fae3H
	DW	0a844H
	DW	0924aH
	DW	0c825H
	DW	0249aH
	DW	067c3H
	DW	06335H
	DW	01a14H
	DW	0beeeH
	DW	090c0H
	DW	0af78H
	DW	05d8H
	DW	0582fH
	DW	06d92H
	DW	03739H
	DW	0dab6H
	DW	097f8H
	DW	09d22H
	DW	0e6a2H
	DW	041aaH
	DW	06f50H
	DW	05006H
	DW	0f96dH
	DW	0a75fH
	DW	09293H
	DW	0c96aH
	DW	025fbH
	DW	0684cH
	DW	06286H
	DW	018a7H
	DW	0bdbfH
	DW	090a1H
	DW	0b07dH
	DW	074eH
	DW	05913H
	DW	06d47H
	DW	035f2H
	DW	0d955H
	DW	09772H
	DW	09dd2H
	DW	0e80fH
	DW	042d8H
	DW	06f6dH
	DW	04effH
	DW	0f7f7H
	DW	0a67dH
	DW	092e1H
	DW	0cab2H
	DW	0275aH
	DW	068d0H
	DW	061d4H
	DW	0173aH
	DW	0bc93H
	DW	09086H
	DW	0b186H
	DW	08c4H
	DW	059f3H
	DW	06cf6H
	DW	034a9H
	DW	0d7f7H
	DW	096f0H
	DW	09e87H
	DW	0e97eH
	DW	04402H
	DW	06f86H
	DW	04df4H
	DW	0f682H
	DW	0a59fH
	DW	09334H
	DW	0cbfcH
	DW	028b7H
	DW	0694fH
	DW	0611dH
	DW	015cbH
	DW	0bb6aH
	DW	09070H
	DW	0b292H
	DW	0a39H
	DW	05acfH
	DW	06ca1H
	DW	0335eH
	DW	0d69aH
	DW	09673H
	DW	09f40H
	DW	0eaedH
	DW	0452aH
	DW	06f99H
	DW	04ce6H
	DW	0f50dH
	DW	0a4c4H
	DW	0938bH
	DW	0cd48H
	DW	02a13H
	DW	069caH
	DW	06062H
	DW	0145bH
	DW	0ba44H
	DW	0905fH
	DW	0b3a2H
	DW	0badH
	DW	05ba7H
	DW	06c47H
	DW	03210H
	DW	0d540H
	DW	095fbH
	DW	09ffeH
	DW	0ec5dH
	DW	0464eH
	DW	06fa8H
	DW	04bd5H
	DW	0f399H
	DW	0a3eeH
	DW	093e7H
	DW	0ce97H
	DW	02b6dH
	DW	06a40H
	DW	05fa2H
	DW	012ebH
	DW	0b921H
	DW	09052H
	DW	0b4b5H
	DW	0d21H
	DW	05c7bH
	DW	06be9H
	DW	030c1H
	DW	0d3e7H
	DW	09587H
	DW	0a0bfH
	DW	0edceH
	DW	04770H
	DW	06fb2H
	DW	04ac1H
	DW	0f225H
	DW	0a31cH
	DW	09448H
	DW	0cfe8H
	DW	02cc5H
	DW	06ab1H
	DW	05edfH
	DW	01179H
	DW	0b801H
	DW	0904bH
	DW	0b5cbH
	DW	0e95H
	DW	05d4bH
	DW	06b86H
	DW	02f6fH
	DW	0d290H
	DW	09518H
	DW	0a185H
	DW	0ef40H
	DW	0488eH
	DW	06fb7H
	DW	049a9H
	DW	0f0b2H
	DW	0a24eH
	DW	094aeH
	DW	0d13bH
	DW	02e1bH
	DW	06b1eH
	DW	05e17H
	DW	01007H
	DW	0b6e4H
	DW	09049H
	DW	0b6e4H
	DW	01008H
	DW	05e17H
	DW	06b1eH
	DW	02e1bH
	DW	0d13bH
	DW	094aeH
	DW	0a24fH
	DW	0f0b2H
	DW	049a9H
	DW	06fb7H
	DW	0488eH
	DW	0ef3fH
	DW	0a185H
	DW	09518H
	DW	0d290H
	DW	02f6fH
	DW	06b86H
	DW	05d4bH
	DW	0e94H
	DW	0b5cbH
	DW	0904bH
	DW	0b801H
	DW	0117aH
	DW	05edfH
	DW	06ab1H
	DW	02cc5H
	DW	0cfe8H
	DW	09448H
	DW	0a31dH
	DW	0f225H
	DW	04ac1H
	DW	06fb2H
	DW	0476fH
	DW	0edcdH
	DW	0a0bfH
	DW	09587H
	DW	0d3e7H
	DW	030c1H
	DW	06be9H
	DW	05c7bH
	DW	0d21H
	DW	0b4b5H
	DW	09052H
	DW	0b921H
	DW	012ebH
	DW	05fa2H
	DW	06a40H
	DW	02b6dH
	DW	0ce97H
	DW	093e7H
	DW	0a3efH
	DW	0f399H
	DW	04bd5H
	DW	06fa8H
	DW	0464eH
	DW	0ec5dH
	DW	09ffdH
	DW	095fbH
	DW	0d540H
	DW	03211H
	DW	06c48H
	DW	05ba7H
	DW	0badH
	DW	0b3a2H
	DW	0905fH
	DW	0ba44H
	DW	0145cH
	DW	06062H
	DW	069caH
	DW	02a13H
	DW	0cd48H
	DW	0938bH
	DW	0a4c5H
	DW	0f50dH
	DW	04ce7H
	DW	06f99H
	DW	04529H
	DW	0eaecH
	DW	09f40H
	DW	09673H
	DW	0d69bH
	DW	0335eH
	DW	06ca1H
	DW	05acfH
	DW	0a38H
	DW	0b292H
	DW	09070H
	DW	0bb6aH
	DW	015cbH
	DW	0611dH
	DW	0694fH
	DW	028b7H
	DW	0cbfcH
	DW	09334H
	DW	0a59fH
	DW	0f682H
	DW	04df5H
	DW	06f86H
	DW	04402H
	DW	0e97dH
	DW	09e87H
	DW	096f0H
	DW	0d7f7H
	DW	034aaH
	DW	06cf6H
	DW	059f3H
	DW	08c3H
	DW	0b186H
	DW	09086H
	DW	0bc93H
	DW	0173aH
	DW	061d4H
	DW	068d0H
	DW	0275aH
	DW	0cab2H
	DW	092e1H
	DW	0a67dH
	DW	0f7f7H
	DW	04effH
	DW	06f6dH
	DW	042d7H
	DW	0e80fH
	DW	09dd2H
	DW	09772H
	DW	0d956H
	DW	035f3H
	DW	06d47H
	DW	05913H
	DW	074eH
	DW	0b07dH
	DW	090a1H
	DW	0bdbfH
	DW	018a8H
	DW	06287H
	DW	0684cH
	DW	025faH
	DW	0c96aH
	DW	09293H
	DW	0a75fH
	DW	0f96dH
	DW	05006H
	DW	06f50H
	DW	041aaH
	DW	0e6a2H
	DW	09d22H
	DW	097f8H
	DW	0dab6H
	DW	03739H
	DW	06d92H
	DW	0582fH
	DW	05d8H
	DW	0af78H
	DW	090c1H
	DW	0beeeH
	DW	01a14H
	DW	06335H
	DW	067c3H
	DW	02499H
	DW	0c824H
	DW	0924aH
	DW	0a845H
	DW	0fae3H
	DW	05109H
	DW	06f2eH
	DW	0407aH
	DW	0e536H
	DW	09c76H
	DW	09883H
	DW	0dc18H
	DW	0387eH
	DW	06dd9H
	DW	05747H
	DW	0462H
	DW	0ae76H
	DW	090e5H
	DW	0c020H
	DW	01b80H
	DW	063dfH
	DW	06736H
	DW	02337H
	DW	0c6e1H
	DW	09206H
	DW	0a92eH
	DW	0fc59H
	DW	05209H
	DW	06f07H
	DW	03f46H
	DW	0e3cbH
	DW	09bceH
	DW	09912H
	DW	0dd7bH
	DW	039bfH
	DW	06e1aH
	DW	0565bH
	DW	02ecH
	DW	0ad78H
	DW	0910fH
	DW	0c154H
	DW	01ceaH
	DW	06484H
	DW	066a5H
	DW	021d3H
	DW	0c5a1H
	DW	091c6H
	DW	0aa1cH
	DW	0fdcfH
	DW	05306H
	DW	06edbH
	DW	03e11H
	DW	0e261H
	DW	09b2aH
	DW	099a6H
	DW	0dee0H
	DW	03affH
	DW	06e57H
	DW	0556cH
	DW	0175H
	DW	0ac7eH
	DW	0913dH
	DW	0c28bH
	DW	01e53H
	DW	06526H
	DW	0660fH
	DW	0206dH
	DW	0c463H
	DW	0918cH
	DW	0ab0dH
	DW	0ff46H
	DW	053feH
	DW	06eaaH
	DW	03cd8H
	DW	0e0f9H
	DW	09a8bH
	DW	09a3eH
	DW	0e046H
	DW	03c3bH
	DW	06e90H
	DW	05479H
	DW	00H
	DW	0556cH
	DW	06e1aH
	DW	0387dH
	DW	0dab6H
	DW	09772H
	DW	09e87H
	DW	0eaedH
	DW	0464eH
	DW	06fb2H
	DW	049a9H
	DW	0ef3fH
	DW	0a0bfH
	DW	095fbH
	DW	0d69bH
	DW	034a9H
	DW	06d47H
	DW	0582fH
	DW	0462H
	DW	0ad78H
	DW	0913dH
	DW	0c3c5H
	DW	02121H
	DW	066eeH
	DW	0638aH
	DW	0195eH
	DW	0bd28H
	DW	0907aH
	DW	0b31aH
	DW	0c67H
	DW	05ce4H
	DW	06b52H
	DW	02d70H
	DW	0cf3fH
	DW	093b8H
	DW	0a531H
	DW	0f73dH
	DW	04f83H
	DW	06f40H
	DW	03fe1H
	DW	0e316H
	DW	09adbH
	DW	09a8cH
	DW	0e262H
	DW	03f47H
	DW	06f2eH
	DW	05006H
	DW	0f7f7H
	DW	0a59fH
	DW	0938bH
	DW	0ce97H
	DW	02cc5H
	DW	06b1eH
	DW	05d4bH
	DW	0d21H
	DW	0b3a2H
	DW	09070H
	DW	0bc93H
	DW	018a8H
	DW	06335H
	DW	06736H
	DW	021d3H
	DW	0c463H
	DW	09156H
	DW	0acfbH
	DW	03a7H
	DW	057bcH
	DW	06d6dH
	DW	0354eH
	DW	0d749H
	DW	09636H
	DW	0a05eH
	DW	0ee87H
	DW	0491cH
	DW	06fb5H
	DW	046dfH
	DW	0eba4H
	DW	09ee3H
	DW	09730H
	DW	0da05H
	DW	037dcH
	DW	06dfaH
	DW	055e4H
	DW	0bbH
	DW	0ab0dH
	DW	091c7H
	DW	0c6e2H
	DW	0249aH
	DW	0684cH
	DW	061d4H
	DW	015cbH
	DW	0ba44H
	DW	09052H
	DW	0b5cbH
	DW	01008H
	DW	05edfH
	DW	06a40H
	DW	02a13H
	DW	0cbfcH
	DW	092e1H
	DW	0a75fH
	DW	0fae3H
	DW	05209H
	DW	06edbH
	DW	03cd8H
	DW	0df92H
	DW	0995bH
	DW	09c21H
	DW	0e5ecH
	DW	04241H
	DW	06f7aH
	DW	04d6eH
	DW	0f453H
	DW	0a385H
	DW	0947aH
	DW	0d1e5H
	DW	03018H
	DW	06c19H
	DW	05b3bH
	DW	097eH
	DW	0b101H
	DW	090b0H
	DW	0bf86H
	DW	01c35H
	DW	064d6H
	DW	065c2H
	DW	01e52H
	DW	0c154H
	DW	090e5H
	DW	0af78H
	DW	074eH
	DW	059f3H
	DW	06ca1H
	DW	03210H
	DW	0d3e7H
	DW	09518H
	DW	0a24fH
	DW	0f225H
	DW	04bd5H
	DW	06f99H
	DW	04402H
	DW	0e80fH
	DW	09d22H
	DW	09883H
	DW	0dd7bH
	DW	03afeH
	DW	06e90H
	DW	05382H
	DW	0fd14H
	DW	0a8b9H
	DW	0926eH
	DW	0ca0eH
	DW	02809H
	DW	0698dH
	DW	06002H
	DW	01232H
	DW	0b772H
	DW	09049H
	DW	0b891H
	DW	013a4H
	DW	060c0H
	DW	06910H
	DW	026aaH
	DW	0c8c7H
	DW	09227H
	DW	0a9a5H
	DW	0fe8aH
	DW	05479H
	DW	06e57H
	DW	039bfH
	DW	0dc17H
	DW	097f8H
	DW	09dd2H
	DW	0e97eH
	DW	0452aH
	DW	06fa8H
	DW	04ac0H
	DW	0f0b2H
	DW	0a185H
	DW	09587H
	DW	0d540H
	DW	0335eH
	DW	06cf6H
	DW	05913H
	DW	05d8H
	DW	0ae76H
	DW	0910fH
	DW	0c28bH
	DW	01fbbH
	DW	0665bH
	DW	06432H
	DW	01acaH
	DW	0be56H
	DW	09093H
	DW	0b20cH
	DW	0af3H
	DW	05c12H
	DW	06bb8H
	DW	02ec5H
	DW	0d091H
	DW	09417H
	DW	0a459H
	DW	0f5c8H
	DW	04e7aH
	DW	06f5fH
	DW	04112H
	DW	0e480H
	DW	09b7cH
	DW	099f1H
	DW	0e0faH
	DW	03e11H
	DW	06f07H
	DW	05109H
	DW	0f96cH
	DW	0a67cH
	DW	09334H
	DW	0cd49H
	DW	02b6dH
	DW	06ab1H
	DW	05e17H
	DW	0e94H
	DW	0b4b4H
	DW	0905fH
	DW	0bb6aH
	DW	0173aH
	DW	06287H
	DW	067c3H
	DW	02337H
	DW	0c5a1H
	DW	0918cH
	DW	0ac02H
	DW	0231H
	DW	056d2H
	DW	06db6H
	DW	03696H
	DW	0d8a6H
	DW	096b1H
	DW	09f9fH
	DW	0ed16H
	DW	047ffH
	DW	06fb7H
	DW	047ffH
	DW	0ed15H
	DW	09f9eH
	DW	096b1H
	DW	0d8a7H
	DW	03696H
	DW	06db6H
	DW	056d2H
	DW	0231H
	DW	0ac02H
	DW	0918cH
	DW	0c5a1H
	DW	02338H
	DW	067c4H
	DW	06286H
	DW	01739H
	DW	0bb69H
	DW	0905fH
	DW	0b4b5H
	DW	0e95H
	DW	05e17H
	DW	06ab1H
	DW	02b6dH
	DW	0cd48H
	DW	09334H
	DW	0a67dH
	DW	0f96dH
	DW	0510aH
	DW	06f07H
	DW	03e10H
	DW	0e0f9H
	DW	099f1H
	DW	09b7cH
	DW	0e481H
	DW	04113H
	DW	06f5fH
	DW	04e7aH
	DW	0f5c7H
	DW	0a459H
	DW	09417H
	DW	0d092H
	DW	02ec6H
	DW	06bb8H
	DW	05c11H
	DW	0af2H
	DW	0b20bH
	DW	09093H
	DW	0be56H
	DW	01acaH
	DW	06432H
	DW	0665aH
	DW	01fbaH
	DW	0c28bH
	DW	0910fH
	DW	0ae77H
	DW	05d9H
	DW	05913H
	DW	06cf6H
	DW	0335eH
	DW	0d53fH
	DW	09587H
	DW	0a185H
	DW	0f0b2H
	DW	04ac1H
	DW	06fa8H
	DW	04529H
	DW	0e97dH
	DW	09dd2H
	DW	097f8H
	DW	0dc18H
	DW	039c0H
	DW	06e57H
	DW	05479H
	DW	0fe8aH
	DW	0a9a4H
	DW	09228H
	DW	0c8c7H
	DW	026abH
	DW	06910H
	DW	060c0H
	DW	013a3H
	DW	0b890H
	DW	09049H
	DW	0b773H
	DW	01233H
	DW	06003H
	DW	0698dH
	DW	02808H
	DW	0ca0dH
	DW	0926eH
	DW	0a8b9H
	DW	0fd14H
	DW	05383H
	DW	06e8fH
	DW	03afeH
	DW	0dd7aH
	DW	09882H
	DW	09d22H
	DW	0e810H
	DW	04403H
	DW	06f9aH
	DW	04bd5H
	DW	0f224H
	DW	0a24eH
	DW	09518H
	DW	0d3e7H
	DW	03211H
	DW	06ca1H
	DW	059f2H
	DW	074dH
	DW	0af78H
	DW	090e5H
	DW	0c154H
	DW	01e53H
	DW	065c2H
	DW	064d5H
	DW	01c34H
	DW	0bf86H
	DW	090b0H
	DW	0b102H
	DW	097fH
	DW	05b3cH
	DW	06c19H
	DW	03018H
	DW	0d1e4H
	DW	0947aH
	DW	0a385H
	DW	0f454H
	DW	04d6eH
	DW	06f7aH
	DW	04241H
	DW	0e5ebH
	DW	09c21H
	DW	0995bH
	DW	0df93H
	DW	03cd9H
	DW	06edbH
	DW	05209H
	DW	0fae2H
	DW	0a75eH
	DW	092e1H
	DW	0cbfdH
	DW	02a14H
	DW	06a40H
	DW	05edeH
	DW	01007H
	DW	0b5caH
	DW	09052H
	DW	0ba44H
	DW	015ccH
	DW	061d4H
	DW	0684cH
	DW	02499H
	DW	0c6e1H
	DW	091c6H
	DW	0ab0dH
	DW	0bbH
	DW	055e5H
	DW	06dfaH
	DW	037dbH
	DW	0da05H
	DW	09730H
	DW	09ee3H
	DW	0eba5H
	DW	046e0H
	DW	06fb5H
	DW	0491bH
	DW	0ee86H
	DW	0a05dH
	DW	09637H
	DW	0d749H
	DW	0354fH
	DW	06d6dH
	DW	057bbH
	DW	03a7H
	DW	0acfaH
	DW	09156H
	DW	0c464H
	DW	021d4H
	DW	06737H
	DW	06334H
	DW	018a7H
	DW	0bc92H
	DW	09070H
	DW	0b3a2H
	DW	0d22H
	DW	05d4bH
	DW	06b1eH
	DW	02cc4H
	DW	0ce96H
	DW	0938bH
	DW	0a59fH
	DW	0f7f8H
	DW	05006H
	DW	06f2eH
	DW	03f46H
	DW	0e261H
	DW	09a8bH
	DW	09adbH
	DW	0e317H
	DW	03fe1H
	DW	06f40H
	DW	04f82H
	DW	0f73cH
	DW	0a531H
	DW	093b9H
	DW	0cf40H
	DW	02d71H
	DW	06b53H
	DW	05ce3H
	DW	0c66H
	DW	0b319H
	DW	0907aH
	DW	0bd29H
	DW	0195fH
	DW	0638bH
	DW	066eeH
	DW	02120H
	DW	0c3c4H
	DW	0913dH
	DW	0ad79H
	DW	0463H
	DW	0582fH
	DW	06d46H
	DW	034a9H
	DW	0d69aH
	DW	095faH
	DW	0a0bfH
	DW	0ef40H
	DW	049a9H
	DW	06fb2H
	DW	0464dH
	DW	0eaecH
	DW	09e87H
	DW	09772H
	DW	0dab6H
	DW	0387eH
	DW	06e1bH
	DW	0556cH
	DW	00H
	DW	0565cH
	DW	06d92H
	DW	034a9H
	DW	0d540H
	DW	09518H
	DW	0a31cH
	DW	0f50dH
	DW	04effH
	DW	06f2eH
	DW	03e11H
	DW	0df92H
	DW	098caH
	DW	09d7aH
	DW	0ea35H
	DW	046dfH
	DW	06fb7H
	DW	046dfH
	DW	0ea35H
	DW	09d7aH
	DW	098caH
	DW	0df92H
	DW	03e11H
	DW	06f2eH
	DW	04effH
	DW	0f50dH
	DW	0a31cH
	DW	09518H
	DW	0d540H
	DW	034a9H
	DW	06d92H
	DW	0565cH
	DW	00H
	DW	0a9a4H
	DW	0926eH
	DW	0cb56H
	DW	02ac0H
	DW	06ae8H
	DW	05ce4H
	DW	0af3H
	DW	0b101H
	DW	090d2H
	DW	0c1efH
	DW	0206eH
	DW	06736H
	DW	06286H
	DW	015cbH
	DW	0b921H
	DW	09049H
	DW	0b921H
	DW	015cbH
	DW	06286H
	DW	06736H
	DW	0206eH
	DW	0c1efH
	DW	090d2H
	DW	0b101H
	DW	0af3H
	DW	05ce3H
	DW	06ae8H
	DW	02ac0H
	DW	0cb57H
	DW	0926eH
	DW	0a9a4H
	DW	00H
	DW	0565cH
	DW	06d92H
	DW	034aaH
	DW	0d540H
	DW	09518H
	DW	0a31cH
	DW	0f50dH
	DW	04effH
	DW	06f2eH
	DW	03e11H
	DW	0df92H
	DW	098caH
	DW	09d79H
	DW	0ea35H
	DW	046dfH
	DW	06fb7H
	DW	046dfH
	DW	0ea35H
	DW	09d7aH
	DW	098c9H
	DW	0df92H
	DW	03e11H
	DW	06f2eH
	DW	04effH
	DW	0f50dH
	DW	0a31dH
	DW	09518H
	DW	0d540H
	DW	034a9H
	DW	06d92H
	DW	0565cH
	DW	00H
	DW	0a9a4H
	DW	0926eH
	DW	0cb56H
	DW	02ac0H
	DW	06ae8H
	DW	05ce4H
	DW	0af3H
	DW	0b101H
	DW	090d2H
	DW	0c1efH
	DW	0206eH
	DW	06736H
	DW	06287H
	DW	015cbH
	DW	0b921H
	DW	09049H
	DW	0b921H
	DW	015cbH
	DW	06286H
	DW	06737H
	DW	0206eH
	DW	0c1efH
	DW	090d2H
	DW	0b101H
	DW	0af3H
	DW	05ce3H
	DW	06ae8H
	DW	02ac0H
	DW	0cb57H
	DW	0926eH
	DW	0a9a4H
	DW	00H
	DW	0565bH
	DW	06d92H
	DW	034aaH
	DW	0d540H
	DW	09518H
	DW	0a31cH
	DW	0f50dH
	DW	04effH
	DW	06f2eH
	DW	03e11H
	DW	0df93H
	DW	098caH
	DW	09d79H
	DW	0ea35H
	DW	046dfH
	DW	06fb7H
	DW	046dfH
	DW	0ea35H
	DW	09d7aH
	DW	098c9H
	DW	0df92H
	DW	03e11H
	DW	06f2eH
	DW	04effH
	DW	0f50dH
	DW	0a31dH
	DW	09518H
	DW	0d540H
	DW	034a9H
	DW	06d92H
	DW	0565cH
	DW	00H
	DW	0a9a5H
	DW	0926eH
	DW	0cb56H
	DW	02ac0H
	DW	06ae8H
	DW	05ce4H
	DW	0af3H
	DW	0b101H
	DW	090d2H
	DW	0c1efH
	DW	0206dH
	DW	06736H
	DW	06287H
	DW	015cbH
	DW	0b921H
	DW	09049H
	DW	0b921H
	DW	015cbH
	DW	06286H
	DW	06737H
	DW	0206eH
	DW	0c1efH
	DW	090d2H
	DW	0b101H
	DW	0af3H
	DW	05ce3H
	DW	06ae8H
	DW	02ac0H
	DW	0cb57H
	DW	0926eH
	DW	0a9a4H
	DW	00H
	DW	0565bH
	DW	06d92H
	DW	034aaH
	DW	0d540H
	DW	09518H
	DW	0a31cH
	DW	0f50dH
	DW	04effH
	DW	06f2eH
	DW	03e11H
	DW	0df93H
	DW	098caH
	DW	09d79H
	DW	0ea35H
	DW	046dfH
	DW	06fb7H
	DW	046dfH
	DW	0ea35H
	DW	09d7aH
	DW	098c9H
	DW	0df92H
	DW	03e11H
	DW	06f2eH
	DW	04effH
	DW	0f50dH
	DW	0a31dH
	DW	09518H
	DW	0d53fH
	DW	034a9H
	DW	06d92H
	DW	0565cH
	DW	00H
	DW	0a9a5H
	DW	0926eH
	DW	0cb56H
	DW	02ac0H
	DW	06ae8H
	DW	05ce4H
	DW	0af3H
	DW	0b101H
	DW	090d2H
	DW	0c1efH
	DW	0206dH
	DW	06736H
	DW	06287H
	DW	015cbH
	DW	0b921H
	DW	09049H
	DW	0b921H
	DW	015cbH
	DW	06286H
	DW	06737H
	DW	0206eH
	DW	0c1efH
	DW	090d2H
	DW	0b101H
	DW	0af2H
	DW	05ce3H
	DW	06ae8H
	DW	02ac1H
	DW	0cb57H
	DW	0926eH
	DW	0a9a4H
	DW	00H
	DW	0565bH
	DW	06d92H
	DW	034aaH
	DW	0d540H
	DW	09518H
	DW	0a31cH
	DW	0f50dH
	DW	04effH
	DW	06f2eH
	DW	03e11H
	DW	0df93H
	DW	098caH
	DW	09d79H
	DW	0ea35H
	DW	046dfH
	DW	06fb7H
	DW	046dfH
	DW	0ea35H
	DW	09d7aH
	DW	098c9H
	DW	0df92H
	DW	03e11H
	DW	06f2eH
	DW	04effH
	DW	0f50eH
	DW	0a31dH
	DW	09518H
	DW	0d53fH
	DW	034a9H
	DW	06d92H
	DW	0565cH
	DW	00H
	DW	0a9a5H
	DW	0926eH
	DW	0cb56H
	DW	02ac0H
	DW	06ae8H
	DW	05ce4H
	DW	0af3H
	DW	0b102H
	DW	090d2H
	DW	0c1efH
	DW	0206dH
	DW	06736H
	DW	06287H
	DW	015cbH
	DW	0b921H
	DW	09049H
	DW	0b921H
	DW	015cbH
	DW	06286H
	DW	06737H
	DW	0206eH
	DW	0c1f0H
	DW	090d2H
	DW	0b101H
	DW	0af2H
	DW	05ce3H
	DW	06ae8H
	DW	02ac1H
	DW	0cb57H
	DW	0926eH
	DW	0a9a4H
	DW	00H
	DW	0565bH
	DW	06d92H
	DW	034aaH
	DW	0d540H
	DW	09518H
	DW	0a31cH
	DW	0f50dH
	DW	04efeH
	DW	06f2eH
	DW	03e11H
	DW	0df93H
	DW	098caH
	DW	09d79H
	DW	0ea34H
	DW	046dfH
	DW	06fb7H
	DW	046dfH
	DW	0ea35H
	DW	09d7aH
	DW	098c9H
	DW	0df92H
	DW	03e10H
	DW	06f2eH
	DW	04effH
	DW	0f50eH
	DW	0a31dH
	DW	09518H
	DW	0d53fH
	DW	034a9H
	DW	06d92H
	DW	0565cH
	DW	00H
	DW	0a9a5H
	DW	0926eH
	DW	0cb56H
	DW	02ac0H
	DW	06ae8H
	DW	05ce4H
	DW	0af3H
	DW	0b102H
	DW	090d2H
	DW	0c1efH
	DW	0206dH
	DW	06736H
	DW	06287H
	DW	015ccH
	DW	0b921H
	DW	09049H
	DW	0b920H
	DW	015cbH
	DW	06286H
	DW	06737H
	DW	0206eH
	DW	0c1f0H
	DW	090d2H
	DW	0b101H
	DW	0af2H
	DW	05ce3H
	DW	06ae8H
	DW	02ac1H
	DW	0cb57H
	DW	0926eH
	DW	0a9a4H
	DW	00H
	DW	0565bH
	DW	06d92H
	DW	034aaH
	DW	0d540H
	DW	09518H
	DW	0a31cH
	DW	0f50dH
	DW	04efeH
	DW	06f2eH
	DW	03e11H
	DW	0df93H
	DW	098caH
	DW	09d79H
	DW	0ea34H
	DW	046dfH
	DW	06fb7H
	DW	046e0H
	DW	0ea35H
	DW	09d7aH
	DW	098c9H
	DW	0df92H
	DW	03e10H
	DW	06f2eH
	DW	04effH
	DW	0f50eH
	DW	0a31dH
	DW	09518H
	DW	0d53fH
	DW	034a9H
	DW	06d92H
	DW	0565cH
	DW	00H
	DW	0a9a5H
	DW	0926eH
	DW	0cb56H
	DW	02ac0H
	DW	06ae8H
	DW	05ce4H
	DW	0af3H
	DW	0b102H
	DW	090d2H
	DW	0c1efH
	DW	0206dH
	DW	06736H
	DW	06287H
	DW	015ccH
	DW	0b921H
	DW	09049H
	DW	0b920H
	DW	015cbH
	DW	06286H
	DW	06737H
	DW	0206eH
	DW	0c1f0H
	DW	090d2H
	DW	0b101H
	DW	0af2H
	DW	05ce3H
	DW	06ae8H
	DW	02ac1H
	DW	0cb57H
	DW	0926eH
	DW	0a9a4H
	DW	00H
	DW	0565bH
	DW	06d92H
	DW	034aaH
	DW	0d540H
	DW	09518H
	DW	0a31cH
	DW	0f50dH
	DW	04efeH
	DW	06f2eH
	DW	03e11H
	DW	0df93H
	DW	098caH
	DW	09d79H
	DW	0ea34H
	DW	046dfH
	DW	06fb7H
	DW	046e0H
	DW	0ea36H
	DW	09d7aH
	DW	098c9H
	DW	0df92H
	DW	03e10H
	DW	06f2eH
	DW	04effH
	DW	0f50eH
	DW	0a31dH
	DW	09518H
	DW	0d53fH
	DW	034a9H
	DW	06d92H
	DW	0565cH
_intFSK100bdCarTemplate DW 00H
	DW	0488eH
	DW	06e57H
	DW	05f41H
	DW	02285H
	DW	0d540H
	DW	09c76H
	DW	0935fH
	DW	0be56H
	DW	08c3H
	DW	04effH
	DW	06f5fH
	DW	05a61H
	DW	01a14H
	DW	0cd48H
	DW	098caH
	DW	095c0H
	DW	0c5a1H
	DW	0117aH
	DW	054f3H
	DW	06fb7H
	DW	054f3H
	DW	0117aH
	DW	0c5a1H
	DW	095c0H
	DW	098caH
	DW	0cd48H
	DW	01a14H
	DW	05a61H
	DW	06f5fH
	DW	04effH
	DW	08c3H
	DW	0be56H
	DW	0935fH
	DW	09c76H
	DW	0d540H
	DW	02285H
	DW	05f41H
	DW	06e57H
	DW	0488eH
	DW	00H
	DW	0b772H
	DW	091a9H
	DW	0a0bfH
	DW	0dd7bH
	DW	02ac0H
	DW	0638aH
	DW	06ca1H
	DW	041aaH
	DW	0f73dH
	DW	0b101H
	DW	090a1H
	DW	0a59fH
	DW	0e5ecH
	DW	032b8H
	DW	06736H
	DW	06a40H
	DW	03a5fH
	DW	0ee87H
	DW	0ab0dH
	DW	09049H
	DW	0ab0dH
	DW	0ee86H
	DW	03a5fH
	DW	06a40H
	DW	06736H
	DW	032b8H
	DW	0e5ecH
	DW	0a59fH
	DW	090a1H
	DW	0b101H
	DW	0f73cH
	DW	041aaH
	DW	06ca1H
	DW	0638aH
	DW	02ac0H
	DW	0dd7bH
	DW	0a0bfH
	DW	091a9H
	DW	0b772H
	DW	00H
	DW	0488eH
	DW	06e57H
	DW	05f41H
	DW	02285H
	DW	0d540H
	DW	09c76H
	DW	0935fH
	DW	0be56H
	DW	08c3H
	DW	04effH
	DW	06f5fH
	DW	05a61H
	DW	01a14H
	DW	0cd48H
	DW	098caH
	DW	095c0H
	DW	0c5a1H
	DW	01179H
	DW	054f3H
	DW	06fb7H
	DW	054f3H
	DW	0117aH
	DW	0c5a1H
	DW	095c0H
	DW	098caH
	DW	0cd48H
	DW	01a14H
	DW	05a61H
	DW	06f5fH
	DW	04effH
	DW	08c4H
	DW	0be56H
	DW	0935fH
	DW	09c76H
	DW	0d540H
	DW	02285H
	DW	05f41H
	DW	06e57H
	DW	0488eH
	DW	00H
	DW	04ce6H
	DW	06f90H
	DW	054f3H
	DW	0badH
	DW	0bbfeH
	DW	091a9H
	DW	0a3eeH
	DW	0e8c6H
	DW	03a5fH
	DW	06be9H
	DW	0622eH
	DW	02285H
	DW	0cfe8H
	DW	097b4H
	DW	098caH
	DW	0d290H
	DW	0254aH
	DW	0638aH
	DW	06b1eH
	DW	037dbH
	DW	0e5ecH
	DW	0a24fH
	DW	09227H
	DW	0be56H
	DW	0e95H
	DW	056d2H
	DW	06f5fH
	DW	04ac1H
	DW	0fd14H
	DW	0b101H
	DW	09052H
	DW	0acfbH
	DW	0f73dH
	DW	0464eH
	DW	06ec3H
	DW	05a61H
	DW	0145bH
	DW	0c328H
	DW	0935fH
	DW	09f40H
	DW	0e046H
	DW	032b8H
	DW	0694fH
	DW	0660fH
	DW	02ac0H
	DW	0d7f7H
	DW	09b2bH
	DW	095c0H
	DW	0cab2H
	DW	01ceaH
	DW	05f41H
	DW	06d46H
	DW	03f47H
	DW	0ee86H
	DW	0a75fH
	DW	090e5H
	DW	0b772H
	DW	05d8H
	DW	05109H
	DW	06fb7H
	DW	05109H
	DW	05d8H
	DW	0b772H
	DW	090e5H
	DW	0a75fH
	DW	0ee87H
	DW	03f47H
	DW	06d47H
	DW	05f41H
	DW	01ceaH
	DW	0cab2H
	DW	095c0H
	DW	09b2bH
	DW	0d7f7H
	DW	02ac0H
	DW	0660fH
	DW	0694fH
	DW	032b7H
	DW	0e046H
	DW	09f40H
	DW	0935fH
	DW	0c328H
	DW	0145cH
	DW	05a62H
	DW	06ec3H
	DW	0464eH
	DW	0f73cH
	DW	0acfaH
	DW	09052H
	DW	0b101H
	DW	0fd14H
	DW	04ac1H
	DW	06f5fH
	DW	056d2H
	DW	0e94H
	DW	0be56H
	DW	09227H
	DW	0a24fH
	DW	0e5ecH
	DW	037dcH
	DW	06b1eH
	DW	0638aH
	DW	0254aH
	DW	0d290H
	DW	098c9H
	DW	097b4H
	DW	0cfe8H
	DW	02286H
	DW	0622eH
	DW	06be9H
	DW	03a5fH
	DW	0e8c6H
	DW	0a3eeH
	DW	091a9H
	DW	0bbfeH
	DW	0badH
	DW	054f3H
	DW	06f90H
	DW	04ce6H
	DW	00H
	DW	05109H
	DW	06f90H
	DW	0488eH
	DW	0f453H
	DW	0a75fH
	DW	091a9H
	DW	0c0b9H
	DW	0173aH
	DW	05f41H
	DW	06be9H
	DW	0354eH
	DW	0dd7bH
	DW	09b2bH
	DW	097b4H
	DW	0d540H
	DW	02d70H
	DW	0694fH
	DW	0638aH
	DW	01fbaH
	DW	0c825H
	DW	0935fH
	DW	0a24eH
	DW	0eba4H
	DW	041aaH
	DW	06ec3H
	DW	056d2H
	DW	08c4H
	DW	0b53fH
	DW	09052H
	DW	0b101H
	DW	02ecH
	DW	05305H
	DW	06f5fH
	DW	0464eH
	DW	0f16cH
	DW	0a59fH
	DW	09227H
	DW	0c328H
	DW	01a14H
	DW	060c0H
	DW	06b1eH
	DW	032b8H
	DW	0dab6H
	DW	099f1H
	DW	098c9H
	DW	0d7f7H
	DW	03018H
	DW	06a40H
	DW	0622eH
	DW	01ceaH
	DW	0c5a1H
	DW	092baH
	DW	0a3eeH
	DW	0ee86H
	DW	04402H
	DW	06f1bH
	DW	054f3H
	DW	05d8H
	DW	0b31aH
	DW	09049H
	DW	0b319H
	DW	05d8H
	DW	054f3H
	DW	06f1bH
	DW	04402H
	DW	0ee87H
	DW	0a3efH
	DW	092b9H
	DW	0c5a1H
	DW	01ceaH
	DW	0622eH
	DW	06a40H
	DW	03018H
	DW	0d7f7H
	DW	098caH
	DW	099f1H
	DW	0dab5H
	DW	032b7H
	DW	06b1eH
	DW	060c0H
	DW	01a14H
	DW	0c328H
	DW	09227H
	DW	0a59eH
	DW	0f16bH
	DW	0464eH
	DW	06f5fH
	DW	05306H
	DW	02ecH
	DW	0b101H
	DW	09052H
	DW	0b53fH
	DW	08c3H
	DW	056d2H
	DW	06ec3H
	DW	041aaH
	DW	0eba5H
	DW	0a24fH
	DW	0935fH
	DW	0c824H
	DW	01fbaH
	DW	0638aH
	DW	0694fH
	DW	02d70H
	DW	0d540H
	DW	097b4H
	DW	09b2aH
	DW	0dd7aH
	DW	0354eH
	DW	06be9H
	DW	05f41H
	DW	0173aH
	DW	0c0baH
	DW	091a9H
	DW	0a75eH
	DW	0f453H
	DW	0488eH
	DW	06f90H
	DW	05109H
	DW	00H
	DW	054f3H
	DW	06e57H
	DW	03a5fH
	DW	0dd7bH
	DW	098caH
	DW	09c76H
	DW	0e5ecH
	DW	041aaH
	DW	06f5fH
	DW	04effH
	DW	0f73dH
	DW	0a59fH
	DW	0935fH
	DW	0cd48H
	DW	02ac0H
	DW	06a40H
	DW	05f41H
	DW	0117aH
	DW	0b772H
	DW	09049H
	DW	0b772H
	DW	0117aH
	DW	05f41H
	DW	06a40H
	DW	02ac0H
	DW	0cd48H
	DW	0935fH
	DW	0a59fH
	DW	0f73dH
	DW	04effH
	DW	06f5fH
	DW	041aaH
	DW	0e5ecH
	DW	09c76H
	DW	098caH
	DW	0dd7bH
	DW	03a5fH
	DW	06e57H
	DW	054f3H
	DW	00H
	DW	0ab0dH
	DW	091a9H
	DW	0c5a1H
	DW	02285H
	DW	06736H
	DW	0638aH
	DW	01a14H
	DW	0be56H
	DW	090a1H
	DW	0b101H
	DW	08c3H
	DW	05a61H
	DW	06ca1H
	DW	032b8H
	DW	0d540H
	DW	095c0H
	DW	0a0bfH
	DW	0ee86H
	DW	0488eH
	DW	06fb7H
	DW	0488eH
	DW	0ee86H
	DW	0a0bfH
	DW	095c0H
	DW	0d540H
	DW	032b8H
	DW	06ca1H
	DW	05a61H
	DW	08c3H
	DW	0b101H
	DW	090a1H
	DW	0be56H
	DW	01a14H
	DW	0638aH
	DW	06736H
	DW	02285H
	DW	0c5a1H
	DW	091a9H
	DW	0ab0dH
	DW	00H
	DW	054f3H
	DW	06e57H
	DW	03a5fH
	DW	0dd7bH
	DW	098caH
	DW	09c76H
	DW	0e5ecH
	DW	041aaH
	DW	06f5fH
	DW	04effH
	DW	0f73dH
	DW	0a59fH
	DW	0935fH
	DW	0cd48H
	DW	02ac0H
	DW	06a40H
	DW	05f41H
	DW	01179H
	DW	0b772H
	DW	09049H
	DW	0b772H
	DW	0117aH
	DW	05f41H
	DW	06a40H
	DW	02ac0H
	DW	0cd48H
	DW	0935fH
	DW	0a59fH
	DW	0f73dH
	DW	04effH
	DW	06f5fH
	DW	041aaH
	DW	0e5ecH
	DW	09c76H
	DW	098caH
	DW	0dd7bH
	DW	03a5fH
	DW	06e57H
	DW	054f3H
	DW	00H
	DW	02285H
	DW	041aaH
	DW	05a61H
	DW	06a40H
	DW	06fb7H
	DW	06a40H
	DW	05a61H
	DW	041aaH
	DW	02285H
	DW	00H
	DW	0dd7bH
	DW	0be56H
	DW	0a59fH
	DW	095c0H
	DW	09049H
	DW	095c0H
	DW	0a59fH
	DW	0be56H
	DW	0dd7bH
	DW	00H
	DW	02285H
	DW	041aaH
	DW	05a61H
	DW	06a40H
	DW	06fb7H
	DW	06a40H
	DW	05a61H
	DW	041aaH
	DW	02285H
	DW	00H
	DW	0dd7bH
	DW	0be56H
	DW	0a59fH
	DW	095c0H
	DW	09048H
	DW	095c0H
	DW	0a59fH
	DW	0be56H
	DW	0dd7bH
	DW	00H
	DW	02285H
	DW	041aaH
	DW	05a61H
	DW	06a40H
	DW	06fb7H
	DW	06a40H
	DW	05a61H
	DW	041aaH
	DW	02285H
	DW	00H
	DW	0dd7bH
	DW	0be56H
	DW	0a59fH
	DW	095c0H
	DW	09049H
	DW	095c0H
	DW	0a59fH
	DW	0be56H
	DW	0dd7bH
	DW	00H
	DW	02285H
	DW	041aaH
	DW	05a61H
	DW	06a40H
	DW	06fb7H
	DW	06a40H
	DW	05a61H
	DW	041aaH
	DW	02285H
	DW	00H
	DW	0dd7bH
	DW	0be56H
	DW	0a59fH
	DW	095c0H
	DW	09049H
	DW	095c0H
	DW	0a59fH
	DW	0be56H
	DW	0dd7bH
	DW	00H
	DW	02285H
	DW	041aaH
	DW	05a61H
	DW	06a40H
	DW	06fb7H
	DW	06a40H
	DW	05a61H
	DW	041aaH
	DW	02285H
	DW	00H
	DW	0dd7bH
	DW	0be56H
	DW	0a59fH
	DW	095c0H
	DW	09049H
	DW	095c0H
	DW	0a59fH
	DW	0be56H
	DW	0dd7bH
	DW	00H
	DW	02286H
	DW	041aaH
	DW	05a61H
	DW	06a40H
	DW	06fb7H
	DW	06a40H
	DW	05a61H
	DW	041aaH
	DW	02285H
	DW	00H
	DW	0dd7bH
	DW	0be56H
	DW	0a59fH
	DW	095c0H
	DW	09049H
	DW	095c0H
	DW	0a59fH
	DW	0be56H
	DW	0dd7bH
	DW	00H
	DW	02809H
	DW	04ac1H
	DW	0638aH
	DW	06f1bH
	DW	06be9H
	DW	05a61H
	DW	03cd8H
	DW	0173aH
	DW	0ee87H
	DW	0c825H
	DW	0a92eH
	DW	095c0H
	DW	09070H
	DW	099f1H
	DW	0b101H
	DW	0d290H
	DW	0fa28H
	DW	02285H
	DW	0464eH
	DW	060c0H
	DW	06e57H
	DW	06d47H
	DW	05db2H
	DW	041aaH
	DW	01ceaH
	DW	0f453H
	DW	0cd48H
	DW	0acfbH
	DW	097b4H
	DW	09049H
	DW	097b4H
	DW	0acfaH
	DW	0cd48H
	DW	0f453H
	DW	01ceaH
	DW	041aaH
	DW	05db1H
	DW	06d47H
	DW	06e57H
	DW	060c0H
	DW	0464eH
	DW	02285H
	DW	0fa28H
	DW	0d290H
	DW	0b101H
	DW	099f1H
	DW	09070H
	DW	095c0H
	DW	0a92eH
	DW	0c824H
	DW	0ee86H
	DW	0173aH
	DW	03cd8H
	DW	05a61H
	DW	06be9H
	DW	06f1bH
	DW	0638aH
	DW	04ac1H
	DW	02809H
	DW	00H
	DW	0d7f7H
	DW	0b53fH
	DW	09c76H
	DW	090e5H
	DW	09417H
	DW	0a59fH
	DW	0c328H
	DW	0e8c6H
	DW	01179H
	DW	037dbH
	DW	056d2H
	DW	06a40H
	DW	06f90H
	DW	0660fH
	DW	04effH
	DW	02d70H
	DW	05d8H
	DW	0dd7bH
	DW	0b9b2H
	DW	09f40H
	DW	091a9H
	DW	092b9H
	DW	0a24eH
	DW	0be56H
	DW	0e316H
	DW	0badH
	DW	032b7H
	DW	05305H
	DW	0684cH
	DW	06fb7H
	DW	0684cH
	DW	05306H
	DW	032b8H
	DW	0badH
	DW	0e316H
	DW	0be56H
	DW	0a24fH
	DW	092baH
	DW	091a9H
	DW	09f40H
	DW	0b9b2H
	DW	0dd7aH
	DW	05d8H
	DW	02d70H
	DW	04effH
	DW	0660fH
	DW	06f90H
	DW	06a40H
	DW	056d2H
	DW	037dcH
	DW	0117aH
	DW	0e8c6H
	DW	0c328H
	DW	0a59fH
	DW	09417H
	DW	090e5H
	DW	09c76H
	DW	0b53fH
	DW	0d7f7H
	DW	00H
	DW	02d70H
	DW	05305H
	DW	06a40H
	DW	06f1bH
	DW	060c0H
	DW	041aaH
	DW	0173aH
	DW	0e8c6H
	DW	0be56H
	DW	09f40H
	DW	090e5H
	DW	095c0H
	DW	0acfbH
	DW	0d290H
	DW	00H
	DW	02d70H
	DW	05305H
	DW	06a40H
	DW	06f1bH
	DW	060c0H
	DW	041aaH
	DW	0173aH
	DW	0e8c6H
	DW	0be56H
	DW	09f40H
	DW	090e5H
	DW	095c0H
	DW	0acfbH
	DW	0d290H
	DW	00H
	DW	02d70H
	DW	05305H
	DW	06a40H
	DW	06f1bH
	DW	060c0H
	DW	041aaH
	DW	0173aH
	DW	0e8c6H
	DW	0be56H
	DW	09f40H
	DW	090e5H
	DW	095c0H
	DW	0acfbH
	DW	0d290H
	DW	00H
	DW	02d70H
	DW	05305H
	DW	06a40H
	DW	06f1bH
	DW	060c0H
	DW	041aaH
	DW	0173aH
	DW	0e8c6H
	DW	0be56H
	DW	09f40H
	DW	090e5H
	DW	095c0H
	DW	0acfbH
	DW	0d290H
	DW	00H
	DW	02d70H
	DW	05306H
	DW	06a40H
	DW	06f1bH
	DW	060c0H
	DW	041aaH
	DW	0173aH
	DW	0e8c6H
	DW	0be56H
	DW	09f40H
	DW	090e5H
	DW	095c0H
	DW	0acfbH
	DW	0d290H
	DW	00H
	DW	02d70H
	DW	05306H
	DW	06a40H
	DW	06f1bH
	DW	060c0H
	DW	041aaH
	DW	0173aH
	DW	0e8c6H
	DW	0be56H
	DW	09f40H
	DW	090e5H
	DW	095c0H
	DW	0acfbH
	DW	0d290H
	DW	00H
	DW	02d70H
	DW	05306H
	DW	06a40H
	DW	06f1bH
	DW	060c0H
	DW	041aaH
	DW	0173aH
	DW	0e8c6H
	DW	0be56H
	DW	09f40H
	DW	090e5H
	DW	095c0H
	DW	0acfbH
	DW	0d290H
	DW	00H
	DW	02d70H
	DW	05306H
	DW	06a40H
	DW	06f1bH
	DW	060c0H
	DW	041aaH
	DW	0173aH
	DW	0e8c6H
	DW	0be56H
	DW	09f40H
	DW	090e5H
	DW	095c0H
	DW	0acfbH
	DW	0d290H
	DW	00H
	DW	032b8H
	DW	05a61H
	DW	06e57H
	DW	06a40H
	DW	04effH
	DW	02285H
	DW	0ee86H
	DW	0be56H
	DW	09c76H
	DW	09049H
	DW	09c76H
	DW	0be56H
	DW	0ee86H
	DW	02285H
	DW	04effH
	DW	06a40H
	DW	06e57H
	DW	05a61H
	DW	032b8H
	DW	00H
	DW	0cd48H
	DW	0a59fH
	DW	091a9H
	DW	095c0H
	DW	0b101H
	DW	0dd7bH
	DW	01179H
	DW	041aaH
	DW	0638aH
	DW	06fb7H
	DW	0638aH
	DW	041aaH
	DW	0117aH
	DW	0dd7bH
	DW	0b101H
	DW	095c0H
	DW	091a9H
	DW	0a59fH
	DW	0cd48H
	DW	00H
	DW	032b8H
	DW	05a61H
	DW	06e57H
	DW	06a40H
	DW	04effH
	DW	02285H
	DW	0ee87H
	DW	0be56H
	DW	09c76H
	DW	09049H
	DW	09c76H
	DW	0be56H
	DW	0ee86H
	DW	02285H
	DW	04effH
	DW	06a40H
	DW	06e57H
	DW	05a61H
	DW	032b8H
	DW	00H
	DW	0cd48H
	DW	0a59fH
	DW	091a9H
	DW	095c0H
	DW	0b101H
	DW	0dd7aH
	DW	01179H
	DW	041aaH
	DW	0638aH
	DW	06fb7H
	DW	0638aH
	DW	041aaH
	DW	0117aH
	DW	0dd7bH
	DW	0b101H
	DW	095c0H
	DW	091a9H
	DW	0a59fH
	DW	0cd48H
	DW	00H
	DW	032b7H
	DW	05a61H
	DW	06e57H
	DW	06a40H
	DW	04effH
	DW	02286H
	DW	0ee87H
	DW	0be56H
	DW	09c76H
	DW	09049H
	DW	09c76H
	DW	0be56H
	DW	0ee86H
	DW	02285H
	DW	04effH
	DW	06a40H
	DW	06e57H
	DW	05a62H
	DW	032b8H
	DW	00H
	DW	0cd49H
	DW	0a59fH
	DW	091a9H
	DW	095c0H
	DW	0b101H
	DW	0dd7aH
	DW	01179H
	DW	041aaH
	DW	0638aH
	DW	06fb7H
	DW	0638aH
	DW	041aaH
	DW	0117aH
	DW	0dd7bH
	DW	0b101H
	DW	095c0H
	DW	091a9H
	DW	0a59eH
	DW	0cd48H
	DW	00H
	DW	03cd8H
	DW	0660fH
	DW	06e57H
	DW	05305H
	DW	01ceaH
	DW	0dd7bH
	DW	0a92eH
	DW	090e5H
	DW	09c76H
	DW	0c824H
	DW	05d8H
	DW	041aaH
	DW	0684cH
	DW	06d47H
	DW	04effH
	DW	0173aH
	DW	0d7f7H
	DW	0a59fH
	DW	09070H
	DW	09f40H
	DW	0cd48H
	DW	0badH
	DW	0464eH
	DW	06a40H
	DW	06be9H
	DW	04ac1H
	DW	0117aH
	DW	0d290H
	DW	0a24fH
	DW	09049H
	DW	0a24fH
	DW	0d290H
	DW	0117aH
	DW	04ac1H
	DW	06be9H
	DW	06a40H
	DW	0464eH
	DW	0badH
	DW	0cd48H
	DW	09f40H
	DW	09070H
	DW	0a59fH
	DW	0d7f7H
	DW	0173aH
	DW	04effH
	DW	06d47H
	DW	0684cH
	DW	041aaH
	DW	05d8H
	DW	0c824H
	DW	09c76H
	DW	090e5H
	DW	0a92eH
	DW	0dd7bH
	DW	01ceaH
	DW	05306H
	DW	06e57H
	DW	0660fH
	DW	03cd8H
	DW	00H
	DW	0c328H
	DW	099f1H
	DW	091a9H
	DW	0acfbH
	DW	0e316H
	DW	02285H
	DW	056d2H
	DW	06f1bH
	DW	0638aH
	DW	037dbH
	DW	0fa28H
	DW	0be56H
	DW	097b4H
	DW	092b9H
	DW	0b101H
	DW	0e8c6H
	DW	02809H
	DW	05a61H
	DW	06f90H
	DW	060c0H
	DW	032b8H
	DW	0f453H
	DW	0b9b2H
	DW	095c0H
	DW	09417H
	DW	0b53fH
	DW	0ee87H
	DW	02d70H
	DW	05db2H
	DW	06fb7H
	DW	05db1H
	DW	02d70H
	DW	0ee86H
	DW	0b53fH
	DW	09417H
	DW	095c0H
	DW	0b9b2H
	DW	0f453H
	DW	032b8H
	DW	060c0H
	DW	06f90H
	DW	05a61H
	DW	02809H
	DW	0e8c6H
	DW	0b101H
	DW	092b9H
	DW	097b4H
	DW	0be56H
	DW	0fa28H
	DW	037dcH
	DW	0638aH
	DW	06f1bH
	DW	056d2H
	DW	02285H
	DW	0e316H
	DW	0acfaH
	DW	091a9H
	DW	099f1H
	DW	0c328H
	DW	00H
	DW	041aaH
	DW	06a40H
	DW	06a40H
	DW	041aaH
	DW	00H
	DW	0be56H
	DW	095c0H
	DW	095c0H
	DW	0be56H
	DW	00H
	DW	041aaH
	DW	06a40H
	DW	06a40H
	DW	041aaH
	DW	00H
	DW	0be56H
	DW	095c0H
	DW	095c0H
	DW	0be56H
	DW	00H
	DW	041aaH
	DW	06a40H
	DW	06a40H
	DW	041aaH
	DW	00H
	DW	0be56H
	DW	095c0H
	DW	095c0H
	DW	0be56H
	DW	00H
	DW	041aaH
	DW	06a40H
	DW	06a40H
	DW	041aaH
	DW	00H
	DW	0be56H
	DW	095c0H
	DW	095c0H
	DW	0be56H
	DW	00H
	DW	041aaH
	DW	06a40H
	DW	06a40H
	DW	041aaH
	DW	00H
	DW	0be56H
	DW	095c0H
	DW	095c0H
	DW	0be56H
	DW	00H
	DW	041aaH
	DW	06a40H
	DW	06a40H
	DW	041aaH
	DW	00H
	DW	0be56H
	DW	095c0H
	DW	095c0H
	DW	0be56H
	DW	00H
	DW	041aaH
	DW	06a40H
	DW	06a40H
	DW	041aaH
	DW	00H
	DW	0be56H
	DW	095c0H
	DW	095c0H
	DW	0be56H
	DW	00H
	DW	041aaH
	DW	06a40H
	DW	06a40H
	DW	041aaH
	DW	00H
	DW	0be56H
	DW	095c0H
	DW	095c0H
	DW	0be56H
	DW	00H
	DW	041aaH
	DW	06a40H
	DW	06a40H
	DW	041aaH
	DW	00H
	DW	0be56H
	DW	095c0H
	DW	095c0H
	DW	0be56H
	DW	00H
	DW	041aaH
	DW	06a40H
	DW	06a40H
	DW	041aaH
	DW	00H
	DW	0be56H
	DW	095c0H
	DW	095c0H
	DW	0be56H
	DW	00H
	DW	041aaH
	DW	06a40H
	DW	06a40H
	DW	041aaH
	DW	00H
	DW	0be56H
	DW	095c0H
	DW	095c0H
	DW	0be56H
	DW	00H
	DW	041aaH
	DW	06a40H
	DW	06a40H
	DW	041aaH
	DW	00H
	DW	0be56H
	DW	095c0H
	DW	095c0H
	DW	0be56H
	DW	00H
	DW	0464eH
	DW	06d47H
	DW	0638aH
	DW	02d70H
	DW	0e316H
	DW	0a59fH
	DW	09070H
	DW	0acfbH
	DW	0ee86H
	DW	037dcH
	DW	0684cH
	DW	06a40H
	DW	03cd8H
	DW	0f453H
	DW	0b101H
	DW	090e5H
	DW	0a24fH
	DW	0dd7bH
	DW	02809H
	DW	060c0H
	DW	06e57H
	DW	04ac1H
	DW	05d8H
	DW	0be56H
	DW	09417H
	DW	099f1H
	DW	0cd48H
	DW	0173aH
	DW	056d2H
	DW	06fb7H
	DW	056d2H
	DW	0173aH
	DW	0cd48H
	DW	099f1H
	DW	09417H
	DW	0be56H
	DW	05d8H
	DW	04ac1H
	DW	06e57H
	DW	060c0H
	DW	02809H
	DW	0dd7bH
	DW	0a24fH
	DW	090e5H
	DW	0b101H
	DW	0f453H
	DW	03cd8H
	DW	06a40H
	DW	0684cH
	DW	037dbH
	DW	0ee86H
	DW	0acfbH
	DW	09070H
	DW	0a59fH
	DW	0e316H
	DW	02d70H
	DW	0638aH
	DW	06d47H
	DW	0464eH
	DW	00H
	DW	0b9b2H
	DW	092b9H
	DW	09c76H
	DW	0d290H
	DW	01ceaH
	DW	05a61H
	DW	06f90H
	DW	05305H
	DW	01179H
	DW	0c824H
	DW	097b4H
	DW	095c0H
	DW	0c328H
	DW	0badH
	DW	04effH
	DW	06f1bH
	DW	05db1H
	DW	02285H
	DW	0d7f7H
	DW	09f40H
	DW	091a9H
	DW	0b53fH
	DW	0fa28H
	DW	041aaH
	DW	06be9H
	DW	0660fH
	DW	032b8H
	DW	0e8c6H
	DW	0a92eH
	DW	09049H
	DW	0a92eH
	DW	0e8c6H
	DW	032b8H
	DW	0660fH
	DW	06be9H
	DW	041aaH
	DW	0fa28H
	DW	0b53fH
	DW	091a9H
	DW	09f40H
	DW	0d7f7H
	DW	02286H
	DW	05db2H
	DW	06f1bH
	DW	04effH
	DW	0badH
	DW	0c328H
	DW	095c0H
	DW	097b4H
	DW	0c825H
	DW	0117aH
	DW	05306H
	DW	06f90H
	DW	05a61H
	DW	01ceaH
	DW	0d290H
	DW	09c76H
	DW	092baH
	DW	0b9b2H
	DW	00H
	DW	04ac1H
	DW	06f1bH
	DW	05a61H
	DW	0173aH
	DW	0c825H
	DW	095c0H
	DW	099f1H
	DW	0d290H
	DW	02285H
	DW	060c0H
	DW	06d47H
	DW	041aaH
	DW	0f453H
	DW	0acfbH
	DW	09049H
	DW	0acfbH
	DW	0f453H
	DW	041aaH
	DW	06d47H
	DW	060c0H
	DW	02285H
	DW	0d290H
	DW	099f1H
	DW	095c0H
	DW	0c824H
	DW	0173aH
	DW	05a61H
	DW	06f1bH
	DW	04ac1H
	DW	00H
	DW	0b53fH
	DW	090e5H
	DW	0a59fH
	DW	0e8c6H
	DW	037dbH
	DW	06a40H
	DW	0660fH
	DW	02d70H
	DW	0dd7bH
	DW	09f40H
	DW	092b9H
	DW	0be56H
	DW	0badH
	DW	05305H
	DW	06fb7H
	DW	05306H
	DW	0badH
	DW	0be56H
	DW	092baH
	DW	09f40H
	DW	0dd7aH
	DW	02d70H
	DW	0660fH
	DW	06a40H
	DW	037dcH
	DW	0e8c6H
	DW	0a59fH
	DW	090e5H
	DW	0b53fH
	DW	00H
	DW	04ac1H
	DW	06f1bH
	DW	05a61H
	DW	0173aH
	DW	0c825H
	DW	095c0H
	DW	099f1H
	DW	0d290H
	DW	02285H
	DW	060c0H
	DW	06d47H
	DW	041aaH
	DW	0f453H
	DW	0acfbH
	DW	09049H
	DW	0acfaH
	DW	0f453H
	DW	041aaH
	DW	06d46H
	DW	060c0H
	DW	02286H
	DW	0d290H
	DW	099f1H
	DW	095c0H
	DW	0c824H
	DW	0173aH
	DW	05a61H
	DW	06f1bH
	DW	04ac1H
	DW	00H
	DW	0b540H
	DW	090e5H
	DW	0a59eH
	DW	0e8c6H
	DW	037dbH
	DW	06a40H
	DW	0660fH
	DW	02d70H
	DW	0dd7bH
	DW	09f40H
	DW	092b9H
	DW	0be56H
	DW	0badH
	DW	05305H
	DW	06fb7H
	DW	05306H
	DW	0badH
	DW	0be56H
	DW	092baH
	DW	09f40H
	DW	0dd7aH
	DW	02d70H
	DW	0660fH
	DW	06a40H
	DW	037dcH
	DW	0e8c6H
	DW	0a59fH
	DW	090e5H
	DW	0b53fH
	DW	00H
	DW	05305H
	DW	06f1bH
	DW	041aaH
	DW	0e8c6H
	DW	09f40H
	DW	095c0H
	DW	0d290H
	DW	02d70H
	DW	06a40H
	DW	060c0H
	DW	0173aH
	DW	0be56H
	DW	090e5H
	DW	0acfbH
	DW	00H
	DW	05305H
	DW	06f1bH
	DW	041aaH
	DW	0e8c6H
	DW	09f40H
	DW	095c0H
	DW	0d290H
	DW	02d70H
	DW	06a40H
	DW	060c0H
	DW	0173aH
	DW	0be56H
	DW	090e5H
	DW	0acfbH
	DW	00H
	DW	05305H
	DW	06f1bH
	DW	041aaH
	DW	0e8c6H
	DW	09f40H
	DW	095c0H
	DW	0d290H
	DW	02d70H
	DW	06a40H
	DW	060c0H
	DW	0173aH
	DW	0be56H
	DW	090e5H
	DW	0acfbH
	DW	00H
	DW	05305H
	DW	06f1bH
	DW	041aaH
	DW	0e8c6H
	DW	09f40H
	DW	095c0H
	DW	0d290H
	DW	02d70H
	DW	06a40H
	DW	060c0H
	DW	0173aH
	DW	0be56H
	DW	090e5H
	DW	0acfbH
	DW	00H
	DW	05306H
	DW	06f1bH
	DW	041aaH
	DW	0e8c6H
	DW	09f40H
	DW	095c0H
	DW	0d290H
	DW	02d70H
	DW	06a40H
	DW	060c0H
	DW	0173aH
	DW	0be56H
	DW	090e5H
	DW	0acfbH
	DW	00H
	DW	05306H
	DW	06f1bH
	DW	041aaH
	DW	0e8c6H
	DW	09f40H
	DW	095c0H
	DW	0d290H
	DW	02d70H
	DW	06a40H
	DW	060c0H
	DW	0173aH
	DW	0be56H
	DW	090e5H
	DW	0acfbH
	DW	00H
	DW	05306H
	DW	06f1bH
	DW	041aaH
	DW	0e8c6H
	DW	09f40H
	DW	095c0H
	DW	0d290H
	DW	02d70H
	DW	06a40H
	DW	060c0H
	DW	0173aH
	DW	0be56H
	DW	090e5H
	DW	0acfbH
	DW	00H
	DW	05306H
	DW	06f1bH
	DW	041aaH
	DW	0e8c6H
	DW	09f40H
	DW	095c0H
	DW	0d290H
	DW	02d70H
	DW	06a40H
	DW	060c0H
	DW	0173aH
	DW	0be56H
	DW	090e5H
	DW	0acfbH
	DW	00H
	DW	056d2H
	DW	06d47H
	DW	032b8H
	DW	0d290H
	DW	09417H
	DW	0a59fH
	DW	0fa28H
	DW	05305H
	DW	06e57H
	DW	037dcH
	DW	0d7f7H
	DW	095c0H
	DW	0a24fH
	DW	0f453H
	DW	04effH
	DW	06f1bH
	DW	03cd8H
	DW	0dd7bH
	DW	097b4H
	DW	09f40H
	DW	0ee86H
	DW	04ac1H
	DW	06f90H
	DW	041aaH
	DW	0e316H
	DW	099f1H
	DW	09c76H
	DW	0e8c6H
	DW	0464eH
	DW	06fb7H
	DW	0464eH
	DW	0e8c6H
	DW	09c76H
	DW	099f1H
	DW	0e316H
	DW	041aaH
	DW	06f90H
	DW	04ac1H
	DW	0ee87H
	DW	09f40H
	DW	097b4H
	DW	0dd7bH
	DW	03cd8H
	DW	06f1bH
	DW	04effH
	DW	0f453H
	DW	0a24fH
	DW	095c0H
	DW	0d7f7H
	DW	037dbH
	DW	06e57H
	DW	05305H
	DW	0fa28H
	DW	0a59fH
	DW	09417H
	DW	0d290H
	DW	032b8H
	DW	06d47H
	DW	056d2H
	DW	00H
	DW	0a92eH
	DW	092b9H
	DW	0cd48H
	DW	02d70H
	DW	06be9H
	DW	05a61H
	DW	05d8H
	DW	0acfbH
	DW	091a9H
	DW	0c824H
	DW	02809H
	DW	06a40H
	DW	05db2H
	DW	0badH
	DW	0b101H
	DW	090e5H
	DW	0c328H
	DW	02285H
	DW	0684cH
	DW	060c0H
	DW	0117aH
	DW	0b53fH
	DW	09070H
	DW	0be56H
	DW	01ceaH
	DW	0660fH
	DW	0638aH
	DW	0173aH
	DW	0b9b2H
	DW	09049H
	DW	0b9b2H
	DW	0173aH
	DW	0638aH
	DW	0660fH
	DW	01ceaH
	DW	0be56H
	DW	09070H
	DW	0b53fH
	DW	01179H
	DW	060c0H
	DW	0684cH
	DW	02285H
	DW	0c328H
	DW	090e5H
	DW	0b101H
	DW	0badH
	DW	05db1H
	DW	06a40H
	DW	02809H
	DW	0c825H
	DW	091a9H
	DW	0acfaH
	DW	05d8H
	DW	05a61H
	DW	06be9H
	DW	02d70H
	DW	0cd48H
	DW	092baH
	DW	0a92eH
	DW	00H
	DW	05a61H
	DW	06a40H
	DW	02285H
	DW	0be56H
	DW	09049H
	DW	0be56H
	DW	02285H
	DW	06a40H
	DW	05a61H
	DW	00H
	DW	0a59fH
	DW	095c0H
	DW	0dd7bH
	DW	041aaH
	DW	06fb7H
	DW	041aaH
	DW	0dd7bH
	DW	095c0H
	DW	0a59fH
	DW	00H
	DW	05a61H
	DW	06a40H
	DW	02285H
	DW	0be56H
	DW	09049H
	DW	0be56H
	DW	02285H
	DW	06a40H
	DW	05a61H
	DW	00H
	DW	0a59fH
	DW	095c0H
	DW	0dd7bH
	DW	041aaH
	DW	06fb7H
	DW	041aaH
	DW	0dd7bH
	DW	095c0H
	DW	0a59fH
	DW	00H
	DW	05a61H
	DW	06a40H
	DW	02285H
	DW	0be56H
	DW	09048H
	DW	0be56H
	DW	02285H
	DW	06a40H
	DW	05a61H
	DW	00H
	DW	0a59fH
	DW	095c0H
	DW	0dd7bH
	DW	041aaH
	DW	06fb7H
	DW	041aaH
	DW	0dd7bH
	DW	095c0H
	DW	0a59fH
	DW	00H
	DW	05a61H
	DW	06a40H
	DW	02285H
	DW	0be56H
	DW	09049H
	DW	0be56H
	DW	02285H
	DW	06a40H
	DW	05a61H
	DW	00H
	DW	0a59fH
	DW	095c0H
	DW	0dd7bH
	DW	041aaH
	DW	06fb7H
	DW	041aaH
	DW	0dd7bH
	DW	095c0H
	DW	0a59fH
	DW	00H
	DW	05a61H
	DW	06a40H
	DW	02285H
	DW	0be56H
	DW	09049H
	DW	0be56H
	DW	02285H
	DW	06a40H
	DW	05a61H
	DW	00H
	DW	0a59fH
	DW	095c0H
	DW	0dd7bH
	DW	041aaH
	DW	06fb7H
	DW	041aaH
	DW	0dd7bH
	DW	095c0H
	DW	0a59fH
	DW	00H
	DW	05a61H
	DW	06a40H
	DW	02285H
	DW	0be56H
	DW	09049H
	DW	0be56H
	DW	02285H
	DW	06a40H
	DW	05a61H
	DW	00H
	DW	0a59fH
	DW	095c0H
	DW	0dd7bH
	DW	041aaH
	DW	06fb7H
	DW	041aaH
	DW	0dd7bH
	DW	095c0H
	DW	0a59fH
	DW	00H
	DW	05db1H
	DW	0660fH
	DW	0117aH
	DW	0acfbH
	DW	09417H
	DW	0dd7bH
	DW	0464eH
	DW	06f1bH
	DW	032b8H
	DW	0c825H
	DW	09070H
	DW	0be56H
	DW	02809H
	DW	06d47H
	DW	04effH
	DW	0e8c6H
	DW	097b4H
	DW	0a59fH
	DW	05d8H
	DW	060c0H
	DW	0638aH
	DW	0badH
	DW	0a92eH
	DW	095c0H
	DW	0e316H
	DW	04ac1H
	DW	06e57H
	DW	02d70H
	DW	0c328H
	DW	09049H
	DW	0c328H
	DW	02d70H
	DW	06e57H
	DW	04ac1H
	DW	0e316H
	DW	095c0H
	DW	0a92eH
	DW	0badH
	DW	0638aH
	DW	060c0H
	DW	05d8H
	DW	0a59fH
	DW	097b4H
	DW	0e8c6H
	DW	04effH
	DW	06d47H
	DW	02809H
	DW	0be56H
	DW	09070H
	DW	0c824H
	DW	032b8H
	DW	06f1bH
	DW	0464eH
	DW	0dd7bH
	DW	09417H
	DW	0acfaH
	DW	01179H
	DW	0660fH
	DW	05db2H
	DW	00H
	DW	0a24fH
	DW	099f1H
	DW	0ee86H
	DW	05305H
	DW	06be9H
	DW	02285H
	DW	0b9b2H
	DW	090e5H
	DW	0cd48H
	DW	037dbH
	DW	06f90H
	DW	041aaH
	DW	0d7f7H
	DW	092b9H
	DW	0b101H
	DW	0173aH
	DW	0684cH
	DW	05a61H
	DW	0fa28H
	DW	09f40H
	DW	09c76H
	DW	0f453H
	DW	056d2H
	DW	06a40H
	DW	01ceaH
	DW	0b53fH
	DW	091a9H
	DW	0d290H
	DW	03cd8H
	DW	06fb7H
	DW	03cd8H
	DW	0d290H
	DW	091a9H
	DW	0b53fH
	DW	01ceaH
	DW	06a40H
	DW	056d2H
	DW	0f453H
	DW	09c76H
	DW	09f40H
	DW	0fa28H
	DW	05a61H
	DW	0684cH
	DW	0173aH
	DW	0b101H
	DW	092b9H
	DW	0d7f7H
	DW	041aaH
	DW	06f90H
	DW	037dcH
	DW	0cd48H
	DW	090e5H
	DW	0b9b2H
	DW	02285H
	DW	06be9H
	DW	05306H
	DW	0ee87H
	DW	099f1H
	DW	0a24eH
	DW	00H
	DW	0638aH
	DW	05a61H
	DW	0ee86H
	DW	095c0H
	DW	0b101H
	DW	02285H
	DW	06e57H
	DW	041aaH
	DW	0cd48H
	DW	09049H
	DW	0cd48H
	DW	041aaH
	DW	06e57H
	DW	02285H
	DW	0b101H
	DW	095c0H
	DW	0ee86H
	DW	05a61H
	DW	0638aH
	DW	00H
	DW	09c76H
	DW	0a59fH
	DW	01179H
	DW	06a40H
	DW	04effH
	DW	0dd7bH
	DW	091a9H
	DW	0be56H
	DW	032b8H
	DW	06fb7H
	DW	032b8H
	DW	0be56H
	DW	091a9H
	DW	0dd7aH
	DW	04effH
	DW	06a40H
	DW	0117aH
	DW	0a59fH
	DW	09c76H
	DW	00H
	DW	0638aH
	DW	05a61H
	DW	0ee87H
	DW	095c0H
	DW	0b101H
	DW	02285H
	DW	06e57H
	DW	041aaH
	DW	0cd49H
	DW	09049H
	DW	0cd48H
	DW	041aaH
	DW	06e57H
	DW	02286H
	DW	0b101H
	DW	095c0H
	DW	0ee86H
	DW	05a61H
	DW	0638aH
	DW	00H
	DW	09c76H
	DW	0a59eH
	DW	01179H
	DW	06a40H
	DW	04effH
	DW	0dd7bH
	DW	091a9H
	DW	0be56H
	DW	032b7H
	DW	06fb7H
	DW	032b8H
	DW	0be56H
	DW	091a9H
	DW	0dd7aH
	DW	04effH
	DW	06a40H
	DW	0117aH
	DW	0a59fH
	DW	09c76H
	DW	00H
	DW	0638aH
	DW	05a62H
	DW	0ee87H
	DW	095c0H
	DW	0b101H
	DW	02285H
	DW	06e57H
	DW	041aaH
	DW	0cd49H
	DW	09049H
	DW	0cd48H
	DW	041aaH
	DW	06e57H
	DW	02286H
	DW	0b101H
	DW	095c0H
	DW	0ee86H
	DW	05a61H
	DW	0638aH
	DW	00H
	DW	09c76H
	DW	0a59eH
	DW	01179H
	DW	06a40H
	DW	04effH
	DW	0dd7bH
	DW	091a9H
	DW	0be56H
	DW	032b7H
	DW	06fb7H
	DW	032b8H
	DW	0be56H
	DW	091a9H
	DW	0dd7aH
	DW	04efeH
	DW	06a40H
	DW	0117aH
	DW	0a59fH
	DW	09c76H
	DW	00H
	DW	0660fH
	DW	05305H
	DW	0dd7bH
	DW	090e5H
	DW	0c824H
	DW	041aaH
	DW	06d47H
	DW	0173aH
	DW	0a59fH
	DW	09f40H
	DW	0badH
	DW	06a40H
	DW	04ac1H
	DW	0d290H
	DW	09049H
	DW	0d290H
	DW	04ac1H
	DW	06a40H
	DW	0badH
	DW	09f40H
	DW	0a59fH
	DW	0173aH
	DW	06d47H
	DW	041aaH
	DW	0c825H
	DW	090e5H
	DW	0dd7bH
	DW	05305H
	DW	0660fH
	DW	00H
	DW	099f1H
	DW	0acfbH
	DW	02285H
	DW	06f1bH
	DW	037dcH
	DW	0be56H
	DW	092b9H
	DW	0e8c6H
	DW	05a61H
	DW	060c0H
	DW	0f453H
	DW	095c0H
	DW	0b53fH
	DW	02d70H
	DW	06fb7H
	DW	02d70H
	DW	0b53fH
	DW	095c0H
	DW	0f453H
	DW	060c0H
	DW	05a61H
	DW	0e8c6H
	DW	092b9H
	DW	0be56H
	DW	037dbH
	DW	06f1bH
	DW	02285H
	DW	0acfbH
	DW	099f1H
	DW	00H
	DW	0660fH
	DW	05305H
	DW	0dd7bH
	DW	090e5H
	DW	0c824H
	DW	041aaH
	DW	06d47H
	DW	0173aH
	DW	0a59fH
	DW	09f40H
	DW	0badH
	DW	06a40H
	DW	04ac1H
	DW	0d290H
	DW	09049H
	DW	0d290H
	DW	04ac1H
	DW	06a40H
	DW	0badH
	DW	09f40H
	DW	0a59fH
	DW	0173aH
	DW	06d47H
	DW	041aaH
	DW	0c825H
	DW	090e5H
	DW	0dd7bH
	DW	05305H
	DW	0660fH
	DW	00H
	DW	099f1H
	DW	0acfaH
	DW	02285H
	DW	06f1bH
	DW	037dcH
	DW	0be56H
	DW	092b9H
	DW	0e8c6H
	DW	05a61H
	DW	060c0H
	DW	0f453H
	DW	095c0H
	DW	0b53fH
	DW	02d70H
	DW	06fb7H
	DW	02d70H
	DW	0b53fH
	DW	095c0H
	DW	0f453H
	DW	060c0H
	DW	05a61H
	DW	0e8c6H
	DW	092baH
	DW	0be56H
	DW	037dbH
	DW	06f1bH
	DW	02285H
	DW	0acfbH
	DW	099f1H
	DW	00H
	DW	0684cH
	DW	04ac1H
	DW	0cd48H
	DW	090e5H
	DW	0e316H
	DW	05a61H
	DW	05db1H
	DW	0e8c6H
	DW	091a9H
	DW	0c824H
	DW	0464eH
	DW	06a40H
	DW	05d8H
	DW	099f1H
	DW	0b101H
	DW	02d70H
	DW	06f90H
	DW	02285H
	DW	0a92eH
	DW	09f40H
	DW	0117aH
	DW	06d47H
	DW	03cd8H
	DW	0be56H
	DW	09417H
	DW	0f453H
	DW	0638aH
	DW	05305H
	DW	0d7f7H
	DW	09048H
	DW	0d7f7H
	DW	05305H
	DW	0638aH
	DW	0f453H
	DW	09417H
	DW	0be56H
	DW	03cd8H
	DW	06d47H
	DW	01179H
	DW	09f40H
	DW	0a92eH
	DW	02285H
	DW	06f90H
	DW	02d70H
	DW	0b101H
	DW	099f1H
	DW	05d8H
	DW	06a40H
	DW	0464eH
	DW	0c824H
	DW	091a9H
	DW	0e8c6H
	DW	05db2H
	DW	05a61H
	DW	0e316H
	DW	090e5H
	DW	0cd48H
	DW	04ac1H
	DW	0684cH
	DW	00H
	DW	097b4H
	DW	0b53fH
	DW	032b8H
	DW	06f1bH
	DW	01ceaH
	DW	0a59fH
	DW	0a24fH
	DW	0173aH
	DW	06e57H
	DW	037dbH
	DW	0b9b2H
	DW	095c0H
	DW	0fa28H
	DW	0660fH
	DW	04effH
	DW	0d290H
	DW	09070H
	DW	0dd7bH
	DW	056d2H
	DW	060c0H
	DW	0ee86H
	DW	092b9H
	DW	0c328H
	DW	041aaH
	DW	06be9H
	DW	0badH
	DW	09c76H
	DW	0acfbH
	DW	02809H
	DW	06fb7H
	DW	02809H
	DW	0acfbH
	DW	09c76H
	DW	0badH
	DW	06be9H
	DW	041aaH
	DW	0c328H
	DW	092b9H
	DW	0ee87H
	DW	060c0H
	DW	056d2H
	DW	0dd7bH
	DW	09070H
	DW	0d290H
	DW	04effH
	DW	0660fH
	DW	0fa28H
	DW	095c0H
	DW	0b9b2H
	DW	037dcH
	DW	06e57H
	DW	0173aH
	DW	0a24eH
	DW	0a59fH
	DW	01ceaH
	DW	06f1bH
	DW	032b8H
	DW	0b53fH
	DW	097b4H
	DW	00H
	DW	06a40H
	DW	041aaH
	DW	0be56H
	DW	095c0H
	DW	00H
	DW	06a40H
	DW	041aaH
	DW	0be56H
	DW	095c0H
	DW	00H
	DW	06a40H
	DW	041aaH
	DW	0be56H
	DW	095c0H
	DW	00H
	DW	06a40H
	DW	041aaH
	DW	0be56H
	DW	095c0H
	DW	00H
	DW	06a40H
	DW	041aaH
	DW	0be56H
	DW	095c0H
	DW	00H
	DW	06a40H
	DW	041aaH
	DW	0be56H
	DW	095c0H
	DW	00H
	DW	06a40H
	DW	041aaH
	DW	0be56H
	DW	095c0H
	DW	00H
	DW	06a40H
	DW	041aaH
	DW	0be56H
	DW	095c0H
	DW	00H
	DW	06a40H
	DW	041aaH
	DW	0be56H
	DW	095c0H
	DW	00H
	DW	06a40H
	DW	041aaH
	DW	0be56H
	DW	095c0H
	DW	00H
	DW	06a40H
	DW	041aaH
	DW	0be56H
	DW	095c0H
	DW	00H
	DW	06a40H
	DW	041aaH
	DW	0be56H
	DW	095c0H
	DW	00H
	DW	06a40H
	DW	041aaH
	DW	0be56H
	DW	095c0H
	DW	00H
	DW	06a40H
	DW	041aaH
	DW	0be56H
	DW	095c0H
	DW	00H
	DW	06a40H
	DW	041aaH
	DW	0be56H
	DW	095c0H
	DW	00H
	DW	06a40H
	DW	041aaH
	DW	0be56H
	DW	095c0H
	DW	00H
	DW	06a40H
	DW	041aaH
	DW	0be56H
	DW	095c0H
	DW	00H
	DW	06a40H
	DW	041aaH
	DW	0be56H
	DW	095c0H
	DW	00H
	DW	06a40H
	DW	041aaH
	DW	0be56H
	DW	095c0H
	DW	00H
	DW	06a40H
	DW	041aaH
	DW	0be56H
	DW	095c0H
	DW	00H
	DW	06a40H
	DW	041aaH
	DW	0be56H
	DW	095c0H
	DW	00H
	DW	06a40H
	DW	041aaH
	DW	0be56H
	DW	095c0H
	DW	00H
	DW	06a40H
	DW	041aaH
	DW	0be56H
	DW	095c0H
	DW	00H
	DW	06a40H
	DW	041aaH
	DW	0be56H
	DW	095c0H
_intFSK600bdCarTemplate DW 00H
	DW	02285H
	DW	041aaH
	DW	05a61H
	DW	06a40H
	DW	06fb7H
	DW	06a40H
	DW	05a61H
	DW	041aaH
	DW	02285H
	DW	00H
	DW	0dd7bH
	DW	0be56H
	DW	0a59fH
	DW	095c0H
	DW	09049H
	DW	095c0H
	DW	0a59fH
	DW	0be56H
	DW	0dd7bH
	DW	00H
	DW	041aaH
	DW	06a40H
	DW	06a40H
	DW	041aaH
	DW	00H
	DW	0be56H
	DW	095c0H
	DW	095c0H
	DW	0be56H
	DW	00H
	DW	041aaH
	DW	06a40H
	DW	06a40H
	DW	041aaH
	DW	00H
	DW	0be56H
	DW	095c0H
	DW	095c0H
	DW	0be56H
	DW	00H
	DW	05a61H
	DW	06a40H
	DW	02285H
	DW	0be56H
	DW	09049H
	DW	0be56H
	DW	02285H
	DW	06a40H
	DW	05a61H
	DW	00H
	DW	0a59fH
	DW	095c0H
	DW	0dd7bH
	DW	041aaH
	DW	06fb7H
	DW	041aaH
	DW	0dd7bH
	DW	095c0H
	DW	0a59fH
	DW	00H
	DW	06a40H
	DW	041aaH
	DW	0be56H
	DW	095c0H
	DW	00H
	DW	06a40H
	DW	041aaH
	DW	0be56H
	DW	095c0H
	DW	00H
	DW	06a40H
	DW	041aaH
	DW	0be56H
	DW	095c0H
	DW	00H
	DW	06a40H
	DW	041aaH
	DW	0be56H
	DW	095c0H
_intPSK100bdCarTemplate DW 00H
	DW	0117H
	DW	03fcH
	DW	07a4H
	DW	0aa5H
	DW	0b94H
	DW	096bH
	DW	03e1H
	DW	0fb93H
	DW	0f1f3H
	DW	0e90cH
	DW	0e314H
	DW	0e1e9H
	DW	0e69aH
	DW	0f114H
	DW	00H
	DW	010efH
	DW	020bfH
	DW	02c31H
	DW	03091H
	DW	02c50H
	DW	01f6dH
	DW	0b96H
	DW	0f3f4H
	DW	0dca8H
	DW	0ca13H
	DW	0bffdH
	DW	0c0d5H
	DW	0cd27H
	DW	0e360H
	DW	00H
	DW	01e28H
	DW	03872H
	DW	049e7H
	DW	04ef8H
	DW	04631H
	DW	03092H
	DW	01180H
	DW	0ee32H
	DW	0ccd6H
	DW	0b372H
	DW	0a6ceH
	DW	0a989H
	DW	0bb93H
	DW	0da1aH
	DW	00H
	DW	026b7H
	DW	04767H
	DW	05c2dH
	DW	06126H
	DW	05534H
	DW	03a33H
	DW	014b4H
	DW	0eb32H
	DW	0c4eeH
	DW	0a8aaH
	DW	09b6dH
	DW	09f9eH
	DW	0b495H
	DW	0d6b2H
	DW	00H
	DW	02947H
	DW	04b50H
	DW	0602eH
	DW	0644bH
	DW	05708H
	DW	03ad2H
	DW	014b4H
	DW	0eb6aH
	DW	0c62cH
	DW	0ab67H
	DW	09f9dH
	DW	0a49fH
	DW	0b944H
	DW	0d9aeH
	DW	00H
	DW	02574H
	DW	04390H
	DW	0554cH
	DW	057eaH
	DW	04b63H
	DW	03256H
	DW	01180H
	DW	0eed2H
	DW	0d05cH
	DW	0bb3cH
	DW	0b2b8H
	DW	0b7c4H
	DW	0c8e6H
	DW	0e299H
	DW	00H
	DW	01bd4H
	DW	0315cH
	DW	03d37H
	DW	03deeH
	DW	03413H
	DW	02210H
	DW	0b96H
	DW	0f4e2H
	DW	0e1edH
	DW	0d5b5H
	DW	0d1caH
	DW	0d617H
	DW	0e10fH
	DW	0f011H
	DW	00H
	DW	0de7H
	DW	01783H
	DW	01ba8H
	DW	01a5bH
	DW	014b4H
	DW	0c84H
	DW	03e1H
	DW	0fcabH
	DW	0f825H
	DW	0f6bbH
	DW	0f802H
	DW	0fae7H
	DW	0fe02H
	DW	00H
	DW	00H
	DW	0281H
	DW	055aH
	DW	0729H
	DW	06bdH
	DW	0376H
	DW	0fd7eH
	DW	0f5d6H
	DW	0ee25H
	DW	0e864H
	DW	0e667H
	DW	0e966H
	DW	0f1a3H
	DW	0fe36H
	DW	0d26H
	DW	01bb4H
	DW	026dfH
	DW	02c02H
	DW	02967H
	DW	01ebbH
	DW	0d3eH
	DW	0f7a3H
	DW	0e1a6H
	DW	0cf66H
	DW	0c49cH
	DW	0c3daH
	DW	0cdfaH
	DW	0e1d9H
	DW	0fc6bH
	DW	01939H
	DW	0331eH
	DW	04539H
	DW	04bd9H
	DW	0453cH
	DW	031f9H
	DW	014faH
	DW	0f313H
	DW	0d229H
	DW	0b82eH
	DW	0aa06H
	DW	0aa9dH
	DW	0ba4dH
	DW	0d6baH
	DW	0fb2eH
	DW	02164H
	DW	0429eH
	DW	058dcH
	DW	05ff3H
	DW	0565bH
	DW	03d7aH
	DW	01977H
	DW	0f083H
	DW	0c9c4H
	DW	0ac13H
	DW	09cbeH
	DW	09e97H
	DW	0b168H
	DW	0d1feH
	DW	0fab0H
	DW	02465H
	DW	047cfH
	DW	05ebeH
	DW	06534H
	DW	05a1bH
	DW	03f77H
	DW	01a02H
	DW	0f058H
	DW	0c9c4H
	DW	0acf5H
	DW	09ed4H
	DW	0a1a5H
	DW	0b4aeH
	DW	0d461H
	DW	0fb05H
	DW	021c3H
	DW	041e3H
	DW	055f6H
	DW	05acaH
	DW	04feaH
	DW	037a2H
	DW	01688H
	DW	0f29aH
	DW	0d229H
	DW	0bab2H
	DW	0aff3H
	DW	0b34dH
	DW	0c39dH
	DW	0dd85H
	DW	0fc1fH
	DW	019e8H
	DW	031c4H
	DW	03fe1H
	DW	04253H
	DW	0395aH
	DW	02730H
	DW	0f90H
	DW	0f6efH
	DW	0e1a6H
	DW	0d329H
	DW	0cd76H
	DW	0d0d4H
	DW	0dbe4H
	DW	0ebffH
	DW	0fdd2H
	DW	0e0aH
	DW	019f1H
	DW	01fe8H
	DW	01f99H
	DW	019e9H
	DW	010aeH
	DW	0630H
	DW	0fcabH
	DW	0f5d6H
	DW	0f290H
	DW	0f2ccH
	DW	0f5a9H
	DW	0f9c1H
	DW	0fd91H
	DW	0ffdcH
	DW	00H
	DW	00H
	DW	0273H
	DW	0396H
	DW	027cH
	DW	0fee2H
	DW	0f951H
	DW	0f30aH
	DW	0edbfH
	DW	0eb2dH
	DW	0eca9H
	DW	0f2c0H
	DW	0fcf6H
	DW	09c7H
	DW	016deH
	DW	02184H
	DW	0272dH
	DW	02609H
	DW	01d7cH
	DW	0e5cH
	DW	0fae5H
	DW	0e66bH
	DW	0d4bfH
	DW	0c97eH
	DW	0c751H
	DW	0cf5bH
	DW	0e0deH
	DW	0f946H
	DW	01486H
	DW	02dc9H
	DW	0404cH
	DW	0484aH
	DW	043bcH
	DW	032d2H
	DW	01803H
	DW	0f7b3H
	DW	0d77aH
	DW	0bd25H
	DW	0adacH
	DW	0ac3cH
	DW	0b994H
	DW	0d3cdH
	DW	0f6a0H
	DW	01c18H
	DW	03d9dH
	DW	0551fH
	DW	05e36H
	DW	056f4H
	DW	0404bH
	DW	01df3H
	DW	0f5caH
	DW	0cecfH
	DW	0afe5H
	DW	09e99H
	DW	09e1eH
	DW	0aeb3H
	DW	0cd94H
	DW	0f56eH
	DW	01f51H
	DW	043e8H
	DW	05cc6H
	DW	0658eH
	DW	05cb6H
	DW	043d0H
	DW	01f40H
	DW	0f575H
	DW	0cdc1H
	DW	0af0aH
	DW	09e99H
	DW	09f26H
	DW	0b068H
	DW	0cf28H
	DW	0f5dfH
	DW	01db1H
	DW	03fb0H
	DW	05611H
	DW	05d2dH
	DW	0541eH
	DW	03cd5H
	DW	01bb7H
	DW	0f6c2H
	DW	0d47aH
	DW	0bab8H
	DW	0adacH
	DW	0af2bH
	DW	0be6eH
	DW	0d84cH
	DW	0f7e1H
	DW	01778H
	DW	0319dH
	DW	0420aH
	DW	04661H
	DW	03e82H
	DW	02c71H
	DW	013e4H
	DW	0f97eH
	DW	0e1efH
	DW	0d11eH
	DW	0c97eH
	DW	0cbb4H
	DW	0d69bH
	DW	0e795H
	DW	0fb25H
	DW	0d9eH
	DW	01bdcH
	DW	023caH
	DW	024b0H
	DW	01f39H
	DW	0152cH
	DW	08fdH
	DW	0fd3bH
	DW	0f40cH
	DW	0eec6H
	DW	0edbfH
	DW	0f054H
	DW	0f530H
	DW	0faa6H
	DW	0ff29H
	DW	01a8H
	DW	01cbH
	DW	00H
	DW	00H
	DW	0f6H
	DW	0ffb8H
	DW	0fc5aH
	DW	0f7aeH
	DW	0f317H
	DW	0f02dH
	DW	0f059H
	DW	0f467H
	DW	0fc43H
	DW	06dcH
	DW	0124dH
	DW	01c31H
	DW	02221H
	DW	02240H
	DW	01bb4H
	DW	0eecH
	DW	0fdb2H
	DW	0eae8H
	DW	0da0cH
	DW	0ce93H
	DW	0cb31H
	DW	0d144H
	DW	0e070H
	DW	0f698H
	DW	0101eH
	DW	02882H
	DW	03b2eH
	DW	04454H
	DW	041b4H
	DW	0331eH
	DW	01a92H
	DW	0fc06H
	DW	0dcb9H
	DW	0c24aH
	DW	0b1b7H
	DW	0ae62H
	DW	0b96aH
	DW	0d15cH
	DW	0f262H
	DW	016e1H
	DW	03871H
	DW	05102H
	DW	05bf4H
	DW	056fdH
	DW	0429eH
	DW	0221cH
	DW	0faf9H
	DW	0d400H
	DW	0b416H
	DW	0a0f8H
	DW	09e34H
	DW	0ac7dH
	DW	0c97fH
	DW	0f048H
	DW	01a1aH
	DW	03fa5H
	DW	05a4cH
	DW	06558H
	DW	05ecfH
	DW	047cfH
	DW	0245eH
	DW	0fab2H
	DW	0d217H
	DW	0b1a1H
	DW	09eeeH
	DW	09d29H
	DW	0ac7dH
	DW	0ca12H
	DW	0f09cH
	DW	01948H
	DW	03cfeH
	DW	0559cH
	DW	05f0dH
	DW	057f4H
	DW	041e3H
	DW	020ffH
	DW	0fb3eH
	DW	0d748H
	DW	0bb4dH
	DW	0abebH
	DW	0ab6bH
	DW	0b96aH
	DW	0d2feH
	DW	0f352H
	DW	0148dH
	DW	030e7H
	DW	043adH
	DW	04a0bH
	DW	0437dH
	DW	031c4H
	DW	01885H
	DW	0fc86H
	DW	0e2c7H
	DW	0cf9cH
	DW	0c5ebH
	DW	0c6c4H
	DW	0d144H
	DW	0e2e1H
	DW	0f7ffH
	DW	0ca4H
	DW	01d3eH
	DW	02743H
	DW	02994H
	DW	02493H
	DW	019f1H
	DW	0c3fH
	DW	0fe58H
	DW	0f2ccH
	DW	0eb67H
	DW	0e8e9H
	DW	0eaf9H
	DW	0f059H
	DW	0f746H
	DW	0fde9H
	DW	02c5H
	DW	050fH
	DW	04c7H
	DW	02adH
	DW	00H
	DW	00H
	DW	0157H
	DW	04a4H
	DW	0809H
	DW	0945H
	DW	06afH
	DW	00H
	DW	0f6abH
	DW	0ed90H
	DW	0e818H
	DW	0e90cH
	DW	0f176H
	DW	00H
	DW	01117H
	DW	01fc6H
	DW	0272dH
	DW	0240fH
	DW	01608H
	DW	00H
	DW	0e795H
	DW	0d3b0H
	DW	0ca89H
	DW	0cfbdH
	DW	0e307H
	DW	00H
	DW	01f22H
	DW	037beH
	DW	0426bH
	DW	03b41H
	DW	02331H
	DW	00H
	DW	0daedH
	DW	0be39H
	DW	0b24bH
	DW	0bb3cH
	DW	0d77aH
	DW	00H
	DW	02a15H
	DW	04a2aH
	DW	0570cH
	DW	04c8eH
	DW	02cd8H
	DW	00H
	DW	0d1f6H
	DW	0af4eH
	DW	0a1caH
	DW	0ad92H
	DW	0cff5H
	DW	00H
	DW	030d8H
	DW	05534H
	DW	06304H
	DW	0563dH
	DW	03209H
	DW	00H
	DW	0cd94H
	DW	0a86bH
	DW	09aa9H
	DW	0a81dH
	DW	0cd39H
	DW	00H
	DW	032beH
	DW	057c4H
	DW	06521H
	DW	05756H
	DW	0323fH
	DW	00H
	DW	0ce36H
	DW	0aa40H
	DW	09d9dH
	DW	0ab67H
	DW	0cf8aH
	DW	00H
	DW	02f97H
	DW	05197H
	DW	05d2dH
	DW	04fbeH
	DW	02d75H
	DW	00H
	DW	0d3cdH
	DW	0b49dH
	DW	0aa5dH
	DW	0b71cH
	DW	0d6aeH
	DW	00H
	DW	027b4H
	DW	0434bH
	DW	04bf4H
	DW	04036H
	DW	02425H
	DW	00H
	DW	0ddcaH
	DW	0c67bH
	DW	0bfa2H
	DW	0ca13H
	DW	0e1efH
	DW	00H
	DW	01bddH
	DW	02e4dH
	DW	0332bH
	DW	02a4bH
	DW	0173cH
	DW	00H
	DW	0eb2fH
	DW	0de13H
	DW	0db50H
	DW	0e267H
	DW	0f02eH
	DW	00H
	DW	0d40H
	DW	014b4H
	DW	0154aH
	DW	01029H
	DW	0803H
	DW	00H
	DW	0faa6H
	DW	0f90bH
	DW	0faa4H
	DW	0fdaeH
	DW	00H
	DW	00H
	DW	0297H
	DW	052dH
	DW	05afH
	DW	02c5H
	DW	0fc8aH
	DW	0f4acH
	DW	0edf9H
	DW	0eb6fH
	DW	0ef19H
	DW	0f924H
	DW	0787H
	DW	0165fH
	DW	02103H
	DW	02370H
	DW	01bb4H
	DW	0ac7H
	DW	0f498H
	DW	0df25H
	DW	0d0d4H
	DW	0ce93H
	DW	0da32H
	DW	0f194H
	DW	0f00H
	DW	02a85H
	DW	03c26H
	DW	03e2cH
	DW	02ef7H
	DW	011b6H
	DW	0edc9H
	DW	0cce3H
	DW	0b861H
	DW	0b6a3H
	DW	0c90eH
	DW	0eb73H
	DW	014faH
	DW	03a6fH
	DW	0514cH
	DW	052b8H
	DW	03d8dH
	DW	016e1H
	DW	0e8c9H
	DW	0bfb7H
	DW	0a70fH
	DW	0a5ffH
	DW	0bd62H
	DW	0e75eH
	DW	018deH
	DW	04488H
	DW	05e5bH
	DW	05f08H
	DW	04604H
	DW	019c6H
	DW	0e61aH
	DW	0b8f1H
	DW	09e97H
	DW	09e51H
	DW	0b857H
	DW	0e5bcH
	DW	01a49H
	DW	047cfH
	DW	06206H
	DW	061e3H
	DW	04782H
	DW	01a1aH
	DW	0e5feH
	DW	0b93dH
	DW	09fd1H
	DW	0a05cH
	DW	0ba6eH
	DW	0e6b8H
	DW	01915H
	DW	043f1H
	DW	05bf0H
	DW	05b00H
	DW	041e3H
	DW	017d5H
	DW	0e878H
	DW	0c095H
	DW	0aa9dH
	DW	0abebH
	DW	0c372H
	DW	0ea37H
	DW	01563H
	DW	0394fH
	DW	04cb3H
	DW	04b0fH
	DW	035b5H
	DW	01331H
	DW	0ed4aH
	DW	0ce3cH
	DW	0bde9H
	DW	0bfd9H
	DW	0d27dH
	DW	0efe2H
	DW	0f90H
	DW	028faH
	DW	035d4H
	DW	033a5H
	DW	0242eH
	DW	0ca4H
	DW	0f3f9H
	DW	0e0d7H
	DW	0d7c9H
	DW	0da29H
	DW	0e60fH
	DW	0f728H
	DW	0830H
	DW	01490H
	DW	01999H
	DW	01717H
	DW	0f0eH
	DW	04d5H
	DW	0fbdbH
	DW	0f68cH
	DW	0f5a9H
	DW	0f83dH
	DW	0fc36H
	DW	0ff4eH
	DW	00H
	DW	00H
	DW	0252H
	DW	02aeH
	DW	00H
	DW	0faa6H
	DW	0f46cH
	DW	0effbH
	DW	0efd7H
	DW	0f55bH
	DW	00H
	DW	0d40H
	DW	0192fH
	DW	01fa4H
	DW	01d99H
	DW	01258H
	DW	00H
	DW	0eb2fH
	DW	0d9d6H
	DW	0d189H
	DW	0d5b5H
	DW	0e66bH
	DW	00H
	DW	01bddH
	DW	0322fH
	DW	03c21H
	DW	035edH
	DW	0202fH
	DW	00H
	DW	0ddcaH
	DW	0c30dH
	DW	0b7b6H
	DW	0bfcaH
	DW	0da06H
	DW	00H
	DW	027b4H
	DW	04631H
	DW	052a3H
	DW	048e4H
	DW	02ad2H
	DW	00H
	DW	0d3cdH
	DW	0b254H
	DW	0a516H
	DW	0b042H
	DW	0d169H
	DW	00H
	DW	02f97H
	DW	05336H
	DW	060ebH
	DW	05499H
	DW	03131H
	DW	00H
	DW	0ce36H
	DW	0a956H
	DW	09b82H
	DW	0a8aaH
	DW	0cd6fH
	DW	00H
	DW	032beH
	DW	057f3H
	DW	0658eH
	DW	057e3H
	DW	032acH
	DW	00H
	DW	0cd94H
	DW	0a8f8H
	DW	09beeH
	DW	0a9c3H
	DW	0ce7eH
	DW	00H
	DW	030d8H
	DW	053efH
	DW	06015H
	DW	0526eH
	DW	02f1bH
	DW	00H
	DW	0d1f6H
	DW	0b144H
	DW	0a650H
	DW	0b372H
	DW	0d47aH
	DW	00H
	DW	02a15H
	DW	04791H
	DW	0510cH
	DW	044c4H
	DW	026daH
	DW	00H
	DW	0daedH
	DW	0c166H
	DW	0b99fH
	DW	0c4bfH
	DW	0decaH
	DW	00H
	DW	01f22H
	DW	03413H
	DW	039f3H
	DW	03043H
	DW	01abcH
	DW	00H
	DW	0e795H
	DW	0d7c2H
	DW	0d3efH
	DW	0dbf1H
	DW	0ec69H
	DW	00H
	DW	01116H
	DW	01b67H
	DW	01d15H
	DW	016f4H
	DW	0bf4H
	DW	00H
	DW	0f6abH
	DW	0f220H
	DW	0f2a2H
	DW	0f6bbH
	DW	0fbfbH
	DW	00H
	DW	0157H
	DW	00H
	DW	00H
	DW	0b2H
	DW	0fe9dH
	DW	0fa51H
	DW	0f5a9H
	DW	0f317H
	DW	0f4acH
	DW	0fb2bH
	DW	0583H
	DW	010e7H
	DW	01999H
	DW	01c17H
	DW	0165fH
	DW	08d8H
	DW	0f681H
	DW	0e44cH
	DW	0d7c8H
	DW	0d56fH
	DW	0df25H
	DW	0f35cH
	DW	0d3eH
	DW	025ceH
	DW	035d4H
	DW	037f9H
	DW	02a85H
	DW	0101eH
	DW	0ef57H
	DW	0d109H
	DW	0bde9H
	DW	0bc05H
	DW	0cce2H
	DW	0eccfH
	DW	013a8H
	DW	036f2H
	DW	04cb3H
	DW	04e49H
	DW	03a6fH
	DW	015c9H
	DW	0e9d6H
	DW	0c273H
	DW	0aa9dH
	DW	0a95eH
	DW	0bfb7H
	DW	0e82bH
	DW	0181eH
	DW	0429eH
	DW	05bf0H
	DW	05ccfH
	DW	04488H
	DW	01948H
	DW	0e689H
	DW	0b9fcH
	DW	09fd1H
	DW	09f57H
	DW	0b8f1H
	DW	0e5e6H
	DW	01a2dH
	DW	047a9H
	DW	06206H
	DW	06218H
	DW	047cfH
	DW	01a44H
	DW	0e5c5H
	DW	0b87eH
	DW	09e97H
	DW	09eeeH
	DW	0b93dH
	DW	0e63aH
	DW	019a0H
	DW	04592H
	DW	05e5bH
	DW	05d9eH
	DW	043f1H
	DW	018a2H
	DW	0e79eH
	DW	0be1dH
	DW	0a70fH
	DW	0a82fH
	DW	0c095H
	DW	0e91fH
	DW	01688H
	DW	03c8eH
	DW	0514cH
	DW	04fd2H
	DW	0394fH
	DW	0148dH
	DW	0ebe3H
	DW	0ca4bH
	DW	0b861H
	DW	0ba2dH
	DW	0ce3cH
	DW	0ee4aH
	DW	01131H
	DW	02d83H
	DW	03c26H
	DW	03a15H
	DW	028faH
	DW	0e6cH
	DW	0f22aH
	DW	0dbd2H
	DW	0d0d4H
	DW	0d31eH
	DW	0e0d7H
	DW	0f539H
	DW	0a24H
	DW	019f1H
	DW	02103H
	DW	01e90H
	DW	01490H
	DW	06dcH
	DW	0f9d0H
	DW	0f0f2H
	DW	0edf9H
	DW	0f087H
	DW	0f68cH
	DW	0fd3bH
	DW	0214H
	DW	03caH
	DW	0297H
	DW	00H
	DW	00H
	DW	0193H
	DW	0519H
	DW	07a4H
	DW	064bH
	DW	00H
	DW	0f695H
	DW	0ee40H
	DW	0ebc0H
	DW	0f1f3H
	DW	00H
	DW	01118H
	DW	01e17H
	DW	02081H
	DW	01591H
	DW	00H
	DW	0e787H
	DW	0d617H
	DW	0d3cfH
	DW	0e34cH
	DW	00H
	DW	01f6dH
	DW	03500H
	DW	0371dH
	DW	02358H
	DW	00H
	DW	0da2bH
	DW	0c0d5H
	DW	0beedH
	DW	0d6a2H
	DW	00H
	DW	02b95H
	DW	0483cH
	DW	049e7H
	DW	02eacH
	DW	00H
	DW	0cf6dH
	DW	0aff4H
	DW	0ae8eH
	DW	0ccd6H
	DW	00H
	DW	034b8H
	DW	05677H
	DW	05792H
	DW	036c5H
	DW	00H
	DW	0c80eH
	DW	0a49fH
	DW	0a3d3H
	DW	0c695H
	DW	00H
	DW	03a33H
	DW	05eb4H
	DW	05f2cH
	DW	03b12H
	DW	00H
	DW	0c48fH
	DW	09f9eH
	DW	09f7cH
	DW	0c44fH
	DW	00H
	DW	03ba7H
	DW	06062H
	DW	0602eH
	DW	03b47H
	DW	00H
	DW	0c52eH
	DW	0a14cH
	DW	0a1d5H
	DW	0c62cH
	DW	00H
	DW	038f8H
	DW	05b61H
	DW	05a86H
	DW	03760H
	DW	00H
	DW	0c9e1H
	DW	0a989H
	DW	0aab4H
	DW	0cc0aH
	DW	00H
	DW	03256H
	DW	0500cH
	DW	04e97H
	DW	02fa4H
	DW	00H
	DW	0d253H
	DW	0b7c4H
	DW	0b97cH
	DW	0d583H
	DW	00H
	DW	02838H
	DW	03f2bH
	DW	03d37H
	DW	0249aH
	DW	00H
	DW	0ddf0H
	DW	0cb00H
	DW	0cd27H
	DW	0e1edH
	DW	00H
	DW	01b50H
	DW	029e9H
	DW	02799H
	DW	01707H
	DW	00H
	DW	0ebe9H
	DW	0e1e9H
	DW	0e458H
	DW	0f06cH
	DW	00H
	DW	0c84H
	DW	011c0H
	DW	0f3cH
	DW	07dbH
	DW	00H
	DW	0fb47H
	DW	0fae7H
	DW	0fd73H
	DW	00H
	DW	00H
	DW	02a6H
	DW	04c7H
	DW	03a6H
	DW	0fe53H
	DW	0f68cH
	DW	0f02dH
	DW	0ef5fH
	DW	0f656H
	DW	03bdH
	DW	012bdH
	DW	01cb9H
	DW	01c31H
	DW	0f84H
	DW	0fa43H
	DW	0e44cH
	DW	0d6e1H
	DW	0d8bdH
	DW	0eae8H
	DW	07a4H
	DW	0242eH
	DW	034cfH
	DW	031a7H
	DW	01a4fH
	DW	0f698H
	DW	0d3f8H
	DW	0c06dH
	DW	0c4d2H
	DW	0e0f0H
	DW	0b03H
	DW	0331eH
	DW	0493cH
	DW	043acH
	DW	02347H
	DW	0f394H
	DW	0c6b1H
	DW	0ae62H
	DW	0b502H
	DW	0d91fH
	DW	0d9eH
	DW	03e82H
	DW	05896H
	DW	05101H
	DW	029cdH
	DW	0f16cH
	DW	0bd62H
	DW	0a1feH
	DW	0aa64H
	DW	0d400H
	DW	0f48H
	DW	04592H
	DW	061ccH
	DW	058b9H
	DW	02d6eH
	DW	0f047H
	DW	0b8b1H
	DW	09c1eH
	DW	0a5b4H
	DW	0d1eeH
	DW	0fe3H
	DW	047cfH
	DW	0643cH
	DW	05a4cH
	DW	02de9H
	DW	0f039H
	DW	0b8f1H
	DW	09d29H
	DW	0a747H
	DW	0d30cH
	DW	0f64H
	DW	04513H
	DW	05fb9H
	DW	0559cH
	DW	02b36H
	DW	0f143H
	DW	0be1dH
	DW	0a50eH
	DW	0aeffH
	DW	0d748H
	DW	0dd4H
	DW	03d8eH
	DW	05495H
	DW	04afeH
	DW	02584H
	DW	0f352H
	DW	0c7daH
	DW	0b340H
	DW	0bc54H
	DW	0de57H
	DW	0b4fH
	DW	031c4H
	DW	04394H
	DW	03b2eH
	DW	01d39H
	DW	0f642H
	DW	0d57bH
	DW	0c6c4H
	DW	0ce59H
	DW	0e7baH
	DW	0801H
	DW	02288H
	DW	02de5H
	DW	02743H
	DW	012e7H
	DW	0f9dfH
	DW	0e60fH
	DW	0de3fH
	DW	0e3cfH
	DW	0f2ccH
	DW	0425H
	DW	010e7H
	DW	01507H
	DW	010a1H
	DW	0746H
	DW	0fde9H
	DW	0f86eH
	DW	0f810H
	DW	0fb39H
	DW	0fec8H
	DW	00H
	DW	00H
	DW	022bH
	DW	01a8H
	DW	0fd84H
	DW	0f757H
	DW	0f2a2H
	DW	0f30aH
	DW	0fa3cH
	DW	0694H
	DW	01357H
	DW	01a81H
	DW	01787H
	DW	09c7H
	DW	0f570H
	DW	0e251H
	DW	0d8d3H
	DW	0de51H
	DW	0f262H
	DW	0e5cH
	DW	02782H
	DW	0332bH
	DW	02b41H
	DW	01138H
	DW	0ee18H
	DW	0cf5bH
	DW	0c1bbH
	DW	0cbedH
	DW	0eb7aH
	DW	01525H
	DW	038f0H
	DW	0484aH
	DW	03bfcH
	DW	01778H
	DW	0e7fdH
	DW	0bfc3H
	DW	0aef4H
	DW	0bd25H
	DW	0e5feH
	DW	01a77H
	DW	0466cH
	DW	05866H
	DW	0488fH
	DW	01c18H
	DW	0e38cH
	DW	0b49eH
	DW	0a1caH
	DW	0b2ffH
	DW	0e24fH
	DW	01df3H
	DW	04f08H
	DW	06263H
	DW	0501bH
	DW	01ec5H
	DW	0e113H
	DW	0aeb3H
	DW	09b27H
	DW	0ae2fH
	DW	0e0afH
	DW	01f5cH
	DW	05229H
	DW	0658eH
	DW	0521aH
	DW	01f51H
	DW	0e0c0H
	DW	0ae6aH
	DW	09b82H
	DW	0af0bH
	DW	0e13bH
	DW	01e99H
	DW	04f98H
	DW	061afH
	DW	04e68H
	DW	01db1H
	DW	0e296H
	DW	0b3c8H
	DW	0a2d3H
	DW	0b582H
	DW	0e3e8H
	DW	01bb7H
	DW	04784H
	DW	0570cH
	DW	04548H
	DW	01a02H
	DW	0e677H
	DW	0be6eH
	DW	0b098H
	DW	0c123H
	DW	0e888H
	DW	016eaH
	DW	03a7cH
	DW	04661H
	DW	0375bH
	DW	01486H
	DW	0ec1cH
	DW	0cd9fH
	DW	0c3dfH
	DW	0d11eH
	DW	0eec8H
	DW	01086H
	DW	02965H
	DW	030d6H
	DW	02598H
	DW	0d9eH
	DW	0f322H
	DW	0e04eH
	DW	0db50H
	DW	0e45aH
	DW	0f639H
	DW	08fdH
	DW	01571H
	DW	017e8H
	DW	01139H
	DW	05c4H
	DW	0fb0dH
	DW	0f52fH
	DW	0f54cH
	DW	0f980H
	DW	0fe58H
	DW	0d4H
	DW	00H
	DW	00H
	DW	06bH
	DW	0fd91H
	DW	0f8d7H
	DW	0f56dH
	DW	0f68cH
	DW	0fd7eH
	DW	0879H
	DW	012f8H
	DW	0179cH
	DW	012bdH
	DW	048dH
	DW	0f1a3H
	DW	0e18dH
	DW	0dbc3H
	DW	0e44cH
	DW	0f97dH
	DW	01401H
	DW	02967H
	DW	0303cH
	DW	0242eH
	DW	085dH
	DW	0e6b3H
	DW	0cc5eH
	DW	0c49cH
	DW	0d3f8H
	DW	0f5eeH
	DW	01e27H
	DW	03cf7H
	DW	04583H
	DW	0331dH
	DW	0b99H
	DW	0dd85H
	DW	0bac4H
	DW	0b193H
	DW	0c6b1H
	DW	0f313H
	DW	02636H
	DW	04c4eH
	DW	055faH
	DW	03e82H
	DW	0e08H
	DW	0d6baH
	DW	0adf5H
	DW	0a3f8H
	DW	0bd62H
	DW	0f11cH
	DW	02b9fH
	DW	0565bH
	DW	0607cH
	DW	04592H
	DW	0f7dH
	DW	0d2cbH
	DW	0a6d6H
	DW	09cbeH
	DW	0b8b1H
	DW	0f02eH
	DW	02e02H
	DW	05a6cH
	DW	0644eH
	DW	047cfH
	DW	0fe0H
	DW	0d1feH
	DW	0a5e5H
	DW	09c65H
	DW	0b8f1H
	DW	0f059H
	DW	02d35H
	DW	05839H
	DW	0612cH
	DW	04513H
	DW	0f29H
	DW	0d461H
	DW	0ab32H
	DW	0a2f3H
	DW	0be1dH
	DW	0f199H
	DW	02946H
	DW	04feaH
	DW	05750H
	DW	03d8dH
	DW	0d65H
	DW	0d9caH
	DW	0b65fH
	DW	0aff3H
	DW	0c7daH
	DW	0f3d8H
	DW	0227bH
	DW	04211H
	DW	04766H
	DW	031c4H
	DW	0ab4H
	DW	0e1d9H
	DW	0c6a6H
	DW	0c27fH
	DW	0d57bH
	DW	0f6efH
	DW	0194dH
	DW	02fa3H
	DW	0328aH
	DW	02288H
	DW	0745H
	DW	0ebfeH
	DW	0dae7H
	DW	0d94fH
	DW	0e60fH
	DW	0faa7H
	DW	0e5dH
	DW	019e9H
	DW	01a2dH
	DW	010e7H
	DW	0355H
	DW	0f787H
	DW	0f1baH
	DW	0f2ccH
	DW	0f86eH
	DW	0febeH
	DW	026fH
	DW	0264H
	DW	00H
	DW	00H
	DW	01cbH
	DW	0555H
	DW	0680H
	DW	023aH
	DW	0f951H
	DW	0f0c4H
	DW	0eef4H
	DW	0f757H
	DW	0763H
	DW	016f4H
	DW	01c72H
	DW	01299H
	DW	0fc6dH
	DW	0e4bcH
	DW	0d8d3H
	DW	0e10fH
	DW	0fb65H
	DW	01b50H
	DW	02fc4H
	DW	02c50H
	DW	01086H
	DW	0e955H
	DW	0cb10H
	DW	0c6d0H
	DW	0e0deH
	DW	0d62H
	DW	035bcH
	DW	0440cH
	DW	02f18H
	DW	00H
	DW	0ce63H
	DW	0b477H
	DW	0c123H
	DW	0ef7eH
	DW	02886H
	DW	04e97H
	DW	04ce4H
	DW	022d5H
	DW	0e51aH
	DW	0b372H
	DW	0a846H
	DW	0ca90H
	DW	09a0H
	DW	0453fH
	DW	05e36H
	DW	046bcH
	DW	0a0bH
	DW	0c708H
	DW	0a073H
	DW	0aaccH
	DW	0e167H
	DW	02881H
	DW	05b6bH
	DW	05f93H
	DW	0326cH
	DW	0eaf9H
	DW	0ae03H
	DW	09b13H
	DW	0bc0cH
	DW	00H
	DW	043e8H
	DW	064c9H
	DW	051d1H
	DW	014f7H
	DW	0cdc1H
	DW	0a0d4H
	DW	0a508H
	DW	0d7baH
	DW	01e67H
	DW	05499H
	DW	05ecdH
	DW	0387aH
	DW	0f60dH
	DW	0b9fdH
	DW	0a2d3H
	DW	0bb93H
	DW	0f67fH
	DW	034b8H
	DW	05678H
	DW	04b63H
	DW	01a76H
	DW	0ddc4H
	DW	0b482H
	DW	0b2ebH
	DW	0d84cH
	DW	01028H
	DW	03d72H
	DW	049bdH
	DW	0305fH
	DW	00H
	DW	0d237H
	DW	0bdf2H
	DW	0cbedH
	DW	0f30eH
	DW	01e11H
	DW	0371dH
	DW	032e9H
	DW	015bfH
	DW	0f030H
	DW	0d5b5H
	DW	0d28dH
	DW	0e619H
	DW	045aH
	DW	01d1dH
	DW	024b0H
	DW	01966H
	DW	034fH
	DW	0eee8H
	DW	0e614H
	DW	0eb4cH
	DW	0f96cH
	DW	0797H
	DW	0ea3H
	DW	0cb7H
	DW	055aH
	DW	0fe54H
	DW	0fbaaH
	DW	0fd55H
	DW	00H
	DW	00H
	DW	02adH
	DW	042aH
	DW	0142H
	DW	0fa2bH
	DW	0f317H
	DW	0f1baH
	DW	0f950H
	DW	07a1H
	DW	0154dH
	DW	01999H
	DW	0fd7H
	DW	0fb0dH
	DW	0e571H
	DW	0db5dH
	DW	0e44cH
	DW	0fdd2H
	DW	01bbbH
	DW	02de5H
	DW	028f5H
	DW	0d3eH
	DW	0e7baH
	DW	0cbfaH
	DW	0c9e7H
	DW	0e4b4H
	DW	0101eH
	DW	035fbH
	DW	04199H
	DW	02b0fH
	DW	0fc51H
	DW	0cce2H
	DW	0b5f5H
	DW	0c4f9H
	DW	0f3d8H
	DW	02b3fH
	DW	04e49H
	DW	049a1H
	DW	01e29H
	DW	0e14fH
	DW	0b270H
	DW	0aa9dH
	DW	0cf27H
	DW	0e39H
	DW	0478fH
	DW	05d0dH
	DW	0429eH
	DW	04fbH
	DW	0c388H
	DW	0a047H
	DW	0ae13H
	DW	0e689H
	DW	02cf4H
	DW	05cf7H
	DW	05d6dH
	DW	02d9fH
	DW	0e5e6H
	DW	0ab30H
	DW	09be8H
	DW	0c023H
	DW	0551H
	DW	047cfH
	DW	06558H
	DW	04ec2H
	DW	0fd2H
	DW	0c913H
	DW	09eeeH
	DW	0a6d6H
	DW	0dc51H
	DW	0237cH
	DW	057a9H
	DW	05e5bH
	DW	034c9H
	DW	0f0f8H
	DW	0b608H
	DW	0a1ebH
	DW	0be1dH
	DW	0fb2fH
	DW	03937H
	DW	05896H
	DW	04a23H
	DW	01687H
	DW	0d91fH
	DW	0b16dH
	DW	0b2daH
	DW	0db35H
	DW	0148dH
	DW	0412bH
	DW	04b04H
	DW	02ea9H
	DW	0fc37H
	DW	0ce3cH
	DW	0bbacH
	DW	0cc62H
	DW	0f5eeH
	DW	021eaH
	DW	03a15H
	DW	033a2H
	DW	013f8H
	DW	0ecd7H
	DW	0d269H
	DW	0d0d4H
	DW	0e6b1H
	DW	06e5H
	DW	0205bH
	DW	0271fH
	DW	019f1H
	DW	01caH
	DW	0ec17H
	DW	0e347H
	DW	0e9c6H
	DW	0f9d0H
	DW	09abH
	DW	0116cH
	DW	0ef5H
	DW	0612H
	DW	0fd3bH
	DW	0f943H
	DW	0fab5H
	DW	0fe50H
	DW	00H
	DW	00H
	DW	01feH
	DW	08fH
	DW	0fb47H
	DW	0f587H
	DW	0f46cH
	DW	0fb0dH
	DW	0797H
	DW	01373H
	DW	016bcH
	DW	0d40H
	DW	0f9f4H
	DW	0e667H
	DW	0de03H
	DW	0e773H
	DW	00H
	DW	01bdcH
	DW	02bd3H
	DW	02598H
	DW	0a27H
	DW	0e66bH
	DW	0cd27H
	DW	0cd17H
	DW	0e86eH
	DW	01295H
	DW	035edH
	DW	03ef6H
	DW	0270aH
	DW	0f8d9H
	DW	0cbb3H
	DW	0b7b6H
	DW	0c8e6H
	DW	0f810H
	DW	02dadH
	DW	04dabH
	DW	04631H
	DW	01989H
	DW	0ddc4H
	DW	0b1c4H
	DW	0ad36H
	DW	0d3cdH
	DW	012a6H
	DW	0498dH
	DW	05b93H
	DW	03e59H
	DW	00H
	DW	0c050H
	DW	0a072H
	DW	0b198H
	DW	0ebb1H
	DW	03131H
	DW	05e2cH
	DW	05af8H
	DW	028b4H
	DW	0e0f2H
	DW	0a8aaH
	DW	09d15H
	DW	0c46fH
	DW	0a9cH
	DW	04b78H
	DW	0658eH
	DW	04b6bH
	DW	0a98H
	DW	0c48fH
	DW	09d5bH
	DW	0a8f8H
	DW	0e114H
	DW	02881H
	DW	05a75H
	DW	05d92H
	DW	030d8H
	DW	0ebd9H
	DW	0b244H
	DW	0a157H
	DW	0c0f6H
	DW	00H
	DW	03d9dH
	DW	05a6bH
	DW	0488fH
	DW	01261H
	DW	0d47aH
	DW	0ae8eH
	DW	0b31cH
	DW	0de64H
	DW	0190cH
	DW	044c4H
	DW	04c02H
	DW	02ca5H
	DW	0f840H
	DW	0ca47H
	DW	0b99fH
	DW	0cd27H
	DW	0f90fH
	DW	025d5H
	DW	03ce9H
	DW	03413H
	DW	011e8H
	DW	0e955H
	DW	0cf28H
	DW	0cf56H
	DW	0e795H
	DW	09a9H
	DW	023a7H
	DW	02968H
	DW	01a37H
	DW	00H
	DW	0e922H
	DW	0e089H
	DW	0e879H
	DW	0fa7dH
	DW	0bf4H
	DW	01440H
	DW	0110cH
	DW	0684H
	DW	0fbdeH
	DW	0f6bbH
	DW	0f824H
	DW	0fcd9H
	DW	048H
	DW	00H
	DW	00H
	DW	024H
	DW	0fca0H
	DW	0f810H
	DW	0f706H
	DW	0fc8aH
	DW	0746H
	DW	0116cH
	DW	013e0H
	DW	0adaH
	DW	0f924H
	DW	0e79cH
	DW	0e0c0H
	DW	0ea7eH
	DW	01ecH
	DW	01bb4H
	DW	02994H
	DW	0223fH
	DW	0745H
	DW	0e567H
	DW	0ce93H
	DW	0d05dH
	DW	0ec08H
	DW	014c4H
	DW	03594H
	DW	03c26H
	DW	0230eH
	DW	0f59cH
	DW	0cad3H
	DW	0b9b8H
	DW	0cce3H
	DW	0fc1fH
	DW	02fccH
	DW	04cc0H
	DW	04298H
	DW	014faH
	DW	0da7cH
	DW	0b16dH
	DW	0b00dH
	DW	0d87bH
	DW	016e1H
	DW	04b38H
	DW	059ccH
	DW	039f2H
	DW	0fb20H
	DW	0bd62H
	DW	0a0f3H
	DW	0b555H
	DW	0f0d7H
	DW	03534H
	DW	05f08H
	DW	05839H
	DW	023afH
	DW	0dc23H
	DW	0a676H
	DW	09e97H
	DW	0c8ecH
	DW	0fdbH
	DW	04edeH
	DW	0656aH
	DW	047cfH
	DW	0550H
	DW	0c039H
	DW	09c1eH
	DW	0ab6cH
	DW	0e5feH
	DW	02d6fH
	DW	05cf7H
	DW	05c70H
	DW	02caaH
	DW	0e6b7H
	DW	0aeb8H
	DW	0a11aH
	DW	0c41aH
	DW	04eeH
	DW	041e3H
	DW	05bf4H
	DW	046a7H
	DW	0e08H
	DW	0cfdbH
	DW	0abebH
	DW	0b3b2H
	DW	0e1d7H
	DW	01d9dH
	DW	04837H
	DW	04cb3H
	DW	02a52H
	DW	0f41eH
	DW	0c661H
	DW	0b7d0H
	DW	0ce3cH
	DW	0fc6bH
	DW	029ccH
	DW	03f93H
	DW	03439H
	DW	0f90H
	DW	0e5b1H
	DW	0cbfaH
	DW	0ce16H
	DW	0e8c5H
	DW	0ca4H
	DW	026f8H
	DW	02b86H
	DW	01a34H
	DW	0fdf3H
	DW	0e60fH
	DW	0dddfH
	DW	0e769H
	DW	0fb73H
	DW	0e6fH
	DW	01717H
	DW	012f8H
	DW	06b0H
	DW	0fa42H
	DW	0f417H
	DW	0f5a9H
	DW	0fba0H
	DW	0d7H
	DW	0215H
	DW	00H
	DW	00H
	DW	01e5H
	DW	055cH
	DW	05afH
	DW	00H
	DW	0f68cH
	DW	0effbH
	DW	0f2ceH
	DW	00H
	DW	010e7H
	DW	01a81H
	DW	01490H
	DW	00H
	DW	0e7d5H
	DW	0db50H
	DW	0e44cH
	DW	00H
	DW	01f29H
	DW	02e77H
	DW	02288H
	DW	00H
	DW	0da32H
	DW	0c846H
	DW	0d706H
	DW	00H
	DW	02c08H
	DW	0405eH
	DW	02ef7H
	DW	00H
	DW	0ce3cH
	DW	0b7b6H
	DW	0cb92H
	DW	00H
	DW	036f2H
	DW	04f68H
	DW	0394fH
	DW	00H
	DW	0c47cH
	DW	0aa5dH
	DW	0c273H
	DW	00H
	DW	03f6bH
	DW	05aeaH
	DW	0411cH
	DW	00H
	DW	0bd62H
	DW	0a0d2H
	DW	0bc0fH
	DW	00H
	DW	04513H
	DW	06263H
	DW	04604H
	DW	00H
	DW	0b93dH
	DW	09b82H
	DW	0b8b1H
	DW	00H
	DW	047a9H
	DW	0657cH
	DW	047cfH
	DW	00H
	DW	0b83eH
	DW	09aa9H
	DW	0b87eH
	DW	00H
	DW	0470fH
	DW	06412H
	DW	0466aH
	DW	00H
	DW	0ba6eH
	DW	09e51H
	DW	0bb78H
	DW	00H
	DW	0434dH
	DW	05e36H
	DW	041e3H
	DW	00H
	DW	0bfb7H
	DW	0a650H
	DW	0c17eH
	DW	00H
	DW	03c8eH
	DW	0542aH
	DW	03a6fH
	DW	00H
	DW	0c7daH
	DW	0b24bH
	DW	0ca4bH
	DW	00H
	DW	0331dH
	DW	04661H
	DW	03062H
	DW	00H
	DW	0d27dH
	DW	0c1bbH
	DW	0d57bH
	DW	00H
	DW	02768H
	DW	03577H
	DW	0242eH
	DW	00H
	DW	0df25H
	DW	0d3efH
	DW	0e28fH
	DW	00H
	DW	019f1H
	DW	0222dH
	DW	0165fH
	DW	00H
	DW	0ed43H
	DW	0e818H
	DW	0f0f2H
	DW	00H
	DW	0b54H
	DW	0d5eH
	DW	0792H
	DW	00H
	DW	0fc36H
	DW	0fd52H
	DW	00H
	DW	00H
	DW	02aeH
	DW	03caH
	DW	00H
	DW	0f86eH
	DW	0f2a2H
	DW	0f4acH
	DW	00H
	DW	0f0eH
	DW	017e8H
	DW	012bdH
	DW	00H
	DW	0e9a1H
	DW	0ddd3H
	DW	0e60fH
	DW	00H
	DW	01d71H
	DW	02c11H
	DW	020dbH
	DW	00H
	DW	0dbd2H
	DW	0ca89H
	DW	0d898H
	DW	00H
	DW	02a85H
	DW	03e45H
	DW	02d83H
	DW	00H
	DW	0cf9eH
	DW	0b99fH
	DW	0cce2H
	DW	00H
	DW	035b5H
	DW	04db5H
	DW	03826H
	DW	00H
	DW	0c591H
	DW	0abd6H
	DW	0c372H
	DW	00H
	DW	03e82H
	DW	059b0H
	DW	04049H
	DW	00H
	DW	0be1dH
	DW	0a1caH
	DW	0bcb2H
	DW	00H
	DW	04488H
	DW	061afH
	DW	04592H
	DW	00H
	DW	0b996H
	DW	09beeH
	DW	0b8f1H
	DW	00H
	DW	04782H
	DW	06557H
	DW	047c2H
	DW	00H
	DW	0b831H
	DW	09a84H
	DW	0b857H
	DW	00H
	DW	0474fH
	DW	0647eH
	DW	046c3H
	DW	00H
	DW	0b9fcH
	DW	09d9dH
	DW	0baedH
	DW	00H
	DW	043f1H
	DW	05f2eH
	DW	0429eH
	DW	00H
	DW	0bee4H
	DW	0a516H
	DW	0c095H
	DW	00H
	DW	03d8dH
	DW	055a3H
	DW	03b84H
	DW	00H
	DW	0c6b1H
	DW	0b098H
	DW	0c90eH
	DW	00H
	DW	0346eH
	DW	0484aH
	DW	031c4H
	DW	00H
	DW	0d109H
	DW	0bfa2H
	DW	0d3f8H
	DW	00H
	DW	028faH
	DW	037baH
	DW	025ceH
	DW	00H
	DW	0dd78H
	DW	0d189H
	DW	0e0d7H
	DW	00H
	DW	01bb4H
	DW	024b0H
	DW	0182bH
	DW	00H
	DW	0eb70H
	DW	0e57fH
	DW	0ef19H
	DW	00H
	DW	0d32H
	DW	01005H
	DW	0974H
	DW	00H
	DW	0fa51H
	DW	0faa4H
	DW	0fe1bH
	DW	00H
	DW	00H
	DW	01e5H
	DW	00H
	DW	0fa51H
	DW	0f54cH
	DW	0f68cH
	DW	00H
	DW	0d32H
	DW	0154aH
	DW	010e7H
	DW	00H
	DW	0eb70H
	DW	0e05cH
	DW	0e7d5H
	DW	00H
	DW	01bb4H
	DW	029a3H
	DW	01f29H
	DW	00H
	DW	0dd78H
	DW	0ccd5H
	DW	0da32H
	DW	00H
	DW	028faH
	DW	03c21H
	DW	02c08H
	DW	00H
	DW	0d109H
	DW	0bb94H
	DW	0ce3cH
	DW	00H
	DW	0346eH
	DW	04bf4H
	DW	036f2H
	DW	00H
	DW	0c6b1H
	DW	0ad5dH
	DW	0c47cH
	DW	00H
	DW	03d8dH
	DW	05866H
	DW	03f6bH
	DW	00H
	DW	0bee4H
	DW	0a2d3H
	DW	0bd62H
	DW	00H
	DW	043f1H
	DW	060ebH
	DW	04513H
	DW	00H
	DW	0b9fcH
	DW	09c6cH
	DW	0b93dH
	DW	00H
	DW	0474fH
	DW	06521H
	DW	047a9H
	DW	00H
	DW	0b831H
	DW	09a72H
	DW	0b83eH
	DW	00H
	DW	04782H
	DW	064d9H
	DW	0470fH
	DW	00H
	DW	0b996H
	DW	09cfcH
	DW	0ba6eH
	DW	00H
	DW	04488H
	DW	06015H
	DW	0434eH
	DW	00H
	DW	0be1dH
	DW	0a3ecH
	DW	0bfb7H
	DW	00H
	DW	03e82H
	DW	0570cH
	DW	03c8eH
	DW	00H
	DW	0c591H
	DW	0aef4H
	DW	0c7daH
	DW	00H
	DW	035b5H
	DW	04a25H
	DW	0331eH
	DW	00H
	DW	0cf9eH
	DW	0bd95H
	DW	0d27cH
	DW	00H
	DW	02a85H
	DW	039f3H
	DW	02768H
	DW	00H
	DW	0dbd2H
	DW	0cf2aH
	DW	0df25H
	DW	00H
	DW	01d71H
	DW	0272dH
	DW	019f1H
	DW	00H
	DW	0e9a1H
	DW	0e2ebH
	DW	0ed43H
	DW	00H
	DW	0f0eH
	DW	012a9H
	DW	0b54H
	DW	00H
	DW	0f86eH
	DW	0f7f7H
	DW	0fc36H
	DW	00H
	DW	00H
	DW	00H
	DW	00H
	DW	0fc36H
	DW	0f7f7H
	DW	0f86eH
	DW	00H
	DW	0b54H
	DW	012a9H
	DW	0f0eH
	DW	00H
	DW	0ed43H
	DW	0e2ebH
	DW	0e9a1H
	DW	00H
	DW	019f1H
	DW	0272dH
	DW	01d71H
	DW	00H
	DW	0df25H
	DW	0cf2aH
	DW	0dbd2H
	DW	00H
	DW	02768H
	DW	039f3H
	DW	02a85H
	DW	00H
	DW	0d27dH
	DW	0bd95H
	DW	0cf9eH
	DW	00H
	DW	0331dH
	DW	04a25H
	DW	035b5H
	DW	00H
	DW	0c7daH
	DW	0aef4H
	DW	0c591H
	DW	00H
	DW	03c8eH
	DW	0570cH
	DW	03e82H
	DW	00H
	DW	0bfb7H
	DW	0a3ecH
	DW	0be1dH
	DW	00H
	DW	0434dH
	DW	06015H
	DW	04488H
	DW	00H
	DW	0ba6eH
	DW	09cfcH
	DW	0b996H
	DW	00H
	DW	0470fH
	DW	064d9H
	DW	04782H
	DW	00H
	DW	0b83eH
	DW	09a72H
	DW	0b831H
	DW	00H
	DW	047a9H
	DW	06521H
	DW	0474fH
	DW	00H
	DW	0b93dH
	DW	09c6cH
	DW	0b9fcH
	DW	00H
	DW	04513H
	DW	060ebH
	DW	043f1H
	DW	00H
	DW	0bd62H
	DW	0a2d3H
	DW	0bee4H
	DW	00H
	DW	03f6bH
	DW	05866H
	DW	03d8eH
	DW	00H
	DW	0c47cH
	DW	0ad5dH
	DW	0c6b1H
	DW	00H
	DW	036f2H
	DW	04bf4H
	DW	0346eH
	DW	00H
	DW	0ce3cH
	DW	0bb94H
	DW	0d109H
	DW	00H
	DW	02c08H
	DW	03c21H
	DW	028faH
	DW	00H
	DW	0da32H
	DW	0ccd5H
	DW	0dd78H
	DW	00H
	DW	01f29H
	DW	029a3H
	DW	01bb4H
	DW	00H
	DW	0e7d6H
	DW	0e05cH
	DW	0eb70H
	DW	00H
	DW	010e7H
	DW	0154aH
	DW	0d32H
	DW	00H
	DW	0f68cH
	DW	0f54cH
	DW	0fa51H
	DW	00H
	DW	01e5H
	DW	00H
	DW	00H
	DW	01feH
	DW	0555H
	DW	04b9H
	DW	0fdc6H
	DW	0f46cH
	DW	0f0c4H
	DW	0f869H
	DW	08a9H
	DW	016bcH
	DW	016f4H
	DW	060cH
	DW	0ed67H
	DW	0de03H
	DW	0e4bcH
	DW	00H
	DW	01ef1H
	DW	02bd3H
	DW	01b50H
	DW	0f5d9H
	DW	0d3b0H
	DW	0cd27H
	DW	0e956H
	DW	01792H
	DW	03930H
	DW	035edH
	DW	0d62H
	DW	0d8f6H
	DW	0bbf4H
	DW	0cbb3H
	DW	00H
	DW	0371aH
	DW	04b89H
	DW	02dadH
	DW	0ef7eH
	DW	0b9cfH
	DW	0b169H
	DW	0ddc4H
	DW	022d5H
	DW	052caH
	DW	04c8eH
	DW	012a6H
	DW	0ca90H
	DW	0a46dH
	DW	0bac1H
	DW	00H
	DW	046bcH
	DW	05f8eH
	DW	038f7H
	DW	0ebb1H
	DW	0aaccH
	DW	0a1d5H
	DW	0d780H
	DW	028b4H
	DW	05f93H
	DW	05756H
	DW	01507H
	DW	0c46fH
	DW	09b13H
	DW	0b488H
	DW	00H
	DW	04b6bH
	DW	064c9H
	DW	03b71H
	DW	0eb08H
	DW	0a8f8H
	DW	0a0d4H
	DW	0d780H
	DW	02846H
	DW	05d92H
	DW	05499H
	DW	01426H
	DW	0c786H
	DW	0a157H
	DW	0b9fdH
	DW	00H
	DW	0446eH
	DW	05a6bH
	DW	034b8H
	DW	0ed9fH
	DW	0b49dH
	DW	0ae8eH
	DW	0ddc4H
	DW	0219dH
	DW	04d15H
	DW	044c4H
	DW	01028H
	DW	0d35bH
	DW	0b643H
	DW	0ca48H
	DW	00H
	DW	032d9H
	DW	0420eH
	DW	025d5H
	DW	0f30eH
	DW	0cbedH
	DW	0c8e3H
	DW	0e956H
	DW	015bfH
	DW	030aaH
	DW	02a4bH
	DW	09a9H
	DW	0e619H
	DW	0d698H
	DW	0e2e3H
	DW	00H
	DW	01966H
	DW	01f77H
	DW	01118H
	DW	0fa7dH
	DW	0eb4cH
	DW	0ebc0H
	DW	0f869H
	DW	0684H
	DW	0cb7H
	DW	0945H
	DW	01acH
	DW	0fcd9H
	DW	0fd55H
	DW	00H
	DW	00H
	DW	02adH
	DW	0360H
	DW	0febeH
	DW	0f706H
	DW	0f317H
	DW	0f8baH
	DW	06b0H
	DW	013e0H
	DW	0154dH
	DW	06dcH
	DW	0f029H
	DW	0e0c0H
	DW	0e571H
	DW	0fe14H
	DW	01bb4H
	DW	02994H
	DW	01bbbH
	DW	0f8bbH
	DW	0d70bH
	DW	0ce93H
	DW	0e7baH
	DW	013f8H
	DW	03619H
	DW	03593H
	DW	0101eH
	DW	0dcf2H
	DW	0be67H
	DW	0cad3H
	DW	0fc51H
	DW	0331eH
	DW	04a0bH
	DW	02fccH
	DW	0f3d8H
	DW	0bd68H
	DW	0b1b7H
	DW	0da7cH
	DW	01e2aH
	DW	04ff3H
	DW	04d90H
	DW	016e1H
	DW	0cf27H
	DW	0a634H
	DW	0b871H
	DW	0fb20H
	DW	0429eH
	DW	05f0dH
	DW	03c77H
	DW	0f0d7H
	DW	0ae13H
	DW	0a0f8H
	DW	0d30cH
	DW	023b0H
	DW	05d6dH
	DW	0598aH
	DW	01a1aH
	DW	0c8ecH
	DW	09be8H
	DW	0b122H
	DW	0faafH
	DW	047cfH
	DW	06558H
	DW	03fc7H
	DW	0f02eH
	DW	0ab6cH
	DW	09eeeH
	DW	0d292H
	DW	023b0H
	DW	05c71H
	DW	057a9H
	DW	01948H
	DW	0cb37H
	DW	0a11aH
	DW	0b608H
	DW	0fb12H
	DW	041e3H
	DW	05bf4H
	DW	03937H
	DW	0f1f8H
	DW	0b5ddH
	DW	0abebH
	DW	0d91fH
	DW	01e2aH
	DW	04d26H
	DW	04837H
	DW	0148dH
	DW	0d5aeH
	DW	0b4fcH
	DW	0c661H
	DW	0fc38H
	DW	031c4H
	DW	04454H
	DW	029ccH
	DW	0f5eeH
	DW	0cbc7H
	DW	0c5ebH
	DW	0e5b1H
	DW	013f9H
	DW	031eaH
	DW	02d97H
	DW	0ca4H
	DW	0e6b1H
	DW	0d47aH
	DW	0dfa5H
	DW	0fdf3H
	DW	019f1H
	DW	02221H
	DW	013e9H
	DW	0fb73H
	DW	0e9c6H
	DW	0e8e9H
	DW	0f656H
	DW	06b0H
	DW	0ef5H
	DW	0be9H
	DW	02c5H
	DW	0fba0H
	DW	0fab5H
	DW	0fdebH
	DW	00H
	DW	00H
	DW	01cbH
	DW	0ff71H
	DW	0f980H
	DW	0f587H
	DW	0f951H
	DW	04f3H
	DW	0110cH
	DW	01373H
	DW	0763H
	DW	0f2c0H
	DW	0e38eH
	DW	0e667H
	DW	0fc6dH
	DW	0188dH
	DW	0272dH
	DW	01bdcH
	DW	0fb65H
	DW	0da68H
	DW	0d03cH
	DW	0e66bH
	DW	01086H
	DW	032e9H
	DW	034f0H
	DW	01295H
	DW	0e0ddH
	DW	0c10aH
	DW	0ca44H
	DW	0f8d9H
	DW	02f18H
	DW	0484aH
	DW	0319dH
	DW	0f810H
	DW	0c123H
	DW	0b255H
	DW	0d77aH
	DW	01989H
	DW	04ce4H
	DW	04e3cH
	DW	01ae6H
	DW	0d3cdH
	DW	0a846H
	DW	0b673H
	DW	0f660H
	DW	03e59H
	DW	05e36H
	DW	03fb0H
	DW	0f5f5H
	DW	0b197H
	DW	0a073H
	DW	0cecfH
	DW	01e99H
	DW	05af8H
	DW	05b6bH
	DW	01f0eH
	DW	0cd94H
	DW	09d15H
	DW	0ae03H
	DW	0f564H
	DW	043f4H
	DW	0658eH
	DW	043e8H
	DW	0f568H
	DW	0ae2fH
	DW	09d5bH
	DW	0cdc1H
	DW	01eedH
	DW	05af8H
	DW	05a75H
	DW	01e67H
	DW	0cf28H
	DW	0a133H
	DW	0b245H
	DW	0f60dH
	DW	03f0aH
	DW	05d2dH
	DW	03d9dH
	DW	0f67fH
	DW	0b771H
	DW	0a988H
	DW	0d47aH
	DW	01a77H
	DW	04ce4H
	DW	04b7eH
	DW	0190cH
	DW	0d84cH
	DW	0b3feH
	DW	0c28eH
	DW	0f840H
	DW	0305fH
	DW	04661H
	DW	02dc8H
	DW	0f90fH
	DW	0cbedH
	DW	0c317H
	DW	0e1efH
	DW	011e8H
	DW	032e9H
	DW	030d8H
	DW	0fd0H
	DW	0e795H
	DW	0d28dH
	DW	0dc5aH
	DW	0fba6H
	DW	01a37H
	DW	024b0H
	DW	016deH
	DW	0fcb1H
	DW	0e879H
	DW	0e614H
	DW	0f40cH
	DW	0694H
	DW	0110cH
	DW	0ea3H
	DW	0421H
	DW	0faa6H
	DW	0f824H
	DW	0fbaaH
	DW	0ffb8H
	DW	00H
	DW	00H
	DW	0ffdcH
	DW	0fbd6H
	DW	0f810H
	DW	0fa2bH
	DW	0376H
	DW	0e46H
	DW	0116cH
	DW	07a1H
	DW	0f526H
	DW	0e667H
	DW	0e79cH
	DW	0fb0dH
	DW	01582H
	DW	024a3H
	DW	01bb4H
	DW	0fdd2H
	DW	0ddc1H
	DW	0d21bH
	DW	0e567H
	DW	0d3eH
	DW	02fa3H
	DW	03406H
	DW	014c4H
	DW	0e4b4H
	DW	0c3daH
	DW	0ca05H
	DW	0f59cH
	DW	02b0fH
	DW	04648H
	DW	0331dH
	DW	0fc1fH
	DW	0c4f9H
	DW	0b340H
	DW	0d4c1H
	DW	014faH
	DW	049a1H
	DW	04e93H
	DW	01eb0H
	DW	0d87bH
	DW	0aa9dH
	DW	0b4c8H
	DW	0f1c7H
	DW	039f2H
	DW	05d0dH
	DW	0429eH
	DW	0fb05H
	DW	0b554H
	DW	0a047H
	DW	0caccH
	DW	01977H
	DW	05839H
	DW	05cf7H
	DW	023ddH
	DW	0d260H
	DW	09e97H
	DW	0ab30H
	DW	0f026H
	DW	03fdeH
	DW	0656aH
	DW	047cfH
	DW	0fab0H
	DW	0b13eH
	DW	09c1eH
	DW	0c913H
	DW	01a03H
	DW	0592aH
	DW	05cf7H
	DW	0237cH
	DW	0d355H
	DW	0a1a5H
	DW	0aeb8H
	DW	0f0f8H
	DW	03be6H
	DW	05e15H
	DW	041e3H
	DW	0fb2eH
	DW	0b958H
	DW	0a76aH
	DW	0cfdbH
	DW	01688H
	DW	04c4eH
	DW	04e93H
	DW	01d9dH
	DW	0db34H
	DW	0b34dH
	DW	0bed5H
	DW	0f41eH
	DW	02ea9H
	DW	04830H
	DW	031c4H
	DW	0fc6bH
	DW	0cc62H
	DW	0c06dH
	DW	0de16H
	DW	0f90H
	DW	033a2H
	DW	03406H
	DW	01329H
	DW	0e8c5H
	DW	0d0d4H
	DW	0d908H
	DW	0f91bH
	DW	01a34H
	DW	0271fH
	DW	019f1H
	DW	0fe36H
	DW	0e769H
	DW	0e347H
	DW	0f191H
	DW	0630H
	DW	012f8H
	DW	0116cH
	DW	05beH
	DW	0f9eeH
	DW	0f5a9H
	DW	0f943H
	DW	0ff29H
	DW	01b0H
	DW	00H
	DW	00H
	DW	022bH
	DW	0519H
	DW	027cH
	DW	0f9b5H
	DW	0f2a2H
	DW	0f695H
	DW	05c4H
	DW	01440H
	DW	01357H
	DW	00H
	DW	0e879H
	DW	0e1e9H
	DW	0f570H
	DW	01591H
	DW	0272dH
	DW	01879H
	DW	0f262H
	DW	0d3cfH
	DW	0d87eH
	DW	00H
	DW	02b41H
	DW	03500H
	DW	011e8H
	DW	0dca8H
	DW	0c1bbH
	DW	0da2bH
	DW	01486H
	DW	04113H
	DW	038f0H
	DW	00H
	DW	0c404H
	DW	0b7c4H
	DW	0e7fdH
	DW	02eacH
	DW	0510cH
	DW	03093H
	DW	0e5feH
	DW	0ae8eH
	DW	0b994H
	DW	00H
	DW	0488fH
	DW	05677H
	DW	01c74H
	DW	0c93bH
	DW	0a1caH
	DW	0c80eH
	DW	01db1H
	DW	05c2dH
	DW	04f07H
	DW	00H
	DW	0afe5H
	DW	0a14cH
	DW	0e114H
	DW	03b12H
	DW	064d9H
	DW	03b71H
	DW	0e0afH
	DW	09f7cH
	DW	0add7H
	DW	00H
	DW	0521aH
	DW	06062H
	DW	01f40H
	DW	0c4b9H
	DW	09b82H
	DW	0c52eH
	DW	01ec5H
	DW	05e2bH
	DW	04f98H
	DW	00H
	DW	0b198H
	DW	0a49fH
	DW	0e296H
	DW	03760H
	DW	05d2dH
	DW	0361fH
	DW	0e3e8H
	DW	0aab4H
	DW	0b87cH
	DW	00H
	DW	04548H
	DW	0500cH
	DW	01989H
	DW	0d05cH
	DW	0b098H
	DW	0d253H
	DW	01778H
	DW	04684H
	DW	03a7bH
	DW	00H
	DW	0c8a5H
	DW	0c0d5H
	DW	0ec1cH
	DW	0249aH
	DW	03c21H
	DW	02210H
	DW	0eec8H
	DW	0cd27H
	DW	0d69bH
	DW	00H
	DW	02598H
	DW	029e9H
	DW	0cdeH
	DW	0e8f9H
	DW	0db50H
	DW	0ebe9H
	DW	09c7H
	DW	01ba8H
	DW	01571H
	DW	00H
	DW	0eec7H
	DW	0ee40H
	DW	0fb0dH
	DW	07dbH
	DW	0ab4H
	DW	04b9H
	DW	0fe58H
	DW	0fd73H
	DW	00H
	DW	00H
	DW	02a6H
	DW	026fH
	DW	0fc5aH
	DW	0f56dH
	DW	0f68cH
	DW	0282H
	DW	010a1H
	DW	012f8H
	DW	03bdH
	DW	0ed43H
	DW	0e347H
	DW	0f1a3H
	DW	0f84H
	DW	0243dH
	DW	01bb4H
	DW	0f97dH
	DW	0d8bdH
	DW	0d699H
	DW	0f85cH
	DW	0242eH
	DW	034cfH
	DW	0194dH
	DW	0e5b1H
	DW	0c49cH
	DW	0d3f8H
	DW	0a12H
	DW	03b2eH
	DW	03cf7H
	DW	0b03H
	DW	0cce3H
	DW	0b6c4H
	DW	0dd85H
	DW	02347H
	DW	04e6dH
	DW	0394fH
	DW	0f313H
	DW	0b502H
	DW	0b3b2H
	DW	0f262H
	DW	03e82H
	DW	05896H
	DW	02946H
	DW	0d633H
	DW	0a3f8H
	DW	0bd62H
	DW	0ee4H
	DW	0559cH
	DW	0565bH
	DW	0f48H
	DW	0ba6eH
	DW	09e34H
	DW	0d2cbH
	DW	02d6eH
	DW	06342H
	DW	0474fH
	DW	0f02eH
	DW	0a5b4H
	DW	0a594H
	DW	0f01dH
	DW	047cfH
	DW	0643cH
	DW	02e02H
	DW	0d217H
	DW	09c65H
	DW	0b8f1H
	DW	0fa7H
	DW	058baH
	DW	05839H
	DW	0f64H
	DW	0baedH
	DW	0a047H
	DW	0d461H
	DW	02b36H
	DW	05d0dH
	DW	041e3H
	DW	0f199H
	DW	0aeffH
	DW	0b016H
	DW	0f22cH
	DW	03d8dH
	DW	05495H
	DW	02636H
	DW	0da7cH
	DW	0aff3H
	DW	0c7daH
	DW	0c28H
	DW	043acH
	DW	04211H
	DW	0b4fH
	DW	0ce3cH
	DW	0bc6cH
	DW	0e1d9H
	DW	01d39H
	DW	03d81H
	DW	02a85H
	DW	0f6efH
	DW	0ce59H
	DW	0d05dH
	DW	0f7ffH
	DW	02288H
	DW	02de5H
	DW	01402H
	DW	0ed19H
	DW	0d94eH
	DW	0e60fH
	DW	0559H
	DW	01c31H
	DW	019e9H
	DW	0425H
	DW	0ef19H
	DW	0eaf9H
	DW	0f787H
	DW	0746H
	DW	0d34H
	DW	0792H
	DW	0febeH
	DW	0fb39H
	DW	0fd9cH
	DW	00H
	DW	00H
	DW	0193H
	DW	0fe58H
	DW	0f85cH
	DW	0f757H
	DW	00H
	DW	0cf6H
	DW	011c0H
	DW	0694H
	DW	0f1f3H
	DW	0e57fH
	DW	0eee8H
	DW	09c7H
	DW	02081H
	DW	01dafH
	DW	00H
	DW	0de51H
	DW	0d617H
	DW	0f1a4H
	DW	01cb4H
	DW	0332bH
	DW	01f6dH
	DW	0eec8H
	DW	0c8e3H
	DW	0cf5bH
	DW	00H
	DW	03413H
	DW	03f2bH
	DW	01525H
	DW	0d6a2H
	DW	0b7b6H
	DW	0d46bH
	DW	01778H
	DW	049e7H
	DW	0403dH
	DW	00H
	DW	0bd25H
	DW	0aff4H
	DW	0e589H
	DW	0332aH
	DW	05866H
	DW	034b8H
	DW	0e3e8H
	DW	0a86eH
	DW	0b49eH
	DW	00H
	DW	04d01H
	DW	05b61H
	DW	01df3H
	DW	0c695H
	DW	09d9dH
	DW	0c5cdH
	DW	01ec5H
	DW	05f2cH
	DW	0514dH
	DW	00H
	DW	0ae2fH
	DW	09f9eH
	DW	0e0a4H
	DW	03bb1H
	DW	0658eH
	DW	03ba6H
	DW	0e0afH
	DW	09fd2H
	DW	0ae6aH
	DW	00H
	DW	050f5H
	DW	05eb4H
	DW	01e99H
	DW	0c62cH
	DW	09e51H
	DW	0c708H
	DW	01db1H
	DW	05a86H
	DW	04c38H
	DW	00H
	DW	0b582H
	DW	0a989H
	DW	0e449H
	DW	033f6H
	DW	0570cH
	DW	03256H
	DW	0e5feH
	DW	0b169H
	DW	0be6eH
	DW	00H
	DW	03eddH
	DW	0483cH
	DW	016eaH
	DW	0d583H
	DW	0b99fH
	DW	0d7c8H
	DW	01486H
	DW	03d37H
	DW	03261H
	DW	00H
	DW	0d11eH
	DW	0cb00H
	DW	0ef7aH
	DW	01e13H
	DW	030d6H
	DW	01b50H
	DW	0f262H
	DW	0d867H
	DW	0e04eH
	DW	00H
	DW	01ba6H
	DW	01e17H
	DW	08fdH
	DW	0f06cH
	DW	0e818H
	DW	0f37cH
	DW	05c4H
	DW	0f3cH
	DW	0ad0H
	DW	00H
	DW	0f980H
	DW	0fae7H
	DW	0ff2cH
	DW	00H
	DW	00H
	DW	0ff95H
	DW	0fb39H
	DW	0f8d7H
	DW	0fe53H
	DW	0974H
	DW	0fd3H
	DW	0879H
	DW	0f656H
	DW	0e864H
	DW	0ed43H
	DW	048dH
	DW	01c31H
	DW	01e73H
	DW	05bdH
	DW	0e44cH
	DW	0d6e1H
	DW	0ebffH
	DW	01518H
	DW	0303cH
	DW	0242eH
	DW	0f7a3H
	DW	0ce59H
	DW	0cc5eH
	DW	0f698H
	DW	02c08H
	DW	03f93H
	DW	01e27H
	DW	0e0f0H
	DW	0ba7dH
	DW	0cce2H
	DW	0b99H
	DW	043adH
	DW	0453cH
	DW	0c6cH
	DW	0c6b1H
	DW	0ae62H
	DW	0d9caH
	DW	026e1H
	DW	055faH
	DW	03e82H
	DW	0f1f8H
	DW	0aeffH
	DW	0adf5H
	DW	0f16cH
	DW	0429eH
	DW	05e02H
	DW	02b9fH
	DW	0d400H
	DW	09f84H
	DW	0ba6eH
	DW	0f7dH
	DW	058baH
	DW	0592aH
	DW	0fb9H
	DW	0b8b1H
	DW	09c1eH
	DW	0d1feH
	DW	02e12H
	DW	0644eH
	DW	047cfH
	DW	0f020H
	DW	0a5b4H
	DW	0a5e5H
	DW	0f039H
	DW	0470fH
	DW	062d7H
	DW	02d35H
	DW	0d30cH
	DW	09ed4H
	DW	0baedH
	DW	0f29H
	DW	0559cH
	DW	054ceH
	DW	0ebdH
	DW	0be1dH
	DW	0a50eH
	DW	0d6baH
	DW	028b8H
	DW	05750H
	DW	03d8eH
	DW	0f29bH
	DW	0b502H
	DW	0b65fH
	DW	0f352H
	DW	03826H
	DW	04cc0H
	DW	0227bH
	DW	0de57H
	DW	0b89aH
	DW	0ce3cH
	DW	0ab4H
	DW	03b2eH
	DW	0395aH
	DW	09beH
	DW	0d57bH
	DW	0c6c4H
	DW	0e6b3H
	DW	01846H
	DW	0328aH
	DW	02288H
	DW	0f8bbH
	DW	0d8bdH
	DW	0dae7H
	DW	0f9dfH
	DW	019f1H
	DW	021c1H
	DW	0e5dH
	DW	0f2ccH
	DW	0e5d3H
	DW	0ef19H
	DW	0355H
	DW	010a1H
	DW	0e46H
	DW	0217H
	DW	0f86eH
	DW	0f810H
	DW	0fd91H
	DW	0138H
	DW	00H
	DW	00H
	DW	0252H
	DW	04a4H
	DW	00H
	DW	0f6bbH
	DW	0f46cH
	DW	00H
	DW	01029H
	DW	01270H
	DW	00H
	DW	0e90cH
	DW	0e6d1H
	DW	00H
	DW	01d99H
	DW	01fc6H
	DW	00H
	DW	0dbf1H
	DW	0d9d6H
	DW	00H
	DW	02a4bH
	DW	02c50H
	DW	00H
	DW	0cfbdH
	DW	0cdd1H
	DW	00H
	DW	035edH
	DW	037beH
	DW	00H
	DW	0c4bfH
	DW	0c30dH
	DW	00H
	DW	04036H
	DW	041c7H
	DW	00H
	DW	0bb3cH
	DW	0b9cfH
	DW	00H
	DW	048e4H
	DW	04a2aH
	DW	00H
	DW	0b372H
	DW	0b254H
	DW	00H
	DW	04fbeH
	DW	050b2H
	DW	00H
	DW	0ad92H
	DW	0accaH
	DW	00H
	DW	05499H
	DW	05534H
	DW	00H
	DW	0a9c3H
	DW	0a956H
	DW	00H
	DW	05756H
	DW	05795H
	DW	00H
	DW	0a81dH
	DW	0a80dH
	DW	00H
	DW	057e3H
	DW	057c4H
	DW	00H
	DW	0a8aaH
	DW	0a8f8H
	DW	00H
	DW	0563dH
	DW	055c0H
	DW	00H
	DW	0ab67H
	DW	0ac11H
	DW	00H
	DW	0526eH
	DW	05197H
	DW	00H
	DW	0b042H
	DW	0b144H
	DW	00H
	DW	04c8eH
	DW	04b63H
	DW	00H
	DW	0b71cH
	DW	0b86fH
	DW	00H
	DW	044c4H
	DW	0434cH
	DW	00H
	DW	0bfcaH
	DW	0c166H
	DW	00H
	DW	03b41H
	DW	03985H
	DW	00H
	DW	0ca13H
	DW	0cbedH
	DW	00H
	DW	03043H
	DW	02e4dH
	DW	00H
	DW	0d5b5H
	DW	0d7c2H
	DW	00H
	DW	0240fH
	DW	021edH
	DW	00H
	DW	0e267H
	DW	0e499H
	DW	00H
	DW	016f4H
	DW	014b4H
	DW	00H
	DW	0efd7H
	DW	0f220H
	DW	00H
	DW	0945H
	DW	06f5H
	DW	00H
	DW	0fdaeH
	DW	00H
	DW	00H
	DW	0297H
	DW	0163H
	DW	0fa51H
	DW	0f5a9H
	DW	0fc8aH
	DW	0b54H
	DW	01207H
	DW	0583H
	DW	0ef19H
	DW	0e667H
	DW	0f879H
	DW	0165fH
	DW	02103H
	DW	097fH
	DW	0e44cH
	DW	0d7c8H
	DW	0f498H
	DW	020dbH
	DW	02f2cH
	DW	0d3eH
	DW	0da32H
	DW	0ca2cH
	DW	0f100H
	DW	02a85H
	DW	03c26H
	DW	010a9H
	DW	0d109H
	DW	0bde9H
	DW	0edc9H
	DW	0331eH
	DW	0479fH
	DW	013a8H
	DW	0c90eH
	DW	0b34dH
	DW	0eb06H
	DW	03a6fH
	DW	0514cH
	DW	0162aH
	DW	0c273H
	DW	0aa9dH
	DW	0e8c9H
	DW	04049H
	DW	058f1H
	DW	0181eH
	DW	0bd62H
	DW	0a410H
	DW	0e722H
	DW	04488H
	DW	05e5bH
	DW	01977H
	DW	0b9fcH
	DW	09fd1H
	DW	0e61aH
	DW	0470fH
	DW	06169H
	DW	01a2dH
	DW	0b857H
	DW	09dfaH
	DW	0e5b7H
	DW	047cfH
	DW	06206H
	DW	01a3bH
	DW	0b87eH
	DW	09e97H
	DW	0e5feH
	DW	046c3H
	DW	0602fH
	DW	019a1H
	DW	0ba6eH
	DW	0a1a5H
	DW	0e6eaH
	DW	043f1H
	DW	05bf0H
	DW	01862H
	DW	0be1dH
	DW	0a70fH
	DW	0e878H
	DW	03f6bH
	DW	05563H
	DW	01688H
	DW	0c372H
	DW	0aeb4H
	DW	0ea9dH
	DW	0394fH
	DW	04cb3H
	DW	0141dH
	DW	0ca4bH
	DW	0b861H
	DW	0ed4aH
	DW	031c4H
	DW	04217H
	DW	01131H
	DW	0d27dH
	DW	0c3daH
	DW	0f070H
	DW	028faH
	DW	035d4H
	DW	0dd7H
	DW	0dbd2H
	DW	0d0d4H
	DW	0f3f9H
	DW	01f29H
	DW	02838H
	DW	0a24H
	DW	0e60fH
	DW	0defdH
	DW	0f7d0H
	DW	01490H
	DW	01999H
	DW	0630H
	DW	0f0f2H
	DW	0edf9H
	DW	0fbdbH
	DW	0974H
	DW	0a57H
	DW	0214H
	DW	0fc36H
	DW	0fd69H
	DW	00H
	DW	00H
	DW	0157H
	DW	0fd52H
	DW	0f7f7H
	DW	0faa6H
	DW	06afH
	DW	01005H
	DW	0955H
	DW	0f55bH
	DW	0e818H
	DW	0f2c0H
	DW	0e8aH
	DW	01fa4H
	DW	01117H
	DW	0eda8H
	DW	0d8d3H
	DW	0eb2fH
	DW	01608H
	DW	02e77H
	DW	0186bH
	DW	0e66bH
	DW	0ca89H
	DW	0e423H
	DW	01cf9H
	DW	03c21H
	DW	01f23H
	DW	0dfd1H
	DW	0bd95H
	DW	0ddcaH
	DW	02331H
	DW	0484aH
	DW	02513H
	DW	0da06H
	DW	0b24bH
	DW	0d84cH
	DW	02886H
	DW	052a3H
	DW	02a15H
	DW	0d52eH
	DW	0a8f4H
	DW	0d3cdH
	DW	02cd8H
	DW	05aeaH
	DW	02e0aH
	DW	0d169H
	DW	0a1caH
	DW	0d069H
	DW	0300bH
	DW	060ebH
	DW	030d8H
	DW	0cecfH
	DW	09cfcH
	DW	0ce36H
	DW	03209H
	DW	0647eH
	DW	0326cH
	DW	0cd6fH
	DW	09aa9H
	DW	0cd42H
	DW	032c7H
	DW	0658eH
	DW	032beH
	DW	0cd54H
	DW	09adfH
	DW	0cd94H
	DW	0323fH
	DW	06412H
	DW	031caH
	DW	0ce7eH
	DW	09d9dH
	DW	0cf28H
	DW	03075H
	DW	06015H
	DW	02f97H
	DW	0d0e5H
	DW	0a2d3H
	DW	0d1f6H
	DW	02d75H
	DW	059b0H
	DW	02c33H
	DW	0d47aH
	DW	0aa5dH
	DW	0d5ebH
	DW	02951H
	DW	0510cH
	DW	027b4H
	DW	0d926H
	DW	0b40cH
	DW	0daedH
	DW	02425H
	DW	04661H
	DW	02236H
	DW	0decbH
	DW	0bfa2H
	DW	0e0ddH
	DW	01e11H
	DW	039f3H
	DW	01bddH
	DW	0e544H
	DW	0ccd5H
	DW	0e795H
	DW	0173cH
	DW	02c11H
	DW	014d1H
	DW	0ec6aH
	DW	0db50H
	DW	0eee9H
	DW	0fd2H
	DW	01d15H
	DW	0d40H
	DW	0f40cH
	DW	0eab6H
	DW	0f6abH
	DW	0803H
	DW	0d5eH
	DW	055aH
	DW	0fbfbH
	DW	0faa4H
	DW	0fea9H
	DW	00H
	DW	00H
	DW	0ff4eH
	DW	0fad3H
	DW	0fa51H
	DW	02c5H
	DW	0ce9H
	DW	0b54H
	DW	0fb2bH
	DW	0eb6fH
	DW	0ef19H
	DW	06dcH
	DW	01c17H
	DW	0165fH
	DW	0f728H
	DW	0dc90H
	DW	0e44cH
	DW	0ac7H
	DW	02a91H
	DW	020dbH
	DW	0f35cH
	DW	0ce93H
	DW	0da32H
	DW	0e6cH
	DW	037f9H
	DW	02a85H
	DW	0efe2H
	DW	0c1d4H
	DW	0d109H
	DW	011b5H
	DW	043fbH
	DW	0331eH
	DW	0eccfH
	DW	0b6a3H
	DW	0c90eH
	DW	0148dH
	DW	04e49H
	DW	03a6fH
	DW	0ea37H
	DW	0ad48H
	DW	0c273H
	DW	016e1H
	DW	056a2H
	DW	04049H
	DW	0e82bH
	DW	0a5ffH
	DW	0bd62H
	DW	018a2H
	DW	05ccfH
	DW	04488H
	DW	0e6b8H
	DW	0a0f8H
	DW	0b9fcH
	DW	019c6H
	DW	060a9H
	DW	0470fH
	DW	0e5e6H
	DW	09e51H
	DW	0b857H
	DW	01a44H
	DW	06218H
	DW	047cfH
	DW	0e5bcH
	DW	09e1dH
	DW	0b87eH
	DW	01a1aH
	DW	06112H
	DW	046c3H
	DW	0e63aH
	DW	0a05cH
	DW	0ba6eH
	DW	01948H
	DW	05d9eH
	DW	043f1H
	DW	0e75eH
	DW	0a500H
	DW	0be1dH
	DW	017d5H
	DW	057d1H
	DW	03f6bH
	DW	0e91fH
	DW	0abebH
	DW	0c372H
	DW	015c9H
	DW	04fd2H
	DW	0394fH
	DW	0eb73H
	DW	0b4f1H
	DW	0ca4bH
	DW	01331H
	DW	045d3H
	DW	031c4H
	DW	0ee4aH
	DW	0bfd9H
	DW	0d27dH
	DW	0101eH
	DW	03a15H
	DW	028faH
	DW	0f194H
	DW	0cc5bH
	DW	0dbd2H
	DW	0ca4H
	DW	02ce2H
	DW	01f29H
	DW	0f539H
	DW	0da29H
	DW	0e60fH
	DW	08d8H
	DW	01e90H
	DW	01490H
	DW	0f924H
	DW	0e8e9H
	DW	0f0f2H
	DW	04d5H
	DW	0f79H
	DW	0974H
	DW	0fd3bH
	DW	0f83dH
	DW	0fc36H
	DW	0b2H
	DW	00H
	DW	00H
	DW	0273H
	DW	03fcH
	DW	0fd84H
	DW	0f55bH
	DW	0f951H
	DW	096bH
	DW	01241H
	DW	046dH
	DW	0eca9H
	DW	0e90cH
	DW	030aH
	DW	01e17H
	DW	016deH
	DW	0f114H
	DW	0d8d3H
	DW	0ef11H
	DW	01d7cH
	DW	02c31H
	DW	051bH
	DW	0d3b0H
	DW	0d4bfH
	DW	0b96H
	DW	038afH
	DW	02358H
	DW	0e0ddH
	DW	0bffdH
	DW	0eb7aH
	DW	032d9H
	DW	0404bH
	DW	00H
	DW	0bc44H
	DW	0c78fH
	DW	01803H
	DW	04ef8H
	DW	02886H
	DW	0cf6dH
	DW	0adacH
	DW	0ee32H
	DW	0466dH
	DW	04c8eH
	DW	0f6a0H
	DW	0a989H
	DW	0c263H
	DW	025e6H
	DW	05e36H
	DW	026b6H
	DW	0bfb5H
	DW	0a3d3H
	DW	0f5caH
	DW	05534H
	DW	0501bH
	DW	0eb4cH
	DW	09e1eH
	DW	0c4efH
	DW	0326dH
	DW	06493H
	DW	01f51H
	DW	0b495H
	DW	0a33aH
	DW	00H
	DW	05cb6H
	DW	04b50H
	DW	0e0c0H
	DW	09bb5H
	DW	0cdc1H
	DW	03ad2H
	DW	06167H
	DW	01496H
	DW	0b068H
	DW	0ab67H
	DW	0a22H
	DW	05b61H
	DW	03fb0H
	DW	0d9aeH
	DW	0a2d3H
	DW	0da8dH
	DW	03cd6H
	DW	0554cH
	DW	093dH
	DW	0b49dH
	DW	0bab8H
	DW	01180H
	DW	050d5H
	DW	02fa3H
	DW	0d84cH
	DW	0b2b8H
	DW	0e888H
	DW	0371aH
	DW	0420aH
	DW	00H
	DW	0c17eH
	DW	0cea5H
	DW	013e4H
	DW	03deeH
	DW	01e10H
	DW	0ddf0H
	DW	0c97eH
	DW	0f4e2H
	DW	02965H
	DW	02a4bH
	DW	0fb24H
	DW	0d617H
	DW	0e424H
	DW	0fefH
	DW	024b0H
	DW	0de6H
	DW	0ead4H
	DW	0e458H
	DW	0fd3bH
	DW	014b4H
	DW	01139H
	DW	0fc1fH
	DW	0f054H
	DW	0f825H
	DW	055aH
	DW	07feH
	DW	01a8H
	DW	0fe02H
	DW	00H
	DW	00H
	DW	0281H
	DW	048H
	DW	0f8d7H
	DW	0f7aeH
	DW	0376H
	DW	0fd3H
	DW	0a2aH
	DW	0f467H
	DW	0e864H
	DW	0f924H
	DW	0169aH
	DW	01c31H
	DW	0fe36H
	DW	0ddc0H
	DW	0e44cH
	DW	0eecH
	DW	02c02H
	DW	01518H
	DW	0e145H
	DW	0ce93H
	DW	0f7a3H
	DW	02ebcH
	DW	03099H
	DW	0f698H
	DW	0c3daH
	DW	0d77eH
	DW	01e27H
	DW	04454H
	DW	01939H
	DW	0cce2H
	DW	0bac7H
	DW	0fc06H
	DW	0453cH
	DW	03db5H
	DW	0eb06H
	DW	0ae62H
	DW	0d229H
	DW	02ea4H
	DW	055faH
	DW	016e1H
	DW	0ba4cH
	DW	0aeffH
	DW	04d2H
	DW	056fdH
	DW	0429eH
	DW	0dde4H
	DW	0a00dH
	DW	0d400H
	DW	03d7aH
	DW	05f08H
	DW	0f7dH
	DW	0ac7dH
	DW	0ac13H
	DW	0fb9H
	DW	06169H
	DW	03fa4H
	DW	0d1feH
	DW	09aa8H
	DW	0db9bH
	DW	047cfH
	DW	05ebeH
	DW	054eH
	DW	0a5e5H
	DW	0b1a1H
	DW	01a03H
	DW	062d7H
	DW	0363cH
	DW	0ca12H
	DW	09ed4H
	DW	0e6b8H
	DW	04b52H
	DW	0559cH
	DW	0fb05H
	DW	0a80cH
	DW	0be1dH
	DW	02100H
	DW	05acaH
	DW	028b8H
	DW	0c85eH
	DW	0abebH
	DW	0f29bH
	DW	04696H
	DW	0454eH
	DW	0f352H
	DW	0b34dH
	DW	0cf19H
	DW	0227bH
	DW	04a0bH
	DW	019e8H
	DW	0ce3cH
	DW	0c01fH
	DW	0fc86H
	DW	0395aH
	DW	03064H
	DW	0f070H
	DW	0c6c4H
	DW	0e1a6H
	DW	01d1fH
	DW	0328aH
	DW	0ca3H
	DW	0dbe3H
	DW	0d8bdH
	DW	022eH
	DW	02493H
	DW	019f1H
	DW	0f3c1H
	DW	0e067H
	DW	0f2ccH
	DW	010aeH
	DW	01717H
	DW	0355H
	DW	0f059H
	DW	0f290H
	DW	0217H
	DW	0a57H
	DW	050fH
	DW	0fd91H
	DW	0fd53H
	DW	00H
	DW	00H
	DW	0117H
	DW	0fc6aH
	DW	0f85cH
	DW	0fee2H
	DW	0b94H
	DW	0cf6H
	DW	0fc1fH
	DW	0eb2dH
	DW	0f1f3H
	DW	0d40H
	DW	01cecH
	DW	09c7H
	DW	0e69aH
	DW	0de7cH
	DW	00H
	DW	02609H
	DW	020bfH
	DW	0f1a4H
	DW	0cf6fH
	DW	0e66bH
	DW	01f6dH
	DW	03682H
	DW	0c0cH
	DW	0cf5bH
	DW	0ca13H
	DW	06baH
	DW	03f2bH
	DW	02dc9H
	DW	0e360H
	DW	0b7b6H
	DW	0e1d8H
	DW	032d2H
	DW	049e7H
	DW	084dH
	DW	0b9cfH
	DW	0bd25H
	DW	01180H
	DW	053c4H
	DW	0332aH
	DW	0d3cdH
	DW	0a6ceH
	DW	0e3e8H
	DW	0446eH
	DW	0551fH
	DW	00H
	DW	0a90cH
	DW	0b899H
	DW	01df3H
	DW	06126H
	DW	03131H
	DW	0c5cdH
	DW	09e99H
	DW	0eb32H
	DW	0514dH
	DW	05756H
	DW	0f56eH
	DW	09f9eH
	DW	0bc18H
	DW	0294eH
	DW	0658eH
	DW	02947H
	DW	0bc30H
	DW	09fd2H
	DW	0f576H
	DW	05708H
	DW	050f5H
	DW	0eb4cH
	DW	09f26H
	DW	0c62cH
	DW	030d8H
	DW	06063H
	DW	01db1H
	DW	0b944H
	DW	0a9efH
	DW	00H
	DW	0541eH
	DW	04390H
	DW	0e449H
	DW	0a816H
	DW	0d47aH
	DW	03256H
	DW	05254H
	DW	0112eH
	DW	0be6eH
	DW	0bb3cH
	DW	0820H
	DW	0483cH
	DW	0319dH
	DW	0e299H
	DW	0b99fH
	DW	0e42cH
	DW	02c71H
	DW	03d37H
	DW	0682H
	DW	0cbedH
	DW	0d11eH
	DW	0b96H
	DW	0344cH
	DW	01e13H
	DW	0e795H
	DW	0d1caH
	DW	0f262H
	DW	01ef1H
	DW	023caH
	DW	00H
	DW	0e0c7H
	DW	0e87dH
	DW	08fdH
	DW	01a5bH
	DW	0bf4H
	DW	0f37cH
	DW	0edbfH
	DW	0fcabH
	DW	0ad1H
	DW	0945H
	DW	0ff29H
	DW	0fae7H
	DW	0fe35H
	DW	00H
	DW	00H
	DW	0ff0aH
	DW	0faa6H
	DW	0fc5aH
	DW	06bdH
	DW	0ce9H
	DW	0282H
	DW	0f059H
	DW	0ee25H
	DW	03bdH
	DW	01999H
	DW	0124dH
	DW	0f1a3H
	DW	0dddfH
	DW	0f2daH
	DW	01bb4H
	DW	026dfH
	DW	024eH
	DW	0d699H
	DW	0da0dH
	DW	0d3eH
	DW	034cfH
	DW	01e5aH
	DW	0e070H
	DW	0c49cH
	DW	0efe2H
	DW	03206H
	DW	03b2eH
	DW	0fc6bH
	DW	0be4bH
	DW	0cce3H
	DW	01a92H
	DW	04bd9H
	DW	02347H
	DW	0ce07H
	DW	0b1b7H
	DW	0f313H
	DW	04696H
	DW	047d2H
	DW	0f262H
	DW	0aa9dH
	DW	0c78fH
	DW	02946H
	DW	05bf4H
	DW	02164H
	DW	0bd62H
	DW	0a724H
	DW	0faf9H
	DW	0565bH
	DW	04beaH
	DW	0e689H
	DW	09e34H
	DW	0c9c4H
	DW	03681H
	DW	06342H
	DW	01a1aH
	DW	0b168H
	DW	0a5b4H
	DW	0550H
	DW	05ecfH
	DW	047cfH
	DW	0dba2H
	DW	09accH
	DW	0d217H
	DW	03f77H
	DW	06112H
	DW	0fa7H
	DW	0ac7cH
	DW	0acf5H
	DW	0f64H
	DW	05e5bH
	DW	03cfeH
	DW	0d461H
	DW	0a0f3H
	DW	0de3dH
	DW	041e3H
	DW	055f6H
	DW	04c2H
	DW	0b016H
	DW	0bb4dH
	DW	01688H
	DW	05495H
	DW	02dd7H
	DW	0d2feH
	DW	0aff3H
	DW	0eb73H
	DW	03c64H
	DW	043acH
	DW	0fc1eH
	DW	0bc83H
	DW	0ce3cH
	DW	01885H
	DW	04253H
	DW	01d39H
	DW	0d8d0H
	DW	0c5ebH
	DW	0f6efH
	DW	02ebdH
	DW	02cd7H
	DW	0f7ffH
	DW	0d0d4H
	DW	0e2c2H
	DW	01402H
	DW	02994H
	DW	0e0aH
	DW	0e60fH
	DW	0e018H
	DW	0fe58H
	DW	019e9H
	DW	01499H
	DW	0f9d0H
	DW	0eaf9H
	DW	0f5d6H
	DW	08baH
	DW	0d34H
	DW	02c5H
	DW	0f9c1H
	DW	0fb39H
	DW	024H
	DW	00H
_intPSK200bdCarTemplate DW 00H
	DW	0294fH
	DW	04b7aH
	DW	06097H
	DW	06502H
	DW	057f5H
	DW	03bb2H
	DW	0151eH
	DW	0eae2H
	DW	0c44eH
	DW	0a80bH
	DW	09afeH
	DW	09f69H
	DW	0b486H
	DW	0d6b1H
	DW	00H
	DW	0294fH
	DW	04b7aH
	DW	06097H
	DW	06502H
	DW	057f5H
	DW	03bb2H
	DW	0151eH
	DW	0eae2H
	DW	0c44eH
	DW	0a80bH
	DW	09afeH
	DW	09f69H
	DW	0b486H
	DW	0d6b1H
	DW	00H
	DW	0294fH
	DW	04b7aH
	DW	06097H
	DW	06502H
	DW	057f5H
	DW	03bb2H
	DW	0151eH
	DW	0eae2H
	DW	0c44eH
	DW	0a80bH
	DW	09afeH
	DW	09f69H
	DW	0b486H
	DW	0d6b1H
	DW	00H
	DW	0294fH
	DW	04b7aH
	DW	06097H
	DW	06502H
	DW	057f5H
	DW	03bb2H
	DW	0151eH
	DW	0eae2H
	DW	0c44eH
	DW	0a80bH
	DW	09afeH
	DW	09f69H
	DW	0b486H
	DW	0d6b1H
	DW	00H
	DW	0294fH
	DW	04b7aH
	DW	06097H
	DW	06502H
	DW	057f5H
	DW	03bb2H
	DW	0151eH
	DW	0eae2H
	DW	0c44eH
	DW	0a80bH
	DW	09afeH
	DW	047d1H
	DW	05ed1H
	DW	0656cH
	DW	05a7eH
	DW	03feaH
	DW	01a49H
	DW	0f01dH
	DW	0c8afH
	DW	0aad3H
	DW	09bb0H
	DW	09de6H
	DW	0b112H
	DW	0d1e4H
	DW	0faafH
	DW	02466H
	DW	047d1H
	DW	05ed1H
	DW	0656cH
	DW	05a7eH
	DW	03feaH
	DW	01a49H
	DW	0f01dH
	DW	0c8afH
	DW	0aad3H
	DW	09bb0H
	DW	09de6H
	DW	0b112H
	DW	0d1e4H
	DW	0faafH
	DW	02466H
	DW	047d1H
	DW	05ed1H
	DW	0656cH
	DW	05a7eH
	DW	03feaH
	DW	01a49H
	DW	0f01dH
	DW	0c8afH
	DW	0aad3H
	DW	09bb0H
	DW	09de6H
	DW	0b112H
	DW	0d1e4H
	DW	0faafH
	DW	02466H
	DW	047d1H
	DW	05ed1H
	DW	0656cH
	DW	05a7eH
	DW	03feaH
	DW	01a49H
	DW	0f01dH
	DW	0c8afH
	DW	0aad3H
	DW	09bb0H
	DW	09de6H
	DW	0b112H
	DW	0d1e4H
	DW	0faafH
	DW	02466H
	DW	047d1H
	DW	05ed1H
	DW	0656cH
	DW	05a7eH
	DW	03feaH
	DW	01a49H
	DW	0f01dH
	DW	0c8afH
	DW	0aad3H
	DW	09bb0H
	DW	09de6H
	DW	0b112H
	DW	06590H
	DW	05cc8H
	DW	043f5H
	DW	01f62H
	DW	0f562H
	DW	0cd38H
	DW	0add6H
	DW	09ca8H
	DW	09ca8H
	DW	0add6H
	DW	0cd38H
	DW	0f562H
	DW	01f62H
	DW	043f5H
	DW	05cc8H
	DW	06590H
	DW	05cc8H
	DW	043f5H
	DW	01f62H
	DW	0f562H
	DW	0cd38H
	DW	0add6H
	DW	09ca8H
	DW	09ca8H
	DW	0add6H
	DW	0cd38H
	DW	0f562H
	DW	01f62H
	DW	043f5H
	DW	05cc8H
	DW	06590H
	DW	05cc8H
	DW	043f5H
	DW	01f62H
	DW	0f562H
	DW	0cd38H
	DW	0add6H
	DW	09ca8H
	DW	09ca8H
	DW	0add6H
	DW	0cd38H
	DW	0f562H
	DW	01f62H
	DW	043f5H
	DW	05cc8H
	DW	06590H
	DW	05cc8H
	DW	043f5H
	DW	01f62H
	DW	0f562H
	DW	0cd38H
	DW	0add6H
	DW	09ca8H
	DW	09ca8H
	DW	0add6H
	DW	0cd38H
	DW	0f562H
	DW	01f62H
	DW	043f5H
	DW	05cc8H
	DW	06590H
	DW	05cc8H
	DW	043f5H
	DW	01f62H
	DW	0f562H
	DW	0cd38H
	DW	0add6H
	DW	09ca8H
	DW	09ca8H
	DW	0add6H
	DW	0cd38H
	DW	0f562H
	DW	047d1H
	DW	02466H
	DW	0faafH
	DW	0d1e4H
	DW	0b112H
	DW	09de6H
	DW	09bb0H
	DW	0aad3H
	DW	0c8afH
	DW	0f01dH
	DW	01a49H
	DW	03feaH
	DW	05a7eH
	DW	0656cH
	DW	05ed1H
	DW	047d1H
	DW	02466H
	DW	0faafH
	DW	0d1e4H
	DW	0b112H
	DW	09de6H
	DW	09bb0H
	DW	0aad3H
	DW	0c8afH
	DW	0f01dH
	DW	01a49H
	DW	03feaH
	DW	05a7eH
	DW	0656cH
	DW	05ed1H
	DW	047d1H
	DW	02466H
	DW	0faafH
	DW	0d1e4H
	DW	0b112H
	DW	09de6H
	DW	09bb0H
	DW	0aad3H
	DW	0c8afH
	DW	0f01dH
	DW	01a49H
	DW	03feaH
	DW	05a7eH
	DW	0656cH
	DW	05ed1H
	DW	047d1H
	DW	02466H
	DW	0faafH
	DW	0d1e4H
	DW	0b112H
	DW	09de6H
	DW	09bb0H
	DW	0aad3H
	DW	0c8afH
	DW	0f01dH
	DW	01a49H
	DW	03feaH
	DW	05a7eH
	DW	0656cH
	DW	05ed1H
	DW	047d1H
	DW	02466H
	DW	0faafH
	DW	0d1e4H
	DW	0b112H
	DW	09de6H
	DW	09bb0H
	DW	0aad3H
	DW	0c8afH
	DW	0f01dH
	DW	01a49H
	DW	03feaH
	DW	00H
	DW	032c8H
	DW	057f5H
	DW	06590H
	DW	057f5H
	DW	032c8H
	DW	00H
	DW	0cd38H
	DW	0a80bH
	DW	09a70H
	DW	0a80bH
	DW	0cd38H
	DW	00H
	DW	032c8H
	DW	057f5H
	DW	06590H
	DW	057f5H
	DW	032c8H
	DW	00H
	DW	0cd38H
	DW	0a80bH
	DW	09a70H
	DW	0a80bH
	DW	0cd38H
	DW	00H
	DW	032c8H
	DW	057f5H
	DW	06590H
	DW	057f5H
	DW	032c8H
	DW	00H
	DW	0cd38H
	DW	0a80bH
	DW	09a70H
	DW	0a80bH
	DW	0cd38H
	DW	00H
	DW	032c8H
	DW	057f5H
	DW	06590H
	DW	057f5H
	DW	032c8H
	DW	00H
	DW	0cd38H
	DW	0a80bH
	DW	09a70H
	DW	0a80bH
	DW	0cd38H
	DW	00H
	DW	032c8H
	DW	057f5H
	DW	06590H
	DW	057f5H
	DW	032c8H
	DW	00H
	DW	0cd38H
	DW	0a80bH
	DW	09a70H
	DW	0a80bH
	DW	0cd38H
	DW	00H
	DW	032c8H
	DW	057f5H
	DW	06590H
	DW	057f5H
	DW	032c8H
	DW	00H
	DW	0cd38H
	DW	0a80bH
	DW	09a70H
	DW	0a80bH
	DW	0cd38H
	DW	047d1H
	DW	0621aH
	DW	0621aH
	DW	047d1H
	DW	01a49H
	DW	0e5b7H
	DW	0b82fH
	DW	09de6H
	DW	09de6H
	DW	0b82fH
	DW	0e5b7H
	DW	01a49H
	DW	047d1H
	DW	0621aH
	DW	0621aH
	DW	047d1H
	DW	01a49H
	DW	0e5b7H
	DW	0b82fH
	DW	09de6H
	DW	09de6H
	DW	0b82fH
	DW	0e5b7H
	DW	01a49H
	DW	047d1H
	DW	0621aH
	DW	0621aH
	DW	047d1H
	DW	01a49H
	DW	0e5b7H
	DW	0b82fH
	DW	09de6H
	DW	09de6H
	DW	0b82fH
	DW	0e5b7H
	DW	01a49H
	DW	047d1H
	DW	0621aH
	DW	0621aH
	DW	047d1H
	DW	01a49H
	DW	0e5b7H
	DW	0b82fH
	DW	09de6H
	DW	09de6H
	DW	0b82fH
	DW	0e5b7H
	DW	01a49H
	DW	047d1H
	DW	0621aH
	DW	0621aH
	DW	047d1H
	DW	01a49H
	DW	0e5b7H
	DW	0b82fH
	DW	09de6H
	DW	09de6H
	DW	0b82fH
	DW	0e5b7H
	DW	01a49H
	DW	047d1H
	DW	0621aH
	DW	0621aH
	DW	047d1H
	DW	01a49H
	DW	0e5b7H
	DW	0b82fH
	DW	09de6H
	DW	09de6H
	DW	0b82fH
	DW	0e5b7H
	DW	01a49H
	DW	06590H
	DW	057f5H
	DW	032c8H
	DW	00H
	DW	0cd38H
	DW	0a80bH
	DW	09a70H
	DW	0a80bH
	DW	0cd38H
	DW	00H
	DW	032c8H
	DW	057f5H
	DW	06590H
	DW	057f5H
	DW	032c8H
	DW	00H
	DW	0cd38H
	DW	0a80bH
	DW	09a70H
	DW	0a80bH
	DW	0cd38H
	DW	00H
	DW	032c8H
	DW	057f5H
	DW	06590H
	DW	057f5H
	DW	032c8H
	DW	00H
	DW	0cd38H
	DW	0a80bH
	DW	09a70H
	DW	0a80bH
	DW	0cd38H
	DW	00H
	DW	032c8H
	DW	057f5H
	DW	06590H
	DW	057f5H
	DW	032c8H
	DW	00H
	DW	0cd38H
	DW	0a80bH
	DW	09a70H
	DW	0a80bH
	DW	0cd38H
	DW	00H
	DW	032c8H
	DW	057f5H
	DW	06590H
	DW	057f5H
	DW	032c8H
	DW	00H
	DW	0cd38H
	DW	0a80bH
	DW	09a70H
	DW	0a80bH
	DW	0cd38H
	DW	00H
	DW	032c8H
	DW	057f5H
	DW	06590H
	DW	057f5H
	DW	032c8H
	DW	00H
	DW	0cd38H
	DW	0a80bH
	DW	09a70H
	DW	0a80bH
	DW	0cd38H
	DW	00H
	DW	032c8H
	DW	057f5H
	DW	047d1H
	DW	01a49H
	DW	0e5b7H
	DW	0b82fH
	DW	09de6H
	DW	09de6H
	DW	0b82fH
	DW	0e5b7H
	DW	01a49H
	DW	047d1H
	DW	0621aH
	DW	0621aH
	DW	047d1H
	DW	01a49H
	DW	0e5b7H
	DW	0b82fH
	DW	09de6H
	DW	09de6H
	DW	0b82fH
	DW	0e5b7H
	DW	01a49H
	DW	047d1H
	DW	0621aH
	DW	0621aH
	DW	047d1H
	DW	01a49H
	DW	0e5b7H
	DW	0b82fH
	DW	09de6H
	DW	09de6H
	DW	0b82fH
	DW	0e5b7H
	DW	01a49H
	DW	047d1H
	DW	0621aH
	DW	0621aH
	DW	047d1H
	DW	01a49H
	DW	0e5b7H
	DW	0b82fH
	DW	09de6H
	DW	09de6H
	DW	0b82fH
	DW	0e5b7H
	DW	01a49H
	DW	047d1H
	DW	0621aH
	DW	0621aH
	DW	047d1H
	DW	01a49H
	DW	0e5b7H
	DW	0b82fH
	DW	09de6H
	DW	09de6H
	DW	0b82fH
	DW	0e5b7H
	DW	01a49H
	DW	047d1H
	DW	0621aH
	DW	0621aH
	DW	047d1H
	DW	01a49H
	DW	0e5b7H
	DW	0b82fH
	DW	09de6H
	DW	09de6H
	DW	0b82fH
	DW	0e5b7H
	DW	01a49H
	DW	047d1H
	DW	0621aH
	DW	0621aH
	DW	00H
	DW	03bb2H
	DW	06097H
	DW	06097H
	DW	03bb2H
	DW	00H
	DW	0c44eH
	DW	09f69H
	DW	09f69H
	DW	0c44eH
	DW	00H
	DW	03bb2H
	DW	06097H
	DW	06097H
	DW	03bb2H
	DW	00H
	DW	0c44eH
	DW	09f69H
	DW	09f69H
	DW	0c44eH
	DW	00H
	DW	03bb2H
	DW	06097H
	DW	06097H
	DW	03bb2H
	DW	00H
	DW	0c44eH
	DW	09f69H
	DW	09f69H
	DW	0c44eH
	DW	00H
	DW	03bb2H
	DW	06097H
	DW	06097H
	DW	03bb2H
	DW	00H
	DW	0c44eH
	DW	09f69H
	DW	09f69H
	DW	0c44eH
	DW	00H
	DW	03bb2H
	DW	06097H
	DW	06097H
	DW	03bb2H
	DW	00H
	DW	0c44eH
	DW	09f69H
	DW	09f69H
	DW	0c44eH
	DW	00H
	DW	03bb3H
	DW	06098H
	DW	06097H
	DW	03bb2H
	DW	00H
	DW	0c44dH
	DW	09f68H
	DW	09f69H
	DW	0c44eH
	DW	00H
	DW	03bb3H
	DW	06098H
	DW	06097H
	DW	03bb2H
	DW	00H
	DW	0c44dH
	DW	09f68H
	DW	09f69H
	DW	0c44eH
	DW	00H
	DW	03bb3H
	DW	047d1H
	DW	06450H
	DW	05a7eH
	DW	02e1cH
	DW	0f01dH
	DW	0b82fH
	DW	09bb0H
	DW	0a582H
	DW	0d1e4H
	DW	0fe3H
	DW	047d1H
	DW	06450H
	DW	05a7eH
	DW	02e1cH
	DW	0f01dH
	DW	0b82fH
	DW	09bb0H
	DW	0a582H
	DW	0d1e4H
	DW	0fe3H
	DW	047d1H
	DW	06450H
	DW	05a7eH
	DW	02e1cH
	DW	0f01dH
	DW	0b82fH
	DW	09bb0H
	DW	0a582H
	DW	0d1e4H
	DW	0fe3H
	DW	047d1H
	DW	06450H
	DW	05a7eH
	DW	02e1cH
	DW	0f01dH
	DW	0b82fH
	DW	09bb0H
	DW	0a582H
	DW	0d1e4H
	DW	0fe3H
	DW	047d1H
	DW	06450H
	DW	05a7eH
	DW	02e1cH
	DW	0f01dH
	DW	0b82fH
	DW	09bb0H
	DW	0a582H
	DW	0d1e4H
	DW	0fe3H
	DW	047d1H
	DW	06450H
	DW	05a7eH
	DW	02e1cH
	DW	0f01dH
	DW	0b82fH
	DW	09bb0H
	DW	0a582H
	DW	0d1e4H
	DW	0fe3H
	DW	047d1H
	DW	06450H
	DW	05a7eH
	DW	02e1cH
	DW	0f01dH
	DW	0b82fH
	DW	09bb0H
	DW	0a582H
	DW	0d1e4H
	DW	0fe3H
	DW	047d1H
	DW	06450H
	DW	06590H
	DW	0522aH
	DW	01f62H
	DW	0e09eH
	DW	0add6H
	DW	09a70H
	DW	0add6H
	DW	0e09eH
	DW	01f62H
	DW	0522aH
	DW	06590H
	DW	0522aH
	DW	01f62H
	DW	0e09eH
	DW	0add6H
	DW	09a70H
	DW	0add6H
	DW	0e09eH
	DW	01f62H
	DW	0522aH
	DW	06590H
	DW	0522aH
	DW	01f62H
	DW	0e09eH
	DW	0add6H
	DW	09a70H
	DW	0add6H
	DW	0e09eH
	DW	01f63H
	DW	0522aH
	DW	06590H
	DW	0522aH
	DW	01f62H
	DW	0e09dH
	DW	0add6H
	DW	09a70H
	DW	0add6H
	DW	0e09eH
	DW	01f63H
	DW	0522aH
	DW	06590H
	DW	0522aH
	DW	01f62H
	DW	0e09dH
	DW	0add6H
	DW	09a70H
	DW	0add6H
	DW	0e09eH
	DW	01f63H
	DW	0522bH
	DW	06590H
	DW	0522aH
	DW	01f62H
	DW	0e09dH
	DW	0add5H
	DW	09a70H
	DW	0add6H
	DW	0e09eH
	DW	01f63H
	DW	0522bH
	DW	06590H
	DW	0522aH
	DW	01f62H
	DW	0e09dH
	DW	0add5H
	DW	09a70H
	DW	0add6H
	DW	0e09eH
	DW	01f63H
	DW	0522bH
	DW	06590H
	DW	0522aH
	DW	047d1H
	DW	0fe3H
	DW	0d1e4H
	DW	0a582H
	DW	09bb0H
	DW	0b82fH
	DW	0f01dH
	DW	02e1cH
	DW	05a7eH
	DW	06450H
	DW	047d1H
	DW	0fe3H
	DW	0d1e4H
	DW	0a582H
	DW	09bb0H
	DW	0b82fH
	DW	0f01dH
	DW	02e1cH
	DW	05a7eH
	DW	06450H
	DW	047d1H
	DW	0fe3H
	DW	0d1e4H
	DW	0a582H
	DW	09bb0H
	DW	0b82fH
	DW	0f01dH
	DW	02e1cH
	DW	05a7eH
	DW	06450H
	DW	047d1H
	DW	0fe3H
	DW	0d1e4H
	DW	0a582H
	DW	09bb0H
	DW	0b82fH
	DW	0f01dH
	DW	02e1cH
	DW	05a7eH
	DW	06450H
	DW	047d1H
	DW	0fe3H
	DW	0d1e4H
	DW	0a582H
	DW	09bb0H
	DW	0b82fH
	DW	0f01dH
	DW	02e1cH
	DW	05a7eH
	DW	06450H
	DW	047d1H
	DW	0fe3H
	DW	0d1e4H
	DW	0a582H
	DW	09bb0H
	DW	0b82fH
	DW	0f01dH
	DW	02e1cH
	DW	05a7eH
	DW	06450H
	DW	047d1H
	DW	0fe3H
	DW	0d1e4H
	DW	0a582H
	DW	09bb0H
	DW	0b82fH
	DW	0f01dH
	DW	02e1cH
	DW	05a7eH
	DW	06450H
	DW	047d1H
	DW	0fe3H
	DW	00H
	DW	043f5H
	DW	06502H
	DW	0522aH
	DW	0151eH
	DW	0cd38H
	DW	09f69H
	DW	0a338H
	DW	0d6b1H
	DW	01f62H
	DW	057f5H
	DW	06358H
	DW	03bb2H
	DW	0f562H
	DW	0b486H
	DW	09a70H
	DW	0b486H
	DW	0f562H
	DW	03bb2H
	DW	06358H
	DW	057f5H
	DW	01f62H
	DW	0d6b1H
	DW	0a338H
	DW	09f69H
	DW	0cd38H
	DW	0151eH
	DW	0522aH
	DW	06502H
	DW	043f5H
	DW	00H
	DW	0bc0bH
	DW	09afeH
	DW	0add6H
	DW	0eae2H
	DW	032c8H
	DW	06097H
	DW	05cc8H
	DW	0294fH
	DW	0e09dH
	DW	0a80bH
	DW	09ca8H
	DW	0c44eH
	DW	0a9eH
	DW	04b7aH
	DW	06590H
	DW	04b7aH
	DW	0a9eH
	DW	0c44dH
	DW	09ca8H
	DW	0a80bH
	DW	0e09eH
	DW	0294fH
	DW	05cc8H
	DW	06097H
	DW	032c8H
	DW	0eae2H
	DW	0add5H
	DW	09afeH
	DW	0bc0bH
	DW	00H
	DW	043f6H
	DW	06502H
	DW	0522aH
	DW	0151eH
	DW	0cd38H
	DW	09f68H
	DW	0a338H
	DW	0d6b1H
	DW	01f63H
	DW	057f5H
	DW	06358H
	DW	047d1H
	DW	0656cH
	DW	04eeeH
	DW	0fe3H
	DW	0c8afH
	DW	09de6H
	DW	0a582H
	DW	0db9aH
	DW	02466H
	DW	05a7eH
	DW	0621aH
	DW	03751H
	DW	0f01dH
	DW	0b112H
	DW	09a94H
	DW	0b82fH
	DW	0faafH
	DW	03feaH
	DW	06450H
	DW	0552dH
	DW	01a49H
	DW	0d1e4H
	DW	0a12fH
	DW	0a12fH
	DW	0d1e4H
	DW	01a49H
	DW	0552dH
	DW	06450H
	DW	03feaH
	DW	0faafH
	DW	0b82fH
	DW	09a94H
	DW	0b112H
	DW	0f01dH
	DW	03751H
	DW	0621aH
	DW	05a7eH
	DW	02465H
	DW	0db9aH
	DW	0a582H
	DW	09de6H
	DW	0c8afH
	DW	0fe3H
	DW	04eeeH
	DW	0656cH
	DW	047d1H
	DW	0551H
	DW	0c016H
	DW	09bb0H
	DW	0aad3H
	DW	0e5b7H
	DW	02e1cH
	DW	05ed1H
	DW	05ed1H
	DW	02e1cH
	DW	0e5b7H
	DW	0aad2H
	DW	09bb0H
	DW	0c016H
	DW	0551H
	DW	047d1H
	DW	0656cH
	DW	04eeeH
	DW	0fe3H
	DW	0c8afH
	DW	09de6H
	DW	0a582H
	DW	0db9bH
	DW	02466H
	DW	05a7eH
	DW	0621aH
	DW	03750H
	DW	06590H
	DW	04b7aH
	DW	0a9eH
	DW	0c44eH
	DW	09ca8H
	DW	0a80bH
	DW	0e09eH
	DW	0294fH
	DW	05cc8H
	DW	06097H
	DW	032c8H
	DW	0eae2H
	DW	0add6H
	DW	09afeH
	DW	0bc0bH
	DW	00H
	DW	043f5H
	DW	06502H
	DW	0522aH
	DW	0151eH
	DW	0cd38H
	DW	09f69H
	DW	0a338H
	DW	0d6b1H
	DW	01f62H
	DW	057f5H
	DW	06358H
	DW	03bb2H
	DW	0f562H
	DW	0b486H
	DW	09a70H
	DW	0b486H
	DW	0f562H
	DW	03bb2H
	DW	06358H
	DW	057f5H
	DW	01f62H
	DW	0d6b1H
	DW	0a338H
	DW	09f69H
	DW	0cd38H
	DW	0151eH
	DW	0522bH
	DW	06502H
	DW	043f5H
	DW	00H
	DW	0bc0bH
	DW	09afeH
	DW	0add6H
	DW	0eae2H
	DW	032c8H
	DW	06098H
	DW	05cc8H
	DW	0294fH
	DW	0e09dH
	DW	0a80bH
	DW	09ca8H
	DW	0c44eH
	DW	0a9eH
	DW	04b7aH
	DW	06590H
	DW	04b7aH
	DW	0a9eH
	DW	0c44dH
	DW	09ca8H
	DW	0a80bH
	DW	0e09eH
	DW	0294fH
	DW	05cc8H
	DW	06097H
	DW	032c8H
	DW	0eae2H
	DW	047d1H
	DW	0551H
	DW	0c016H
	DW	09bb0H
	DW	0aad3H
	DW	0e5b7H
	DW	02e1cH
	DW	05ed1H
	DW	05ed1H
	DW	02e1cH
	DW	0e5b7H
	DW	0aad3H
	DW	09bb0H
	DW	0c016H
	DW	0551H
	DW	047d1H
	DW	0656cH
	DW	04eeeH
	DW	0fe3H
	DW	0c8afH
	DW	09de6H
	DW	0a582H
	DW	0db9aH
	DW	02466H
	DW	05a7eH
	DW	0621aH
	DW	03751H
	DW	0f01dH
	DW	0b112H
	DW	09a94H
	DW	0b82fH
	DW	0faafH
	DW	03feaH
	DW	06450H
	DW	0552dH
	DW	01a49H
	DW	0d1e4H
	DW	0a12fH
	DW	0a12fH
	DW	0d1e4H
	DW	01a49H
	DW	0552dH
	DW	06450H
	DW	03feaH
	DW	0faafH
	DW	0b82fH
	DW	09a94H
	DW	0b112H
	DW	0f01dH
	DW	03751H
	DW	0621aH
	DW	05a7eH
	DW	02465H
	DW	0db9aH
	DW	0a582H
	DW	09de6H
	DW	0c8b0H
	DW	0fe3H
	DW	04eeeH
	DW	0656cH
	DW	047d1H
	DW	0551H
	DW	0c016H
	DW	09bb0H
	DW	0aad3H
	DW	0e5b7H
	DW	02e1cH
	DW	05ed1H
	DW	05ed1H
	DW	02e1cH
	DW	0e5b7H
	DW	0aad2H
	DW	00H
	DW	047d1H
	DW	06590H
	DW	047d1H
	DW	00H
	DW	0b82fH
	DW	09a70H
	DW	0b82fH
	DW	00H
	DW	047d1H
	DW	06590H
	DW	047d1H
	DW	00H
	DW	0b82fH
	DW	09a70H
	DW	0b82fH
	DW	00H
	DW	047d1H
	DW	06590H
	DW	047d1H
	DW	00H
	DW	0b82fH
	DW	09a70H
	DW	0b82fH
	DW	00H
	DW	047d1H
	DW	06590H
	DW	047d1H
	DW	00H
	DW	0b82fH
	DW	09a70H
	DW	0b82fH
	DW	00H
	DW	047d1H
	DW	06590H
	DW	047d1H
	DW	00H
	DW	0b82fH
	DW	09a70H
	DW	0b82fH
	DW	00H
	DW	047d1H
	DW	06590H
	DW	047d1H
	DW	00H
	DW	0b82fH
	DW	09a70H
	DW	0b82fH
	DW	00H
	DW	047d1H
	DW	06590H
	DW	047d1H
	DW	00H
	DW	0b82fH
	DW	09a70H
	DW	0b82fH
	DW	00H
	DW	047d1H
	DW	06590H
	DW	047d1H
	DW	00H
	DW	0b82fH
	DW	09a70H
	DW	0b82fH
	DW	00H
	DW	047d1H
	DW	06590H
	DW	047d1H
	DW	00H
	DW	0b82fH
	DW	09a70H
	DW	0b82fH
	DW	047d1H
	DW	06590H
	DW	047d1H
	DW	00H
	DW	0b82fH
	DW	09a70H
	DW	0b82fH
	DW	00H
	DW	047d1H
	DW	06590H
	DW	047d1H
	DW	00H
	DW	0b82fH
	DW	09a70H
	DW	0b82fH
	DW	00H
	DW	047d1H
	DW	06590H
	DW	047d1H
	DW	00H
	DW	0b82fH
	DW	09a70H
	DW	0b82fH
	DW	00H
	DW	047d1H
	DW	06590H
	DW	047d1H
	DW	00H
	DW	0b82fH
	DW	09a70H
	DW	0b82fH
	DW	00H
	DW	047d1H
	DW	06590H
	DW	047d1H
	DW	00H
	DW	0b82fH
	DW	09a70H
	DW	0b82fH
	DW	00H
	DW	047d1H
	DW	06590H
	DW	047d1H
	DW	00H
	DW	0b82fH
	DW	09a70H
	DW	0b82fH
	DW	00H
	DW	047d1H
	DW	06590H
	DW	047d1H
	DW	00H
	DW	0b82fH
	DW	09a70H
	DW	0b82fH
	DW	00H
	DW	047d1H
	DW	06590H
	DW	047d1H
	DW	00H
	DW	0b82fH
	DW	09a70H
	DW	0b82fH
	DW	00H
	DW	047d1H
	DW	06590H
	DW	047d1H
	DW	00H
	DW	0b82fH
	DW	09a70H
	DW	0b82fH
	DW	00H
	DW	06590H
	DW	047d1H
	DW	00H
	DW	0b82fH
	DW	09a70H
	DW	0b82fH
	DW	00H
	DW	047d1H
	DW	06590H
	DW	047d1H
	DW	00H
	DW	0b82fH
	DW	09a70H
	DW	0b82fH
	DW	00H
	DW	047d1H
	DW	06590H
	DW	047d1H
	DW	00H
	DW	0b82fH
	DW	09a70H
	DW	0b82fH
	DW	00H
	DW	047d1H
	DW	06590H
	DW	047d1H
	DW	00H
	DW	0b82fH
	DW	09a70H
	DW	0b82fH
	DW	00H
	DW	047d1H
	DW	06590H
	DW	047d1H
	DW	00H
	DW	0b82fH
	DW	09a70H
	DW	0b82fH
	DW	00H
	DW	047d1H
	DW	06590H
	DW	047d1H
	DW	00H
	DW	0b82fH
	DW	09a70H
	DW	0b82fH
	DW	00H
	DW	047d1H
	DW	06590H
	DW	047d1H
	DW	00H
	DW	0b82fH
	DW	09a70H
	DW	0b82fH
	DW	00H
	DW	047d1H
	DW	06590H
	DW	047d1H
	DW	00H
	DW	0b82fH
	DW	09a70H
	DW	0b82fH
	DW	00H
	DW	047d1H
	DW	06590H
	DW	047d1H
	DW	00H
	DW	0b82fH
	DW	09a70H
	DW	0b82fH
	DW	00H
	DW	047d1H
	DW	047d1H
	DW	00H
	DW	0b82fH
	DW	09a70H
	DW	0b82fH
	DW	00H
	DW	047d1H
	DW	06590H
	DW	047d1H
	DW	00H
	DW	0b82fH
	DW	09a70H
	DW	0b82fH
	DW	00H
	DW	047d1H
	DW	06590H
	DW	047d1H
	DW	00H
	DW	0b82fH
	DW	09a70H
	DW	0b82fH
	DW	00H
	DW	047d1H
	DW	06590H
	DW	047d1H
	DW	00H
	DW	0b82fH
	DW	09a70H
	DW	0b82fH
	DW	00H
	DW	047d1H
	DW	06590H
	DW	047d1H
	DW	00H
	DW	0b82fH
	DW	09a70H
	DW	0b82fH
	DW	00H
	DW	047d1H
	DW	06590H
	DW	047d1H
	DW	00H
	DW	0b82fH
	DW	09a70H
	DW	0b82fH
	DW	00H
	DW	047d1H
	DW	06590H
	DW	047d1H
	DW	00H
	DW	0b82fH
	DW	09a70H
	DW	0b82fH
	DW	00H
	DW	047d1H
	DW	06590H
	DW	047d1H
	DW	00H
	DW	0b82fH
	DW	09a70H
	DW	0b82fH
	DW	00H
	DW	047d1H
	DW	06590H
	DW	047d1H
	DW	00H
	DW	0b82fH
	DW	09a70H
	DW	0b82fH
	DW	00H
	DW	047d1H
	DW	06590H
	DW	00H
	DW	04b7aH
	DW	06502H
	DW	03bb2H
	DW	0eae2H
	DW	0a80bH
	DW	09f69H
	DW	0d6b1H
	DW	0294fH
	DW	06097H
	DW	057f5H
	DW	0151eH
	DW	0c44eH
	DW	09afeH
	DW	0b486H
	DW	00H
	DW	04b7aH
	DW	06502H
	DW	03bb2H
	DW	0eae2H
	DW	0a80bH
	DW	09f69H
	DW	0d6b1H
	DW	0294fH
	DW	06097H
	DW	057f5H
	DW	0151eH
	DW	0c44eH
	DW	09afeH
	DW	0b486H
	DW	00H
	DW	04b7aH
	DW	06502H
	DW	03bb2H
	DW	0eae2H
	DW	0a80bH
	DW	09f69H
	DW	0d6b1H
	DW	0294fH
	DW	06097H
	DW	057f5H
	DW	0151eH
	DW	0c44eH
	DW	09afeH
	DW	0b486H
	DW	00H
	DW	04b7aH
	DW	06502H
	DW	03bb2H
	DW	0eae2H
	DW	0a80bH
	DW	09f69H
	DW	0d6b1H
	DW	0294fH
	DW	06097H
	DW	057f5H
	DW	0151eH
	DW	0c44eH
	DW	09afeH
	DW	0b486H
	DW	00H
	DW	04b7aH
	DW	06502H
	DW	03bb2H
	DW	0eae2H
	DW	0a80bH
	DW	09f69H
	DW	0d6b1H
	DW	0294fH
	DW	06098H
	DW	057f5H
	DW	0151eH
	DW	047d1H
	DW	0656cH
	DW	03feaH
	DW	0f01dH
	DW	0aad3H
	DW	09de6H
	DW	0d1e4H
	DW	02466H
	DW	05ed1H
	DW	05a7eH
	DW	01a49H
	DW	0c8afH
	DW	09bb0H
	DW	0b112H
	DW	0faafH
	DW	047d1H
	DW	0656cH
	DW	03feaH
	DW	0f01dH
	DW	0aad3H
	DW	09de6H
	DW	0d1e4H
	DW	02466H
	DW	05ed1H
	DW	05a7eH
	DW	01a49H
	DW	0c8afH
	DW	09bb0H
	DW	0b112H
	DW	0faafH
	DW	047d1H
	DW	0656cH
	DW	03feaH
	DW	0f01dH
	DW	0aad3H
	DW	09de6H
	DW	0d1e4H
	DW	02466H
	DW	05ed1H
	DW	05a7eH
	DW	01a49H
	DW	0c8afH
	DW	09bb0H
	DW	0b112H
	DW	0faafH
	DW	047d1H
	DW	0656cH
	DW	03feaH
	DW	0f01dH
	DW	0aad3H
	DW	09de6H
	DW	0d1e4H
	DW	02466H
	DW	05ed1H
	DW	05a7eH
	DW	01a49H
	DW	0c8afH
	DW	09bb0H
	DW	0b112H
	DW	0faafH
	DW	047d1H
	DW	0656cH
	DW	03feaH
	DW	0f01dH
	DW	0aad3H
	DW	09de6H
	DW	0d1e4H
	DW	02466H
	DW	05ed1H
	DW	05a7eH
	DW	01a49H
	DW	0c8afH
	DW	06590H
	DW	043f5H
	DW	0f562H
	DW	0add6H
	DW	09ca8H
	DW	0cd38H
	DW	01f62H
	DW	05cc8H
	DW	05cc8H
	DW	01f62H
	DW	0cd38H
	DW	09ca8H
	DW	0add6H
	DW	0f562H
	DW	043f5H
	DW	06590H
	DW	043f5H
	DW	0f562H
	DW	0add6H
	DW	09ca8H
	DW	0cd38H
	DW	01f62H
	DW	05cc8H
	DW	05cc8H
	DW	01f62H
	DW	0cd38H
	DW	09ca8H
	DW	0add6H
	DW	0f562H
	DW	043f5H
	DW	06590H
	DW	043f5H
	DW	0f562H
	DW	0add6H
	DW	09ca8H
	DW	0cd38H
	DW	01f62H
	DW	05cc8H
	DW	05cc8H
	DW	01f62H
	DW	0cd38H
	DW	09ca8H
	DW	0add6H
	DW	0f562H
	DW	043f5H
	DW	06590H
	DW	043f5H
	DW	0f562H
	DW	0add6H
	DW	09ca8H
	DW	0cd38H
	DW	01f63H
	DW	05cc8H
	DW	05cc8H
	DW	01f62H
	DW	0cd38H
	DW	09ca8H
	DW	0add6H
	DW	0f562H
	DW	043f5H
	DW	06590H
	DW	043f5H
	DW	0f562H
	DW	0add6H
	DW	09ca8H
	DW	0cd38H
	DW	01f63H
	DW	05cc8H
	DW	05cc8H
	DW	01f62H
	DW	0cd38H
	DW	09ca8H
	DW	047d1H
	DW	0faafH
	DW	0b112H
	DW	09bb0H
	DW	0c8afH
	DW	01a49H
	DW	05a7eH
	DW	05ed1H
	DW	02466H
	DW	0d1e4H
	DW	09de6H
	DW	0aad3H
	DW	0f01dH
	DW	03feaH
	DW	0656cH
	DW	047d1H
	DW	0faafH
	DW	0b112H
	DW	09bb0H
	DW	0c8afH
	DW	01a49H
	DW	05a7eH
	DW	05ed1H
	DW	02466H
	DW	0d1e4H
	DW	09de6H
	DW	0aad3H
	DW	0f01dH
	DW	03feaH
	DW	0656cH
	DW	047d1H
	DW	0faafH
	DW	0b112H
	DW	09bb0H
	DW	0c8afH
	DW	01a49H
	DW	05a7eH
	DW	05ed1H
	DW	02466H
	DW	0d1e4H
	DW	09de6H
	DW	0aad3H
	DW	0f01dH
	DW	03feaH
	DW	0656cH
	DW	047d1H
	DW	0faafH
	DW	0b112H
	DW	09bb0H
	DW	0c8afH
	DW	01a49H
	DW	05a7eH
	DW	05ed1H
	DW	02465H
	DW	0d1e4H
	DW	09de6H
	DW	0aad3H
	DW	0f01dH
	DW	03feaH
	DW	0656cH
	DW	047d1H
	DW	0faafH
	DW	0b112H
	DW	09bb0H
	DW	0c8afH
	DW	01a49H
	DW	05a7eH
	DW	05ed1H
	DW	02465H
	DW	0d1e4H
	DW	09de6H
	DW	0aad3H
	DW	00H
	DW	0522aH
	DW	06097H
	DW	01f62H
	DW	0c44eH
	DW	09a70H
	DW	0c44eH
	DW	01f62H
	DW	06097H
	DW	0522aH
	DW	00H
	DW	0add6H
	DW	09f69H
	DW	0e09eH
	DW	03bb2H
	DW	06590H
	DW	03bb2H
	DW	0e09eH
	DW	09f69H
	DW	0add6H
	DW	00H
	DW	0522aH
	DW	06097H
	DW	01f62H
	DW	0c44eH
	DW	09a70H
	DW	0c44eH
	DW	01f62H
	DW	06097H
	DW	0522aH
	DW	00H
	DW	0add6H
	DW	09f69H
	DW	0e09eH
	DW	03bb2H
	DW	06590H
	DW	03bb2H
	DW	0e09eH
	DW	09f69H
	DW	0add6H
	DW	00H
	DW	0522aH
	DW	06097H
	DW	01f62H
	DW	0c44eH
	DW	09a70H
	DW	0c44eH
	DW	01f62H
	DW	06097H
	DW	0522aH
	DW	00H
	DW	0add6H
	DW	09f69H
	DW	0e09eH
	DW	03bb2H
	DW	06590H
	DW	03bb2H
	DW	0e09eH
	DW	09f69H
	DW	0add6H
	DW	00H
	DW	0522aH
	DW	06097H
	DW	01f63H
	DW	0c44eH
	DW	09a70H
	DW	0c44eH
	DW	01f62H
	DW	06097H
	DW	0522aH
	DW	00H
	DW	0add6H
	DW	047d1H
	DW	06450H
	DW	02e1cH
	DW	0d1e4H
	DW	09bb0H
	DW	0b82fH
	DW	0fe3H
	DW	05a7eH
	DW	05a7eH
	DW	0fe3H
	DW	0b82fH
	DW	09bb0H
	DW	0d1e4H
	DW	02e1cH
	DW	06450H
	DW	047d1H
	DW	0f01dH
	DW	0a582H
	DW	0a582H
	DW	0f01dH
	DW	047d1H
	DW	06450H
	DW	02e1cH
	DW	0d1e4H
	DW	09bb0H
	DW	0b82fH
	DW	0fe3H
	DW	05a7eH
	DW	05a7eH
	DW	0fe3H
	DW	0b82fH
	DW	09bb0H
	DW	0d1e4H
	DW	02e1cH
	DW	06450H
	DW	047d1H
	DW	0f01dH
	DW	0a582H
	DW	0a582H
	DW	0f01dH
	DW	047d1H
	DW	06450H
	DW	02e1cH
	DW	0d1e4H
	DW	09bb0H
	DW	0b82fH
	DW	0fe3H
	DW	05a7eH
	DW	05a7eH
	DW	0fe3H
	DW	0b82fH
	DW	09bb0H
	DW	0d1e4H
	DW	02e1cH
	DW	06450H
	DW	047d1H
	DW	0f01dH
	DW	0a582H
	DW	0a582H
	DW	0f01dH
	DW	047d1H
	DW	06450H
	DW	02e1cH
	DW	0d1e4H
	DW	09bb0H
	DW	0b82fH
	DW	0fe3H
	DW	05a7eH
	DW	05a7eH
	DW	0fe3H
	DW	0b82fH
	DW	09bb0H
	DW	06590H
	DW	03bb2H
	DW	0e09eH
	DW	09f69H
	DW	0add6H
	DW	00H
	DW	0522aH
	DW	06097H
	DW	01f62H
	DW	0c44eH
	DW	09a70H
	DW	0c44eH
	DW	01f62H
	DW	06097H
	DW	0522aH
	DW	00H
	DW	0add6H
	DW	09f69H
	DW	0e09eH
	DW	03bb2H
	DW	06590H
	DW	03bb2H
	DW	0e09eH
	DW	09f69H
	DW	0add6H
	DW	00H
	DW	0522aH
	DW	06097H
	DW	01f62H
	DW	0c44eH
	DW	09a70H
	DW	0c44eH
	DW	01f62H
	DW	06097H
	DW	0522aH
	DW	00H
	DW	0add6H
	DW	09f69H
	DW	0e09eH
	DW	03bb2H
	DW	06590H
	DW	03bb2H
	DW	0e09eH
	DW	09f69H
	DW	0add6H
	DW	00H
	DW	0522aH
	DW	06097H
	DW	01f62H
	DW	0c44eH
	DW	09a70H
	DW	0c44eH
	DW	01f62H
	DW	06097H
	DW	0522aH
	DW	00H
	DW	0add6H
	DW	09f69H
	DW	0e09dH
	DW	03bb2H
	DW	06590H
	DW	03bb2H
	DW	0e09eH
	DW	09f69H
	DW	0add6H
	DW	00H
	DW	0522aH
	DW	06097H
	DW	01f63H
	DW	0c44eH
	DW	09a70H
	DW	0c44eH
	DW	047d1H
	DW	0f01dH
	DW	0a582H
	DW	0a582H
	DW	0f01dH
	DW	047d1H
	DW	06450H
	DW	02e1cH
	DW	0d1e4H
	DW	09bb0H
	DW	0b82fH
	DW	0fe3H
	DW	05a7eH
	DW	05a7eH
	DW	0fe3H
	DW	0b82fH
	DW	09bb0H
	DW	0d1e4H
	DW	02e1cH
	DW	06450H
	DW	047d1H
	DW	0f01dH
	DW	0a582H
	DW	0a582H
	DW	0f01dH
	DW	047d1H
	DW	06450H
	DW	02e1cH
	DW	0d1e4H
	DW	09bb0H
	DW	0b82fH
	DW	0fe3H
	DW	05a7eH
	DW	05a7eH
	DW	0fe3H
	DW	0b82fH
	DW	09bb0H
	DW	0d1e4H
	DW	02e1cH
	DW	06450H
	DW	047d1H
	DW	0f01dH
	DW	0a582H
	DW	0a582H
	DW	0f01dH
	DW	047d1H
	DW	06450H
	DW	02e1cH
	DW	0d1e4H
	DW	09bb0H
	DW	0b82fH
	DW	0fe3H
	DW	05a7eH
	DW	05a7eH
	DW	0fe3H
	DW	0b82fH
	DW	09bb0H
	DW	0d1e4H
	DW	02e1cH
	DW	06450H
	DW	047d1H
	DW	0f01dH
	DW	0a582H
	DW	0a582H
	DW	0f01dH
	DW	047d1H
	DW	06450H
	DW	02e1cH
	DW	0d1e4H
	DW	09bb0H
	DW	0b82fH
	DW	0fe3H
	DW	00H
	DW	057f5H
	DW	057f5H
	DW	00H
	DW	0a80bH
	DW	0a80bH
	DW	00H
	DW	057f5H
	DW	057f5H
	DW	00H
	DW	0a80bH
	DW	0a80bH
	DW	00H
	DW	057f5H
	DW	057f5H
	DW	00H
	DW	0a80bH
	DW	0a80bH
	DW	00H
	DW	057f5H
	DW	057f5H
	DW	00H
	DW	0a80bH
	DW	0a80bH
	DW	00H
	DW	057f5H
	DW	057f5H
	DW	00H
	DW	0a80bH
	DW	0a80bH
	DW	00H
	DW	057f5H
	DW	057f5H
	DW	00H
	DW	0a80bH
	DW	0a80bH
	DW	00H
	DW	057f5H
	DW	057f5H
	DW	00H
	DW	0a80bH
	DW	0a80bH
	DW	00H
	DW	057f5H
	DW	057f5H
	DW	00H
	DW	0a80bH
	DW	0a80bH
	DW	00H
	DW	057f5H
	DW	057f5H
	DW	00H
	DW	0a80bH
	DW	0a80bH
	DW	00H
	DW	057f5H
	DW	057f5H
	DW	00H
	DW	0a80bH
	DW	0a80bH
	DW	00H
	DW	057f5H
	DW	057f5H
	DW	00H
	DW	0a80bH
	DW	0a80bH
	DW	00H
	DW	057f5H
	DW	057f5H
	DW	00H
	DW	0a80bH
	DW	0a80bH
	DW	047d1H
	DW	0621aH
	DW	01a49H
	DW	0b82fH
	DW	09de6H
	DW	0e5b7H
	DW	047d1H
	DW	0621aH
	DW	01a49H
	DW	0b82fH
	DW	09de6H
	DW	0e5b7H
	DW	047d1H
	DW	0621aH
	DW	01a49H
	DW	0b82fH
	DW	09de6H
	DW	0e5b7H
	DW	047d1H
	DW	0621aH
	DW	01a49H
	DW	0b82fH
	DW	09de6H
	DW	0e5b7H
	DW	047d1H
	DW	0621aH
	DW	01a49H
	DW	0b82fH
	DW	09de6H
	DW	0e5b7H
	DW	047d1H
	DW	0621aH
	DW	01a49H
	DW	0b82fH
	DW	09de6H
	DW	0e5b7H
	DW	047d1H
	DW	0621aH
	DW	01a49H
	DW	0b82fH
	DW	09de6H
	DW	0e5b7H
	DW	047d1H
	DW	0621aH
	DW	01a49H
	DW	0b82fH
	DW	09de6H
	DW	0e5b7H
	DW	047d1H
	DW	0621aH
	DW	01a49H
	DW	0b82fH
	DW	09de6H
	DW	0e5b7H
	DW	047d1H
	DW	0621aH
	DW	01a49H
	DW	0b82fH
	DW	09de6H
	DW	0e5b7H
	DW	047d1H
	DW	0621aH
	DW	01a49H
	DW	0b82fH
	DW	09de6H
	DW	0e5b7H
	DW	047d1H
	DW	0621aH
	DW	01a49H
	DW	0b82fH
	DW	09de6H
	DW	0e5b7H
	DW	06590H
	DW	032c8H
	DW	0cd38H
	DW	09a70H
	DW	0cd38H
	DW	032c8H
	DW	06590H
	DW	032c8H
	DW	0cd38H
	DW	09a70H
	DW	0cd38H
	DW	032c8H
	DW	06590H
	DW	032c8H
	DW	0cd38H
	DW	09a70H
	DW	0cd38H
	DW	032c8H
	DW	06590H
	DW	032c8H
	DW	0cd38H
	DW	09a70H
	DW	0cd38H
	DW	032c8H
	DW	06590H
	DW	032c8H
	DW	0cd38H
	DW	09a70H
	DW	0cd38H
	DW	032c8H
	DW	06590H
	DW	032c8H
	DW	0cd38H
	DW	09a70H
	DW	0cd38H
	DW	032c8H
	DW	06590H
	DW	032c8H
	DW	0cd38H
	DW	09a70H
	DW	0cd38H
	DW	032c8H
	DW	06590H
	DW	032c8H
	DW	0cd38H
	DW	09a70H
	DW	0cd38H
	DW	032c8H
	DW	06590H
	DW	032c8H
	DW	0cd38H
	DW	09a70H
	DW	0cd38H
	DW	032c8H
	DW	06590H
	DW	032c8H
	DW	0cd38H
	DW	09a70H
	DW	0cd38H
	DW	032c8H
	DW	06590H
	DW	032c8H
	DW	0cd38H
	DW	09a70H
	DW	0cd38H
	DW	032c8H
	DW	06590H
	DW	032c8H
	DW	0cd38H
	DW	09a70H
	DW	0cd38H
	DW	032c8H
	DW	047d1H
	DW	0e5b7H
	DW	09de6H
	DW	0b82fH
	DW	01a49H
	DW	0621aH
	DW	047d1H
	DW	0e5b7H
	DW	09de6H
	DW	0b82fH
	DW	01a49H
	DW	0621aH
	DW	047d1H
	DW	0e5b7H
	DW	09de6H
	DW	0b82fH
	DW	01a49H
	DW	0621aH
	DW	047d1H
	DW	0e5b7H
	DW	09de6H
	DW	0b82fH
	DW	01a49H
	DW	0621aH
	DW	047d1H
	DW	0e5b7H
	DW	09de6H
	DW	0b82fH
	DW	01a49H
	DW	0621aH
	DW	047d1H
	DW	0e5b7H
	DW	09de6H
	DW	0b82fH
	DW	01a49H
	DW	0621aH
	DW	047d1H
	DW	0e5b7H
	DW	09de6H
	DW	0b82fH
	DW	01a49H
	DW	0621aH
	DW	047d1H
	DW	0e5b7H
	DW	09de6H
	DW	0b82fH
	DW	01a49H
	DW	0621aH
	DW	047d1H
	DW	0e5b7H
	DW	09de6H
	DW	0b82fH
	DW	01a49H
	DW	0621aH
	DW	047d1H
	DW	0e5b7H
	DW	09de6H
	DW	0b82fH
	DW	01a49H
	DW	0621aH
	DW	047d1H
	DW	0e5b7H
	DW	09de6H
	DW	0b82fH
	DW	01a49H
	DW	0621aH
	DW	047d1H
	DW	0e5b7H
	DW	09de6H
	DW	0b82fH
	DW	01a49H
	DW	0621aH
	DW	00H
	DW	05cc8H
	DW	04b7aH
	DW	0e09eH
	DW	09afeH
	DW	0cd38H
	DW	03bb2H
	DW	06358H
	DW	0151eH
	DW	0add6H
	DW	0a80bH
	DW	0a9eH
	DW	06097H
	DW	043f5H
	DW	0d6b1H
	DW	09a70H
	DW	0d6b1H
	DW	043f5H
	DW	06097H
	DW	0a9eH
	DW	0a80bH
	DW	0add6H
	DW	0151eH
	DW	06358H
	DW	03bb2H
	DW	0cd38H
	DW	09afeH
	DW	0e09eH
	DW	04b7aH
	DW	05cc8H
	DW	00H
	DW	0a338H
	DW	0b486H
	DW	01f63H
	DW	06502H
	DW	032c8H
	DW	0c44eH
	DW	09ca8H
	DW	0eae2H
	DW	0522bH
	DW	057f5H
	DW	0f562H
	DW	09f68H
	DW	0bc0bH
	DW	0294fH
	DW	06590H
	DW	0294fH
	DW	0bc0bH
	DW	09f69H
	DW	0f562H
	DW	057f5H
	DW	0522aH
	DW	0eae2H
	DW	09ca8H
	DW	0c44eH
	DW	032c8H
	DW	06502H
	DW	01f62H
	DW	0b486H
	DW	0a338H
	DW	00H
	DW	05cc8H
	DW	04b7aH
	DW	0e09dH
	DW	09afeH
	DW	0cd38H
	DW	03bb3H
	DW	06358H
	DW	0151eH
	DW	0add5H
	DW	0a80bH
	DW	0a9eH
	DW	047d1H
	DW	05ed1H
	DW	0551H
	DW	0a582H
	DW	0b112H
	DW	01a49H
	DW	06450H
	DW	03751H
	DW	0c8afH
	DW	09bb0H
	DW	0e5b7H
	DW	04eeeH
	DW	05a7eH
	DW	0faafH
	DW	0a12fH
	DW	0b82fH
	DW	02466H
	DW	0656cH
	DW	02e1cH
	DW	0c016H
	DW	09de6H
	DW	0f01dH
	DW	0552dH
	DW	0552dH
	DW	0f01dH
	DW	09de6H
	DW	0c016H
	DW	02e1cH
	DW	0656cH
	DW	02465H
	DW	0b82fH
	DW	0a12fH
	DW	0faafH
	DW	05a7eH
	DW	04eeeH
	DW	0e5b7H
	DW	09bb0H
	DW	0c8afH
	DW	03751H
	DW	06450H
	DW	01a49H
	DW	0b112H
	DW	0a582H
	DW	0551H
	DW	05ed1H
	DW	047d1H
	DW	0db9aH
	DW	09a94H
	DW	0d1e4H
	DW	03feaH
	DW	0621aH
	DW	0fe3H
	DW	0aad2H
	DW	0aad3H
	DW	0fe3H
	DW	0621aH
	DW	03feaH
	DW	0d1e4H
	DW	09a94H
	DW	0db9bH
	DW	047d1H
	DW	05ed1H
	DW	0551H
	DW	0a582H
	DW	0b112H
	DW	01a49H
	DW	06450H
	DW	03750H
	DW	0c8afH
	DW	09bb0H
	DW	0e5b7H
	DW	04eeeH
	DW	06590H
	DW	0294fH
	DW	0bc0bH
	DW	09f69H
	DW	0f562H
	DW	057f5H
	DW	0522aH
	DW	0eae2H
	DW	09ca8H
	DW	0c44eH
	DW	032c8H
	DW	06502H
	DW	01f62H
	DW	0b486H
	DW	0a338H
	DW	00H
	DW	05cc8H
	DW	04b7aH
	DW	0e09eH
	DW	09afeH
	DW	0cd38H
	DW	03bb2H
	DW	06358H
	DW	0151eH
	DW	0add6H
	DW	0a80bH
	DW	0a9eH
	DW	06097H
	DW	043f5H
	DW	0d6b1H
	DW	09a70H
	DW	0d6b1H
	DW	043f5H
	DW	06097H
	DW	0a9eH
	DW	0a80bH
	DW	0add6H
	DW	0151eH
	DW	06358H
	DW	03bb2H
	DW	0cd38H
	DW	09afeH
	DW	0e09eH
	DW	04b7aH
	DW	05cc8H
	DW	00H
	DW	0a338H
	DW	0b486H
	DW	01f63H
	DW	06502H
	DW	032c8H
	DW	0c44dH
	DW	09ca8H
	DW	0eae2H
	DW	0522bH
	DW	057f5H
	DW	0f562H
	DW	09f68H
	DW	0bc0bH
	DW	0294fH
	DW	06590H
	DW	0294fH
	DW	0bc0aH
	DW	09f69H
	DW	0f562H
	DW	057f5H
	DW	0522aH
	DW	0eae2H
	DW	09ca8H
	DW	0c44eH
	DW	032c8H
	DW	06502H
	DW	047d1H
	DW	0db9aH
	DW	09a94H
	DW	0d1e4H
	DW	03feaH
	DW	0621aH
	DW	0fe3H
	DW	0aad3H
	DW	0aad3H
	DW	0fe3H
	DW	0621aH
	DW	03feaH
	DW	0d1e4H
	DW	09a94H
	DW	0db9aH
	DW	047d1H
	DW	05ed1H
	DW	0551H
	DW	0a582H
	DW	0b112H
	DW	01a49H
	DW	06450H
	DW	03751H
	DW	0c8afH
	DW	09bb0H
	DW	0e5b7H
	DW	04eeeH
	DW	05a7eH
	DW	0faafH
	DW	0a12fH
	DW	0b82fH
	DW	02466H
	DW	0656cH
	DW	02e1cH
	DW	0c016H
	DW	09de6H
	DW	0f01dH
	DW	0552eH
	DW	0552dH
	DW	0f01dH
	DW	09de6H
	DW	0c016H
	DW	02e1cH
	DW	0656cH
	DW	02465H
	DW	0b82fH
	DW	0a12fH
	DW	0faafH
	DW	05a7eH
	DW	04eeeH
	DW	0e5b7H
	DW	09bb0H
	DW	0c8b0H
	DW	03751H
	DW	06450H
	DW	01a49H
	DW	0b112H
	DW	0a582H
	DW	0551H
	DW	05ed1H
	DW	047d1H
	DW	0db9aH
	DW	09a94H
	DW	0d1e4H
	DW	03feaH
	DW	0621aH
	DW	0fe3H
	DW	0aad2H
	DW	0aad3H
	DW	0fe4H
	DW	0621aH
	DW	03feaH
CONST	ENDS
END
