; Listing generated by Microsoft (R) Optimizing Compiler Version 14.00.50727.42 

	TITLE	c:\SkyDrive\Dev\Source\ARDOPC\ARDOPC.c
	.686P
	.XMM
	include listing.inc
	.model	flat

INCLUDELIB LIBCMTD
INCLUDELIB OLDNAMES

PUBLIC	_GridSquare
PUBLIC	_Callsign
PUBLIC	_wantCWID
PUBLIC	_CWOnOff
PUBLIC	_NeedID
PUBLIC	_NeedConReq
PUBLIC	_NeedTwoToneTest
PUBLIC	_ConnectToCall
PUBLIC	_LeaderLength
PUBLIC	_TrailerLength
PUBLIC	_ARQTimeout
PUBLIC	_TuningRange
PUBLIC	_TXLevel
PUBLIC	_RXLevel
PUBLIC	_autoRXLevel
PUBLIC	_ARQConReqRepeats
PUBLIC	_DebugLog
PUBLIC	_CommandTrace
PUBLIC	_DriveLevel
PUBLIC	_strFECMode
PUBLIC	_FECRepeats
PUBLIC	_FECId
PUBLIC	_Squelch
PUBLIC	_BusyDet
PUBLIC	_ARQBandwidth
PUBLIC	_port
PUBLIC	_RadioControl
PUBLIC	_SlowCPU
PUBLIC	_AccumulateStats
PUBLIC	_Use600Modes
PUBLIC	_FSKOnly
PUBLIC	_fastStart
PUBLIC	_skip167
PUBLIC	_ConsoleLogLevel
PUBLIC	_blnInitializing
PUBLIC	_blnLastPTT
PUBLIC	_PlayComplete
PUBLIC	_intRmtLeaderMeasure
PUBLIC	_ARDOPStates
PUBLIC	_Semaphore
PUBLIC	_SoundIsPlaying
PUBLIC	_Capturing
PUBLIC	_blnAbort
PUBLIC	_blnARQDisconnect
PUBLIC	_ProtocolMode
PUBLIC	_blnFramePending
PUBLIC	_blnClosing
PUBLIC	_blnCodecStarted
PUBLIC	_dttNextPlay
PUBLIC	_bytValidFrameTypesALL
PUBLIC	_bytValidFrameTypesISS
PUBLIC	_bytValidFrameTypesLengthISS
PUBLIC	_bytValidFrameTypesLengthALL
PUBLIC	_isValidFrame
PUBLIC	_blnTimeoutTriggered
PUBLIC	_bytEncodedBytes
PUBLIC	_intAmp
PUBLIC	_strAllDataModes
PUBLIC	_strAllDataModesLen
PUBLIC	_Rate
PUBLIC	_strFrameType
PUBLIC	_NPAR
PUBLIC	_MaxErrors
PUBLIC	_LastBusyCheck
PUBLIC	_CRCTAB
_DATA	SEGMENT
COMM	_blnBusyStatus:DWORD
COMM	_intCalcLeader:DWORD
COMM	_dblAvgPk2BaselineRatio:DWORD
COMM	_intPSKQuality:DWORD:02H
COMM	_newStatus:DWORD
COMM	_intLastRcvdFrameQuality:DWORD
COMM	_dblAvgBaselineFast:DWORD
COMM	_int4FSKQuality:DWORD
COMM	_ProtocolState:DWORD
COMM	_intGoodQAMSummationDecodes:DWORD
COMM	_dttCodecStarted:DWORD
COMM	_intQAMQualityCnts:DWORD
COMM	_intQAMSymbolsDecoded:DWORD
COMM	_tmrSendTimeout:DWORD
COMM	_intLastStart:DWORD
COMM	_intRepeatCount:DWORD
COMM	_int16FSKQuality:DWORD
COMM	_bytValidFrameTypesLength:DWORD
COMM	_intFSKSymbolsDecoded:DWORD
COMM	_blnErrorsCorrected:DWORD
COMM	_int16FSKQualityCnts:DWORD
COMM	_dttLastBusy:DWORD
COMM	_intPSKSymbolsDecoded:DWORD
COMM	_dttLastClear:DWORD
COMM	_int8FSKQuality:DWORD
COMM	_intLastStop:DWORD
COMM	_intPSKQualityCnts:DWORD:02H
COMM	_Corrected:DWORD:0100H
COMM	_bytValidFrameTypes:DWORD
COMM	_State:DWORD
COMM	_intRepeatCnt:DWORD
COMM	_int4FSKQualityCnts:DWORD
COMM	_intQAMQuality:DWORD
COMM	_dttStartRTMeasure:DWORD
COMM	_int8FSKQualityCnts:DWORD
COMM	_EncLen:DWORD
COMM	_DecodeCompleteTime:DWORD
COMM	_dblAvgBaselineSlow:DWORD
_DATA	ENDS
_BSS	SEGMENT
_GridSquare DB	09H DUP (?)
	ALIGN	4

_Callsign DB	0aH DUP (?)
	ALIGN	4

_wantCWID DD	01H DUP (?)
_CWOnOff DD	01H DUP (?)
_NeedID	DD	01H DUP (?)
_NeedConReq DD	01H DUP (?)
_NeedTwoToneTest DD 01H DUP (?)
_ConnectToCall DB 010H DUP (?)
_TrailerLength DD 01H DUP (?)
_RXLevel DD	01H DUP (?)
_FECRepeats DD	01H DUP (?)
_FECId	DD	01H DUP (?)
_RadioControl DD 01H DUP (?)
_SlowCPU DD	01H DUP (?)
_Use600Modes DD	01H DUP (?)
_FSKOnly DD	01H DUP (?)
_skip167 DD	01H DUP (?)
_blnInitializing DD 01H DUP (?)
_blnLastPTT DD	01H DUP (?)
_PlayComplete DD 01H DUP (?)
_intRmtLeaderMeasure DD 01H DUP (?)
_Semaphore DB	010H DUP (?)
_SoundIsPlaying DD 01H DUP (?)
_blnAbort DD	01H DUP (?)
_blnARQDisconnect DD 01H DUP (?)
_blnFramePending DD 01H DUP (?)
_blnClosing DD	01H DUP (?)
_blnCodecStarted DD 01H DUP (?)
_dttNextPlay DD	01H DUP (?)
_blnTimeoutTriggered DD 01H DUP (?)
_bytEncodedBytes DB 0708H DUP (?)
_MaxErrors DD	01H DUP (?)
_LastBusyCheck DD 01H DUP (?)
_BSS	ENDS
CONST	SEGMENT
_ARDOPStates DB	'OFFLINE', 00H
	ORG $+1
	DB	'DISC', 00H
	ORG $+4
	DB	'ISS', 00H
	ORG $+5
	DB	'IRS', 00H
	ORG $+5
	DB	'IDLE', 00H
	ORG $+4
	DB	'IRStoISS', 00H
	DB	'FECSEND', 00H
	ORG $+1
	DB	'FECRCV', 00H
	ORG $+2
_bytValidFrameTypesALL DB 00H
	DB	01H
	DB	02H
	DB	03H
	DB	04H
	DB	05H
	DB	06H
	DB	07H
	DB	08H
	DB	09H
	DB	0aH
	DB	0bH
	DB	0cH
	DB	0dH
	DB	0eH
	DB	0fH
	DB	010H
	DB	011H
	DB	012H
	DB	013H
	DB	014H
	DB	015H
	DB	016H
	DB	017H
	DB	018H
	DB	019H
	DB	01aH
	DB	01bH
	DB	01cH
	DB	01dH
	DB	01eH
	DB	01fH
	DB	023H
	DB	024H
	DB	029H
	DB	02cH
	DB	02dH
	DB	02eH
	DB	030H
	DB	031H
	DB	032H
	DB	033H
	DB	034H
	DB	035H
	DB	036H
	DB	037H
	DB	038H
	DB	039H
	DB	03aH
	DB	03bH
	DB	03cH
	DB	040H
	DB	041H
	DB	042H
	DB	043H
	DB	044H
	DB	045H
	DB	046H
	DB	047H
	DB	048H
	DB	049H
	DB	04aH
	DB	04bH
	DB	04cH
	DB	04dH
	DB	04eH
	DB	04fH
	DB	050H
	DB	051H
	DB	052H
	DB	053H
	DB	054H
	DB	055H
	DB	058H
	DB	059H
	DB	05aH
	DB	05bH
	DB	05cH
	DB	05dH
	DB	060H
	DB	061H
	DB	062H
	DB	063H
	DB	064H
	DB	065H
	DB	066H
	DB	067H
	DB	068H
	DB	069H
	DB	070H
	DB	071H
	DB	072H
	DB	073H
	DB	074H
	DB	075H
	DB	076H
	DB	077H
	DB	078H
	DB	079H
	DB	07aH
	DB	07bH
	DB	07cH
	DB	07dH
	DB	0d0H
	DB	0e0H
	DB	0e1H
	DB	0e2H
	DB	0e3H
	DB	0e4H
	DB	0e5H
	DB	0e6H
	DB	0e7H
	DB	0e8H
	DB	0e9H
	DB	0eaH
	DB	0ebH
	DB	0ecH
	DB	0edH
	DB	0eeH
	DB	0efH
	DB	0f0H
	DB	0f1H
	DB	0f2H
	DB	0f3H
	DB	0f4H
	DB	0f5H
	DB	0f6H
	DB	0f7H
	DB	0f8H
	DB	0f9H
	DB	0faH
	DB	0fbH
	DB	0fcH
	DB	0fdH
	DB	0feH
	DB	0ffH
_bytValidFrameTypesISS DB 00H
	DB	01H
	DB	02H
	DB	03H
	DB	04H
	DB	05H
	DB	06H
	DB	07H
	DB	08H
	DB	09H
	DB	0aH
	DB	0bH
	DB	0cH
	DB	0dH
	DB	0eH
	DB	0fH
	DB	010H
	DB	011H
	DB	012H
	DB	013H
	DB	014H
	DB	015H
	DB	016H
	DB	017H
	DB	018H
	DB	019H
	DB	01aH
	DB	01bH
	DB	01cH
	DB	01dH
	DB	01eH
	DB	01fH
	DB	023H
	DB	029H
	DB	02cH
	DB	02dH
	DB	02eH
	DB	031H
	DB	032H
	DB	033H
	DB	034H
	DB	035H
	DB	036H
	DB	037H
	DB	038H
	DB	039H
	DB	03aH
	DB	03bH
	DB	03cH
	DB	0e0H
	DB	0e1H
	DB	0e2H
	DB	0e3H
	DB	0e4H
	DB	0e5H
	DB	0e6H
	DB	0e7H
	DB	0e8H
	DB	0e9H
	DB	0eaH
	DB	0ebH
	DB	0ecH
	DB	0edH
	DB	0eeH
	DB	0efH
	DB	0f0H
	DB	0f1H
	DB	0f2H
	DB	0f3H
	DB	0f4H
	DB	0f5H
	DB	0f6H
	DB	0f7H
	DB	0f8H
	DB	0f9H
	DB	0faH
	DB	0fbH
	DB	0fcH
	DB	0fdH
	DB	0feH
	DB	0ffH
	ORG $+7
_strAllDataModes DB '8FSK.200.25', 00H
	ORG $+3
	DB	'4FSK.200.50S', 00H
	ORG $+2
	DB	'4FSK.200.50', 00H
	ORG $+3
	DB	'4PSK.200.100S', 00H
	ORG $+1
	DB	'4PSK.200.100', 00H
	ORG $+2
	DB	'8PSK.200.100', 00H
	ORG $+2
	DB	'16QAM.200.100', 00H
	ORG $+1
	DB	'16FSK.500.25S', 00H
	ORG $+1
	DB	'16FSK.500.25', 00H
	ORG $+2
	DB	'4FSK.500.100S', 00H
	ORG $+1
	DB	'4FSK.500.100', 00H
	ORG $+2
	DB	'4PSK.500.100', 00H
	ORG $+2
	DB	'8PSK.500.100', 00H
	ORG $+2
	DB	'16QAM.500.100', 00H
	ORG $+1
	DB	'4FSK.1000.100', 00H
	ORG $+1
	DB	'4PSK.1000.100', 00H
	ORG $+1
	DB	'8PSK.1000.100', 00H
	ORG $+1
	DB	'4PSK.1000.167', 00H
	ORG $+1
	DB	'8PSK.1000.167', 00H
	ORG $+1
	DB	'4FSK.2000.600S', 00H
	DB	'4FSK.2000.600', 00H
	ORG $+1
	DB	'4FSK.2000.100', 00H
	ORG $+1
	DB	'4PSK.2000.100', 00H
	ORG $+1
	DB	'8PSK.2000.100', 00H
	ORG $+1
	DB	'4PSK.2000.167', 00H
	ORG $+1
	DB	'8PSK.2000.167', 00H
	ORG $+1
	ORG $+2
_Rate	DW	00H
	DW	00H
	DW	00H
	DW	00H
	DW	00H
	DW	00H
	DW	00H
	DW	00H
	DW	00H
	DW	00H
	DW	00H
	DW	00H
	DW	00H
	DW	00H
	DW	00H
	DW	00H
	DW	00H
	DW	00H
	DW	00H
	DW	00H
	DW	00H
	DW	00H
	DW	00H
	DW	00H
	DW	00H
	DW	00H
	DW	00H
	DW	00H
	DW	00H
	DW	00H
	DW	00H
	DW	00H
	DW	00H
	DW	00H
	DW	00H
	DW	00H
	DW	00H
	DW	00H
	DW	00H
	DW	00H
	DW	00H
	DW	00H
	DW	00H
	DW	00H
	DW	00H
	DW	00H
	DW	00H
	DW	00H
	DW	00H
	DW	00H
	DW	00H
	DW	00H
	DW	00H
	DW	00H
	DW	00H
	DW	00H
	DW	00H
	DW	00H
	DW	00H
	DW	00H
	DW	00H
	DW	00H
	DW	00H
	DW	00H
	DW	00H
	DW	00H
	DW	00H
	DW	00H
	DW	00H
	DW	00H
	DW	00H
	DW	00H
	DW	00H
	DW	00H
	DW	00H
	DW	00H
	DW	00H
	DW	00H
	DW	00H
	DW	00H
	DW	00H
	DW	00H
	DW	00H
	DW	00H
	DW	00H
	DW	00H
	DW	00H
	DW	00H
	DW	00H
	DW	00H
	DW	00H
	DW	00H
	DW	00H
	DW	00H
	DW	00H
	DW	00H
	DW	00H
	DW	00H
	DW	00H
	DW	00H
	DW	00H
	DW	00H
	DW	00H
	DW	00H
	DW	00H
	DW	00H
	DW	00H
	DW	00H
	DW	00H
	DW	00H
	DW	00H
	DW	00H
	DW	00H
	DW	00H
	DW	00H
	DW	00H
	DW	00H
	DW	00H
	DW	00H
	DW	00H
	DW	00H
	DW	00H
	DW	00H
	DW	00H
	DW	00H
	DW	00H
	DW	00H
	DW	00H
	DW	00H
	DW	00H
	DW	00H
	DW	00H
	DW	00H
	DW	00H
	DW	00H
	DW	00H
	DW	00H
	DW	00H
	DW	00H
	DW	00H
	DW	00H
	DW	00H
	DW	00H
	DW	00H
	DW	00H
	DW	00H
	DW	00H
	DW	00H
	DW	00H
	DW	00H
	DW	00H
	DW	00H
	DW	00H
	DW	00H
	DW	00H
	DW	00H
	DW	00H
	DW	00H
	DW	00H
	DW	00H
	DW	00H
	DW	00H
	DW	00H
	DW	00H
	DW	00H
	DW	00H
	DW	00H
	DW	00H
	DW	00H
	DW	00H
	DW	00H
	DW	00H
	DW	00H
	DW	00H
	DW	00H
	DW	00H
	DW	00H
	DW	00H
	DW	00H
	DW	00H
	DW	00H
	DW	00H
	DW	00H
	DW	00H
	DW	00H
	DW	00H
	DW	00H
	DW	00H
	DW	00H
	DW	00H
	DW	00H
	DW	00H
	DW	00H
	DW	00H
	DW	00H
	DW	00H
	DW	00H
	DW	00H
	DW	00H
	DW	00H
	DW	00H
	DW	00H
	DW	00H
	DW	00H
	DW	00H
	DW	00H
	DW	00H
	DW	00H
	DW	00H
	DW	00H
	DW	00H
	DW	00H
	DW	00H
	DW	00H
	DW	00H
	DW	00H
	DW	00H
	DW	00H
	DW	00H
	DW	00H
	DW	00H
	DW	00H
	DW	00H
	DW	00H
	DW	00H
	DW	00H
	DW	00H
	DW	00H
	DW	00H
	DW	00H
	DW	00H
	DW	00H
	DW	00H
	DW	00H
	DW	00H
	DW	00H
	DW	00H
	DW	00H
	DW	00H
	DW	00H
	DW	00H
	DW	00H
	DW	00H
	DW	00H
	DW	00H
	DW	00H
	DW	00H
	DW	00H
	DW	00H
	DW	00H
	DW	00H
	DW	00H
	DW	00H
	DW	00H
	DW	00H
	DW	00H
_strFrameType DB 'DataNAK', 00H
	ORG $+10
	DB	00H
	ORG $+17
	DB	00H
	ORG $+17
	DB	00H
	ORG $+17
	DB	00H
	ORG $+17
	DB	00H
	ORG $+17
	DB	00H
	ORG $+17
	DB	00H
	ORG $+17
	DB	00H
	ORG $+17
	DB	00H
	ORG $+17
	DB	00H
	ORG $+17
	DB	00H
	ORG $+17
	DB	00H
	ORG $+17
	DB	00H
	ORG $+17
	DB	00H
	ORG $+17
	DB	00H
	ORG $+17
	DB	00H
	ORG $+17
	DB	00H
	ORG $+17
	DB	00H
	ORG $+17
	DB	00H
	ORG $+17
	DB	00H
	ORG $+17
	DB	00H
	ORG $+17
	DB	00H
	ORG $+17
	DB	00H
	ORG $+17
	DB	00H
	ORG $+17
	DB	00H
	ORG $+17
	DB	00H
	ORG $+17
	DB	00H
	ORG $+17
	DB	00H
	ORG $+17
	DB	00H
	ORG $+17
	DB	00H
	ORG $+17
	DB	00H
	ORG $+17
	DB	00H
	ORG $+17
	DB	00H
	ORG $+17
	DB	00H
	ORG $+17
	DB	'BREAK', 00H
	ORG $+12
	DB	'IDLE', 00H
	ORG $+13
	DB	00H
	ORG $+17
	DB	00H
	ORG $+17
	DB	00H
	ORG $+17
	DB	00H
	ORG $+17
	DB	'DISC', 00H
	ORG $+13
	DB	00H
	ORG $+17
	DB	00H
	ORG $+17
	DB	'END', 00H
	ORG $+14
	DB	'ConRejBusy', 00H
	ORG $+7
	DB	'ConRejBW', 00H
	ORG $+9
	DB	00H
	ORG $+17
	DB	'IDFrame', 00H
	ORG $+10
	DB	'ConReq200M', 00H
	ORG $+7
	DB	'ConReq500M', 00H
	ORG $+7
	DB	'ConReq1000M', 00H
	ORG $+6
	DB	'ConReq2000M', 00H
	ORG $+6
	DB	'ConReq200F', 00H
	ORG $+7
	DB	'ConReq500F', 00H
	ORG $+7
	DB	'ConReq1000F', 00H
	ORG $+6
	DB	'ConReq2000F', 00H
	ORG $+6
	DB	'ConAck200', 00H
	ORG $+8
	DB	'ConAck500', 00H
	ORG $+8
	DB	'ConAck1000', 00H
	ORG $+7
	DB	'ConAck2000', 00H
	ORG $+7
	DB	00H
	ORG $+17
	DB	00H
	ORG $+17
	DB	00H
	ORG $+17
	DB	'4PSK.200.100.E', 00H
	ORG $+3
	DB	'4PSK.200.100.O', 00H
	ORG $+3
	DB	'4PSK.200.100S.E', 00H
	ORG $+2
	DB	'4PSK.200.100S.O', 00H
	ORG $+2
	DB	'8PSK.200.100.E', 00H
	ORG $+3
	DB	'8PSK.200.100.O', 00H
	ORG $+3
	DB	'4FSK.200.50.E', 00H
	ORG $+4
	DB	'4FSK.200.50.O', 00H
	ORG $+4
	DB	'4FSK.200.50S.E', 00H
	ORG $+3
	DB	'4FSK.200.50S.O', 00H
	ORG $+3
	DB	'4FSK.500.100.E', 00H
	ORG $+3
	DB	'4FSK.500.100.O', 00H
	ORG $+3
	DB	'4FSK.500.100S.E', 00H
	ORG $+2
	DB	'4FSK.500.100S.O', 00H
	ORG $+2
	DB	'8FSK.200.25.E', 00H
	ORG $+4
	DB	'8FSK.200.25.O', 00H
	ORG $+4
	DB	'4PSK.500.100.E', 00H
	ORG $+3
	DB	'4PSK.500.100.O', 00H
	ORG $+3
	DB	'8PSK.500.100.E', 00H
	ORG $+3
	DB	'8PSK.500.100.O', 00H
	ORG $+3
	DB	'16QAM.500.100.E', 00H
	ORG $+2
	DB	'16QAM.500.100.O', 00H
	ORG $+2
	DB	00H
	ORG $+17
	DB	00H
	ORG $+17
	DB	'16FSK.500.25.E', 00H
	ORG $+3
	DB	'16FSK.500.25.O', 00H
	ORG $+3
	DB	'16FSK.500.25S.E', 00H
	ORG $+2
	DB	'16FSK.500.25S.O', 00H
	ORG $+2
	DB	'16QAM.200.100.E', 00H
	ORG $+2
	DB	'16QAM.200.100.O', 00H
	ORG $+2
	DB	00H
	ORG $+17
	DB	00H
	ORG $+17
	DB	'4PSK.1000.100.E', 00H
	ORG $+2
	DB	'4PSK.1000.100.O', 00H
	ORG $+2
	DB	'8PSK.1000.100.E', 00H
	ORG $+2
	DB	'8PSK.1000.100.O', 00H
	ORG $+2
	DB	'4PSK.1000.167.E', 00H
	ORG $+2
	DB	'4PSK.1000.167.O', 00H
	ORG $+2
	DB	'8PSK.1000.167.E', 00H
	ORG $+2
	DB	'8PSK.1000.167.O', 00H
	ORG $+2
	DB	'4FSK.1000.100.E', 00H
	ORG $+2
	DB	'4FSK.1000.100.O', 00H
	ORG $+2
	DB	00H
	ORG $+17
	DB	00H
	ORG $+17
	DB	00H
	ORG $+17
	DB	00H
	ORG $+17
	DB	00H
	ORG $+17
	DB	00H
	ORG $+17
	DB	'4PSK.2000.100.E', 00H
	ORG $+2
	DB	'4PSK.2000.100.O', 00H
	ORG $+2
	DB	'8PSK.2000.100.E', 00H
	ORG $+2
	DB	'8PSK.2000.100.O', 00H
	ORG $+2
	DB	'4PSK.2000.167.E', 00H
	ORG $+2
	DB	'4PSK.2000.167.O', 00H
	ORG $+2
	DB	'8PSK.2000.167.E', 00H
	ORG $+2
	DB	'8PSK.2000.167.O', 00H
	ORG $+2
	DB	'4FSK.2000.100.E', 00H
	ORG $+2
	DB	'4FSK.2000.100.O', 00H
	ORG $+2
	DB	'4FSK.2000.600.E', 00H
	ORG $+2
	DB	'4FSK.2000.600.O', 00H
	ORG $+2
	DB	'4FSK.2000.600S.E', 00H
	ORG $+1
	DB	'4FSK.2000.600S.O', 00H
	ORG $+1
	DB	00H
	ORG $+17
	DB	00H
	ORG $+17
	DB	00H
	ORG $+17
	DB	00H
	ORG $+17
	DB	00H
	ORG $+17
	DB	00H
	ORG $+17
	DB	00H
	ORG $+17
	DB	00H
	ORG $+17
	DB	00H
	ORG $+17
	DB	00H
	ORG $+17
	DB	00H
	ORG $+17
	DB	00H
	ORG $+17
	DB	00H
	ORG $+17
	DB	00H
	ORG $+17
	DB	00H
	ORG $+17
	DB	00H
	ORG $+17
	DB	00H
	ORG $+17
	DB	00H
	ORG $+17
	DB	00H
	ORG $+17
	DB	00H
	ORG $+17
	DB	00H
	ORG $+17
	DB	00H
	ORG $+17
	DB	00H
	ORG $+17
	DB	00H
	ORG $+17
	DB	00H
	ORG $+17
	DB	00H
	ORG $+17
	DB	00H
	ORG $+17
	DB	00H
	ORG $+17
	DB	00H
	ORG $+17
	DB	00H
	ORG $+17
	DB	00H
	ORG $+17
	DB	00H
	ORG $+17
	DB	00H
	ORG $+17
	DB	00H
	ORG $+17
	DB	00H
	ORG $+17
	DB	00H
	ORG $+17
	DB	00H
	ORG $+17
	DB	00H
	ORG $+17
	DB	00H
	ORG $+17
	DB	00H
	ORG $+17
	DB	00H
	ORG $+17
	DB	00H
	ORG $+17
	DB	00H
	ORG $+17
	DB	00H
	ORG $+17
	DB	00H
	ORG $+17
	DB	00H
	ORG $+17
	DB	00H
	ORG $+17
	DB	00H
	ORG $+17
	DB	00H
	ORG $+17
	DB	00H
	ORG $+17
	DB	00H
	ORG $+17
	DB	00H
	ORG $+17
	DB	00H
	ORG $+17
	DB	00H
	ORG $+17
	DB	00H
	ORG $+17
	DB	00H
	ORG $+17
	DB	00H
	ORG $+17
	DB	00H
	ORG $+17
	DB	00H
	ORG $+17
	DB	00H
	ORG $+17
	DB	00H
	ORG $+17
	DB	00H
	ORG $+17
	DB	00H
	ORG $+17
	DB	00H
	ORG $+17
	DB	00H
	ORG $+17
	DB	00H
	ORG $+17
	DB	00H
	ORG $+17
	DB	00H
	ORG $+17
	DB	00H
	ORG $+17
	DB	00H
	ORG $+17
	DB	00H
	ORG $+17
	DB	00H
	ORG $+17
	DB	00H
	ORG $+17
	DB	00H
	ORG $+17
	DB	00H
	ORG $+17
	DB	00H
	ORG $+17
	DB	00H
	ORG $+17
	DB	00H
	ORG $+17
	DB	00H
	ORG $+17
	DB	00H
	ORG $+17
	DB	00H
	ORG $+17
	DB	00H
	ORG $+17
	DB	'SOUND2K', 00H
	ORG $+10
	DB	00H
	ORG $+17
	DB	00H
	ORG $+17
	DB	00H
	ORG $+17
	DB	00H
	ORG $+17
	DB	00H
	ORG $+17
	DB	00H
	ORG $+17
	DB	00H
	ORG $+17
	DB	00H
	ORG $+17
	DB	00H
	ORG $+17
	DB	00H
	ORG $+17
	DB	00H
	ORG $+17
	DB	00H
	ORG $+17
	DB	00H
	ORG $+17
	DB	00H
	ORG $+17
	DB	00H
	ORG $+17
	DB	'DataACK', 00H
	ORG $+10
	ORG $+558
_CRCTAB	DW	00H
	DW	01189H
	DW	02312H
	DW	0329bH
	DW	04624H
	DW	057adH
	DW	06536H
	DW	074bfH
	DW	08c48H
	DW	09dc1H
	DW	0af5aH
	DW	0bed3H
	DW	0ca6cH
	DW	0dbe5H
	DW	0e97eH
	DW	0f8f7H
	DW	01081H
	DW	0108H
	DW	03393H
	DW	0221aH
	DW	056a5H
	DW	0472cH
	DW	075b7H
	DW	0643eH
	DW	09cc9H
	DW	08d40H
	DW	0bfdbH
	DW	0ae52H
	DW	0daedH
	DW	0cb64H
	DW	0f9ffH
	DW	0e876H
	DW	02102H
	DW	0308bH
	DW	0210H
	DW	01399H
	DW	06726H
	DW	076afH
	DW	04434H
	DW	055bdH
	DW	0ad4aH
	DW	0bcc3H
	DW	08e58H
	DW	09fd1H
	DW	0eb6eH
	DW	0fae7H
	DW	0c87cH
	DW	0d9f5H
	DW	03183H
	DW	0200aH
	DW	01291H
	DW	0318H
	DW	077a7H
	DW	0662eH
	DW	054b5H
	DW	0453cH
	DW	0bdcbH
	DW	0ac42H
	DW	09ed9H
	DW	08f50H
	DW	0fbefH
	DW	0ea66H
	DW	0d8fdH
	DW	0c974H
	DW	04204H
	DW	0538dH
	DW	06116H
	DW	0709fH
	DW	0420H
	DW	015a9H
	DW	02732H
	DW	036bbH
	DW	0ce4cH
	DW	0dfc5H
	DW	0ed5eH
	DW	0fcd7H
	DW	08868H
	DW	099e1H
	DW	0ab7aH
	DW	0baf3H
	DW	05285H
	DW	0430cH
	DW	07197H
	DW	0601eH
	DW	014a1H
	DW	0528H
	DW	037b3H
	DW	0263aH
	DW	0decdH
	DW	0cf44H
	DW	0fddfH
	DW	0ec56H
	DW	098e9H
	DW	08960H
	DW	0bbfbH
	DW	0aa72H
	DW	06306H
	DW	0728fH
	DW	04014H
	DW	0519dH
	DW	02522H
	DW	034abH
	DW	0630H
	DW	017b9H
	DW	0ef4eH
	DW	0fec7H
	DW	0cc5cH
	DW	0ddd5H
	DW	0a96aH
	DW	0b8e3H
	DW	08a78H
	DW	09bf1H
	DW	07387H
	DW	0620eH
	DW	05095H
	DW	0411cH
	DW	035a3H
	DW	0242aH
	DW	016b1H
	DW	0738H
	DW	0ffcfH
	DW	0ee46H
	DW	0dcddH
	DW	0cd54H
	DW	0b9ebH
	DW	0a862H
	DW	09af9H
	DW	08b70H
	DW	08408H
	DW	09581H
	DW	0a71aH
	DW	0b693H
	DW	0c22cH
	DW	0d3a5H
	DW	0e13eH
	DW	0f0b7H
	DW	0840H
	DW	019c9H
	DW	02b52H
	DW	03adbH
	DW	04e64H
	DW	05fedH
	DW	06d76H
	DW	07cffH
	DW	09489H
	DW	08500H
	DW	0b79bH
	DW	0a612H
	DW	0d2adH
	DW	0c324H
	DW	0f1bfH
	DW	0e036H
	DW	018c1H
	DW	0948H
	DW	03bd3H
	DW	02a5aH
	DW	05ee5H
	DW	04f6cH
	DW	07df7H
	DW	06c7eH
	DW	0a50aH
	DW	0b483H
	DW	08618H
	DW	09791H
	DW	0e32eH
	DW	0f2a7H
	DW	0c03cH
	DW	0d1b5H
	DW	02942H
	DW	038cbH
	DW	0a50H
	DW	01bd9H
	DW	06f66H
	DW	07eefH
	DW	04c74H
	DW	05dfdH
	DW	0b58bH
	DW	0a402H
	DW	09699H
	DW	08710H
	DW	0f3afH
	DW	0e226H
	DW	0d0bdH
	DW	0c134H
	DW	039c3H
	DW	0284aH
	DW	01ad1H
	DW	0b58H
	DW	07fe7H
	DW	06e6eH
	DW	05cf5H
	DW	04d7cH
	DW	0c60cH
	DW	0d785H
	DW	0e51eH
	DW	0f497H
	DW	08028H
	DW	091a1H
	DW	0a33aH
	DW	0b2b3H
	DW	04a44H
	DW	05bcdH
	DW	06956H
	DW	078dfH
	DW	0c60H
	DW	01de9H
	DW	02f72H
	DW	03efbH
	DW	0d68dH
	DW	0c704H
	DW	0f59fH
	DW	0e416H
	DW	090a9H
	DW	08120H
	DW	0b3bbH
	DW	0a232H
	DW	05ac5H
	DW	04b4cH
	DW	079d7H
	DW	0685eH
	DW	01ce1H
	DW	0d68H
	DW	03ff3H
	DW	02e7aH
	DW	0e70eH
	DW	0f687H
	DW	0c41cH
	DW	0d595H
	DW	0a12aH
	DW	0b0a3H
	DW	08238H
	DW	093b1H
	DW	06b46H
	DW	07acfH
	DW	04854H
	DW	059ddH
	DW	02d62H
	DW	03cebH
	DW	0e70H
	DW	01ff9H
	DW	0f78fH
	DW	0e606H
	DW	0d49dH
	DW	0c514H
	DW	0b1abH
	DW	0a022H
	DW	092b9H
	DW	08330H
	DW	07bc7H
	DW	06a4eH
	DW	058d5H
	DW	0495cH
	DW	03de3H
	DW	02c6aH
	DW	01ef1H
	DW	0f78H
CONST	ENDS
_DATA	SEGMENT
_LeaderLength DD 0f0H
_ARQTimeout DD	078H
_TuningRange DD	064H
_TXLevel DD	012cH
_autoRXLevel DD	05dcH
_ARQConReqRepeats DD 05H
_DebugLog DD	01H
_CommandTrace DD 01H
_DriveLevel DD	064H
_strFECMode DB	'4FSK.200.50', 00H
	ORG $+4
_Squelch DD	05H
_BusyDet DD	05H
_ARQBandwidth DD 07H
_port	DD	02143H
_AccumulateStats DD 01H
_fastStart DD	01H
_ConsoleLogLevel DD 06H
_Capturing DD	01H
_ProtocolMode DD 01H
_bytValidFrameTypesLengthISS DD 051H
_bytValidFrameTypesLengthALL DD 088H
_isValidFrame DB 01H
	DB	01H
	DB	01H
	DB	01H
	DB	01H
	DB	01H
	DB	01H
	DB	01H
	DB	01H
	DB	01H
	DB	01H
	DB	01H
	DB	01H
	DB	01H
	DB	01H
	DB	01H
	DB	01H
	DB	01H
	DB	01H
	DB	01H
	DB	01H
	DB	01H
	DB	01H
	DB	01H
	DB	01H
	DB	01H
	DB	01H
	DB	01H
	DB	01H
	DB	01H
	DB	01H
	DB	01H
	DB	00H
	DB	00H
	DB	00H
	DB	01H
	DB	01H
	DB	00H
	DB	00H
	DB	00H
	DB	00H
	DB	01H
	DB	00H
	DB	00H
	DB	01H
	DB	01H
	DB	01H
	DB	00H
	DB	01H
	DB	01H
	DB	01H
	DB	01H
	DB	01H
	DB	01H
	DB	01H
	DB	01H
	DB	01H
	DB	01H
	DB	01H
	DB	01H
	DB	01H
	DB	00H
	DB	00H
	DB	00H
	DB	01H
	DB	01H
	DB	01H
	DB	01H
	DB	01H
	DB	01H
	DB	01H
	DB	01H
	DB	01H
	DB	01H
	DB	01H
	DB	01H
	DB	01H
	DB	01H
	DB	01H
	DB	01H
	DB	01H
	DB	01H
	DB	01H
	DB	01H
	DB	01H
	DB	01H
	DB	00H
	DB	00H
	DB	01H
	DB	01H
	DB	01H
	DB	01H
	DB	01H
	DB	01H
	DB	00H
	DB	00H
	DB	01H
	DB	01H
	DB	01H
	DB	01H
	DB	01H
	DB	01H
	DB	01H
	DB	01H
	DB	01H
	DB	01H
	DB	00H
	DB	00H
	DB	00H
	DB	00H
	DB	00H
	DB	00H
	DB	01H
	DB	01H
	DB	01H
	DB	01H
	DB	01H
	DB	01H
	DB	01H
	DB	01H
	DB	01H
	DB	01H
	DB	01H
	DB	01H
	DB	01H
	DB	01H
	DB	00H
	DB	00H
	DB	00H
	DB	00H
	DB	00H
	DB	00H
	DB	00H
	DB	00H
	DB	00H
	DB	00H
	DB	00H
	DB	00H
	DB	00H
	DB	00H
	DB	00H
	DB	00H
	DB	00H
	DB	00H
	DB	00H
	DB	00H
	DB	00H
	DB	00H
	DB	00H
	DB	00H
	DB	00H
	DB	00H
	DB	00H
	DB	00H
	DB	00H
	DB	00H
	DB	00H
	DB	00H
	DB	00H
	DB	00H
	DB	00H
	DB	00H
	DB	00H
	DB	00H
	DB	00H
	DB	00H
	DB	00H
	DB	00H
	DB	00H
	DB	00H
	DB	00H
	DB	00H
	DB	00H
	DB	00H
	DB	00H
	DB	00H
	DB	00H
	DB	00H
	DB	00H
	DB	00H
	DB	00H
	DB	00H
	DB	00H
	DB	00H
	DB	00H
	DB	00H
	DB	00H
	DB	00H
	DB	00H
	DB	00H
	DB	00H
	DB	00H
	DB	00H
	DB	00H
	DB	00H
	DB	00H
	DB	00H
	DB	00H
	DB	00H
	DB	00H
	DB	00H
	DB	00H
	DB	00H
	DB	00H
	DB	00H
	DB	00H
	DB	00H
	DB	00H
	DB	01H
	DB	00H
	DB	00H
	DB	00H
	DB	00H
	DB	00H
	DB	00H
	DB	00H
	DB	00H
	DB	00H
	DB	00H
	DB	00H
	DB	00H
	DB	00H
	DB	00H
	DB	00H
	DB	01H
	DB	01H
	DB	01H
	DB	01H
	DB	01H
	DB	01H
	DB	01H
	DB	01H
	DB	01H
	DB	01H
	DB	01H
	DB	01H
	DB	01H
	DB	01H
	DB	01H
	DB	01H
	DB	01H
	DB	01H
	DB	01H
	DB	01H
	DB	01H
	DB	01H
	DB	01H
	DB	01H
	DB	01H
	DB	01H
	DB	01H
	DB	01H
	DB	01H
	DB	01H
	DB	01H
	DB	01H
_intAmp	DD	06590H
_strAllDataModesLen DD 01aH
_NPAR	DD	0ffffffffH
_DATA	ENDS
PUBLIC	_strlop
EXTRN	_strchr:PROC
EXTRN	__RTC_CheckEsp:PROC
EXTRN	__RTC_Shutdown:PROC
EXTRN	__RTC_InitBase:PROC
;	COMDAT rtc$TMZ
; File c:\skydrive\dev\source\ardopc\ardopc.c
rtc$TMZ	SEGMENT
__RTC_Shutdown.rtc$TMZ DD FLAT:__RTC_Shutdown
rtc$TMZ	ENDS
;	COMDAT rtc$IMZ
rtc$IMZ	SEGMENT
__RTC_InitBase.rtc$IMZ DD FLAT:__RTC_InitBase
; Function compile flags: /Odtp /RTCsu /ZI
rtc$IMZ	ENDS
;	COMDAT _strlop
_TEXT	SEGMENT
_ptr$ = -8						; size = 4
_buf$ = 8						; size = 4
_delim$ = 12						; size = 1
_strlop	PROC						; COMDAT

; 384  : {

  00000	55		 push	 ebp
  00001	8b ec		 mov	 ebp, esp
  00003	81 ec cc 00 00
	00		 sub	 esp, 204		; 000000ccH
  00009	53		 push	 ebx
  0000a	56		 push	 esi
  0000b	57		 push	 edi
  0000c	8d bd 34 ff ff
	ff		 lea	 edi, DWORD PTR [ebp-204]
  00012	b9 33 00 00 00	 mov	 ecx, 51			; 00000033H
  00017	b8 cc cc cc cc	 mov	 eax, -858993460		; ccccccccH
  0001c	f3 ab		 rep stosd

; 385  : 	// Terminate buf at delim, and return rest of string
; 386  : 
; 387  : 	char * ptr = strchr(buf, delim);

  0001e	0f be 45 0c	 movsx	 eax, BYTE PTR _delim$[ebp]
  00022	50		 push	 eax
  00023	8b 4d 08	 mov	 ecx, DWORD PTR _buf$[ebp]
  00026	51		 push	 ecx
  00027	e8 00 00 00 00	 call	 _strchr
  0002c	83 c4 08	 add	 esp, 8
  0002f	89 45 f8	 mov	 DWORD PTR _ptr$[ebp], eax

; 388  : 
; 389  : 	if (ptr == NULL) return NULL;

  00032	83 7d f8 00	 cmp	 DWORD PTR _ptr$[ebp], 0
  00036	75 04		 jne	 SHORT $LN1@strlop
  00038	33 c0		 xor	 eax, eax
  0003a	eb 12		 jmp	 SHORT $LN2@strlop
$LN1@strlop:

; 390  : 
; 391  : 	*(ptr)++=0;

  0003c	8b 45 f8	 mov	 eax, DWORD PTR _ptr$[ebp]
  0003f	c6 00 00	 mov	 BYTE PTR [eax], 0
  00042	8b 4d f8	 mov	 ecx, DWORD PTR _ptr$[ebp]
  00045	83 c1 01	 add	 ecx, 1
  00048	89 4d f8	 mov	 DWORD PTR _ptr$[ebp], ecx

; 392  : 
; 393  : 	return ptr;

  0004b	8b 45 f8	 mov	 eax, DWORD PTR _ptr$[ebp]
$LN2@strlop:

; 394  : }

  0004e	5f		 pop	 edi
  0004f	5e		 pop	 esi
  00050	5b		 pop	 ebx
  00051	81 c4 cc 00 00
	00		 add	 esp, 204		; 000000ccH
  00057	3b ec		 cmp	 ebp, esp
  00059	e8 00 00 00 00	 call	 __RTC_CheckEsp
  0005e	8b e5		 mov	 esp, ebp
  00060	5d		 pop	 ebp
  00061	c3		 ret	 0
_strlop	ENDP
_TEXT	ENDS
PUBLIC	__real@3fe0000000000000
PUBLIC	_round
EXTRN	_floor:PROC
EXTRN	__fltused:DWORD
;	COMDAT __real@3fe0000000000000
CONST	SEGMENT
__real@3fe0000000000000 DQ 03fe0000000000000r	; 0.5
; Function compile flags: /Odtp /RTCsu /ZI
CONST	ENDS
;	COMDAT _round
_TEXT	SEGMENT
tv76 = -196						; size = 4
_x$ = 8							; size = 4
_round	PROC						; COMDAT

; 398  : {

  00000	55		 push	 ebp
  00001	8b ec		 mov	 ebp, esp
  00003	81 ec c4 00 00
	00		 sub	 esp, 196		; 000000c4H
  00009	53		 push	 ebx
  0000a	56		 push	 esi
  0000b	57		 push	 edi
  0000c	8d bd 3c ff ff
	ff		 lea	 edi, DWORD PTR [ebp-196]
  00012	b9 31 00 00 00	 mov	 ecx, 49			; 00000031H
  00017	b8 cc cc cc cc	 mov	 eax, -858993460		; ccccccccH
  0001c	f3 ab		 rep stosd

; 399  : 	return floorf(x + 0.5f);

  0001e	d9 45 08	 fld	 DWORD PTR _x$[ebp]
  00021	dc 05 00 00 00
	00		 fadd	 QWORD PTR __real@3fe0000000000000
  00027	83 ec 08	 sub	 esp, 8
  0002a	dd 1c 24	 fstp	 QWORD PTR [esp]
  0002d	e8 00 00 00 00	 call	 _floor
  00032	83 c4 08	 add	 esp, 8
  00035	d9 9d 3c ff ff
	ff		 fstp	 DWORD PTR tv76[ebp]
  0003b	d9 85 3c ff ff
	ff		 fld	 DWORD PTR tv76[ebp]

; 400  : }

  00041	5f		 pop	 edi
  00042	5e		 pop	 esi
  00043	5b		 pop	 ebx
  00044	81 c4 c4 00 00
	00		 add	 esp, 196		; 000000c4H
  0004a	3b ec		 cmp	 ebp, esp
  0004c	e8 00 00 00 00	 call	 __RTC_CheckEsp
  00051	8b e5		 mov	 esp, ebp
  00053	5d		 pop	 ebp
  00054	c3		 ret	 0
_round	ENDP
_TEXT	ENDS
PUBLIC	_GetSemaphore
; Function compile flags: /Odtp /RTCsu /ZI
;	COMDAT _GetSemaphore
_TEXT	SEGMENT
_GetSemaphore PROC					; COMDAT

; 404  : {

  00000	55		 push	 ebp
  00001	8b ec		 mov	 ebp, esp
  00003	81 ec c0 00 00
	00		 sub	 esp, 192		; 000000c0H
  00009	53		 push	 ebx
  0000a	56		 push	 esi
  0000b	57		 push	 edi
  0000c	8d bd 40 ff ff
	ff		 lea	 edi, DWORD PTR [ebp-192]
  00012	b9 30 00 00 00	 mov	 ecx, 48			; 00000030H
  00017	b8 cc cc cc cc	 mov	 eax, -858993460		; ccccccccH
  0001c	f3 ab		 rep stosd

; 405  : }

  0001e	5f		 pop	 edi
  0001f	5e		 pop	 esi
  00020	5b		 pop	 ebx
  00021	8b e5		 mov	 esp, ebp
  00023	5d		 pop	 ebp
  00024	c3		 ret	 0
_GetSemaphore ENDP
_TEXT	ENDS
PUBLIC	_FreeSemaphore
; Function compile flags: /Odtp /RTCsu /ZI
;	COMDAT _FreeSemaphore
_TEXT	SEGMENT
_FreeSemaphore PROC					; COMDAT

; 408  : {

  00000	55		 push	 ebp
  00001	8b ec		 mov	 ebp, esp
  00003	81 ec c0 00 00
	00		 sub	 esp, 192		; 000000c0H
  00009	53		 push	 ebx
  0000a	56		 push	 esi
  0000b	57		 push	 edi
  0000c	8d bd 40 ff ff
	ff		 lea	 edi, DWORD PTR [ebp-192]
  00012	b9 30 00 00 00	 mov	 ecx, 48			; 00000030H
  00017	b8 cc cc cc cc	 mov	 eax, -858993460		; ccccccccH
  0001c	f3 ab		 rep stosd

; 409  : }

  0001e	5f		 pop	 edi
  0001f	5e		 pop	 esi
  00020	5b		 pop	 ebx
  00021	8b e5		 mov	 esp, ebp
  00023	5d		 pop	 ebp
  00024	c3		 ret	 0
_FreeSemaphore ENDP
_TEXT	ENDS
PUBLIC	_CheckValidCallsignSyntax
EXTRN	_isalnum:PROC
EXTRN	_atoi:PROC
EXTRN	_strlen:PROC
; Function compile flags: /Odtp /RTCsu /ZI
;	COMDAT _CheckValidCallsignSyntax
_TEXT	SEGMENT
tv87 = -244						; size = 4
tv91 = -241						; size = 1
_SSID$ = -44						; size = 4
_ptr$ = -32						; size = 4
_callLen$ = -20						; size = 4
_Dash$ = -8						; size = 4
_strCallsign$ = 8					; size = 4
_CheckValidCallsignSyntax PROC				; COMDAT

; 412  : {

  00000	55		 push	 ebp
  00001	8b ec		 mov	 ebp, esp
  00003	81 ec f4 00 00
	00		 sub	 esp, 244		; 000000f4H
  00009	53		 push	 ebx
  0000a	56		 push	 esi
  0000b	57		 push	 edi
  0000c	8d bd 0c ff ff
	ff		 lea	 edi, DWORD PTR [ebp-244]
  00012	b9 3d 00 00 00	 mov	 ecx, 61			; 0000003dH
  00017	b8 cc cc cc cc	 mov	 eax, -858993460		; ccccccccH
  0001c	f3 ab		 rep stosd

; 413  : 	// Function for checking valid call sign syntax
; 414  : 
; 415  : 	char * Dash = strchr(strCallsign, '-');

  0001e	6a 2d		 push	 45			; 0000002dH
  00020	8b 45 08	 mov	 eax, DWORD PTR _strCallsign$[ebp]
  00023	50		 push	 eax
  00024	e8 00 00 00 00	 call	 _strchr
  00029	83 c4 08	 add	 esp, 8
  0002c	89 45 f8	 mov	 DWORD PTR _Dash$[ebp], eax

; 416  : 	int callLen = strlen(strCallsign);

  0002f	8b 45 08	 mov	 eax, DWORD PTR _strCallsign$[ebp]
  00032	50		 push	 eax
  00033	e8 00 00 00 00	 call	 _strlen
  00038	83 c4 04	 add	 esp, 4
  0003b	89 45 ec	 mov	 DWORD PTR _callLen$[ebp], eax

; 417  : 	char * ptr = strCallsign;

  0003e	8b 45 08	 mov	 eax, DWORD PTR _strCallsign$[ebp]
  00041	89 45 e0	 mov	 DWORD PTR _ptr$[ebp], eax

; 418  : 	int SSID;
; 419  : 
; 420  : 	if (Dash)

  00044	83 7d f8 00	 cmp	 DWORD PTR _Dash$[ebp], 0
  00048	74 58		 je	 SHORT $LN9@CheckValid

; 421  : 	{
; 422  : 		callLen = Dash - strCallsign;

  0004a	8b 45 f8	 mov	 eax, DWORD PTR _Dash$[ebp]
  0004d	2b 45 08	 sub	 eax, DWORD PTR _strCallsign$[ebp]
  00050	89 45 ec	 mov	 DWORD PTR _callLen$[ebp], eax

; 423  : 
; 424  : 		SSID = atoi(Dash + 1);

  00053	8b 45 f8	 mov	 eax, DWORD PTR _Dash$[ebp]
  00056	83 c0 01	 add	 eax, 1
  00059	50		 push	 eax
  0005a	e8 00 00 00 00	 call	 _atoi
  0005f	83 c4 04	 add	 esp, 4
  00062	89 45 d4	 mov	 DWORD PTR _SSID$[ebp], eax

; 425  : 		if (SSID > 15)

  00065	83 7d d4 0f	 cmp	 DWORD PTR _SSID$[ebp], 15 ; 0000000fH
  00069	7e 07		 jle	 SHORT $LN8@CheckValid

; 426  : 			return FALSE;

  0006b	33 c0		 xor	 eax, eax
  0006d	e9 8e 00 00 00	 jmp	 $LN10@CheckValid
$LN8@CheckValid:

; 427  : 
; 428  : 		if (strlen(Dash + 1) > 2)

  00072	8b 45 f8	 mov	 eax, DWORD PTR _Dash$[ebp]
  00075	83 c0 01	 add	 eax, 1
  00078	50		 push	 eax
  00079	e8 00 00 00 00	 call	 _strlen
  0007e	83 c4 04	 add	 esp, 4
  00081	83 f8 02	 cmp	 eax, 2
  00084	76 04		 jbe	 SHORT $LN7@CheckValid

; 429  : 			return FALSE;

  00086	33 c0		 xor	 eax, eax
  00088	eb 76		 jmp	 SHORT $LN10@CheckValid
$LN7@CheckValid:

; 430  : 
; 431  : 		if (!isalnum(*(Dash + 1)))

  0008a	8b 45 f8	 mov	 eax, DWORD PTR _Dash$[ebp]
  0008d	0f be 48 01	 movsx	 ecx, BYTE PTR [eax+1]
  00091	51		 push	 ecx
  00092	e8 00 00 00 00	 call	 _isalnum
  00097	83 c4 04	 add	 esp, 4
  0009a	85 c0		 test	 eax, eax
  0009c	75 04		 jne	 SHORT $LN9@CheckValid

; 432  : 			return FALSE;

  0009e	33 c0		 xor	 eax, eax
  000a0	eb 5e		 jmp	 SHORT $LN10@CheckValid
$LN9@CheckValid:

; 433  : 	}
; 434  : 		
; 435  : 	if (callLen > 7 || callLen < 3)

  000a2	83 7d ec 07	 cmp	 DWORD PTR _callLen$[ebp], 7
  000a6	7f 06		 jg	 SHORT $LN4@CheckValid
  000a8	83 7d ec 03	 cmp	 DWORD PTR _callLen$[ebp], 3
  000ac	7d 04		 jge	 SHORT $LN3@CheckValid
$LN4@CheckValid:

; 436  : 			return FALSE;

  000ae	33 c0		 xor	 eax, eax
  000b0	eb 4e		 jmp	 SHORT $LN10@CheckValid
$LN3@CheckValid:

; 437  : 
; 438  : 	while (callLen--)

  000b2	8b 45 ec	 mov	 eax, DWORD PTR _callLen$[ebp]
  000b5	89 85 0c ff ff
	ff		 mov	 DWORD PTR tv87[ebp], eax
  000bb	8b 4d ec	 mov	 ecx, DWORD PTR _callLen$[ebp]
  000be	83 e9 01	 sub	 ecx, 1
  000c1	89 4d ec	 mov	 DWORD PTR _callLen$[ebp], ecx
  000c4	83 bd 0c ff ff
	ff 00		 cmp	 DWORD PTR tv87[ebp], 0
  000cb	74 2e		 je	 SHORT $LN2@CheckValid

; 439  : 	{
; 440  : 		if (!isalnum(*(ptr++)))

  000cd	8b 45 e0	 mov	 eax, DWORD PTR _ptr$[ebp]
  000d0	8a 08		 mov	 cl, BYTE PTR [eax]
  000d2	88 8d 0f ff ff
	ff		 mov	 BYTE PTR tv91[ebp], cl
  000d8	8b 55 e0	 mov	 edx, DWORD PTR _ptr$[ebp]
  000db	83 c2 01	 add	 edx, 1
  000de	89 55 e0	 mov	 DWORD PTR _ptr$[ebp], edx
  000e1	0f be 85 0f ff
	ff ff		 movsx	 eax, BYTE PTR tv91[ebp]
  000e8	50		 push	 eax
  000e9	e8 00 00 00 00	 call	 _isalnum
  000ee	83 c4 04	 add	 esp, 4
  000f1	85 c0		 test	 eax, eax
  000f3	75 04		 jne	 SHORT $LN1@CheckValid

; 441  : 			return FALSE;

  000f5	33 c0		 xor	 eax, eax
  000f7	eb 07		 jmp	 SHORT $LN10@CheckValid
$LN1@CheckValid:

; 442  : 	}

  000f9	eb b7		 jmp	 SHORT $LN3@CheckValid
$LN2@CheckValid:

; 443  : 	return TRUE;

  000fb	b8 01 00 00 00	 mov	 eax, 1
$LN10@CheckValid:

; 444  : }

  00100	5f		 pop	 edi
  00101	5e		 pop	 esi
  00102	5b		 pop	 ebx
  00103	81 c4 f4 00 00
	00		 add	 esp, 244		; 000000f4H
  00109	3b ec		 cmp	 ebp, esp
  0010b	e8 00 00 00 00	 call	 __RTC_CheckEsp
  00110	8b e5		 mov	 esp, ebp
  00112	5d		 pop	 ebp
  00113	c3		 ret	 0
_CheckValidCallsignSyntax ENDP
_TEXT	ENDS
PUBLIC	_CheckGSSyntax
EXTRN	_isdigit:PROC
EXTRN	_isalpha:PROC
; Function compile flags: /Odtp /RTCsu /ZI
;	COMDAT _CheckGSSyntax
_TEXT	SEGMENT
_Len$ = -8						; size = 4
_GS$ = 8						; size = 4
_CheckGSSyntax PROC					; COMDAT

; 449  : {

  00000	55		 push	 ebp
  00001	8b ec		 mov	 ebp, esp
  00003	81 ec cc 00 00
	00		 sub	 esp, 204		; 000000ccH
  00009	53		 push	 ebx
  0000a	56		 push	 esi
  0000b	57		 push	 edi
  0000c	8d bd 34 ff ff
	ff		 lea	 edi, DWORD PTR [ebp-204]
  00012	b9 33 00 00 00	 mov	 ecx, 51			; 00000033H
  00017	b8 cc cc cc cc	 mov	 eax, -858993460		; ccccccccH
  0001c	f3 ab		 rep stosd

; 450  : 	int Len = strlen(GS);

  0001e	8b 45 08	 mov	 eax, DWORD PTR _GS$[ebp]
  00021	50		 push	 eax
  00022	e8 00 00 00 00	 call	 _strlen
  00027	83 c4 04	 add	 esp, 4
  0002a	89 45 f8	 mov	 DWORD PTR _Len$[ebp], eax

; 451  : 
; 452  : 	if (!(Len == 4 || Len == 6 || Len == 8))

  0002d	83 7d f8 04	 cmp	 DWORD PTR _Len$[ebp], 4
  00031	74 13		 je	 SHORT $LN11@CheckGSSyn
  00033	83 7d f8 06	 cmp	 DWORD PTR _Len$[ebp], 6
  00037	74 0d		 je	 SHORT $LN11@CheckGSSyn
  00039	83 7d f8 08	 cmp	 DWORD PTR _Len$[ebp], 8
  0003d	74 07		 je	 SHORT $LN11@CheckGSSyn

; 453  : 		return FALSE;

  0003f	33 c0		 xor	 eax, eax
  00041	e9 d1 00 00 00	 jmp	 $LN12@CheckGSSyn
$LN11@CheckGSSyn:

; 454  : 
; 455  : 	if (!isalpha(GS[0]) || !isalpha(GS[1]))

  00046	8b 45 08	 mov	 eax, DWORD PTR _GS$[ebp]
  00049	0f be 08	 movsx	 ecx, BYTE PTR [eax]
  0004c	51		 push	 ecx
  0004d	e8 00 00 00 00	 call	 _isalpha
  00052	83 c4 04	 add	 esp, 4
  00055	85 c0		 test	 eax, eax
  00057	74 14		 je	 SHORT $LN9@CheckGSSyn
  00059	8b 45 08	 mov	 eax, DWORD PTR _GS$[ebp]
  0005c	0f be 48 01	 movsx	 ecx, BYTE PTR [eax+1]
  00060	51		 push	 ecx
  00061	e8 00 00 00 00	 call	 _isalpha
  00066	83 c4 04	 add	 esp, 4
  00069	85 c0		 test	 eax, eax
  0006b	75 07		 jne	 SHORT $LN10@CheckGSSyn
$LN9@CheckGSSyn:

; 456  : 		return FALSE;

  0006d	33 c0		 xor	 eax, eax
  0006f	e9 a3 00 00 00	 jmp	 $LN12@CheckGSSyn
$LN10@CheckGSSyn:

; 457  : 	
; 458  : 	if (!isdigit(GS[2]) || !isdigit(GS[3]))

  00074	8b 45 08	 mov	 eax, DWORD PTR _GS$[ebp]
  00077	0f be 48 02	 movsx	 ecx, BYTE PTR [eax+2]
  0007b	51		 push	 ecx
  0007c	e8 00 00 00 00	 call	 _isdigit
  00081	83 c4 04	 add	 esp, 4
  00084	85 c0		 test	 eax, eax
  00086	74 14		 je	 SHORT $LN7@CheckGSSyn
  00088	8b 45 08	 mov	 eax, DWORD PTR _GS$[ebp]
  0008b	0f be 48 03	 movsx	 ecx, BYTE PTR [eax+3]
  0008f	51		 push	 ecx
  00090	e8 00 00 00 00	 call	 _isdigit
  00095	83 c4 04	 add	 esp, 4
  00098	85 c0		 test	 eax, eax
  0009a	75 04		 jne	 SHORT $LN8@CheckGSSyn
$LN7@CheckGSSyn:

; 459  : 		return FALSE;

  0009c	33 c0		 xor	 eax, eax
  0009e	eb 77		 jmp	 SHORT $LN12@CheckGSSyn
$LN8@CheckGSSyn:

; 460  : 
; 461  : 	if (Len == 4)

  000a0	83 7d f8 04	 cmp	 DWORD PTR _Len$[ebp], 4
  000a4	75 07		 jne	 SHORT $LN6@CheckGSSyn

; 462  : 		return TRUE;

  000a6	b8 01 00 00 00	 mov	 eax, 1
  000ab	eb 6a		 jmp	 SHORT $LN12@CheckGSSyn
$LN6@CheckGSSyn:

; 463  : 
; 464  : 	if (!isalpha(GS[4]) || !isalpha(GS[5]))

  000ad	8b 45 08	 mov	 eax, DWORD PTR _GS$[ebp]
  000b0	0f be 48 04	 movsx	 ecx, BYTE PTR [eax+4]
  000b4	51		 push	 ecx
  000b5	e8 00 00 00 00	 call	 _isalpha
  000ba	83 c4 04	 add	 esp, 4
  000bd	85 c0		 test	 eax, eax
  000bf	74 14		 je	 SHORT $LN4@CheckGSSyn
  000c1	8b 45 08	 mov	 eax, DWORD PTR _GS$[ebp]
  000c4	0f be 48 05	 movsx	 ecx, BYTE PTR [eax+5]
  000c8	51		 push	 ecx
  000c9	e8 00 00 00 00	 call	 _isalpha
  000ce	83 c4 04	 add	 esp, 4
  000d1	85 c0		 test	 eax, eax
  000d3	75 04		 jne	 SHORT $LN5@CheckGSSyn
$LN4@CheckGSSyn:

; 465  : 		return FALSE;

  000d5	33 c0		 xor	 eax, eax
  000d7	eb 3e		 jmp	 SHORT $LN12@CheckGSSyn
$LN5@CheckGSSyn:

; 466  : 
; 467  : 	if (Len == 6)

  000d9	83 7d f8 06	 cmp	 DWORD PTR _Len$[ebp], 6
  000dd	75 07		 jne	 SHORT $LN3@CheckGSSyn

; 468  : 		return TRUE;

  000df	b8 01 00 00 00	 mov	 eax, 1
  000e4	eb 31		 jmp	 SHORT $LN12@CheckGSSyn
$LN3@CheckGSSyn:

; 469  : 
; 470  : 	if (!isdigit(GS[6]) || !isdigit(GS[7]))

  000e6	8b 45 08	 mov	 eax, DWORD PTR _GS$[ebp]
  000e9	0f be 48 06	 movsx	 ecx, BYTE PTR [eax+6]
  000ed	51		 push	 ecx
  000ee	e8 00 00 00 00	 call	 _isdigit
  000f3	83 c4 04	 add	 esp, 4
  000f6	85 c0		 test	 eax, eax
  000f8	74 14		 je	 SHORT $LN1@CheckGSSyn
  000fa	8b 45 08	 mov	 eax, DWORD PTR _GS$[ebp]
  000fd	0f be 48 07	 movsx	 ecx, BYTE PTR [eax+7]
  00101	51		 push	 ecx
  00102	e8 00 00 00 00	 call	 _isdigit
  00107	83 c4 04	 add	 esp, 4
  0010a	85 c0		 test	 eax, eax
  0010c	75 04		 jne	 SHORT $LN2@CheckGSSyn
$LN1@CheckGSSyn:

; 471  : 		return FALSE;

  0010e	33 c0		 xor	 eax, eax
  00110	eb 05		 jmp	 SHORT $LN12@CheckGSSyn
$LN2@CheckGSSyn:

; 472  : 
; 473  : 	return TRUE;

  00112	b8 01 00 00 00	 mov	 eax, 1
$LN12@CheckGSSyn:

; 474  : }

  00117	5f		 pop	 edi
  00118	5e		 pop	 esi
  00119	5b		 pop	 ebx
  0011a	81 c4 cc 00 00
	00		 add	 esp, 204		; 000000ccH
  00120	3b ec		 cmp	 ebp, esp
  00122	e8 00 00 00 00	 call	 __RTC_CheckEsp
  00127	8b e5		 mov	 esp, ebp
  00129	5d		 pop	 ebp
  0012a	c3		 ret	 0
_CheckGSSyntax ENDP
_TEXT	ENDS
PUBLIC	_GetNextFrame
EXTRN	_GetNextARQFrame:PROC
EXTRN	_ARQState:DWORD
EXTRN	_GetNextFECFrame:PROC
; Function compile flags: /Odtp /RTCsu /ZI
;	COMDAT _GetNextFrame
_TEXT	SEGMENT
_GetNextFrame PROC					; COMDAT

; 479  : {

  00000	55		 push	 ebp
  00001	8b ec		 mov	 ebp, esp
  00003	81 ec c0 00 00
	00		 sub	 esp, 192		; 000000c0H
  00009	53		 push	 ebx
  0000a	56		 push	 esi
  0000b	57		 push	 edi
  0000c	8d bd 40 ff ff
	ff		 lea	 edi, DWORD PTR [ebp-192]
  00012	b9 30 00 00 00	 mov	 ecx, 48			; 00000030H
  00017	b8 cc cc cc cc	 mov	 eax, -858993460		; ccccccccH
  0001c	f3 ab		 rep stosd

; 480  : 	// returning TRUE sets frame pending in Main
; 481  : 
; 482  : 	if (ProtocolMode == FEC || ProtocolState == FECSend)

  0001e	83 3d 00 00 00
	00 01		 cmp	 DWORD PTR _ProtocolMode, 1
  00025	74 09		 je	 SHORT $LN7@GetNextFra
  00027	83 3d 00 00 00
	00 06		 cmp	 DWORD PTR _ProtocolState, 6
  0002e	75 28		 jne	 SHORT $LN8@GetNextFra
$LN7@GetNextFra:

; 483  : 	{
; 484  : 		if (ProtocolState == FECSend || ProtocolState == FECRcv || ProtocolState == DISC)

  00030	83 3d 00 00 00
	00 06		 cmp	 DWORD PTR _ProtocolState, 6
  00037	74 12		 je	 SHORT $LN5@GetNextFra
  00039	83 3d 00 00 00
	00 07		 cmp	 DWORD PTR _ProtocolState, 7
  00040	74 09		 je	 SHORT $LN5@GetNextFra
  00042	83 3d 00 00 00
	00 01		 cmp	 DWORD PTR _ProtocolState, 1
  00049	75 09		 jne	 SHORT $LN6@GetNextFra
$LN5@GetNextFra:

; 485  : 			return GetNextFECFrame();

  0004b	e8 00 00 00 00	 call	 _GetNextFECFrame
  00050	eb 27		 jmp	 SHORT $LN9@GetNextFra

; 486  : 		else

  00052	eb 04		 jmp	 SHORT $LN8@GetNextFra
$LN6@GetNextFra:

; 487  : 			return FALSE;

  00054	33 c0		 xor	 eax, eax
  00056	eb 21		 jmp	 SHORT $LN9@GetNextFra
$LN8@GetNextFra:

; 488  : 	}
; 489  : 	if (ProtocolMode == ARQ)

  00058	83 3d 00 00 00
	00 02		 cmp	 DWORD PTR _ProtocolMode, 2
  0005f	75 16		 jne	 SHORT $LN3@GetNextFra

; 490  : 		if (ARQState == None)

  00061	83 3d 00 00 00
	00 00		 cmp	 DWORD PTR _ARQState, 0
  00068	75 06		 jne	 SHORT $LN2@GetNextFra

; 491  : 			return FALSE;

  0006a	33 c0		 xor	 eax, eax
  0006c	eb 0b		 jmp	 SHORT $LN9@GetNextFra

; 492  : 		else

  0006e	eb 07		 jmp	 SHORT $LN3@GetNextFra
$LN2@GetNextFra:

; 493  :             return GetNextARQFrame();

  00070	e8 00 00 00 00	 call	 _GetNextARQFrame
  00075	eb 02		 jmp	 SHORT $LN9@GetNextFra
$LN3@GetNextFra:

; 494  : 
; 495  : 	return FALSE;

  00077	33 c0		 xor	 eax, eax
$LN9@GetNextFra:

; 496  : }

  00079	5f		 pop	 edi
  0007a	5e		 pop	 esi
  0007b	5b		 pop	 ebx
  0007c	81 c4 c0 00 00
	00		 add	 esp, 192		; 000000c0H
  00082	3b ec		 cmp	 ebp, esp
  00084	e8 00 00 00 00	 call	 __RTC_CheckEsp
  00089	8b e5		 mov	 esp, ebp
  0008b	5d		 pop	 ebp
  0008c	c3		 ret	 0
_GetNextFrame ENDP
_TEXT	ENDS
PUBLIC	_RSDecode
PUBLIC	__$ArrayPad$
PUBLIC	_testRS
EXTRN	_rand:PROC
EXTRN	___security_cookie:DWORD
EXTRN	@__security_check_cookie@4:PROC
EXTRN	@_RTC_CheckStackVars@8:PROC
; Function compile flags: /Odtp /RTCsu /ZI
;	COMDAT _testRS
_TEXT	SEGMENT
_i$ = -324						; size = 4
_intRSLen$ = -312					; size = 4
_DataLen$ = -300					; size = 4
_bytRawData$ = -288					; size = 256
_FrameOK$ = -24						; size = 4
_blnRSOK$ = -12						; size = 4
__$ArrayPad$ = -4					; size = 4
_testRS	PROC						; COMDAT

; 509  : {

  00000	55		 push	 ebp
  00001	8b ec		 mov	 ebp, esp
  00003	81 ec 08 02 00
	00		 sub	 esp, 520		; 00000208H
  00009	53		 push	 ebx
  0000a	56		 push	 esi
  0000b	57		 push	 edi
  0000c	8d bd f8 fd ff
	ff		 lea	 edi, DWORD PTR [ebp-520]
  00012	b9 82 00 00 00	 mov	 ecx, 130		; 00000082H
  00017	b8 cc cc cc cc	 mov	 eax, -858993460		; ccccccccH
  0001c	f3 ab		 rep stosd
  0001e	a1 00 00 00 00	 mov	 eax, DWORD PTR ___security_cookie
  00023	33 c5		 xor	 eax, ebp
  00025	89 45 fc	 mov	 DWORD PTR __$ArrayPad$[ebp], eax

; 510  : 	// feed random data into RS to check robustness
; 511  : 
; 512  : 	BOOL blnRSOK, FrameOK;
; 513  : 	char bytRawData[256];
; 514  : 	int DataLen = 128;

  00028	c7 85 d4 fe ff
	ff 80 00 00 00	 mov	 DWORD PTR _DataLen$[ebp], 128 ; 00000080H

; 515  : 	int intRSLen = 64;

  00032	c7 85 c8 fe ff
	ff 40 00 00 00	 mov	 DWORD PTR _intRSLen$[ebp], 64 ; 00000040H

; 516  : 	int i;
; 517  : 
; 518  : 	for (i = 0; i < DataLen; i++)

  0003c	c7 85 bc fe ff
	ff 00 00 00 00	 mov	 DWORD PTR _i$[ebp], 0
  00046	eb 0f		 jmp	 SHORT $LN3@testRS
$LN2@testRS:
  00048	8b 85 bc fe ff
	ff		 mov	 eax, DWORD PTR _i$[ebp]
  0004e	83 c0 01	 add	 eax, 1
  00051	89 85 bc fe ff
	ff		 mov	 DWORD PTR _i$[ebp], eax
$LN3@testRS:
  00057	8b 85 bc fe ff
	ff		 mov	 eax, DWORD PTR _i$[ebp]
  0005d	3b 85 d4 fe ff
	ff		 cmp	 eax, DWORD PTR _DataLen$[ebp]
  00063	7d 22		 jge	 SHORT $LN1@testRS

; 519  : 	{
; 520  : 		bytRawData[i] = rand() % 256;

  00065	e8 00 00 00 00	 call	 _rand
  0006a	25 ff 00 00 80	 and	 eax, -2147483393	; 800000ffH
  0006f	79 07		 jns	 SHORT $LN10@testRS
  00071	48		 dec	 eax
  00072	0d 00 ff ff ff	 or	 eax, -256		; ffffff00H
  00077	40		 inc	 eax
$LN10@testRS:
  00078	8b 8d bc fe ff
	ff		 mov	 ecx, DWORD PTR _i$[ebp]
  0007e	88 84 0d e0 fe
	ff ff		 mov	 BYTE PTR _bytRawData$[ebp+ecx], al

; 521  : 	}

  00085	eb c1		 jmp	 SHORT $LN2@testRS
$LN1@testRS:

; 522  : 
; 523  : 	FrameOK = RSDecode(bytRawData, DataLen, intRSLen, &blnRSOK);

  00087	8d 45 f4	 lea	 eax, DWORD PTR _blnRSOK$[ebp]
  0008a	50		 push	 eax
  0008b	8b 8d c8 fe ff
	ff		 mov	 ecx, DWORD PTR _intRSLen$[ebp]
  00091	51		 push	 ecx
  00092	8b 95 d4 fe ff
	ff		 mov	 edx, DWORD PTR _DataLen$[ebp]
  00098	52		 push	 edx
  00099	8d 85 e0 fe ff
	ff		 lea	 eax, DWORD PTR _bytRawData$[ebp]
  0009f	50		 push	 eax
  000a0	e8 00 00 00 00	 call	 _RSDecode
  000a5	83 c4 10	 add	 esp, 16			; 00000010H
  000a8	89 45 e8	 mov	 DWORD PTR _FrameOK$[ebp], eax

; 524  : }

  000ab	52		 push	 edx
  000ac	8b cd		 mov	 ecx, ebp
  000ae	50		 push	 eax
  000af	8d 15 00 00 00
	00		 lea	 edx, DWORD PTR $LN9@testRS
  000b5	e8 00 00 00 00	 call	 @_RTC_CheckStackVars@8
  000ba	58		 pop	 eax
  000bb	5a		 pop	 edx
  000bc	5f		 pop	 edi
  000bd	5e		 pop	 esi
  000be	5b		 pop	 ebx
  000bf	8b 4d fc	 mov	 ecx, DWORD PTR __$ArrayPad$[ebp]
  000c2	33 cd		 xor	 ecx, ebp
  000c4	e8 00 00 00 00	 call	 @__security_check_cookie@4
  000c9	81 c4 08 02 00
	00		 add	 esp, 520		; 00000208H
  000cf	3b ec		 cmp	 ebp, esp
  000d1	e8 00 00 00 00	 call	 __RTC_CheckEsp
  000d6	8b e5		 mov	 esp, ebp
  000d8	5d		 pop	 ebp
  000d9	c3		 ret	 0
  000da	8b ff		 npad	 2
$LN9@testRS:
  000dc	02 00 00 00	 DD	 2
  000e0	00 00 00 00	 DD	 $LN8@testRS
$LN8@testRS:
  000e4	f4 ff ff ff	 DD	 -12			; fffffff4H
  000e8	04 00 00 00	 DD	 4
  000ec	00 00 00 00	 DD	 $LN6@testRS
  000f0	e0 fe ff ff	 DD	 -288			; fffffee0H
  000f4	00 01 00 00	 DD	 256			; 00000100H
  000f8	00 00 00 00	 DD	 $LN7@testRS
$LN7@testRS:
  000fc	62		 DB	 98			; 00000062H
  000fd	79		 DB	 121			; 00000079H
  000fe	74		 DB	 116			; 00000074H
  000ff	52		 DB	 82			; 00000052H
  00100	61		 DB	 97			; 00000061H
  00101	77		 DB	 119			; 00000077H
  00102	44		 DB	 68			; 00000044H
  00103	61		 DB	 97			; 00000061H
  00104	74		 DB	 116			; 00000074H
  00105	61		 DB	 97			; 00000061H
  00106	00		 DB	 0
$LN6@testRS:
  00107	62		 DB	 98			; 00000062H
  00108	6c		 DB	 108			; 0000006cH
  00109	6e		 DB	 110			; 0000006eH
  0010a	52		 DB	 82			; 00000052H
  0010b	53		 DB	 83			; 00000053H
  0010c	4f		 DB	 79			; 0000004fH
  0010d	4b		 DB	 75			; 0000004bH
  0010e	00		 DB	 0
_testRS	ENDP
_TEXT	ENDS
PUBLIC	_MainPoll
PUBLIC	_CheckTimers
PUBLIC	_ardopmain
EXTRN	_PlatformSleep:PROC
EXTRN	_HostPoll:PROC
EXTRN	_PollReceivedSamples:PROC
EXTRN	_tmrPollOBQueue:DWORD
EXTRN	_getTicks:PROC
EXTRN	_HostInit:PROC
EXTRN	_InitSound:PROC
EXTRN	_SetARDOPProtocolState:PROC
; Function compile flags: /Odtp /RTCsu /ZI
;	COMDAT _ardopmain
_TEXT	SEGMENT
_ardopmain PROC						; COMDAT

; 529  : {

  00000	55		 push	 ebp
  00001	8b ec		 mov	 ebp, esp
  00003	81 ec c0 00 00
	00		 sub	 esp, 192		; 000000c0H
  00009	53		 push	 ebx
  0000a	56		 push	 esi
  0000b	57		 push	 edi
  0000c	8d bd 40 ff ff
	ff		 lea	 edi, DWORD PTR [ebp-192]
  00012	b9 30 00 00 00	 mov	 ecx, 48			; 00000030H
  00017	b8 cc cc cc cc	 mov	 eax, -858993460		; ccccccccH
  0001c	f3 ab		 rep stosd

; 530  : 	blnTimeoutTriggered = FALSE;

  0001e	c7 05 00 00 00
	00 00 00 00 00	 mov	 DWORD PTR _blnTimeoutTriggered, 0

; 531  : 	SetARDOPProtocolState(DISC);

  00028	6a 01		 push	 1
  0002a	e8 00 00 00 00	 call	 _SetARDOPProtocolState
  0002f	83 c4 04	 add	 esp, 4

; 532  : 
; 533  : 	InitSound();

  00032	e8 00 00 00 00	 call	 _InitSound

; 534  : 
; 535  : 	HostInit();

  00037	e8 00 00 00 00	 call	 _HostInit

; 536  : 
; 537  : //	while (1)
; 538  : //		testRS();
; 539  : 
; 540  : 	tmrPollOBQueue = Now + 10000;

  0003c	e8 00 00 00 00	 call	 _getTicks
  00041	05 10 27 00 00	 add	 eax, 10000		; 00002710H
  00046	a3 00 00 00 00	 mov	 DWORD PTR _tmrPollOBQueue, eax

; 541  : 
; 542  : 	ProtocolMode = ARQ;

  0004b	c7 05 00 00 00
	00 02 00 00 00	 mov	 DWORD PTR _ProtocolMode, 2
$LN2@ardopmain:

; 543  : 
; 544  : 	while(!blnClosing)

  00055	83 3d 00 00 00
	00 00		 cmp	 DWORD PTR _blnClosing, 0
  0005c	75 1b		 jne	 SHORT $LN3@ardopmain

; 545  : 	{
; 546  : 		PollReceivedSamples();

  0005e	e8 00 00 00 00	 call	 _PollReceivedSamples

; 547  : 		CheckTimers();	

  00063	e8 00 00 00 00	 call	 _CheckTimers

; 548  : 		HostPoll();

  00068	e8 00 00 00 00	 call	 _HostPoll

; 549  : 		MainPoll();

  0006d	e8 00 00 00 00	 call	 _MainPoll

; 550  : 		PlatformSleep();

  00072	e8 00 00 00 00	 call	 _PlatformSleep

; 551  : 	}

  00077	eb dc		 jmp	 SHORT $LN2@ardopmain
$LN3@ardopmain:

; 552  : 	return;
; 553  : }

  00079	5f		 pop	 edi
  0007a	5e		 pop	 esi
  0007b	5b		 pop	 ebx
  0007c	81 c4 c0 00 00
	00		 add	 esp, 192		; 000000c0H
  00082	3b ec		 cmp	 ebp, esp
  00084	e8 00 00 00 00	 call	 __RTC_CheckEsp
  00089	8b e5		 mov	 esp, ebp
  0008b	5d		 pop	 ebp
  0008c	c3		 ret	 0
_ardopmain ENDP
_TEXT	ENDS
PUBLIC	_SendCWID
; Function compile flags: /Odtp /RTCsu /ZI
;	COMDAT _SendCWID
_TEXT	SEGMENT
_Callsign$ = 8						; size = 4
_x$ = 12						; size = 4
_SendCWID PROC						; COMDAT

; 557  : {

  00000	55		 push	 ebp
  00001	8b ec		 mov	 ebp, esp
  00003	81 ec c0 00 00
	00		 sub	 esp, 192		; 000000c0H
  00009	53		 push	 ebx
  0000a	56		 push	 esi
  0000b	57		 push	 edi
  0000c	8d bd 40 ff ff
	ff		 lea	 edi, DWORD PTR [ebp-192]
  00012	b9 30 00 00 00	 mov	 ecx, 48			; 00000030H
  00017	b8 cc cc cc cc	 mov	 eax, -858993460		; ccccccccH
  0001c	f3 ab		 rep stosd

; 558  : }

  0001e	5f		 pop	 edi
  0001f	5e		 pop	 esi
  00020	5b		 pop	 ebx
  00021	8b e5		 mov	 esp, ebp
  00023	5d		 pop	 ebp
  00024	c3		 ret	 0
_SendCWID ENDP
_TEXT	ENDS
PUBLIC	_Name
; Function compile flags: /Odtp /RTCsu /ZI
;	COMDAT _Name
_TEXT	SEGMENT
_bytID$ = 8						; size = 1
_Name	PROC						; COMDAT

; 565  : {

  00000	55		 push	 ebp
  00001	8b ec		 mov	 ebp, esp
  00003	81 ec c0 00 00
	00		 sub	 esp, 192		; 000000c0H
  00009	53		 push	 ebx
  0000a	56		 push	 esi
  0000b	57		 push	 edi
  0000c	8d bd 40 ff ff
	ff		 lea	 edi, DWORD PTR [ebp-192]
  00012	b9 30 00 00 00	 mov	 ecx, 48			; 00000030H
  00017	b8 cc cc cc cc	 mov	 eax, -858993460		; ccccccccH
  0001c	f3 ab		 rep stosd

; 566  : 	if (bytID < 0x20)

  0001e	0f b6 45 08	 movzx	 eax, BYTE PTR _bytID$[ebp]
  00022	83 f8 20	 cmp	 eax, 32			; 00000020H
  00025	7d 09		 jge	 SHORT $LN4@Name

; 567  : 		return strFrameType[0];

  00027	b8 00 00 00 00	 mov	 eax, OFFSET _strFrameType
  0002c	eb 22		 jmp	 SHORT $LN5@Name
  0002e	eb 20		 jmp	 SHORT $LN5@Name
$LN4@Name:

; 568  : 	else if (bytID >= 0xE0)

  00030	0f b6 45 08	 movzx	 eax, BYTE PTR _bytID$[ebp]
  00034	3d e0 00 00 00	 cmp	 eax, 224		; 000000e0H
  00039	7c 09		 jl	 SHORT $LN2@Name

; 569  : 		return strFrameType[0xE0];

  0003b	b8 c0 0f 00 00	 mov	 eax, OFFSET _strFrameType+4032
  00040	eb 0e		 jmp	 SHORT $LN5@Name

; 570  : 	else

  00042	eb 0c		 jmp	 SHORT $LN5@Name
$LN2@Name:

; 571  : 		return strFrameType[bytID];

  00044	0f b6 45 08	 movzx	 eax, BYTE PTR _bytID$[ebp]
  00048	6b c0 12	 imul	 eax, 18			; 00000012H
  0004b	05 00 00 00 00	 add	 eax, OFFSET _strFrameType
$LN5@Name:

; 572  : }

  00050	5f		 pop	 edi
  00051	5e		 pop	 esi
  00052	5b		 pop	 ebx
  00053	8b e5		 mov	 esp, ebp
  00055	5d		 pop	 ebp
  00056	c3		 ret	 0
_Name	ENDP
_TEXT	ENDS
PUBLIC	??_C@_05OIEEHJAK@16QAM?$AA@			; `string'
PUBLIC	??_C@_05GMHCMGLE@16FSK?$AA@			; `string'
PUBLIC	??_C@_04GLIEPKGD@8FSK?$AA@			; `string'
PUBLIC	??_C@_04BOPGPCCA@8PSK?$AA@			; `string'
PUBLIC	??_C@_04NLAGBPCB@4PSK?$AA@			; `string'
PUBLIC	??_C@_04KOHEBHGC@4FSK?$AA@			; `string'
PUBLIC	_FrameInfo
EXTRN	_strcpy:PROC
;	COMDAT ??_C@_05OIEEHJAK@16QAM?$AA@
CONST	SEGMENT
??_C@_05OIEEHJAK@16QAM?$AA@ DB '16QAM', 00H		; `string'
CONST	ENDS
;	COMDAT ??_C@_05GMHCMGLE@16FSK?$AA@
CONST	SEGMENT
??_C@_05GMHCMGLE@16FSK?$AA@ DB '16FSK', 00H		; `string'
CONST	ENDS
;	COMDAT ??_C@_04GLIEPKGD@8FSK?$AA@
CONST	SEGMENT
??_C@_04GLIEPKGD@8FSK?$AA@ DB '8FSK', 00H		; `string'
CONST	ENDS
;	COMDAT ??_C@_04BOPGPCCA@8PSK?$AA@
CONST	SEGMENT
??_C@_04BOPGPCCA@8PSK?$AA@ DB '8PSK', 00H		; `string'
CONST	ENDS
;	COMDAT ??_C@_04NLAGBPCB@4PSK?$AA@
CONST	SEGMENT
??_C@_04NLAGBPCB@4PSK?$AA@ DB '4PSK', 00H		; `string'
CONST	ENDS
;	COMDAT ??_C@_04KOHEBHGC@4FSK?$AA@
CONST	SEGMENT
??_C@_04KOHEBHGC@4FSK?$AA@ DB '4FSK', 00H		; `string'
; Function compile flags: /Odtp /RTCsu /ZI
CONST	ENDS
;	COMDAT _FrameInfo
_TEXT	SEGMENT
tv77 = -196						; size = 4
_bytFrameType$ = 8					; size = 1
_blnOdd$ = 12						; size = 4
_intNumCar$ = 16					; size = 4
_strMod$ = 20						; size = 4
_intBaud$ = 24						; size = 4
_intDataLen$ = 28					; size = 4
_intRSLen$ = 32						; size = 4
_bytQualThres$ = 36					; size = 4
_strType$ = 40						; size = 4
_FrameInfo PROC						; COMDAT

; 578  : {

  00000	55		 push	 ebp
  00001	8b ec		 mov	 ebp, esp
  00003	81 ec c4 00 00
	00		 sub	 esp, 196		; 000000c4H
  00009	53		 push	 ebx
  0000a	56		 push	 esi
  0000b	57		 push	 edi
  0000c	8d bd 3c ff ff
	ff		 lea	 edi, DWORD PTR [ebp-196]
  00012	b9 31 00 00 00	 mov	 ecx, 49			; 00000031H
  00017	b8 cc cc cc cc	 mov	 eax, -858993460		; ccccccccH
  0001c	f3 ab		 rep stosd

; 579  : 	//Used to "lookup" all parameters by frame Type. 
; 580  : 	// returns TRUE if all fields updated otherwise FALSE (improper bytFrameType)
; 581  : 
; 582  : 	// 1 Carrier 4FSK control frames 
; 583  :    
; 584  : 	if ((bytFrameType >= 0 &&  bytFrameType <= 0x1F) || bytFrameType >= 0xE0)

  0001e	0f b6 45 08	 movzx	 eax, BYTE PTR _bytFrameType$[ebp]
  00022	85 c0		 test	 eax, eax
  00024	7c 09		 jl	 SHORT $LN40@FrameInfo
  00026	0f b6 45 08	 movzx	 eax, BYTE PTR _bytFrameType$[ebp]
  0002a	83 f8 1f	 cmp	 eax, 31			; 0000001fH
  0002d	7e 0b		 jle	 SHORT $LN41@FrameInfo
$LN40@FrameInfo:
  0002f	0f b6 45 08	 movzx	 eax, BYTE PTR _bytFrameType$[ebp]
  00033	3d e0 00 00 00	 cmp	 eax, 224		; 000000e0H
  00038	7c 52		 jl	 SHORT $LN42@FrameInfo
$LN41@FrameInfo:

; 585  : 	{
; 586  : 		*blnOdd = (1 & bytFrameType) != 0;

  0003a	0f b6 45 08	 movzx	 eax, BYTE PTR _bytFrameType$[ebp]
  0003e	83 e0 01	 and	 eax, 1
  00041	f7 d8		 neg	 eax
  00043	1b c0		 sbb	 eax, eax
  00045	f7 d8		 neg	 eax
  00047	8b 4d 0c	 mov	 ecx, DWORD PTR _blnOdd$[ebp]
  0004a	89 01		 mov	 DWORD PTR [ecx], eax

; 587  : 		*intNumCar = 1;

  0004c	8b 45 10	 mov	 eax, DWORD PTR _intNumCar$[ebp]
  0004f	c7 00 01 00 00
	00		 mov	 DWORD PTR [eax], 1

; 588  : 		*intDataLen = 0;

  00055	8b 45 1c	 mov	 eax, DWORD PTR _intDataLen$[ebp]
  00058	c7 00 00 00 00
	00		 mov	 DWORD PTR [eax], 0

; 589  : 		*intRSLen = 0;

  0005e	8b 45 20	 mov	 eax, DWORD PTR _intRSLen$[ebp]
  00061	c7 00 00 00 00
	00		 mov	 DWORD PTR [eax], 0

; 590  : 		strcpy(strMod, "4FSK");

  00067	68 00 00 00 00	 push	 OFFSET ??_C@_04KOHEBHGC@4FSK?$AA@
  0006c	8b 45 14	 mov	 eax, DWORD PTR _strMod$[ebp]
  0006f	50		 push	 eax
  00070	e8 00 00 00 00	 call	 _strcpy
  00075	83 c4 08	 add	 esp, 8

; 591  : 		*intBaud = 50;

  00078	8b 45 18	 mov	 eax, DWORD PTR _intBaud$[ebp]
  0007b	c7 00 32 00 00
	00		 mov	 DWORD PTR [eax], 50	; 00000032H

; 592  : 		*bytQualThres = 40;

  00081	8b 45 24	 mov	 eax, DWORD PTR _bytQualThres$[ebp]
  00084	c6 00 28	 mov	 BYTE PTR [eax], 40	; 00000028H

; 593  : 	}
; 594  : 	else

  00087	e9 e1 09 00 00	 jmp	 $LN39@FrameInfo
$LN42@FrameInfo:

; 595  : 	{
; 596  : 
; 597  : 	switch(bytFrameType)

  0008c	0f b6 45 08	 movzx	 eax, BYTE PTR _bytFrameType$[ebp]
  00090	89 85 3c ff ff
	ff		 mov	 DWORD PTR tv77[ebp], eax
  00096	8b 8d 3c ff ff
	ff		 mov	 ecx, DWORD PTR tv77[ebp]
  0009c	83 e9 23	 sub	 ecx, 35			; 00000023H
  0009f	89 8d 3c ff ff
	ff		 mov	 DWORD PTR tv77[ebp], ecx
  000a5	81 bd 3c ff ff
	ff bd 00 00 00	 cmp	 DWORD PTR tv77[ebp], 189 ; 000000bdH
  000af	0f 87 b4 09 00
	00		 ja	 $LN5@FrameInfo
  000b5	8b 95 3c ff ff
	ff		 mov	 edx, DWORD PTR tv77[ebp]
  000bb	0f b6 82 00 00
	00 00		 movzx	 eax, BYTE PTR $LN45@FrameInfo[edx]
  000c2	ff 24 85 00 00
	00 00		 jmp	 DWORD PTR $LN46@FrameInfo[eax*4]
$LN36@FrameInfo:

; 598  : 	{
; 599  : 	case 0x23:
; 600  : 	case 0x24:
; 601  : 	case 0x29:
; 602  : 
; 603  : 		*blnOdd = (1 & bytFrameType) != 0;

  000c9	0f b6 45 08	 movzx	 eax, BYTE PTR _bytFrameType$[ebp]
  000cd	83 e0 01	 and	 eax, 1
  000d0	f7 d8		 neg	 eax
  000d2	1b c0		 sbb	 eax, eax
  000d4	f7 d8		 neg	 eax
  000d6	8b 4d 0c	 mov	 ecx, DWORD PTR _blnOdd$[ebp]
  000d9	89 01		 mov	 DWORD PTR [ecx], eax

; 604  : 		*intNumCar = 1;

  000db	8b 45 10	 mov	 eax, DWORD PTR _intNumCar$[ebp]
  000de	c7 00 01 00 00
	00		 mov	 DWORD PTR [eax], 1

; 605  : 		*intDataLen = 0;

  000e4	8b 45 1c	 mov	 eax, DWORD PTR _intDataLen$[ebp]
  000e7	c7 00 00 00 00
	00		 mov	 DWORD PTR [eax], 0

; 606  : 		*intRSLen = 0;

  000ed	8b 45 20	 mov	 eax, DWORD PTR _intRSLen$[ebp]
  000f0	c7 00 00 00 00
	00		 mov	 DWORD PTR [eax], 0

; 607  : 		strcpy(strMod, "4FSK");

  000f6	68 00 00 00 00	 push	 OFFSET ??_C@_04KOHEBHGC@4FSK?$AA@
  000fb	8b 45 14	 mov	 eax, DWORD PTR _strMod$[ebp]
  000fe	50		 push	 eax
  000ff	e8 00 00 00 00	 call	 _strcpy
  00104	83 c4 08	 add	 esp, 8

; 608  : 		*intBaud = 50;

  00107	8b 45 18	 mov	 eax, DWORD PTR _intBaud$[ebp]
  0010a	c7 00 32 00 00
	00		 mov	 DWORD PTR [eax], 50	; 00000032H

; 609  : 		*bytQualThres = 60;

  00110	8b 45 24	 mov	 eax, DWORD PTR _bytQualThres$[ebp]
  00113	c6 00 3c	 mov	 BYTE PTR [eax], 60	; 0000003cH

; 610  : 		break;

  00116	e9 52 09 00 00	 jmp	 $LN39@FrameInfo
$LN35@FrameInfo:

; 611  : 	
; 612  : 	case 0x2C:
; 613  : 	case 0x2D:
; 614  : 	case 0x2E:
; 615  : 		
; 616  : 		*blnOdd = (1 & bytFrameType) != 0;

  0011b	0f b6 45 08	 movzx	 eax, BYTE PTR _bytFrameType$[ebp]
  0011f	83 e0 01	 and	 eax, 1
  00122	f7 d8		 neg	 eax
  00124	1b c0		 sbb	 eax, eax
  00126	f7 d8		 neg	 eax
  00128	8b 4d 0c	 mov	 ecx, DWORD PTR _blnOdd$[ebp]
  0012b	89 01		 mov	 DWORD PTR [ecx], eax

; 617  : 		*intNumCar = 1;

  0012d	8b 45 10	 mov	 eax, DWORD PTR _intNumCar$[ebp]
  00130	c7 00 01 00 00
	00		 mov	 DWORD PTR [eax], 1

; 618  : 		*intDataLen = 0;

  00136	8b 45 1c	 mov	 eax, DWORD PTR _intDataLen$[ebp]
  00139	c7 00 00 00 00
	00		 mov	 DWORD PTR [eax], 0

; 619  : 		*intRSLen = 0;

  0013f	8b 45 20	 mov	 eax, DWORD PTR _intRSLen$[ebp]
  00142	c7 00 00 00 00
	00		 mov	 DWORD PTR [eax], 0

; 620  : 		strcpy(strMod, "4FSK");

  00148	68 00 00 00 00	 push	 OFFSET ??_C@_04KOHEBHGC@4FSK?$AA@
  0014d	8b 45 14	 mov	 eax, DWORD PTR _strMod$[ebp]
  00150	50		 push	 eax
  00151	e8 00 00 00 00	 call	 _strcpy
  00156	83 c4 08	 add	 esp, 8

; 621  : 		*intBaud = 50;

  00159	8b 45 18	 mov	 eax, DWORD PTR _intBaud$[ebp]
  0015c	c7 00 32 00 00
	00		 mov	 DWORD PTR [eax], 50	; 00000032H

; 622  : 		*bytQualThres = 60;

  00162	8b 45 24	 mov	 eax, DWORD PTR _bytQualThres$[ebp]
  00165	c6 00 3c	 mov	 BYTE PTR [eax], 60	; 0000003cH

; 623  : 		break;

  00168	e9 00 09 00 00	 jmp	 $LN39@FrameInfo
$LN34@FrameInfo:

; 624  : 
; 625  : 	case 0x30:
; 626  : 	case 0x31:
; 627  : 	case 0x32:
; 628  : 	case 0x33:
; 629  : 	case 0x34:
; 630  : 	case 0x35:
; 631  : 	case 0x36:
; 632  : 	case 0x37:
; 633  : 	case 0x38:
; 634  : 
; 635  : 		*blnOdd = (1 & bytFrameType) != 0;

  0016d	0f b6 45 08	 movzx	 eax, BYTE PTR _bytFrameType$[ebp]
  00171	83 e0 01	 and	 eax, 1
  00174	f7 d8		 neg	 eax
  00176	1b c0		 sbb	 eax, eax
  00178	f7 d8		 neg	 eax
  0017a	8b 4d 0c	 mov	 ecx, DWORD PTR _blnOdd$[ebp]
  0017d	89 01		 mov	 DWORD PTR [ecx], eax

; 636  : 		*intNumCar = 1;

  0017f	8b 45 10	 mov	 eax, DWORD PTR _intNumCar$[ebp]
  00182	c7 00 01 00 00
	00		 mov	 DWORD PTR [eax], 1

; 637  : 		*intDataLen = 12;

  00188	8b 45 1c	 mov	 eax, DWORD PTR _intDataLen$[ebp]
  0018b	c7 00 0c 00 00
	00		 mov	 DWORD PTR [eax], 12	; 0000000cH

; 638  : 		*intRSLen = 4;			// changed 0.8.0

  00191	8b 45 20	 mov	 eax, DWORD PTR _intRSLen$[ebp]
  00194	c7 00 04 00 00
	00		 mov	 DWORD PTR [eax], 4

; 639  : 		strcpy(strMod, "4FSK");

  0019a	68 00 00 00 00	 push	 OFFSET ??_C@_04KOHEBHGC@4FSK?$AA@
  0019f	8b 45 14	 mov	 eax, DWORD PTR _strMod$[ebp]
  001a2	50		 push	 eax
  001a3	e8 00 00 00 00	 call	 _strcpy
  001a8	83 c4 08	 add	 esp, 8

; 640  : 		*intBaud = 50;

  001ab	8b 45 18	 mov	 eax, DWORD PTR _intBaud$[ebp]
  001ae	c7 00 32 00 00
	00		 mov	 DWORD PTR [eax], 50	; 00000032H

; 641  : 		*bytQualThres = 50;

  001b4	8b 45 24	 mov	 eax, DWORD PTR _bytQualThres$[ebp]
  001b7	c6 00 32	 mov	 BYTE PTR [eax], 50	; 00000032H

; 642  : 		break;

  001ba	e9 ae 08 00 00	 jmp	 $LN39@FrameInfo
$LN33@FrameInfo:

; 643  : 
; 644  : 	case 0x39:
; 645  : 	case 0x3A:
; 646  : 	case 0x3B:
; 647  : 	case 0x3C:
; 648  : 
; 649  : 		*blnOdd = (1 & bytFrameType) != 0;

  001bf	0f b6 45 08	 movzx	 eax, BYTE PTR _bytFrameType$[ebp]
  001c3	83 e0 01	 and	 eax, 1
  001c6	f7 d8		 neg	 eax
  001c8	1b c0		 sbb	 eax, eax
  001ca	f7 d8		 neg	 eax
  001cc	8b 4d 0c	 mov	 ecx, DWORD PTR _blnOdd$[ebp]
  001cf	89 01		 mov	 DWORD PTR [ecx], eax

; 650  : 		*intNumCar = 1;

  001d1	8b 45 10	 mov	 eax, DWORD PTR _intNumCar$[ebp]
  001d4	c7 00 01 00 00
	00		 mov	 DWORD PTR [eax], 1

; 651  : 		*intDataLen = 3;

  001da	8b 45 1c	 mov	 eax, DWORD PTR _intDataLen$[ebp]
  001dd	c7 00 03 00 00
	00		 mov	 DWORD PTR [eax], 3

; 652  : 		*intRSLen = 0;

  001e3	8b 45 20	 mov	 eax, DWORD PTR _intRSLen$[ebp]
  001e6	c7 00 00 00 00
	00		 mov	 DWORD PTR [eax], 0

; 653  : 		strcpy(strMod, "4FSK");

  001ec	68 00 00 00 00	 push	 OFFSET ??_C@_04KOHEBHGC@4FSK?$AA@
  001f1	8b 45 14	 mov	 eax, DWORD PTR _strMod$[ebp]
  001f4	50		 push	 eax
  001f5	e8 00 00 00 00	 call	 _strcpy
  001fa	83 c4 08	 add	 esp, 8

; 654  : 		*intBaud = 50;

  001fd	8b 45 18	 mov	 eax, DWORD PTR _intBaud$[ebp]
  00200	c7 00 32 00 00
	00		 mov	 DWORD PTR [eax], 50	; 00000032H

; 655  : 		*bytQualThres = 50;

  00206	8b 45 24	 mov	 eax, DWORD PTR _bytQualThres$[ebp]
  00209	c6 00 32	 mov	 BYTE PTR [eax], 50	; 00000032H

; 656  : 		break;

  0020c	e9 5c 08 00 00	 jmp	 $LN39@FrameInfo
$LN32@FrameInfo:

; 657  : 
; 658  : 	case 0xe0:
; 659  : 
; 660  : 		*blnOdd = (1 & bytFrameType) != 0;

  00211	0f b6 45 08	 movzx	 eax, BYTE PTR _bytFrameType$[ebp]
  00215	83 e0 01	 and	 eax, 1
  00218	f7 d8		 neg	 eax
  0021a	1b c0		 sbb	 eax, eax
  0021c	f7 d8		 neg	 eax
  0021e	8b 4d 0c	 mov	 ecx, DWORD PTR _blnOdd$[ebp]
  00221	89 01		 mov	 DWORD PTR [ecx], eax

; 661  : 		*intNumCar = 1;

  00223	8b 45 10	 mov	 eax, DWORD PTR _intNumCar$[ebp]
  00226	c7 00 01 00 00
	00		 mov	 DWORD PTR [eax], 1

; 662  : 		*intDataLen = 0;

  0022c	8b 45 1c	 mov	 eax, DWORD PTR _intDataLen$[ebp]
  0022f	c7 00 00 00 00
	00		 mov	 DWORD PTR [eax], 0

; 663  : 		*intRSLen = 0;

  00235	8b 45 20	 mov	 eax, DWORD PTR _intRSLen$[ebp]
  00238	c7 00 00 00 00
	00		 mov	 DWORD PTR [eax], 0

; 664  : 		strcpy(strMod, "4FSK");

  0023e	68 00 00 00 00	 push	 OFFSET ??_C@_04KOHEBHGC@4FSK?$AA@
  00243	8b 45 14	 mov	 eax, DWORD PTR _strMod$[ebp]
  00246	50		 push	 eax
  00247	e8 00 00 00 00	 call	 _strcpy
  0024c	83 c4 08	 add	 esp, 8

; 665  : 		*intBaud = 50;

  0024f	8b 45 18	 mov	 eax, DWORD PTR _intBaud$[ebp]
  00252	c7 00 32 00 00
	00		 mov	 DWORD PTR [eax], 50	; 00000032H

; 666  : 		*bytQualThres = 60;

  00258	8b 45 24	 mov	 eax, DWORD PTR _bytQualThres$[ebp]
  0025b	c6 00 3c	 mov	 BYTE PTR [eax], 60	; 0000003cH

; 667  : 		break;

  0025e	e9 0a 08 00 00	 jmp	 $LN39@FrameInfo
$LN31@FrameInfo:

; 668  : 
; 669  : 	// 1 Carrier Data modes
; 670  :     //  100 baud PSK (200 baud not compatible with 200 Hz bandwidth)  (Note 1 carrier modes Qual Threshold reduced to 30 (was 50) for testing April 20, 2015
; 671  : 
; 672  : 	case 0x40:
; 673  : 	case 0x41:
; 674  : 
; 675  : 		*blnOdd = (1 & bytFrameType) != 0;

  00263	0f b6 45 08	 movzx	 eax, BYTE PTR _bytFrameType$[ebp]
  00267	83 e0 01	 and	 eax, 1
  0026a	f7 d8		 neg	 eax
  0026c	1b c0		 sbb	 eax, eax
  0026e	f7 d8		 neg	 eax
  00270	8b 4d 0c	 mov	 ecx, DWORD PTR _blnOdd$[ebp]
  00273	89 01		 mov	 DWORD PTR [ecx], eax

; 676  : 		*intNumCar = 1;

  00275	8b 45 10	 mov	 eax, DWORD PTR _intNumCar$[ebp]
  00278	c7 00 01 00 00
	00		 mov	 DWORD PTR [eax], 1

; 677  : 		*intDataLen = 64;

  0027e	8b 45 1c	 mov	 eax, DWORD PTR _intDataLen$[ebp]
  00281	c7 00 40 00 00
	00		 mov	 DWORD PTR [eax], 64	; 00000040H

; 678  : 		*intRSLen = 32;

  00287	8b 45 20	 mov	 eax, DWORD PTR _intRSLen$[ebp]
  0028a	c7 00 20 00 00
	00		 mov	 DWORD PTR [eax], 32	; 00000020H

; 679  : 		strcpy(strMod, "4PSK");

  00290	68 00 00 00 00	 push	 OFFSET ??_C@_04NLAGBPCB@4PSK?$AA@
  00295	8b 45 14	 mov	 eax, DWORD PTR _strMod$[ebp]
  00298	50		 push	 eax
  00299	e8 00 00 00 00	 call	 _strcpy
  0029e	83 c4 08	 add	 esp, 8

; 680  : 		*intBaud = 100;

  002a1	8b 45 18	 mov	 eax, DWORD PTR _intBaud$[ebp]
  002a4	c7 00 64 00 00
	00		 mov	 DWORD PTR [eax], 100	; 00000064H

; 681  : 		*bytQualThres = 30;	

  002aa	8b 45 24	 mov	 eax, DWORD PTR _bytQualThres$[ebp]
  002ad	c6 00 1e	 mov	 BYTE PTR [eax], 30	; 0000001eH

; 682  : 		break;

  002b0	e9 b8 07 00 00	 jmp	 $LN39@FrameInfo
$LN30@FrameInfo:

; 683  : 	
; 684  : 	case 0x42:
; 685  : 	case 0x43:
; 686  : 
; 687  : 		*blnOdd = (1 & bytFrameType) != 0;

  002b5	0f b6 45 08	 movzx	 eax, BYTE PTR _bytFrameType$[ebp]
  002b9	83 e0 01	 and	 eax, 1
  002bc	f7 d8		 neg	 eax
  002be	1b c0		 sbb	 eax, eax
  002c0	f7 d8		 neg	 eax
  002c2	8b 4d 0c	 mov	 ecx, DWORD PTR _blnOdd$[ebp]
  002c5	89 01		 mov	 DWORD PTR [ecx], eax

; 688  : 		*intNumCar = 1;

  002c7	8b 45 10	 mov	 eax, DWORD PTR _intNumCar$[ebp]
  002ca	c7 00 01 00 00
	00		 mov	 DWORD PTR [eax], 1

; 689  : 		*intDataLen = 16;

  002d0	8b 45 1c	 mov	 eax, DWORD PTR _intDataLen$[ebp]
  002d3	c7 00 10 00 00
	00		 mov	 DWORD PTR [eax], 16	; 00000010H

; 690  : 		*intRSLen = 8;

  002d9	8b 45 20	 mov	 eax, DWORD PTR _intRSLen$[ebp]
  002dc	c7 00 08 00 00
	00		 mov	 DWORD PTR [eax], 8

; 691  : 		strcpy(strMod, "4PSK");

  002e2	68 00 00 00 00	 push	 OFFSET ??_C@_04NLAGBPCB@4PSK?$AA@
  002e7	8b 45 14	 mov	 eax, DWORD PTR _strMod$[ebp]
  002ea	50		 push	 eax
  002eb	e8 00 00 00 00	 call	 _strcpy
  002f0	83 c4 08	 add	 esp, 8

; 692  : 		*intBaud = 100;

  002f3	8b 45 18	 mov	 eax, DWORD PTR _intBaud$[ebp]
  002f6	c7 00 64 00 00
	00		 mov	 DWORD PTR [eax], 100	; 00000064H

; 693  : 		*bytQualThres = 30;

  002fc	8b 45 24	 mov	 eax, DWORD PTR _bytQualThres$[ebp]
  002ff	c6 00 1e	 mov	 BYTE PTR [eax], 30	; 0000001eH

; 694  : 		break;

  00302	e9 66 07 00 00	 jmp	 $LN39@FrameInfo
$LN29@FrameInfo:

; 695  : 	
; 696  : 	case 0x44:
; 697  : 	case 0x45:
; 698  : 
; 699  : 		*blnOdd = (1 & bytFrameType) != 0;

  00307	0f b6 45 08	 movzx	 eax, BYTE PTR _bytFrameType$[ebp]
  0030b	83 e0 01	 and	 eax, 1
  0030e	f7 d8		 neg	 eax
  00310	1b c0		 sbb	 eax, eax
  00312	f7 d8		 neg	 eax
  00314	8b 4d 0c	 mov	 ecx, DWORD PTR _blnOdd$[ebp]
  00317	89 01		 mov	 DWORD PTR [ecx], eax

; 700  : 		*intNumCar = 1;

  00319	8b 45 10	 mov	 eax, DWORD PTR _intNumCar$[ebp]
  0031c	c7 00 01 00 00
	00		 mov	 DWORD PTR [eax], 1

; 701  : 		*intDataLen = 108;

  00322	8b 45 1c	 mov	 eax, DWORD PTR _intDataLen$[ebp]
  00325	c7 00 6c 00 00
	00		 mov	 DWORD PTR [eax], 108	; 0000006cH

; 702  : 		*intRSLen = 36;

  0032b	8b 45 20	 mov	 eax, DWORD PTR _intRSLen$[ebp]
  0032e	c7 00 24 00 00
	00		 mov	 DWORD PTR [eax], 36	; 00000024H

; 703  : 		strcpy(strMod, "8PSK");

  00334	68 00 00 00 00	 push	 OFFSET ??_C@_04BOPGPCCA@8PSK?$AA@
  00339	8b 45 14	 mov	 eax, DWORD PTR _strMod$[ebp]
  0033c	50		 push	 eax
  0033d	e8 00 00 00 00	 call	 _strcpy
  00342	83 c4 08	 add	 esp, 8

; 704  : 		*intBaud = 100;

  00345	8b 45 18	 mov	 eax, DWORD PTR _intBaud$[ebp]
  00348	c7 00 64 00 00
	00		 mov	 DWORD PTR [eax], 100	; 00000064H

; 705  : 		*bytQualThres = 30;

  0034e	8b 45 24	 mov	 eax, DWORD PTR _bytQualThres$[ebp]
  00351	c6 00 1e	 mov	 BYTE PTR [eax], 30	; 0000001eH

; 706  : 		break;

  00354	e9 14 07 00 00	 jmp	 $LN39@FrameInfo
$LN28@FrameInfo:

; 707  : 
; 708  : 	// 50 baud 4FSK 200 Hz bandwidth
; 709  : 
; 710  : 	case 0x46:
; 711  : 	case 0x47:
; 712  : 
; 713  : 		*blnOdd = (1 & bytFrameType) != 0;

  00359	0f b6 45 08	 movzx	 eax, BYTE PTR _bytFrameType$[ebp]
  0035d	83 e0 01	 and	 eax, 1
  00360	f7 d8		 neg	 eax
  00362	1b c0		 sbb	 eax, eax
  00364	f7 d8		 neg	 eax
  00366	8b 4d 0c	 mov	 ecx, DWORD PTR _blnOdd$[ebp]
  00369	89 01		 mov	 DWORD PTR [ecx], eax

; 714  : 		*intNumCar = 1;

  0036b	8b 45 10	 mov	 eax, DWORD PTR _intNumCar$[ebp]
  0036e	c7 00 01 00 00
	00		 mov	 DWORD PTR [eax], 1

; 715  : 		*intDataLen = 32;

  00374	8b 45 1c	 mov	 eax, DWORD PTR _intDataLen$[ebp]
  00377	c7 00 20 00 00
	00		 mov	 DWORD PTR [eax], 32	; 00000020H

; 716  : 		*intRSLen = 8;

  0037d	8b 45 20	 mov	 eax, DWORD PTR _intRSLen$[ebp]
  00380	c7 00 08 00 00
	00		 mov	 DWORD PTR [eax], 8

; 717  : 		strcpy(strMod, "4FSK");

  00386	68 00 00 00 00	 push	 OFFSET ??_C@_04KOHEBHGC@4FSK?$AA@
  0038b	8b 45 14	 mov	 eax, DWORD PTR _strMod$[ebp]
  0038e	50		 push	 eax
  0038f	e8 00 00 00 00	 call	 _strcpy
  00394	83 c4 08	 add	 esp, 8

; 718  : 		*intBaud = 50;

  00397	8b 45 18	 mov	 eax, DWORD PTR _intBaud$[ebp]
  0039a	c7 00 32 00 00
	00		 mov	 DWORD PTR [eax], 50	; 00000032H

; 719  : 		*bytQualThres = 30;

  003a0	8b 45 24	 mov	 eax, DWORD PTR _bytQualThres$[ebp]
  003a3	c6 00 1e	 mov	 BYTE PTR [eax], 30	; 0000001eH

; 720  : 		break;

  003a6	e9 c2 06 00 00	 jmp	 $LN39@FrameInfo
$LN27@FrameInfo:

; 721  : 
; 722  : 	case 0x48:
; 723  : 	case 0x49:
; 724  : 
; 725  : 		*blnOdd = (1 & bytFrameType) != 0;

  003ab	0f b6 45 08	 movzx	 eax, BYTE PTR _bytFrameType$[ebp]
  003af	83 e0 01	 and	 eax, 1
  003b2	f7 d8		 neg	 eax
  003b4	1b c0		 sbb	 eax, eax
  003b6	f7 d8		 neg	 eax
  003b8	8b 4d 0c	 mov	 ecx, DWORD PTR _blnOdd$[ebp]
  003bb	89 01		 mov	 DWORD PTR [ecx], eax

; 726  : 		*intNumCar = 1;

  003bd	8b 45 10	 mov	 eax, DWORD PTR _intNumCar$[ebp]
  003c0	c7 00 01 00 00
	00		 mov	 DWORD PTR [eax], 1

; 727  : 		*intDataLen = 16;

  003c6	8b 45 1c	 mov	 eax, DWORD PTR _intDataLen$[ebp]
  003c9	c7 00 10 00 00
	00		 mov	 DWORD PTR [eax], 16	; 00000010H

; 728  : 		*intRSLen = 4;

  003cf	8b 45 20	 mov	 eax, DWORD PTR _intRSLen$[ebp]
  003d2	c7 00 04 00 00
	00		 mov	 DWORD PTR [eax], 4

; 729  : 		strcpy(strMod, "4FSK");

  003d8	68 00 00 00 00	 push	 OFFSET ??_C@_04KOHEBHGC@4FSK?$AA@
  003dd	8b 45 14	 mov	 eax, DWORD PTR _strMod$[ebp]
  003e0	50		 push	 eax
  003e1	e8 00 00 00 00	 call	 _strcpy
  003e6	83 c4 08	 add	 esp, 8

; 730  : 		*intBaud = 50;

  003e9	8b 45 18	 mov	 eax, DWORD PTR _intBaud$[ebp]
  003ec	c7 00 32 00 00
	00		 mov	 DWORD PTR [eax], 50	; 00000032H

; 731  : 		*bytQualThres = 30;

  003f2	8b 45 24	 mov	 eax, DWORD PTR _bytQualThres$[ebp]
  003f5	c6 00 1e	 mov	 BYTE PTR [eax], 30	; 0000001eH

; 732  : 		break;

  003f8	e9 70 06 00 00	 jmp	 $LN39@FrameInfo
$LN26@FrameInfo:

; 733  : 	
; 734  : 	// 100 baud 4FSK 500 Hz bandwidth
; 735  : 
; 736  : 	case 0x4A:
; 737  : 	case 0x4B:
; 738  : 
; 739  : 		*blnOdd = (1 & bytFrameType) != 0;

  003fd	0f b6 45 08	 movzx	 eax, BYTE PTR _bytFrameType$[ebp]
  00401	83 e0 01	 and	 eax, 1
  00404	f7 d8		 neg	 eax
  00406	1b c0		 sbb	 eax, eax
  00408	f7 d8		 neg	 eax
  0040a	8b 4d 0c	 mov	 ecx, DWORD PTR _blnOdd$[ebp]
  0040d	89 01		 mov	 DWORD PTR [ecx], eax

; 740  : 		*intNumCar = 1;

  0040f	8b 45 10	 mov	 eax, DWORD PTR _intNumCar$[ebp]
  00412	c7 00 01 00 00
	00		 mov	 DWORD PTR [eax], 1

; 741  : 		*intDataLen = 64;

  00418	8b 45 1c	 mov	 eax, DWORD PTR _intDataLen$[ebp]
  0041b	c7 00 40 00 00
	00		 mov	 DWORD PTR [eax], 64	; 00000040H

; 742  : 		*intRSLen = 16;

  00421	8b 45 20	 mov	 eax, DWORD PTR _intRSLen$[ebp]
  00424	c7 00 10 00 00
	00		 mov	 DWORD PTR [eax], 16	; 00000010H

; 743  : 		strcpy(strMod, "4FSK");

  0042a	68 00 00 00 00	 push	 OFFSET ??_C@_04KOHEBHGC@4FSK?$AA@
  0042f	8b 45 14	 mov	 eax, DWORD PTR _strMod$[ebp]
  00432	50		 push	 eax
  00433	e8 00 00 00 00	 call	 _strcpy
  00438	83 c4 08	 add	 esp, 8

; 744  : 		*intBaud = 100;

  0043b	8b 45 18	 mov	 eax, DWORD PTR _intBaud$[ebp]
  0043e	c7 00 64 00 00
	00		 mov	 DWORD PTR [eax], 100	; 00000064H

; 745  : 		*bytQualThres = 30;

  00444	8b 45 24	 mov	 eax, DWORD PTR _bytQualThres$[ebp]
  00447	c6 00 1e	 mov	 BYTE PTR [eax], 30	; 0000001eH

; 746  : 		break;

  0044a	e9 1e 06 00 00	 jmp	 $LN39@FrameInfo
$LN25@FrameInfo:

; 747  :  
; 748  :  	case 0x4C:
; 749  : 	case 0x4D:
; 750  : 
; 751  : 		*blnOdd = (1 & bytFrameType) != 0;

  0044f	0f b6 45 08	 movzx	 eax, BYTE PTR _bytFrameType$[ebp]
  00453	83 e0 01	 and	 eax, 1
  00456	f7 d8		 neg	 eax
  00458	1b c0		 sbb	 eax, eax
  0045a	f7 d8		 neg	 eax
  0045c	8b 4d 0c	 mov	 ecx, DWORD PTR _blnOdd$[ebp]
  0045f	89 01		 mov	 DWORD PTR [ecx], eax

; 752  : 		*intNumCar = 1;

  00461	8b 45 10	 mov	 eax, DWORD PTR _intNumCar$[ebp]
  00464	c7 00 01 00 00
	00		 mov	 DWORD PTR [eax], 1

; 753  : 		*intDataLen = 32;

  0046a	8b 45 1c	 mov	 eax, DWORD PTR _intDataLen$[ebp]
  0046d	c7 00 20 00 00
	00		 mov	 DWORD PTR [eax], 32	; 00000020H

; 754  : 		*intRSLen = 8;

  00473	8b 45 20	 mov	 eax, DWORD PTR _intRSLen$[ebp]
  00476	c7 00 08 00 00
	00		 mov	 DWORD PTR [eax], 8

; 755  : 		strcpy(strMod, "4FSK");

  0047c	68 00 00 00 00	 push	 OFFSET ??_C@_04KOHEBHGC@4FSK?$AA@
  00481	8b 45 14	 mov	 eax, DWORD PTR _strMod$[ebp]
  00484	50		 push	 eax
  00485	e8 00 00 00 00	 call	 _strcpy
  0048a	83 c4 08	 add	 esp, 8

; 756  : 		*intBaud = 100;

  0048d	8b 45 18	 mov	 eax, DWORD PTR _intBaud$[ebp]
  00490	c7 00 64 00 00
	00		 mov	 DWORD PTR [eax], 100	; 00000064H

; 757  : 		*bytQualThres = 30;

  00496	8b 45 24	 mov	 eax, DWORD PTR _bytQualThres$[ebp]
  00499	c6 00 1e	 mov	 BYTE PTR [eax], 30	; 0000001eH

; 758  : 		break;

  0049c	e9 cc 05 00 00	 jmp	 $LN39@FrameInfo
$LN24@FrameInfo:

; 759  : 
; 760  : 	// 25 baud 8FSK 200 Hz bandwidth (in testing)
; 761  :  
; 762  :  	case 0x4E:
; 763  : 	case 0x4F:
; 764  : 
; 765  : 		*blnOdd = (1 & bytFrameType) != 0;

  004a1	0f b6 45 08	 movzx	 eax, BYTE PTR _bytFrameType$[ebp]
  004a5	83 e0 01	 and	 eax, 1
  004a8	f7 d8		 neg	 eax
  004aa	1b c0		 sbb	 eax, eax
  004ac	f7 d8		 neg	 eax
  004ae	8b 4d 0c	 mov	 ecx, DWORD PTR _blnOdd$[ebp]
  004b1	89 01		 mov	 DWORD PTR [ecx], eax

; 766  : 		*intNumCar = 1;

  004b3	8b 45 10	 mov	 eax, DWORD PTR _intNumCar$[ebp]
  004b6	c7 00 01 00 00
	00		 mov	 DWORD PTR [eax], 1

; 767  : 		*intDataLen = 24;

  004bc	8b 45 1c	 mov	 eax, DWORD PTR _intDataLen$[ebp]
  004bf	c7 00 18 00 00
	00		 mov	 DWORD PTR [eax], 24	; 00000018H

; 768  : 		*intRSLen = 6;

  004c5	8b 45 20	 mov	 eax, DWORD PTR _intRSLen$[ebp]
  004c8	c7 00 06 00 00
	00		 mov	 DWORD PTR [eax], 6

; 769  : 		strcpy(strMod, "8FSK");

  004ce	68 00 00 00 00	 push	 OFFSET ??_C@_04GLIEPKGD@8FSK?$AA@
  004d3	8b 45 14	 mov	 eax, DWORD PTR _strMod$[ebp]
  004d6	50		 push	 eax
  004d7	e8 00 00 00 00	 call	 _strcpy
  004dc	83 c4 08	 add	 esp, 8

; 770  : 		*intBaud = 25;

  004df	8b 45 18	 mov	 eax, DWORD PTR _intBaud$[ebp]
  004e2	c7 00 19 00 00
	00		 mov	 DWORD PTR [eax], 25	; 00000019H

; 771  : 		*bytQualThres = 30; 

  004e8	8b 45 24	 mov	 eax, DWORD PTR _bytQualThres$[ebp]
  004eb	c6 00 1e	 mov	 BYTE PTR [eax], 30	; 0000001eH

; 772  : 		break;

  004ee	e9 7a 05 00 00	 jmp	 $LN39@FrameInfo
$LN23@FrameInfo:

; 773  : 		
; 774  : 	// 25 baud 16FSK 500 Hz bandwidth 
; 775  : 
; 776  :  	case 0x58:
; 777  : 	case 0x59:
; 778  : 
; 779  : 		*blnOdd = (1 & bytFrameType) != 0;

  004f3	0f b6 45 08	 movzx	 eax, BYTE PTR _bytFrameType$[ebp]
  004f7	83 e0 01	 and	 eax, 1
  004fa	f7 d8		 neg	 eax
  004fc	1b c0		 sbb	 eax, eax
  004fe	f7 d8		 neg	 eax
  00500	8b 4d 0c	 mov	 ecx, DWORD PTR _blnOdd$[ebp]
  00503	89 01		 mov	 DWORD PTR [ecx], eax

; 780  : 		*intNumCar = 1;

  00505	8b 45 10	 mov	 eax, DWORD PTR _intNumCar$[ebp]
  00508	c7 00 01 00 00
	00		 mov	 DWORD PTR [eax], 1

; 781  : 		*intDataLen = 32;

  0050e	8b 45 1c	 mov	 eax, DWORD PTR _intDataLen$[ebp]
  00511	c7 00 20 00 00
	00		 mov	 DWORD PTR [eax], 32	; 00000020H

; 782  : 		*intRSLen = 8;

  00517	8b 45 20	 mov	 eax, DWORD PTR _intRSLen$[ebp]
  0051a	c7 00 08 00 00
	00		 mov	 DWORD PTR [eax], 8

; 783  : 		strcpy(strMod, "16FSK");

  00520	68 00 00 00 00	 push	 OFFSET ??_C@_05GMHCMGLE@16FSK?$AA@
  00525	8b 45 14	 mov	 eax, DWORD PTR _strMod$[ebp]
  00528	50		 push	 eax
  00529	e8 00 00 00 00	 call	 _strcpy
  0052e	83 c4 08	 add	 esp, 8

; 784  : 		*intBaud = 25;

  00531	8b 45 18	 mov	 eax, DWORD PTR _intBaud$[ebp]
  00534	c7 00 19 00 00
	00		 mov	 DWORD PTR [eax], 25	; 00000019H

; 785  : 		*bytQualThres = 30;

  0053a	8b 45 24	 mov	 eax, DWORD PTR _bytQualThres$[ebp]
  0053d	c6 00 1e	 mov	 BYTE PTR [eax], 30	; 0000001eH

; 786  :  		break;

  00540	e9 28 05 00 00	 jmp	 $LN39@FrameInfo
$LN22@FrameInfo:

; 787  : 
; 788  : 	case 0x5A:
; 789  :  	case 0x5B:
; 790  : 
; 791  : 		*blnOdd = (1 & bytFrameType) != 0;

  00545	0f b6 45 08	 movzx	 eax, BYTE PTR _bytFrameType$[ebp]
  00549	83 e0 01	 and	 eax, 1
  0054c	f7 d8		 neg	 eax
  0054e	1b c0		 sbb	 eax, eax
  00550	f7 d8		 neg	 eax
  00552	8b 4d 0c	 mov	 ecx, DWORD PTR _blnOdd$[ebp]
  00555	89 01		 mov	 DWORD PTR [ecx], eax

; 792  : 		*intNumCar = 1;

  00557	8b 45 10	 mov	 eax, DWORD PTR _intNumCar$[ebp]
  0055a	c7 00 01 00 00
	00		 mov	 DWORD PTR [eax], 1

; 793  : 		*intDataLen = 16;

  00560	8b 45 1c	 mov	 eax, DWORD PTR _intDataLen$[ebp]
  00563	c7 00 10 00 00
	00		 mov	 DWORD PTR [eax], 16	; 00000010H

; 794  : 		*intRSLen = 4;

  00569	8b 45 20	 mov	 eax, DWORD PTR _intRSLen$[ebp]
  0056c	c7 00 04 00 00
	00		 mov	 DWORD PTR [eax], 4

; 795  : 		strcpy(strMod, "16FSK");

  00572	68 00 00 00 00	 push	 OFFSET ??_C@_05GMHCMGLE@16FSK?$AA@
  00577	8b 45 14	 mov	 eax, DWORD PTR _strMod$[ebp]
  0057a	50		 push	 eax
  0057b	e8 00 00 00 00	 call	 _strcpy
  00580	83 c4 08	 add	 esp, 8

; 796  : 		*intBaud = 25;

  00583	8b 45 18	 mov	 eax, DWORD PTR _intBaud$[ebp]
  00586	c7 00 19 00 00
	00		 mov	 DWORD PTR [eax], 25	; 00000019H

; 797  : 		*bytQualThres = 30;

  0058c	8b 45 24	 mov	 eax, DWORD PTR _bytQualThres$[ebp]
  0058f	c6 00 1e	 mov	 BYTE PTR [eax], 30	; 0000001eH

; 798  :  		break;

  00592	e9 d6 04 00 00	 jmp	 $LN39@FrameInfo
$LN21@FrameInfo:

; 799  : 
; 800  : 	case 0x5C:
; 801  :  	case 0x5D:
; 802  : 
; 803  : 		// 100 baud 16QAM 
; 804  :   
; 805  : 		*blnOdd = (1 & bytFrameType) != 0;

  00597	0f b6 45 08	 movzx	 eax, BYTE PTR _bytFrameType$[ebp]
  0059b	83 e0 01	 and	 eax, 1
  0059e	f7 d8		 neg	 eax
  005a0	1b c0		 sbb	 eax, eax
  005a2	f7 d8		 neg	 eax
  005a4	8b 4d 0c	 mov	 ecx, DWORD PTR _blnOdd$[ebp]
  005a7	89 01		 mov	 DWORD PTR [ecx], eax

; 806  : 		*intNumCar = 1;

  005a9	8b 45 10	 mov	 eax, DWORD PTR _intNumCar$[ebp]
  005ac	c7 00 01 00 00
	00		 mov	 DWORD PTR [eax], 1

; 807  : 		*intDataLen = 128;

  005b2	8b 45 1c	 mov	 eax, DWORD PTR _intDataLen$[ebp]
  005b5	c7 00 80 00 00
	00		 mov	 DWORD PTR [eax], 128	; 00000080H

; 808  : 		*intRSLen = 64;

  005bb	8b 45 20	 mov	 eax, DWORD PTR _intRSLen$[ebp]
  005be	c7 00 40 00 00
	00		 mov	 DWORD PTR [eax], 64	; 00000040H

; 809  : 		strcpy(strMod, "16QAM");

  005c4	68 00 00 00 00	 push	 OFFSET ??_C@_05OIEEHJAK@16QAM?$AA@
  005c9	8b 45 14	 mov	 eax, DWORD PTR _strMod$[ebp]
  005cc	50		 push	 eax
  005cd	e8 00 00 00 00	 call	 _strcpy
  005d2	83 c4 08	 add	 esp, 8

; 810  : 		*intBaud = 100;

  005d5	8b 45 18	 mov	 eax, DWORD PTR _intBaud$[ebp]
  005d8	c7 00 64 00 00
	00		 mov	 DWORD PTR [eax], 100	; 00000064H

; 811  : 		*bytQualThres = 30;

  005de	8b 45 24	 mov	 eax, DWORD PTR _bytQualThres$[ebp]
  005e1	c6 00 1e	 mov	 BYTE PTR [eax], 30	; 0000001eH

; 812  :  		break;

  005e4	e9 84 04 00 00	 jmp	 $LN39@FrameInfo
$LN20@FrameInfo:

; 813  : 
; 814  : 	// 600 baud 4FSK 2000 Hz bandwidth 
; 815  : 
; 816  : 	case 0x7a:
; 817  : 	case 0x7b:
; 818  : 
; 819  : 		*blnOdd = (1 & bytFrameType) != 0;

  005e9	0f b6 45 08	 movzx	 eax, BYTE PTR _bytFrameType$[ebp]
  005ed	83 e0 01	 and	 eax, 1
  005f0	f7 d8		 neg	 eax
  005f2	1b c0		 sbb	 eax, eax
  005f4	f7 d8		 neg	 eax
  005f6	8b 4d 0c	 mov	 ecx, DWORD PTR _blnOdd$[ebp]
  005f9	89 01		 mov	 DWORD PTR [ecx], eax

; 820  : 		*intNumCar = 1;

  005fb	8b 45 10	 mov	 eax, DWORD PTR _intNumCar$[ebp]
  005fe	c7 00 01 00 00
	00		 mov	 DWORD PTR [eax], 1

; 821  : 		*intDataLen = 600;

  00604	8b 45 1c	 mov	 eax, DWORD PTR _intDataLen$[ebp]
  00607	c7 00 58 02 00
	00		 mov	 DWORD PTR [eax], 600	; 00000258H

; 822  : 		*intRSLen = 150;

  0060d	8b 45 20	 mov	 eax, DWORD PTR _intRSLen$[ebp]
  00610	c7 00 96 00 00
	00		 mov	 DWORD PTR [eax], 150	; 00000096H

; 823  : 		strcpy(strMod, "4FSK");

  00616	68 00 00 00 00	 push	 OFFSET ??_C@_04KOHEBHGC@4FSK?$AA@
  0061b	8b 45 14	 mov	 eax, DWORD PTR _strMod$[ebp]
  0061e	50		 push	 eax
  0061f	e8 00 00 00 00	 call	 _strcpy
  00624	83 c4 08	 add	 esp, 8

; 824  : 		*intBaud = 600;

  00627	8b 45 18	 mov	 eax, DWORD PTR _intBaud$[ebp]
  0062a	c7 00 58 02 00
	00		 mov	 DWORD PTR [eax], 600	; 00000258H

; 825  : 		*bytQualThres = 30;

  00630	8b 45 24	 mov	 eax, DWORD PTR _bytQualThres$[ebp]
  00633	c6 00 1e	 mov	 BYTE PTR [eax], 30	; 0000001eH

; 826  : 		break;

  00636	e9 32 04 00 00	 jmp	 $LN39@FrameInfo
$LN19@FrameInfo:

; 827  :  
; 828  : 	case 0x7C:
; 829  : 	case 0x7D:
; 830  : 
; 831  : 		*blnOdd = (1 & bytFrameType) != 0;

  0063b	0f b6 45 08	 movzx	 eax, BYTE PTR _bytFrameType$[ebp]
  0063f	83 e0 01	 and	 eax, 1
  00642	f7 d8		 neg	 eax
  00644	1b c0		 sbb	 eax, eax
  00646	f7 d8		 neg	 eax
  00648	8b 4d 0c	 mov	 ecx, DWORD PTR _blnOdd$[ebp]
  0064b	89 01		 mov	 DWORD PTR [ecx], eax

; 832  : 		*intNumCar = 1;

  0064d	8b 45 10	 mov	 eax, DWORD PTR _intNumCar$[ebp]
  00650	c7 00 01 00 00
	00		 mov	 DWORD PTR [eax], 1

; 833  : 		*intDataLen = 200;

  00656	8b 45 1c	 mov	 eax, DWORD PTR _intDataLen$[ebp]
  00659	c7 00 c8 00 00
	00		 mov	 DWORD PTR [eax], 200	; 000000c8H

; 834  : 		*intRSLen = 50;

  0065f	8b 45 20	 mov	 eax, DWORD PTR _intRSLen$[ebp]
  00662	c7 00 32 00 00
	00		 mov	 DWORD PTR [eax], 50	; 00000032H

; 835  : 		strcpy(strMod, "4FSK");

  00668	68 00 00 00 00	 push	 OFFSET ??_C@_04KOHEBHGC@4FSK?$AA@
  0066d	8b 45 14	 mov	 eax, DWORD PTR _strMod$[ebp]
  00670	50		 push	 eax
  00671	e8 00 00 00 00	 call	 _strcpy
  00676	83 c4 08	 add	 esp, 8

; 836  : 		*intBaud = 600;

  00679	8b 45 18	 mov	 eax, DWORD PTR _intBaud$[ebp]
  0067c	c7 00 58 02 00
	00		 mov	 DWORD PTR [eax], 600	; 00000258H

; 837  : 		*bytQualThres = 30;

  00682	8b 45 24	 mov	 eax, DWORD PTR _bytQualThres$[ebp]
  00685	c6 00 1e	 mov	 BYTE PTR [eax], 30	; 0000001eH

; 838  : 		break;

  00688	e9 e0 03 00 00	 jmp	 $LN39@FrameInfo
$LN18@FrameInfo:

; 839  :  
; 840  : 	// 2 Carrier Data Modes
; 841  : 	// 100 baud 
; 842  : 
; 843  : 	case 0x50:
; 844  : 	case 0x51:
; 845  : 
; 846  : 		*blnOdd = (1 & bytFrameType) != 0;

  0068d	0f b6 45 08	 movzx	 eax, BYTE PTR _bytFrameType$[ebp]
  00691	83 e0 01	 and	 eax, 1
  00694	f7 d8		 neg	 eax
  00696	1b c0		 sbb	 eax, eax
  00698	f7 d8		 neg	 eax
  0069a	8b 4d 0c	 mov	 ecx, DWORD PTR _blnOdd$[ebp]
  0069d	89 01		 mov	 DWORD PTR [ecx], eax

; 847  : 		*intNumCar = 2;

  0069f	8b 45 10	 mov	 eax, DWORD PTR _intNumCar$[ebp]
  006a2	c7 00 02 00 00
	00		 mov	 DWORD PTR [eax], 2

; 848  : 		*intDataLen = 64;

  006a8	8b 45 1c	 mov	 eax, DWORD PTR _intDataLen$[ebp]
  006ab	c7 00 40 00 00
	00		 mov	 DWORD PTR [eax], 64	; 00000040H

; 849  : 		*intRSLen = 32;

  006b1	8b 45 20	 mov	 eax, DWORD PTR _intRSLen$[ebp]
  006b4	c7 00 20 00 00
	00		 mov	 DWORD PTR [eax], 32	; 00000020H

; 850  : 		strcpy(strMod, "4PSK");

  006ba	68 00 00 00 00	 push	 OFFSET ??_C@_04NLAGBPCB@4PSK?$AA@
  006bf	8b 45 14	 mov	 eax, DWORD PTR _strMod$[ebp]
  006c2	50		 push	 eax
  006c3	e8 00 00 00 00	 call	 _strcpy
  006c8	83 c4 08	 add	 esp, 8

; 851  : 		*intBaud = 100;

  006cb	8b 45 18	 mov	 eax, DWORD PTR _intBaud$[ebp]
  006ce	c7 00 64 00 00
	00		 mov	 DWORD PTR [eax], 100	; 00000064H

; 852  : 		*bytQualThres = 50;

  006d4	8b 45 24	 mov	 eax, DWORD PTR _bytQualThres$[ebp]
  006d7	c6 00 32	 mov	 BYTE PTR [eax], 50	; 00000032H

; 853  :  		break;

  006da	e9 8e 03 00 00	 jmp	 $LN39@FrameInfo
$LN17@FrameInfo:

; 854  : 
; 855  : 	case 0x52:
; 856  : 	case 0x53:
; 857  : 
; 858  : 		*blnOdd = bytFrameType & 1;

  006df	0f b6 45 08	 movzx	 eax, BYTE PTR _bytFrameType$[ebp]
  006e3	83 e0 01	 and	 eax, 1
  006e6	8b 4d 0c	 mov	 ecx, DWORD PTR _blnOdd$[ebp]
  006e9	89 01		 mov	 DWORD PTR [ecx], eax

; 859  : 		*intNumCar = 2;

  006eb	8b 45 10	 mov	 eax, DWORD PTR _intNumCar$[ebp]
  006ee	c7 00 02 00 00
	00		 mov	 DWORD PTR [eax], 2

; 860  : 		*intDataLen = 108;

  006f4	8b 45 1c	 mov	 eax, DWORD PTR _intDataLen$[ebp]
  006f7	c7 00 6c 00 00
	00		 mov	 DWORD PTR [eax], 108	; 0000006cH

; 861  : 		*intRSLen = 36;

  006fd	8b 45 20	 mov	 eax, DWORD PTR _intRSLen$[ebp]
  00700	c7 00 24 00 00
	00		 mov	 DWORD PTR [eax], 36	; 00000024H

; 862  : 		strcpy(strMod, "8PSK");

  00706	68 00 00 00 00	 push	 OFFSET ??_C@_04BOPGPCCA@8PSK?$AA@
  0070b	8b 45 14	 mov	 eax, DWORD PTR _strMod$[ebp]
  0070e	50		 push	 eax
  0070f	e8 00 00 00 00	 call	 _strcpy
  00714	83 c4 08	 add	 esp, 8

; 863  : 		*intBaud = 100;

  00717	8b 45 18	 mov	 eax, DWORD PTR _intBaud$[ebp]
  0071a	c7 00 64 00 00
	00		 mov	 DWORD PTR [eax], 100	; 00000064H

; 864  : 		*bytQualThres = 50;

  00720	8b 45 24	 mov	 eax, DWORD PTR _bytQualThres$[ebp]
  00723	c6 00 32	 mov	 BYTE PTR [eax], 50	; 00000032H

; 865  : 		break;

  00726	e9 42 03 00 00	 jmp	 $LN39@FrameInfo
$LN16@FrameInfo:

; 866  : 						
; 867  : 	// 16 QAM 2 Carrier 
; 868  :     
; 869  : 	case 0x54:
; 870  : 	case 0x55:
; 871  : 
; 872  : 		// 100 baud 16QAM
; 873  :   
; 874  : 		*blnOdd = bytFrameType & 1;

  0072b	0f b6 45 08	 movzx	 eax, BYTE PTR _bytFrameType$[ebp]
  0072f	83 e0 01	 and	 eax, 1
  00732	8b 4d 0c	 mov	 ecx, DWORD PTR _blnOdd$[ebp]
  00735	89 01		 mov	 DWORD PTR [ecx], eax

; 875  : 		*intNumCar = 2;

  00737	8b 45 10	 mov	 eax, DWORD PTR _intNumCar$[ebp]
  0073a	c7 00 02 00 00
	00		 mov	 DWORD PTR [eax], 2

; 876  : 		*intDataLen = 128;

  00740	8b 45 1c	 mov	 eax, DWORD PTR _intDataLen$[ebp]
  00743	c7 00 80 00 00
	00		 mov	 DWORD PTR [eax], 128	; 00000080H

; 877  : 		*intRSLen = 64;

  00749	8b 45 20	 mov	 eax, DWORD PTR _intRSLen$[ebp]
  0074c	c7 00 40 00 00
	00		 mov	 DWORD PTR [eax], 64	; 00000040H

; 878  : 		strcpy(strMod, "16QAM");

  00752	68 00 00 00 00	 push	 OFFSET ??_C@_05OIEEHJAK@16QAM?$AA@
  00757	8b 45 14	 mov	 eax, DWORD PTR _strMod$[ebp]
  0075a	50		 push	 eax
  0075b	e8 00 00 00 00	 call	 _strcpy
  00760	83 c4 08	 add	 esp, 8

; 879  : 		*intBaud = 100;

  00763	8b 45 18	 mov	 eax, DWORD PTR _intBaud$[ebp]
  00766	c7 00 64 00 00
	00		 mov	 DWORD PTR [eax], 100	; 00000064H

; 880  : 		*bytQualThres = 50;

  0076c	8b 45 24	 mov	 eax, DWORD PTR _bytQualThres$[ebp]
  0076f	c6 00 32	 mov	 BYTE PTR [eax], 50	; 00000032H

; 881  : 		break;

  00772	e9 f6 02 00 00	 jmp	 $LN39@FrameInfo
$LN15@FrameInfo:

; 882  : 		
; 883  : 	//' 4 Carrier Data Modes
; 884  : 	//	100 baud
; 885  :      	
; 886  : 	case 0x60:
; 887  : 	case 0x61:
; 888  : 
; 889  : 		*blnOdd = bytFrameType & 1;

  00777	0f b6 45 08	 movzx	 eax, BYTE PTR _bytFrameType$[ebp]
  0077b	83 e0 01	 and	 eax, 1
  0077e	8b 4d 0c	 mov	 ecx, DWORD PTR _blnOdd$[ebp]
  00781	89 01		 mov	 DWORD PTR [ecx], eax

; 890  : 		*intNumCar = 4;

  00783	8b 45 10	 mov	 eax, DWORD PTR _intNumCar$[ebp]
  00786	c7 00 04 00 00
	00		 mov	 DWORD PTR [eax], 4

; 891  : 		*intDataLen = 64;

  0078c	8b 45 1c	 mov	 eax, DWORD PTR _intDataLen$[ebp]
  0078f	c7 00 40 00 00
	00		 mov	 DWORD PTR [eax], 64	; 00000040H

; 892  : 		*intRSLen = 32;

  00795	8b 45 20	 mov	 eax, DWORD PTR _intRSLen$[ebp]
  00798	c7 00 20 00 00
	00		 mov	 DWORD PTR [eax], 32	; 00000020H

; 893  : 		strcpy(strMod, "4PSK");

  0079e	68 00 00 00 00	 push	 OFFSET ??_C@_04NLAGBPCB@4PSK?$AA@
  007a3	8b 45 14	 mov	 eax, DWORD PTR _strMod$[ebp]
  007a6	50		 push	 eax
  007a7	e8 00 00 00 00	 call	 _strcpy
  007ac	83 c4 08	 add	 esp, 8

; 894  : 		*intBaud = 100;

  007af	8b 45 18	 mov	 eax, DWORD PTR _intBaud$[ebp]
  007b2	c7 00 64 00 00
	00		 mov	 DWORD PTR [eax], 100	; 00000064H

; 895  : 		*bytQualThres = 50;

  007b8	8b 45 24	 mov	 eax, DWORD PTR _bytQualThres$[ebp]
  007bb	c6 00 32	 mov	 BYTE PTR [eax], 50	; 00000032H

; 896  : 		break;

  007be	e9 aa 02 00 00	 jmp	 $LN39@FrameInfo
$LN14@FrameInfo:

; 897  : 	
; 898  : 	case 0x62:
; 899  : 	case 0x63:
; 900  : 
; 901  : 		*blnOdd = bytFrameType & 1;

  007c3	0f b6 45 08	 movzx	 eax, BYTE PTR _bytFrameType$[ebp]
  007c7	83 e0 01	 and	 eax, 1
  007ca	8b 4d 0c	 mov	 ecx, DWORD PTR _blnOdd$[ebp]
  007cd	89 01		 mov	 DWORD PTR [ecx], eax

; 902  : 		*intNumCar = 4;

  007cf	8b 45 10	 mov	 eax, DWORD PTR _intNumCar$[ebp]
  007d2	c7 00 04 00 00
	00		 mov	 DWORD PTR [eax], 4

; 903  : 		*intDataLen = 108;

  007d8	8b 45 1c	 mov	 eax, DWORD PTR _intDataLen$[ebp]
  007db	c7 00 6c 00 00
	00		 mov	 DWORD PTR [eax], 108	; 0000006cH

; 904  : 		*intRSLen = 36;

  007e1	8b 45 20	 mov	 eax, DWORD PTR _intRSLen$[ebp]
  007e4	c7 00 24 00 00
	00		 mov	 DWORD PTR [eax], 36	; 00000024H

; 905  : 		strcpy(strMod, "8PSK");

  007ea	68 00 00 00 00	 push	 OFFSET ??_C@_04BOPGPCCA@8PSK?$AA@
  007ef	8b 45 14	 mov	 eax, DWORD PTR _strMod$[ebp]
  007f2	50		 push	 eax
  007f3	e8 00 00 00 00	 call	 _strcpy
  007f8	83 c4 08	 add	 esp, 8

; 906  : 		*intBaud = 100;

  007fb	8b 45 18	 mov	 eax, DWORD PTR _intBaud$[ebp]
  007fe	c7 00 64 00 00
	00		 mov	 DWORD PTR [eax], 100	; 00000064H

; 907  : 		*bytQualThres = 50;

  00804	8b 45 24	 mov	 eax, DWORD PTR _bytQualThres$[ebp]
  00807	c6 00 32	 mov	 BYTE PTR [eax], 50	; 00000032H

; 908  : 		break;

  0080a	e9 5e 02 00 00	 jmp	 $LN39@FrameInfo
$LN13@FrameInfo:

; 909  : 
; 910  : 	//	167 Baud
; 911  : 
; 912  : 	case 0x64:
; 913  : 	case 0x65:
; 914  : 
; 915  : 		*blnOdd = bytFrameType & 1;

  0080f	0f b6 45 08	 movzx	 eax, BYTE PTR _bytFrameType$[ebp]
  00813	83 e0 01	 and	 eax, 1
  00816	8b 4d 0c	 mov	 ecx, DWORD PTR _blnOdd$[ebp]
  00819	89 01		 mov	 DWORD PTR [ecx], eax

; 916  : 		*intNumCar = 4;

  0081b	8b 45 10	 mov	 eax, DWORD PTR _intNumCar$[ebp]
  0081e	c7 00 04 00 00
	00		 mov	 DWORD PTR [eax], 4

; 917  : 		*intDataLen = 120;

  00824	8b 45 1c	 mov	 eax, DWORD PTR _intDataLen$[ebp]
  00827	c7 00 78 00 00
	00		 mov	 DWORD PTR [eax], 120	; 00000078H

; 918  : 		*intRSLen = 40;

  0082d	8b 45 20	 mov	 eax, DWORD PTR _intRSLen$[ebp]
  00830	c7 00 28 00 00
	00		 mov	 DWORD PTR [eax], 40	; 00000028H

; 919  : 		strcpy(strMod, "4PSK");

  00836	68 00 00 00 00	 push	 OFFSET ??_C@_04NLAGBPCB@4PSK?$AA@
  0083b	8b 45 14	 mov	 eax, DWORD PTR _strMod$[ebp]
  0083e	50		 push	 eax
  0083f	e8 00 00 00 00	 call	 _strcpy
  00844	83 c4 08	 add	 esp, 8

; 920  : 		*intBaud = 167;

  00847	8b 45 18	 mov	 eax, DWORD PTR _intBaud$[ebp]
  0084a	c7 00 a7 00 00
	00		 mov	 DWORD PTR [eax], 167	; 000000a7H

; 921  : 		*bytQualThres = 50;

  00850	8b 45 24	 mov	 eax, DWORD PTR _bytQualThres$[ebp]
  00853	c6 00 32	 mov	 BYTE PTR [eax], 50	; 00000032H

; 922  : 		break;

  00856	e9 12 02 00 00	 jmp	 $LN39@FrameInfo
$LN12@FrameInfo:

; 923  : 
; 924  : 	case 0x66:
; 925  : 	case 0x67:
; 926  : 
; 927  : 		*blnOdd = bytFrameType & 1;

  0085b	0f b6 45 08	 movzx	 eax, BYTE PTR _bytFrameType$[ebp]
  0085f	83 e0 01	 and	 eax, 1
  00862	8b 4d 0c	 mov	 ecx, DWORD PTR _blnOdd$[ebp]
  00865	89 01		 mov	 DWORD PTR [ecx], eax

; 928  : 		*intNumCar = 4;

  00867	8b 45 10	 mov	 eax, DWORD PTR _intNumCar$[ebp]
  0086a	c7 00 04 00 00
	00		 mov	 DWORD PTR [eax], 4

; 929  : 		*intDataLen = 159;

  00870	8b 45 1c	 mov	 eax, DWORD PTR _intDataLen$[ebp]
  00873	c7 00 9f 00 00
	00		 mov	 DWORD PTR [eax], 159	; 0000009fH

; 930  : 		*intRSLen = 60;

  00879	8b 45 20	 mov	 eax, DWORD PTR _intRSLen$[ebp]
  0087c	c7 00 3c 00 00
	00		 mov	 DWORD PTR [eax], 60	; 0000003cH

; 931  : 		strcpy(strMod, "8PSK");

  00882	68 00 00 00 00	 push	 OFFSET ??_C@_04BOPGPCCA@8PSK?$AA@
  00887	8b 45 14	 mov	 eax, DWORD PTR _strMod$[ebp]
  0088a	50		 push	 eax
  0088b	e8 00 00 00 00	 call	 _strcpy
  00890	83 c4 08	 add	 esp, 8

; 932  : 		*intBaud = 167;

  00893	8b 45 18	 mov	 eax, DWORD PTR _intBaud$[ebp]
  00896	c7 00 a7 00 00
	00		 mov	 DWORD PTR [eax], 167	; 000000a7H

; 933  : 		*bytQualThres = 50;

  0089c	8b 45 24	 mov	 eax, DWORD PTR _bytQualThres$[ebp]
  0089f	c6 00 32	 mov	 BYTE PTR [eax], 50	; 00000032H

; 934  : 		break;

  008a2	e9 c6 01 00 00	 jmp	 $LN39@FrameInfo
$LN11@FrameInfo:

; 935  : 	
; 936  : 	// 100 baud 2 carrier 4FSK
; 937  :      
; 938  : 	case 0x68:
; 939  : 	case 0x69:
; 940  : 
; 941  : 		*blnOdd = bytFrameType & 1;

  008a7	0f b6 45 08	 movzx	 eax, BYTE PTR _bytFrameType$[ebp]
  008ab	83 e0 01	 and	 eax, 1
  008ae	8b 4d 0c	 mov	 ecx, DWORD PTR _blnOdd$[ebp]
  008b1	89 01		 mov	 DWORD PTR [ecx], eax

; 942  : 		*intNumCar = 2;

  008b3	8b 45 10	 mov	 eax, DWORD PTR _intNumCar$[ebp]
  008b6	c7 00 02 00 00
	00		 mov	 DWORD PTR [eax], 2

; 943  : 		*intDataLen = 64;

  008bc	8b 45 1c	 mov	 eax, DWORD PTR _intDataLen$[ebp]
  008bf	c7 00 40 00 00
	00		 mov	 DWORD PTR [eax], 64	; 00000040H

; 944  : 		*intRSLen = 16;

  008c5	8b 45 20	 mov	 eax, DWORD PTR _intRSLen$[ebp]
  008c8	c7 00 10 00 00
	00		 mov	 DWORD PTR [eax], 16	; 00000010H

; 945  : 		strcpy(strMod, "4FSK");

  008ce	68 00 00 00 00	 push	 OFFSET ??_C@_04KOHEBHGC@4FSK?$AA@
  008d3	8b 45 14	 mov	 eax, DWORD PTR _strMod$[ebp]
  008d6	50		 push	 eax
  008d7	e8 00 00 00 00	 call	 _strcpy
  008dc	83 c4 08	 add	 esp, 8

; 946  : 		*intBaud = 100;

  008df	8b 45 18	 mov	 eax, DWORD PTR _intBaud$[ebp]
  008e2	c7 00 64 00 00
	00		 mov	 DWORD PTR [eax], 100	; 00000064H

; 947  : 		*bytQualThres = 50;

  008e8	8b 45 24	 mov	 eax, DWORD PTR _bytQualThres$[ebp]
  008eb	c6 00 32	 mov	 BYTE PTR [eax], 50	; 00000032H

; 948  : 		break;

  008ee	e9 7a 01 00 00	 jmp	 $LN39@FrameInfo
$LN10@FrameInfo:

; 949  : 
; 950  : 	// 8 Carrier Data modes
; 951  : 	//	100 baud
; 952  : 
; 953  : 	case 0x70:
; 954  : 	case 0x71:
; 955  : 
; 956  : 		*blnOdd = bytFrameType & 1;

  008f3	0f b6 45 08	 movzx	 eax, BYTE PTR _bytFrameType$[ebp]
  008f7	83 e0 01	 and	 eax, 1
  008fa	8b 4d 0c	 mov	 ecx, DWORD PTR _blnOdd$[ebp]
  008fd	89 01		 mov	 DWORD PTR [ecx], eax

; 957  : 		*intNumCar = 8;

  008ff	8b 45 10	 mov	 eax, DWORD PTR _intNumCar$[ebp]
  00902	c7 00 08 00 00
	00		 mov	 DWORD PTR [eax], 8

; 958  : 		*intDataLen = 64;

  00908	8b 45 1c	 mov	 eax, DWORD PTR _intDataLen$[ebp]
  0090b	c7 00 40 00 00
	00		 mov	 DWORD PTR [eax], 64	; 00000040H

; 959  : 		*intRSLen = 32;

  00911	8b 45 20	 mov	 eax, DWORD PTR _intRSLen$[ebp]
  00914	c7 00 20 00 00
	00		 mov	 DWORD PTR [eax], 32	; 00000020H

; 960  : 		strcpy(strMod, "4PSK");

  0091a	68 00 00 00 00	 push	 OFFSET ??_C@_04NLAGBPCB@4PSK?$AA@
  0091f	8b 45 14	 mov	 eax, DWORD PTR _strMod$[ebp]
  00922	50		 push	 eax
  00923	e8 00 00 00 00	 call	 _strcpy
  00928	83 c4 08	 add	 esp, 8

; 961  : 		*intBaud = 100;

  0092b	8b 45 18	 mov	 eax, DWORD PTR _intBaud$[ebp]
  0092e	c7 00 64 00 00
	00		 mov	 DWORD PTR [eax], 100	; 00000064H

; 962  : 		*bytQualThres = 50;

  00934	8b 45 24	 mov	 eax, DWORD PTR _bytQualThres$[ebp]
  00937	c6 00 32	 mov	 BYTE PTR [eax], 50	; 00000032H

; 963  : 		break;

  0093a	e9 2e 01 00 00	 jmp	 $LN39@FrameInfo
$LN9@FrameInfo:

; 964  : 
; 965  : 	case 0x72:
; 966  : 	case 0x73:
; 967  : 
; 968  : 		*blnOdd = bytFrameType & 1;

  0093f	0f b6 45 08	 movzx	 eax, BYTE PTR _bytFrameType$[ebp]
  00943	83 e0 01	 and	 eax, 1
  00946	8b 4d 0c	 mov	 ecx, DWORD PTR _blnOdd$[ebp]
  00949	89 01		 mov	 DWORD PTR [ecx], eax

; 969  : 		*intNumCar = 8;

  0094b	8b 45 10	 mov	 eax, DWORD PTR _intNumCar$[ebp]
  0094e	c7 00 08 00 00
	00		 mov	 DWORD PTR [eax], 8

; 970  : 		*intDataLen = 108;

  00954	8b 45 1c	 mov	 eax, DWORD PTR _intDataLen$[ebp]
  00957	c7 00 6c 00 00
	00		 mov	 DWORD PTR [eax], 108	; 0000006cH

; 971  : 		*intRSLen = 36;

  0095d	8b 45 20	 mov	 eax, DWORD PTR _intRSLen$[ebp]
  00960	c7 00 24 00 00
	00		 mov	 DWORD PTR [eax], 36	; 00000024H

; 972  : 		strcpy(strMod, "8PSK");

  00966	68 00 00 00 00	 push	 OFFSET ??_C@_04BOPGPCCA@8PSK?$AA@
  0096b	8b 45 14	 mov	 eax, DWORD PTR _strMod$[ebp]
  0096e	50		 push	 eax
  0096f	e8 00 00 00 00	 call	 _strcpy
  00974	83 c4 08	 add	 esp, 8

; 973  : 		*intBaud = 100;

  00977	8b 45 18	 mov	 eax, DWORD PTR _intBaud$[ebp]
  0097a	c7 00 64 00 00
	00		 mov	 DWORD PTR [eax], 100	; 00000064H

; 974  : 		*bytQualThres = 50;

  00980	8b 45 24	 mov	 eax, DWORD PTR _bytQualThres$[ebp]
  00983	c6 00 32	 mov	 BYTE PTR [eax], 50	; 00000032H

; 975  : 		break;

  00986	e9 e2 00 00 00	 jmp	 $LN39@FrameInfo
$LN8@FrameInfo:

; 976  : 
; 977  : 	// 167 baud
; 978  : 
; 979  : 	case 0x74:
; 980  : 	case 0x75:
; 981  : 
; 982  : 		*blnOdd = bytFrameType & 1;

  0098b	0f b6 45 08	 movzx	 eax, BYTE PTR _bytFrameType$[ebp]
  0098f	83 e0 01	 and	 eax, 1
  00992	8b 4d 0c	 mov	 ecx, DWORD PTR _blnOdd$[ebp]
  00995	89 01		 mov	 DWORD PTR [ecx], eax

; 983  : 		*intNumCar = 8;

  00997	8b 45 10	 mov	 eax, DWORD PTR _intNumCar$[ebp]
  0099a	c7 00 08 00 00
	00		 mov	 DWORD PTR [eax], 8

; 984  : 		*intDataLen = 120;

  009a0	8b 45 1c	 mov	 eax, DWORD PTR _intDataLen$[ebp]
  009a3	c7 00 78 00 00
	00		 mov	 DWORD PTR [eax], 120	; 00000078H

; 985  : 		*intRSLen = 40;

  009a9	8b 45 20	 mov	 eax, DWORD PTR _intRSLen$[ebp]
  009ac	c7 00 28 00 00
	00		 mov	 DWORD PTR [eax], 40	; 00000028H

; 986  : 		strcpy(strMod, "4PSK");

  009b2	68 00 00 00 00	 push	 OFFSET ??_C@_04NLAGBPCB@4PSK?$AA@
  009b7	8b 45 14	 mov	 eax, DWORD PTR _strMod$[ebp]
  009ba	50		 push	 eax
  009bb	e8 00 00 00 00	 call	 _strcpy
  009c0	83 c4 08	 add	 esp, 8

; 987  : 		*intBaud = 167;

  009c3	8b 45 18	 mov	 eax, DWORD PTR _intBaud$[ebp]
  009c6	c7 00 a7 00 00
	00		 mov	 DWORD PTR [eax], 167	; 000000a7H

; 988  : 		*bytQualThres = 50;

  009cc	8b 45 24	 mov	 eax, DWORD PTR _bytQualThres$[ebp]
  009cf	c6 00 32	 mov	 BYTE PTR [eax], 50	; 00000032H

; 989  : 		break;

  009d2	e9 96 00 00 00	 jmp	 $LN39@FrameInfo
$LN7@FrameInfo:

; 990  : 		
; 991  : 	case 0x76:
; 992  : 	case 0x77:
; 993  : 
; 994  : 		*blnOdd = bytFrameType & 1;

  009d7	0f b6 45 08	 movzx	 eax, BYTE PTR _bytFrameType$[ebp]
  009db	83 e0 01	 and	 eax, 1
  009de	8b 4d 0c	 mov	 ecx, DWORD PTR _blnOdd$[ebp]
  009e1	89 01		 mov	 DWORD PTR [ecx], eax

; 995  : 		*intNumCar = 8;

  009e3	8b 45 10	 mov	 eax, DWORD PTR _intNumCar$[ebp]
  009e6	c7 00 08 00 00
	00		 mov	 DWORD PTR [eax], 8

; 996  : 		*intDataLen = 159;

  009ec	8b 45 1c	 mov	 eax, DWORD PTR _intDataLen$[ebp]
  009ef	c7 00 9f 00 00
	00		 mov	 DWORD PTR [eax], 159	; 0000009fH

; 997  : 		*intRSLen = 60;

  009f5	8b 45 20	 mov	 eax, DWORD PTR _intRSLen$[ebp]
  009f8	c7 00 3c 00 00
	00		 mov	 DWORD PTR [eax], 60	; 0000003cH

; 998  : 		strcpy(strMod, "8PSK");

  009fe	68 00 00 00 00	 push	 OFFSET ??_C@_04BOPGPCCA@8PSK?$AA@
  00a03	8b 45 14	 mov	 eax, DWORD PTR _strMod$[ebp]
  00a06	50		 push	 eax
  00a07	e8 00 00 00 00	 call	 _strcpy
  00a0c	83 c4 08	 add	 esp, 8

; 999  : 		*intBaud = 167;

  00a0f	8b 45 18	 mov	 eax, DWORD PTR _intBaud$[ebp]
  00a12	c7 00 a7 00 00
	00		 mov	 DWORD PTR [eax], 167	; 000000a7H

; 1000 : 		*bytQualThres = 50;

  00a18	8b 45 24	 mov	 eax, DWORD PTR _bytQualThres$[ebp]
  00a1b	c6 00 32	 mov	 BYTE PTR [eax], 50	; 00000032H

; 1001 : 		break;

  00a1e	eb 4d		 jmp	 SHORT $LN39@FrameInfo
$LN6@FrameInfo:

; 1002 : 
; 1003 : 	// 100 baud 4 carrier 4FSK
; 1004 :  
; 1005 : 	case 0x78:
; 1006 : 	case 0x79:
; 1007 : 
; 1008 : 		*blnOdd = bytFrameType & 1;

  00a20	0f b6 45 08	 movzx	 eax, BYTE PTR _bytFrameType$[ebp]
  00a24	83 e0 01	 and	 eax, 1
  00a27	8b 4d 0c	 mov	 ecx, DWORD PTR _blnOdd$[ebp]
  00a2a	89 01		 mov	 DWORD PTR [ecx], eax

; 1009 : 		*intNumCar = 4;

  00a2c	8b 45 10	 mov	 eax, DWORD PTR _intNumCar$[ebp]
  00a2f	c7 00 04 00 00
	00		 mov	 DWORD PTR [eax], 4

; 1010 : 		*intDataLen = 64;

  00a35	8b 45 1c	 mov	 eax, DWORD PTR _intDataLen$[ebp]
  00a38	c7 00 40 00 00
	00		 mov	 DWORD PTR [eax], 64	; 00000040H

; 1011 : 		*intRSLen = 16;

  00a3e	8b 45 20	 mov	 eax, DWORD PTR _intRSLen$[ebp]
  00a41	c7 00 10 00 00
	00		 mov	 DWORD PTR [eax], 16	; 00000010H

; 1012 : 		strcpy(strMod, "4FSK");

  00a47	68 00 00 00 00	 push	 OFFSET ??_C@_04KOHEBHGC@4FSK?$AA@
  00a4c	8b 45 14	 mov	 eax, DWORD PTR _strMod$[ebp]
  00a4f	50		 push	 eax
  00a50	e8 00 00 00 00	 call	 _strcpy
  00a55	83 c4 08	 add	 esp, 8

; 1013 : 		*intBaud = 100;

  00a58	8b 45 18	 mov	 eax, DWORD PTR _intBaud$[ebp]
  00a5b	c7 00 64 00 00
	00		 mov	 DWORD PTR [eax], 100	; 00000064H

; 1014 : 		*bytQualThres = 50;

  00a61	8b 45 24	 mov	 eax, DWORD PTR _bytQualThres$[ebp]
  00a64	c6 00 32	 mov	 BYTE PTR [eax], 50	; 00000032H

; 1015 : 		break;

  00a67	eb 04		 jmp	 SHORT $LN39@FrameInfo
$LN5@FrameInfo:

; 1016 : 
; 1017 : 	default:
; 1018 : 		//'Logs.Exception("[PSKDataInfo] No data for frame type= H" & Format(bytFrameType, "x"))
; 1019 :         return FALSE;

  00a69	33 c0		 xor	 eax, eax
  00a6b	eb 60		 jmp	 SHORT $LN43@FrameInfo
$LN39@FrameInfo:

; 1020 : 	}
; 1021 : 	}
; 1022 : 	
; 1023 : 	if (bytFrameType >= 0 && bytFrameType <= 0x1F)

  00a6d	0f b6 45 08	 movzx	 eax, BYTE PTR _bytFrameType$[ebp]
  00a71	85 c0		 test	 eax, eax
  00a73	7c 1c		 jl	 SHORT $LN4@FrameInfo
  00a75	0f b6 45 08	 movzx	 eax, BYTE PTR _bytFrameType$[ebp]
  00a79	83 f8 1f	 cmp	 eax, 31			; 0000001fH
  00a7c	7f 13		 jg	 SHORT $LN4@FrameInfo

; 1024 : 		strcpy(strType,strFrameType[0]);

  00a7e	68 00 00 00 00	 push	 OFFSET _strFrameType
  00a83	8b 45 28	 mov	 eax, DWORD PTR _strType$[ebp]
  00a86	50		 push	 eax
  00a87	e8 00 00 00 00	 call	 _strcpy
  00a8c	83 c4 08	 add	 esp, 8

; 1025 : 	else

  00a8f	eb 37		 jmp	 SHORT $LN3@FrameInfo
$LN4@FrameInfo:

; 1026 : 		if (bytFrameType >= 0xE0) 

  00a91	0f b6 45 08	 movzx	 eax, BYTE PTR _bytFrameType$[ebp]
  00a95	3d e0 00 00 00	 cmp	 eax, 224		; 000000e0H
  00a9a	7c 13		 jl	 SHORT $LN2@FrameInfo

; 1027 : 			strcpy(strType,strFrameType[0xE0]);

  00a9c	68 c0 0f 00 00	 push	 OFFSET _strFrameType+4032
  00aa1	8b 45 28	 mov	 eax, DWORD PTR _strType$[ebp]
  00aa4	50		 push	 eax
  00aa5	e8 00 00 00 00	 call	 _strcpy
  00aaa	83 c4 08	 add	 esp, 8

; 1028 :         else

  00aad	eb 19		 jmp	 SHORT $LN3@FrameInfo
$LN2@FrameInfo:

; 1029 : 			strcpy(strType,strFrameType[bytFrameType]);

  00aaf	0f b6 45 08	 movzx	 eax, BYTE PTR _bytFrameType$[ebp]
  00ab3	6b c0 12	 imul	 eax, 18			; 00000012H
  00ab6	05 00 00 00 00	 add	 eax, OFFSET _strFrameType
  00abb	50		 push	 eax
  00abc	8b 4d 28	 mov	 ecx, DWORD PTR _strType$[ebp]
  00abf	51		 push	 ecx
  00ac0	e8 00 00 00 00	 call	 _strcpy
  00ac5	83 c4 08	 add	 esp, 8
$LN3@FrameInfo:

; 1030 : 
; 1031 : 	return TRUE;

  00ac8	b8 01 00 00 00	 mov	 eax, 1
$LN43@FrameInfo:

; 1032 : }

  00acd	5f		 pop	 edi
  00ace	5e		 pop	 esi
  00acf	5b		 pop	 ebx
  00ad0	81 c4 c4 00 00
	00		 add	 esp, 196		; 000000c4H
  00ad6	3b ec		 cmp	 ebp, esp
  00ad8	e8 00 00 00 00	 call	 __RTC_CheckEsp
  00add	8b e5		 mov	 esp, ebp
  00adf	5d		 pop	 ebp
  00ae0	c3		 ret	 0
  00ae1	8d 49 00	 npad	 3
$LN46@FrameInfo:
  00ae4	00 00 00 00	 DD	 $LN36@FrameInfo
  00ae8	00 00 00 00	 DD	 $LN35@FrameInfo
  00aec	00 00 00 00	 DD	 $LN34@FrameInfo
  00af0	00 00 00 00	 DD	 $LN33@FrameInfo
  00af4	00 00 00 00	 DD	 $LN31@FrameInfo
  00af8	00 00 00 00	 DD	 $LN30@FrameInfo
  00afc	00 00 00 00	 DD	 $LN29@FrameInfo
  00b00	00 00 00 00	 DD	 $LN28@FrameInfo
  00b04	00 00 00 00	 DD	 $LN27@FrameInfo
  00b08	00 00 00 00	 DD	 $LN26@FrameInfo
  00b0c	00 00 00 00	 DD	 $LN25@FrameInfo
  00b10	00 00 00 00	 DD	 $LN24@FrameInfo
  00b14	00 00 00 00	 DD	 $LN18@FrameInfo
  00b18	00 00 00 00	 DD	 $LN17@FrameInfo
  00b1c	00 00 00 00	 DD	 $LN16@FrameInfo
  00b20	00 00 00 00	 DD	 $LN23@FrameInfo
  00b24	00 00 00 00	 DD	 $LN22@FrameInfo
  00b28	00 00 00 00	 DD	 $LN21@FrameInfo
  00b2c	00 00 00 00	 DD	 $LN15@FrameInfo
  00b30	00 00 00 00	 DD	 $LN14@FrameInfo
  00b34	00 00 00 00	 DD	 $LN13@FrameInfo
  00b38	00 00 00 00	 DD	 $LN12@FrameInfo
  00b3c	00 00 00 00	 DD	 $LN11@FrameInfo
  00b40	00 00 00 00	 DD	 $LN10@FrameInfo
  00b44	00 00 00 00	 DD	 $LN9@FrameInfo
  00b48	00 00 00 00	 DD	 $LN8@FrameInfo
  00b4c	00 00 00 00	 DD	 $LN7@FrameInfo
  00b50	00 00 00 00	 DD	 $LN6@FrameInfo
  00b54	00 00 00 00	 DD	 $LN20@FrameInfo
  00b58	00 00 00 00	 DD	 $LN19@FrameInfo
  00b5c	00 00 00 00	 DD	 $LN32@FrameInfo
  00b60	00 00 00 00	 DD	 $LN5@FrameInfo
$LN45@FrameInfo:
  00b64	00		 DB	 0
  00b65	00		 DB	 0
  00b66	1f		 DB	 31			; 0000001fH
  00b67	1f		 DB	 31			; 0000001fH
  00b68	1f		 DB	 31			; 0000001fH
  00b69	1f		 DB	 31			; 0000001fH
  00b6a	00		 DB	 0
  00b6b	1f		 DB	 31			; 0000001fH
  00b6c	1f		 DB	 31			; 0000001fH
  00b6d	01		 DB	 1
  00b6e	01		 DB	 1
  00b6f	01		 DB	 1
  00b70	1f		 DB	 31			; 0000001fH
  00b71	02		 DB	 2
  00b72	02		 DB	 2
  00b73	02		 DB	 2
  00b74	02		 DB	 2
  00b75	02		 DB	 2
  00b76	02		 DB	 2
  00b77	02		 DB	 2
  00b78	02		 DB	 2
  00b79	02		 DB	 2
  00b7a	03		 DB	 3
  00b7b	03		 DB	 3
  00b7c	03		 DB	 3
  00b7d	03		 DB	 3
  00b7e	1f		 DB	 31			; 0000001fH
  00b7f	1f		 DB	 31			; 0000001fH
  00b80	1f		 DB	 31			; 0000001fH
  00b81	04		 DB	 4
  00b82	04		 DB	 4
  00b83	05		 DB	 5
  00b84	05		 DB	 5
  00b85	06		 DB	 6
  00b86	06		 DB	 6
  00b87	07		 DB	 7
  00b88	07		 DB	 7
  00b89	08		 DB	 8
  00b8a	08		 DB	 8
  00b8b	09		 DB	 9
  00b8c	09		 DB	 9
  00b8d	0a		 DB	 10			; 0000000aH
  00b8e	0a		 DB	 10			; 0000000aH
  00b8f	0b		 DB	 11			; 0000000bH
  00b90	0b		 DB	 11			; 0000000bH
  00b91	0c		 DB	 12			; 0000000cH
  00b92	0c		 DB	 12			; 0000000cH
  00b93	0d		 DB	 13			; 0000000dH
  00b94	0d		 DB	 13			; 0000000dH
  00b95	0e		 DB	 14			; 0000000eH
  00b96	0e		 DB	 14			; 0000000eH
  00b97	1f		 DB	 31			; 0000001fH
  00b98	1f		 DB	 31			; 0000001fH
  00b99	0f		 DB	 15			; 0000000fH
  00b9a	0f		 DB	 15			; 0000000fH
  00b9b	10		 DB	 16			; 00000010H
  00b9c	10		 DB	 16			; 00000010H
  00b9d	11		 DB	 17			; 00000011H
  00b9e	11		 DB	 17			; 00000011H
  00b9f	1f		 DB	 31			; 0000001fH
  00ba0	1f		 DB	 31			; 0000001fH
  00ba1	12		 DB	 18			; 00000012H
  00ba2	12		 DB	 18			; 00000012H
  00ba3	13		 DB	 19			; 00000013H
  00ba4	13		 DB	 19			; 00000013H
  00ba5	14		 DB	 20			; 00000014H
  00ba6	14		 DB	 20			; 00000014H
  00ba7	15		 DB	 21			; 00000015H
  00ba8	15		 DB	 21			; 00000015H
  00ba9	16		 DB	 22			; 00000016H
  00baa	16		 DB	 22			; 00000016H
  00bab	1f		 DB	 31			; 0000001fH
  00bac	1f		 DB	 31			; 0000001fH
  00bad	1f		 DB	 31			; 0000001fH
  00bae	1f		 DB	 31			; 0000001fH
  00baf	1f		 DB	 31			; 0000001fH
  00bb0	1f		 DB	 31			; 0000001fH
  00bb1	17		 DB	 23			; 00000017H
  00bb2	17		 DB	 23			; 00000017H
  00bb3	18		 DB	 24			; 00000018H
  00bb4	18		 DB	 24			; 00000018H
  00bb5	19		 DB	 25			; 00000019H
  00bb6	19		 DB	 25			; 00000019H
  00bb7	1a		 DB	 26			; 0000001aH
  00bb8	1a		 DB	 26			; 0000001aH
  00bb9	1b		 DB	 27			; 0000001bH
  00bba	1b		 DB	 27			; 0000001bH
  00bbb	1c		 DB	 28			; 0000001cH
  00bbc	1c		 DB	 28			; 0000001cH
  00bbd	1d		 DB	 29			; 0000001dH
  00bbe	1d		 DB	 29			; 0000001dH
  00bbf	1f		 DB	 31			; 0000001fH
  00bc0	1f		 DB	 31			; 0000001fH
  00bc1	1f		 DB	 31			; 0000001fH
  00bc2	1f		 DB	 31			; 0000001fH
  00bc3	1f		 DB	 31			; 0000001fH
  00bc4	1f		 DB	 31			; 0000001fH
  00bc5	1f		 DB	 31			; 0000001fH
  00bc6	1f		 DB	 31			; 0000001fH
  00bc7	1f		 DB	 31			; 0000001fH
  00bc8	1f		 DB	 31			; 0000001fH
  00bc9	1f		 DB	 31			; 0000001fH
  00bca	1f		 DB	 31			; 0000001fH
  00bcb	1f		 DB	 31			; 0000001fH
  00bcc	1f		 DB	 31			; 0000001fH
  00bcd	1f		 DB	 31			; 0000001fH
  00bce	1f		 DB	 31			; 0000001fH
  00bcf	1f		 DB	 31			; 0000001fH
  00bd0	1f		 DB	 31			; 0000001fH
  00bd1	1f		 DB	 31			; 0000001fH
  00bd2	1f		 DB	 31			; 0000001fH
  00bd3	1f		 DB	 31			; 0000001fH
  00bd4	1f		 DB	 31			; 0000001fH
  00bd5	1f		 DB	 31			; 0000001fH
  00bd6	1f		 DB	 31			; 0000001fH
  00bd7	1f		 DB	 31			; 0000001fH
  00bd8	1f		 DB	 31			; 0000001fH
  00bd9	1f		 DB	 31			; 0000001fH
  00bda	1f		 DB	 31			; 0000001fH
  00bdb	1f		 DB	 31			; 0000001fH
  00bdc	1f		 DB	 31			; 0000001fH
  00bdd	1f		 DB	 31			; 0000001fH
  00bde	1f		 DB	 31			; 0000001fH
  00bdf	1f		 DB	 31			; 0000001fH
  00be0	1f		 DB	 31			; 0000001fH
  00be1	1f		 DB	 31			; 0000001fH
  00be2	1f		 DB	 31			; 0000001fH
  00be3	1f		 DB	 31			; 0000001fH
  00be4	1f		 DB	 31			; 0000001fH
  00be5	1f		 DB	 31			; 0000001fH
  00be6	1f		 DB	 31			; 0000001fH
  00be7	1f		 DB	 31			; 0000001fH
  00be8	1f		 DB	 31			; 0000001fH
  00be9	1f		 DB	 31			; 0000001fH
  00bea	1f		 DB	 31			; 0000001fH
  00beb	1f		 DB	 31			; 0000001fH
  00bec	1f		 DB	 31			; 0000001fH
  00bed	1f		 DB	 31			; 0000001fH
  00bee	1f		 DB	 31			; 0000001fH
  00bef	1f		 DB	 31			; 0000001fH
  00bf0	1f		 DB	 31			; 0000001fH
  00bf1	1f		 DB	 31			; 0000001fH
  00bf2	1f		 DB	 31			; 0000001fH
  00bf3	1f		 DB	 31			; 0000001fH
  00bf4	1f		 DB	 31			; 0000001fH
  00bf5	1f		 DB	 31			; 0000001fH
  00bf6	1f		 DB	 31			; 0000001fH
  00bf7	1f		 DB	 31			; 0000001fH
  00bf8	1f		 DB	 31			; 0000001fH
  00bf9	1f		 DB	 31			; 0000001fH
  00bfa	1f		 DB	 31			; 0000001fH
  00bfb	1f		 DB	 31			; 0000001fH
  00bfc	1f		 DB	 31			; 0000001fH
  00bfd	1f		 DB	 31			; 0000001fH
  00bfe	1f		 DB	 31			; 0000001fH
  00bff	1f		 DB	 31			; 0000001fH
  00c00	1f		 DB	 31			; 0000001fH
  00c01	1f		 DB	 31			; 0000001fH
  00c02	1f		 DB	 31			; 0000001fH
  00c03	1f		 DB	 31			; 0000001fH
  00c04	1f		 DB	 31			; 0000001fH
  00c05	1f		 DB	 31			; 0000001fH
  00c06	1f		 DB	 31			; 0000001fH
  00c07	1f		 DB	 31			; 0000001fH
  00c08	1f		 DB	 31			; 0000001fH
  00c09	1f		 DB	 31			; 0000001fH
  00c0a	1f		 DB	 31			; 0000001fH
  00c0b	1f		 DB	 31			; 0000001fH
  00c0c	1f		 DB	 31			; 0000001fH
  00c0d	1f		 DB	 31			; 0000001fH
  00c0e	1f		 DB	 31			; 0000001fH
  00c0f	1f		 DB	 31			; 0000001fH
  00c10	1f		 DB	 31			; 0000001fH
  00c11	1f		 DB	 31			; 0000001fH
  00c12	1f		 DB	 31			; 0000001fH
  00c13	1f		 DB	 31			; 0000001fH
  00c14	1f		 DB	 31			; 0000001fH
  00c15	1f		 DB	 31			; 0000001fH
  00c16	1f		 DB	 31			; 0000001fH
  00c17	1f		 DB	 31			; 0000001fH
  00c18	1f		 DB	 31			; 0000001fH
  00c19	1f		 DB	 31			; 0000001fH
  00c1a	1f		 DB	 31			; 0000001fH
  00c1b	1f		 DB	 31			; 0000001fH
  00c1c	1f		 DB	 31			; 0000001fH
  00c1d	1f		 DB	 31			; 0000001fH
  00c1e	1f		 DB	 31			; 0000001fH
  00c1f	1f		 DB	 31			; 0000001fH
  00c20	1f		 DB	 31			; 0000001fH
  00c21	1e		 DB	 30			; 0000001eH
_FrameInfo ENDP
_TEXT	ENDS
PUBLIC	__$ArrayPad$
PUBLIC	_RSEncode
EXTRN	_encode_data:PROC
EXTRN	_memcpy:PROC
EXTRN	_memset:PROC
EXTRN	_initialize_ecc:PROC
; Function compile flags: /Odtp /RTCsu /ZI
;	COMDAT _RSEncode
_TEXT	SEGMENT
_PadLength$ = -288					; size = 4
_Length$ = -276						; size = 4
_Padded$ = -264						; size = 256
__$ArrayPad$ = -4					; size = 4
_bytToRS$ = 8						; size = 4
_RSBytes$ = 12						; size = 4
_DataLen$ = 16						; size = 4
_RSLen$ = 20						; size = 4
_RSEncode PROC						; COMDAT

; 1039 : {

  00000	55		 push	 ebp
  00001	8b ec		 mov	 ebp, esp
  00003	81 ec e4 01 00
	00		 sub	 esp, 484		; 000001e4H
  00009	53		 push	 ebx
  0000a	56		 push	 esi
  0000b	57		 push	 edi
  0000c	8d bd 1c fe ff
	ff		 lea	 edi, DWORD PTR [ebp-484]
  00012	b9 79 00 00 00	 mov	 ecx, 121		; 00000079H
  00017	b8 cc cc cc cc	 mov	 eax, -858993460		; ccccccccH
  0001c	f3 ab		 rep stosd
  0001e	a1 00 00 00 00	 mov	 eax, DWORD PTR ___security_cookie
  00023	33 c5		 xor	 eax, ebp
  00025	89 45 fc	 mov	 DWORD PTR __$ArrayPad$[ebp], eax

; 1040 : 	// This just returns the Parity Bytes. I don't see the point
; 1041 : 	// in copying the message about
; 1042 : 
; 1043 : 	unsigned char Padded[256];		// The padded Data
; 1044 : 
; 1045 : 	int Length = DataLen + RSLen;	// Final Length of packet

  00028	8b 45 10	 mov	 eax, DWORD PTR _DataLen$[ebp]
  0002b	03 45 14	 add	 eax, DWORD PTR _RSLen$[ebp]
  0002e	89 85 ec fe ff
	ff		 mov	 DWORD PTR _Length$[ebp], eax

; 1046 : 	int PadLength = 255 - Length;	// Padding bytes needed for shortened RS codes

  00034	b8 ff 00 00 00	 mov	 eax, 255		; 000000ffH
  00039	2b 85 ec fe ff
	ff		 sub	 eax, DWORD PTR _Length$[ebp]
  0003f	89 85 e0 fe ff
	ff		 mov	 DWORD PTR _PadLength$[ebp], eax

; 1047 : 
; 1048 : 	//	subroutine to do the RS encode. For full length and shortend RS codes up to 8 bit symbols (mm = 8)
; 1049 : 
; 1050 : 	if (NPAR != RSLen)		// Changed RS Len, so recalc constants;

  00045	a1 00 00 00 00	 mov	 eax, DWORD PTR _NPAR
  0004a	3b 45 14	 cmp	 eax, DWORD PTR _RSLen$[ebp]
  0004d	74 1c		 je	 SHORT $LN1@RSEncode

; 1051 : 	{
; 1052 : 		NPAR = RSLen;

  0004f	8b 45 14	 mov	 eax, DWORD PTR _RSLen$[ebp]
  00052	a3 00 00 00 00	 mov	 DWORD PTR _NPAR, eax

; 1053 : 		MaxErrors = NPAR / 2;

  00057	a1 00 00 00 00	 mov	 eax, DWORD PTR _NPAR
  0005c	99		 cdq
  0005d	2b c2		 sub	 eax, edx
  0005f	d1 f8		 sar	 eax, 1
  00061	a3 00 00 00 00	 mov	 DWORD PTR _MaxErrors, eax

; 1054 : 		initialize_ecc();

  00066	e8 00 00 00 00	 call	 _initialize_ecc
$LN1@RSEncode:

; 1055 : 	}
; 1056 : 
; 1057 : 	// Copy the supplied data to end of data array.
; 1058 : 
; 1059 : 	memset(Padded, 0, PadLength);

  0006b	8b 85 e0 fe ff
	ff		 mov	 eax, DWORD PTR _PadLength$[ebp]
  00071	50		 push	 eax
  00072	6a 00		 push	 0
  00074	8d 8d f8 fe ff
	ff		 lea	 ecx, DWORD PTR _Padded$[ebp]
  0007a	51		 push	 ecx
  0007b	e8 00 00 00 00	 call	 _memset
  00080	83 c4 0c	 add	 esp, 12			; 0000000cH

; 1060 : 	memcpy(&Padded[PadLength], bytToRS, DataLen); 

  00083	8b 45 10	 mov	 eax, DWORD PTR _DataLen$[ebp]
  00086	50		 push	 eax
  00087	8b 4d 08	 mov	 ecx, DWORD PTR _bytToRS$[ebp]
  0008a	51		 push	 ecx
  0008b	8b 95 e0 fe ff
	ff		 mov	 edx, DWORD PTR _PadLength$[ebp]
  00091	8d 84 15 f8 fe
	ff ff		 lea	 eax, DWORD PTR _Padded$[ebp+edx]
  00098	50		 push	 eax
  00099	e8 00 00 00 00	 call	 _memcpy
  0009e	83 c4 0c	 add	 esp, 12			; 0000000cH

; 1061 : 
; 1062 : 	encode_data(Padded, 255-RSLen, RSBytes);

  000a1	8b 45 0c	 mov	 eax, DWORD PTR _RSBytes$[ebp]
  000a4	50		 push	 eax
  000a5	b9 ff 00 00 00	 mov	 ecx, 255		; 000000ffH
  000aa	2b 4d 14	 sub	 ecx, DWORD PTR _RSLen$[ebp]
  000ad	51		 push	 ecx
  000ae	8d 95 f8 fe ff
	ff		 lea	 edx, DWORD PTR _Padded$[ebp]
  000b4	52		 push	 edx
  000b5	e8 00 00 00 00	 call	 _encode_data
  000ba	83 c4 0c	 add	 esp, 12			; 0000000cH

; 1063 : 
; 1064 : 	return RSLen;

  000bd	8b 45 14	 mov	 eax, DWORD PTR _RSLen$[ebp]

; 1065 : }

  000c0	52		 push	 edx
  000c1	8b cd		 mov	 ecx, ebp
  000c3	50		 push	 eax
  000c4	8d 15 00 00 00
	00		 lea	 edx, DWORD PTR $LN6@RSEncode
  000ca	e8 00 00 00 00	 call	 @_RTC_CheckStackVars@8
  000cf	58		 pop	 eax
  000d0	5a		 pop	 edx
  000d1	5f		 pop	 edi
  000d2	5e		 pop	 esi
  000d3	5b		 pop	 ebx
  000d4	8b 4d fc	 mov	 ecx, DWORD PTR __$ArrayPad$[ebp]
  000d7	33 cd		 xor	 ecx, ebp
  000d9	e8 00 00 00 00	 call	 @__security_check_cookie@4
  000de	81 c4 e4 01 00
	00		 add	 esp, 484		; 000001e4H
  000e4	3b ec		 cmp	 ebp, esp
  000e6	e8 00 00 00 00	 call	 __RTC_CheckEsp
  000eb	8b e5		 mov	 esp, ebp
  000ed	5d		 pop	 ebp
  000ee	c3		 ret	 0
  000ef	90		 npad	 1
$LN6@RSEncode:
  000f0	01 00 00 00	 DD	 1
  000f4	00 00 00 00	 DD	 $LN5@RSEncode
$LN5@RSEncode:
  000f8	f8 fe ff ff	 DD	 -264			; fffffef8H
  000fc	00 01 00 00	 DD	 256			; 00000100H
  00100	00 00 00 00	 DD	 $LN4@RSEncode
$LN4@RSEncode:
  00104	50		 DB	 80			; 00000050H
  00105	61		 DB	 97			; 00000061H
  00106	64		 DB	 100			; 00000064H
  00107	64		 DB	 100			; 00000064H
  00108	65		 DB	 101			; 00000065H
  00109	64		 DB	 100			; 00000064H
  0010a	00		 DB	 0
_RSEncode ENDP
_TEXT	ENDS
PUBLIC	__$ArrayPad$
EXTRN	_correct_errors_erasures:PROC
EXTRN	_check_syndrome:PROC
EXTRN	_decode_data:PROC
; Function compile flags: /Odtp /RTCsu /ZI
;	COMDAT _RSDecode
_TEXT	SEGMENT
_PadLength$ = -324					; size = 4
_DataLen$ = -312					; size = 4
_ptr1$ = -300						; size = 4
_ptr2$ = -288						; size = 4
_i$ = -276						; size = 4
_intTemp$ = -264					; size = 256
__$ArrayPad$ = -4					; size = 4
_bytRcv$ = 8						; size = 4
_Length$ = 12						; size = 4
_CheckLen$ = 16						; size = 4
_blnRSOK$ = 20						; size = 4
_RSDecode PROC						; COMDAT

; 1080 : {	

  00000	55		 push	 ebp
  00001	8b ec		 mov	 ebp, esp
  00003	81 ec 08 02 00
	00		 sub	 esp, 520		; 00000208H
  00009	53		 push	 ebx
  0000a	56		 push	 esi
  0000b	57		 push	 edi
  0000c	8d bd f8 fd ff
	ff		 lea	 edi, DWORD PTR [ebp-520]
  00012	b9 82 00 00 00	 mov	 ecx, 130		; 00000082H
  00017	b8 cc cc cc cc	 mov	 eax, -858993460		; ccccccccH
  0001c	f3 ab		 rep stosd
  0001e	a1 00 00 00 00	 mov	 eax, DWORD PTR ___security_cookie
  00023	33 c5		 xor	 eax, ebp
  00025	89 45 fc	 mov	 DWORD PTR __$ArrayPad$[ebp], eax

; 1081 : #ifdef NEWRS
; 1082 : 
; 1083 : 	// Using a modified version of Henry Minsky's code
; 1084 : 	
; 1085 : 	//Copyright Henry Minsky (hqm@alum.mit.edu) 1991-2009
; 1086 : 
; 1087 : 	// Rick's Implementation processes the byte array in reverse. and also 
; 1088 : 	//	has the check bytes in the opposite order. I've modified the encoder
; 1089 : 	//	to allow for this, but so far haven't found a way to mske the decoder
; 1090 : 	//	work, so I have to reverse the data and checksum to decode G8BPQ Nov 2015
; 1091 : 
; 1092 : 	//	returns TRUE if was ok or correction succeeded, FALSE if correction impossible
; 1093 : 
; 1094 : 	UCHAR intTemp[256];				// WOrk Area to pass to Decoder		
; 1095 : 	int i;
; 1096 : 	UCHAR * ptr2 = intTemp;

  00028	8d 85 f8 fe ff
	ff		 lea	 eax, DWORD PTR _intTemp$[ebp]
  0002e	89 85 e0 fe ff
	ff		 mov	 DWORD PTR _ptr2$[ebp], eax

; 1097 : 	UCHAR * ptr1 = &bytRcv[Length - CheckLen -1]; // Last Byte of Data

  00034	8b 45 0c	 mov	 eax, DWORD PTR _Length$[ebp]
  00037	2b 45 10	 sub	 eax, DWORD PTR _CheckLen$[ebp]
  0003a	8b 4d 08	 mov	 ecx, DWORD PTR _bytRcv$[ebp]
  0003d	8d 54 01 ff	 lea	 edx, DWORD PTR [ecx+eax-1]
  00041	89 95 d4 fe ff
	ff		 mov	 DWORD PTR _ptr1$[ebp], edx

; 1098 : 
; 1099 : 	int DataLen = Length - CheckLen;

  00047	8b 45 0c	 mov	 eax, DWORD PTR _Length$[ebp]
  0004a	2b 45 10	 sub	 eax, DWORD PTR _CheckLen$[ebp]
  0004d	89 85 c8 fe ff
	ff		 mov	 DWORD PTR _DataLen$[ebp], eax

; 1100 : 	int PadLength = 255 - Length;		// Padding bytes needed for shortened RS codes

  00053	b8 ff 00 00 00	 mov	 eax, 255		; 000000ffH
  00058	2b 45 0c	 sub	 eax, DWORD PTR _Length$[ebp]
  0005b	89 85 bc fe ff
	ff		 mov	 DWORD PTR _PadLength$[ebp], eax

; 1101 : 
; 1102 : 	*blnRSOK = FALSE;

  00061	8b 45 14	 mov	 eax, DWORD PTR _blnRSOK$[ebp]
  00064	c7 00 00 00 00
	00		 mov	 DWORD PTR [eax], 0

; 1103 : 
; 1104 : 	if (Length > 255 || Length < (1 + CheckLen))		//Too long or too short 

  0006a	81 7d 0c ff 00
	00 00		 cmp	 DWORD PTR _Length$[ebp], 255 ; 000000ffH
  00071	7f 0b		 jg	 SHORT $LN16@RSDecode
  00073	8b 45 10	 mov	 eax, DWORD PTR _CheckLen$[ebp]
  00076	83 c0 01	 add	 eax, 1
  00079	39 45 0c	 cmp	 DWORD PTR _Length$[ebp], eax
  0007c	7d 07		 jge	 SHORT $LN17@RSDecode
$LN16@RSDecode:

; 1105 : 		return FALSE;

  0007e	33 c0		 xor	 eax, eax
  00080	e9 3b 02 00 00	 jmp	 $LN18@RSDecode
$LN17@RSDecode:

; 1106 : 
; 1107 : 	if (NPAR != CheckLen)		// Changed RS Len, so recalc constants;

  00085	a1 00 00 00 00	 mov	 eax, DWORD PTR _NPAR
  0008a	3b 45 10	 cmp	 eax, DWORD PTR _CheckLen$[ebp]
  0008d	74 1c		 je	 SHORT $LN15@RSDecode

; 1108 : 	{
; 1109 : 		NPAR = CheckLen;

  0008f	8b 45 10	 mov	 eax, DWORD PTR _CheckLen$[ebp]
  00092	a3 00 00 00 00	 mov	 DWORD PTR _NPAR, eax

; 1110 : 		MaxErrors = NPAR /2;

  00097	a1 00 00 00 00	 mov	 eax, DWORD PTR _NPAR
  0009c	99		 cdq
  0009d	2b c2		 sub	 eax, edx
  0009f	d1 f8		 sar	 eax, 1
  000a1	a3 00 00 00 00	 mov	 DWORD PTR _MaxErrors, eax

; 1111 : 
; 1112 : 		initialize_ecc();

  000a6	e8 00 00 00 00	 call	 _initialize_ecc
$LN15@RSDecode:

; 1113 : 	}
; 1114 : 
; 1115 : 
; 1116 : 	//	We reverse the data while zero padding it to speed things up
; 1117 : 
; 1118 : 	//	We Need (Data Reversed) (Zero Padding) (Checkbytes Reversed)
; 1119 : 
; 1120 : 	// Reverse Data
; 1121 : 
; 1122 : 	for (i = 0; i < DataLen; i++)

  000ab	c7 85 ec fe ff
	ff 00 00 00 00	 mov	 DWORD PTR _i$[ebp], 0
  000b5	eb 0f		 jmp	 SHORT $LN14@RSDecode
$LN13@RSDecode:
  000b7	8b 85 ec fe ff
	ff		 mov	 eax, DWORD PTR _i$[ebp]
  000bd	83 c0 01	 add	 eax, 1
  000c0	89 85 ec fe ff
	ff		 mov	 DWORD PTR _i$[ebp], eax
$LN14@RSDecode:
  000c6	8b 85 ec fe ff
	ff		 mov	 eax, DWORD PTR _i$[ebp]
  000cc	3b 85 c8 fe ff
	ff		 cmp	 eax, DWORD PTR _DataLen$[ebp]
  000d2	7d 30		 jge	 SHORT $LN12@RSDecode

; 1123 : 	{
; 1124 : 	  *(ptr2++) = *(ptr1--);

  000d4	8b 85 e0 fe ff
	ff		 mov	 eax, DWORD PTR _ptr2$[ebp]
  000da	8b 8d d4 fe ff
	ff		 mov	 ecx, DWORD PTR _ptr1$[ebp]
  000e0	8a 11		 mov	 dl, BYTE PTR [ecx]
  000e2	88 10		 mov	 BYTE PTR [eax], dl
  000e4	8b 85 e0 fe ff
	ff		 mov	 eax, DWORD PTR _ptr2$[ebp]
  000ea	83 c0 01	 add	 eax, 1
  000ed	89 85 e0 fe ff
	ff		 mov	 DWORD PTR _ptr2$[ebp], eax
  000f3	8b 8d d4 fe ff
	ff		 mov	 ecx, DWORD PTR _ptr1$[ebp]
  000f9	83 e9 01	 sub	 ecx, 1
  000fc	89 8d d4 fe ff
	ff		 mov	 DWORD PTR _ptr1$[ebp], ecx

; 1125 : 	}

  00102	eb b3		 jmp	 SHORT $LN13@RSDecode
$LN12@RSDecode:

; 1126 : 
; 1127 : 	//	Clear padding
; 1128 : 
; 1129 : 	memset(ptr2, 0, PadLength);	

  00104	8b 85 bc fe ff
	ff		 mov	 eax, DWORD PTR _PadLength$[ebp]
  0010a	50		 push	 eax
  0010b	6a 00		 push	 0
  0010d	8b 8d e0 fe ff
	ff		 mov	 ecx, DWORD PTR _ptr2$[ebp]
  00113	51		 push	 ecx
  00114	e8 00 00 00 00	 call	 _memset
  00119	83 c4 0c	 add	 esp, 12			; 0000000cH

; 1130 : 
; 1131 : 	ptr2+= PadLength;

  0011c	8b 85 e0 fe ff
	ff		 mov	 eax, DWORD PTR _ptr2$[ebp]
  00122	03 85 bc fe ff
	ff		 add	 eax, DWORD PTR _PadLength$[ebp]
  00128	89 85 e0 fe ff
	ff		 mov	 DWORD PTR _ptr2$[ebp], eax

; 1132 : 	
; 1133 : 	// Error Bits
; 1134 : 
; 1135 : 	ptr1 = &bytRcv[Length - 1];			// End of check bytes

  0012e	8b 45 0c	 mov	 eax, DWORD PTR _Length$[ebp]
  00131	8b 4d 08	 mov	 ecx, DWORD PTR _bytRcv$[ebp]
  00134	8d 54 01 ff	 lea	 edx, DWORD PTR [ecx+eax-1]
  00138	89 95 d4 fe ff
	ff		 mov	 DWORD PTR _ptr1$[ebp], edx

; 1136 : 
; 1137 : 	for (i = 0; i < CheckLen; i++)

  0013e	c7 85 ec fe ff
	ff 00 00 00 00	 mov	 DWORD PTR _i$[ebp], 0
  00148	eb 0f		 jmp	 SHORT $LN11@RSDecode
$LN10@RSDecode:
  0014a	8b 85 ec fe ff
	ff		 mov	 eax, DWORD PTR _i$[ebp]
  00150	83 c0 01	 add	 eax, 1
  00153	89 85 ec fe ff
	ff		 mov	 DWORD PTR _i$[ebp], eax
$LN11@RSDecode:
  00159	8b 85 ec fe ff
	ff		 mov	 eax, DWORD PTR _i$[ebp]
  0015f	3b 45 10	 cmp	 eax, DWORD PTR _CheckLen$[ebp]
  00162	7d 30		 jge	 SHORT $LN9@RSDecode

; 1138 : 	{
; 1139 : 	  *(ptr2++) = *(ptr1--);

  00164	8b 85 e0 fe ff
	ff		 mov	 eax, DWORD PTR _ptr2$[ebp]
  0016a	8b 8d d4 fe ff
	ff		 mov	 ecx, DWORD PTR _ptr1$[ebp]
  00170	8a 11		 mov	 dl, BYTE PTR [ecx]
  00172	88 10		 mov	 BYTE PTR [eax], dl
  00174	8b 85 e0 fe ff
	ff		 mov	 eax, DWORD PTR _ptr2$[ebp]
  0017a	83 c0 01	 add	 eax, 1
  0017d	89 85 e0 fe ff
	ff		 mov	 DWORD PTR _ptr2$[ebp], eax
  00183	8b 8d d4 fe ff
	ff		 mov	 ecx, DWORD PTR _ptr1$[ebp]
  00189	83 e9 01	 sub	 ecx, 1
  0018c	89 8d d4 fe ff
	ff		 mov	 DWORD PTR _ptr1$[ebp], ecx

; 1140 : 	}

  00192	eb b6		 jmp	 SHORT $LN10@RSDecode
$LN9@RSDecode:

; 1141 : 	
; 1142 : 	decode_data(intTemp, 255);

  00194	68 ff 00 00 00	 push	 255			; 000000ffH
  00199	8d 85 f8 fe ff
	ff		 lea	 eax, DWORD PTR _intTemp$[ebp]
  0019f	50		 push	 eax
  001a0	e8 00 00 00 00	 call	 _decode_data
  001a5	83 c4 08	 add	 esp, 8

; 1143 : 
; 1144 : 	// check if syndrome is all zeros 
; 1145 : 
; 1146 : 	if (check_syndrome() == 0)

  001a8	e8 00 00 00 00	 call	 _check_syndrome
  001ad	85 c0		 test	 eax, eax
  001af	75 13		 jne	 SHORT $LN8@RSDecode

; 1147 : 	{
; 1148 : 		// RS ok, so no need to correct
; 1149 : 
; 1150 : 		*blnRSOK = TRUE;

  001b1	8b 45 14	 mov	 eax, DWORD PTR _blnRSOK$[ebp]
  001b4	c7 00 01 00 00
	00		 mov	 DWORD PTR [eax], 1

; 1151 : 		return TRUE;		// No Need to Correct

  001ba	b8 01 00 00 00	 mov	 eax, 1
  001bf	e9 fc 00 00 00	 jmp	 $LN18@RSDecode
$LN8@RSDecode:

; 1152 : 	}
; 1153 : 
; 1154 :     if (correct_errors_erasures (intTemp, 255, 0, 0) == 0) // Dont support erasures at the momnet

  001c4	6a 00		 push	 0
  001c6	6a 00		 push	 0
  001c8	68 ff 00 00 00	 push	 255			; 000000ffH
  001cd	8d 85 f8 fe ff
	ff		 lea	 eax, DWORD PTR _intTemp$[ebp]
  001d3	50		 push	 eax
  001d4	e8 00 00 00 00	 call	 _correct_errors_erasures
  001d9	83 c4 10	 add	 esp, 16			; 00000010H
  001dc	85 c0		 test	 eax, eax
  001de	75 07		 jne	 SHORT $LN7@RSDecode

; 1155 : 
; 1156 : 		// Uncorrectable
; 1157 : 
; 1158 : 		return FALSE;

  001e0	33 c0		 xor	 eax, eax
  001e2	e9 d9 00 00 00	 jmp	 $LN18@RSDecode
$LN7@RSDecode:

; 1159 : 
; 1160 : 	// Data has been corrected, so need to reverse again
; 1161 : 
; 1162 : 	ptr1 = &intTemp[DataLen - 1];

  001e7	8b 85 c8 fe ff
	ff		 mov	 eax, DWORD PTR _DataLen$[ebp]
  001ed	8d 8c 05 f7 fe
	ff ff		 lea	 ecx, DWORD PTR _intTemp$[ebp+eax-1]
  001f4	89 8d d4 fe ff
	ff		 mov	 DWORD PTR _ptr1$[ebp], ecx

; 1163 : 	ptr2 = bytRcv; // Last Byte of Data

  001fa	8b 45 08	 mov	 eax, DWORD PTR _bytRcv$[ebp]
  001fd	89 85 e0 fe ff
	ff		 mov	 DWORD PTR _ptr2$[ebp], eax

; 1164 : 
; 1165 : 	for (i = 0; i < DataLen; i++)

  00203	c7 85 ec fe ff
	ff 00 00 00 00	 mov	 DWORD PTR _i$[ebp], 0
  0020d	eb 0f		 jmp	 SHORT $LN6@RSDecode
$LN5@RSDecode:
  0020f	8b 85 ec fe ff
	ff		 mov	 eax, DWORD PTR _i$[ebp]
  00215	83 c0 01	 add	 eax, 1
  00218	89 85 ec fe ff
	ff		 mov	 DWORD PTR _i$[ebp], eax
$LN6@RSDecode:
  0021e	8b 85 ec fe ff
	ff		 mov	 eax, DWORD PTR _i$[ebp]
  00224	3b 85 c8 fe ff
	ff		 cmp	 eax, DWORD PTR _DataLen$[ebp]
  0022a	7d 30		 jge	 SHORT $LN4@RSDecode

; 1166 : 	{
; 1167 : 	  *(ptr2++) = *(ptr1--);

  0022c	8b 85 e0 fe ff
	ff		 mov	 eax, DWORD PTR _ptr2$[ebp]
  00232	8b 8d d4 fe ff
	ff		 mov	 ecx, DWORD PTR _ptr1$[ebp]
  00238	8a 11		 mov	 dl, BYTE PTR [ecx]
  0023a	88 10		 mov	 BYTE PTR [eax], dl
  0023c	8b 85 e0 fe ff
	ff		 mov	 eax, DWORD PTR _ptr2$[ebp]
  00242	83 c0 01	 add	 eax, 1
  00245	89 85 e0 fe ff
	ff		 mov	 DWORD PTR _ptr2$[ebp], eax
  0024b	8b 8d d4 fe ff
	ff		 mov	 ecx, DWORD PTR _ptr1$[ebp]
  00251	83 e9 01	 sub	 ecx, 1
  00254	89 8d d4 fe ff
	ff		 mov	 DWORD PTR _ptr1$[ebp], ecx

; 1168 : 	}

  0025a	eb b3		 jmp	 SHORT $LN5@RSDecode
$LN4@RSDecode:

; 1169 : 
; 1170 : 	// ?? Do we need to return the check bytes ??
; 1171 : 
; 1172 : 	// Yes, so we can redo RS Check on supposedly connected frame
; 1173 : 
; 1174 : 	ptr1 = &intTemp[254];	// End of Check Bytes

  0025c	8d 45 f6	 lea	 eax, DWORD PTR _intTemp$[ebp+254]
  0025f	89 85 d4 fe ff
	ff		 mov	 DWORD PTR _ptr1$[ebp], eax

; 1175 : 
; 1176 :  	for (i = 0; i < CheckLen; i++)

  00265	c7 85 ec fe ff
	ff 00 00 00 00	 mov	 DWORD PTR _i$[ebp], 0
  0026f	eb 0f		 jmp	 SHORT $LN3@RSDecode
$LN2@RSDecode:
  00271	8b 85 ec fe ff
	ff		 mov	 eax, DWORD PTR _i$[ebp]
  00277	83 c0 01	 add	 eax, 1
  0027a	89 85 ec fe ff
	ff		 mov	 DWORD PTR _i$[ebp], eax
$LN3@RSDecode:
  00280	8b 85 ec fe ff
	ff		 mov	 eax, DWORD PTR _i$[ebp]
  00286	3b 45 10	 cmp	 eax, DWORD PTR _CheckLen$[ebp]
  00289	7d 30		 jge	 SHORT $LN1@RSDecode

; 1177 : 	{
; 1178 : 	  *(ptr2++) = *(ptr1--);

  0028b	8b 85 e0 fe ff
	ff		 mov	 eax, DWORD PTR _ptr2$[ebp]
  00291	8b 8d d4 fe ff
	ff		 mov	 ecx, DWORD PTR _ptr1$[ebp]
  00297	8a 11		 mov	 dl, BYTE PTR [ecx]
  00299	88 10		 mov	 BYTE PTR [eax], dl
  0029b	8b 85 e0 fe ff
	ff		 mov	 eax, DWORD PTR _ptr2$[ebp]
  002a1	83 c0 01	 add	 eax, 1
  002a4	89 85 e0 fe ff
	ff		 mov	 DWORD PTR _ptr2$[ebp], eax
  002aa	8b 8d d4 fe ff
	ff		 mov	 ecx, DWORD PTR _ptr1$[ebp]
  002b0	83 e9 01	 sub	 ecx, 1
  002b3	89 8d d4 fe ff
	ff		 mov	 DWORD PTR _ptr1$[ebp], ecx

; 1179 : 	}

  002b9	eb b6		 jmp	 SHORT $LN2@RSDecode
$LN1@RSDecode:

; 1180 : 
; 1181 : 	return TRUE;

  002bb	b8 01 00 00 00	 mov	 eax, 1
$LN18@RSDecode:

; 1182 : }

  002c0	52		 push	 edx
  002c1	8b cd		 mov	 ecx, ebp
  002c3	50		 push	 eax
  002c4	8d 15 00 00 00
	00		 lea	 edx, DWORD PTR $LN22@RSDecode
  002ca	e8 00 00 00 00	 call	 @_RTC_CheckStackVars@8
  002cf	58		 pop	 eax
  002d0	5a		 pop	 edx
  002d1	5f		 pop	 edi
  002d2	5e		 pop	 esi
  002d3	5b		 pop	 ebx
  002d4	8b 4d fc	 mov	 ecx, DWORD PTR __$ArrayPad$[ebp]
  002d7	33 cd		 xor	 ecx, ebp
  002d9	e8 00 00 00 00	 call	 @__security_check_cookie@4
  002de	81 c4 08 02 00
	00		 add	 esp, 520		; 00000208H
  002e4	3b ec		 cmp	 ebp, esp
  002e6	e8 00 00 00 00	 call	 __RTC_CheckEsp
  002eb	8b e5		 mov	 esp, ebp
  002ed	5d		 pop	 ebp
  002ee	c3		 ret	 0
  002ef	90		 npad	 1
$LN22@RSDecode:
  002f0	01 00 00 00	 DD	 1
  002f4	00 00 00 00	 DD	 $LN21@RSDecode
$LN21@RSDecode:
  002f8	f8 fe ff ff	 DD	 -264			; fffffef8H
  002fc	00 01 00 00	 DD	 256			; 00000100H
  00300	00 00 00 00	 DD	 $LN20@RSDecode
$LN20@RSDecode:
  00304	69		 DB	 105			; 00000069H
  00305	6e		 DB	 110			; 0000006eH
  00306	74		 DB	 116			; 00000074H
  00307	54		 DB	 84			; 00000054H
  00308	65		 DB	 101			; 00000065H
  00309	6d		 DB	 109			; 0000006dH
  0030a	70		 DB	 112			; 00000070H
  0030b	00		 DB	 0
_RSDecode ENDP
_TEXT	ENDS
PUBLIC	_GenCRC16FrameType
PUBLIC	__$ArrayPad$
PUBLIC	_EncodePSKData
EXTRN	_bytSessionID:BYTE
; Function compile flags: /Odtp /RTCsu /ZI
;	COMDAT _EncodePSKData
_TEXT	SEGMENT
_bytToRS$ = -208					; size = 4
_i$ = -196						; size = 4
_bytQualThresh$ = -181					; size = 1
_blnFrameTypeOK$ = -172					; size = 4
_strMod$ = -160						; size = 16
_strType$ = -136					; size = 18
_blnOdd$ = -108						; size = 4
_intStartIndex$ = -96					; size = 4
_intCarDataCnt$ = -84					; size = 4
_intEncodedDataPtr$ = -72				; size = 4
_bytDataToSendLengthPtr$ = -60				; size = 4
_intRSLen$ = -48					; size = 4
_intDataLen$ = -36					; size = 4
_intBaud$ = -24						; size = 4
_intNumCar$ = -12					; size = 4
__$ArrayPad$ = -4					; size = 4
_bytFrameType$ = 8					; size = 1
_bytDataToSend$ = 12					; size = 4
_Length$ = 16						; size = 4
_bytEncodedBytes$ = 20					; size = 4
_EncodePSKData PROC					; COMDAT

; 1268 : {

  00000	55		 push	 ebp
  00001	8b ec		 mov	 ebp, esp
  00003	81 ec 94 01 00
	00		 sub	 esp, 404		; 00000194H
  00009	53		 push	 ebx
  0000a	56		 push	 esi
  0000b	57		 push	 edi
  0000c	8d bd 6c fe ff
	ff		 lea	 edi, DWORD PTR [ebp-404]
  00012	b9 65 00 00 00	 mov	 ecx, 101		; 00000065H
  00017	b8 cc cc cc cc	 mov	 eax, -858993460		; ccccccccH
  0001c	f3 ab		 rep stosd
  0001e	a1 00 00 00 00	 mov	 eax, DWORD PTR ___security_cookie
  00023	33 c5		 xor	 eax, ebp
  00025	89 45 fc	 mov	 DWORD PTR __$ArrayPad$[ebp], eax

; 1269 : 	// Objective is to use this to use this to send all PSK data frames 
; 1270 : 	// 'Output is a byte array which includes:
; 1271 : 	//  1) A 2 byte Header which include the Frame ID.  This will be sent using 4FSK at 50 baud. It will include the Frame ID and ID Xored by the Session bytID.
; 1272 : 	//  2) n sections one for each carrier that will inlcude all data (with FEC appended) for the entire frame. Each block will be identical in length.
; 1273 : 	//  Ininitial implementation:
; 1274 : 	//    intNum Car may be 1, 2, 4 or 8
; 1275 : 	//    intBaud may be 100, 167
; 1276 : 	//    intPSKMode may be 4 (4PSK) or 8 (8PSK) 
; 1277 : 	//    bytDataToSend must be equal to or less than max data supported by the frame or a exception will be logged and an empty array returned
; 1278 : 
; 1279 : 	//  First determine if bytDataToSend is compatible with the requested modulation mode.
; 1280 : 
; 1281 : 	int intNumCar, intBaud, intDataLen, intRSLen, bytDataToSendLengthPtr, intEncodedDataPtr;
; 1282 : 
; 1283 : 	int intCarDataCnt, intStartIndex;
; 1284 : 	BOOL blnOdd;
; 1285 : 	char strType[18];
; 1286 : 	char strMod[16];
; 1287 : 	BOOL blnFrameTypeOK;
; 1288 : 	UCHAR bytQualThresh;
; 1289 : 	int i;
; 1290 : 	UCHAR * bytToRS = &bytEncodedBytes[2]; 

  00028	8b 45 14	 mov	 eax, DWORD PTR _bytEncodedBytes$[ebp]
  0002b	83 c0 02	 add	 eax, 2
  0002e	89 85 30 ff ff
	ff		 mov	 DWORD PTR _bytToRS$[ebp], eax

; 1291 : 
; 1292 : 	blnFrameTypeOK = FrameInfo(bytFrameType, &blnOdd, &intNumCar, strMod, &intBaud, &intDataLen, &intRSLen, &bytQualThresh, strType);

  00034	8d 85 78 ff ff
	ff		 lea	 eax, DWORD PTR _strType$[ebp]
  0003a	50		 push	 eax
  0003b	8d 8d 4b ff ff
	ff		 lea	 ecx, DWORD PTR _bytQualThresh$[ebp]
  00041	51		 push	 ecx
  00042	8d 55 d0	 lea	 edx, DWORD PTR _intRSLen$[ebp]
  00045	52		 push	 edx
  00046	8d 45 dc	 lea	 eax, DWORD PTR _intDataLen$[ebp]
  00049	50		 push	 eax
  0004a	8d 4d e8	 lea	 ecx, DWORD PTR _intBaud$[ebp]
  0004d	51		 push	 ecx
  0004e	8d 95 60 ff ff
	ff		 lea	 edx, DWORD PTR _strMod$[ebp]
  00054	52		 push	 edx
  00055	8d 45 f4	 lea	 eax, DWORD PTR _intNumCar$[ebp]
  00058	50		 push	 eax
  00059	8d 4d 94	 lea	 ecx, DWORD PTR _blnOdd$[ebp]
  0005c	51		 push	 ecx
  0005d	8a 55 08	 mov	 dl, BYTE PTR _bytFrameType$[ebp]
  00060	52		 push	 edx
  00061	e8 00 00 00 00	 call	 _FrameInfo
  00066	83 c4 24	 add	 esp, 36			; 00000024H
  00069	89 85 54 ff ff
	ff		 mov	 DWORD PTR _blnFrameTypeOK$[ebp], eax

; 1293 : 
; 1294 : 	if (intDataLen == 0 || Length == 0 || !blnFrameTypeOK)

  0006f	83 7d dc 00	 cmp	 DWORD PTR _intDataLen$[ebp], 0
  00073	74 0f		 je	 SHORT $LN7@EncodePSKD
  00075	83 7d 10 00	 cmp	 DWORD PTR _Length$[ebp], 0
  00079	74 09		 je	 SHORT $LN7@EncodePSKD
  0007b	83 bd 54 ff ff
	ff 00		 cmp	 DWORD PTR _blnFrameTypeOK$[ebp], 0
  00082	75 07		 jne	 SHORT $LN8@EncodePSKD
$LN7@EncodePSKD:

; 1295 : 	{
; 1296 : 		//Logs.Exception("[EncodeFSKFrameType] Failure to update parameters for frame type H" & Format(bytFrameType, "X") & "  DataToSend Len=" & bytDataToSend.Length.ToString)
; 1297 : 		return 0;

  00084	33 c0		 xor	 eax, eax
  00086	e9 44 01 00 00	 jmp	 $LN9@EncodePSKD
$LN8@EncodePSKD:

; 1298 : 	}
; 1299 : 		
; 1300 : 	//	Generate the 2 bytes for the frame type data:
; 1301 : 	
; 1302 : 	bytEncodedBytes[0] = bytFrameType;

  0008b	8b 45 14	 mov	 eax, DWORD PTR _bytEncodedBytes$[ebp]
  0008e	8a 4d 08	 mov	 cl, BYTE PTR _bytFrameType$[ebp]
  00091	88 08		 mov	 BYTE PTR [eax], cl

; 1303 : 	bytEncodedBytes[1] = bytFrameType ^ bytSessionID;

  00093	0f b6 45 08	 movzx	 eax, BYTE PTR _bytFrameType$[ebp]
  00097	0f b6 0d 00 00
	00 00		 movzx	 ecx, BYTE PTR _bytSessionID
  0009e	33 c1		 xor	 eax, ecx
  000a0	8b 55 14	 mov	 edx, DWORD PTR _bytEncodedBytes$[ebp]
  000a3	88 42 01	 mov	 BYTE PTR [edx+1], al

; 1304 : 
; 1305 : 	bytDataToSendLengthPtr = 0;

  000a6	c7 45 c4 00 00
	00 00		 mov	 DWORD PTR _bytDataToSendLengthPtr$[ebp], 0

; 1306 : 	intEncodedDataPtr = 2;

  000ad	c7 45 b8 02 00
	00 00		 mov	 DWORD PTR _intEncodedDataPtr$[ebp], 2

; 1307 : 
; 1308 : 	// Now compute the RS frame for each carrier in sequence and move it to bytEncodedBytes 
; 1309 : 		
; 1310 : 	for (i = 0; i < intNumCar; i++)		//  across all carriers

  000b4	c7 85 3c ff ff
	ff 00 00 00 00	 mov	 DWORD PTR _i$[ebp], 0
  000be	eb 0f		 jmp	 SHORT $LN6@EncodePSKD
$LN5@EncodePSKD:
  000c0	8b 85 3c ff ff
	ff		 mov	 eax, DWORD PTR _i$[ebp]
  000c6	83 c0 01	 add	 eax, 1
  000c9	89 85 3c ff ff
	ff		 mov	 DWORD PTR _i$[ebp], eax
$LN6@EncodePSKD:
  000cf	8b 85 3c ff ff
	ff		 mov	 eax, DWORD PTR _i$[ebp]
  000d5	3b 45 f4	 cmp	 eax, DWORD PTR _intNumCar$[ebp]
  000d8	0f 8d ee 00 00
	00		 jge	 $LN4@EncodePSKD

; 1311 : 	{
; 1312 : 		intCarDataCnt = Length - bytDataToSendLengthPtr;

  000de	8b 45 10	 mov	 eax, DWORD PTR _Length$[ebp]
  000e1	2b 45 c4	 sub	 eax, DWORD PTR _bytDataToSendLengthPtr$[ebp]
  000e4	89 45 ac	 mov	 DWORD PTR _intCarDataCnt$[ebp], eax

; 1313 : 			
; 1314 : 		if (intCarDataCnt >= intDataLen) // why not > ??

  000e7	8b 45 ac	 mov	 eax, DWORD PTR _intCarDataCnt$[ebp]
  000ea	3b 45 dc	 cmp	 eax, DWORD PTR _intDataLen$[ebp]
  000ed	7c 39		 jl	 SHORT $LN3@EncodePSKD

; 1315 : 		{
; 1316 : 			// Won't all fit 
; 1317 : 
; 1318 : 			bytToRS[0] = intDataLen;

  000ef	8b 85 30 ff ff
	ff		 mov	 eax, DWORD PTR _bytToRS$[ebp]
  000f5	8a 4d dc	 mov	 cl, BYTE PTR _intDataLen$[ebp]
  000f8	88 08		 mov	 BYTE PTR [eax], cl

; 1319 : 			intStartIndex = intEncodedDataPtr;

  000fa	8b 45 b8	 mov	 eax, DWORD PTR _intEncodedDataPtr$[ebp]
  000fd	89 45 a0	 mov	 DWORD PTR _intStartIndex$[ebp], eax

; 1320 : 			memcpy(&bytToRS[1], &bytDataToSend[bytDataToSendLengthPtr], intDataLen);

  00100	8b 45 dc	 mov	 eax, DWORD PTR _intDataLen$[ebp]
  00103	50		 push	 eax
  00104	8b 4d 0c	 mov	 ecx, DWORD PTR _bytDataToSend$[ebp]
  00107	03 4d c4	 add	 ecx, DWORD PTR _bytDataToSendLengthPtr$[ebp]
  0010a	51		 push	 ecx
  0010b	8b 95 30 ff ff
	ff		 mov	 edx, DWORD PTR _bytToRS$[ebp]
  00111	83 c2 01	 add	 edx, 1
  00114	52		 push	 edx
  00115	e8 00 00 00 00	 call	 _memcpy
  0011a	83 c4 0c	 add	 esp, 12			; 0000000cH

; 1321 : 			bytDataToSendLengthPtr += intDataLen;

  0011d	8b 45 c4	 mov	 eax, DWORD PTR _bytDataToSendLengthPtr$[ebp]
  00120	03 45 dc	 add	 eax, DWORD PTR _intDataLen$[ebp]
  00123	89 45 c4	 mov	 DWORD PTR _bytDataToSendLengthPtr$[ebp], eax

; 1322 : 		}
; 1323 : 		else

  00126	eb 37		 jmp	 SHORT $LN2@EncodePSKD
$LN3@EncodePSKD:

; 1324 : 		{
; 1325 : 			// Last bit
; 1326 : 
; 1327 : 			bytToRS[0] = intCarDataCnt;  // Could be 0 if insuffient data for # of carriers 

  00128	8b 85 30 ff ff
	ff		 mov	 eax, DWORD PTR _bytToRS$[ebp]
  0012e	8a 4d ac	 mov	 cl, BYTE PTR _intCarDataCnt$[ebp]
  00131	88 08		 mov	 BYTE PTR [eax], cl

; 1328 : 
; 1329 : 			if (intCarDataCnt > 0)

  00133	83 7d ac 00	 cmp	 DWORD PTR _intCarDataCnt$[ebp], 0
  00137	7e 26		 jle	 SHORT $LN2@EncodePSKD

; 1330 : 			{
; 1331 : 				memcpy(&bytToRS[1], &bytDataToSend[bytDataToSendLengthPtr], intCarDataCnt);

  00139	8b 45 ac	 mov	 eax, DWORD PTR _intCarDataCnt$[ebp]
  0013c	50		 push	 eax
  0013d	8b 4d 0c	 mov	 ecx, DWORD PTR _bytDataToSend$[ebp]
  00140	03 4d c4	 add	 ecx, DWORD PTR _bytDataToSendLengthPtr$[ebp]
  00143	51		 push	 ecx
  00144	8b 95 30 ff ff
	ff		 mov	 edx, DWORD PTR _bytToRS$[ebp]
  0014a	83 c2 01	 add	 edx, 1
  0014d	52		 push	 edx
  0014e	e8 00 00 00 00	 call	 _memcpy
  00153	83 c4 0c	 add	 esp, 12			; 0000000cH

; 1332 : 				bytDataToSendLengthPtr += intCarDataCnt;

  00156	8b 45 c4	 mov	 eax, DWORD PTR _bytDataToSendLengthPtr$[ebp]
  00159	03 45 ac	 add	 eax, DWORD PTR _intCarDataCnt$[ebp]
  0015c	89 45 c4	 mov	 DWORD PTR _bytDataToSendLengthPtr$[ebp], eax
$LN2@EncodePSKD:

; 1333 : 			}	
; 1334 : 		}
; 1335 : 		
; 1336 : 		GenCRC16FrameType(bytToRS, intDataLen + 1, bytFrameType); // calculate the CRC on the byte count + data bytes

  0015f	8a 45 08	 mov	 al, BYTE PTR _bytFrameType$[ebp]
  00162	50		 push	 eax
  00163	8b 4d dc	 mov	 ecx, DWORD PTR _intDataLen$[ebp]
  00166	83 c1 01	 add	 ecx, 1
  00169	51		 push	 ecx
  0016a	8b 95 30 ff ff
	ff		 mov	 edx, DWORD PTR _bytToRS$[ebp]
  00170	52		 push	 edx
  00171	e8 00 00 00 00	 call	 _GenCRC16FrameType
  00176	83 c4 0c	 add	 esp, 12			; 0000000cH

; 1337 : 
; 1338 : 		RSEncode(bytToRS, bytToRS+intDataLen+3, intDataLen + 3, intRSLen);  // Generate the RS encoding ...now 14 bytes total

  00179	8b 45 d0	 mov	 eax, DWORD PTR _intRSLen$[ebp]
  0017c	50		 push	 eax
  0017d	8b 4d dc	 mov	 ecx, DWORD PTR _intDataLen$[ebp]
  00180	83 c1 03	 add	 ecx, 3
  00183	51		 push	 ecx
  00184	8b 55 dc	 mov	 edx, DWORD PTR _intDataLen$[ebp]
  00187	8b 85 30 ff ff
	ff		 mov	 eax, DWORD PTR _bytToRS$[ebp]
  0018d	8d 4c 10 03	 lea	 ecx, DWORD PTR [eax+edx+3]
  00191	51		 push	 ecx
  00192	8b 95 30 ff ff
	ff		 mov	 edx, DWORD PTR _bytToRS$[ebp]
  00198	52		 push	 edx
  00199	e8 00 00 00 00	 call	 _RSEncode
  0019e	83 c4 10	 add	 esp, 16			; 00000010H

; 1339 :      
; 1340 :  		//  Need: (2 bytes for Frame Type) +( Data + RS + 1 byte byteCount + 2 Byte CRC per carrier)
; 1341 : 
; 1342 :  		intEncodedDataPtr += intDataLen + 3 + intRSLen;

  001a1	8b 45 d0	 mov	 eax, DWORD PTR _intRSLen$[ebp]
  001a4	8b 4d dc	 mov	 ecx, DWORD PTR _intDataLen$[ebp]
  001a7	8d 54 01 03	 lea	 edx, DWORD PTR [ecx+eax+3]
  001ab	03 55 b8	 add	 edx, DWORD PTR _intEncodedDataPtr$[ebp]
  001ae	89 55 b8	 mov	 DWORD PTR _intEncodedDataPtr$[ebp], edx

; 1343 : 
; 1344 : 		bytToRS += intDataLen + 3 + intRSLen;		

  001b1	8b 45 d0	 mov	 eax, DWORD PTR _intRSLen$[ebp]
  001b4	8b 4d dc	 mov	 ecx, DWORD PTR _intDataLen$[ebp]
  001b7	8d 54 01 03	 lea	 edx, DWORD PTR [ecx+eax+3]
  001bb	03 95 30 ff ff
	ff		 add	 edx, DWORD PTR _bytToRS$[ebp]
  001c1	89 95 30 ff ff
	ff		 mov	 DWORD PTR _bytToRS$[ebp], edx

; 1345 : 	}

  001c7	e9 f4 fe ff ff	 jmp	 $LN5@EncodePSKD
$LN4@EncodePSKD:

; 1346 : 	return intEncodedDataPtr;

  001cc	8b 45 b8	 mov	 eax, DWORD PTR _intEncodedDataPtr$[ebp]
$LN9@EncodePSKD:

; 1347 : }

  001cf	52		 push	 edx
  001d0	8b cd		 mov	 ecx, ebp
  001d2	50		 push	 eax
  001d3	8d 15 00 00 00
	00		 lea	 edx, DWORD PTR $LN20@EncodePSKD
  001d9	e8 00 00 00 00	 call	 @_RTC_CheckStackVars@8
  001de	58		 pop	 eax
  001df	5a		 pop	 edx
  001e0	5f		 pop	 edi
  001e1	5e		 pop	 esi
  001e2	5b		 pop	 ebx
  001e3	8b 4d fc	 mov	 ecx, DWORD PTR __$ArrayPad$[ebp]
  001e6	33 cd		 xor	 ecx, ebp
  001e8	e8 00 00 00 00	 call	 @__security_check_cookie@4
  001ed	81 c4 94 01 00
	00		 add	 esp, 404		; 00000194H
  001f3	3b ec		 cmp	 ebp, esp
  001f5	e8 00 00 00 00	 call	 __RTC_CheckEsp
  001fa	8b e5		 mov	 esp, ebp
  001fc	5d		 pop	 ebp
  001fd	c3		 ret	 0
  001fe	8b ff		 npad	 2
$LN20@EncodePSKD:
  00200	08 00 00 00	 DD	 8
  00204	00 00 00 00	 DD	 $LN19@EncodePSKD
$LN19@EncodePSKD:
  00208	f4 ff ff ff	 DD	 -12			; fffffff4H
  0020c	04 00 00 00	 DD	 4
  00210	00 00 00 00	 DD	 $LN11@EncodePSKD
  00214	e8 ff ff ff	 DD	 -24			; ffffffe8H
  00218	04 00 00 00	 DD	 4
  0021c	00 00 00 00	 DD	 $LN12@EncodePSKD
  00220	dc ff ff ff	 DD	 -36			; ffffffdcH
  00224	04 00 00 00	 DD	 4
  00228	00 00 00 00	 DD	 $LN13@EncodePSKD
  0022c	d0 ff ff ff	 DD	 -48			; ffffffd0H
  00230	04 00 00 00	 DD	 4
  00234	00 00 00 00	 DD	 $LN14@EncodePSKD
  00238	94 ff ff ff	 DD	 -108			; ffffff94H
  0023c	04 00 00 00	 DD	 4
  00240	00 00 00 00	 DD	 $LN15@EncodePSKD
  00244	78 ff ff ff	 DD	 -136			; ffffff78H
  00248	12 00 00 00	 DD	 18			; 00000012H
  0024c	00 00 00 00	 DD	 $LN16@EncodePSKD
  00250	60 ff ff ff	 DD	 -160			; ffffff60H
  00254	10 00 00 00	 DD	 16			; 00000010H
  00258	00 00 00 00	 DD	 $LN17@EncodePSKD
  0025c	4b ff ff ff	 DD	 -181			; ffffff4bH
  00260	01 00 00 00	 DD	 1
  00264	00 00 00 00	 DD	 $LN18@EncodePSKD
$LN18@EncodePSKD:
  00268	62		 DB	 98			; 00000062H
  00269	79		 DB	 121			; 00000079H
  0026a	74		 DB	 116			; 00000074H
  0026b	51		 DB	 81			; 00000051H
  0026c	75		 DB	 117			; 00000075H
  0026d	61		 DB	 97			; 00000061H
  0026e	6c		 DB	 108			; 0000006cH
  0026f	54		 DB	 84			; 00000054H
  00270	68		 DB	 104			; 00000068H
  00271	72		 DB	 114			; 00000072H
  00272	65		 DB	 101			; 00000065H
  00273	73		 DB	 115			; 00000073H
  00274	68		 DB	 104			; 00000068H
  00275	00		 DB	 0
$LN17@EncodePSKD:
  00276	73		 DB	 115			; 00000073H
  00277	74		 DB	 116			; 00000074H
  00278	72		 DB	 114			; 00000072H
  00279	4d		 DB	 77			; 0000004dH
  0027a	6f		 DB	 111			; 0000006fH
  0027b	64		 DB	 100			; 00000064H
  0027c	00		 DB	 0
$LN16@EncodePSKD:
  0027d	73		 DB	 115			; 00000073H
  0027e	74		 DB	 116			; 00000074H
  0027f	72		 DB	 114			; 00000072H
  00280	54		 DB	 84			; 00000054H
  00281	79		 DB	 121			; 00000079H
  00282	70		 DB	 112			; 00000070H
  00283	65		 DB	 101			; 00000065H
  00284	00		 DB	 0
$LN15@EncodePSKD:
  00285	62		 DB	 98			; 00000062H
  00286	6c		 DB	 108			; 0000006cH
  00287	6e		 DB	 110			; 0000006eH
  00288	4f		 DB	 79			; 0000004fH
  00289	64		 DB	 100			; 00000064H
  0028a	64		 DB	 100			; 00000064H
  0028b	00		 DB	 0
$LN14@EncodePSKD:
  0028c	69		 DB	 105			; 00000069H
  0028d	6e		 DB	 110			; 0000006eH
  0028e	74		 DB	 116			; 00000074H
  0028f	52		 DB	 82			; 00000052H
  00290	53		 DB	 83			; 00000053H
  00291	4c		 DB	 76			; 0000004cH
  00292	65		 DB	 101			; 00000065H
  00293	6e		 DB	 110			; 0000006eH
  00294	00		 DB	 0
$LN13@EncodePSKD:
  00295	69		 DB	 105			; 00000069H
  00296	6e		 DB	 110			; 0000006eH
  00297	74		 DB	 116			; 00000074H
  00298	44		 DB	 68			; 00000044H
  00299	61		 DB	 97			; 00000061H
  0029a	74		 DB	 116			; 00000074H
  0029b	61		 DB	 97			; 00000061H
  0029c	4c		 DB	 76			; 0000004cH
  0029d	65		 DB	 101			; 00000065H
  0029e	6e		 DB	 110			; 0000006eH
  0029f	00		 DB	 0
$LN12@EncodePSKD:
  002a0	69		 DB	 105			; 00000069H
  002a1	6e		 DB	 110			; 0000006eH
  002a2	74		 DB	 116			; 00000074H
  002a3	42		 DB	 66			; 00000042H
  002a4	61		 DB	 97			; 00000061H
  002a5	75		 DB	 117			; 00000075H
  002a6	64		 DB	 100			; 00000064H
  002a7	00		 DB	 0
$LN11@EncodePSKD:
  002a8	69		 DB	 105			; 00000069H
  002a9	6e		 DB	 110			; 0000006eH
  002aa	74		 DB	 116			; 00000074H
  002ab	4e		 DB	 78			; 0000004eH
  002ac	75		 DB	 117			; 00000075H
  002ad	6d		 DB	 109			; 0000006dH
  002ae	43		 DB	 67			; 00000043H
  002af	61		 DB	 97			; 00000061H
  002b0	72		 DB	 114			; 00000072H
  002b1	00		 DB	 0
_EncodePSKData ENDP
_TEXT	ENDS
PUBLIC	__$ArrayPad$
PUBLIC	_EncodeFSKData
; Function compile flags: /Odtp /RTCsu /ZI
;	COMDAT _EncodeFSKData
_TEXT	SEGMENT
_bytToRS$ = -208					; size = 4
_i$ = -196						; size = 4
_bytQualThresh$ = -181					; size = 1
_blnFrameTypeOK$ = -172					; size = 4
_strMod$ = -160						; size = 16
_strType$ = -136					; size = 18
_blnOdd$ = -108						; size = 4
_intStartIndex$ = -96					; size = 4
_intCarDataCnt$ = -84					; size = 4
_intEncodedDataPtr$ = -72				; size = 4
_bytDataToSendLengthPtr$ = -60				; size = 4
_intRSLen$ = -48					; size = 4
_intDataLen$ = -36					; size = 4
_intBaud$ = -24						; size = 4
_intNumCar$ = -12					; size = 4
__$ArrayPad$ = -4					; size = 4
_bytFrameType$ = 8					; size = 1
_bytDataToSend$ = 12					; size = 4
_Length$ = 16						; size = 4
_bytEncodedBytes$ = 20					; size = 4
_EncodeFSKData PROC					; COMDAT

; 1353 : {

  00000	55		 push	 ebp
  00001	8b ec		 mov	 ebp, esp
  00003	81 ec 94 01 00
	00		 sub	 esp, 404		; 00000194H
  00009	53		 push	 ebx
  0000a	56		 push	 esi
  0000b	57		 push	 edi
  0000c	8d bd 6c fe ff
	ff		 lea	 edi, DWORD PTR [ebp-404]
  00012	b9 65 00 00 00	 mov	 ecx, 101		; 00000065H
  00017	b8 cc cc cc cc	 mov	 eax, -858993460		; ccccccccH
  0001c	f3 ab		 rep stosd
  0001e	a1 00 00 00 00	 mov	 eax, DWORD PTR ___security_cookie
  00023	33 c5		 xor	 eax, ebp
  00025	89 45 fc	 mov	 DWORD PTR __$ArrayPad$[ebp], eax

; 1354 : 	// Objective is to use this to use this to send all 4FSK data frames 
; 1355 : 	// 'Output is a byte array which includes:
; 1356 : 	//  1) A 2 byte Header which include the Frame ID.  This will be sent using 4FSK at 50 baud. It will include the Frame ID and ID Xored by the Session bytID.
; 1357 : 	//  2) n sections one for each carrier that will inlcude all data (with FEC appended) for the entire frame. Each block will be identical in length.
; 1358 : 	//  Ininitial implementation:
; 1359 : 	//    intNum Car may be 1, 2, 4 or 8
; 1360 : 	//    intBaud may be 50, 100
; 1361 : 	//    strMod is 4FSK) 
; 1362 : 	//    bytDataToSend must be equal to or less than max data supported by the frame or a exception will be logged and an empty array returned
; 1363 : 
; 1364 : 	//  First determine if bytDataToSend is compatible with the requested modulation mode.
; 1365 : 
; 1366 : 	int intNumCar, intBaud, intDataLen, intRSLen, bytDataToSendLengthPtr, intEncodedDataPtr;
; 1367 : 
; 1368 : 	int intCarDataCnt, intStartIndex;
; 1369 : 	BOOL blnOdd;
; 1370 : 	char strType[18];
; 1371 : 	char strMod[16];
; 1372 : 	BOOL blnFrameTypeOK;
; 1373 : 	UCHAR bytQualThresh;
; 1374 : 	int i;
; 1375 : 	UCHAR * bytToRS = &bytEncodedBytes[2]; 

  00028	8b 45 14	 mov	 eax, DWORD PTR _bytEncodedBytes$[ebp]
  0002b	83 c0 02	 add	 eax, 2
  0002e	89 85 30 ff ff
	ff		 mov	 DWORD PTR _bytToRS$[ebp], eax

; 1376 : 
; 1377 : 	blnFrameTypeOK = FrameInfo(bytFrameType, &blnOdd, &intNumCar, strMod, &intBaud, &intDataLen, &intRSLen, &bytQualThresh, strType);

  00034	8d 85 78 ff ff
	ff		 lea	 eax, DWORD PTR _strType$[ebp]
  0003a	50		 push	 eax
  0003b	8d 8d 4b ff ff
	ff		 lea	 ecx, DWORD PTR _bytQualThresh$[ebp]
  00041	51		 push	 ecx
  00042	8d 55 d0	 lea	 edx, DWORD PTR _intRSLen$[ebp]
  00045	52		 push	 edx
  00046	8d 45 dc	 lea	 eax, DWORD PTR _intDataLen$[ebp]
  00049	50		 push	 eax
  0004a	8d 4d e8	 lea	 ecx, DWORD PTR _intBaud$[ebp]
  0004d	51		 push	 ecx
  0004e	8d 95 60 ff ff
	ff		 lea	 edx, DWORD PTR _strMod$[ebp]
  00054	52		 push	 edx
  00055	8d 45 f4	 lea	 eax, DWORD PTR _intNumCar$[ebp]
  00058	50		 push	 eax
  00059	8d 4d 94	 lea	 ecx, DWORD PTR _blnOdd$[ebp]
  0005c	51		 push	 ecx
  0005d	8a 55 08	 mov	 dl, BYTE PTR _bytFrameType$[ebp]
  00060	52		 push	 edx
  00061	e8 00 00 00 00	 call	 _FrameInfo
  00066	83 c4 24	 add	 esp, 36			; 00000024H
  00069	89 85 54 ff ff
	ff		 mov	 DWORD PTR _blnFrameTypeOK$[ebp], eax

; 1378 : 
; 1379 : 	if (intDataLen == 0 || Length == 0 || !blnFrameTypeOK)

  0006f	83 7d dc 00	 cmp	 DWORD PTR _intDataLen$[ebp], 0
  00073	74 0f		 je	 SHORT $LN15@EncodeFSKD
  00075	83 7d 10 00	 cmp	 DWORD PTR _Length$[ebp], 0
  00079	74 09		 je	 SHORT $LN15@EncodeFSKD
  0007b	83 bd 54 ff ff
	ff 00		 cmp	 DWORD PTR _blnFrameTypeOK$[ebp], 0
  00082	75 07		 jne	 SHORT $LN16@EncodeFSKD
$LN15@EncodeFSKD:

; 1380 : 	{
; 1381 : 		//Logs.Exception("[EncodeFSKFrameType] Failure to update parameters for frame type H" & Format(bytFrameType, "X") & "  DataToSend Len=" & bytDataToSend.Length.ToString)
; 1382 : 		return 0;

  00084	33 c0		 xor	 eax, eax
  00086	e9 dc 02 00 00	 jmp	 $LN17@EncodeFSKD
$LN16@EncodeFSKD:

; 1383 : 	}
; 1384 : 	
; 1385 : 	//	Generate the 2 bytes for the frame type data:
; 1386 : 	
; 1387 : 	bytEncodedBytes[0] = bytFrameType;

  0008b	8b 45 14	 mov	 eax, DWORD PTR _bytEncodedBytes$[ebp]
  0008e	8a 4d 08	 mov	 cl, BYTE PTR _bytFrameType$[ebp]
  00091	88 08		 mov	 BYTE PTR [eax], cl

; 1388 : 	bytEncodedBytes[1] = bytFrameType ^ bytSessionID;

  00093	0f b6 45 08	 movzx	 eax, BYTE PTR _bytFrameType$[ebp]
  00097	0f b6 0d 00 00
	00 00		 movzx	 ecx, BYTE PTR _bytSessionID
  0009e	33 c1		 xor	 eax, ecx
  000a0	8b 55 14	 mov	 edx, DWORD PTR _bytEncodedBytes$[ebp]
  000a3	88 42 01	 mov	 BYTE PTR [edx+1], al

; 1389 : 
; 1390 :      //   Dim bytToRS(intDataLen + 3 - 1) As Byte ' Data + Count + 2 byte CRC
; 1391 : 
; 1392 : 	bytDataToSendLengthPtr = 0;

  000a6	c7 45 c4 00 00
	00 00		 mov	 DWORD PTR _bytDataToSendLengthPtr$[ebp], 0

; 1393 : 	intEncodedDataPtr = 2;

  000ad	c7 45 b8 02 00
	00 00		 mov	 DWORD PTR _intEncodedDataPtr$[ebp], 2

; 1394 : 
; 1395 : 	if (intBaud < 600 || intDataLen < 600)

  000b4	81 7d e8 58 02
	00 00		 cmp	 DWORD PTR _intBaud$[ebp], 600 ; 00000258H
  000bb	7c 0d		 jl	 SHORT $LN13@EncodeFSKD
  000bd	81 7d dc 58 02
	00 00		 cmp	 DWORD PTR _intDataLen$[ebp], 600 ; 00000258H
  000c4	0f 8d 20 01 00
	00		 jge	 $LN14@EncodeFSKD
$LN13@EncodeFSKD:

; 1396 : 	{
; 1397 : 		// Now compute the RS frame for each carrier in sequence and move it to bytEncodedBytes 
; 1398 : 		
; 1399 : 		for (i = 0; i < intNumCar; i++)		//  across all carriers

  000ca	c7 85 3c ff ff
	ff 00 00 00 00	 mov	 DWORD PTR _i$[ebp], 0
  000d4	eb 0f		 jmp	 SHORT $LN12@EncodeFSKD
$LN11@EncodeFSKD:
  000d6	8b 85 3c ff ff
	ff		 mov	 eax, DWORD PTR _i$[ebp]
  000dc	83 c0 01	 add	 eax, 1
  000df	89 85 3c ff ff
	ff		 mov	 DWORD PTR _i$[ebp], eax
$LN12@EncodeFSKD:
  000e5	8b 85 3c ff ff
	ff		 mov	 eax, DWORD PTR _i$[ebp]
  000eb	3b 45 f4	 cmp	 eax, DWORD PTR _intNumCar$[ebp]
  000ee	0f 8d ee 00 00
	00		 jge	 $LN10@EncodeFSKD

; 1400 : 		{
; 1401 : 			intCarDataCnt = Length - bytDataToSendLengthPtr;

  000f4	8b 45 10	 mov	 eax, DWORD PTR _Length$[ebp]
  000f7	2b 45 c4	 sub	 eax, DWORD PTR _bytDataToSendLengthPtr$[ebp]
  000fa	89 45 ac	 mov	 DWORD PTR _intCarDataCnt$[ebp], eax

; 1402 : 			
; 1403 : 			if (intCarDataCnt >= intDataLen) // why not > ??

  000fd	8b 45 ac	 mov	 eax, DWORD PTR _intCarDataCnt$[ebp]
  00100	3b 45 dc	 cmp	 eax, DWORD PTR _intDataLen$[ebp]
  00103	7c 39		 jl	 SHORT $LN9@EncodeFSKD

; 1404 : 			{
; 1405 : 				// Won't all fit 
; 1406 : 
; 1407 : 				bytToRS[0] = intDataLen;

  00105	8b 85 30 ff ff
	ff		 mov	 eax, DWORD PTR _bytToRS$[ebp]
  0010b	8a 4d dc	 mov	 cl, BYTE PTR _intDataLen$[ebp]
  0010e	88 08		 mov	 BYTE PTR [eax], cl

; 1408 : 				intStartIndex = intEncodedDataPtr;

  00110	8b 45 b8	 mov	 eax, DWORD PTR _intEncodedDataPtr$[ebp]
  00113	89 45 a0	 mov	 DWORD PTR _intStartIndex$[ebp], eax

; 1409 : 				memcpy(&bytToRS[1], &bytDataToSend[bytDataToSendLengthPtr], intDataLen);

  00116	8b 45 dc	 mov	 eax, DWORD PTR _intDataLen$[ebp]
  00119	50		 push	 eax
  0011a	8b 4d 0c	 mov	 ecx, DWORD PTR _bytDataToSend$[ebp]
  0011d	03 4d c4	 add	 ecx, DWORD PTR _bytDataToSendLengthPtr$[ebp]
  00120	51		 push	 ecx
  00121	8b 95 30 ff ff
	ff		 mov	 edx, DWORD PTR _bytToRS$[ebp]
  00127	83 c2 01	 add	 edx, 1
  0012a	52		 push	 edx
  0012b	e8 00 00 00 00	 call	 _memcpy
  00130	83 c4 0c	 add	 esp, 12			; 0000000cH

; 1410 : 				bytDataToSendLengthPtr += intDataLen;

  00133	8b 45 c4	 mov	 eax, DWORD PTR _bytDataToSendLengthPtr$[ebp]
  00136	03 45 dc	 add	 eax, DWORD PTR _intDataLen$[ebp]
  00139	89 45 c4	 mov	 DWORD PTR _bytDataToSendLengthPtr$[ebp], eax

; 1411 : 			}
; 1412 : 			else

  0013c	eb 37		 jmp	 SHORT $LN8@EncodeFSKD
$LN9@EncodeFSKD:

; 1413 : 			{
; 1414 : 				// Last bit
; 1415 : 
; 1416 : 				bytToRS[0] = intCarDataCnt;  // Could be 0 if insuffient data for # of carriers 

  0013e	8b 85 30 ff ff
	ff		 mov	 eax, DWORD PTR _bytToRS$[ebp]
  00144	8a 4d ac	 mov	 cl, BYTE PTR _intCarDataCnt$[ebp]
  00147	88 08		 mov	 BYTE PTR [eax], cl

; 1417 : 
; 1418 : 				if (intCarDataCnt > 0)

  00149	83 7d ac 00	 cmp	 DWORD PTR _intCarDataCnt$[ebp], 0
  0014d	7e 26		 jle	 SHORT $LN8@EncodeFSKD

; 1419 : 				{
; 1420 : 					memcpy(&bytToRS[1], &bytDataToSend[bytDataToSendLengthPtr], intCarDataCnt);

  0014f	8b 45 ac	 mov	 eax, DWORD PTR _intCarDataCnt$[ebp]
  00152	50		 push	 eax
  00153	8b 4d 0c	 mov	 ecx, DWORD PTR _bytDataToSend$[ebp]
  00156	03 4d c4	 add	 ecx, DWORD PTR _bytDataToSendLengthPtr$[ebp]
  00159	51		 push	 ecx
  0015a	8b 95 30 ff ff
	ff		 mov	 edx, DWORD PTR _bytToRS$[ebp]
  00160	83 c2 01	 add	 edx, 1
  00163	52		 push	 edx
  00164	e8 00 00 00 00	 call	 _memcpy
  00169	83 c4 0c	 add	 esp, 12			; 0000000cH

; 1421 :                     bytDataToSendLengthPtr += intCarDataCnt;

  0016c	8b 45 c4	 mov	 eax, DWORD PTR _bytDataToSendLengthPtr$[ebp]
  0016f	03 45 ac	 add	 eax, DWORD PTR _intCarDataCnt$[ebp]
  00172	89 45 c4	 mov	 DWORD PTR _bytDataToSendLengthPtr$[ebp], eax
$LN8@EncodeFSKD:

; 1422 : 				}	
; 1423 : 			}
; 1424 : 		
; 1425 : 			GenCRC16FrameType(bytToRS, intDataLen + 1, bytFrameType); // calculate the CRC on the byte count + data bytes

  00175	8a 45 08	 mov	 al, BYTE PTR _bytFrameType$[ebp]
  00178	50		 push	 eax
  00179	8b 4d dc	 mov	 ecx, DWORD PTR _intDataLen$[ebp]
  0017c	83 c1 01	 add	 ecx, 1
  0017f	51		 push	 ecx
  00180	8b 95 30 ff ff
	ff		 mov	 edx, DWORD PTR _bytToRS$[ebp]
  00186	52		 push	 edx
  00187	e8 00 00 00 00	 call	 _GenCRC16FrameType
  0018c	83 c4 0c	 add	 esp, 12			; 0000000cH

; 1426 : 
; 1427 : 			RSEncode(bytToRS, bytToRS+intDataLen+3, intDataLen + 3, intRSLen);  // Generate the RS encoding ...now 14 bytes total

  0018f	8b 45 d0	 mov	 eax, DWORD PTR _intRSLen$[ebp]
  00192	50		 push	 eax
  00193	8b 4d dc	 mov	 ecx, DWORD PTR _intDataLen$[ebp]
  00196	83 c1 03	 add	 ecx, 3
  00199	51		 push	 ecx
  0019a	8b 55 dc	 mov	 edx, DWORD PTR _intDataLen$[ebp]
  0019d	8b 85 30 ff ff
	ff		 mov	 eax, DWORD PTR _bytToRS$[ebp]
  001a3	8d 4c 10 03	 lea	 ecx, DWORD PTR [eax+edx+3]
  001a7	51		 push	 ecx
  001a8	8b 95 30 ff ff
	ff		 mov	 edx, DWORD PTR _bytToRS$[ebp]
  001ae	52		 push	 edx
  001af	e8 00 00 00 00	 call	 _RSEncode
  001b4	83 c4 10	 add	 esp, 16			; 00000010H

; 1428 : 
; 1429 :  			//  Need: (2 bytes for Frame Type) +( Data + RS + 1 byte byteCount + 2 Byte CRC per carrier)
; 1430 : 
; 1431 :  			intEncodedDataPtr += intDataLen + 3 + intRSLen;

  001b7	8b 45 d0	 mov	 eax, DWORD PTR _intRSLen$[ebp]
  001ba	8b 4d dc	 mov	 ecx, DWORD PTR _intDataLen$[ebp]
  001bd	8d 54 01 03	 lea	 edx, DWORD PTR [ecx+eax+3]
  001c1	03 55 b8	 add	 edx, DWORD PTR _intEncodedDataPtr$[ebp]
  001c4	89 55 b8	 mov	 DWORD PTR _intEncodedDataPtr$[ebp], edx

; 1432 : 
; 1433 : 			bytToRS += intDataLen + 3 + intRSLen;

  001c7	8b 45 d0	 mov	 eax, DWORD PTR _intRSLen$[ebp]
  001ca	8b 4d dc	 mov	 ecx, DWORD PTR _intDataLen$[ebp]
  001cd	8d 54 01 03	 lea	 edx, DWORD PTR [ecx+eax+3]
  001d1	03 95 30 ff ff
	ff		 add	 edx, DWORD PTR _bytToRS$[ebp]
  001d7	89 95 30 ff ff
	ff		 mov	 DWORD PTR _bytToRS$[ebp], edx

; 1434 : 		}

  001dd	e9 f4 fe ff ff	 jmp	 $LN11@EncodeFSKD
$LN10@EncodeFSKD:

; 1435 : 		return intEncodedDataPtr;

  001e2	8b 45 b8	 mov	 eax, DWORD PTR _intEncodedDataPtr$[ebp]
  001e5	e9 7d 01 00 00	 jmp	 $LN17@EncodeFSKD
$LN14@EncodeFSKD:

; 1436 : 	}
; 1437 : 
; 1438 : 	// special case for 600 baud 4FSK which has 600 byte data field sent as three sequencial (200 byte + 50 byte RS) groups
; 1439 : 
; 1440 : 	for (i = 0; i < 3; i++)		 // for three blocks of RS data

  001ea	c7 85 3c ff ff
	ff 00 00 00 00	 mov	 DWORD PTR _i$[ebp], 0
  001f4	eb 0f		 jmp	 SHORT $LN6@EncodeFSKD
$LN5@EncodeFSKD:
  001f6	8b 85 3c ff ff
	ff		 mov	 eax, DWORD PTR _i$[ebp]
  001fc	83 c0 01	 add	 eax, 1
  001ff	89 85 3c ff ff
	ff		 mov	 DWORD PTR _i$[ebp], eax
$LN6@EncodeFSKD:
  00205	83 bd 3c ff ff
	ff 03		 cmp	 DWORD PTR _i$[ebp], 3
  0020c	0f 8d 52 01 00
	00		 jge	 $LN4@EncodeFSKD

; 1441 : 	{
; 1442 : 		intCarDataCnt = Length - bytDataToSendLengthPtr;

  00212	8b 45 10	 mov	 eax, DWORD PTR _Length$[ebp]
  00215	2b 45 c4	 sub	 eax, DWORD PTR _bytDataToSendLengthPtr$[ebp]
  00218	89 45 ac	 mov	 DWORD PTR _intCarDataCnt$[ebp], eax

; 1443 : 			
; 1444 : 		if (intCarDataCnt >= intDataLen /3 ) // why not > ??

  0021b	8b 45 dc	 mov	 eax, DWORD PTR _intDataLen$[ebp]
  0021e	99		 cdq
  0021f	b9 03 00 00 00	 mov	 ecx, 3
  00224	f7 f9		 idiv	 ecx
  00226	39 45 ac	 cmp	 DWORD PTR _intCarDataCnt$[ebp], eax
  00229	7c 51		 jl	 SHORT $LN3@EncodeFSKD

; 1445 : 		{
; 1446 : 			// Won't all fit 
; 1447 : 
; 1448 : 			bytToRS[0] = intDataLen / 3;

  0022b	8b 45 dc	 mov	 eax, DWORD PTR _intDataLen$[ebp]
  0022e	99		 cdq
  0022f	b9 03 00 00 00	 mov	 ecx, 3
  00234	f7 f9		 idiv	 ecx
  00236	8b 95 30 ff ff
	ff		 mov	 edx, DWORD PTR _bytToRS$[ebp]
  0023c	88 02		 mov	 BYTE PTR [edx], al

; 1449 : 			intStartIndex = intEncodedDataPtr;

  0023e	8b 45 b8	 mov	 eax, DWORD PTR _intEncodedDataPtr$[ebp]
  00241	89 45 a0	 mov	 DWORD PTR _intStartIndex$[ebp], eax

; 1450 : 			memcpy(&bytToRS[1], &bytDataToSend[bytDataToSendLengthPtr], intDataLen / 3);

  00244	8b 45 dc	 mov	 eax, DWORD PTR _intDataLen$[ebp]
  00247	99		 cdq
  00248	b9 03 00 00 00	 mov	 ecx, 3
  0024d	f7 f9		 idiv	 ecx
  0024f	50		 push	 eax
  00250	8b 55 0c	 mov	 edx, DWORD PTR _bytDataToSend$[ebp]
  00253	03 55 c4	 add	 edx, DWORD PTR _bytDataToSendLengthPtr$[ebp]
  00256	52		 push	 edx
  00257	8b 85 30 ff ff
	ff		 mov	 eax, DWORD PTR _bytToRS$[ebp]
  0025d	83 c0 01	 add	 eax, 1
  00260	50		 push	 eax
  00261	e8 00 00 00 00	 call	 _memcpy
  00266	83 c4 0c	 add	 esp, 12			; 0000000cH

; 1451 : 			bytDataToSendLengthPtr += intDataLen /3;

  00269	8b 45 dc	 mov	 eax, DWORD PTR _intDataLen$[ebp]
  0026c	99		 cdq
  0026d	b9 03 00 00 00	 mov	 ecx, 3
  00272	f7 f9		 idiv	 ecx
  00274	03 45 c4	 add	 eax, DWORD PTR _bytDataToSendLengthPtr$[ebp]
  00277	89 45 c4	 mov	 DWORD PTR _bytDataToSendLengthPtr$[ebp], eax

; 1452 : 		}
; 1453 : 		else

  0027a	eb 37		 jmp	 SHORT $LN2@EncodeFSKD
$LN3@EncodeFSKD:

; 1454 : 		{
; 1455 : 			// Last bit
; 1456 : 
; 1457 : 			bytToRS[0] = intCarDataCnt;  // Could be 0 if insuffient data for # of carriers 

  0027c	8b 85 30 ff ff
	ff		 mov	 eax, DWORD PTR _bytToRS$[ebp]
  00282	8a 4d ac	 mov	 cl, BYTE PTR _intCarDataCnt$[ebp]
  00285	88 08		 mov	 BYTE PTR [eax], cl

; 1458 : 
; 1459 : 			if (intCarDataCnt > 0)

  00287	83 7d ac 00	 cmp	 DWORD PTR _intCarDataCnt$[ebp], 0
  0028b	7e 26		 jle	 SHORT $LN2@EncodeFSKD

; 1460 : 			{
; 1461 : 				memcpy(&bytToRS[1], &bytDataToSend[bytDataToSendLengthPtr], intCarDataCnt);

  0028d	8b 45 ac	 mov	 eax, DWORD PTR _intCarDataCnt$[ebp]
  00290	50		 push	 eax
  00291	8b 4d 0c	 mov	 ecx, DWORD PTR _bytDataToSend$[ebp]
  00294	03 4d c4	 add	 ecx, DWORD PTR _bytDataToSendLengthPtr$[ebp]
  00297	51		 push	 ecx
  00298	8b 95 30 ff ff
	ff		 mov	 edx, DWORD PTR _bytToRS$[ebp]
  0029e	83 c2 01	 add	 edx, 1
  002a1	52		 push	 edx
  002a2	e8 00 00 00 00	 call	 _memcpy
  002a7	83 c4 0c	 add	 esp, 12			; 0000000cH

; 1462 :                 bytDataToSendLengthPtr += intCarDataCnt;

  002aa	8b 45 c4	 mov	 eax, DWORD PTR _bytDataToSendLengthPtr$[ebp]
  002ad	03 45 ac	 add	 eax, DWORD PTR _intCarDataCnt$[ebp]
  002b0	89 45 c4	 mov	 DWORD PTR _bytDataToSendLengthPtr$[ebp], eax
$LN2@EncodeFSKD:

; 1463 : 			}	
; 1464 : 		}
; 1465 : 		GenCRC16FrameType(bytToRS, intDataLen / 3 + 1, bytFrameType); // calculate the CRC on the byte count + data bytes

  002b3	8a 45 08	 mov	 al, BYTE PTR _bytFrameType$[ebp]
  002b6	50		 push	 eax
  002b7	8b 45 dc	 mov	 eax, DWORD PTR _intDataLen$[ebp]
  002ba	99		 cdq
  002bb	b9 03 00 00 00	 mov	 ecx, 3
  002c0	f7 f9		 idiv	 ecx
  002c2	83 c0 01	 add	 eax, 1
  002c5	50		 push	 eax
  002c6	8b 95 30 ff ff
	ff		 mov	 edx, DWORD PTR _bytToRS$[ebp]
  002cc	52		 push	 edx
  002cd	e8 00 00 00 00	 call	 _GenCRC16FrameType
  002d2	83 c4 0c	 add	 esp, 12			; 0000000cH

; 1466 : 
; 1467 :  		RSEncode(bytToRS, bytToRS + intDataLen / 3 + 3, intDataLen / 3 + 3, intRSLen / 3);  // Generate the RS encoding ...now 14 bytes total

  002d5	8b 45 d0	 mov	 eax, DWORD PTR _intRSLen$[ebp]
  002d8	99		 cdq
  002d9	b9 03 00 00 00	 mov	 ecx, 3
  002de	f7 f9		 idiv	 ecx
  002e0	50		 push	 eax
  002e1	8b 45 dc	 mov	 eax, DWORD PTR _intDataLen$[ebp]
  002e4	99		 cdq
  002e5	b9 03 00 00 00	 mov	 ecx, 3
  002ea	f7 f9		 idiv	 ecx
  002ec	83 c0 03	 add	 eax, 3
  002ef	50		 push	 eax
  002f0	8b 45 dc	 mov	 eax, DWORD PTR _intDataLen$[ebp]
  002f3	99		 cdq
  002f4	b9 03 00 00 00	 mov	 ecx, 3
  002f9	f7 f9		 idiv	 ecx
  002fb	8b 95 30 ff ff
	ff		 mov	 edx, DWORD PTR _bytToRS$[ebp]
  00301	8d 44 02 03	 lea	 eax, DWORD PTR [edx+eax+3]
  00305	50		 push	 eax
  00306	8b 8d 30 ff ff
	ff		 mov	 ecx, DWORD PTR _bytToRS$[ebp]
  0030c	51		 push	 ecx
  0030d	e8 00 00 00 00	 call	 _RSEncode
  00312	83 c4 10	 add	 esp, 16			; 00000010H

; 1468 : 		intEncodedDataPtr += intDataLen / 3  + 3 + intRSLen / 3;

  00315	8b 45 dc	 mov	 eax, DWORD PTR _intDataLen$[ebp]
  00318	99		 cdq
  00319	b9 03 00 00 00	 mov	 ecx, 3
  0031e	f7 f9		 idiv	 ecx
  00320	8b c8		 mov	 ecx, eax
  00322	8b 45 d0	 mov	 eax, DWORD PTR _intRSLen$[ebp]
  00325	99		 cdq
  00326	be 03 00 00 00	 mov	 esi, 3
  0032b	f7 fe		 idiv	 esi
  0032d	03 45 b8	 add	 eax, DWORD PTR _intEncodedDataPtr$[ebp]
  00330	8d 54 08 03	 lea	 edx, DWORD PTR [eax+ecx+3]
  00334	89 55 b8	 mov	 DWORD PTR _intEncodedDataPtr$[ebp], edx

; 1469 : 		bytToRS += intDataLen / 3  + 3 + intRSLen / 3;

  00337	8b 45 dc	 mov	 eax, DWORD PTR _intDataLen$[ebp]
  0033a	99		 cdq
  0033b	b9 03 00 00 00	 mov	 ecx, 3
  00340	f7 f9		 idiv	 ecx
  00342	8b c8		 mov	 ecx, eax
  00344	8b 45 d0	 mov	 eax, DWORD PTR _intRSLen$[ebp]
  00347	99		 cdq
  00348	be 03 00 00 00	 mov	 esi, 3
  0034d	f7 fe		 idiv	 esi
  0034f	03 85 30 ff ff
	ff		 add	 eax, DWORD PTR _bytToRS$[ebp]
  00355	8d 54 08 03	 lea	 edx, DWORD PTR [eax+ecx+3]
  00359	89 95 30 ff ff
	ff		 mov	 DWORD PTR _bytToRS$[ebp], edx

; 1470 : 	}		

  0035f	e9 92 fe ff ff	 jmp	 $LN5@EncodeFSKD
$LN4@EncodeFSKD:

; 1471 : 	return intEncodedDataPtr;

  00364	8b 45 b8	 mov	 eax, DWORD PTR _intEncodedDataPtr$[ebp]
$LN17@EncodeFSKD:

; 1472 : }

  00367	52		 push	 edx
  00368	8b cd		 mov	 ecx, ebp
  0036a	50		 push	 eax
  0036b	8d 15 00 00 00
	00		 lea	 edx, DWORD PTR $LN28@EncodeFSKD
  00371	e8 00 00 00 00	 call	 @_RTC_CheckStackVars@8
  00376	58		 pop	 eax
  00377	5a		 pop	 edx
  00378	5f		 pop	 edi
  00379	5e		 pop	 esi
  0037a	5b		 pop	 ebx
  0037b	8b 4d fc	 mov	 ecx, DWORD PTR __$ArrayPad$[ebp]
  0037e	33 cd		 xor	 ecx, ebp
  00380	e8 00 00 00 00	 call	 @__security_check_cookie@4
  00385	81 c4 94 01 00
	00		 add	 esp, 404		; 00000194H
  0038b	3b ec		 cmp	 ebp, esp
  0038d	e8 00 00 00 00	 call	 __RTC_CheckEsp
  00392	8b e5		 mov	 esp, ebp
  00394	5d		 pop	 ebp
  00395	c3		 ret	 0
  00396	8b ff		 npad	 2
$LN28@EncodeFSKD:
  00398	08 00 00 00	 DD	 8
  0039c	00 00 00 00	 DD	 $LN27@EncodeFSKD
$LN27@EncodeFSKD:
  003a0	f4 ff ff ff	 DD	 -12			; fffffff4H
  003a4	04 00 00 00	 DD	 4
  003a8	00 00 00 00	 DD	 $LN19@EncodeFSKD
  003ac	e8 ff ff ff	 DD	 -24			; ffffffe8H
  003b0	04 00 00 00	 DD	 4
  003b4	00 00 00 00	 DD	 $LN20@EncodeFSKD
  003b8	dc ff ff ff	 DD	 -36			; ffffffdcH
  003bc	04 00 00 00	 DD	 4
  003c0	00 00 00 00	 DD	 $LN21@EncodeFSKD
  003c4	d0 ff ff ff	 DD	 -48			; ffffffd0H
  003c8	04 00 00 00	 DD	 4
  003cc	00 00 00 00	 DD	 $LN22@EncodeFSKD
  003d0	94 ff ff ff	 DD	 -108			; ffffff94H
  003d4	04 00 00 00	 DD	 4
  003d8	00 00 00 00	 DD	 $LN23@EncodeFSKD
  003dc	78 ff ff ff	 DD	 -136			; ffffff78H
  003e0	12 00 00 00	 DD	 18			; 00000012H
  003e4	00 00 00 00	 DD	 $LN24@EncodeFSKD
  003e8	60 ff ff ff	 DD	 -160			; ffffff60H
  003ec	10 00 00 00	 DD	 16			; 00000010H
  003f0	00 00 00 00	 DD	 $LN25@EncodeFSKD
  003f4	4b ff ff ff	 DD	 -181			; ffffff4bH
  003f8	01 00 00 00	 DD	 1
  003fc	00 00 00 00	 DD	 $LN26@EncodeFSKD
$LN26@EncodeFSKD:
  00400	62		 DB	 98			; 00000062H
  00401	79		 DB	 121			; 00000079H
  00402	74		 DB	 116			; 00000074H
  00403	51		 DB	 81			; 00000051H
  00404	75		 DB	 117			; 00000075H
  00405	61		 DB	 97			; 00000061H
  00406	6c		 DB	 108			; 0000006cH
  00407	54		 DB	 84			; 00000054H
  00408	68		 DB	 104			; 00000068H
  00409	72		 DB	 114			; 00000072H
  0040a	65		 DB	 101			; 00000065H
  0040b	73		 DB	 115			; 00000073H
  0040c	68		 DB	 104			; 00000068H
  0040d	00		 DB	 0
$LN25@EncodeFSKD:
  0040e	73		 DB	 115			; 00000073H
  0040f	74		 DB	 116			; 00000074H
  00410	72		 DB	 114			; 00000072H
  00411	4d		 DB	 77			; 0000004dH
  00412	6f		 DB	 111			; 0000006fH
  00413	64		 DB	 100			; 00000064H
  00414	00		 DB	 0
$LN24@EncodeFSKD:
  00415	73		 DB	 115			; 00000073H
  00416	74		 DB	 116			; 00000074H
  00417	72		 DB	 114			; 00000072H
  00418	54		 DB	 84			; 00000054H
  00419	79		 DB	 121			; 00000079H
  0041a	70		 DB	 112			; 00000070H
  0041b	65		 DB	 101			; 00000065H
  0041c	00		 DB	 0
$LN23@EncodeFSKD:
  0041d	62		 DB	 98			; 00000062H
  0041e	6c		 DB	 108			; 0000006cH
  0041f	6e		 DB	 110			; 0000006eH
  00420	4f		 DB	 79			; 0000004fH
  00421	64		 DB	 100			; 00000064H
  00422	64		 DB	 100			; 00000064H
  00423	00		 DB	 0
$LN22@EncodeFSKD:
  00424	69		 DB	 105			; 00000069H
  00425	6e		 DB	 110			; 0000006eH
  00426	74		 DB	 116			; 00000074H
  00427	52		 DB	 82			; 00000052H
  00428	53		 DB	 83			; 00000053H
  00429	4c		 DB	 76			; 0000004cH
  0042a	65		 DB	 101			; 00000065H
  0042b	6e		 DB	 110			; 0000006eH
  0042c	00		 DB	 0
$LN21@EncodeFSKD:
  0042d	69		 DB	 105			; 00000069H
  0042e	6e		 DB	 110			; 0000006eH
  0042f	74		 DB	 116			; 00000074H
  00430	44		 DB	 68			; 00000044H
  00431	61		 DB	 97			; 00000061H
  00432	74		 DB	 116			; 00000074H
  00433	61		 DB	 97			; 00000061H
  00434	4c		 DB	 76			; 0000004cH
  00435	65		 DB	 101			; 00000065H
  00436	6e		 DB	 110			; 0000006eH
  00437	00		 DB	 0
$LN20@EncodeFSKD:
  00438	69		 DB	 105			; 00000069H
  00439	6e		 DB	 110			; 0000006eH
  0043a	74		 DB	 116			; 00000074H
  0043b	42		 DB	 66			; 00000042H
  0043c	61		 DB	 97			; 00000061H
  0043d	75		 DB	 117			; 00000075H
  0043e	64		 DB	 100			; 00000064H
  0043f	00		 DB	 0
$LN19@EncodeFSKD:
  00440	69		 DB	 105			; 00000069H
  00441	6e		 DB	 110			; 0000006eH
  00442	74		 DB	 116			; 00000074H
  00443	4e		 DB	 78			; 0000004eH
  00444	75		 DB	 117			; 00000075H
  00445	6d		 DB	 109			; 0000006dH
  00446	43		 DB	 67			; 00000043H
  00447	61		 DB	 97			; 00000061H
  00448	72		 DB	 114			; 00000072H
  00449	00		 DB	 0
_EncodeFSKData ENDP
_TEXT	ENDS
PUBLIC	_CompressCallsign
PUBLIC	??_C@_02NBMCHJGB@CQ?$AA@			; `string'
PUBLIC	_EncodeARQConRequest
EXTRN	_strcmp:PROC
;	COMDAT ??_C@_02NBMCHJGB@CQ?$AA@
CONST	SEGMENT
??_C@_02NBMCHJGB@CQ?$AA@ DB 'CQ', 00H			; `string'
; Function compile flags: /Odtp /RTCsu /ZI
CONST	ENDS
;	COMDAT _EncodeARQConRequest
_TEXT	SEGMENT
_bytToRS$ = -8						; size = 4
_strMyCallsign$ = 8					; size = 4
_strTargetCallsign$ = 12				; size = 4
_ARQBandwidth$ = 16					; size = 4
_bytReturn$ = 20					; size = 4
_EncodeARQConRequest PROC				; COMDAT

; 1477 : {

  00000	55		 push	 ebp
  00001	8b ec		 mov	 ebp, esp
  00003	81 ec cc 00 00
	00		 sub	 esp, 204		; 000000ccH
  00009	53		 push	 ebx
  0000a	56		 push	 esi
  0000b	57		 push	 edi
  0000c	8d bd 34 ff ff
	ff		 lea	 edi, DWORD PTR [ebp-204]
  00012	b9 33 00 00 00	 mov	 ecx, 51			; 00000033H
  00017	b8 cc cc cc cc	 mov	 eax, -858993460		; ccccccccH
  0001c	f3 ab		 rep stosd

; 1478 : 	//  Encodes a 4FSK 200 Hz BW Connect Request frame ( ~ 1950 ms with default leader/trailer)
; 1479 : 
; 1480 : 	UCHAR * bytToRS= &bytReturn[2];

  0001e	8b 45 14	 mov	 eax, DWORD PTR _bytReturn$[ebp]
  00021	83 c0 02	 add	 eax, 2
  00024	89 45 f8	 mov	 DWORD PTR _bytToRS$[ebp], eax

; 1481 : 
; 1482 : 	if (strcmp(strTargetCallsign, "CQ") != 0)  // skip syntax checking for psuedo call "CQ"

  00027	68 00 00 00 00	 push	 OFFSET ??_C@_02NBMCHJGB@CQ?$AA@
  0002c	8b 45 0c	 mov	 eax, DWORD PTR _strTargetCallsign$[ebp]
  0002f	50		 push	 eax
  00030	e8 00 00 00 00	 call	 _strcmp
  00035	83 c4 08	 add	 esp, 8
  00038	85 c0		 test	 eax, eax
  0003a	74 3e		 je	 SHORT $LN20@EncodeARQC

; 1483 : 	{
; 1484 : 		if (!CheckValidCallsignSyntax(strMyCallsign))

  0003c	8b 45 08	 mov	 eax, DWORD PTR _strMyCallsign$[ebp]
  0003f	50		 push	 eax
  00040	e8 00 00 00 00	 call	 _CheckValidCallsignSyntax
  00045	83 c4 04	 add	 esp, 4
  00048	85 c0		 test	 eax, eax
  0004a	75 07		 jne	 SHORT $LN19@EncodeARQC

; 1485 : 		{
; 1486 : 			//Logs.Exception("[EncodeModulate.EncodeARQConnectRequest] Illegal Call sign syntax. MyCallsign = " & strMyCallsign & ", TargetCallsign = " & strTargetCallsign)
; 1487 : 
; 1488 : 			return 0;

  0004c	33 c0		 xor	 eax, eax
  0004e	e9 ec 00 00 00	 jmp	 $LN21@EncodeARQC
$LN19@EncodeARQC:

; 1489 : 		}
; 1490 : 		if (!CheckValidCallsignSyntax(strTargetCallsign) || !CheckValidCallsignSyntax(strMyCallsign))

  00053	8b 45 0c	 mov	 eax, DWORD PTR _strTargetCallsign$[ebp]
  00056	50		 push	 eax
  00057	e8 00 00 00 00	 call	 _CheckValidCallsignSyntax
  0005c	83 c4 04	 add	 esp, 4
  0005f	85 c0		 test	 eax, eax
  00061	74 10		 je	 SHORT $LN17@EncodeARQC
  00063	8b 45 08	 mov	 eax, DWORD PTR _strMyCallsign$[ebp]
  00066	50		 push	 eax
  00067	e8 00 00 00 00	 call	 _CheckValidCallsignSyntax
  0006c	83 c4 04	 add	 esp, 4
  0006f	85 c0		 test	 eax, eax
  00071	75 07		 jne	 SHORT $LN20@EncodeARQC
$LN17@EncodeARQC:

; 1491 : 		{            
; 1492 : 			//Logs.Exception("[EncodeModulate.EncodeARQConnectRequest] Illegal Call sign syntax. MyCallsign = " & strMyCallsign & ", TargetCallsign = " & strTargetCallsign)
; 1493 : 			
; 1494 : 			return 0;

  00073	33 c0		 xor	 eax, eax
  00075	e9 c5 00 00 00	 jmp	 $LN21@EncodeARQC
$LN20@EncodeARQC:

; 1495 : 		}
; 1496 : 	}		
; 1497 : 	if (ARQBandwidth == B200MAX)

  0007a	83 7d 10 04	 cmp	 DWORD PTR _ARQBandwidth$[ebp], 4
  0007e	75 08		 jne	 SHORT $LN16@EncodeARQC

; 1498 : 		bytReturn[0] = 0x31;

  00080	8b 45 14	 mov	 eax, DWORD PTR _bytReturn$[ebp]
  00083	c6 00 31	 mov	 BYTE PTR [eax], 49	; 00000031H
  00086	eb 66		 jmp	 SHORT $LN15@EncodeARQC
$LN16@EncodeARQC:

; 1499 : 	else if (ARQBandwidth == B500MAX)

  00088	83 7d 10 05	 cmp	 DWORD PTR _ARQBandwidth$[ebp], 5
  0008c	75 08		 jne	 SHORT $LN14@EncodeARQC

; 1500 : 		bytReturn[0] = 0x32;

  0008e	8b 45 14	 mov	 eax, DWORD PTR _bytReturn$[ebp]
  00091	c6 00 32	 mov	 BYTE PTR [eax], 50	; 00000032H
  00094	eb 58		 jmp	 SHORT $LN15@EncodeARQC
$LN14@EncodeARQC:

; 1501 : 	else if (ARQBandwidth == B1000MAX)

  00096	83 7d 10 06	 cmp	 DWORD PTR _ARQBandwidth$[ebp], 6
  0009a	75 08		 jne	 SHORT $LN12@EncodeARQC

; 1502 : 		bytReturn[0] = 0x33;

  0009c	8b 45 14	 mov	 eax, DWORD PTR _bytReturn$[ebp]
  0009f	c6 00 33	 mov	 BYTE PTR [eax], 51	; 00000033H
  000a2	eb 4a		 jmp	 SHORT $LN15@EncodeARQC
$LN12@EncodeARQC:

; 1503 : 	else if (ARQBandwidth == B2000MAX)

  000a4	83 7d 10 07	 cmp	 DWORD PTR _ARQBandwidth$[ebp], 7
  000a8	75 08		 jne	 SHORT $LN10@EncodeARQC

; 1504 : 		bytReturn[0] = 0x34;

  000aa	8b 45 14	 mov	 eax, DWORD PTR _bytReturn$[ebp]
  000ad	c6 00 34	 mov	 BYTE PTR [eax], 52	; 00000034H
  000b0	eb 3c		 jmp	 SHORT $LN15@EncodeARQC
$LN10@EncodeARQC:

; 1505 : 
; 1506 : 	else if (ARQBandwidth == B200FORCED)

  000b2	83 7d 10 00	 cmp	 DWORD PTR _ARQBandwidth$[ebp], 0
  000b6	75 08		 jne	 SHORT $LN8@EncodeARQC

; 1507 : 		bytReturn[0] = 0x35;

  000b8	8b 45 14	 mov	 eax, DWORD PTR _bytReturn$[ebp]
  000bb	c6 00 35	 mov	 BYTE PTR [eax], 53	; 00000035H
  000be	eb 2e		 jmp	 SHORT $LN15@EncodeARQC
$LN8@EncodeARQC:

; 1508 : 	else if (ARQBandwidth == B500FORCED)

  000c0	83 7d 10 01	 cmp	 DWORD PTR _ARQBandwidth$[ebp], 1
  000c4	75 08		 jne	 SHORT $LN6@EncodeARQC

; 1509 : 		bytReturn[0] = 0x36;

  000c6	8b 45 14	 mov	 eax, DWORD PTR _bytReturn$[ebp]
  000c9	c6 00 36	 mov	 BYTE PTR [eax], 54	; 00000036H
  000cc	eb 20		 jmp	 SHORT $LN15@EncodeARQC
$LN6@EncodeARQC:

; 1510 : 	else if (ARQBandwidth == B1000FORCED)

  000ce	83 7d 10 02	 cmp	 DWORD PTR _ARQBandwidth$[ebp], 2
  000d2	75 08		 jne	 SHORT $LN4@EncodeARQC

; 1511 : 		bytReturn[0] = 0x37;

  000d4	8b 45 14	 mov	 eax, DWORD PTR _bytReturn$[ebp]
  000d7	c6 00 37	 mov	 BYTE PTR [eax], 55	; 00000037H
  000da	eb 12		 jmp	 SHORT $LN15@EncodeARQC
$LN4@EncodeARQC:

; 1512 : 	else if (ARQBandwidth == B2000FORCED)

  000dc	83 7d 10 03	 cmp	 DWORD PTR _ARQBandwidth$[ebp], 3
  000e0	75 08		 jne	 SHORT $LN2@EncodeARQC

; 1513 : 		bytReturn[0] = 0x38;

  000e2	8b 45 14	 mov	 eax, DWORD PTR _bytReturn$[ebp]
  000e5	c6 00 38	 mov	 BYTE PTR [eax], 56	; 00000038H

; 1514 : 	else

  000e8	eb 04		 jmp	 SHORT $LN15@EncodeARQC
$LN2@EncodeARQC:

; 1515 : 	{
; 1516 : 		//Logs.Exception("[EncodeModulate.EncodeFSK500_1S] Bandwidth error.  Bandwidth = " & strBandwidth)
; 1517 : 		return 0;

  000ea	33 c0		 xor	 eax, eax
  000ec	eb 51		 jmp	 SHORT $LN21@EncodeARQC
$LN15@EncodeARQC:

; 1518 : 	}
; 1519 : 
; 1520 : 	bytReturn[1] = bytReturn[0] ^ 0xFF;  // Connect Request always uses session ID of 0xFF

  000ee	8b 45 14	 mov	 eax, DWORD PTR _bytReturn$[ebp]
  000f1	0f b6 08	 movzx	 ecx, BYTE PTR [eax]
  000f4	81 f1 ff 00 00
	00		 xor	 ecx, 255		; 000000ffH
  000fa	8b 55 14	 mov	 edx, DWORD PTR _bytReturn$[ebp]
  000fd	88 4a 01	 mov	 BYTE PTR [edx+1], cl

; 1521 : 
; 1522 : 	// Modified May 24, 2015 to use RS instead of 2 byte CRC. (same as ID frame)
; 1523 : 
; 1524 : 	CompressCallsign(strMyCallsign, &bytToRS[0]);

  00100	8b 45 f8	 mov	 eax, DWORD PTR _bytToRS$[ebp]
  00103	50		 push	 eax
  00104	8b 4d 08	 mov	 ecx, DWORD PTR _strMyCallsign$[ebp]
  00107	51		 push	 ecx
  00108	e8 00 00 00 00	 call	 _CompressCallsign
  0010d	83 c4 08	 add	 esp, 8

; 1525 : 	CompressCallsign(strTargetCallsign, &bytToRS[6]);  //this uses compression to accept 4, 6, or 8 character Grid squares.

  00110	8b 45 f8	 mov	 eax, DWORD PTR _bytToRS$[ebp]
  00113	83 c0 06	 add	 eax, 6
  00116	50		 push	 eax
  00117	8b 4d 0c	 mov	 ecx, DWORD PTR _strTargetCallsign$[ebp]
  0011a	51		 push	 ecx
  0011b	e8 00 00 00 00	 call	 _CompressCallsign
  00120	83 c4 08	 add	 esp, 8

; 1526 : 
; 1527 : 	RSEncode(bytToRS, &bytReturn[14], 12, 4);  // Generate the RS encoding ...now 14 bytes total

  00123	6a 04		 push	 4
  00125	6a 0c		 push	 12			; 0000000cH
  00127	8b 45 14	 mov	 eax, DWORD PTR _bytReturn$[ebp]
  0012a	83 c0 0e	 add	 eax, 14			; 0000000eH
  0012d	50		 push	 eax
  0012e	8b 4d f8	 mov	 ecx, DWORD PTR _bytToRS$[ebp]
  00131	51		 push	 ecx
  00132	e8 00 00 00 00	 call	 _RSEncode
  00137	83 c4 10	 add	 esp, 16			; 00000010H

; 1528 :  
; 1529 : 	return 18;

  0013a	b8 12 00 00 00	 mov	 eax, 18			; 00000012H
$LN21@EncodeARQC:

; 1530 : }

  0013f	5f		 pop	 edi
  00140	5e		 pop	 esi
  00141	5b		 pop	 ebx
  00142	81 c4 cc 00 00
	00		 add	 esp, 204		; 000000ccH
  00148	3b ec		 cmp	 ebp, esp
  0014a	e8 00 00 00 00	 call	 __RTC_CheckEsp
  0014f	8b e5		 mov	 esp, ebp
  00151	5d		 pop	 ebp
  00152	c3		 ret	 0
_EncodeARQConRequest ENDP
_TEXT	ENDS
PUBLIC	_CompressGridSquare
PUBLIC	_Encode4FSKIDFrame
; Function compile flags: /Odtp /RTCsu /ZI
;	COMDAT _Encode4FSKIDFrame
_TEXT	SEGMENT
_bytToRS$ = -8						; size = 4
_Callsign$ = 8						; size = 4
_Square$ = 12						; size = 4
_bytreturn$ = 16					; size = 4
_Encode4FSKIDFrame PROC					; COMDAT

; 1535 : {

  00000	55		 push	 ebp
  00001	8b ec		 mov	 ebp, esp
  00003	81 ec cc 00 00
	00		 sub	 esp, 204		; 000000ccH
  00009	53		 push	 ebx
  0000a	56		 push	 esi
  0000b	57		 push	 edi
  0000c	8d bd 34 ff ff
	ff		 lea	 edi, DWORD PTR [ebp-204]
  00012	b9 33 00 00 00	 mov	 ecx, 51			; 00000033H
  00017	b8 cc cc cc cc	 mov	 eax, -858993460		; ccccccccH
  0001c	f3 ab		 rep stosd

; 1536 : 	// Function to encodes ID frame 
; 1537 : 	// returns length of encoded message 
; 1538 : 
; 1539 : 	UCHAR * bytToRS= &bytreturn[2];

  0001e	8b 45 10	 mov	 eax, DWORD PTR _bytreturn$[ebp]
  00021	83 c0 02	 add	 eax, 2
  00024	89 45 f8	 mov	 DWORD PTR _bytToRS$[ebp], eax

; 1540 : 
; 1541 : 	 if (!CheckValidCallsignSyntax(Callsign))

  00027	8b 45 08	 mov	 eax, DWORD PTR _Callsign$[ebp]
  0002a	50		 push	 eax
  0002b	e8 00 00 00 00	 call	 _CheckValidCallsignSyntax
  00030	83 c4 04	 add	 esp, 4
  00033	85 c0		 test	 eax, eax
  00035	75 04		 jne	 SHORT $LN2@Encode4FSK

; 1542 : 	 {
; 1543 : 		//       Logs.Exception("[EncodeModulate.EncodeIDFrame] Illegal Callsign syntax or Gridsquare length. MyCallsign = " & strMyCallsign & ", Gridsquare = " & strGridSquare)
; 1544 : 		
; 1545 : 		 return 0;

  00037	33 c0		 xor	 eax, eax
  00039	eb 56		 jmp	 SHORT $LN3@Encode4FSK
$LN2@Encode4FSK:

; 1546 : 	 }
; 1547 : 
; 1548 : 	bytreturn[0] = 0x30;

  0003b	8b 45 10	 mov	 eax, DWORD PTR _bytreturn$[ebp]
  0003e	c6 00 30	 mov	 BYTE PTR [eax], 48	; 00000030H

; 1549 : 	bytreturn[1] = 0x30 ^ 0xFF;

  00041	8b 45 10	 mov	 eax, DWORD PTR _bytreturn$[ebp]
  00044	c6 40 01 cf	 mov	 BYTE PTR [eax+1], 207	; 000000cfH

; 1550 : 
; 1551 : 	// Modified May 9, 2015 to use RS instead of 2 byte CRC.
; 1552 :        
; 1553 : 	CompressCallsign(Callsign, &bytToRS[0]);

  00048	8b 45 f8	 mov	 eax, DWORD PTR _bytToRS$[ebp]
  0004b	50		 push	 eax
  0004c	8b 4d 08	 mov	 ecx, DWORD PTR _Callsign$[ebp]
  0004f	51		 push	 ecx
  00050	e8 00 00 00 00	 call	 _CompressCallsign
  00055	83 c4 08	 add	 esp, 8

; 1554 : 
; 1555 :     if (Square[0])

  00058	8b 45 0c	 mov	 eax, DWORD PTR _Square$[ebp]
  0005b	0f be 08	 movsx	 ecx, BYTE PTR [eax]
  0005e	85 c9		 test	 ecx, ecx
  00060	74 13		 je	 SHORT $LN1@Encode4FSK

; 1556 : 		CompressGridSquare(Square, &bytToRS[6]);  //this uses compression to accept 4, 6, or 8 character Grid squares.

  00062	8b 45 f8	 mov	 eax, DWORD PTR _bytToRS$[ebp]
  00065	83 c0 06	 add	 eax, 6
  00068	50		 push	 eax
  00069	8b 4d 0c	 mov	 ecx, DWORD PTR _Square$[ebp]
  0006c	51		 push	 ecx
  0006d	e8 00 00 00 00	 call	 _CompressGridSquare
  00072	83 c4 08	 add	 esp, 8
$LN1@Encode4FSK:

; 1557 : 
; 1558 : 	RSEncode(bytToRS, &bytreturn[14], 12, 4);  // Generate the RS encoding ...now 14 bytes total

  00075	6a 04		 push	 4
  00077	6a 0c		 push	 12			; 0000000cH
  00079	8b 45 10	 mov	 eax, DWORD PTR _bytreturn$[ebp]
  0007c	83 c0 0e	 add	 eax, 14			; 0000000eH
  0007f	50		 push	 eax
  00080	8b 4d f8	 mov	 ecx, DWORD PTR _bytToRS$[ebp]
  00083	51		 push	 ecx
  00084	e8 00 00 00 00	 call	 _RSEncode
  00089	83 c4 10	 add	 esp, 16			; 00000010H

; 1559 : 
; 1560 : 	return 18;

  0008c	b8 12 00 00 00	 mov	 eax, 18			; 00000012H
$LN3@Encode4FSK:

; 1561 : }

  00091	5f		 pop	 edi
  00092	5e		 pop	 esi
  00093	5b		 pop	 ebx
  00094	81 c4 cc 00 00
	00		 add	 esp, 204		; 000000ccH
  0009a	3b ec		 cmp	 ebp, esp
  0009c	e8 00 00 00 00	 call	 __RTC_CheckEsp
  000a1	8b e5		 mov	 esp, ebp
  000a3	5d		 pop	 ebp
  000a4	c3		 ret	 0
_Encode4FSKIDFrame ENDP
_TEXT	ENDS
PUBLIC	_Encode4FSKControl
; Function compile flags: /Odtp /RTCsu /ZI
;	COMDAT _Encode4FSKControl
_TEXT	SEGMENT
_bytFrameType$ = 8					; size = 1
_bytSessionID$ = 12					; size = 1
_bytreturn$ = 16					; size = 4
_Encode4FSKControl PROC					; COMDAT

; 1566 : {

  00000	55		 push	 ebp
  00001	8b ec		 mov	 ebp, esp
  00003	81 ec c0 00 00
	00		 sub	 esp, 192		; 000000c0H
  00009	53		 push	 ebx
  0000a	56		 push	 esi
  0000b	57		 push	 edi
  0000c	8d bd 40 ff ff
	ff		 lea	 edi, DWORD PTR [ebp-192]
  00012	b9 30 00 00 00	 mov	 ecx, 48			; 00000030H
  00017	b8 cc cc cc cc	 mov	 eax, -858993460		; ccccccccH
  0001c	f3 ab		 rep stosd

; 1567 : 	// Encodes a short control frame (normal length ~320 ms with default 160 ms leader+trailer) 
; 1568 :     
; 1569 : 	//If IsShortControlFrame(intFrameCode) Then
; 1570 :     //        Logs.Exception("[EncodeModulate.EncodeFSKControl] Illegal control frame code: H" & Format(intFrameCode, "X"))
; 1571 :     //        return Nothing
; 1572 :     //    End If
; 1573 : 
; 1574 : 	bytreturn[0] = bytFrameType;

  0001e	8b 45 10	 mov	 eax, DWORD PTR _bytreturn$[ebp]
  00021	8a 4d 08	 mov	 cl, BYTE PTR _bytFrameType$[ebp]
  00024	88 08		 mov	 BYTE PTR [eax], cl

; 1575 : 	bytreturn[1] = bytFrameType ^ bytSessionID;

  00026	0f b6 45 08	 movzx	 eax, BYTE PTR _bytFrameType$[ebp]
  0002a	0f b6 4d 0c	 movzx	 ecx, BYTE PTR _bytSessionID$[ebp]
  0002e	33 c1		 xor	 eax, ecx
  00030	8b 55 10	 mov	 edx, DWORD PTR _bytreturn$[ebp]
  00033	88 42 01	 mov	 BYTE PTR [edx+1], al

; 1576 : 
; 1577 : 	return 2;		// Length

  00036	b8 02 00 00 00	 mov	 eax, 2

; 1578 : }

  0003b	5f		 pop	 edi
  0003c	5e		 pop	 esi
  0003d	5b		 pop	 ebx
  0003e	8b e5		 mov	 esp, ebp
  00040	5d		 pop	 ebp
  00041	c3		 ret	 0
_Encode4FSKControl ENDP
_TEXT	ENDS
PUBLIC	_EncodeConACKwTiming
; Function compile flags: /Odtp /RTCsu /ZI
;	COMDAT _EncodeConACKwTiming
_TEXT	SEGMENT
tv67 = -208						; size = 4
_bytTiming$ = -5					; size = 1
_bytFrameType$ = 8					; size = 1
_intRcvdLeaderLenMs$ = 12				; size = 4
_bytSessionID$ = 16					; size = 1
_bytreturn$ = 20					; size = 4
_EncodeConACKwTiming PROC				; COMDAT

; 1583 : {

  00000	55		 push	 ebp
  00001	8b ec		 mov	 ebp, esp
  00003	81 ec d0 00 00
	00		 sub	 esp, 208		; 000000d0H
  00009	53		 push	 ebx
  0000a	56		 push	 esi
  0000b	57		 push	 edi
  0000c	8d bd 30 ff ff
	ff		 lea	 edi, DWORD PTR [ebp-208]
  00012	b9 34 00 00 00	 mov	 ecx, 52			; 00000034H
  00017	b8 cc cc cc cc	 mov	 eax, -858993460		; ccccccccH
  0001c	f3 ab		 rep stosd

; 1584 : 	// Encodes a Connect ACK with one byte Timing info. (Timing info repeated 2 times for redundancy) 
; 1585 : 
; 1586 : 	//If intFrameCode < 0x39 Or intFrameCode > 0x3C Then
; 1587 :     //        Logs.Exception("[EncodeConACKwTiming] Illegal Frame code: " & Format(intFrameCode, "X"))
; 1588 :     //        return Nothing
; 1589 :     //    End If
; 1590 : 
; 1591 : 	UCHAR bytTiming = min(255, intRcvdLeaderLenMs / 10);  // convert to 10s of ms.

  0001e	8b 45 0c	 mov	 eax, DWORD PTR _intRcvdLeaderLenMs$[ebp]
  00021	99		 cdq
  00022	b9 0a 00 00 00	 mov	 ecx, 10			; 0000000aH
  00027	f7 f9		 idiv	 ecx
  00029	3d ff 00 00 00	 cmp	 eax, 255		; 000000ffH
  0002e	7e 0c		 jle	 SHORT $LN5@EncodeConA
  00030	c7 85 30 ff ff
	ff ff 00 00 00	 mov	 DWORD PTR tv67[ebp], 255 ; 000000ffH
  0003a	eb 11		 jmp	 SHORT $LN6@EncodeConA
$LN5@EncodeConA:
  0003c	8b 45 0c	 mov	 eax, DWORD PTR _intRcvdLeaderLenMs$[ebp]
  0003f	99		 cdq
  00040	b9 0a 00 00 00	 mov	 ecx, 10			; 0000000aH
  00045	f7 f9		 idiv	 ecx
  00047	89 85 30 ff ff
	ff		 mov	 DWORD PTR tv67[ebp], eax
$LN6@EncodeConA:
  0004d	8a 95 30 ff ff
	ff		 mov	 dl, BYTE PTR tv67[ebp]
  00053	88 55 fb	 mov	 BYTE PTR _bytTiming$[ebp], dl

; 1592 : 
; 1593 : 	if (intRcvdLeaderLenMs > 2550 || intRcvdLeaderLenMs < 0)

  00056	81 7d 0c f6 09
	00 00		 cmp	 DWORD PTR _intRcvdLeaderLenMs$[ebp], 2550 ; 000009f6H
  0005d	7f 06		 jg	 SHORT $LN1@EncodeConA
  0005f	83 7d 0c 00	 cmp	 DWORD PTR _intRcvdLeaderLenMs$[ebp], 0
  00063	7d 04		 jge	 SHORT $LN2@EncodeConA
$LN1@EncodeConA:

; 1594 : 	{
; 1595 : 		// Logs.Exception("[EncodeConACKwTiming] Timing value out of range: " & intRcvdLeaderLenMs.ToString & " continue with forced value = 0")
; 1596 :         bytTiming = 0;

  00065	c6 45 fb 00	 mov	 BYTE PTR _bytTiming$[ebp], 0
$LN2@EncodeConA:

; 1597 : 	}
; 1598 : 
; 1599 : 	bytreturn[0] = bytFrameType;

  00069	8b 45 14	 mov	 eax, DWORD PTR _bytreturn$[ebp]
  0006c	8a 4d 08	 mov	 cl, BYTE PTR _bytFrameType$[ebp]
  0006f	88 08		 mov	 BYTE PTR [eax], cl

; 1600 : 	bytreturn[1] = bytFrameType ^ bytSessionID;

  00071	0f b6 45 08	 movzx	 eax, BYTE PTR _bytFrameType$[ebp]
  00075	0f b6 4d 10	 movzx	 ecx, BYTE PTR _bytSessionID$[ebp]
  00079	33 c1		 xor	 eax, ecx
  0007b	8b 55 14	 mov	 edx, DWORD PTR _bytreturn$[ebp]
  0007e	88 42 01	 mov	 BYTE PTR [edx+1], al

; 1601 : 
; 1602 : 	bytreturn[2] = bytTiming;

  00081	8b 45 14	 mov	 eax, DWORD PTR _bytreturn$[ebp]
  00084	8a 4d fb	 mov	 cl, BYTE PTR _bytTiming$[ebp]
  00087	88 48 02	 mov	 BYTE PTR [eax+2], cl

; 1603 : 	bytreturn[3] = bytTiming;

  0008a	8b 45 14	 mov	 eax, DWORD PTR _bytreturn$[ebp]
  0008d	8a 4d fb	 mov	 cl, BYTE PTR _bytTiming$[ebp]
  00090	88 48 03	 mov	 BYTE PTR [eax+3], cl

; 1604 : 
; 1605 : 	return 4;

  00093	b8 04 00 00 00	 mov	 eax, 4

; 1606 : }

  00098	5f		 pop	 edi
  00099	5e		 pop	 esi
  0009a	5b		 pop	 ebx
  0009b	8b e5		 mov	 esp, ebp
  0009d	5d		 pop	 ebp
  0009e	c3		 ret	 0
_EncodeConACKwTiming ENDP
_TEXT	ENDS
PUBLIC	_EncodeDATAACK
; Function compile flags: /Odtp /RTCsu /ZI
;	COMDAT _EncodeDATAACK
_TEXT	SEGMENT
tv70 = -208						; size = 4
_intScaledQuality$ = -8					; size = 4
_intQuality$ = 8					; size = 4
_bytSessionID$ = 12					; size = 1
_bytreturn$ = 16					; size = 4
_EncodeDATAACK PROC					; COMDAT

; 1611 : {

  00000	55		 push	 ebp
  00001	8b ec		 mov	 ebp, esp
  00003	81 ec d0 00 00
	00		 sub	 esp, 208		; 000000d0H
  00009	53		 push	 ebx
  0000a	56		 push	 esi
  0000b	57		 push	 edi
  0000c	8d bd 30 ff ff
	ff		 lea	 edi, DWORD PTR [ebp-208]
  00012	b9 34 00 00 00	 mov	 ecx, 52			; 00000034H
  00017	b8 cc cc cc cc	 mov	 eax, -858993460		; ccccccccH
  0001c	f3 ab		 rep stosd

; 1612 : 	// Encodes intQuality and DataACK frame (normal length ~320 ms with default leader/trailer)
; 1613 : 
; 1614 : 	int intScaledQuality;
; 1615 : 
; 1616 : 	if (intQuality > 100)

  0001e	83 7d 08 64	 cmp	 DWORD PTR _intQuality$[ebp], 100 ; 00000064H
  00022	7e 07		 jle	 SHORT $LN1@EncodeDATA

; 1617 : 		intQuality = 100;

  00024	c7 45 08 64 00
	00 00		 mov	 DWORD PTR _intQuality$[ebp], 100 ; 00000064H
$LN1@EncodeDATA:

; 1618 : 
; 1619 : 	intScaledQuality = max(0, (intQuality / 2) - 19); // scale quality value to fit 5 bit field of 0 represents Q <= of 38 (pretty poor)

  0002b	8b 45 08	 mov	 eax, DWORD PTR _intQuality$[ebp]
  0002e	99		 cdq
  0002f	2b c2		 sub	 eax, edx
  00031	d1 f8		 sar	 eax, 1
  00033	83 e8 13	 sub	 eax, 19			; 00000013H
  00036	79 0c		 jns	 SHORT $LN4@EncodeDATA
  00038	c7 85 30 ff ff
	ff 00 00 00 00	 mov	 DWORD PTR tv70[ebp], 0
  00042	eb 11		 jmp	 SHORT $LN5@EncodeDATA
$LN4@EncodeDATA:
  00044	8b 45 08	 mov	 eax, DWORD PTR _intQuality$[ebp]
  00047	99		 cdq
  00048	2b c2		 sub	 eax, edx
  0004a	d1 f8		 sar	 eax, 1
  0004c	83 e8 13	 sub	 eax, 19			; 00000013H
  0004f	89 85 30 ff ff
	ff		 mov	 DWORD PTR tv70[ebp], eax
$LN5@EncodeDATA:
  00055	8b 85 30 ff ff
	ff		 mov	 eax, DWORD PTR tv70[ebp]
  0005b	89 45 f8	 mov	 DWORD PTR _intScaledQuality$[ebp], eax

; 1620 : 	
; 1621 : 	bytreturn[0] = 0xE0 + intScaledQuality;		//ACKs 0xE0 - 0xFF

  0005e	8b 45 f8	 mov	 eax, DWORD PTR _intScaledQuality$[ebp]
  00061	05 e0 00 00 00	 add	 eax, 224		; 000000e0H
  00066	8b 4d 10	 mov	 ecx, DWORD PTR _bytreturn$[ebp]
  00069	88 01		 mov	 BYTE PTR [ecx], al

; 1622 : 	bytreturn[1] = bytreturn[0] ^ bytSessionID;

  0006b	8b 45 10	 mov	 eax, DWORD PTR _bytreturn$[ebp]
  0006e	0f b6 08	 movzx	 ecx, BYTE PTR [eax]
  00071	0f b6 55 0c	 movzx	 edx, BYTE PTR _bytSessionID$[ebp]
  00075	33 ca		 xor	 ecx, edx
  00077	8b 45 10	 mov	 eax, DWORD PTR _bytreturn$[ebp]
  0007a	88 48 01	 mov	 BYTE PTR [eax+1], cl

; 1623 : 
; 1624 : 	return 2;

  0007d	b8 02 00 00 00	 mov	 eax, 2

; 1625 : }

  00082	5f		 pop	 edi
  00083	5e		 pop	 esi
  00084	5b		 pop	 ebx
  00085	8b e5		 mov	 esp, ebp
  00087	5d		 pop	 ebp
  00088	c3		 ret	 0
_EncodeDATAACK ENDP
_TEXT	ENDS
PUBLIC	_EncodeDATANAK
; Function compile flags: /Odtp /RTCsu /ZI
;	COMDAT _EncodeDATANAK
_TEXT	SEGMENT
tv69 = -208						; size = 4
_intScaledQuality$ = -8					; size = 4
_intQuality$ = 8					; size = 4
_bytSessionID$ = 12					; size = 1
_bytreturn$ = 16					; size = 4
_EncodeDATANAK PROC					; COMDAT

; 1630 : {

  00000	55		 push	 ebp
  00001	8b ec		 mov	 ebp, esp
  00003	81 ec d0 00 00
	00		 sub	 esp, 208		; 000000d0H
  00009	53		 push	 ebx
  0000a	56		 push	 esi
  0000b	57		 push	 edi
  0000c	8d bd 30 ff ff
	ff		 lea	 edi, DWORD PTR [ebp-208]
  00012	b9 34 00 00 00	 mov	 ecx, 52			; 00000034H
  00017	b8 cc cc cc cc	 mov	 eax, -858993460		; ccccccccH
  0001c	f3 ab		 rep stosd

; 1631 : 	// Encodes intQuality and DataACK frame (normal length ~320 ms with default leader/trailer)
; 1632 : 
; 1633 : 	int intScaledQuality;
; 1634 : 
; 1635 : 	intScaledQuality = max(0, (intQuality / 2) - 19); // scale quality value to fit 5 bit field of 0 represents Q <= of 38 (pretty poor)

  0001e	8b 45 08	 mov	 eax, DWORD PTR _intQuality$[ebp]
  00021	99		 cdq
  00022	2b c2		 sub	 eax, edx
  00024	d1 f8		 sar	 eax, 1
  00026	83 e8 13	 sub	 eax, 19			; 00000013H
  00029	79 0c		 jns	 SHORT $LN3@EncodeDATA@2
  0002b	c7 85 30 ff ff
	ff 00 00 00 00	 mov	 DWORD PTR tv69[ebp], 0
  00035	eb 11		 jmp	 SHORT $LN4@EncodeDATA@2
$LN3@EncodeDATA@2:
  00037	8b 45 08	 mov	 eax, DWORD PTR _intQuality$[ebp]
  0003a	99		 cdq
  0003b	2b c2		 sub	 eax, edx
  0003d	d1 f8		 sar	 eax, 1
  0003f	83 e8 13	 sub	 eax, 19			; 00000013H
  00042	89 85 30 ff ff
	ff		 mov	 DWORD PTR tv69[ebp], eax
$LN4@EncodeDATA@2:
  00048	8b 85 30 ff ff
	ff		 mov	 eax, DWORD PTR tv69[ebp]
  0004e	89 45 f8	 mov	 DWORD PTR _intScaledQuality$[ebp], eax

; 1636 : 	
; 1637 : 	bytreturn[0] = intScaledQuality;		// NAKS 00 - 0x1F

  00051	8b 45 10	 mov	 eax, DWORD PTR _bytreturn$[ebp]
  00054	8a 4d f8	 mov	 cl, BYTE PTR _intScaledQuality$[ebp]
  00057	88 08		 mov	 BYTE PTR [eax], cl

; 1638 : 	bytreturn[1] = bytreturn[0] ^ bytSessionID;

  00059	8b 45 10	 mov	 eax, DWORD PTR _bytreturn$[ebp]
  0005c	0f b6 08	 movzx	 ecx, BYTE PTR [eax]
  0005f	0f b6 55 0c	 movzx	 edx, BYTE PTR _bytSessionID$[ebp]
  00063	33 ca		 xor	 ecx, edx
  00065	8b 45 10	 mov	 eax, DWORD PTR _bytreturn$[ebp]
  00068	88 48 01	 mov	 BYTE PTR [eax+1], cl

; 1639 : 
; 1640 : 	return 2;

  0006b	b8 02 00 00 00	 mov	 eax, 2

; 1641 : }

  00070	5f		 pop	 edi
  00071	5e		 pop	 esi
  00072	5b		 pop	 ebx
  00073	8b e5		 mov	 esp, ebp
  00075	5d		 pop	 ebp
  00076	c3		 ret	 0
_EncodeDATANAK ENDP
_TEXT	ENDS
PUBLIC	??_C@_03OJBHPKML@IDF?$AA@			; `string'
PUBLIC	??_C@_09FCIAPBKJ@?5?$CFs?3?$FL?$CFs?$FN?5?$AA@	; `string'
PUBLIC	??_C@_0N@KPLPPDHJ@?5?$CFs?3?$FLNo?5GS?$FN?5?$AA@ ; `string'
PUBLIC	??_C@_05CEHMOPDA@No?5GS?$AA@			; `string'
PUBLIC	__$ArrayPad$
PUBLIC	_SendID
EXTRN	_sendCWID:PROC
EXTRN	_Mod4FSKDataAndPlay:PROC
EXTRN	_AddTagToDataAndSendToHost:PROC
EXTRN	_sprintf:PROC
;	COMDAT ??_C@_03OJBHPKML@IDF?$AA@
CONST	SEGMENT
??_C@_03OJBHPKML@IDF?$AA@ DB 'IDF', 00H			; `string'
CONST	ENDS
;	COMDAT ??_C@_09FCIAPBKJ@?5?$CFs?3?$FL?$CFs?$FN?5?$AA@
CONST	SEGMENT
??_C@_09FCIAPBKJ@?5?$CFs?3?$FL?$CFs?$FN?5?$AA@ DB ' %s:[%s] ', 00H ; `string'
CONST	ENDS
;	COMDAT ??_C@_0N@KPLPPDHJ@?5?$CFs?3?$FLNo?5GS?$FN?5?$AA@
CONST	SEGMENT
??_C@_0N@KPLPPDHJ@?5?$CFs?3?$FLNo?5GS?$FN?5?$AA@ DB ' %s:[No GS] ', 00H ; `string'
CONST	ENDS
;	COMDAT ??_C@_05CEHMOPDA@No?5GS?$AA@
CONST	SEGMENT
??_C@_05CEHMOPDA@No?5GS?$AA@ DB 'No GS', 00H		; `string'
; Function compile flags: /Odtp /RTCsu /ZI
CONST	ENDS
;	COMDAT _SendID
_TEXT	SEGMENT
_Len$ = -100						; size = 4
_bytIDSent$ = -88					; size = 80
__$ArrayPad$ = -4					; size = 4
_blnEnableCWID$ = 8					; size = 4
_SendID	PROC						; COMDAT

; 1644 : {

  00000	55		 push	 ebp
  00001	8b ec		 mov	 ebp, esp
  00003	81 ec 28 01 00
	00		 sub	 esp, 296		; 00000128H
  00009	53		 push	 ebx
  0000a	56		 push	 esi
  0000b	57		 push	 edi
  0000c	8d bd d8 fe ff
	ff		 lea	 edi, DWORD PTR [ebp-296]
  00012	b9 4a 00 00 00	 mov	 ecx, 74			; 0000004aH
  00017	b8 cc cc cc cc	 mov	 eax, -858993460		; ccccccccH
  0001c	f3 ab		 rep stosd
  0001e	a1 00 00 00 00	 mov	 eax, DWORD PTR ___security_cookie
  00023	33 c5		 xor	 eax, ebp
  00025	89 45 fc	 mov	 DWORD PTR __$ArrayPad$[ebp], eax

; 1645 : 	unsigned char bytIDSent[80];
; 1646 : 	int Len;
; 1647 : 
; 1648 : 	// Scheduler needs to ensure this isnt called if already playing
; 1649 : 
; 1650 : 	if (SoundIsPlaying)

  00028	83 3d 00 00 00
	00 00		 cmp	 DWORD PTR _SoundIsPlaying, 0
  0002f	74 05		 je	 SHORT $LN4@SendID

; 1651 : 		return;

  00031	e9 bd 00 00 00	 jmp	 $LN5@SendID
$LN4@SendID:

; 1652 : 
; 1653 :     if (GridSquare[0] == 0)

  00036	0f be 05 00 00
	00 00		 movsx	 eax, BYTE PTR _GridSquare
  0003d	85 c0		 test	 eax, eax
  0003f	75 37		 jne	 SHORT $LN3@SendID

; 1654 : 	{
; 1655 : 		EncLen = Encode4FSKIDFrame(Callsign, "No GS", bytEncodedBytes);

  00041	68 00 00 00 00	 push	 OFFSET _bytEncodedBytes
  00046	68 00 00 00 00	 push	 OFFSET ??_C@_05CEHMOPDA@No?5GS?$AA@
  0004b	68 00 00 00 00	 push	 OFFSET _Callsign
  00050	e8 00 00 00 00	 call	 _Encode4FSKIDFrame
  00055	83 c4 0c	 add	 esp, 12			; 0000000cH
  00058	a3 00 00 00 00	 mov	 DWORD PTR _EncLen, eax

; 1656 : 		Len = sprintf(bytIDSent," %s:[No GS] ", Callsign);

  0005d	68 00 00 00 00	 push	 OFFSET _Callsign
  00062	68 00 00 00 00	 push	 OFFSET ??_C@_0N@KPLPPDHJ@?5?$CFs?3?$FLNo?5GS?$FN?5?$AA@
  00067	8d 45 a8	 lea	 eax, DWORD PTR _bytIDSent$[ebp]
  0006a	50		 push	 eax
  0006b	e8 00 00 00 00	 call	 _sprintf
  00070	83 c4 0c	 add	 esp, 12			; 0000000cH
  00073	89 45 9c	 mov	 DWORD PTR _Len$[ebp], eax

; 1657 : 	}
; 1658 : 	else

  00076	eb 3a		 jmp	 SHORT $LN2@SendID
$LN3@SendID:

; 1659 : 	{
; 1660 : 		EncLen = Encode4FSKIDFrame(Callsign, GridSquare, bytEncodedBytes);

  00078	68 00 00 00 00	 push	 OFFSET _bytEncodedBytes
  0007d	68 00 00 00 00	 push	 OFFSET _GridSquare
  00082	68 00 00 00 00	 push	 OFFSET _Callsign
  00087	e8 00 00 00 00	 call	 _Encode4FSKIDFrame
  0008c	83 c4 0c	 add	 esp, 12			; 0000000cH
  0008f	a3 00 00 00 00	 mov	 DWORD PTR _EncLen, eax

; 1661 : 		Len = sprintf(bytIDSent," %s:[%s] ", Callsign, GridSquare);

  00094	68 00 00 00 00	 push	 OFFSET _GridSquare
  00099	68 00 00 00 00	 push	 OFFSET _Callsign
  0009e	68 00 00 00 00	 push	 OFFSET ??_C@_09FCIAPBKJ@?5?$CFs?3?$FL?$CFs?$FN?5?$AA@
  000a3	8d 45 a8	 lea	 eax, DWORD PTR _bytIDSent$[ebp]
  000a6	50		 push	 eax
  000a7	e8 00 00 00 00	 call	 _sprintf
  000ac	83 c4 10	 add	 esp, 16			; 00000010H
  000af	89 45 9c	 mov	 DWORD PTR _Len$[ebp], eax
$LN2@SendID:

; 1662 : 	}
; 1663 : 
; 1664 : 	AddTagToDataAndSendToHost(bytIDSent, "IDF", Len);

  000b2	8b 45 9c	 mov	 eax, DWORD PTR _Len$[ebp]
  000b5	50		 push	 eax
  000b6	68 00 00 00 00	 push	 OFFSET ??_C@_03OJBHPKML@IDF?$AA@
  000bb	8d 4d a8	 lea	 ecx, DWORD PTR _bytIDSent$[ebp]
  000be	51		 push	 ecx
  000bf	e8 00 00 00 00	 call	 _AddTagToDataAndSendToHost
  000c4	83 c4 0c	 add	 esp, 12			; 0000000cH

; 1665 : 
; 1666 : 	// On embedded platforms we don't have the memory to create full sound stream before playiong,
; 1667 : 	// so this is structured differently from Rick's code
; 1668 : 
; 1669 : 	Mod4FSKDataAndPlay(0x30, &bytEncodedBytes[0], EncLen, 0);		// only returns when all sent

  000c7	6a 00		 push	 0
  000c9	a1 00 00 00 00	 mov	 eax, DWORD PTR _EncLen
  000ce	50		 push	 eax
  000cf	68 00 00 00 00	 push	 OFFSET _bytEncodedBytes
  000d4	6a 30		 push	 48			; 00000030H
  000d6	e8 00 00 00 00	 call	 _Mod4FSKDataAndPlay
  000db	83 c4 10	 add	 esp, 16			; 00000010H

; 1670 : 
; 1671 :     if (blnEnableCWID)

  000de	83 7d 08 00	 cmp	 DWORD PTR _blnEnableCWID$[ebp], 0
  000e2	74 0f		 je	 SHORT $LN5@SendID

; 1672 : 		sendCWID(Callsign, FALSE);

  000e4	6a 00		 push	 0
  000e6	68 00 00 00 00	 push	 OFFSET _Callsign
  000eb	e8 00 00 00 00	 call	 _sendCWID
  000f0	83 c4 08	 add	 esp, 8
$LN5@SendID:

; 1673 : 
; 1674 : }

  000f3	52		 push	 edx
  000f4	8b cd		 mov	 ecx, ebp
  000f6	50		 push	 eax
  000f7	8d 15 00 00 00
	00		 lea	 edx, DWORD PTR $LN9@SendID
  000fd	e8 00 00 00 00	 call	 @_RTC_CheckStackVars@8
  00102	58		 pop	 eax
  00103	5a		 pop	 edx
  00104	5f		 pop	 edi
  00105	5e		 pop	 esi
  00106	5b		 pop	 ebx
  00107	8b 4d fc	 mov	 ecx, DWORD PTR __$ArrayPad$[ebp]
  0010a	33 cd		 xor	 ecx, ebp
  0010c	e8 00 00 00 00	 call	 @__security_check_cookie@4
  00111	81 c4 28 01 00
	00		 add	 esp, 296		; 00000128H
  00117	3b ec		 cmp	 ebp, esp
  00119	e8 00 00 00 00	 call	 __RTC_CheckEsp
  0011e	8b e5		 mov	 esp, ebp
  00120	5d		 pop	 ebp
  00121	c3		 ret	 0
  00122	8b ff		 npad	 2
$LN9@SendID:
  00124	01 00 00 00	 DD	 1
  00128	00 00 00 00	 DD	 $LN8@SendID
$LN8@SendID:
  0012c	a8 ff ff ff	 DD	 -88			; ffffffa8H
  00130	50 00 00 00	 DD	 80			; 00000050H
  00134	00 00 00 00	 DD	 $LN7@SendID
$LN7@SendID:
  00138	62		 DB	 98			; 00000062H
  00139	79		 DB	 121			; 00000079H
  0013a	74		 DB	 116			; 00000074H
  0013b	49		 DB	 73			; 00000049H
  0013c	44		 DB	 68			; 00000044H
  0013d	53		 DB	 83			; 00000053H
  0013e	65		 DB	 101			; 00000065H
  0013f	6e		 DB	 110			; 0000006eH
  00140	74		 DB	 116			; 00000074H
  00141	00		 DB	 0
_SendID	ENDP
_TEXT	ENDS
PUBLIC	_Send5SecTwoTone
EXTRN	_SoundFlush:PROC
EXTRN	_GetTwoToneLeaderWithSync:PROC
EXTRN	_initFilter:PROC
; Function compile flags: /Odtp /RTCsu /ZI
;	COMDAT _Send5SecTwoTone
_TEXT	SEGMENT
_Send5SecTwoTone PROC					; COMDAT

; 1679 : {

  00000	55		 push	 ebp
  00001	8b ec		 mov	 ebp, esp
  00003	81 ec c0 00 00
	00		 sub	 esp, 192		; 000000c0H
  00009	53		 push	 ebx
  0000a	56		 push	 esi
  0000b	57		 push	 edi
  0000c	8d bd 40 ff ff
	ff		 lea	 edi, DWORD PTR [ebp-192]
  00012	b9 30 00 00 00	 mov	 ecx, 48			; 00000030H
  00017	b8 cc cc cc cc	 mov	 eax, -858993460		; ccccccccH
  0001c	f3 ab		 rep stosd

; 1680 : 	initFilter(200);

  0001e	68 c8 00 00 00	 push	 200			; 000000c8H
  00023	e8 00 00 00 00	 call	 _initFilter
  00028	83 c4 04	 add	 esp, 4

; 1681 : 	GetTwoToneLeaderWithSync(250);

  0002b	68 fa 00 00 00	 push	 250			; 000000faH
  00030	e8 00 00 00 00	 call	 _GetTwoToneLeaderWithSync
  00035	83 c4 04	 add	 esp, 4

; 1682 : //	SampleSink(0);	// 5 secs
; 1683 : 	SoundFlush();

  00038	e8 00 00 00 00	 call	 _SoundFlush

; 1684 : }

  0003d	5f		 pop	 edi
  0003e	5e		 pop	 esi
  0003f	5b		 pop	 ebx
  00040	81 c4 c0 00 00
	00		 add	 esp, 192		; 000000c0H
  00046	3b ec		 cmp	 ebp, esp
  00048	e8 00 00 00 00	 call	 __RTC_CheckEsp
  0004d	8b e5		 mov	 esp, ebp
  0004f	5d		 pop	 ebp
  00050	c3		 ret	 0
_Send5SecTwoTone ENDP
_TEXT	ENDS
PUBLIC	_ASCIIto6Bit
EXTRN	__aullshr:PROC
EXTRN	__allmul:PROC
; Function compile flags: /Odtp /RTCsu /ZI
;	COMDAT _ASCIIto6Bit
_TEXT	SEGMENT
_i$ = -24						; size = 4
_intSum$ = -12						; size = 8
_Padded$ = 8						; size = 4
_Compressed$ = 12					; size = 4
_ASCIIto6Bit PROC					; COMDAT

; 1689 : {

  00000	55		 push	 ebp
  00001	8b ec		 mov	 ebp, esp
  00003	81 ec dc 00 00
	00		 sub	 esp, 220		; 000000dcH
  00009	53		 push	 ebx
  0000a	56		 push	 esi
  0000b	57		 push	 edi
  0000c	8d bd 24 ff ff
	ff		 lea	 edi, DWORD PTR [ebp-220]
  00012	b9 37 00 00 00	 mov	 ecx, 55			; 00000037H
  00017	b8 cc cc cc cc	 mov	 eax, -858993460		; ccccccccH
  0001c	f3 ab		 rep stosd

; 1690 : 	// Input must be 8 bytes which will convert to 6 bytes of packed 6 bit characters and
; 1691 : 	// inputs must be the ASCII character set values from 32 to 95....
; 1692 :     
; 1693 : 	unsigned long long intSum = 0;

  0001e	c7 45 f4 00 00
	00 00		 mov	 DWORD PTR _intSum$[ebp], 0
  00025	c7 45 f8 00 00
	00 00		 mov	 DWORD PTR _intSum$[ebp+4], 0

; 1694 : 
; 1695 : 	int i;
; 1696 : 
; 1697 : 	for (i=0; i<4; i++)

  0002c	c7 45 e8 00 00
	00 00		 mov	 DWORD PTR _i$[ebp], 0
  00033	eb 09		 jmp	 SHORT $LN6@ASCIIto6Bi
$LN5@ASCIIto6Bi:
  00035	8b 45 e8	 mov	 eax, DWORD PTR _i$[ebp]
  00038	83 c0 01	 add	 eax, 1
  0003b	89 45 e8	 mov	 DWORD PTR _i$[ebp], eax
$LN6@ASCIIto6Bi:
  0003e	83 7d e8 04	 cmp	 DWORD PTR _i$[ebp], 4
  00042	7d 31		 jge	 SHORT $LN4@ASCIIto6Bi

; 1698 : 	{
; 1699 : 		intSum = (64 * intSum) + Padded[i] - 32;

  00044	6a 00		 push	 0
  00046	6a 40		 push	 64			; 00000040H
  00048	8b 45 f8	 mov	 eax, DWORD PTR _intSum$[ebp+4]
  0004b	50		 push	 eax
  0004c	8b 4d f4	 mov	 ecx, DWORD PTR _intSum$[ebp]
  0004f	51		 push	 ecx
  00050	e8 00 00 00 00	 call	 __allmul
  00055	8b c8		 mov	 ecx, eax
  00057	8b f2		 mov	 esi, edx
  00059	8b 55 08	 mov	 edx, DWORD PTR _Padded$[ebp]
  0005c	03 55 e8	 add	 edx, DWORD PTR _i$[ebp]
  0005f	0f be 02	 movsx	 eax, BYTE PTR [edx]
  00062	99		 cdq
  00063	03 c8		 add	 ecx, eax
  00065	13 f2		 adc	 esi, edx
  00067	83 e9 20	 sub	 ecx, 32			; 00000020H
  0006a	83 de 00	 sbb	 esi, 0
  0006d	89 4d f4	 mov	 DWORD PTR _intSum$[ebp], ecx
  00070	89 75 f8	 mov	 DWORD PTR _intSum$[ebp+4], esi

; 1700 : 	}

  00073	eb c0		 jmp	 SHORT $LN5@ASCIIto6Bi
$LN4@ASCIIto6Bi:

; 1701 : 
; 1702 : 	Compressed[0] = (UCHAR)(intSum >> 16) & 255;

  00075	8b 45 f4	 mov	 eax, DWORD PTR _intSum$[ebp]
  00078	8b 55 f8	 mov	 edx, DWORD PTR _intSum$[ebp+4]
  0007b	b1 10		 mov	 cl, 16			; 00000010H
  0007d	e8 00 00 00 00	 call	 __aullshr
  00082	0f b6 c0	 movzx	 eax, al
  00085	25 ff 00 00 00	 and	 eax, 255		; 000000ffH
  0008a	8b 4d 0c	 mov	 ecx, DWORD PTR _Compressed$[ebp]
  0008d	88 01		 mov	 BYTE PTR [ecx], al

; 1703 : 	Compressed[1] = (UCHAR)(intSum >> 8) &  255;

  0008f	8b 45 f4	 mov	 eax, DWORD PTR _intSum$[ebp]
  00092	8b 55 f8	 mov	 edx, DWORD PTR _intSum$[ebp+4]
  00095	b1 08		 mov	 cl, 8
  00097	e8 00 00 00 00	 call	 __aullshr
  0009c	0f b6 c0	 movzx	 eax, al
  0009f	25 ff 00 00 00	 and	 eax, 255		; 000000ffH
  000a4	8b 4d 0c	 mov	 ecx, DWORD PTR _Compressed$[ebp]
  000a7	88 41 01	 mov	 BYTE PTR [ecx+1], al

; 1704 : 	Compressed[2] = (UCHAR)intSum & 255;

  000aa	0f b6 45 f4	 movzx	 eax, BYTE PTR _intSum$[ebp]
  000ae	25 ff 00 00 00	 and	 eax, 255		; 000000ffH
  000b3	8b 4d 0c	 mov	 ecx, DWORD PTR _Compressed$[ebp]
  000b6	88 41 02	 mov	 BYTE PTR [ecx+2], al

; 1705 : 
; 1706 : 	intSum = 0;

  000b9	c7 45 f4 00 00
	00 00		 mov	 DWORD PTR _intSum$[ebp], 0
  000c0	c7 45 f8 00 00
	00 00		 mov	 DWORD PTR _intSum$[ebp+4], 0

; 1707 : 
; 1708 : 	for (i=4; i<8; i++)

  000c7	c7 45 e8 04 00
	00 00		 mov	 DWORD PTR _i$[ebp], 4
  000ce	eb 09		 jmp	 SHORT $LN3@ASCIIto6Bi
$LN2@ASCIIto6Bi:
  000d0	8b 45 e8	 mov	 eax, DWORD PTR _i$[ebp]
  000d3	83 c0 01	 add	 eax, 1
  000d6	89 45 e8	 mov	 DWORD PTR _i$[ebp], eax
$LN3@ASCIIto6Bi:
  000d9	83 7d e8 08	 cmp	 DWORD PTR _i$[ebp], 8
  000dd	7d 31		 jge	 SHORT $LN1@ASCIIto6Bi

; 1709 : 	{
; 1710 : 		intSum = (64 * intSum) + Padded[i] - 32;

  000df	6a 00		 push	 0
  000e1	6a 40		 push	 64			; 00000040H
  000e3	8b 45 f8	 mov	 eax, DWORD PTR _intSum$[ebp+4]
  000e6	50		 push	 eax
  000e7	8b 4d f4	 mov	 ecx, DWORD PTR _intSum$[ebp]
  000ea	51		 push	 ecx
  000eb	e8 00 00 00 00	 call	 __allmul
  000f0	8b c8		 mov	 ecx, eax
  000f2	8b f2		 mov	 esi, edx
  000f4	8b 55 08	 mov	 edx, DWORD PTR _Padded$[ebp]
  000f7	03 55 e8	 add	 edx, DWORD PTR _i$[ebp]
  000fa	0f be 02	 movsx	 eax, BYTE PTR [edx]
  000fd	99		 cdq
  000fe	03 c8		 add	 ecx, eax
  00100	13 f2		 adc	 esi, edx
  00102	83 e9 20	 sub	 ecx, 32			; 00000020H
  00105	83 de 00	 sbb	 esi, 0
  00108	89 4d f4	 mov	 DWORD PTR _intSum$[ebp], ecx
  0010b	89 75 f8	 mov	 DWORD PTR _intSum$[ebp+4], esi

; 1711 : 	}

  0010e	eb c0		 jmp	 SHORT $LN2@ASCIIto6Bi
$LN1@ASCIIto6Bi:

; 1712 : 
; 1713 : 	Compressed[3] = (UCHAR)(intSum >> 16) & 255;

  00110	8b 45 f4	 mov	 eax, DWORD PTR _intSum$[ebp]
  00113	8b 55 f8	 mov	 edx, DWORD PTR _intSum$[ebp+4]
  00116	b1 10		 mov	 cl, 16			; 00000010H
  00118	e8 00 00 00 00	 call	 __aullshr
  0011d	0f b6 c0	 movzx	 eax, al
  00120	25 ff 00 00 00	 and	 eax, 255		; 000000ffH
  00125	8b 4d 0c	 mov	 ecx, DWORD PTR _Compressed$[ebp]
  00128	88 41 03	 mov	 BYTE PTR [ecx+3], al

; 1714 : 	Compressed[4] = (UCHAR)(intSum >> 8) &  255;

  0012b	8b 45 f4	 mov	 eax, DWORD PTR _intSum$[ebp]
  0012e	8b 55 f8	 mov	 edx, DWORD PTR _intSum$[ebp+4]
  00131	b1 08		 mov	 cl, 8
  00133	e8 00 00 00 00	 call	 __aullshr
  00138	0f b6 c0	 movzx	 eax, al
  0013b	25 ff 00 00 00	 and	 eax, 255		; 000000ffH
  00140	8b 4d 0c	 mov	 ecx, DWORD PTR _Compressed$[ebp]
  00143	88 41 04	 mov	 BYTE PTR [ecx+4], al

; 1715 : 	Compressed[5] = (UCHAR)intSum & 255;

  00146	0f b6 45 f4	 movzx	 eax, BYTE PTR _intSum$[ebp]
  0014a	25 ff 00 00 00	 and	 eax, 255		; 000000ffH
  0014f	8b 4d 0c	 mov	 ecx, DWORD PTR _Compressed$[ebp]
  00152	88 41 05	 mov	 BYTE PTR [ecx+5], al

; 1716 : }

  00155	5f		 pop	 edi
  00156	5e		 pop	 esi
  00157	5b		 pop	 ebx
  00158	81 c4 dc 00 00
	00		 add	 esp, 220		; 000000dcH
  0015e	3b ec		 cmp	 ebp, esp
  00160	e8 00 00 00 00	 call	 __RTC_CheckEsp
  00165	8b e5		 mov	 esp, ebp
  00167	5d		 pop	 ebp
  00168	c3		 ret	 0
_ASCIIto6Bit ENDP
_TEXT	ENDS
PUBLIC	_Bit6ToASCII
EXTRN	__allshl:PROC
; Function compile flags: /Odtp /RTCsu /ZI
;	COMDAT _Bit6ToASCII
_TEXT	SEGMENT
_i$ = -24						; size = 4
_intSum$ = -12						; size = 8
_Padded$ = 8						; size = 4
_UnCompressed$ = 12					; size = 4
_Bit6ToASCII PROC					; COMDAT

; 1719 : {

  00000	55		 push	 ebp
  00001	8b ec		 mov	 ebp, esp
  00003	81 ec dc 00 00
	00		 sub	 esp, 220		; 000000dcH
  00009	53		 push	 ebx
  0000a	56		 push	 esi
  0000b	57		 push	 edi
  0000c	8d bd 24 ff ff
	ff		 lea	 edi, DWORD PTR [ebp-220]
  00012	b9 37 00 00 00	 mov	 ecx, 55			; 00000037H
  00017	b8 cc cc cc cc	 mov	 eax, -858993460		; ccccccccH
  0001c	f3 ab		 rep stosd

; 1720 : 	// uncompress 6 to 8
; 1721 : 
; 1722 : 	// Input must be 6 bytes which represent packed 6 bit characters that well 
; 1723 : 	// result will be 8 ASCII character set values from 32 to 95...
; 1724 : 
; 1725 : 	unsigned long long intSum = 0;

  0001e	c7 45 f4 00 00
	00 00		 mov	 DWORD PTR _intSum$[ebp], 0
  00025	c7 45 f8 00 00
	00 00		 mov	 DWORD PTR _intSum$[ebp+4], 0

; 1726 : 
; 1727 : 	int i;
; 1728 : 
; 1729 : 	for (i=0; i<3; i++)

  0002c	c7 45 e8 00 00
	00 00		 mov	 DWORD PTR _i$[ebp], 0
  00033	eb 09		 jmp	 SHORT $LN6@Bit6ToASCI
$LN5@Bit6ToASCI:
  00035	8b 45 e8	 mov	 eax, DWORD PTR _i$[ebp]
  00038	83 c0 01	 add	 eax, 1
  0003b	89 45 e8	 mov	 DWORD PTR _i$[ebp], eax
$LN6@Bit6ToASCI:
  0003e	83 7d e8 03	 cmp	 DWORD PTR _i$[ebp], 3
  00042	7d 27		 jge	 SHORT $LN4@Bit6ToASCI

; 1730 : 	{
; 1731 : 		intSum = (intSum << 8) + Padded[i];

  00044	8b 45 f4	 mov	 eax, DWORD PTR _intSum$[ebp]
  00047	8b 55 f8	 mov	 edx, DWORD PTR _intSum$[ebp+4]
  0004a	b1 08		 mov	 cl, 8
  0004c	e8 00 00 00 00	 call	 __allshl
  00051	8b c8		 mov	 ecx, eax
  00053	8b f2		 mov	 esi, edx
  00055	8b 55 08	 mov	 edx, DWORD PTR _Padded$[ebp]
  00058	03 55 e8	 add	 edx, DWORD PTR _i$[ebp]
  0005b	0f b6 02	 movzx	 eax, BYTE PTR [edx]
  0005e	99		 cdq
  0005f	03 c8		 add	 ecx, eax
  00061	13 f2		 adc	 esi, edx
  00063	89 4d f4	 mov	 DWORD PTR _intSum$[ebp], ecx
  00066	89 75 f8	 mov	 DWORD PTR _intSum$[ebp+4], esi

; 1732 : 	}

  00069	eb ca		 jmp	 SHORT $LN5@Bit6ToASCI
$LN4@Bit6ToASCI:

; 1733 : 
; 1734 : 	UnCompressed[0] = (UCHAR)((intSum >> 18) & 63) + 32;

  0006b	8b 45 f4	 mov	 eax, DWORD PTR _intSum$[ebp]
  0006e	8b 55 f8	 mov	 edx, DWORD PTR _intSum$[ebp+4]
  00071	b1 12		 mov	 cl, 18			; 00000012H
  00073	e8 00 00 00 00	 call	 __aullshr
  00078	83 e0 3f	 and	 eax, 63			; 0000003fH
  0007b	83 e2 00	 and	 edx, 0
  0007e	0f b6 c0	 movzx	 eax, al
  00081	83 c0 20	 add	 eax, 32			; 00000020H
  00084	8b 4d 0c	 mov	 ecx, DWORD PTR _UnCompressed$[ebp]
  00087	88 01		 mov	 BYTE PTR [ecx], al

; 1735 : 	UnCompressed[1] = (UCHAR)((intSum >> 12) & 63) + 32;

  00089	8b 45 f4	 mov	 eax, DWORD PTR _intSum$[ebp]
  0008c	8b 55 f8	 mov	 edx, DWORD PTR _intSum$[ebp+4]
  0008f	b1 0c		 mov	 cl, 12			; 0000000cH
  00091	e8 00 00 00 00	 call	 __aullshr
  00096	83 e0 3f	 and	 eax, 63			; 0000003fH
  00099	83 e2 00	 and	 edx, 0
  0009c	0f b6 c0	 movzx	 eax, al
  0009f	83 c0 20	 add	 eax, 32			; 00000020H
  000a2	8b 4d 0c	 mov	 ecx, DWORD PTR _UnCompressed$[ebp]
  000a5	88 41 01	 mov	 BYTE PTR [ecx+1], al

; 1736 : 	UnCompressed[2] = (UCHAR)((intSum >> 6) & 63) + 32;

  000a8	8b 45 f4	 mov	 eax, DWORD PTR _intSum$[ebp]
  000ab	8b 55 f8	 mov	 edx, DWORD PTR _intSum$[ebp+4]
  000ae	b1 06		 mov	 cl, 6
  000b0	e8 00 00 00 00	 call	 __aullshr
  000b5	83 e0 3f	 and	 eax, 63			; 0000003fH
  000b8	83 e2 00	 and	 edx, 0
  000bb	0f b6 c0	 movzx	 eax, al
  000be	83 c0 20	 add	 eax, 32			; 00000020H
  000c1	8b 4d 0c	 mov	 ecx, DWORD PTR _UnCompressed$[ebp]
  000c4	88 41 02	 mov	 BYTE PTR [ecx+2], al

; 1737 : 	UnCompressed[3] = (UCHAR)(intSum & 63) + 32;

  000c7	8b 45 f4	 mov	 eax, DWORD PTR _intSum$[ebp]
  000ca	83 e0 3f	 and	 eax, 63			; 0000003fH
  000cd	8b 4d f8	 mov	 ecx, DWORD PTR _intSum$[ebp+4]
  000d0	83 e1 00	 and	 ecx, 0
  000d3	0f b6 d0	 movzx	 edx, al
  000d6	83 c2 20	 add	 edx, 32			; 00000020H
  000d9	8b 45 0c	 mov	 eax, DWORD PTR _UnCompressed$[ebp]
  000dc	88 50 03	 mov	 BYTE PTR [eax+3], dl

; 1738 : 
; 1739 : 	intSum = 0;

  000df	c7 45 f4 00 00
	00 00		 mov	 DWORD PTR _intSum$[ebp], 0
  000e6	c7 45 f8 00 00
	00 00		 mov	 DWORD PTR _intSum$[ebp+4], 0

; 1740 : 
; 1741 : 	for (i=3; i<6; i++)

  000ed	c7 45 e8 03 00
	00 00		 mov	 DWORD PTR _i$[ebp], 3
  000f4	eb 09		 jmp	 SHORT $LN3@Bit6ToASCI
$LN2@Bit6ToASCI:
  000f6	8b 45 e8	 mov	 eax, DWORD PTR _i$[ebp]
  000f9	83 c0 01	 add	 eax, 1
  000fc	89 45 e8	 mov	 DWORD PTR _i$[ebp], eax
$LN3@Bit6ToASCI:
  000ff	83 7d e8 06	 cmp	 DWORD PTR _i$[ebp], 6
  00103	7d 27		 jge	 SHORT $LN1@Bit6ToASCI

; 1742 : 	{
; 1743 : 		intSum = (intSum << 8) + Padded[i] ;

  00105	8b 45 f4	 mov	 eax, DWORD PTR _intSum$[ebp]
  00108	8b 55 f8	 mov	 edx, DWORD PTR _intSum$[ebp+4]
  0010b	b1 08		 mov	 cl, 8
  0010d	e8 00 00 00 00	 call	 __allshl
  00112	8b c8		 mov	 ecx, eax
  00114	8b f2		 mov	 esi, edx
  00116	8b 55 08	 mov	 edx, DWORD PTR _Padded$[ebp]
  00119	03 55 e8	 add	 edx, DWORD PTR _i$[ebp]
  0011c	0f b6 02	 movzx	 eax, BYTE PTR [edx]
  0011f	99		 cdq
  00120	03 c8		 add	 ecx, eax
  00122	13 f2		 adc	 esi, edx
  00124	89 4d f4	 mov	 DWORD PTR _intSum$[ebp], ecx
  00127	89 75 f8	 mov	 DWORD PTR _intSum$[ebp+4], esi

; 1744 : 	}

  0012a	eb ca		 jmp	 SHORT $LN2@Bit6ToASCI
$LN1@Bit6ToASCI:

; 1745 : 
; 1746 : 	UnCompressed[4] = (UCHAR)((intSum >> 18) & 63) + 32;

  0012c	8b 45 f4	 mov	 eax, DWORD PTR _intSum$[ebp]
  0012f	8b 55 f8	 mov	 edx, DWORD PTR _intSum$[ebp+4]
  00132	b1 12		 mov	 cl, 18			; 00000012H
  00134	e8 00 00 00 00	 call	 __aullshr
  00139	83 e0 3f	 and	 eax, 63			; 0000003fH
  0013c	83 e2 00	 and	 edx, 0
  0013f	0f b6 c0	 movzx	 eax, al
  00142	83 c0 20	 add	 eax, 32			; 00000020H
  00145	8b 4d 0c	 mov	 ecx, DWORD PTR _UnCompressed$[ebp]
  00148	88 41 04	 mov	 BYTE PTR [ecx+4], al

; 1747 : 	UnCompressed[5] = (UCHAR)((intSum >> 12) & 63) + 32;

  0014b	8b 45 f4	 mov	 eax, DWORD PTR _intSum$[ebp]
  0014e	8b 55 f8	 mov	 edx, DWORD PTR _intSum$[ebp+4]
  00151	b1 0c		 mov	 cl, 12			; 0000000cH
  00153	e8 00 00 00 00	 call	 __aullshr
  00158	83 e0 3f	 and	 eax, 63			; 0000003fH
  0015b	83 e2 00	 and	 edx, 0
  0015e	0f b6 c0	 movzx	 eax, al
  00161	83 c0 20	 add	 eax, 32			; 00000020H
  00164	8b 4d 0c	 mov	 ecx, DWORD PTR _UnCompressed$[ebp]
  00167	88 41 05	 mov	 BYTE PTR [ecx+5], al

; 1748 : 	UnCompressed[6] = (UCHAR)((intSum >> 6) & 63) + 32;

  0016a	8b 45 f4	 mov	 eax, DWORD PTR _intSum$[ebp]
  0016d	8b 55 f8	 mov	 edx, DWORD PTR _intSum$[ebp+4]
  00170	b1 06		 mov	 cl, 6
  00172	e8 00 00 00 00	 call	 __aullshr
  00177	83 e0 3f	 and	 eax, 63			; 0000003fH
  0017a	83 e2 00	 and	 edx, 0
  0017d	0f b6 c0	 movzx	 eax, al
  00180	83 c0 20	 add	 eax, 32			; 00000020H
  00183	8b 4d 0c	 mov	 ecx, DWORD PTR _UnCompressed$[ebp]
  00186	88 41 06	 mov	 BYTE PTR [ecx+6], al

; 1749 : 	UnCompressed[7] = (UCHAR)(intSum & 63) + 32;

  00189	8b 45 f4	 mov	 eax, DWORD PTR _intSum$[ebp]
  0018c	83 e0 3f	 and	 eax, 63			; 0000003fH
  0018f	8b 4d f8	 mov	 ecx, DWORD PTR _intSum$[ebp+4]
  00192	83 e1 00	 and	 ecx, 0
  00195	0f b6 d0	 movzx	 edx, al
  00198	83 c2 20	 add	 edx, 32			; 00000020H
  0019b	8b 45 0c	 mov	 eax, DWORD PTR _UnCompressed$[ebp]
  0019e	88 50 07	 mov	 BYTE PTR [eax+7], dl

; 1750 : }

  001a1	5f		 pop	 edi
  001a2	5e		 pop	 esi
  001a3	5b		 pop	 ebx
  001a4	81 c4 dc 00 00
	00		 add	 esp, 220		; 000000dcH
  001aa	3b ec		 cmp	 ebp, esp
  001ac	e8 00 00 00 00	 call	 __RTC_CheckEsp
  001b1	8b e5		 mov	 esp, ebp
  001b3	5d		 pop	 ebp
  001b4	c3		 ret	 0
_Bit6ToASCII ENDP
_TEXT	ENDS
PUBLIC	??_C@_04PFOHOKJK@?5?5?5?5?$AA@			; `string'
PUBLIC	__$ArrayPad$
EXTRN	_strcat:PROC
;	COMDAT ??_C@_04PFOHOKJK@?5?5?5?5?$AA@
CONST	SEGMENT
??_C@_04PFOHOKJK@?5?5?5?5?$AA@ DB '    ', 00H		; `string'
; Function compile flags: /Odtp /RTCsu /ZI
CONST	ENDS
;	COMDAT _CompressCallsign
_TEXT	SEGMENT
_Dash$ = -68						; size = 4
_SSID$ = -56						; size = 4
_Padded$ = -44						; size = 16
_Callsign$ = -20					; size = 10
__$ArrayPad$ = -4					; size = 4
_inCallsign$ = 8					; size = 4
_Compressed$ = 12					; size = 4
_CompressCallsign PROC					; COMDAT

; 1756 : {

  00000	55		 push	 ebp
  00001	8b ec		 mov	 ebp, esp
  00003	81 ec 08 01 00
	00		 sub	 esp, 264		; 00000108H
  00009	53		 push	 ebx
  0000a	56		 push	 esi
  0000b	57		 push	 edi
  0000c	8d bd f8 fe ff
	ff		 lea	 edi, DWORD PTR [ebp-264]
  00012	b9 42 00 00 00	 mov	 ecx, 66			; 00000042H
  00017	b8 cc cc cc cc	 mov	 eax, -858993460		; ccccccccH
  0001c	f3 ab		 rep stosd
  0001e	a1 00 00 00 00	 mov	 eax, DWORD PTR ___security_cookie
  00023	33 c5		 xor	 eax, ebp
  00025	89 45 fc	 mov	 DWORD PTR __$ArrayPad$[ebp], eax

; 1757 : 	char Callsign[10];
; 1758 : 	char Padded[16];
; 1759 : 	int SSID;
; 1760 : 	char * Dash;
; 1761 : 
; 1762 : 	memcpy(Callsign, inCallsign, 10);

  00028	6a 0a		 push	 10			; 0000000aH
  0002a	8b 45 08	 mov	 eax, DWORD PTR _inCallsign$[ebp]
  0002d	50		 push	 eax
  0002e	8d 4d ec	 lea	 ecx, DWORD PTR _Callsign$[ebp]
  00031	51		 push	 ecx
  00032	e8 00 00 00 00	 call	 _memcpy
  00037	83 c4 0c	 add	 esp, 12			; 0000000cH

; 1763 : 	Dash = strchr(Callsign, '-');

  0003a	6a 2d		 push	 45			; 0000002dH
  0003c	8d 45 ec	 lea	 eax, DWORD PTR _Callsign$[ebp]
  0003f	50		 push	 eax
  00040	e8 00 00 00 00	 call	 _strchr
  00045	83 c4 08	 add	 esp, 8
  00048	89 45 bc	 mov	 DWORD PTR _Dash$[ebp], eax

; 1764 : 	
; 1765 : 	if (Dash == 0)		// if No SSID

  0004b	83 7d bc 00	 cmp	 DWORD PTR _Dash$[ebp], 0
  0004f	75 27		 jne	 SHORT $LN4@CompressCa

; 1766 : 	{
; 1767 : 		strcpy(Padded, Callsign);

  00051	8d 45 ec	 lea	 eax, DWORD PTR _Callsign$[ebp]
  00054	50		 push	 eax
  00055	8d 4d d4	 lea	 ecx, DWORD PTR _Padded$[ebp]
  00058	51		 push	 ecx
  00059	e8 00 00 00 00	 call	 _strcpy
  0005e	83 c4 08	 add	 esp, 8

; 1768 : 		strcat(Padded, "    ");

  00061	68 00 00 00 00	 push	 OFFSET ??_C@_04PFOHOKJK@?5?5?5?5?$AA@
  00066	8d 45 d4	 lea	 eax, DWORD PTR _Padded$[ebp]
  00069	50		 push	 eax
  0006a	e8 00 00 00 00	 call	 _strcat
  0006f	83 c4 08	 add	 esp, 8

; 1769 : 		Padded[7] = '0';			//  "0" indicates no SSID

  00072	c6 45 db 30	 mov	 BYTE PTR _Padded$[ebp+7], 48 ; 00000030H

; 1770 : 	}
; 1771 : 	else

  00076	eb 58		 jmp	 SHORT $LN3@CompressCa
$LN4@CompressCa:

; 1772 : 	{
; 1773 : 		*(Dash++) = 0;

  00078	8b 45 bc	 mov	 eax, DWORD PTR _Dash$[ebp]
  0007b	c6 00 00	 mov	 BYTE PTR [eax], 0
  0007e	8b 4d bc	 mov	 ecx, DWORD PTR _Dash$[ebp]
  00081	83 c1 01	 add	 ecx, 1
  00084	89 4d bc	 mov	 DWORD PTR _Dash$[ebp], ecx

; 1774 : 		SSID = atoi(Dash);

  00087	8b 45 bc	 mov	 eax, DWORD PTR _Dash$[ebp]
  0008a	50		 push	 eax
  0008b	e8 00 00 00 00	 call	 _atoi
  00090	83 c4 04	 add	 esp, 4
  00093	89 45 c8	 mov	 DWORD PTR _SSID$[ebp], eax

; 1775 : 
; 1776 : 		strcpy(Padded, Callsign);

  00096	8d 45 ec	 lea	 eax, DWORD PTR _Callsign$[ebp]
  00099	50		 push	 eax
  0009a	8d 4d d4	 lea	 ecx, DWORD PTR _Padded$[ebp]
  0009d	51		 push	 ecx
  0009e	e8 00 00 00 00	 call	 _strcpy
  000a3	83 c4 08	 add	 esp, 8

; 1777 : 		strcat(Padded, "    ");

  000a6	68 00 00 00 00	 push	 OFFSET ??_C@_04PFOHOKJK@?5?5?5?5?$AA@
  000ab	8d 45 d4	 lea	 eax, DWORD PTR _Padded$[ebp]
  000ae	50		 push	 eax
  000af	e8 00 00 00 00	 call	 _strcat
  000b4	83 c4 08	 add	 esp, 8

; 1778 : 
; 1779 : 		if (SSID >= 10)		// ' handles special case of -10 to -15 : ; < = > ? '

  000b7	83 7d c8 0a	 cmp	 DWORD PTR _SSID$[ebp], 10 ; 0000000aH
  000bb	7c 0b		 jl	 SHORT $LN2@CompressCa

; 1780 : 			Padded[7] = ':' + SSID - 10;

  000bd	8b 45 c8	 mov	 eax, DWORD PTR _SSID$[ebp]
  000c0	83 c0 30	 add	 eax, 48			; 00000030H
  000c3	88 45 db	 mov	 BYTE PTR _Padded$[ebp+7], al

; 1781 : 		else

  000c6	eb 08		 jmp	 SHORT $LN3@CompressCa
$LN2@CompressCa:

; 1782 : 			Padded[7] = *(Dash);

  000c8	8b 45 bc	 mov	 eax, DWORD PTR _Dash$[ebp]
  000cb	8a 08		 mov	 cl, BYTE PTR [eax]
  000cd	88 4d db	 mov	 BYTE PTR _Padded$[ebp+7], cl
$LN3@CompressCa:

; 1783 : 	}
; 1784 : 
; 1785 : 	ASCIIto6Bit(Padded, Compressed); //compress to 8 6 bit characters   6 bytes total

  000d0	8b 45 0c	 mov	 eax, DWORD PTR _Compressed$[ebp]
  000d3	50		 push	 eax
  000d4	8d 4d d4	 lea	 ecx, DWORD PTR _Padded$[ebp]
  000d7	51		 push	 ecx
  000d8	e8 00 00 00 00	 call	 _ASCIIto6Bit
  000dd	83 c4 08	 add	 esp, 8

; 1786 : }

  000e0	52		 push	 edx
  000e1	8b cd		 mov	 ecx, ebp
  000e3	50		 push	 eax
  000e4	8d 15 00 00 00
	00		 lea	 edx, DWORD PTR $LN10@CompressCa
  000ea	e8 00 00 00 00	 call	 @_RTC_CheckStackVars@8
  000ef	58		 pop	 eax
  000f0	5a		 pop	 edx
  000f1	5f		 pop	 edi
  000f2	5e		 pop	 esi
  000f3	5b		 pop	 ebx
  000f4	8b 4d fc	 mov	 ecx, DWORD PTR __$ArrayPad$[ebp]
  000f7	33 cd		 xor	 ecx, ebp
  000f9	e8 00 00 00 00	 call	 @__security_check_cookie@4
  000fe	81 c4 08 01 00
	00		 add	 esp, 264		; 00000108H
  00104	3b ec		 cmp	 ebp, esp
  00106	e8 00 00 00 00	 call	 __RTC_CheckEsp
  0010b	8b e5		 mov	 esp, ebp
  0010d	5d		 pop	 ebp
  0010e	c3		 ret	 0
  0010f	90		 npad	 1
$LN10@CompressCa:
  00110	02 00 00 00	 DD	 2
  00114	00 00 00 00	 DD	 $LN9@CompressCa
$LN9@CompressCa:
  00118	ec ff ff ff	 DD	 -20			; ffffffecH
  0011c	0a 00 00 00	 DD	 10			; 0000000aH
  00120	00 00 00 00	 DD	 $LN7@CompressCa
  00124	d4 ff ff ff	 DD	 -44			; ffffffd4H
  00128	10 00 00 00	 DD	 16			; 00000010H
  0012c	00 00 00 00	 DD	 $LN8@CompressCa
$LN8@CompressCa:
  00130	50		 DB	 80			; 00000050H
  00131	61		 DB	 97			; 00000061H
  00132	64		 DB	 100			; 00000064H
  00133	64		 DB	 100			; 00000064H
  00134	65		 DB	 101			; 00000065H
  00135	64		 DB	 100			; 00000064H
  00136	00		 DB	 0
$LN7@CompressCa:
  00137	43		 DB	 67			; 00000043H
  00138	61		 DB	 97			; 00000061H
  00139	6c		 DB	 108			; 0000006cH
  0013a	6c		 DB	 108			; 0000006cH
  0013b	73		 DB	 115			; 00000073H
  0013c	69		 DB	 105			; 00000069H
  0013d	67		 DB	 103			; 00000067H
  0013e	6e		 DB	 110			; 0000006eH
  0013f	00		 DB	 0
_CompressCallsign ENDP
_TEXT	ENDS
PUBLIC	??_C@_08GGFKNFHG@?5?5?5?5?5?5?5?5?$AA@		; `string'
PUBLIC	__$ArrayPad$
;	COMDAT ??_C@_08GGFKNFHG@?5?5?5?5?5?5?5?5?$AA@
CONST	SEGMENT
??_C@_08GGFKNFHG@?5?5?5?5?5?5?5?5?$AA@ DB '        ', 00H ; `string'
; Function compile flags: /Odtp /RTCsu /ZI
CONST	ENDS
;	COMDAT _CompressGridSquare
_TEXT	SEGMENT
_Padded$ = -28						; size = 17
__$ArrayPad$ = -4					; size = 4
_Square$ = 8						; size = 4
_Compressed$ = 12					; size = 4
_CompressGridSquare PROC				; COMDAT

; 1791 : {

  00000	55		 push	 ebp
  00001	8b ec		 mov	 ebp, esp
  00003	81 ec e0 00 00
	00		 sub	 esp, 224		; 000000e0H
  00009	53		 push	 ebx
  0000a	56		 push	 esi
  0000b	57		 push	 edi
  0000c	8d bd 20 ff ff
	ff		 lea	 edi, DWORD PTR [ebp-224]
  00012	b9 38 00 00 00	 mov	 ecx, 56			; 00000038H
  00017	b8 cc cc cc cc	 mov	 eax, -858993460		; ccccccccH
  0001c	f3 ab		 rep stosd
  0001e	a1 00 00 00 00	 mov	 eax, DWORD PTR ___security_cookie
  00023	33 c5		 xor	 eax, ebp
  00025	89 45 fc	 mov	 DWORD PTR __$ArrayPad$[ebp], eax

; 1792 : 	char Padded[17];
; 1793 :         
; 1794 : 	if (strlen(Square) > 8)

  00028	8b 45 08	 mov	 eax, DWORD PTR _Square$[ebp]
  0002b	50		 push	 eax
  0002c	e8 00 00 00 00	 call	 _strlen
  00031	83 c4 04	 add	 esp, 4
  00034	83 f8 08	 cmp	 eax, 8
  00037	76 02		 jbe	 SHORT $LN1@CompressGr

; 1795 : 		return;

  00039	eb 31		 jmp	 SHORT $LN2@CompressGr
$LN1@CompressGr:

; 1796 : 
; 1797 : 	strcpy(Padded, Square);

  0003b	8b 45 08	 mov	 eax, DWORD PTR _Square$[ebp]
  0003e	50		 push	 eax
  0003f	8d 4d e4	 lea	 ecx, DWORD PTR _Padded$[ebp]
  00042	51		 push	 ecx
  00043	e8 00 00 00 00	 call	 _strcpy
  00048	83 c4 08	 add	 esp, 8

; 1798 : 	strcat(Padded, "        ");

  0004b	68 00 00 00 00	 push	 OFFSET ??_C@_08GGFKNFHG@?5?5?5?5?5?5?5?5?$AA@
  00050	8d 45 e4	 lea	 eax, DWORD PTR _Padded$[ebp]
  00053	50		 push	 eax
  00054	e8 00 00 00 00	 call	 _strcat
  00059	83 c4 08	 add	 esp, 8

; 1799 : 
; 1800 : 	ASCIIto6Bit(Padded, Compressed); //compress to 8 6 bit characters   6 bytes total

  0005c	8b 45 0c	 mov	 eax, DWORD PTR _Compressed$[ebp]
  0005f	50		 push	 eax
  00060	8d 4d e4	 lea	 ecx, DWORD PTR _Padded$[ebp]
  00063	51		 push	 ecx
  00064	e8 00 00 00 00	 call	 _ASCIIto6Bit
  00069	83 c4 08	 add	 esp, 8
$LN2@CompressGr:

; 1801 : }

  0006c	52		 push	 edx
  0006d	8b cd		 mov	 ecx, ebp
  0006f	50		 push	 eax
  00070	8d 15 00 00 00
	00		 lea	 edx, DWORD PTR $LN6@CompressGr
  00076	e8 00 00 00 00	 call	 @_RTC_CheckStackVars@8
  0007b	58		 pop	 eax
  0007c	5a		 pop	 edx
  0007d	5f		 pop	 edi
  0007e	5e		 pop	 esi
  0007f	5b		 pop	 ebx
  00080	8b 4d fc	 mov	 ecx, DWORD PTR __$ArrayPad$[ebp]
  00083	33 cd		 xor	 ecx, ebp
  00085	e8 00 00 00 00	 call	 @__security_check_cookie@4
  0008a	81 c4 e0 00 00
	00		 add	 esp, 224		; 000000e0H
  00090	3b ec		 cmp	 ebp, esp
  00092	e8 00 00 00 00	 call	 __RTC_CheckEsp
  00097	8b e5		 mov	 esp, ebp
  00099	5d		 pop	 ebp
  0009a	c3		 ret	 0
  0009b	90		 npad	 1
$LN6@CompressGr:
  0009c	01 00 00 00	 DD	 1
  000a0	00 00 00 00	 DD	 $LN5@CompressGr
$LN5@CompressGr:
  000a4	e4 ff ff ff	 DD	 -28			; ffffffe4H
  000a8	11 00 00 00	 DD	 17			; 00000011H
  000ac	00 00 00 00	 DD	 $LN4@CompressGr
$LN4@CompressGr:
  000b0	50		 DB	 80			; 00000050H
  000b1	61		 DB	 97			; 00000061H
  000b2	64		 DB	 100			; 00000064H
  000b3	64		 DB	 100			; 00000064H
  000b4	65		 DB	 101			; 00000065H
  000b5	64		 DB	 100			; 00000064H
  000b6	00		 DB	 0
_CompressGridSquare ENDP
_TEXT	ENDS
PUBLIC	??_C@_03PMLFOLGP@?9?$CFc?$AA@			; `string'
PUBLIC	??_C@_03LDPEHNKI@?9?$CFd?$AA@			; `string'
PUBLIC	??_C@_00CNPNBAHC@?$AA@				; `string'
PUBLIC	__$ArrayPad$
PUBLIC	_DeCompressCallsign
;	COMDAT ??_C@_03PMLFOLGP@?9?$CFc?$AA@
CONST	SEGMENT
??_C@_03PMLFOLGP@?9?$CFc?$AA@ DB '-%c', 00H		; `string'
CONST	ENDS
;	COMDAT ??_C@_03LDPEHNKI@?9?$CFd?$AA@
CONST	SEGMENT
??_C@_03LDPEHNKI@?9?$CFd?$AA@ DB '-%d', 00H		; `string'
CONST	ENDS
;	COMDAT ??_C@_00CNPNBAHC@?$AA@
CONST	SEGMENT
??_C@_00CNPNBAHC@?$AA@ DB 00H				; `string'
; Function compile flags: /Odtp /RTCsu /ZI
CONST	ENDS
;	COMDAT _DeCompressCallsign
_TEXT	SEGMENT
_SSID$ = -36						; size = 8
_bytTest$ = -20						; size = 10
__$ArrayPad$ = -4					; size = 4
_bytCallsign$ = 8					; size = 4
_returned$ = 12						; size = 4
_DeCompressCallsign PROC				; COMDAT

; 1806 : {

  00000	55		 push	 ebp
  00001	8b ec		 mov	 ebp, esp
  00003	81 ec e8 00 00
	00		 sub	 esp, 232		; 000000e8H
  00009	53		 push	 ebx
  0000a	56		 push	 esi
  0000b	57		 push	 edi
  0000c	8d bd 18 ff ff
	ff		 lea	 edi, DWORD PTR [ebp-232]
  00012	b9 3a 00 00 00	 mov	 ecx, 58			; 0000003aH
  00017	b8 cc cc cc cc	 mov	 eax, -858993460		; ccccccccH
  0001c	f3 ab		 rep stosd
  0001e	a1 00 00 00 00	 mov	 eax, DWORD PTR ___security_cookie
  00023	33 c5		 xor	 eax, ebp
  00025	89 45 fc	 mov	 DWORD PTR __$ArrayPad$[ebp], eax

; 1807 : 	char bytTest[10] = "";

  00028	a0 00 00 00 00	 mov	 al, BYTE PTR ??_C@_00CNPNBAHC@?$AA@
  0002d	88 45 ec	 mov	 BYTE PTR _bytTest$[ebp], al
  00030	33 c0		 xor	 eax, eax
  00032	89 45 ed	 mov	 DWORD PTR _bytTest$[ebp+1], eax
  00035	89 45 f1	 mov	 DWORD PTR _bytTest$[ebp+5], eax
  00038	88 45 f5	 mov	 BYTE PTR _bytTest$[ebp+9], al

; 1808 : 	char SSID[8] = "";

  0003b	a0 00 00 00 00	 mov	 al, BYTE PTR ??_C@_00CNPNBAHC@?$AA@
  00040	88 45 dc	 mov	 BYTE PTR _SSID$[ebp], al
  00043	33 c0		 xor	 eax, eax
  00045	89 45 dd	 mov	 DWORD PTR _SSID$[ebp+1], eax
  00048	66 89 45 e1	 mov	 WORD PTR _SSID$[ebp+5], ax
  0004c	88 45 e3	 mov	 BYTE PTR _SSID$[ebp+7], al

; 1809 :     
; 1810 : 	Bit6ToASCII(bytCallsign, bytTest);

  0004f	8d 45 ec	 lea	 eax, DWORD PTR _bytTest$[ebp]
  00052	50		 push	 eax
  00053	8b 4d 08	 mov	 ecx, DWORD PTR _bytCallsign$[ebp]
  00056	51		 push	 ecx
  00057	e8 00 00 00 00	 call	 _Bit6ToASCII
  0005c	83 c4 08	 add	 esp, 8

; 1811 : 
; 1812 : 	memcpy(returned, bytTest, 7);

  0005f	6a 07		 push	 7
  00061	8d 45 ec	 lea	 eax, DWORD PTR _bytTest$[ebp]
  00064	50		 push	 eax
  00065	8b 4d 0c	 mov	 ecx, DWORD PTR _returned$[ebp]
  00068	51		 push	 ecx
  00069	e8 00 00 00 00	 call	 _memcpy
  0006e	83 c4 0c	 add	 esp, 12			; 0000000cH

; 1813 : 	returned[7] = 0;

  00071	8b 45 0c	 mov	 eax, DWORD PTR _returned$[ebp]
  00074	c6 40 07 00	 mov	 BYTE PTR [eax+7], 0

; 1814 : 	strlop(returned, ' ');		// remove trailing space

  00078	6a 20		 push	 32			; 00000020H
  0007a	8b 45 0c	 mov	 eax, DWORD PTR _returned$[ebp]
  0007d	50		 push	 eax
  0007e	e8 00 00 00 00	 call	 _strlop
  00083	83 c4 08	 add	 esp, 8

; 1815 : 
; 1816 : 	if (bytTest[7] == '0') // Value of "0" so No SSID

  00086	0f be 45 f3	 movsx	 eax, BYTE PTR _bytTest$[ebp+7]
  0008a	83 f8 30	 cmp	 eax, 48			; 00000030H
  0008d	75 09		 jne	 SHORT $LN4@DeCompress

; 1817 : 		returned[6] = 0;

  0008f	8b 45 0c	 mov	 eax, DWORD PTR _returned$[ebp]
  00092	c6 40 06 00	 mov	 BYTE PTR [eax+6], 0
  00096	eb 43		 jmp	 SHORT $LN3@DeCompress
$LN4@DeCompress:

; 1818 : 	else if (bytTest[7] >= 58 && bytTest[7] <= 63) //' handles special case for -10 to -15

  00098	0f be 45 f3	 movsx	 eax, BYTE PTR _bytTest$[ebp+7]
  0009c	83 f8 3a	 cmp	 eax, 58			; 0000003aH
  0009f	7c 24		 jl	 SHORT $LN2@DeCompress
  000a1	0f be 45 f3	 movsx	 eax, BYTE PTR _bytTest$[ebp+7]
  000a5	83 f8 3f	 cmp	 eax, 63			; 0000003fH
  000a8	7f 1b		 jg	 SHORT $LN2@DeCompress

; 1819 : 		sprintf(SSID, "-%d", bytTest[7] - 48);

  000aa	0f be 45 f3	 movsx	 eax, BYTE PTR _bytTest$[ebp+7]
  000ae	83 e8 30	 sub	 eax, 48			; 00000030H
  000b1	50		 push	 eax
  000b2	68 00 00 00 00	 push	 OFFSET ??_C@_03LDPEHNKI@?9?$CFd?$AA@
  000b7	8d 4d dc	 lea	 ecx, DWORD PTR _SSID$[ebp]
  000ba	51		 push	 ecx
  000bb	e8 00 00 00 00	 call	 _sprintf
  000c0	83 c4 0c	 add	 esp, 12			; 0000000cH

; 1820 : 	else

  000c3	eb 16		 jmp	 SHORT $LN3@DeCompress
$LN2@DeCompress:

; 1821 : 		sprintf(SSID, "-%c", bytTest[7]);

  000c5	0f be 45 f3	 movsx	 eax, BYTE PTR _bytTest$[ebp+7]
  000c9	50		 push	 eax
  000ca	68 00 00 00 00	 push	 OFFSET ??_C@_03PMLFOLGP@?9?$CFc?$AA@
  000cf	8d 4d dc	 lea	 ecx, DWORD PTR _SSID$[ebp]
  000d2	51		 push	 ecx
  000d3	e8 00 00 00 00	 call	 _sprintf
  000d8	83 c4 0c	 add	 esp, 12			; 0000000cH
$LN3@DeCompress:

; 1822 : 	
; 1823 : 	strcat(returned, SSID);

  000db	8d 45 dc	 lea	 eax, DWORD PTR _SSID$[ebp]
  000de	50		 push	 eax
  000df	8b 4d 0c	 mov	 ecx, DWORD PTR _returned$[ebp]
  000e2	51		 push	 ecx
  000e3	e8 00 00 00 00	 call	 _strcat
  000e8	83 c4 08	 add	 esp, 8

; 1824 : }

  000eb	52		 push	 edx
  000ec	8b cd		 mov	 ecx, ebp
  000ee	50		 push	 eax
  000ef	8d 15 00 00 00
	00		 lea	 edx, DWORD PTR $LN10@DeCompress
  000f5	e8 00 00 00 00	 call	 @_RTC_CheckStackVars@8
  000fa	58		 pop	 eax
  000fb	5a		 pop	 edx
  000fc	5f		 pop	 edi
  000fd	5e		 pop	 esi
  000fe	5b		 pop	 ebx
  000ff	8b 4d fc	 mov	 ecx, DWORD PTR __$ArrayPad$[ebp]
  00102	33 cd		 xor	 ecx, ebp
  00104	e8 00 00 00 00	 call	 @__security_check_cookie@4
  00109	81 c4 e8 00 00
	00		 add	 esp, 232		; 000000e8H
  0010f	3b ec		 cmp	 ebp, esp
  00111	e8 00 00 00 00	 call	 __RTC_CheckEsp
  00116	8b e5		 mov	 esp, ebp
  00118	5d		 pop	 ebp
  00119	c3		 ret	 0
  0011a	8b ff		 npad	 2
$LN10@DeCompress:
  0011c	02 00 00 00	 DD	 2
  00120	00 00 00 00	 DD	 $LN9@DeCompress
$LN9@DeCompress:
  00124	ec ff ff ff	 DD	 -20			; ffffffecH
  00128	0a 00 00 00	 DD	 10			; 0000000aH
  0012c	00 00 00 00	 DD	 $LN7@DeCompress
  00130	dc ff ff ff	 DD	 -36			; ffffffdcH
  00134	08 00 00 00	 DD	 8
  00138	00 00 00 00	 DD	 $LN8@DeCompress
$LN8@DeCompress:
  0013c	53		 DB	 83			; 00000053H
  0013d	53		 DB	 83			; 00000053H
  0013e	49		 DB	 73			; 00000049H
  0013f	44		 DB	 68			; 00000044H
  00140	00		 DB	 0
$LN7@DeCompress:
  00141	62		 DB	 98			; 00000062H
  00142	79		 DB	 121			; 00000079H
  00143	74		 DB	 116			; 00000074H
  00144	54		 DB	 84			; 00000054H
  00145	65		 DB	 101			; 00000065H
  00146	73		 DB	 115			; 00000073H
  00147	74		 DB	 116			; 00000074H
  00148	00		 DB	 0
_DeCompressCallsign ENDP
_TEXT	ENDS
PUBLIC	__$ArrayPad$
PUBLIC	_DeCompressGridSquare
; Function compile flags: /Odtp /RTCsu /ZI
;	COMDAT _DeCompressGridSquare
_TEXT	SEGMENT
_bytTest$ = -20						; size = 10
__$ArrayPad$ = -4					; size = 4
_bytGS$ = 8						; size = 4
_returned$ = 12						; size = 4
_DeCompressGridSquare PROC				; COMDAT

; 1830 : {

  00000	55		 push	 ebp
  00001	8b ec		 mov	 ebp, esp
  00003	81 ec d8 00 00
	00		 sub	 esp, 216		; 000000d8H
  00009	53		 push	 ebx
  0000a	56		 push	 esi
  0000b	57		 push	 edi
  0000c	8d bd 28 ff ff
	ff		 lea	 edi, DWORD PTR [ebp-216]
  00012	b9 36 00 00 00	 mov	 ecx, 54			; 00000036H
  00017	b8 cc cc cc cc	 mov	 eax, -858993460		; ccccccccH
  0001c	f3 ab		 rep stosd
  0001e	a1 00 00 00 00	 mov	 eax, DWORD PTR ___security_cookie
  00023	33 c5		 xor	 eax, ebp
  00025	89 45 fc	 mov	 DWORD PTR __$ArrayPad$[ebp], eax

; 1831 : 	char bytTest[10] = "";

  00028	a0 00 00 00 00	 mov	 al, BYTE PTR ??_C@_00CNPNBAHC@?$AA@
  0002d	88 45 ec	 mov	 BYTE PTR _bytTest$[ebp], al
  00030	33 c0		 xor	 eax, eax
  00032	89 45 ed	 mov	 DWORD PTR _bytTest$[ebp+1], eax
  00035	89 45 f1	 mov	 DWORD PTR _bytTest$[ebp+5], eax
  00038	88 45 f5	 mov	 BYTE PTR _bytTest$[ebp+9], al

; 1832 : 	Bit6ToASCII(bytGS, bytTest);

  0003b	8d 45 ec	 lea	 eax, DWORD PTR _bytTest$[ebp]
  0003e	50		 push	 eax
  0003f	8b 4d 08	 mov	 ecx, DWORD PTR _bytGS$[ebp]
  00042	51		 push	 ecx
  00043	e8 00 00 00 00	 call	 _Bit6ToASCII
  00048	83 c4 08	 add	 esp, 8

; 1833 : 
; 1834 : 	strlop(bytTest, ' ');

  0004b	6a 20		 push	 32			; 00000020H
  0004d	8d 45 ec	 lea	 eax, DWORD PTR _bytTest$[ebp]
  00050	50		 push	 eax
  00051	e8 00 00 00 00	 call	 _strlop
  00056	83 c4 08	 add	 esp, 8

; 1835 : 	strcpy(returned, bytTest);

  00059	8d 45 ec	 lea	 eax, DWORD PTR _bytTest$[ebp]
  0005c	50		 push	 eax
  0005d	8b 4d 0c	 mov	 ecx, DWORD PTR _returned$[ebp]
  00060	51		 push	 ecx
  00061	e8 00 00 00 00	 call	 _strcpy
  00066	83 c4 08	 add	 esp, 8

; 1836 : }

  00069	52		 push	 edx
  0006a	8b cd		 mov	 ecx, ebp
  0006c	50		 push	 eax
  0006d	8d 15 00 00 00
	00		 lea	 edx, DWORD PTR $LN5@DeCompress@2
  00073	e8 00 00 00 00	 call	 @_RTC_CheckStackVars@8
  00078	58		 pop	 eax
  00079	5a		 pop	 edx
  0007a	5f		 pop	 edi
  0007b	5e		 pop	 esi
  0007c	5b		 pop	 ebx
  0007d	8b 4d fc	 mov	 ecx, DWORD PTR __$ArrayPad$[ebp]
  00080	33 cd		 xor	 ecx, ebp
  00082	e8 00 00 00 00	 call	 @__security_check_cookie@4
  00087	81 c4 d8 00 00
	00		 add	 esp, 216		; 000000d8H
  0008d	3b ec		 cmp	 ebp, esp
  0008f	e8 00 00 00 00	 call	 __RTC_CheckEsp
  00094	8b e5		 mov	 esp, ebp
  00096	5d		 pop	 ebp
  00097	c3		 ret	 0
$LN5@DeCompress@2:
  00098	01 00 00 00	 DD	 1
  0009c	00 00 00 00	 DD	 $LN4@DeCompress@2
$LN4@DeCompress@2:
  000a0	ec ff ff ff	 DD	 -20			; ffffffecH
  000a4	0a 00 00 00	 DD	 10			; 0000000aH
  000a8	00 00 00 00	 DD	 $LN3@DeCompress@2
$LN3@DeCompress@2:
  000ac	62		 DB	 98			; 00000062H
  000ad	79		 DB	 121			; 00000079H
  000ae	74		 DB	 116			; 00000074H
  000af	54		 DB	 84			; 00000054H
  000b0	65		 DB	 101			; 00000065H
  000b1	73		 DB	 115			; 00000073H
  000b2	74		 DB	 116			; 00000074H
  000b3	00		 DB	 0
_DeCompressGridSquare ENDP
_TEXT	ENDS
PUBLIC	_ComputeTypeParity
; Function compile flags: /Odtp /RTCsu /ZI
;	COMDAT _ComputeTypeParity
_TEXT	SEGMENT
_k$ = -44						; size = 4
_bytSym$ = -29						; size = 1
_bytParitySum$ = -17					; size = 1
_bytMask$ = -5						; size = 1
_bytFrameType$ = 8					; size = 1
_ComputeTypeParity PROC					; COMDAT

; 1841 : {

  00000	55		 push	 ebp
  00001	8b ec		 mov	 ebp, esp
  00003	81 ec f0 00 00
	00		 sub	 esp, 240		; 000000f0H
  00009	53		 push	 ebx
  0000a	56		 push	 esi
  0000b	57		 push	 edi
  0000c	8d bd 10 ff ff
	ff		 lea	 edi, DWORD PTR [ebp-240]
  00012	b9 3c 00 00 00	 mov	 ecx, 60			; 0000003cH
  00017	b8 cc cc cc cc	 mov	 eax, -858993460		; ccccccccH
  0001c	f3 ab		 rep stosd

; 1842 : 	UCHAR bytMask = 0xC0;

  0001e	c6 45 fb c0	 mov	 BYTE PTR _bytMask$[ebp], 192 ; 000000c0H

; 1843 : 	UCHAR bytParitySum = 1;

  00022	c6 45 ef 01	 mov	 BYTE PTR _bytParitySum$[ebp], 1

; 1844 : 	UCHAR bytSym = 0;

  00026	c6 45 e3 00	 mov	 BYTE PTR _bytSym$[ebp], 0

; 1845 : 	int k;
; 1846 : 
; 1847 : 	for (k = 0; k < 4; k++)

  0002a	c7 45 d4 00 00
	00 00		 mov	 DWORD PTR _k$[ebp], 0
  00031	eb 09		 jmp	 SHORT $LN3@ComputeTyp
$LN2@ComputeTyp:
  00033	8b 45 d4	 mov	 eax, DWORD PTR _k$[ebp]
  00036	83 c0 01	 add	 eax, 1
  00039	89 45 d4	 mov	 DWORD PTR _k$[ebp], eax
$LN3@ComputeTyp:
  0003c	83 7d d4 04	 cmp	 DWORD PTR _k$[ebp], 4
  00040	7d 32		 jge	 SHORT $LN1@ComputeTyp

; 1848 : 	{
; 1849 : 		bytSym = (bytMask & bytFrameType) >> (2 * (3 - k));

  00042	0f b6 45 fb	 movzx	 eax, BYTE PTR _bytMask$[ebp]
  00046	0f b6 4d 08	 movzx	 ecx, BYTE PTR _bytFrameType$[ebp]
  0004a	23 c1		 and	 eax, ecx
  0004c	b9 03 00 00 00	 mov	 ecx, 3
  00051	2b 4d d4	 sub	 ecx, DWORD PTR _k$[ebp]
  00054	d1 e1		 shl	 ecx, 1
  00056	d3 f8		 sar	 eax, cl
  00058	88 45 e3	 mov	 BYTE PTR _bytSym$[ebp], al

; 1850 : 		bytParitySum = bytParitySum ^ bytSym;

  0005b	0f b6 45 ef	 movzx	 eax, BYTE PTR _bytParitySum$[ebp]
  0005f	0f b6 4d e3	 movzx	 ecx, BYTE PTR _bytSym$[ebp]
  00063	33 c1		 xor	 eax, ecx
  00065	88 45 ef	 mov	 BYTE PTR _bytParitySum$[ebp], al

; 1851 : 		bytMask = bytMask >> 2;

  00068	0f b6 45 fb	 movzx	 eax, BYTE PTR _bytMask$[ebp]
  0006c	c1 f8 02	 sar	 eax, 2
  0006f	88 45 fb	 mov	 BYTE PTR _bytMask$[ebp], al

; 1852 : 	}

  00072	eb bf		 jmp	 SHORT $LN2@ComputeTyp
$LN1@ComputeTyp:

; 1853 :     
; 1854 : 	return bytParitySum & 0x3;

  00074	0f b6 45 ef	 movzx	 eax, BYTE PTR _bytParitySum$[ebp]
  00078	83 e0 03	 and	 eax, 3

; 1855 : }

  0007b	5f		 pop	 edi
  0007c	5e		 pop	 esi
  0007d	5b		 pop	 ebx
  0007e	8b e5		 mov	 esp, ebp
  00080	5d		 pop	 ebp
  00081	c3		 ret	 0
_ComputeTypeParity ENDP
_TEXT	ENDS
PUBLIC	_FrameCode
; Function compile flags: /Odtp /RTCsu /ZI
;	COMDAT _FrameCode
_TEXT	SEGMENT
_i$ = -8						; size = 4
_strFrameName$ = 8					; size = 4
_FrameCode PROC						; COMDAT

; 1860 : {

  00000	55		 push	 ebp
  00001	8b ec		 mov	 ebp, esp
  00003	81 ec cc 00 00
	00		 sub	 esp, 204		; 000000ccH
  00009	53		 push	 ebx
  0000a	56		 push	 esi
  0000b	57		 push	 edi
  0000c	8d bd 34 ff ff
	ff		 lea	 edi, DWORD PTR [ebp-204]
  00012	b9 33 00 00 00	 mov	 ecx, 51			; 00000033H
  00017	b8 cc cc cc cc	 mov	 eax, -858993460		; ccccccccH
  0001c	f3 ab		 rep stosd

; 1861 : 	int i;
; 1862 : 
; 1863 :     for (i = 0; i < 256; i++)

  0001e	c7 45 f8 00 00
	00 00		 mov	 DWORD PTR _i$[ebp], 0
  00025	eb 09		 jmp	 SHORT $LN4@FrameCode
$LN3@FrameCode:
  00027	8b 45 f8	 mov	 eax, DWORD PTR _i$[ebp]
  0002a	83 c0 01	 add	 eax, 1
  0002d	89 45 f8	 mov	 DWORD PTR _i$[ebp], eax
$LN4@FrameCode:
  00030	81 7d f8 00 01
	00 00		 cmp	 DWORD PTR _i$[ebp], 256	; 00000100H
  00037	7d 24		 jge	 SHORT $LN2@FrameCode

; 1864 : 	{
; 1865 : 		if (strcmp(strFrameType[i], strFrameName) == 0)

  00039	8b 45 08	 mov	 eax, DWORD PTR _strFrameName$[ebp]
  0003c	50		 push	 eax
  0003d	8b 4d f8	 mov	 ecx, DWORD PTR _i$[ebp]
  00040	6b c9 12	 imul	 ecx, 18			; 00000012H
  00043	81 c1 00 00 00
	00		 add	 ecx, OFFSET _strFrameType
  00049	51		 push	 ecx
  0004a	e8 00 00 00 00	 call	 _strcmp
  0004f	83 c4 08	 add	 esp, 8
  00052	85 c0		 test	 eax, eax
  00054	75 05		 jne	 SHORT $LN1@FrameCode

; 1866 : 		{
; 1867 : 			return i;

  00056	8a 45 f8	 mov	 al, BYTE PTR _i$[ebp]
  00059	eb 04		 jmp	 SHORT $LN5@FrameCode
$LN1@FrameCode:

; 1868 : 		}
; 1869 : 	}

  0005b	eb ca		 jmp	 SHORT $LN3@FrameCode
$LN2@FrameCode:

; 1870 : 	return 0;

  0005d	32 c0		 xor	 al, al
$LN5@FrameCode:

; 1871 : }

  0005f	5f		 pop	 edi
  00060	5e		 pop	 esi
  00061	5b		 pop	 ebx
  00062	81 c4 cc 00 00
	00		 add	 esp, 204		; 000000ccH
  00068	3b ec		 cmp	 ebp, esp
  0006a	e8 00 00 00 00	 call	 __RTC_CheckEsp
  0006f	8b e5		 mov	 esp, ebp
  00071	5d		 pop	 ebp
  00072	c3		 ret	 0
_FrameCode ENDP
_TEXT	ENDS
PUBLIC	_GenCRC16
; Function compile flags: /Odtp /RTCsu /ZI
;	COMDAT _GenCRC16
_TEXT	SEGMENT
_Mask$28895 = -68					; size = 4
_intPoly$ = -56						; size = 4
_Bit$ = -44						; size = 4
_j$ = -32						; size = 4
_i$ = -20						; size = 4
_intRegister$ = -8					; size = 4
_Data$ = 8						; size = 4
_length$ = 12						; size = 2
_GenCRC16 PROC						; COMDAT

; 1874 : {

  00000	55		 push	 ebp
  00001	8b ec		 mov	 ebp, esp
  00003	81 ec 08 01 00
	00		 sub	 esp, 264		; 00000108H
  00009	53		 push	 ebx
  0000a	56		 push	 esi
  0000b	57		 push	 edi
  0000c	8d bd f8 fe ff
	ff		 lea	 edi, DWORD PTR [ebp-264]
  00012	b9 42 00 00 00	 mov	 ecx, 66			; 00000042H
  00017	b8 cc cc cc cc	 mov	 eax, -858993460		; ccccccccH
  0001c	f3 ab		 rep stosd

; 1875 : 	// For  CRC-16-CCITT =    x^16 + x^12 +x^5 + 1  intPoly = 1021 Init FFFF
; 1876 :     // intSeed is the seed value for the shift register and must be in the range 0-0xFFFF
; 1877 : 
; 1878 : 	int intRegister = 0xffff; //intSeed

  0001e	c7 45 f8 ff ff
	00 00		 mov	 DWORD PTR _intRegister$[ebp], 65535 ; 0000ffffH

; 1879 : 	int i,j;
; 1880 : 	int Bit;
; 1881 : 	int intPoly = 0x8810;	//  This implements the CRC polynomial  x^16 + x^12 +x^5 + 1

  00025	c7 45 c8 10 88
	00 00		 mov	 DWORD PTR _intPoly$[ebp], 34832 ; 00008810H

; 1882 : 
; 1883 : 	for (j = 0; j < length; j++)	

  0002c	c7 45 e0 00 00
	00 00		 mov	 DWORD PTR _j$[ebp], 0
  00033	eb 09		 jmp	 SHORT $LN12@GenCRC16
$LN11@GenCRC16:
  00035	8b 45 e0	 mov	 eax, DWORD PTR _j$[ebp]
  00038	83 c0 01	 add	 eax, 1
  0003b	89 45 e0	 mov	 DWORD PTR _j$[ebp], eax
$LN12@GenCRC16:
  0003e	0f b7 45 0c	 movzx	 eax, WORD PTR _length$[ebp]
  00042	39 45 e0	 cmp	 DWORD PTR _j$[ebp], eax
  00045	0f 8d 9f 00 00
	00		 jge	 $LN10@GenCRC16

; 1884 : 	{
; 1885 : 		int Mask = 0x80;			// Top bit first

  0004b	c7 45 bc 80 00
	00 00		 mov	 DWORD PTR _Mask$28895[ebp], 128 ; 00000080H

; 1886 : 
; 1887 : 		for (i = 0; i < 8; i++)	// for each bit processing MS bit first

  00052	c7 45 ec 00 00
	00 00		 mov	 DWORD PTR _i$[ebp], 0
  00059	eb 09		 jmp	 SHORT $LN9@GenCRC16
$LN8@GenCRC16:
  0005b	8b 45 ec	 mov	 eax, DWORD PTR _i$[ebp]
  0005e	83 c0 01	 add	 eax, 1
  00061	89 45 ec	 mov	 DWORD PTR _i$[ebp], eax
$LN9@GenCRC16:
  00064	83 7d ec 08	 cmp	 DWORD PTR _i$[ebp], 8
  00068	7d 7b		 jge	 SHORT $LN7@GenCRC16

; 1888 : 		{
; 1889 : 			Bit = Data[j] & Mask;

  0006a	8b 45 08	 mov	 eax, DWORD PTR _Data$[ebp]
  0006d	03 45 e0	 add	 eax, DWORD PTR _j$[ebp]
  00070	0f b6 08	 movzx	 ecx, BYTE PTR [eax]
  00073	23 4d bc	 and	 ecx, DWORD PTR _Mask$28895[ebp]
  00076	89 4d d4	 mov	 DWORD PTR _Bit$[ebp], ecx

; 1890 : 			Mask >>= 1;

  00079	8b 45 bc	 mov	 eax, DWORD PTR _Mask$28895[ebp]
  0007c	d1 f8		 sar	 eax, 1
  0007e	89 45 bc	 mov	 DWORD PTR _Mask$28895[ebp], eax

; 1891 : 
; 1892 :             if (intRegister & 0x8000)		//  Then ' the MSB of the register is set

  00081	8b 45 f8	 mov	 eax, DWORD PTR _intRegister$[ebp]
  00084	25 00 80 00 00	 and	 eax, 32768		; 00008000H
  00089	74 30		 je	 SHORT $LN6@GenCRC16

; 1893 : 			{
; 1894 :                 // Shift left, place data bit as LSB, then divide
; 1895 :                 // Register := shiftRegister left shift 1
; 1896 :                 // Register := shiftRegister xor polynomial
; 1897 :                  
; 1898 :               if (Bit)

  0008b	83 7d d4 00	 cmp	 DWORD PTR _Bit$[ebp], 0
  0008f	74 12		 je	 SHORT $LN5@GenCRC16

; 1899 :                  intRegister = 0xFFFF & (1 + (intRegister << 1));

  00091	8b 45 f8	 mov	 eax, DWORD PTR _intRegister$[ebp]
  00094	8d 4c 00 01	 lea	 ecx, DWORD PTR [eax+eax+1]
  00098	81 e1 ff ff 00
	00		 and	 ecx, 65535		; 0000ffffH
  0009e	89 4d f8	 mov	 DWORD PTR _intRegister$[ebp], ecx

; 1900 : 			  else

  000a1	eb 0d		 jmp	 SHORT $LN4@GenCRC16
$LN5@GenCRC16:

; 1901 :                   intRegister = 0xFFFF & (intRegister << 1);

  000a3	8b 45 f8	 mov	 eax, DWORD PTR _intRegister$[ebp]
  000a6	d1 e0		 shl	 eax, 1
  000a8	25 ff ff 00 00	 and	 eax, 65535		; 0000ffffH
  000ad	89 45 f8	 mov	 DWORD PTR _intRegister$[ebp], eax
$LN4@GenCRC16:

; 1902 : 	
; 1903 : 				intRegister = intRegister ^ intPoly;

  000b0	8b 45 f8	 mov	 eax, DWORD PTR _intRegister$[ebp]
  000b3	33 45 c8	 xor	 eax, DWORD PTR _intPoly$[ebp]
  000b6	89 45 f8	 mov	 DWORD PTR _intRegister$[ebp], eax

; 1904 : 			}
; 1905 : 			else  

  000b9	eb 25		 jmp	 SHORT $LN3@GenCRC16
$LN6@GenCRC16:

; 1906 : 			{
; 1907 : 				// the MSB is not set
; 1908 :                 // Register is not divisible by polynomial yet.
; 1909 :                 // Just shift left and bring current data bit onto LSB of shiftRegister
; 1910 :               if (Bit)

  000bb	83 7d d4 00	 cmp	 DWORD PTR _Bit$[ebp], 0
  000bf	74 12		 je	 SHORT $LN2@GenCRC16

; 1911 :                  intRegister = 0xFFFF & (1 + (intRegister << 1));

  000c1	8b 45 f8	 mov	 eax, DWORD PTR _intRegister$[ebp]
  000c4	8d 4c 00 01	 lea	 ecx, DWORD PTR [eax+eax+1]
  000c8	81 e1 ff ff 00
	00		 and	 ecx, 65535		; 0000ffffH
  000ce	89 4d f8	 mov	 DWORD PTR _intRegister$[ebp], ecx

; 1912 : 			  else

  000d1	eb 0d		 jmp	 SHORT $LN3@GenCRC16
$LN2@GenCRC16:

; 1913 :                   intRegister = 0xFFFF & (intRegister << 1);

  000d3	8b 45 f8	 mov	 eax, DWORD PTR _intRegister$[ebp]
  000d6	d1 e0		 shl	 eax, 1
  000d8	25 ff ff 00 00	 and	 eax, 65535		; 0000ffffH
  000dd	89 45 f8	 mov	 DWORD PTR _intRegister$[ebp], eax
$LN3@GenCRC16:

; 1914 : 			}
; 1915 : 		}

  000e0	e9 76 ff ff ff	 jmp	 $LN8@GenCRC16
$LN7@GenCRC16:

; 1916 : 	}

  000e5	e9 4b ff ff ff	 jmp	 $LN11@GenCRC16
$LN10@GenCRC16:

; 1917 :  
; 1918 : 	return intRegister;

  000ea	8b 45 f8	 mov	 eax, DWORD PTR _intRegister$[ebp]

; 1919 : }

  000ed	5f		 pop	 edi
  000ee	5e		 pop	 esi
  000ef	5b		 pop	 ebx
  000f0	8b e5		 mov	 esp, ebp
  000f2	5d		 pop	 ebp
  000f3	c3		 ret	 0
_GenCRC16 ENDP
_TEXT	ENDS
PUBLIC	_checkcrc16
; Function compile flags: /Odtp /RTCsu /ZI
;	COMDAT _checkcrc16
_TEXT	SEGMENT
_Mask$28919 = -68					; size = 4
_intPoly$ = -56						; size = 4
_Bit$ = -44						; size = 4
_j$ = -32						; size = 4
_i$ = -20						; size = 4
_intRegister$ = -8					; size = 4
_Data$ = 8						; size = 4
_length$ = 12						; size = 2
_checkcrc16 PROC					; COMDAT

; 1922 : {

  00000	55		 push	 ebp
  00001	8b ec		 mov	 ebp, esp
  00003	81 ec 08 01 00
	00		 sub	 esp, 264		; 00000108H
  00009	53		 push	 ebx
  0000a	56		 push	 esi
  0000b	57		 push	 edi
  0000c	8d bd f8 fe ff
	ff		 lea	 edi, DWORD PTR [ebp-264]
  00012	b9 42 00 00 00	 mov	 ecx, 66			; 00000042H
  00017	b8 cc cc cc cc	 mov	 eax, -858993460		; ccccccccH
  0001c	f3 ab		 rep stosd

; 1923 : 	int intRegister = 0xffff; //intSeed

  0001e	c7 45 f8 ff ff
	00 00		 mov	 DWORD PTR _intRegister$[ebp], 65535 ; 0000ffffH

; 1924 : 	int i,j;
; 1925 : 	int Bit;
; 1926 : 	int intPoly = 0x8810;	//  This implements the CRC polynomial  x^16 + x^12 +x^5 + 1

  00025	c7 45 c8 10 88
	00 00		 mov	 DWORD PTR _intPoly$[ebp], 34832 ; 00008810H

; 1927 : 
; 1928 : 	for (j = 0; j <  (length - 2); j++)		// ' 2 bytes short of data length

  0002c	c7 45 e0 00 00
	00 00		 mov	 DWORD PTR _j$[ebp], 0
  00033	eb 09		 jmp	 SHORT $LN14@checkcrc16
$LN13@checkcrc16:
  00035	8b 45 e0	 mov	 eax, DWORD PTR _j$[ebp]
  00038	83 c0 01	 add	 eax, 1
  0003b	89 45 e0	 mov	 DWORD PTR _j$[ebp], eax
$LN14@checkcrc16:
  0003e	0f b7 45 0c	 movzx	 eax, WORD PTR _length$[ebp]
  00042	83 e8 02	 sub	 eax, 2
  00045	39 45 e0	 cmp	 DWORD PTR _j$[ebp], eax
  00048	0f 8d 9f 00 00
	00		 jge	 $LN12@checkcrc16

; 1929 : 	{
; 1930 : 		int Mask = 0x80;			// Top bit first

  0004e	c7 45 bc 80 00
	00 00		 mov	 DWORD PTR _Mask$28919[ebp], 128 ; 00000080H

; 1931 : 
; 1932 : 		for (i = 0; i < 8; i++)	// for each bit processing MS bit first

  00055	c7 45 ec 00 00
	00 00		 mov	 DWORD PTR _i$[ebp], 0
  0005c	eb 09		 jmp	 SHORT $LN11@checkcrc16
$LN10@checkcrc16:
  0005e	8b 45 ec	 mov	 eax, DWORD PTR _i$[ebp]
  00061	83 c0 01	 add	 eax, 1
  00064	89 45 ec	 mov	 DWORD PTR _i$[ebp], eax
$LN11@checkcrc16:
  00067	83 7d ec 08	 cmp	 DWORD PTR _i$[ebp], 8
  0006b	7d 7b		 jge	 SHORT $LN9@checkcrc16

; 1933 : 		{
; 1934 : 			Bit = Data[j] & Mask;

  0006d	8b 45 08	 mov	 eax, DWORD PTR _Data$[ebp]
  00070	03 45 e0	 add	 eax, DWORD PTR _j$[ebp]
  00073	0f b6 08	 movzx	 ecx, BYTE PTR [eax]
  00076	23 4d bc	 and	 ecx, DWORD PTR _Mask$28919[ebp]
  00079	89 4d d4	 mov	 DWORD PTR _Bit$[ebp], ecx

; 1935 : 			Mask >>= 1;

  0007c	8b 45 bc	 mov	 eax, DWORD PTR _Mask$28919[ebp]
  0007f	d1 f8		 sar	 eax, 1
  00081	89 45 bc	 mov	 DWORD PTR _Mask$28919[ebp], eax

; 1936 : 
; 1937 :             if (intRegister & 0x8000)		//  Then ' the MSB of the register is set

  00084	8b 45 f8	 mov	 eax, DWORD PTR _intRegister$[ebp]
  00087	25 00 80 00 00	 and	 eax, 32768		; 00008000H
  0008c	74 30		 je	 SHORT $LN8@checkcrc16

; 1938 : 			{
; 1939 :                 // Shift left, place data bit as LSB, then divide
; 1940 :                 // Register := shiftRegister left shift 1
; 1941 :                 // Register := shiftRegister xor polynomial
; 1942 :                  
; 1943 :               if (Bit)

  0008e	83 7d d4 00	 cmp	 DWORD PTR _Bit$[ebp], 0
  00092	74 12		 je	 SHORT $LN7@checkcrc16

; 1944 :                  intRegister = 0xFFFF & (1 + (intRegister << 1));

  00094	8b 45 f8	 mov	 eax, DWORD PTR _intRegister$[ebp]
  00097	8d 4c 00 01	 lea	 ecx, DWORD PTR [eax+eax+1]
  0009b	81 e1 ff ff 00
	00		 and	 ecx, 65535		; 0000ffffH
  000a1	89 4d f8	 mov	 DWORD PTR _intRegister$[ebp], ecx

; 1945 : 			  else

  000a4	eb 0d		 jmp	 SHORT $LN6@checkcrc16
$LN7@checkcrc16:

; 1946 :                   intRegister = 0xFFFF & (intRegister << 1);

  000a6	8b 45 f8	 mov	 eax, DWORD PTR _intRegister$[ebp]
  000a9	d1 e0		 shl	 eax, 1
  000ab	25 ff ff 00 00	 and	 eax, 65535		; 0000ffffH
  000b0	89 45 f8	 mov	 DWORD PTR _intRegister$[ebp], eax
$LN6@checkcrc16:

; 1947 : 	
; 1948 : 				intRegister = intRegister ^ intPoly;

  000b3	8b 45 f8	 mov	 eax, DWORD PTR _intRegister$[ebp]
  000b6	33 45 c8	 xor	 eax, DWORD PTR _intPoly$[ebp]
  000b9	89 45 f8	 mov	 DWORD PTR _intRegister$[ebp], eax

; 1949 : 			}
; 1950 : 			else  

  000bc	eb 25		 jmp	 SHORT $LN5@checkcrc16
$LN8@checkcrc16:

; 1951 : 			{
; 1952 : 				// the MSB is not set
; 1953 :                 // Register is not divisible by polynomial yet.
; 1954 :                 // Just shift left and bring current data bit onto LSB of shiftRegister
; 1955 :               if (Bit)

  000be	83 7d d4 00	 cmp	 DWORD PTR _Bit$[ebp], 0
  000c2	74 12		 je	 SHORT $LN4@checkcrc16

; 1956 :                  intRegister = 0xFFFF & (1 + (intRegister << 1));

  000c4	8b 45 f8	 mov	 eax, DWORD PTR _intRegister$[ebp]
  000c7	8d 4c 00 01	 lea	 ecx, DWORD PTR [eax+eax+1]
  000cb	81 e1 ff ff 00
	00		 and	 ecx, 65535		; 0000ffffH
  000d1	89 4d f8	 mov	 DWORD PTR _intRegister$[ebp], ecx

; 1957 : 			  else

  000d4	eb 0d		 jmp	 SHORT $LN5@checkcrc16
$LN4@checkcrc16:

; 1958 :                   intRegister = 0xFFFF & (intRegister << 1);

  000d6	8b 45 f8	 mov	 eax, DWORD PTR _intRegister$[ebp]
  000d9	d1 e0		 shl	 eax, 1
  000db	25 ff ff 00 00	 and	 eax, 65535		; 0000ffffH
  000e0	89 45 f8	 mov	 DWORD PTR _intRegister$[ebp], eax
$LN5@checkcrc16:

; 1959 : 			}
; 1960 : 		}

  000e3	e9 76 ff ff ff	 jmp	 $LN10@checkcrc16
$LN9@checkcrc16:

; 1961 : 	}

  000e8	e9 48 ff ff ff	 jmp	 $LN13@checkcrc16
$LN12@checkcrc16:

; 1962 : 
; 1963 :     if (Data[length - 2] == intRegister >> 8)

  000ed	0f b7 45 0c	 movzx	 eax, WORD PTR _length$[ebp]
  000f1	8b 4d 08	 mov	 ecx, DWORD PTR _Data$[ebp]
  000f4	0f b6 54 01 fe	 movzx	 edx, BYTE PTR [ecx+eax-2]
  000f9	8b 45 f8	 mov	 eax, DWORD PTR _intRegister$[ebp]
  000fc	c1 f8 08	 sar	 eax, 8
  000ff	3b d0		 cmp	 edx, eax
  00101	75 1f		 jne	 SHORT $LN2@checkcrc16

; 1964 : 		if (Data[length - 1] == (intRegister & 0xFF))

  00103	0f b7 45 0c	 movzx	 eax, WORD PTR _length$[ebp]
  00107	8b 4d 08	 mov	 ecx, DWORD PTR _Data$[ebp]
  0010a	0f b6 54 01 ff	 movzx	 edx, BYTE PTR [ecx+eax-1]
  0010f	8b 45 f8	 mov	 eax, DWORD PTR _intRegister$[ebp]
  00112	25 ff 00 00 00	 and	 eax, 255		; 000000ffH
  00117	3b d0		 cmp	 edx, eax
  00119	75 07		 jne	 SHORT $LN2@checkcrc16

; 1965 : 			return TRUE;

  0011b	b8 01 00 00 00	 mov	 eax, 1
  00120	eb 02		 jmp	 SHORT $LN15@checkcrc16
$LN2@checkcrc16:

; 1966 :    
; 1967 : 	return FALSE;

  00122	33 c0		 xor	 eax, eax
$LN15@checkcrc16:

; 1968 : }

  00124	5f		 pop	 edi
  00125	5e		 pop	 esi
  00126	5b		 pop	 ebx
  00127	8b e5		 mov	 esp, ebp
  00129	5d		 pop	 ebp
  0012a	c3		 ret	 0
_checkcrc16 ENDP
; Function compile flags: /Odtp /RTCsu /ZI
_TEXT	ENDS
;	COMDAT _GenCRC16FrameType
_TEXT	SEGMENT
_CRC$ = -8						; size = 4
_Data$ = 8						; size = 4
_Length$ = 12						; size = 4
_bytFrameType$ = 16					; size = 1
_GenCRC16FrameType PROC					; COMDAT

; 1974 : {

  00000	55		 push	 ebp
  00001	8b ec		 mov	 ebp, esp
  00003	81 ec cc 00 00
	00		 sub	 esp, 204		; 000000ccH
  00009	53		 push	 ebx
  0000a	56		 push	 esi
  0000b	57		 push	 edi
  0000c	8d bd 34 ff ff
	ff		 lea	 edi, DWORD PTR [ebp-204]
  00012	b9 33 00 00 00	 mov	 ecx, 51			; 00000033H
  00017	b8 cc cc cc cc	 mov	 eax, -858993460		; ccccccccH
  0001c	f3 ab		 rep stosd

; 1975 : 	unsigned int CRC = GenCRC16(Data, Length);

  0001e	66 8b 45 0c	 mov	 ax, WORD PTR _Length$[ebp]
  00022	50		 push	 eax
  00023	8b 4d 08	 mov	 ecx, DWORD PTR _Data$[ebp]
  00026	51		 push	 ecx
  00027	e8 00 00 00 00	 call	 _GenCRC16
  0002c	83 c4 08	 add	 esp, 8
  0002f	89 45 f8	 mov	 DWORD PTR _CRC$[ebp], eax

; 1976 : 
; 1977 : 	// Put the two CRC bytes after the stop index
; 1978 : 
; 1979 : 	Data[Length++] = (CRC >> 8);		 // MS 8 bits of Register

  00032	8b 45 f8	 mov	 eax, DWORD PTR _CRC$[ebp]
  00035	c1 e8 08	 shr	 eax, 8
  00038	8b 4d 08	 mov	 ecx, DWORD PTR _Data$[ebp]
  0003b	03 4d 0c	 add	 ecx, DWORD PTR _Length$[ebp]
  0003e	88 01		 mov	 BYTE PTR [ecx], al
  00040	8b 55 0c	 mov	 edx, DWORD PTR _Length$[ebp]
  00043	83 c2 01	 add	 edx, 1
  00046	89 55 0c	 mov	 DWORD PTR _Length$[ebp], edx

; 1980 : 	Data[Length] = (CRC & 0xFF) ^ bytFrameType;  // LS 8 bits of Register

  00049	8b 45 f8	 mov	 eax, DWORD PTR _CRC$[ebp]
  0004c	25 ff 00 00 00	 and	 eax, 255		; 000000ffH
  00051	0f b6 4d 10	 movzx	 ecx, BYTE PTR _bytFrameType$[ebp]
  00055	33 c1		 xor	 eax, ecx
  00057	8b 55 08	 mov	 edx, DWORD PTR _Data$[ebp]
  0005a	03 55 0c	 add	 edx, DWORD PTR _Length$[ebp]
  0005d	88 02		 mov	 BYTE PTR [edx], al

; 1981 : }

  0005f	5f		 pop	 edi
  00060	5e		 pop	 esi
  00061	5b		 pop	 ebx
  00062	81 c4 cc 00 00
	00		 add	 esp, 204		; 000000ccH
  00068	3b ec		 cmp	 ebp, esp
  0006a	e8 00 00 00 00	 call	 __RTC_CheckEsp
  0006f	8b e5		 mov	 esp, ebp
  00071	5d		 pop	 ebp
  00072	c3		 ret	 0
_GenCRC16FrameType ENDP
_TEXT	ENDS
PUBLIC	_compute_crc
PUBLIC	_CheckCRC16FrameType
; Function compile flags: /Odtp /RTCsu /ZI
;	COMDAT _CheckCRC16FrameType
_TEXT	SEGMENT
_CRC2$ = -20						; size = 2
_CRC$ = -8						; size = 4
_Data$ = 8						; size = 4
_Length$ = 12						; size = 4
_bytFrameType$ = 16					; size = 1
_CheckCRC16FrameType PROC				; COMDAT

; 1988 : {

  00000	55		 push	 ebp
  00001	8b ec		 mov	 ebp, esp
  00003	81 ec d8 00 00
	00		 sub	 esp, 216		; 000000d8H
  00009	53		 push	 ebx
  0000a	56		 push	 esi
  0000b	57		 push	 edi
  0000c	8d bd 28 ff ff
	ff		 lea	 edi, DWORD PTR [ebp-216]
  00012	b9 36 00 00 00	 mov	 ecx, 54			; 00000036H
  00017	b8 cc cc cc cc	 mov	 eax, -858993460		; ccccccccH
  0001c	f3 ab		 rep stosd

; 1989 : 	// returns TRUE if CRC matches, else FALSE
; 1990 :     // For  CRC-16-CCITT =    x^16 + x^12 +x^5 + 1  intPoly = 1021 Init FFFF
; 1991 :     // intSeed is the seed value for the shift register and must be in the range 0-0xFFFF
; 1992 : 
; 1993 : 	unsigned int CRC = GenCRC16(Data, Length);

  0001e	66 8b 45 0c	 mov	 ax, WORD PTR _Length$[ebp]
  00022	50		 push	 eax
  00023	8b 4d 08	 mov	 ecx, DWORD PTR _Data$[ebp]
  00026	51		 push	 ecx
  00027	e8 00 00 00 00	 call	 _GenCRC16
  0002c	83 c4 08	 add	 esp, 8
  0002f	89 45 f8	 mov	 DWORD PTR _CRC$[ebp], eax

; 1994 : 	unsigned short CRC2 =  compute_crc(Data, Length);

  00032	8b 45 0c	 mov	 eax, DWORD PTR _Length$[ebp]
  00035	50		 push	 eax
  00036	8b 4d 08	 mov	 ecx, DWORD PTR _Data$[ebp]
  00039	51		 push	 ecx
  0003a	e8 00 00 00 00	 call	 _compute_crc
  0003f	83 c4 08	 add	 esp, 8
  00042	66 89 45 ec	 mov	 WORD PTR _CRC2$[ebp], ax

; 1995 : 	CRC2 ^= 0xffff;

  00046	0f b7 45 ec	 movzx	 eax, WORD PTR _CRC2$[ebp]
  0004a	35 ff ff 00 00	 xor	 eax, 65535		; 0000ffffH
  0004f	66 89 45 ec	 mov	 WORD PTR _CRC2$[ebp], ax

; 1996 :   
; 1997 : 	// Compare the register with the last two bytes of Data (the CRC) 
; 1998 :     
; 1999 : 	if ((CRC >> 8) == Data[Length])

  00053	8b 45 f8	 mov	 eax, DWORD PTR _CRC$[ebp]
  00056	c1 e8 08	 shr	 eax, 8
  00059	8b 4d 08	 mov	 ecx, DWORD PTR _Data$[ebp]
  0005c	03 4d 0c	 add	 ecx, DWORD PTR _Length$[ebp]
  0005f	0f b6 11	 movzx	 edx, BYTE PTR [ecx]
  00062	3b c2		 cmp	 eax, edx
  00064	75 23		 jne	 SHORT $LN2@CheckCRC16

; 2000 : 		if (((CRC & 0xFF) ^ bytFrameType) == Data[Length + 1])

  00066	8b 45 f8	 mov	 eax, DWORD PTR _CRC$[ebp]
  00069	25 ff 00 00 00	 and	 eax, 255		; 000000ffH
  0006e	0f b6 4d 10	 movzx	 ecx, BYTE PTR _bytFrameType$[ebp]
  00072	33 c1		 xor	 eax, ecx
  00074	8b 55 08	 mov	 edx, DWORD PTR _Data$[ebp]
  00077	03 55 0c	 add	 edx, DWORD PTR _Length$[ebp]
  0007a	0f b6 4a 01	 movzx	 ecx, BYTE PTR [edx+1]
  0007e	3b c1		 cmp	 eax, ecx
  00080	75 07		 jne	 SHORT $LN2@CheckCRC16

; 2001 : 			return TRUE;

  00082	b8 01 00 00 00	 mov	 eax, 1
  00087	eb 02		 jmp	 SHORT $LN3@CheckCRC16
$LN2@CheckCRC16:

; 2002 : 
; 2003 : 	return FALSE;

  00089	33 c0		 xor	 eax, eax
$LN3@CheckCRC16:

; 2004 : }

  0008b	5f		 pop	 edi
  0008c	5e		 pop	 esi
  0008d	5b		 pop	 ebx
  0008e	81 c4 d8 00 00
	00		 add	 esp, 216		; 000000d8H
  00094	3b ec		 cmp	 ebp, esp
  00096	e8 00 00 00 00	 call	 __RTC_CheckEsp
  0009b	8b e5		 mov	 esp, ebp
  0009d	5d		 pop	 ebp
  0009e	c3		 ret	 0
_CheckCRC16FrameType ENDP
_TEXT	ENDS
PUBLIC	??_C@_08BMJCPEED@BUFFER?50?$AA@			; `string'
PUBLIC	_ClearDataToSend
EXTRN	_QueueCommandToHost:PROC
EXTRN	_bytDataToSendLength:DWORD
;	COMDAT ??_C@_08BMJCPEED@BUFFER?50?$AA@
CONST	SEGMENT
??_C@_08BMJCPEED@BUFFER?50?$AA@ DB 'BUFFER 0', 00H	; `string'
; Function compile flags: /Odtp /RTCsu /ZI
CONST	ENDS
;	COMDAT _ClearDataToSend
_TEXT	SEGMENT
_ClearDataToSend PROC					; COMDAT

; 2009 : {

  00000	55		 push	 ebp
  00001	8b ec		 mov	 ebp, esp
  00003	81 ec c0 00 00
	00		 sub	 esp, 192		; 000000c0H
  00009	53		 push	 ebx
  0000a	56		 push	 esi
  0000b	57		 push	 edi
  0000c	8d bd 40 ff ff
	ff		 lea	 edi, DWORD PTR [ebp-192]
  00012	b9 30 00 00 00	 mov	 ecx, 48			; 00000030H
  00017	b8 cc cc cc cc	 mov	 eax, -858993460		; ccccccccH
  0001c	f3 ab		 rep stosd

; 2010 : 	GetSemaphore();

  0001e	e8 00 00 00 00	 call	 _GetSemaphore

; 2011 : 	bytDataToSendLength = 0;

  00023	c7 05 00 00 00
	00 00 00 00 00	 mov	 DWORD PTR _bytDataToSendLength, 0

; 2012 : 	FreeSemaphore();

  0002d	e8 00 00 00 00	 call	 _FreeSemaphore

; 2013 : 
; 2014 : #ifdef TEENSY
; 2015 : 	SetLED(TRAFFICLED, FALSE);
; 2016 : #endif
; 2017 : 	QueueCommandToHost("BUFFER 0");

  00032	68 00 00 00 00	 push	 OFFSET ??_C@_08BMJCPEED@BUFFER?50?$AA@
  00037	e8 00 00 00 00	 call	 _QueueCommandToHost
  0003c	83 c4 04	 add	 esp, 4

; 2018 : }

  0003f	5f		 pop	 edi
  00040	5e		 pop	 esi
  00041	5b		 pop	 ebx
  00042	81 c4 c0 00 00
	00		 add	 esp, 192		; 000000c0H
  00048	3b ec		 cmp	 ebp, esp
  0004a	e8 00 00 00 00	 call	 __RTC_CheckEsp
  0004f	8b e5		 mov	 esp, ebp
  00051	5d		 pop	 ebp
  00052	c3		 ret	 0
_ClearDataToSend ENDP
_TEXT	ENDS
PUBLIC	_SaveQueueOnBreak
; Function compile flags: /Odtp /RTCsu /ZI
;	COMDAT _SaveQueueOnBreak
_TEXT	SEGMENT
_SaveQueueOnBreak PROC					; COMDAT

; 2021 : {

  00000	55		 push	 ebp
  00001	8b ec		 mov	 ebp, esp
  00003	81 ec c0 00 00
	00		 sub	 esp, 192		; 000000c0H
  00009	53		 push	 ebx
  0000a	56		 push	 esi
  0000b	57		 push	 edi
  0000c	8d bd 40 ff ff
	ff		 lea	 edi, DWORD PTR [ebp-192]
  00012	b9 30 00 00 00	 mov	 ecx, 48			; 00000030H
  00017	b8 cc cc cc cc	 mov	 eax, -858993460		; ccccccccH
  0001c	f3 ab		 rep stosd

; 2022 : 	// Save data we are about to remove from TX buffer
; 2023 : }

  0001e	5f		 pop	 edi
  0001f	5e		 pop	 esi
  00020	5b		 pop	 ebx
  00021	8b e5		 mov	 esp, ebp
  00023	5d		 pop	 ebp
  00024	c3		 ret	 0
_SaveQueueOnBreak ENDP
_TEXT	ENDS
PUBLIC	??_C@_09PELFENOG@BUFFER?5?$CFd?$AA@		; `string'
PUBLIC	__$ArrayPad$
PUBLIC	_RemoveDataFromQueue
EXTRN	_memmove:PROC
EXTRN	_bytesEchoed:DWORD
EXTRN	_bytEchoData:BYTE
EXTRN	_bytDataToSend:BYTE
EXTRN	_DelayedEcho:BYTE
;	COMDAT ??_C@_09PELFENOG@BUFFER?5?$CFd?$AA@
CONST	SEGMENT
??_C@_09PELFENOG@BUFFER?5?$CFd?$AA@ DB 'BUFFER %d', 00H	; `string'
; Function compile flags: /Odtp /RTCsu /ZI
CONST	ENDS
;	COMDAT _RemoveDataFromQueue
_TEXT	SEGMENT
_HostCmd$ = -40						; size = 32
__$ArrayPad$ = -4					; size = 4
_Len$ = 8						; size = 4
_RemoveDataFromQueue PROC				; COMDAT

; 2039 : {

  00000	55		 push	 ebp
  00001	8b ec		 mov	 ebp, esp
  00003	81 ec ec 00 00
	00		 sub	 esp, 236		; 000000ecH
  00009	53		 push	 ebx
  0000a	56		 push	 esi
  0000b	57		 push	 edi
  0000c	8d bd 14 ff ff
	ff		 lea	 edi, DWORD PTR [ebp-236]
  00012	b9 3b 00 00 00	 mov	 ecx, 59			; 0000003bH
  00017	b8 cc cc cc cc	 mov	 eax, -858993460		; ccccccccH
  0001c	f3 ab		 rep stosd
  0001e	a1 00 00 00 00	 mov	 eax, DWORD PTR ___security_cookie
  00023	33 c5		 xor	 eax, ebp
  00025	89 45 fc	 mov	 DWORD PTR __$ArrayPad$[ebp], eax

; 2040 : 	char HostCmd[32];
; 2041 : 
; 2042 : 	if (Len == 0)

  00028	83 7d 08 00	 cmp	 DWORD PTR _Len$[ebp], 0
  0002c	75 05		 jne	 SHORT $LN4@RemoveData

; 2043 : 		return;

  0002e	e9 9d 00 00 00	 jmp	 $LN5@RemoveData
$LN4@RemoveData:

; 2044 : 
; 2045 : 	// Called when ACK received, or on FEC send
; 2046 : 
; 2047 : 	//	If using PTC Serial Interface and delayed echo requested, send it
; 2048 : 
; 2049 : #ifdef PTC
; 2050 : 
; 2051 : 	if (DelayedEcho == '1')

  00033	0f b6 05 00 00
	00 00		 movzx	 eax, BYTE PTR _DelayedEcho
  0003a	83 f8 31	 cmp	 eax, 49			; 00000031H
  0003d	75 1e		 jne	 SHORT $LN3@RemoveData

; 2052 : 	{
; 2053 : 		memcpy(bytEchoData, bytDataToSend, Len);

  0003f	8b 45 08	 mov	 eax, DWORD PTR _Len$[ebp]
  00042	50		 push	 eax
  00043	68 00 00 00 00	 push	 OFFSET _bytDataToSend
  00048	68 00 00 00 00	 push	 OFFSET _bytEchoData
  0004d	e8 00 00 00 00	 call	 _memcpy
  00052	83 c4 0c	 add	 esp, 12			; 0000000cH

; 2054 : 		bytesEchoed = Len;

  00055	8b 45 08	 mov	 eax, DWORD PTR _Len$[ebp]
  00058	a3 00 00 00 00	 mov	 DWORD PTR _bytesEchoed, eax
$LN3@RemoveData:

; 2055 : 	}
; 2056 : 
; 2057 : #endif
; 2058 : 
; 2059 : 	GetSemaphore();

  0005d	e8 00 00 00 00	 call	 _GetSemaphore

; 2060 : 
; 2061 : 	if (Len > bytDataToSendLength)

  00062	8b 45 08	 mov	 eax, DWORD PTR _Len$[ebp]
  00065	3b 05 00 00 00
	00		 cmp	 eax, DWORD PTR _bytDataToSendLength
  0006b	7e 08		 jle	 SHORT $LN2@RemoveData

; 2062 : 		Len = bytDataToSendLength;			// Shouldn't happen, unless the Q is cleared

  0006d	a1 00 00 00 00	 mov	 eax, DWORD PTR _bytDataToSendLength
  00072	89 45 08	 mov	 DWORD PTR _Len$[ebp], eax
$LN2@RemoveData:

; 2063 : 
; 2064 : 	bytDataToSendLength -= Len;

  00075	a1 00 00 00 00	 mov	 eax, DWORD PTR _bytDataToSendLength
  0007a	2b 45 08	 sub	 eax, DWORD PTR _Len$[ebp]
  0007d	a3 00 00 00 00	 mov	 DWORD PTR _bytDataToSendLength, eax

; 2065 : 
; 2066 : 	if (bytDataToSendLength > 0)

  00082	83 3d 00 00 00
	00 00		 cmp	 DWORD PTR _bytDataToSendLength, 0
  00089	7e 1d		 jle	 SHORT $LN1@RemoveData

; 2067 : 		memmove(bytDataToSend, &bytDataToSend[Len], bytDataToSendLength);

  0008b	a1 00 00 00 00	 mov	 eax, DWORD PTR _bytDataToSendLength
  00090	50		 push	 eax
  00091	8b 4d 08	 mov	 ecx, DWORD PTR _Len$[ebp]
  00094	81 c1 00 00 00
	00		 add	 ecx, OFFSET _bytDataToSend
  0009a	51		 push	 ecx
  0009b	68 00 00 00 00	 push	 OFFSET _bytDataToSend
  000a0	e8 00 00 00 00	 call	 _memmove
  000a5	83 c4 0c	 add	 esp, 12			; 0000000cH
$LN1@RemoveData:

; 2068 : 
; 2069 : 	FreeSemaphore();

  000a8	e8 00 00 00 00	 call	 _FreeSemaphore

; 2070 : 
; 2071 : #ifdef TEENSY
; 2072 : 	if (bytDataToSendLength == 0)
; 2073 : 		SetLED(TRAFFICLED, FALSE);
; 2074 : #endif		
; 2075 : 
; 2076 : 	sprintf(HostCmd, "BUFFER %d", bytDataToSendLength);

  000ad	a1 00 00 00 00	 mov	 eax, DWORD PTR _bytDataToSendLength
  000b2	50		 push	 eax
  000b3	68 00 00 00 00	 push	 OFFSET ??_C@_09PELFENOG@BUFFER?5?$CFd?$AA@
  000b8	8d 4d d8	 lea	 ecx, DWORD PTR _HostCmd$[ebp]
  000bb	51		 push	 ecx
  000bc	e8 00 00 00 00	 call	 _sprintf
  000c1	83 c4 0c	 add	 esp, 12			; 0000000cH

; 2077 : 	QueueCommandToHost(HostCmd);

  000c4	8d 45 d8	 lea	 eax, DWORD PTR _HostCmd$[ebp]
  000c7	50		 push	 eax
  000c8	e8 00 00 00 00	 call	 _QueueCommandToHost
  000cd	83 c4 04	 add	 esp, 4
$LN5@RemoveData:

; 2078 : }

  000d0	52		 push	 edx
  000d1	8b cd		 mov	 ecx, ebp
  000d3	50		 push	 eax
  000d4	8d 15 00 00 00
	00		 lea	 edx, DWORD PTR $LN9@RemoveData
  000da	e8 00 00 00 00	 call	 @_RTC_CheckStackVars@8
  000df	58		 pop	 eax
  000e0	5a		 pop	 edx
  000e1	5f		 pop	 edi
  000e2	5e		 pop	 esi
  000e3	5b		 pop	 ebx
  000e4	8b 4d fc	 mov	 ecx, DWORD PTR __$ArrayPad$[ebp]
  000e7	33 cd		 xor	 ecx, ebp
  000e9	e8 00 00 00 00	 call	 @__security_check_cookie@4
  000ee	81 c4 ec 00 00
	00		 add	 esp, 236		; 000000ecH
  000f4	3b ec		 cmp	 ebp, esp
  000f6	e8 00 00 00 00	 call	 __RTC_CheckEsp
  000fb	8b e5		 mov	 esp, ebp
  000fd	5d		 pop	 ebp
  000fe	c3		 ret	 0
  000ff	90		 npad	 1
$LN9@RemoveData:
  00100	01 00 00 00	 DD	 1
  00104	00 00 00 00	 DD	 $LN8@RemoveData
$LN8@RemoveData:
  00108	d8 ff ff ff	 DD	 -40			; ffffffd8H
  0010c	20 00 00 00	 DD	 32			; 00000020H
  00110	00 00 00 00	 DD	 $LN7@RemoveData
$LN7@RemoveData:
  00114	48		 DB	 72			; 00000048H
  00115	6f		 DB	 111			; 0000006fH
  00116	73		 DB	 115			; 00000073H
  00117	74		 DB	 116			; 00000074H
  00118	43		 DB	 67			; 00000043H
  00119	6d		 DB	 109			; 0000006dH
  0011a	64		 DB	 100			; 00000064H
  0011b	00		 DB	 0
_RemoveDataFromQueue ENDP
_TEXT	ENDS
PUBLIC	??_C@_0DN@JOANKNOA@?$FLARDOPprotocol?4tmrFinalID_Elapse@ ; `string'
PUBLIC	??_C@_0DL@JKFLKFJC@STATUS?5ARQ?5CONNECT?5REQUEST?5TIMEO@ ; `string'
PUBLIC	??_C@_0FM@HONCEPPF@ARDOPprotocol?4tmrIRSPendingTimeo@ ; `string'
PUBLIC	??_C@_0CM@MLOPGBEH@STATUS?5ARQ?5Timeout?5from?5Protocol@ ; `string'
PUBLIC	??_C@_0N@HLEBDOBD@DISCONNECTED?$AA@		; `string'
PUBLIC	??_C@_0FG@EEOPIPME@ARDOPprotocol?4tmrSendTimeout?$FN?5?5A@ ; `string'
PUBLIC	??_C@_0BF@DABGBADG@Repeating?5Last?5Frame?$AA@	; `string'
PUBLIC	__$ArrayPad$
EXTRN	_SendARQConnectRequest:PROC
EXTRN	_strFinalIDCallsign:TBYTE
EXTRN	_tmrFinalID:DWORD
EXTRN	_blnPending:DWORD
EXTRN	_tmrIRSPendingTimeout:DWORD
EXTRN	_InitializeConnection:PROC
EXTRN	_intFrameRepeatInterval:DWORD
EXTRN	_LogStats:PROC
EXTRN	_dttLastFECIDSent:DWORD
EXTRN	_strLocalCallsign:TBYTE
EXTRN	_RemodulateLastFrame:PROC
EXTRN	_WriteDebugLog:PROC
EXTRN	_blnDISCRepeating:DWORD
EXTRN	_blnEnbARQRpt:DWORD
;	COMDAT ??_C@_0DN@JOANKNOA@?$FLARDOPprotocol?4tmrFinalID_Elapse@
CONST	SEGMENT
??_C@_0DN@JOANKNOA@?$FLARDOPprotocol?4tmrFinalID_Elapse@ DB '[ARDOPprotoc'
	DB	'ol.tmrFinalID_Elapsed]  Send Final ID (%s, [%s])', 00H ; `string'
CONST	ENDS
;	COMDAT ??_C@_0DL@JKFLKFJC@STATUS?5ARQ?5CONNECT?5REQUEST?5TIMEO@
CONST	SEGMENT
??_C@_0DL@JKFLKFJC@STATUS?5ARQ?5CONNECT?5REQUEST?5TIMEO@ DB 'STATUS ARQ C'
	DB	'ONNECT REQUEST TIMEOUT FROM PROTOCOL STATE: %s', 00H ; `string'
CONST	ENDS
;	COMDAT ??_C@_0FM@HONCEPPF@ARDOPprotocol?4tmrIRSPendingTimeo@
CONST	SEGMENT
??_C@_0FM@HONCEPPF@ARDOPprotocol?4tmrIRSPendingTimeo@ DB 'ARDOPprotocol.t'
	DB	'mrIRSPendingTimeout]  ARQ Timeout from ProtocolState: %s Goin'
	DB	'g to DISC state', 00H			; `string'
CONST	ENDS
;	COMDAT ??_C@_0CM@MLOPGBEH@STATUS?5ARQ?5Timeout?5from?5Protocol@
CONST	SEGMENT
??_C@_0CM@MLOPGBEH@STATUS?5ARQ?5Timeout?5from?5Protocol@ DB 'STATUS ARQ T'
	DB	'imeout from Protocol State:  %s', 00H	; `string'
CONST	ENDS
;	COMDAT ??_C@_0N@HLEBDOBD@DISCONNECTED?$AA@
CONST	SEGMENT
??_C@_0N@HLEBDOBD@DISCONNECTED?$AA@ DB 'DISCONNECTED', 00H ; `string'
CONST	ENDS
;	COMDAT ??_C@_0FG@EEOPIPME@ARDOPprotocol?4tmrSendTimeout?$FN?5?5A@
CONST	SEGMENT
??_C@_0FG@EEOPIPME@ARDOPprotocol?4tmrSendTimeout?$FN?5?5A@ DB 'ARDOPproto'
	DB	'col.tmrSendTimeout]  ARQ Timeout from ProtocolState: %s Going'
	DB	' to DISC state', 00H			; `string'
CONST	ENDS
;	COMDAT ??_C@_0BF@DABGBADG@Repeating?5Last?5Frame?$AA@
CONST	SEGMENT
??_C@_0BF@DABGBADG@Repeating?5Last?5Frame?$AA@ DB 'Repeating Last Frame', 00H ; `string'
; Function compile flags: /Odtp /RTCsu /ZI
CONST	ENDS
;	COMDAT _CheckTimers
_TEXT	SEGMENT
_HostCmd$28983 = -176					; size = 80
_HostCmd$28977 = -88					; size = 80
__$ArrayPad$ = -4					; size = 4
_CheckTimers PROC					; COMDAT

; 2083 : {

  00000	55		 push	 ebp
  00001	8b ec		 mov	 ebp, esp
  00003	81 ec 74 01 00
	00		 sub	 esp, 372		; 00000174H
  00009	53		 push	 ebx
  0000a	56		 push	 esi
  0000b	57		 push	 edi
  0000c	8d bd 8c fe ff
	ff		 lea	 edi, DWORD PTR [ebp-372]
  00012	b9 5d 00 00 00	 mov	 ecx, 93			; 0000005dH
  00017	b8 cc cc cc cc	 mov	 eax, -858993460		; ccccccccH
  0001c	f3 ab		 rep stosd
  0001e	a1 00 00 00 00	 mov	 eax, DWORD PTR ___security_cookie
  00023	33 c5		 xor	 eax, ebp
  00025	89 45 fc	 mov	 DWORD PTR __$ArrayPad$[ebp], eax

; 2084 : 	//	Check for Timeout after a send that needs to be repeated
; 2085 : 
; 2086 : 	if ((blnEnbARQRpt || blnDISCRepeating) && Now > dttNextPlay)

  00028	83 3d 00 00 00
	00 00		 cmp	 DWORD PTR _blnEnbARQRpt, 0
  0002f	75 09		 jne	 SHORT $LN12@CheckTimer
  00031	83 3d 00 00 00
	00 00		 cmp	 DWORD PTR _blnDISCRepeating, 0
  00038	74 36		 je	 SHORT $LN13@CheckTimer
$LN12@CheckTimer:
  0003a	e8 00 00 00 00	 call	 _getTicks
  0003f	3b 05 00 00 00
	00		 cmp	 eax, DWORD PTR _dttNextPlay
  00045	76 29		 jbe	 SHORT $LN13@CheckTimer

; 2087 : 	{
; 2088 : 		// No response Timeout
; 2089 : 
; 2090 : 		if (GetNextFrame())

  00047	e8 00 00 00 00	 call	 _GetNextFrame
  0004c	85 c0		 test	 eax, eax
  0004e	74 16		 je	 SHORT $LN11@CheckTimer

; 2091 : 		{
; 2092 : 			// I think this only returns TRUE if we have to repeat the last 
; 2093 : 
; 2094 : 			//	Repeat mechanism for normal repeated FEC or ARQ frames
; 2095 :       
; 2096 : 			WriteDebugLog(LOGDEBUG, "Repeating Last Frame");

  00050	68 00 00 00 00	 push	 OFFSET ??_C@_0BF@DABGBADG@Repeating?5Last?5Frame?$AA@
  00055	6a 07		 push	 7
  00057	e8 00 00 00 00	 call	 _WriteDebugLog
  0005c	83 c4 08	 add	 esp, 8

; 2097 : 			RemodulateLastFrame();

  0005f	e8 00 00 00 00	 call	 _RemodulateLastFrame

; 2098 : 		}
; 2099 : 		else

  00064	eb 0a		 jmp	 SHORT $LN13@CheckTimer
$LN11@CheckTimer:

; 2100 : 			// I think this means we have exceeded retries or had an abort
; 2101 : 
; 2102 : 			blnEnbARQRpt = FALSE;

  00066	c7 05 00 00 00
	00 00 00 00 00	 mov	 DWORD PTR _blnEnbARQRpt, 0
$LN13@CheckTimer:

; 2103 : 	}
; 2104 : 
; 2105 : 
; 2106 : 	//  Event triggered by tmrSendTimeout elapse. Ends an ARQ session and sends a DISC frame 
; 2107 :     
; 2108 : 	if (tmrSendTimeout && Now > tmrSendTimeout)

  00070	83 3d 00 00 00
	00 00		 cmp	 DWORD PTR _tmrSendTimeout, 0
  00077	0f 84 1f 01 00
	00		 je	 $LN9@CheckTimer
  0007d	e8 00 00 00 00	 call	 _getTicks
  00082	3b 05 00 00 00
	00		 cmp	 eax, DWORD PTR _tmrSendTimeout
  00088	0f 86 0e 01 00
	00		 jbe	 $LN9@CheckTimer

; 2109 : 	{
; 2110 : 		char HostCmd[80];
; 2111 : 
; 2112 : 		// (Handles protocol rule 1.7)
; 2113 :        
; 2114 : 		tmrSendTimeout = 0;

  0008e	c7 05 00 00 00
	00 00 00 00 00	 mov	 DWORD PTR _tmrSendTimeout, 0

; 2115 : 
; 2116 : 			//Dim dttStartWait As Date = Now
; 2117 : 			//While objMain.blnLastPTT And Now.Subtract(dttStartWait).TotalSeconds < 10
; 2118 : 			// Thread.Sleep(50)
; 2119 : 			// End While
; 2120 : 
; 2121 : 		WriteDebugLog(LOGDEBUG, "ARDOPprotocol.tmrSendTimeout]  ARQ Timeout from ProtocolState: %s Going to DISC state", ARDOPStates[ProtocolState]);

  00098	a1 00 00 00 00	 mov	 eax, DWORD PTR _ProtocolState
  0009d	6b c0 09	 imul	 eax, 9
  000a0	05 00 00 00 00	 add	 eax, OFFSET _ARDOPStates
  000a5	50		 push	 eax
  000a6	68 00 00 00 00	 push	 OFFSET ??_C@_0FG@EEOPIPME@ARDOPprotocol?4tmrSendTimeout?$FN?5?5A@
  000ab	6a 07		 push	 7
  000ad	e8 00 00 00 00	 call	 _WriteDebugLog
  000b2	83 c4 0c	 add	 esp, 12			; 0000000cH

; 2122 :         
; 2123 : 			// Confirmed proper operation of this timeout and rule 4.0 May 18, 2015
; 2124 : 			// Send an ID frame (Handles protocol rule 4.0)
; 2125 : 		
; 2126 : 		EncLen = Encode4FSKIDFrame(strLocalCallsign, GridSquare, bytEncodedBytes);

  000b5	68 00 00 00 00	 push	 OFFSET _bytEncodedBytes
  000ba	68 00 00 00 00	 push	 OFFSET _GridSquare
  000bf	68 00 00 00 00	 push	 OFFSET _strLocalCallsign
  000c4	e8 00 00 00 00	 call	 _Encode4FSKIDFrame
  000c9	83 c4 0c	 add	 esp, 12			; 0000000cH
  000cc	a3 00 00 00 00	 mov	 DWORD PTR _EncLen, eax

; 2127 : 		Mod4FSKDataAndPlay(0x30, &bytEncodedBytes[0], 16, 0);		// only returns when all sent

  000d1	6a 00		 push	 0
  000d3	6a 10		 push	 16			; 00000010H
  000d5	68 00 00 00 00	 push	 OFFSET _bytEncodedBytes
  000da	6a 30		 push	 48			; 00000030H
  000dc	e8 00 00 00 00	 call	 _Mod4FSKDataAndPlay
  000e1	83 c4 10	 add	 esp, 16			; 00000010H

; 2128 : 		dttLastFECIDSent = Now;

  000e4	e8 00 00 00 00	 call	 _getTicks
  000e9	a3 00 00 00 00	 mov	 DWORD PTR _dttLastFECIDSent, eax

; 2129 : 			
; 2130 : 		if (AccumulateStats) LogStats();

  000ee	83 3d 00 00 00
	00 00		 cmp	 DWORD PTR _AccumulateStats, 0
  000f5	74 05		 je	 SHORT $LN8@CheckTimer
  000f7	e8 00 00 00 00	 call	 _LogStats
$LN8@CheckTimer:

; 2131 : 
; 2132 : 		QueueCommandToHost("DISCONNECTED");

  000fc	68 00 00 00 00	 push	 OFFSET ??_C@_0N@HLEBDOBD@DISCONNECTED?$AA@
  00101	e8 00 00 00 00	 call	 _QueueCommandToHost
  00106	83 c4 04	 add	 esp, 4

; 2133 : 			
; 2134 : 		sprintf(HostCmd, "STATUS ARQ Timeout from Protocol State:  %s", ARDOPStates[ProtocolState]);

  00109	a1 00 00 00 00	 mov	 eax, DWORD PTR _ProtocolState
  0010e	6b c0 09	 imul	 eax, 9
  00111	05 00 00 00 00	 add	 eax, OFFSET _ARDOPStates
  00116	50		 push	 eax
  00117	68 00 00 00 00	 push	 OFFSET ??_C@_0CM@MLOPGBEH@STATUS?5ARQ?5Timeout?5from?5Protocol@
  0011c	8d 4d a8	 lea	 ecx, DWORD PTR _HostCmd$28977[ebp]
  0011f	51		 push	 ecx
  00120	e8 00 00 00 00	 call	 _sprintf
  00125	83 c4 0c	 add	 esp, 12			; 0000000cH

; 2135 : 		QueueCommandToHost(HostCmd);

  00128	8d 45 a8	 lea	 eax, DWORD PTR _HostCmd$28977[ebp]
  0012b	50		 push	 eax
  0012c	e8 00 00 00 00	 call	 _QueueCommandToHost
  00131	83 c4 04	 add	 esp, 4

; 2136 : 		blnEnbARQRpt = FALSE;

  00134	c7 05 00 00 00
	00 00 00 00 00	 mov	 DWORD PTR _blnEnbARQRpt, 0

; 2137 : 		//Thread.Sleep(2000)
; 2138 : 		ClearDataToSend();

  0013e	e8 00 00 00 00	 call	 _ClearDataToSend

; 2139 : 
; 2140 : 		EncLen = Encode4FSKControl(0x29, bytSessionID, bytEncodedBytes);

  00143	68 00 00 00 00	 push	 OFFSET _bytEncodedBytes
  00148	a0 00 00 00 00	 mov	 al, BYTE PTR _bytSessionID
  0014d	50		 push	 eax
  0014e	6a 29		 push	 41			; 00000029H
  00150	e8 00 00 00 00	 call	 _Encode4FSKControl
  00155	83 c4 0c	 add	 esp, 12			; 0000000cH
  00158	a3 00 00 00 00	 mov	 DWORD PTR _EncLen, eax

; 2141 : 		Mod4FSKDataAndPlay(0x29, &bytEncodedBytes[0], EncLen, LeaderLength);		// only returns when all sent

  0015d	a1 00 00 00 00	 mov	 eax, DWORD PTR _LeaderLength
  00162	50		 push	 eax
  00163	8b 0d 00 00 00
	00		 mov	 ecx, DWORD PTR _EncLen
  00169	51		 push	 ecx
  0016a	68 00 00 00 00	 push	 OFFSET _bytEncodedBytes
  0016f	6a 29		 push	 41			; 00000029H
  00171	e8 00 00 00 00	 call	 _Mod4FSKDataAndPlay
  00176	83 c4 10	 add	 esp, 16			; 00000010H

; 2142 : 
; 2143 : 		intFrameRepeatInterval = 2000;

  00179	c7 05 00 00 00
	00 d0 07 00 00	 mov	 DWORD PTR _intFrameRepeatInterval, 2000 ; 000007d0H

; 2144 : 		SetARDOPProtocolState(DISC);

  00183	6a 01		 push	 1
  00185	e8 00 00 00 00	 call	 _SetARDOPProtocolState
  0018a	83 c4 04	 add	 esp, 4

; 2145 : 			
; 2146 : 		InitializeConnection(); // reset all Connection data

  0018d	e8 00 00 00 00	 call	 _InitializeConnection

; 2147 : 				
; 2148 : 			// Clear the mnuBusy status on the main form
; 2149 : 			//Dim stcStatus As Status = Nothing
; 2150 : 		    //stcStatus.ControlName = "mnuBusy"
; 2151 : 			//stcStatus.Text = "FALSE"
; 2152 : 		    //queTNCStatus.Enqueue(stcStatus)
; 2153 :         
; 2154 : 		blnTimeoutTriggered = FALSE ;// prevents a retrigger

  00192	c7 05 00 00 00
	00 00 00 00 00	 mov	 DWORD PTR _blnTimeoutTriggered, 0
$LN9@CheckTimer:

; 2155 : 	}
; 2156 : 
; 2157 : 	// Elapsed Subroutine for Pending timeout
; 2158 :    
; 2159 : 	if (tmrIRSPendingTimeout && Now > tmrIRSPendingTimeout)

  0019c	83 3d 00 00 00
	00 00		 cmp	 DWORD PTR _tmrIRSPendingTimeout, 0
  001a3	0f 84 99 00 00
	00		 je	 $LN7@CheckTimer
  001a9	e8 00 00 00 00	 call	 _getTicks
  001ae	3b 05 00 00 00
	00		 cmp	 eax, DWORD PTR _tmrIRSPendingTimeout
  001b4	0f 86 88 00 00
	00		 jbe	 $LN7@CheckTimer

; 2160 : 	{
; 2161 : 		char HostCmd[80];
; 2162 : 		
; 2163 : 		tmrIRSPendingTimeout = 0;

  001ba	c7 05 00 00 00
	00 00 00 00 00	 mov	 DWORD PTR _tmrIRSPendingTimeout, 0

; 2164 : 
; 2165 : 		WriteDebugLog(LOGDEBUG, "ARDOPprotocol.tmrIRSPendingTimeout]  ARQ Timeout from ProtocolState: %s Going to DISC state",  ARDOPStates[ProtocolState]);

  001c4	a1 00 00 00 00	 mov	 eax, DWORD PTR _ProtocolState
  001c9	6b c0 09	 imul	 eax, 9
  001cc	05 00 00 00 00	 add	 eax, OFFSET _ARDOPStates
  001d1	50		 push	 eax
  001d2	68 00 00 00 00	 push	 OFFSET ??_C@_0FM@HONCEPPF@ARDOPprotocol?4tmrIRSPendingTimeo@
  001d7	6a 07		 push	 7
  001d9	e8 00 00 00 00	 call	 _WriteDebugLog
  001de	83 c4 0c	 add	 esp, 12			; 0000000cH

; 2166 : 
; 2167 : 		QueueCommandToHost("DISCONNECTED");

  001e1	68 00 00 00 00	 push	 OFFSET ??_C@_0N@HLEBDOBD@DISCONNECTED?$AA@
  001e6	e8 00 00 00 00	 call	 _QueueCommandToHost
  001eb	83 c4 04	 add	 esp, 4

; 2168 : 		sprintf(HostCmd, "STATUS ARQ CONNECT REQUEST TIMEOUT FROM PROTOCOL STATE: %s",ARDOPStates[ProtocolState]);

  001ee	a1 00 00 00 00	 mov	 eax, DWORD PTR _ProtocolState
  001f3	6b c0 09	 imul	 eax, 9
  001f6	05 00 00 00 00	 add	 eax, OFFSET _ARDOPStates
  001fb	50		 push	 eax
  001fc	68 00 00 00 00	 push	 OFFSET ??_C@_0DL@JKFLKFJC@STATUS?5ARQ?5CONNECT?5REQUEST?5TIMEO@
  00201	8d 8d 50 ff ff
	ff		 lea	 ecx, DWORD PTR _HostCmd$28983[ebp]
  00207	51		 push	 ecx
  00208	e8 00 00 00 00	 call	 _sprintf
  0020d	83 c4 0c	 add	 esp, 12			; 0000000cH

; 2169 : 
; 2170 : 		QueueCommandToHost(HostCmd);

  00210	8d 85 50 ff ff
	ff		 lea	 eax, DWORD PTR _HostCmd$28983[ebp]
  00216	50		 push	 eax
  00217	e8 00 00 00 00	 call	 _QueueCommandToHost
  0021c	83 c4 04	 add	 esp, 4

; 2171 : 
; 2172 : 		blnEnbARQRpt = FALSE;

  0021f	c7 05 00 00 00
	00 00 00 00 00	 mov	 DWORD PTR _blnEnbARQRpt, 0

; 2173 : 		ProtocolState = DISC;

  00229	c7 05 00 00 00
	00 01 00 00 00	 mov	 DWORD PTR _ProtocolState, 1

; 2174 : 		blnPending = FALSE;

  00233	c7 05 00 00 00
	00 00 00 00 00	 mov	 DWORD PTR _blnPending, 0

; 2175 : 		InitializeConnection();	 // reset all Connection data

  0023d	e8 00 00 00 00	 call	 _InitializeConnection
$LN7@CheckTimer:

; 2176 : 
; 2177 : 			//' Clear the mnuBusy status on the main form
; 2178 : 		     //Dim stcStatus As Status = Nothing
; 2179 : 			//stcStatus.ControlName = "mnuBusy"
; 2180 : 			//stcStatus.Text = "FALSE"
; 2181 : 			//	queTNCStatus.Enqueue(stcStatus)
; 2182 : 	}
; 2183 : 
; 2184 : 	// Subroutine for tmrFinalIDElapsed
; 2185 : 
; 2186 : 	if (tmrFinalID && Now > tmrFinalID)

  00242	83 3d 00 00 00
	00 00		 cmp	 DWORD PTR _tmrFinalID, 0
  00249	74 7a		 je	 SHORT $LN6@CheckTimer
  0024b	e8 00 00 00 00	 call	 _getTicks
  00250	3b 05 00 00 00
	00		 cmp	 eax, DWORD PTR _tmrFinalID
  00256	76 6d		 jbe	 SHORT $LN6@CheckTimer

; 2187 : 	{
; 2188 : 		tmrFinalID = 0;

  00258	c7 05 00 00 00
	00 00 00 00 00	 mov	 DWORD PTR _tmrFinalID, 0

; 2189 : 		
; 2190 : 		WriteDebugLog(LOGDEBUG, "[ARDOPprotocol.tmrFinalID_Elapsed]  Send Final ID (%s, [%s])", strFinalIDCallsign, GridSquare);

  00262	68 00 00 00 00	 push	 OFFSET _GridSquare
  00267	68 00 00 00 00	 push	 OFFSET _strFinalIDCallsign
  0026c	68 00 00 00 00	 push	 OFFSET ??_C@_0DN@JOANKNOA@?$FLARDOPprotocol?4tmrFinalID_Elapse@
  00271	6a 07		 push	 7
  00273	e8 00 00 00 00	 call	 _WriteDebugLog
  00278	83 c4 10	 add	 esp, 16			; 00000010H

; 2191 :    
; 2192 : 		if (CheckValidCallsignSyntax(strFinalIDCallsign))

  0027b	68 00 00 00 00	 push	 OFFSET _strFinalIDCallsign
  00280	e8 00 00 00 00	 call	 _CheckValidCallsignSyntax
  00285	83 c4 04	 add	 esp, 4
  00288	85 c0		 test	 eax, eax
  0028a	74 39		 je	 SHORT $LN6@CheckTimer

; 2193 : 		{
; 2194 : 			EncLen = Encode4FSKIDFrame(strFinalIDCallsign, GridSquare, bytEncodedBytes);

  0028c	68 00 00 00 00	 push	 OFFSET _bytEncodedBytes
  00291	68 00 00 00 00	 push	 OFFSET _GridSquare
  00296	68 00 00 00 00	 push	 OFFSET _strFinalIDCallsign
  0029b	e8 00 00 00 00	 call	 _Encode4FSKIDFrame
  002a0	83 c4 0c	 add	 esp, 12			; 0000000cH
  002a3	a3 00 00 00 00	 mov	 DWORD PTR _EncLen, eax

; 2195 : 			Mod4FSKDataAndPlay(0x30, &bytEncodedBytes[0], 16, 0);		// only returns when all sent

  002a8	6a 00		 push	 0
  002aa	6a 10		 push	 16			; 00000010H
  002ac	68 00 00 00 00	 push	 OFFSET _bytEncodedBytes
  002b1	6a 30		 push	 48			; 00000030H
  002b3	e8 00 00 00 00	 call	 _Mod4FSKDataAndPlay
  002b8	83 c4 10	 add	 esp, 16			; 00000010H

; 2196 : 			dttLastFECIDSent = Now;

  002bb	e8 00 00 00 00	 call	 _getTicks
  002c0	a3 00 00 00 00	 mov	 DWORD PTR _dttLastFECIDSent, eax
$LN6@CheckTimer:

; 2197 : 		}
; 2198 : 	}
; 2199 : 
; 2200 : 	// Send Conect Request (from ARQCALL command)
; 2201 : 
; 2202 : 	if (NeedConReq)

  002c5	83 3d 00 00 00
	00 00		 cmp	 DWORD PTR _NeedConReq, 0
  002cc	74 1c		 je	 SHORT $LN4@CheckTimer

; 2203 : 	{
; 2204 : 		NeedConReq = 0;

  002ce	c7 05 00 00 00
	00 00 00 00 00	 mov	 DWORD PTR _NeedConReq, 0

; 2205 : 		SendARQConnectRequest(Callsign, ConnectToCall);

  002d8	68 00 00 00 00	 push	 OFFSET _ConnectToCall
  002dd	68 00 00 00 00	 push	 OFFSET _Callsign
  002e2	e8 00 00 00 00	 call	 _SendARQConnectRequest
  002e7	83 c4 08	 add	 esp, 8
$LN4@CheckTimer:

; 2206 : 	}
; 2207 : 
; 2208 : 	// Send Async ID (from SENDID command)
; 2209 : 
; 2210 : 	if (NeedID)

  002ea	83 3d 00 00 00
	00 00		 cmp	 DWORD PTR _NeedID, 0
  002f1	74 18		 je	 SHORT $LN3@CheckTimer

; 2211 : 	{
; 2212 : 		SendID(wantCWID);

  002f3	a1 00 00 00 00	 mov	 eax, DWORD PTR _wantCWID
  002f8	50		 push	 eax
  002f9	e8 00 00 00 00	 call	 _SendID
  002fe	83 c4 04	 add	 esp, 4

; 2213 : 		NeedID = 0;

  00301	c7 05 00 00 00
	00 00 00 00 00	 mov	 DWORD PTR _NeedID, 0
$LN3@CheckTimer:

; 2214 : 	}
; 2215 : 
; 2216 : 	if (NeedTwoToneTest)

  0030b	83 3d 00 00 00
	00 00		 cmp	 DWORD PTR _NeedTwoToneTest, 0
  00312	74 0f		 je	 SHORT $LN2@CheckTimer

; 2217 : 	{
; 2218 : 		Send5SecTwoTone();

  00314	e8 00 00 00 00	 call	 _Send5SecTwoTone

; 2219 : 		NeedTwoToneTest = 0;

  00319	c7 05 00 00 00
	00 00 00 00 00	 mov	 DWORD PTR _NeedTwoToneTest, 0
$LN2@CheckTimer:

; 2220 : 	}
; 2221 : 
; 2222 : 
; 2223 : 	if (Now > tmrPollOBQueue)

  00323	e8 00 00 00 00	 call	 _getTicks
  00328	3b 05 00 00 00
	00		 cmp	 eax, DWORD PTR _tmrPollOBQueue
  0032e	76 0f		 jbe	 SHORT $LN14@CheckTimer

; 2224 : 	{
; 2225 : //		char HostCmd[32];
; 2226 : //		sprintf(HostCmd, "BUFFER %d", bytDataToSendLength);
; 2227 : //		QueueCommandToHost(HostCmd);
; 2228 : 	
; 2229 : 		tmrPollOBQueue = Now + 10000;		// 10 Secs

  00330	e8 00 00 00 00	 call	 _getTicks
  00335	05 10 27 00 00	 add	 eax, 10000		; 00002710H
  0033a	a3 00 00 00 00	 mov	 DWORD PTR _tmrPollOBQueue, eax
$LN14@CheckTimer:

; 2230 : 	}
; 2231 : }

  0033f	52		 push	 edx
  00340	8b cd		 mov	 ecx, ebp
  00342	50		 push	 eax
  00343	8d 15 00 00 00
	00		 lea	 edx, DWORD PTR $LN19@CheckTimer
  00349	e8 00 00 00 00	 call	 @_RTC_CheckStackVars@8
  0034e	58		 pop	 eax
  0034f	5a		 pop	 edx
  00350	5f		 pop	 edi
  00351	5e		 pop	 esi
  00352	5b		 pop	 ebx
  00353	8b 4d fc	 mov	 ecx, DWORD PTR __$ArrayPad$[ebp]
  00356	33 cd		 xor	 ecx, ebp
  00358	e8 00 00 00 00	 call	 @__security_check_cookie@4
  0035d	81 c4 74 01 00
	00		 add	 esp, 372		; 00000174H
  00363	3b ec		 cmp	 ebp, esp
  00365	e8 00 00 00 00	 call	 __RTC_CheckEsp
  0036a	8b e5		 mov	 esp, ebp
  0036c	5d		 pop	 ebp
  0036d	c3		 ret	 0
  0036e	8b ff		 npad	 2
$LN19@CheckTimer:
  00370	02 00 00 00	 DD	 2
  00374	00 00 00 00	 DD	 $LN18@CheckTimer
$LN18@CheckTimer:
  00378	a8 ff ff ff	 DD	 -88			; ffffffa8H
  0037c	50 00 00 00	 DD	 80			; 00000050H
  00380	00 00 00 00	 DD	 $LN16@CheckTimer
  00384	50 ff ff ff	 DD	 -176			; ffffff50H
  00388	50 00 00 00	 DD	 80			; 00000050H
  0038c	00 00 00 00	 DD	 $LN17@CheckTimer
$LN17@CheckTimer:
  00390	48		 DB	 72			; 00000048H
  00391	6f		 DB	 111			; 0000006fH
  00392	73		 DB	 115			; 00000073H
  00393	74		 DB	 116			; 00000074H
  00394	43		 DB	 67			; 00000043H
  00395	6d		 DB	 109			; 0000006dH
  00396	64		 DB	 100			; 00000064H
  00397	00		 DB	 0
$LN16@CheckTimer:
  00398	48		 DB	 72			; 00000048H
  00399	6f		 DB	 111			; 0000006fH
  0039a	73		 DB	 115			; 00000073H
  0039b	74		 DB	 116			; 00000074H
  0039c	43		 DB	 67			; 00000043H
  0039d	6d		 DB	 109			; 0000006dH
  0039e	64		 DB	 100			; 00000064H
  0039f	00		 DB	 0
_CheckTimers ENDP
; Function compile flags: /Odtp /RTCsu /ZI
_TEXT	ENDS
;	COMDAT _MainPoll
_TEXT	SEGMENT
_MainPoll PROC						; COMDAT

; 2236 : {

  00000	55		 push	 ebp
  00001	8b ec		 mov	 ebp, esp
  00003	81 ec c0 00 00
	00		 sub	 esp, 192		; 000000c0H
  00009	53		 push	 ebx
  0000a	56		 push	 esi
  0000b	57		 push	 edi
  0000c	8d bd 40 ff ff
	ff		 lea	 edi, DWORD PTR [ebp-192]
  00012	b9 30 00 00 00	 mov	 ecx, 48			; 00000030H
  00017	b8 cc cc cc cc	 mov	 eax, -858993460		; ccccccccH
  0001c	f3 ab		 rep stosd

; 2237 : 
; 2238 : 	//   Dim stcStatus As Status = Nothing
; 2239 : 
; 2240 :    //     ' Check the sound card to insure still sampling
; 2241 :      //   If (Now.Subtract(dttLastSoundCardSample).TotalSeconds > 10) And objProtocol.GetARDOPProtocolState() <> ProtocolState.OFFLINE Then
; 2242 :        //     tmrStartCODEC.Interval = 1000
; 2243 :          //   dttLastSoundCardSample = Now
; 2244 :         //    Logs.Exception("[tmrPoll_Tick] > 10 seconds with no sound card samples...Restarting Codec")
; 2245 :           //  tmrStartCODEC.Start() ' Start the timer to retry starting sound card
; 2246 :        // End If
; 2247 : 	
; 2248 : 	// Checks to see if frame ready for playing
; 2249 : 
; 2250 : 	if (!SoundIsPlaying && !blnEnbARQRpt && !blnDISCRepeating)		// Idle (check playing in case we call from txSleep())

  0001e	83 3d 00 00 00
	00 00		 cmp	 DWORD PTR _SoundIsPlaying, 0
  00025	75 17		 jne	 SHORT $LN3@MainPoll
  00027	83 3d 00 00 00
	00 00		 cmp	 DWORD PTR _blnEnbARQRpt, 0
  0002e	75 0e		 jne	 SHORT $LN3@MainPoll
  00030	83 3d 00 00 00
	00 00		 cmp	 DWORD PTR _blnDISCRepeating, 0
  00037	75 05		 jne	 SHORT $LN3@MainPoll

; 2251 : 	{
; 2252 : 		if (GetNextFrame())

  00039	e8 00 00 00 00	 call	 _GetNextFrame
$LN3@MainPoll:

; 2253 : 		{
; 2254 : 			// As we will send the frame if one is available, and won't return
; 2255 : 			// till it is all sent, I don't think I have to do anything here
; 2256 : 		}
; 2257 : 	}
; 2258 : //            If Not SoundIsPlaying Then
; 2259 : //               SendIDToolStripMenuItem.Enabled = objProtocol.GetARDOPSetARDOPProtocolState(ProtocolState.DISC
; 2260 : //         Else
; 2261 :      //           SendIDToolStripMenuItem.Enabled = FALSE
; 2262 :        //     End If
; 2263 :     
; 2264 : 		/*
; 2265 : 		' Update any form Main display items from the TNCStatus queue
; 2266 :             While queTNCStatus.Count > 0
; 2267 :                 Try
; 2268 :                     stcStatus = CType(queTNCStatus.Dequeue, Status)
; 2269 :                     Select Case stcStatus.ControlName
; 2270 :                         ' Receive controls:
; 2271 :                         Case "lblQuality"
; 2272 :                             lblQuality.Text = stcStatus.Text
; 2273 :                         Case "ConstellationPlot"
; 2274 :                             DisplayPlot()
; 2275 :                             intRepeatCnt += 0
; 2276 :                         Case "lblXmtFrame"
; 2277 :                             lblXmtFrame.Text = stcStatus.Text
; 2278 :                             lblXmtFrame.BackColor = stcStatus.BackColor
; 2279 :                         Case "lblRcvFrame"
; 2280 :                             lblRcvFrame.Text = stcStatus.Text
; 2281 :                             lblRcvFrame.BackColor = stcStatus.BackColor
; 2282 :                         Case "prgReceiveLevel"
; 2283 :                             prgReceiveLevel.Value = stcStatus.Value
; 2284 :                             If stcStatus.Value < 64 Then ' < 12% of Full scale (16 bit A/D)
; 2285 :                                 prgReceiveLevel.ForeColor = Color.SkyBlue
; 2286 :                             ElseIf stcStatus.Value > 170 Then ' > 88% of full scale (16 bit A/D)
; 2287 :                                 prgReceiveLevel.ForeColor = Color.LightSalmon
; 2288 :                             Else
; 2289 :                                 prgReceiveLevel.ForeColor = Color.LightGreen
; 2290 :                             End If
; 2291 :                         Case "lblOffset"
; 2292 :                             lblOffset.Text = stcStatus.Text
; 2293 :                         Case "lblHost"
; 2294 :                             If stcStatus.Text <> "" Then lblHost.Text = stcStatus.Text
; 2295 :                             lblHost.BackColor = stcStatus.BackColor
; 2296 :                         Case "lblState"
; 2297 :                             lblState.Text = stcStatus.Text
; 2298 :                             lblState.BackColor = stcStatus.BackColor
; 2299 :                         Case "lblCF"
; 2300 :                             lblCF.Text = stcStatus.Text
; 2301 :                         Case "mnuBusy"
; 2302 :                             If stcStatus.Text.ToUpper = "TRUE" Or stcStatus.Text.ToUpper = "FALSE" Then
; 2303 :                                 ChannelBusyToolStripMenuItem.Text = "Channel Busy"
; 2304 :                                 ChannelBusyToolStripMenuItem.Visible = CBool(stcStatus.Text)
; 2305 :                             Else
; 2306 :                                 ChannelBusyToolStripMenuItem.Text = stcStatus.Text
; 2307 :                                 ChannelBusyToolStripMenuItem.Visible = True
; 2308 :                             End If
; 2309 :                     End Select
; 2310 :                 Catch
; 2311 :                     Logs.Exception("[Main.tmrPoll.Tick] queTNCStatus Err: " & Err.Description)
; 2312 :                     Exit While
; 2313 :                 End Try
; 2314 :             End While
; 2315 :         */
; 2316 : 
; 2317 : 	
; 2318 : 	if	(blnClosing)	// Check for closing

  0003e	83 3d 00 00 00
	00 00		 cmp	 DWORD PTR _blnClosing, 0
  00045	74 04		 je	 SHORT $LN1@MainPoll

; 2319 : 		return FALSE;

  00047	33 c0		 xor	 eax, eax
  00049	eb 05		 jmp	 SHORT $LN4@MainPoll
$LN1@MainPoll:

; 2320 : 
; 2321 : 	return TRUE;

  0004b	b8 01 00 00 00	 mov	 eax, 1
$LN4@MainPoll:

; 2322 : }

  00050	5f		 pop	 edi
  00051	5e		 pop	 esi
  00052	5b		 pop	 ebx
  00053	81 c4 c0 00 00
	00		 add	 esp, 192		; 000000c0H
  00059	3b ec		 cmp	 ebp, esp
  0005b	e8 00 00 00 00	 call	 __RTC_CheckEsp
  00060	8b e5		 mov	 esp, ebp
  00062	5d		 pop	 ebp
  00063	c3		 ret	 0
_MainPoll ENDP
_TEXT	ENDS
PUBLIC	_ExtractARQBandwidth
EXTRN	_ARQBandwidths:BYTE
; Function compile flags: /Odtp /RTCsu /ZI
;	COMDAT _ExtractARQBandwidth
_TEXT	SEGMENT
_ExtractARQBandwidth PROC				; COMDAT

; 2336 : {

  00000	55		 push	 ebp
  00001	8b ec		 mov	 ebp, esp
  00003	81 ec c0 00 00
	00		 sub	 esp, 192		; 000000c0H
  00009	53		 push	 ebx
  0000a	56		 push	 esi
  0000b	57		 push	 edi
  0000c	8d bd 40 ff ff
	ff		 lea	 edi, DWORD PTR [ebp-192]
  00012	b9 30 00 00 00	 mov	 ecx, 48			; 00000030H
  00017	b8 cc cc cc cc	 mov	 eax, -858993460		; ccccccccH
  0001c	f3 ab		 rep stosd

; 2337 : 	return atoi(ARQBandwidths[ARQBandwidth]);

  0001e	a1 00 00 00 00	 mov	 eax, DWORD PTR _ARQBandwidth
  00023	6b c0 0c	 imul	 eax, 12			; 0000000cH
  00026	05 00 00 00 00	 add	 eax, OFFSET _ARQBandwidths
  0002b	50		 push	 eax
  0002c	e8 00 00 00 00	 call	 _atoi
  00031	83 c4 04	 add	 esp, 4

; 2338 : }

  00034	5f		 pop	 edi
  00035	5e		 pop	 esi
  00036	5b		 pop	 ebx
  00037	81 c4 c0 00 00
	00		 add	 esp, 192		; 000000c0H
  0003d	3b ec		 cmp	 ebp, esp
  0003f	e8 00 00 00 00	 call	 __RTC_CheckEsp
  00044	8b e5		 mov	 esp, ebp
  00046	5d		 pop	 ebp
  00047	c3		 ret	 0
_ExtractARQBandwidth ENDP
_TEXT	ENDS
PUBLIC	??_C@_0L@FMOFLFH@BUSY?5FALSE?$AA@		; `string'
PUBLIC	??_C@_09JPFJOAGD@BUSY?5TRUE?$AA@		; `string'
PUBLIC	__real@40277020c0000000
PUBLIC	__real@4000000000000000
PUBLIC	__real@00000000
PUBLIC	_UpdateBusyDetector
EXTRN	_BusyDetect3:PROC
EXTRN	_pow:PROC
EXTRN	_FourierTransform:PROC
EXTRN	__chkstk:PROC
EXTRN	__ftol2_sse:PROC
_BSS	SEGMENT
?blnLastBusyStatus@?1??UpdateBusyDetector@@9@9 DD 01H DUP (?) ; `UpdateBusyDetector'::`2'::blnLastBusyStatus
_BSS	ENDS
;	COMDAT ??_C@_0L@FMOFLFH@BUSY?5FALSE?$AA@
CONST	SEGMENT
??_C@_0L@FMOFLFH@BUSY?5FALSE?$AA@ DB 'BUSY FALSE', 00H	; `string'
CONST	ENDS
;	COMDAT ??_C@_09JPFJOAGD@BUSY?5TRUE?$AA@
CONST	SEGMENT
??_C@_09JPFJOAGD@BUSY?5TRUE?$AA@ DB 'BUSY TRUE', 00H	; `string'
CONST	ENDS
;	COMDAT __real@40277020c0000000
CONST	SEGMENT
__real@40277020c0000000 DQ 040277020c0000000r	; 11.719
CONST	ENDS
;	COMDAT __real@4000000000000000
CONST	SEGMENT
__real@4000000000000000 DQ 04000000000000000r	; 2
CONST	ENDS
;	COMDAT __real@00000000
CONST	SEGMENT
__real@00000000 DD 000000000r			; 0
; Function compile flags: /Odtp /RTCsu /ZI
CONST	ENDS
;	COMDAT _UpdateBusyDetector
_TEXT	SEGMENT
tv193 = -9308						; size = 4
tv223 = -9304						; size = 8
tv207 = -9296						; size = 4
tv182 = -9296						; size = 4
tv155 = -9296						; size = 4
tv151 = -9296						; size = 4
_i$ = -9096						; size = 4
_intDelta$ = -9084					; size = 4
_intTuneLineHi$ = -9072					; size = 4
_intTuneLineLow$ = -9060				; size = 4
_dblMagAvg$ = -9048					; size = 4
_dblMag$ = -9036					; size = 824
_dblImF$ = -8204					; size = 4096
_dblReF$ = -4100					; size = 4096
_bytNewSamples$ = 8					; size = 4
_UpdateBusyDetector PROC				; COMDAT

; 2508 : {

  00000	55		 push	 ebp
  00001	8b ec		 mov	 ebp, esp
  00003	b8 5c 24 00 00	 mov	 eax, 9308		; 0000245cH
  00008	e8 00 00 00 00	 call	 __chkstk
  0000d	53		 push	 ebx
  0000e	56		 push	 esi
  0000f	57		 push	 edi
  00010	8d bd a4 db ff
	ff		 lea	 edi, DWORD PTR [ebp-9308]
  00016	b9 17 09 00 00	 mov	 ecx, 2327		; 00000917H
  0001b	b8 cc cc cc cc	 mov	 eax, -858993460		; ccccccccH
  00020	f3 ab		 rep stosd

; 2509 : 	float dblReF[1024];
; 2510 : 	float dblImF[1024];
; 2511 : 
; 2512 : 	float dblMag[206];
; 2513 : 	
; 2514 : 	static BOOL blnLastBusyStatus;
; 2515 : 	
; 2516 : 	float dblMagAvg = 0;

  00022	d9 ee		 fldz
  00024	d9 9d a8 dc ff
	ff		 fstp	 DWORD PTR _dblMagAvg$[ebp]

; 2517 : 	int intTuneLineLow, intTuneLineHi, intDelta;
; 2518 : 	int i;
; 2519 : 
; 2520 : 	if (ProtocolState != DISC)		// ' Only process busy when in DISC state

  0002a	83 3d 00 00 00
	00 01		 cmp	 DWORD PTR _ProtocolState, 1
  00031	74 05		 je	 SHORT $LN9@UpdateBusy

; 2521 : 		return;

  00033	e9 33 02 00 00	 jmp	 $LN10@UpdateBusy
$LN9@UpdateBusy:

; 2522 : 
; 2523 : 	if (State != SearchingForLeader)

  00038	83 3d 00 00 00
	00 00		 cmp	 DWORD PTR _State, 0
  0003f	74 05		 je	 SHORT $LN8@UpdateBusy

; 2524 : 		return;						// only when looking for leader

  00041	e9 25 02 00 00	 jmp	 $LN10@UpdateBusy
$LN8@UpdateBusy:

; 2525 : 
; 2526 : 	if (Now - LastBusyCheck < 100)

  00046	e8 00 00 00 00	 call	 _getTicks
  0004b	2b 05 00 00 00
	00		 sub	 eax, DWORD PTR _LastBusyCheck
  00051	83 f8 64	 cmp	 eax, 100		; 00000064H
  00054	73 05		 jae	 SHORT $LN7@UpdateBusy

; 2527 : 		return;

  00056	e9 10 02 00 00	 jmp	 $LN10@UpdateBusy
$LN7@UpdateBusy:

; 2528 : 
; 2529 : 	LastBusyCheck = Now;

  0005b	e8 00 00 00 00	 call	 _getTicks
  00060	a3 00 00 00 00	 mov	 DWORD PTR _LastBusyCheck, eax

; 2530 : 
; 2531 : 	FourierTransform(1024, bytNewSamples, &dblReF[0], &dblImF[0], FALSE);

  00065	6a 00		 push	 0
  00067	8d 85 f4 df ff
	ff		 lea	 eax, DWORD PTR _dblImF$[ebp]
  0006d	50		 push	 eax
  0006e	8d 8d fc ef ff
	ff		 lea	 ecx, DWORD PTR _dblReF$[ebp]
  00074	51		 push	 ecx
  00075	8b 55 08	 mov	 edx, DWORD PTR _bytNewSamples$[ebp]
  00078	52		 push	 edx
  00079	68 00 04 00 00	 push	 1024			; 00000400H
  0007e	e8 00 00 00 00	 call	 _FourierTransform
  00083	83 c4 14	 add	 esp, 20			; 00000014H

; 2532 : 
; 2533 : 	for (i = 0; i <  206; i++)

  00086	c7 85 78 dc ff
	ff 00 00 00 00	 mov	 DWORD PTR _i$[ebp], 0
  00090	eb 0f		 jmp	 SHORT $LN6@UpdateBusy
$LN5@UpdateBusy:
  00092	8b 85 78 dc ff
	ff		 mov	 eax, DWORD PTR _i$[ebp]
  00098	83 c0 01	 add	 eax, 1
  0009b	89 85 78 dc ff
	ff		 mov	 DWORD PTR _i$[ebp], eax
$LN6@UpdateBusy:
  000a1	81 bd 78 dc ff
	ff ce 00 00 00	 cmp	 DWORD PTR _i$[ebp], 206	; 000000ceH
  000ab	0f 8d 9d 00 00
	00		 jge	 $LN4@UpdateBusy

; 2534 : 	{
; 2535 : 		//	starting at ~300 Hz to ~2700 Hz Which puts the center of the signal in the center of the window (~1500Hz)
; 2536 :             
; 2537 : 		dblMag[i] = powf(dblReF[i + 25], 2) + powf(dblImF[i + 25], 2);	 // first pass 

  000b1	83 ec 08	 sub	 esp, 8
  000b4	dd 05 00 00 00
	00		 fld	 QWORD PTR __real@4000000000000000
  000ba	dd 1c 24	 fstp	 QWORD PTR [esp]
  000bd	8b 85 78 dc ff
	ff		 mov	 eax, DWORD PTR _i$[ebp]
  000c3	d9 84 85 60 f0
	ff ff		 fld	 DWORD PTR _dblReF$[ebp+eax*4+100]
  000ca	83 ec 08	 sub	 esp, 8
  000cd	dd 1c 24	 fstp	 QWORD PTR [esp]
  000d0	e8 00 00 00 00	 call	 _pow
  000d5	83 c4 10	 add	 esp, 16			; 00000010H
  000d8	d9 9d b0 db ff
	ff		 fstp	 DWORD PTR tv182[ebp]
  000de	d9 85 b0 db ff
	ff		 fld	 DWORD PTR tv182[ebp]
  000e4	83 ec 08	 sub	 esp, 8
  000e7	dd 05 00 00 00
	00		 fld	 QWORD PTR __real@4000000000000000
  000ed	dd 1c 24	 fstp	 QWORD PTR [esp]
  000f0	8b 8d 78 dc ff
	ff		 mov	 ecx, DWORD PTR _i$[ebp]
  000f6	d9 84 8d 58 e0
	ff ff		 fld	 DWORD PTR _dblImF$[ebp+ecx*4+100]
  000fd	83 ec 08	 sub	 esp, 8
  00100	dd 1c 24	 fstp	 QWORD PTR [esp]
  00103	dd 9d a8 db ff
	ff		 fstp	 QWORD PTR tv223[ebp]
  00109	e8 00 00 00 00	 call	 _pow
  0010e	83 c4 10	 add	 esp, 16			; 00000010H
  00111	d9 9d a4 db ff
	ff		 fstp	 DWORD PTR tv193[ebp]
  00117	d9 85 a4 db ff
	ff		 fld	 DWORD PTR tv193[ebp]
  0011d	dc 85 a8 db ff
	ff		 fadd	 QWORD PTR tv223[ebp]
  00123	8b 95 78 dc ff
	ff		 mov	 edx, DWORD PTR _i$[ebp]
  00129	d9 9c 95 b4 dc
	ff ff		 fstp	 DWORD PTR _dblMag$[ebp+edx*4]

; 2538 : 		dblMagAvg += dblMag[i];

  00130	d9 85 a8 dc ff
	ff		 fld	 DWORD PTR _dblMagAvg$[ebp]
  00136	8b 85 78 dc ff
	ff		 mov	 eax, DWORD PTR _i$[ebp]
  0013c	d8 84 85 b4 dc
	ff ff		 fadd	 DWORD PTR _dblMag$[ebp+eax*4]
  00143	d9 9d a8 dc ff
	ff		 fstp	 DWORD PTR _dblMagAvg$[ebp]

; 2539 : 	}

  00149	e9 44 ff ff ff	 jmp	 $LN5@UpdateBusy
$LN4@UpdateBusy:

; 2540 : 	intDelta = (ExtractARQBandwidth() / 2 + TuningRange) / 11.719f;

  0014e	e8 00 00 00 00	 call	 _ExtractARQBandwidth
  00153	99		 cdq
  00154	2b c2		 sub	 eax, edx
  00156	d1 f8		 sar	 eax, 1
  00158	03 05 00 00 00
	00		 add	 eax, DWORD PTR _TuningRange
  0015e	89 85 b0 db ff
	ff		 mov	 DWORD PTR tv207[ebp], eax
  00164	db 85 b0 db ff
	ff		 fild	 DWORD PTR tv207[ebp]
  0016a	dc 35 00 00 00
	00		 fdiv	 QWORD PTR __real@40277020c0000000
  00170	e8 00 00 00 00	 call	 __ftol2_sse
  00175	89 85 84 dc ff
	ff		 mov	 DWORD PTR _intDelta$[ebp], eax

; 2541 : 
; 2542 : 	intTuneLineLow = max((103 - intDelta), 3);

  0017b	b8 67 00 00 00	 mov	 eax, 103		; 00000067H
  00180	2b 85 84 dc ff
	ff		 sub	 eax, DWORD PTR _intDelta$[ebp]
  00186	83 f8 03	 cmp	 eax, 3
  00189	7e 13		 jle	 SHORT $LN12@UpdateBusy
  0018b	b9 67 00 00 00	 mov	 ecx, 103		; 00000067H
  00190	2b 8d 84 dc ff
	ff		 sub	 ecx, DWORD PTR _intDelta$[ebp]
  00196	89 8d b0 db ff
	ff		 mov	 DWORD PTR tv151[ebp], ecx
  0019c	eb 0a		 jmp	 SHORT $LN13@UpdateBusy
$LN12@UpdateBusy:
  0019e	c7 85 b0 db ff
	ff 03 00 00 00	 mov	 DWORD PTR tv151[ebp], 3
$LN13@UpdateBusy:
  001a8	8b 95 b0 db ff
	ff		 mov	 edx, DWORD PTR tv151[ebp]
  001ae	89 95 9c dc ff
	ff		 mov	 DWORD PTR _intTuneLineLow$[ebp], edx

; 2543 : 	intTuneLineHi = min((103 + intDelta), 203);

  001b4	8b 85 84 dc ff
	ff		 mov	 eax, DWORD PTR _intDelta$[ebp]
  001ba	83 c0 67	 add	 eax, 103		; 00000067H
  001bd	3d cb 00 00 00	 cmp	 eax, 203		; 000000cbH
  001c2	7d 11		 jge	 SHORT $LN14@UpdateBusy
  001c4	8b 8d 84 dc ff
	ff		 mov	 ecx, DWORD PTR _intDelta$[ebp]
  001ca	83 c1 67	 add	 ecx, 103		; 00000067H
  001cd	89 8d b0 db ff
	ff		 mov	 DWORD PTR tv155[ebp], ecx
  001d3	eb 0a		 jmp	 SHORT $LN15@UpdateBusy
$LN14@UpdateBusy:
  001d5	c7 85 b0 db ff
	ff cb 00 00 00	 mov	 DWORD PTR tv155[ebp], 203 ; 000000cbH
$LN15@UpdateBusy:
  001df	8b 95 b0 db ff
	ff		 mov	 edx, DWORD PTR tv155[ebp]
  001e5	89 95 90 dc ff
	ff		 mov	 DWORD PTR _intTuneLineHi$[ebp], edx

; 2544 :     
; 2545 : //	if (ProtocolState == DISC)		// ' Only process busy when in DISC state
; 2546 : 	{
; 2547 : 		blnBusyStatus = BusyDetect3(dblMag, intTuneLineLow, intTuneLineHi);

  001eb	8b 85 90 dc ff
	ff		 mov	 eax, DWORD PTR _intTuneLineHi$[ebp]
  001f1	50		 push	 eax
  001f2	8b 8d 9c dc ff
	ff		 mov	 ecx, DWORD PTR _intTuneLineLow$[ebp]
  001f8	51		 push	 ecx
  001f9	8d 95 b4 dc ff
	ff		 lea	 edx, DWORD PTR _dblMag$[ebp]
  001ff	52		 push	 edx
  00200	e8 00 00 00 00	 call	 _BusyDetect3
  00205	83 c4 0c	 add	 esp, 12			; 0000000cH
  00208	a3 00 00 00 00	 mov	 DWORD PTR _blnBusyStatus, eax

; 2548 : 		
; 2549 : 		if (blnBusyStatus && !blnLastBusyStatus)

  0020d	83 3d 00 00 00
	00 00		 cmp	 DWORD PTR _blnBusyStatus, 0
  00214	74 22		 je	 SHORT $LN3@UpdateBusy
  00216	83 3d 00 00 00
	00 00		 cmp	 DWORD PTR ?blnLastBusyStatus@?1??UpdateBusyDetector@@9@9, 0
  0021d	75 19		 jne	 SHORT $LN3@UpdateBusy

; 2550 : 		{
; 2551 : 			QueueCommandToHost("BUSY TRUE");

  0021f	68 00 00 00 00	 push	 OFFSET ??_C@_09JPFJOAGD@BUSY?5TRUE?$AA@
  00224	e8 00 00 00 00	 call	 _QueueCommandToHost
  00229	83 c4 04	 add	 esp, 4

; 2552 :          	newStatus = TRUE;				// report to PTC

  0022c	c7 05 00 00 00
	00 01 00 00 00	 mov	 DWORD PTR _newStatus, 1
  00236	eb 29		 jmp	 SHORT $LN1@UpdateBusy
$LN3@UpdateBusy:

; 2553 : 		}
; 2554 : 		//    stcStatus.Text = "True"
; 2555 :             //    queTNCStatus.Enqueue(stcStatus)
; 2556 :             //    'Debug.WriteLine("BUSY TRUE @ " & Format(DateTime.UtcNow, "HH:mm:ss"))
; 2557 : 			
; 2558 : 		else if (blnLastBusyStatus && !blnBusyStatus)

  00238	83 3d 00 00 00
	00 00		 cmp	 DWORD PTR ?blnLastBusyStatus@?1??UpdateBusyDetector@@9@9, 0
  0023f	74 20		 je	 SHORT $LN1@UpdateBusy
  00241	83 3d 00 00 00
	00 00		 cmp	 DWORD PTR _blnBusyStatus, 0
  00248	75 17		 jne	 SHORT $LN1@UpdateBusy

; 2559 : 		{
; 2560 : 			QueueCommandToHost("BUSY FALSE");

  0024a	68 00 00 00 00	 push	 OFFSET ??_C@_0L@FMOFLFH@BUSY?5FALSE?$AA@
  0024f	e8 00 00 00 00	 call	 _QueueCommandToHost
  00254	83 c4 04	 add	 esp, 4

; 2561 : 			newStatus = TRUE;				// report to PTC

  00257	c7 05 00 00 00
	00 01 00 00 00	 mov	 DWORD PTR _newStatus, 1
$LN1@UpdateBusy:

; 2562 : 		} 
; 2563 : 		//    stcStatus.Text = "False"
; 2564 :         //    queTNCStatus.Enqueue(stcStatus)
; 2565 :         //    'Debug.WriteLine("BUSY FALSE @ " & Format(DateTime.UtcNow, "HH:mm:ss"))
; 2566 : 
; 2567 : 		blnLastBusyStatus = blnBusyStatus;

  00261	a1 00 00 00 00	 mov	 eax, DWORD PTR _blnBusyStatus
  00266	a3 00 00 00 00	 mov	 DWORD PTR ?blnLastBusyStatus@?1??UpdateBusyDetector@@9@9, eax
$LN10@UpdateBusy:

; 2568 : 	}
; 2569 : }

  0026b	52		 push	 edx
  0026c	8b cd		 mov	 ecx, ebp
  0026e	50		 push	 eax
  0026f	8d 15 00 00 00
	00		 lea	 edx, DWORD PTR $LN20@UpdateBusy
  00275	e8 00 00 00 00	 call	 @_RTC_CheckStackVars@8
  0027a	58		 pop	 eax
  0027b	5a		 pop	 edx
  0027c	5f		 pop	 edi
  0027d	5e		 pop	 esi
  0027e	5b		 pop	 ebx
  0027f	81 c4 5c 24 00
	00		 add	 esp, 9308		; 0000245cH
  00285	3b ec		 cmp	 ebp, esp
  00287	e8 00 00 00 00	 call	 __RTC_CheckEsp
  0028c	8b e5		 mov	 esp, ebp
  0028e	5d		 pop	 ebp
  0028f	c3		 ret	 0
$LN20@UpdateBusy:
  00290	03 00 00 00	 DD	 3
  00294	00 00 00 00	 DD	 $LN19@UpdateBusy
$LN19@UpdateBusy:
  00298	fc ef ff ff	 DD	 -4100			; ffffeffcH
  0029c	00 10 00 00	 DD	 4096			; 00001000H
  002a0	00 00 00 00	 DD	 $LN16@UpdateBusy
  002a4	f4 df ff ff	 DD	 -8204			; ffffdff4H
  002a8	00 10 00 00	 DD	 4096			; 00001000H
  002ac	00 00 00 00	 DD	 $LN17@UpdateBusy
  002b0	b4 dc ff ff	 DD	 -9036			; ffffdcb4H
  002b4	38 03 00 00	 DD	 824			; 00000338H
  002b8	00 00 00 00	 DD	 $LN18@UpdateBusy
$LN18@UpdateBusy:
  002bc	64		 DB	 100			; 00000064H
  002bd	62		 DB	 98			; 00000062H
  002be	6c		 DB	 108			; 0000006cH
  002bf	4d		 DB	 77			; 0000004dH
  002c0	61		 DB	 97			; 00000061H
  002c1	67		 DB	 103			; 00000067H
  002c2	00		 DB	 0
$LN17@UpdateBusy:
  002c3	64		 DB	 100			; 00000064H
  002c4	62		 DB	 98			; 00000062H
  002c5	6c		 DB	 108			; 0000006cH
  002c6	49		 DB	 73			; 00000049H
  002c7	6d		 DB	 109			; 0000006dH
  002c8	46		 DB	 70			; 00000046H
  002c9	00		 DB	 0
$LN16@UpdateBusy:
  002ca	64		 DB	 100			; 00000064H
  002cb	62		 DB	 98			; 00000062H
  002cc	6c		 DB	 108			; 0000006cH
  002cd	52		 DB	 82			; 00000052H
  002ce	65		 DB	 101			; 00000065H
  002cf	46		 DB	 70			; 00000046H
  002d0	00		 DB	 0
_UpdateBusyDetector ENDP
; Function compile flags: /Odtp /RTCsu /ZI
_TEXT	ENDS
;	COMDAT _compute_crc
_TEXT	SEGMENT
_i$ = -20						; size = 4
_fcs$ = -8						; size = 2
_buf$ = 8						; size = 4
_len$ = 12						; size = 4
_compute_crc PROC					; COMDAT

; 2608 : {

  00000	55		 push	 ebp
  00001	8b ec		 mov	 ebp, esp
  00003	81 ec d8 00 00
	00		 sub	 esp, 216		; 000000d8H
  00009	53		 push	 ebx
  0000a	56		 push	 esi
  0000b	57		 push	 edi
  0000c	8d bd 28 ff ff
	ff		 lea	 edi, DWORD PTR [ebp-216]
  00012	b9 36 00 00 00	 mov	 ecx, 54			; 00000036H
  00017	b8 cc cc cc cc	 mov	 eax, -858993460		; ccccccccH
  0001c	f3 ab		 rep stosd

; 2609 : 	unsigned short fcs = 0xffff; 

  0001e	66 c7 45 f8 ff
	ff		 mov	 WORD PTR _fcs$[ebp], 65535 ; 0000ffffH

; 2610 : 	int i;
; 2611 : 
; 2612 : 	for(i = 0; i < len; i++) 

  00024	c7 45 ec 00 00
	00 00		 mov	 DWORD PTR _i$[ebp], 0
  0002b	eb 09		 jmp	 SHORT $LN3@compute_cr
$LN2@compute_cr:
  0002d	8b 45 ec	 mov	 eax, DWORD PTR _i$[ebp]
  00030	83 c0 01	 add	 eax, 1
  00033	89 45 ec	 mov	 DWORD PTR _i$[ebp], eax
$LN3@compute_cr:
  00036	8b 45 ec	 mov	 eax, DWORD PTR _i$[ebp]
  00039	3b 45 0c	 cmp	 eax, DWORD PTR _len$[ebp]
  0003c	7d 2c		 jge	 SHORT $LN1@compute_cr

; 2613 : 		fcs = (fcs >>8 ) ^ CRCTAB[(fcs ^ buf[i]) & 0xff]; 

  0003e	0f b7 45 f8	 movzx	 eax, WORD PTR _fcs$[ebp]
  00042	c1 f8 08	 sar	 eax, 8
  00045	0f b7 4d f8	 movzx	 ecx, WORD PTR _fcs$[ebp]
  00049	8b 55 08	 mov	 edx, DWORD PTR _buf$[ebp]
  0004c	03 55 ec	 add	 edx, DWORD PTR _i$[ebp]
  0004f	0f b6 12	 movzx	 edx, BYTE PTR [edx]
  00052	33 ca		 xor	 ecx, edx
  00054	81 e1 ff 00 00
	00		 and	 ecx, 255		; 000000ffH
  0005a	0f b7 0c 4d 00
	00 00 00	 movzx	 ecx, WORD PTR _CRCTAB[ecx*2]
  00062	33 c1		 xor	 eax, ecx
  00064	66 89 45 f8	 mov	 WORD PTR _fcs$[ebp], ax
  00068	eb c3		 jmp	 SHORT $LN2@compute_cr
$LN1@compute_cr:

; 2614 : 
; 2615 : 	return fcs;

  0006a	66 8b 45 f8	 mov	 ax, WORD PTR _fcs$[ebp]

; 2616 : }

  0006e	5f		 pop	 edi
  0006f	5e		 pop	 esi
  00070	5b		 pop	 ebx
  00071	8b e5		 mov	 esp, ebp
  00073	5d		 pop	 ebp
  00074	c3		 ret	 0
_compute_crc ENDP
_TEXT	ENDS
END
