; Listing generated by Microsoft (R) Optimizing Compiler Version 14.00.50727.762 

	TITLE	c:\Users\John\OneDrive\Dev\Source\ARDOPC\berlekamp.c
	.686P
	.XMM
	include listing.inc
	.model	flat

INCLUDELIB LIBCMTD
INCLUDELIB OLDNAMES

_DATA	SEGMENT
COMM	_NErrors:DWORD
_DATA	ENDS
PUBLIC	_copy_poly
PUBLIC	_Modified_Berlekamp_Massey
EXTRN	_ginv:PROC
EXTRN	_gmult:PROC
EXTRN	_synBytes:BYTE
EXTRN	_NPAR:DWORD
EXTRN	__RTC_CheckEsp:PROC
EXTRN	@_RTC_CheckStackVars@8:PROC
EXTRN	__RTC_Shutdown:PROC
EXTRN	__RTC_InitBase:PROC
_BSS	SEGMENT
_Lambda	DD	080H DUP (?)
_NErasures DD	01H DUP (?)
_BSS	ENDS
;	COMDAT rtc$TMZ
; File c:\users\john\onedrive\dev\source\ardopc\berlekamp.c
rtc$TMZ	SEGMENT
__RTC_Shutdown.rtc$TMZ DD FLAT:__RTC_Shutdown
rtc$TMZ	ENDS
;	COMDAT rtc$IMZ
rtc$IMZ	SEGMENT
__RTC_InitBase.rtc$IMZ DD FLAT:__RTC_InitBase
; Function compile flags: /Odtp /RTCsu /ZI
rtc$IMZ	ENDS
;	COMDAT _Modified_Berlekamp_Massey
_TEXT	SEGMENT
_gamma$ = -2148						; size = 512
_D$ = -1628						; size = 512
_psi2$ = -1108						; size = 512
_psi$ = -588						; size = 512
_i$ = -68						; size = 4
_d$ = -56						; size = 4
_k$ = -44						; size = 4
_L2$ = -32						; size = 4
_L$ = -20						; size = 4
_n$ = -8						; size = 4
_Modified_Berlekamp_Massey PROC				; COMDAT

; 66   : {	

  00000	55		 push	 ebp
  00001	8b ec		 mov	 ebp, esp
  00003	81 ec 28 09 00
	00		 sub	 esp, 2344		; 00000928H
  00009	53		 push	 ebx
  0000a	56		 push	 esi
  0000b	57		 push	 edi
  0000c	8d bd d8 f6 ff
	ff		 lea	 edi, DWORD PTR [ebp-2344]
  00012	b9 4a 02 00 00	 mov	 ecx, 586		; 0000024aH
  00017	b8 cc cc cc cc	 mov	 eax, -858993460		; ccccccccH
  0001c	f3 ab		 rep stosd

; 67   :   int n, L, L2, k, d, i;
; 68   :   int psi[MAXDEG], psi2[MAXDEG], D[MAXDEG];
; 69   :   int gamma[MAXDEG];
; 70   : 	
; 71   :   /* initialize Gamma, the erasure locator polynomial */
; 72   :   init_gamma(gamma);

  0001e	8d 85 9c f7 ff
	ff		 lea	 eax, DWORD PTR _gamma$[ebp]
  00024	50		 push	 eax
  00025	e8 00 00 00 00	 call	 _init_gamma
  0002a	83 c4 04	 add	 esp, 4

; 73   : 
; 74   :   /* initialize to z */
; 75   :   copy_poly(D, gamma);

  0002d	8d 85 9c f7 ff
	ff		 lea	 eax, DWORD PTR _gamma$[ebp]
  00033	50		 push	 eax
  00034	8d 8d a4 f9 ff
	ff		 lea	 ecx, DWORD PTR _D$[ebp]
  0003a	51		 push	 ecx
  0003b	e8 00 00 00 00	 call	 _copy_poly
  00040	83 c4 08	 add	 esp, 8

; 76   :   mul_z_poly(D);

  00043	8d 85 a4 f9 ff
	ff		 lea	 eax, DWORD PTR _D$[ebp]
  00049	50		 push	 eax
  0004a	e8 00 00 00 00	 call	 _mul_z_poly
  0004f	83 c4 04	 add	 esp, 4

; 77   : 	
; 78   :   copy_poly(psi, gamma);	

  00052	8d 85 9c f7 ff
	ff		 lea	 eax, DWORD PTR _gamma$[ebp]
  00058	50		 push	 eax
  00059	8d 8d b4 fd ff
	ff		 lea	 ecx, DWORD PTR _psi$[ebp]
  0005f	51		 push	 ecx
  00060	e8 00 00 00 00	 call	 _copy_poly
  00065	83 c4 08	 add	 esp, 8

; 79   :   k = -1; L = NErasures;

  00068	c7 45 d4 ff ff
	ff ff		 mov	 DWORD PTR _k$[ebp], -1
  0006f	a1 00 00 00 00	 mov	 eax, DWORD PTR _NErasures
  00074	89 45 ec	 mov	 DWORD PTR _L$[ebp], eax

; 80   : 	
; 81   :   for (n = NErasures; n < NPAR; n++) {

  00077	a1 00 00 00 00	 mov	 eax, DWORD PTR _NErasures
  0007c	89 45 f8	 mov	 DWORD PTR _n$[ebp], eax
  0007f	eb 09		 jmp	 SHORT $LN17@Modified_B
$LN16@Modified_B:
  00081	8b 45 f8	 mov	 eax, DWORD PTR _n$[ebp]
  00084	83 c0 01	 add	 eax, 1
  00087	89 45 f8	 mov	 DWORD PTR _n$[ebp], eax
$LN17@Modified_B:
  0008a	8b 45 f8	 mov	 eax, DWORD PTR _n$[ebp]
  0008d	3b 05 00 00 00
	00		 cmp	 eax, DWORD PTR _NPAR
  00093	0f 8d 29 01 00
	00		 jge	 $LN15@Modified_B

; 82   : 	
; 83   :     d = compute_discrepancy(psi, synBytes, L, n);

  00099	8b 45 f8	 mov	 eax, DWORD PTR _n$[ebp]
  0009c	50		 push	 eax
  0009d	8b 4d ec	 mov	 ecx, DWORD PTR _L$[ebp]
  000a0	51		 push	 ecx
  000a1	68 00 00 00 00	 push	 OFFSET _synBytes
  000a6	8d 95 b4 fd ff
	ff		 lea	 edx, DWORD PTR _psi$[ebp]
  000ac	52		 push	 edx
  000ad	e8 00 00 00 00	 call	 _compute_discrepancy
  000b2	83 c4 10	 add	 esp, 16			; 00000010H
  000b5	89 45 c8	 mov	 DWORD PTR _d$[ebp], eax

; 84   : 		
; 85   :     if (d != 0) {

  000b8	83 7d c8 00	 cmp	 DWORD PTR _d$[ebp], 0
  000bc	0f 84 ec 00 00
	00		 je	 $LN14@Modified_B

; 86   : 		
; 87   :       /* psi2 = psi - d*D */
; 88   :       for (i = 0; i < NPAR*2; i++) psi2[i] = psi[i] ^ gmult(d, D[i]);

  000c2	c7 45 bc 00 00
	00 00		 mov	 DWORD PTR _i$[ebp], 0
  000c9	eb 09		 jmp	 SHORT $LN13@Modified_B
$LN12@Modified_B:
  000cb	8b 45 bc	 mov	 eax, DWORD PTR _i$[ebp]
  000ce	83 c0 01	 add	 eax, 1
  000d1	89 45 bc	 mov	 DWORD PTR _i$[ebp], eax
$LN13@Modified_B:
  000d4	a1 00 00 00 00	 mov	 eax, DWORD PTR _NPAR
  000d9	d1 e0		 shl	 eax, 1
  000db	39 45 bc	 cmp	 DWORD PTR _i$[ebp], eax
  000de	7d 2d		 jge	 SHORT $LN11@Modified_B
  000e0	8b 45 bc	 mov	 eax, DWORD PTR _i$[ebp]
  000e3	8b 8c 85 a4 f9
	ff ff		 mov	 ecx, DWORD PTR _D$[ebp+eax*4]
  000ea	51		 push	 ecx
  000eb	8b 55 c8	 mov	 edx, DWORD PTR _d$[ebp]
  000ee	52		 push	 edx
  000ef	e8 00 00 00 00	 call	 _gmult
  000f4	83 c4 08	 add	 esp, 8
  000f7	8b 4d bc	 mov	 ecx, DWORD PTR _i$[ebp]
  000fa	33 84 8d b4 fd
	ff ff		 xor	 eax, DWORD PTR _psi$[ebp+ecx*4]
  00101	8b 55 bc	 mov	 edx, DWORD PTR _i$[ebp]
  00104	89 84 95 ac fb
	ff ff		 mov	 DWORD PTR _psi2$[ebp+edx*4], eax
  0010b	eb be		 jmp	 SHORT $LN12@Modified_B
$LN11@Modified_B:

; 89   : 		
; 90   : 		
; 91   :       if (L < (n-k)) {

  0010d	8b 45 f8	 mov	 eax, DWORD PTR _n$[ebp]
  00110	2b 45 d4	 sub	 eax, DWORD PTR _k$[ebp]
  00113	39 45 ec	 cmp	 DWORD PTR _L$[ebp], eax
  00116	7d 62		 jge	 SHORT $LN10@Modified_B

; 92   : 	L2 = n-k;

  00118	8b 45 f8	 mov	 eax, DWORD PTR _n$[ebp]
  0011b	2b 45 d4	 sub	 eax, DWORD PTR _k$[ebp]
  0011e	89 45 e0	 mov	 DWORD PTR _L2$[ebp], eax

; 93   : 	k = n-L;

  00121	8b 45 f8	 mov	 eax, DWORD PTR _n$[ebp]
  00124	2b 45 ec	 sub	 eax, DWORD PTR _L$[ebp]
  00127	89 45 d4	 mov	 DWORD PTR _k$[ebp], eax

; 94   : 	/* D = scale_poly(ginv(d), psi); */
; 95   : 	for (i = 0; i < NPAR*2; i++) D[i] = gmult(psi[i], ginv(d));

  0012a	c7 45 bc 00 00
	00 00		 mov	 DWORD PTR _i$[ebp], 0
  00131	eb 09		 jmp	 SHORT $LN9@Modified_B
$LN8@Modified_B:
  00133	8b 45 bc	 mov	 eax, DWORD PTR _i$[ebp]
  00136	83 c0 01	 add	 eax, 1
  00139	89 45 bc	 mov	 DWORD PTR _i$[ebp], eax
$LN9@Modified_B:
  0013c	a1 00 00 00 00	 mov	 eax, DWORD PTR _NPAR
  00141	d1 e0		 shl	 eax, 1
  00143	39 45 bc	 cmp	 DWORD PTR _i$[ebp], eax
  00146	7d 2c		 jge	 SHORT $LN7@Modified_B
  00148	8b 45 c8	 mov	 eax, DWORD PTR _d$[ebp]
  0014b	50		 push	 eax
  0014c	e8 00 00 00 00	 call	 _ginv
  00151	83 c4 04	 add	 esp, 4
  00154	50		 push	 eax
  00155	8b 4d bc	 mov	 ecx, DWORD PTR _i$[ebp]
  00158	8b 94 8d b4 fd
	ff ff		 mov	 edx, DWORD PTR _psi$[ebp+ecx*4]
  0015f	52		 push	 edx
  00160	e8 00 00 00 00	 call	 _gmult
  00165	83 c4 08	 add	 esp, 8
  00168	8b 4d bc	 mov	 ecx, DWORD PTR _i$[ebp]
  0016b	89 84 8d a4 f9
	ff ff		 mov	 DWORD PTR _D$[ebp+ecx*4], eax
  00172	eb bf		 jmp	 SHORT $LN8@Modified_B
$LN7@Modified_B:

; 96   : 	L = L2;

  00174	8b 45 e0	 mov	 eax, DWORD PTR _L2$[ebp]
  00177	89 45 ec	 mov	 DWORD PTR _L$[ebp], eax
$LN10@Modified_B:

; 97   :       }
; 98   : 			
; 99   :       /* psi = psi2 */
; 100  :       for (i = 0; i < NPAR*2; i++) psi[i] = psi2[i];

  0017a	c7 45 bc 00 00
	00 00		 mov	 DWORD PTR _i$[ebp], 0
  00181	eb 09		 jmp	 SHORT $LN6@Modified_B
$LN5@Modified_B:
  00183	8b 45 bc	 mov	 eax, DWORD PTR _i$[ebp]
  00186	83 c0 01	 add	 eax, 1
  00189	89 45 bc	 mov	 DWORD PTR _i$[ebp], eax
$LN6@Modified_B:
  0018c	a1 00 00 00 00	 mov	 eax, DWORD PTR _NPAR
  00191	d1 e0		 shl	 eax, 1
  00193	39 45 bc	 cmp	 DWORD PTR _i$[ebp], eax
  00196	7d 16		 jge	 SHORT $LN14@Modified_B
  00198	8b 45 bc	 mov	 eax, DWORD PTR _i$[ebp]
  0019b	8b 4d bc	 mov	 ecx, DWORD PTR _i$[ebp]
  0019e	8b 94 8d ac fb
	ff ff		 mov	 edx, DWORD PTR _psi2$[ebp+ecx*4]
  001a5	89 94 85 b4 fd
	ff ff		 mov	 DWORD PTR _psi$[ebp+eax*4], edx
  001ac	eb d5		 jmp	 SHORT $LN5@Modified_B
$LN14@Modified_B:

; 101  :     }
; 102  : 		
; 103  :     mul_z_poly(D);

  001ae	8d 85 a4 f9 ff
	ff		 lea	 eax, DWORD PTR _D$[ebp]
  001b4	50		 push	 eax
  001b5	e8 00 00 00 00	 call	 _mul_z_poly
  001ba	83 c4 04	 add	 esp, 4

; 104  :   }

  001bd	e9 bf fe ff ff	 jmp	 $LN16@Modified_B
$LN15@Modified_B:

; 105  : 	
; 106  :   for(i = 0; i < NPAR*2; i++) Lambda[i] = psi[i];

  001c2	c7 45 bc 00 00
	00 00		 mov	 DWORD PTR _i$[ebp], 0
  001c9	eb 09		 jmp	 SHORT $LN3@Modified_B
$LN2@Modified_B:
  001cb	8b 45 bc	 mov	 eax, DWORD PTR _i$[ebp]
  001ce	83 c0 01	 add	 eax, 1
  001d1	89 45 bc	 mov	 DWORD PTR _i$[ebp], eax
$LN3@Modified_B:
  001d4	a1 00 00 00 00	 mov	 eax, DWORD PTR _NPAR
  001d9	d1 e0		 shl	 eax, 1
  001db	39 45 bc	 cmp	 DWORD PTR _i$[ebp], eax
  001de	7d 16		 jge	 SHORT $LN1@Modified_B
  001e0	8b 45 bc	 mov	 eax, DWORD PTR _i$[ebp]
  001e3	8b 4d bc	 mov	 ecx, DWORD PTR _i$[ebp]
  001e6	8b 94 8d b4 fd
	ff ff		 mov	 edx, DWORD PTR _psi$[ebp+ecx*4]
  001ed	89 14 85 00 00
	00 00		 mov	 DWORD PTR _Lambda[eax*4], edx
  001f4	eb d5		 jmp	 SHORT $LN2@Modified_B
$LN1@Modified_B:

; 107  :   compute_modified_omega();

  001f6	e8 00 00 00 00	 call	 _compute_modified_omega

; 108  : 
; 109  : 	
; 110  : }

  001fb	52		 push	 edx
  001fc	8b cd		 mov	 ecx, ebp
  001fe	50		 push	 eax
  001ff	8d 15 00 00 00
	00		 lea	 edx, DWORD PTR $LN25@Modified_B
  00205	e8 00 00 00 00	 call	 @_RTC_CheckStackVars@8
  0020a	58		 pop	 eax
  0020b	5a		 pop	 edx
  0020c	5f		 pop	 edi
  0020d	5e		 pop	 esi
  0020e	5b		 pop	 ebx
  0020f	81 c4 28 09 00
	00		 add	 esp, 2344		; 00000928H
  00215	3b ec		 cmp	 ebp, esp
  00217	e8 00 00 00 00	 call	 __RTC_CheckEsp
  0021c	8b e5		 mov	 esp, ebp
  0021e	5d		 pop	 ebp
  0021f	c3		 ret	 0
$LN25@Modified_B:
  00220	04 00 00 00	 DD	 4
  00224	00 00 00 00	 DD	 $LN24@Modified_B
$LN24@Modified_B:
  00228	b4 fd ff ff	 DD	 -588			; fffffdb4H
  0022c	00 02 00 00	 DD	 512			; 00000200H
  00230	00 00 00 00	 DD	 $LN20@Modified_B
  00234	ac fb ff ff	 DD	 -1108			; fffffbacH
  00238	00 02 00 00	 DD	 512			; 00000200H
  0023c	00 00 00 00	 DD	 $LN21@Modified_B
  00240	a4 f9 ff ff	 DD	 -1628			; fffff9a4H
  00244	00 02 00 00	 DD	 512			; 00000200H
  00248	00 00 00 00	 DD	 $LN22@Modified_B
  0024c	9c f7 ff ff	 DD	 -2148			; fffff79cH
  00250	00 02 00 00	 DD	 512			; 00000200H
  00254	00 00 00 00	 DD	 $LN23@Modified_B
$LN23@Modified_B:
  00258	67		 DB	 103			; 00000067H
  00259	61		 DB	 97			; 00000061H
  0025a	6d		 DB	 109			; 0000006dH
  0025b	6d		 DB	 109			; 0000006dH
  0025c	61		 DB	 97			; 00000061H
  0025d	00		 DB	 0
$LN22@Modified_B:
  0025e	44		 DB	 68			; 00000044H
  0025f	00		 DB	 0
$LN21@Modified_B:
  00260	70		 DB	 112			; 00000070H
  00261	73		 DB	 115			; 00000073H
  00262	69		 DB	 105			; 00000069H
  00263	32		 DB	 50			; 00000032H
  00264	00		 DB	 0
$LN20@Modified_B:
  00265	70		 DB	 112			; 00000070H
  00266	73		 DB	 115			; 00000073H
  00267	69		 DB	 105			; 00000069H
  00268	00		 DB	 0
_Modified_Berlekamp_Massey ENDP
_TEXT	ENDS
PUBLIC	_zero_poly
PUBLIC	_mult_polys
_BSS	SEGMENT
_Omega	DD	080H DUP (?)
; Function compile flags: /Odtp /RTCsu /ZI
_BSS	ENDS
;	COMDAT _compute_modified_omega
_TEXT	SEGMENT
_product$ = -1040					; size = 1024
_i$ = -8						; size = 4
_compute_modified_omega PROC				; COMDAT

; 118  : {

  00000	55		 push	 ebp
  00001	8b ec		 mov	 ebp, esp
  00003	81 ec d4 04 00
	00		 sub	 esp, 1236		; 000004d4H
  00009	53		 push	 ebx
  0000a	56		 push	 esi
  0000b	57		 push	 edi
  0000c	8d bd 2c fb ff
	ff		 lea	 edi, DWORD PTR [ebp-1236]
  00012	b9 35 01 00 00	 mov	 ecx, 309		; 00000135H
  00017	b8 cc cc cc cc	 mov	 eax, -858993460		; ccccccccH
  0001c	f3 ab		 rep stosd

; 119  :   int i;
; 120  :   int product[MAXDEG*2];
; 121  : 	
; 122  :   mult_polys(product, Lambda, synBytes);	

  0001e	68 00 00 00 00	 push	 OFFSET _synBytes
  00023	68 00 00 00 00	 push	 OFFSET _Lambda
  00028	8d 85 f0 fb ff
	ff		 lea	 eax, DWORD PTR _product$[ebp]
  0002e	50		 push	 eax
  0002f	e8 00 00 00 00	 call	 _mult_polys
  00034	83 c4 0c	 add	 esp, 12			; 0000000cH

; 123  :   zero_poly(Omega);

  00037	68 00 00 00 00	 push	 OFFSET _Omega
  0003c	e8 00 00 00 00	 call	 _zero_poly
  00041	83 c4 04	 add	 esp, 4

; 124  :   for(i = 0; i < NPAR; i++) Omega[i] = product[i];

  00044	c7 45 f8 00 00
	00 00		 mov	 DWORD PTR _i$[ebp], 0
  0004b	eb 09		 jmp	 SHORT $LN3@compute_mo
$LN2@compute_mo:
  0004d	8b 45 f8	 mov	 eax, DWORD PTR _i$[ebp]
  00050	83 c0 01	 add	 eax, 1
  00053	89 45 f8	 mov	 DWORD PTR _i$[ebp], eax
$LN3@compute_mo:
  00056	8b 45 f8	 mov	 eax, DWORD PTR _i$[ebp]
  00059	3b 05 00 00 00
	00		 cmp	 eax, DWORD PTR _NPAR
  0005f	7d 16		 jge	 SHORT $LN4@compute_mo
  00061	8b 45 f8	 mov	 eax, DWORD PTR _i$[ebp]
  00064	8b 4d f8	 mov	 ecx, DWORD PTR _i$[ebp]
  00067	8b 94 8d f0 fb
	ff ff		 mov	 edx, DWORD PTR _product$[ebp+ecx*4]
  0006e	89 14 85 00 00
	00 00		 mov	 DWORD PTR _Omega[eax*4], edx
  00075	eb d6		 jmp	 SHORT $LN2@compute_mo
$LN4@compute_mo:

; 125  : 
; 126  : }

  00077	52		 push	 edx
  00078	8b cd		 mov	 ecx, ebp
  0007a	50		 push	 eax
  0007b	8d 15 00 00 00
	00		 lea	 edx, DWORD PTR $LN8@compute_mo
  00081	e8 00 00 00 00	 call	 @_RTC_CheckStackVars@8
  00086	58		 pop	 eax
  00087	5a		 pop	 edx
  00088	5f		 pop	 edi
  00089	5e		 pop	 esi
  0008a	5b		 pop	 ebx
  0008b	81 c4 d4 04 00
	00		 add	 esp, 1236		; 000004d4H
  00091	3b ec		 cmp	 ebp, esp
  00093	e8 00 00 00 00	 call	 __RTC_CheckEsp
  00098	8b e5		 mov	 esp, ebp
  0009a	5d		 pop	 ebp
  0009b	c3		 ret	 0
$LN8@compute_mo:
  0009c	01 00 00 00	 DD	 1
  000a0	00 00 00 00	 DD	 $LN7@compute_mo
$LN7@compute_mo:
  000a4	f0 fb ff ff	 DD	 -1040			; fffffbf0H
  000a8	00 04 00 00	 DD	 1024			; 00000400H
  000ac	00 00 00 00	 DD	 $LN6@compute_mo
$LN6@compute_mo:
  000b0	70		 DB	 112			; 00000070H
  000b1	72		 DB	 114			; 00000072H
  000b2	6f		 DB	 111			; 0000006fH
  000b3	64		 DB	 100			; 00000064H
  000b4	75		 DB	 117			; 00000075H
  000b5	63		 DB	 99			; 00000063H
  000b6	74		 DB	 116			; 00000074H
  000b7	00		 DB	 0
_compute_modified_omega ENDP
; Function compile flags: /Odtp /RTCsu /ZI
_TEXT	ENDS
;	COMDAT _mult_polys
_TEXT	SEGMENT
_tmp1$ = -1052						; size = 1024
_j$ = -20						; size = 4
_i$ = -8						; size = 4
_dst$ = 8						; size = 4
_p1$ = 12						; size = 4
_p2$ = 16						; size = 4
_mult_polys PROC					; COMDAT

; 131  : {

  00000	55		 push	 ebp
  00001	8b ec		 mov	 ebp, esp
  00003	81 ec e0 04 00
	00		 sub	 esp, 1248		; 000004e0H
  00009	53		 push	 ebx
  0000a	56		 push	 esi
  0000b	57		 push	 edi
  0000c	8d bd 20 fb ff
	ff		 lea	 edi, DWORD PTR [ebp-1248]
  00012	b9 38 01 00 00	 mov	 ecx, 312		; 00000138H
  00017	b8 cc cc cc cc	 mov	 eax, -858993460		; ccccccccH
  0001c	f3 ab		 rep stosd

; 132  :   int i, j;
; 133  :   int tmp1[MAXDEG*2];
; 134  : 	
; 135  :   for (i=0; i < (NPAR*2*2); i++) dst[i] = 0;

  0001e	c7 45 f8 00 00
	00 00		 mov	 DWORD PTR _i$[ebp], 0
  00025	eb 09		 jmp	 SHORT $LN21@mult_polys
$LN20@mult_polys:
  00027	8b 45 f8	 mov	 eax, DWORD PTR _i$[ebp]
  0002a	83 c0 01	 add	 eax, 1
  0002d	89 45 f8	 mov	 DWORD PTR _i$[ebp], eax
$LN21@mult_polys:
  00030	a1 00 00 00 00	 mov	 eax, DWORD PTR _NPAR
  00035	d1 e0		 shl	 eax, 1
  00037	d1 e0		 shl	 eax, 1
  00039	39 45 f8	 cmp	 DWORD PTR _i$[ebp], eax
  0003c	7d 0f		 jge	 SHORT $LN19@mult_polys
  0003e	8b 45 f8	 mov	 eax, DWORD PTR _i$[ebp]
  00041	8b 4d 08	 mov	 ecx, DWORD PTR _dst$[ebp]
  00044	c7 04 81 00 00
	00 00		 mov	 DWORD PTR [ecx+eax*4], 0
  0004b	eb da		 jmp	 SHORT $LN20@mult_polys
$LN19@mult_polys:

; 136  : 	
; 137  :   for (i = 0; i < NPAR*2; i++) {

  0004d	c7 45 f8 00 00
	00 00		 mov	 DWORD PTR _i$[ebp], 0
  00054	eb 09		 jmp	 SHORT $LN18@mult_polys
$LN17@mult_polys:
  00056	8b 45 f8	 mov	 eax, DWORD PTR _i$[ebp]
  00059	83 c0 01	 add	 eax, 1
  0005c	89 45 f8	 mov	 DWORD PTR _i$[ebp], eax
$LN18@mult_polys:
  0005f	a1 00 00 00 00	 mov	 eax, DWORD PTR _NPAR
  00064	d1 e0		 shl	 eax, 1
  00066	39 45 f8	 cmp	 DWORD PTR _i$[ebp], eax
  00069	0f 8d 20 01 00
	00		 jge	 $LN22@mult_polys

; 138  :     for(j=NPAR*2; j<(NPAR*2*2); j++) tmp1[j]=0;

  0006f	a1 00 00 00 00	 mov	 eax, DWORD PTR _NPAR
  00074	d1 e0		 shl	 eax, 1
  00076	89 45 ec	 mov	 DWORD PTR _j$[ebp], eax
  00079	eb 09		 jmp	 SHORT $LN15@mult_polys
$LN14@mult_polys:
  0007b	8b 45 ec	 mov	 eax, DWORD PTR _j$[ebp]
  0007e	83 c0 01	 add	 eax, 1
  00081	89 45 ec	 mov	 DWORD PTR _j$[ebp], eax
$LN15@mult_polys:
  00084	a1 00 00 00 00	 mov	 eax, DWORD PTR _NPAR
  00089	d1 e0		 shl	 eax, 1
  0008b	d1 e0		 shl	 eax, 1
  0008d	39 45 ec	 cmp	 DWORD PTR _j$[ebp], eax
  00090	7d 10		 jge	 SHORT $LN13@mult_polys
  00092	8b 45 ec	 mov	 eax, DWORD PTR _j$[ebp]
  00095	c7 84 85 e4 fb
	ff ff 00 00 00
	00		 mov	 DWORD PTR _tmp1$[ebp+eax*4], 0
  000a0	eb d9		 jmp	 SHORT $LN14@mult_polys
$LN13@mult_polys:

; 139  : 		
; 140  :     /* scale tmp1 by p1[i] */
; 141  :     for(j=0; j<NPAR*2; j++) tmp1[j]=gmult(p2[j], p1[i]);

  000a2	c7 45 ec 00 00
	00 00		 mov	 DWORD PTR _j$[ebp], 0
  000a9	eb 09		 jmp	 SHORT $LN12@mult_polys
$LN11@mult_polys:
  000ab	8b 45 ec	 mov	 eax, DWORD PTR _j$[ebp]
  000ae	83 c0 01	 add	 eax, 1
  000b1	89 45 ec	 mov	 DWORD PTR _j$[ebp], eax
$LN12@mult_polys:
  000b4	a1 00 00 00 00	 mov	 eax, DWORD PTR _NPAR
  000b9	d1 e0		 shl	 eax, 1
  000bb	39 45 ec	 cmp	 DWORD PTR _j$[ebp], eax
  000be	7d 28		 jge	 SHORT $LN10@mult_polys
  000c0	8b 45 f8	 mov	 eax, DWORD PTR _i$[ebp]
  000c3	8b 4d 0c	 mov	 ecx, DWORD PTR _p1$[ebp]
  000c6	8b 14 81	 mov	 edx, DWORD PTR [ecx+eax*4]
  000c9	52		 push	 edx
  000ca	8b 45 ec	 mov	 eax, DWORD PTR _j$[ebp]
  000cd	8b 4d 10	 mov	 ecx, DWORD PTR _p2$[ebp]
  000d0	8b 14 81	 mov	 edx, DWORD PTR [ecx+eax*4]
  000d3	52		 push	 edx
  000d4	e8 00 00 00 00	 call	 _gmult
  000d9	83 c4 08	 add	 esp, 8
  000dc	8b 4d ec	 mov	 ecx, DWORD PTR _j$[ebp]
  000df	89 84 8d e4 fb
	ff ff		 mov	 DWORD PTR _tmp1$[ebp+ecx*4], eax
  000e6	eb c3		 jmp	 SHORT $LN11@mult_polys
$LN10@mult_polys:

; 142  :     /* and mult (shift) tmp1 right by i */
; 143  :     for (j = (NPAR*2*2)-1; j >= i; j--) tmp1[j] = tmp1[j-i];

  000e8	a1 00 00 00 00	 mov	 eax, DWORD PTR _NPAR
  000ed	d1 e0		 shl	 eax, 1
  000ef	8d 4c 00 ff	 lea	 ecx, DWORD PTR [eax+eax-1]
  000f3	89 4d ec	 mov	 DWORD PTR _j$[ebp], ecx
  000f6	eb 09		 jmp	 SHORT $LN9@mult_polys
$LN8@mult_polys:
  000f8	8b 45 ec	 mov	 eax, DWORD PTR _j$[ebp]
  000fb	83 e8 01	 sub	 eax, 1
  000fe	89 45 ec	 mov	 DWORD PTR _j$[ebp], eax
$LN9@mult_polys:
  00101	8b 45 ec	 mov	 eax, DWORD PTR _j$[ebp]
  00104	3b 45 f8	 cmp	 eax, DWORD PTR _i$[ebp]
  00107	7c 19		 jl	 SHORT $LN7@mult_polys
  00109	8b 45 ec	 mov	 eax, DWORD PTR _j$[ebp]
  0010c	2b 45 f8	 sub	 eax, DWORD PTR _i$[ebp]
  0010f	8b 4d ec	 mov	 ecx, DWORD PTR _j$[ebp]
  00112	8b 94 85 e4 fb
	ff ff		 mov	 edx, DWORD PTR _tmp1$[ebp+eax*4]
  00119	89 94 8d e4 fb
	ff ff		 mov	 DWORD PTR _tmp1$[ebp+ecx*4], edx
  00120	eb d6		 jmp	 SHORT $LN8@mult_polys
$LN7@mult_polys:

; 144  :     for (j = 0; j < i; j++) tmp1[j] = 0;

  00122	c7 45 ec 00 00
	00 00		 mov	 DWORD PTR _j$[ebp], 0
  00129	eb 09		 jmp	 SHORT $LN6@mult_polys
$LN5@mult_polys:
  0012b	8b 45 ec	 mov	 eax, DWORD PTR _j$[ebp]
  0012e	83 c0 01	 add	 eax, 1
  00131	89 45 ec	 mov	 DWORD PTR _j$[ebp], eax
$LN6@mult_polys:
  00134	8b 45 ec	 mov	 eax, DWORD PTR _j$[ebp]
  00137	3b 45 f8	 cmp	 eax, DWORD PTR _i$[ebp]
  0013a	7d 10		 jge	 SHORT $LN4@mult_polys
  0013c	8b 45 ec	 mov	 eax, DWORD PTR _j$[ebp]
  0013f	c7 84 85 e4 fb
	ff ff 00 00 00
	00		 mov	 DWORD PTR _tmp1$[ebp+eax*4], 0
  0014a	eb df		 jmp	 SHORT $LN5@mult_polys
$LN4@mult_polys:

; 145  : 		
; 146  :     /* add into partial product */
; 147  :     for(j=0; j < (NPAR*2*2); j++) dst[j] ^= tmp1[j];

  0014c	c7 45 ec 00 00
	00 00		 mov	 DWORD PTR _j$[ebp], 0
  00153	eb 09		 jmp	 SHORT $LN3@mult_polys
$LN2@mult_polys:
  00155	8b 45 ec	 mov	 eax, DWORD PTR _j$[ebp]
  00158	83 c0 01	 add	 eax, 1
  0015b	89 45 ec	 mov	 DWORD PTR _j$[ebp], eax
$LN3@mult_polys:
  0015e	a1 00 00 00 00	 mov	 eax, DWORD PTR _NPAR
  00163	d1 e0		 shl	 eax, 1
  00165	d1 e0		 shl	 eax, 1
  00167	39 45 ec	 cmp	 DWORD PTR _j$[ebp], eax
  0016a	7d 1e		 jge	 SHORT $LN1@mult_polys
  0016c	8b 45 ec	 mov	 eax, DWORD PTR _j$[ebp]
  0016f	8b 4d 08	 mov	 ecx, DWORD PTR _dst$[ebp]
  00172	8b 55 ec	 mov	 edx, DWORD PTR _j$[ebp]
  00175	8b 04 81	 mov	 eax, DWORD PTR [ecx+eax*4]
  00178	33 84 95 e4 fb
	ff ff		 xor	 eax, DWORD PTR _tmp1$[ebp+edx*4]
  0017f	8b 4d ec	 mov	 ecx, DWORD PTR _j$[ebp]
  00182	8b 55 08	 mov	 edx, DWORD PTR _dst$[ebp]
  00185	89 04 8a	 mov	 DWORD PTR [edx+ecx*4], eax
  00188	eb cb		 jmp	 SHORT $LN2@mult_polys
$LN1@mult_polys:

; 148  :   }

  0018a	e9 c7 fe ff ff	 jmp	 $LN17@mult_polys
$LN22@mult_polys:

; 149  : }

  0018f	52		 push	 edx
  00190	8b cd		 mov	 ecx, ebp
  00192	50		 push	 eax
  00193	8d 15 00 00 00
	00		 lea	 edx, DWORD PTR $LN26@mult_polys
  00199	e8 00 00 00 00	 call	 @_RTC_CheckStackVars@8
  0019e	58		 pop	 eax
  0019f	5a		 pop	 edx
  001a0	5f		 pop	 edi
  001a1	5e		 pop	 esi
  001a2	5b		 pop	 ebx
  001a3	81 c4 e0 04 00
	00		 add	 esp, 1248		; 000004e0H
  001a9	3b ec		 cmp	 ebp, esp
  001ab	e8 00 00 00 00	 call	 __RTC_CheckEsp
  001b0	8b e5		 mov	 esp, ebp
  001b2	5d		 pop	 ebp
  001b3	c3		 ret	 0
$LN26@mult_polys:
  001b4	01 00 00 00	 DD	 1
  001b8	00 00 00 00	 DD	 $LN25@mult_polys
$LN25@mult_polys:
  001bc	e4 fb ff ff	 DD	 -1052			; fffffbe4H
  001c0	00 04 00 00	 DD	 1024			; 00000400H
  001c4	00 00 00 00	 DD	 $LN24@mult_polys
$LN24@mult_polys:
  001c8	74		 DB	 116			; 00000074H
  001c9	6d		 DB	 109			; 0000006dH
  001ca	70		 DB	 112			; 00000070H
  001cb	31		 DB	 49			; 00000031H
  001cc	00		 DB	 0
_mult_polys ENDP
_TEXT	ENDS
PUBLIC	_add_polys
PUBLIC	_scale_poly
EXTRN	_gexp:BYTE
_BSS	SEGMENT
_ErasureLocs DD	0100H DUP (?)
; Function compile flags: /Odtp /RTCsu /ZI
_BSS	ENDS
;	COMDAT _init_gamma
_TEXT	SEGMENT
_tmp$ = -528						; size = 512
_e$ = -8						; size = 4
_gamma$ = 8						; size = 4
_init_gamma PROC					; COMDAT

; 156  : {

  00000	55		 push	 ebp
  00001	8b ec		 mov	 ebp, esp
  00003	81 ec d4 02 00
	00		 sub	 esp, 724		; 000002d4H
  00009	53		 push	 ebx
  0000a	56		 push	 esi
  0000b	57		 push	 edi
  0000c	8d bd 2c fd ff
	ff		 lea	 edi, DWORD PTR [ebp-724]
  00012	b9 b5 00 00 00	 mov	 ecx, 181		; 000000b5H
  00017	b8 cc cc cc cc	 mov	 eax, -858993460		; ccccccccH
  0001c	f3 ab		 rep stosd

; 157  :   int e, tmp[MAXDEG];
; 158  : 	
; 159  :   zero_poly(gamma);

  0001e	8b 45 08	 mov	 eax, DWORD PTR _gamma$[ebp]
  00021	50		 push	 eax
  00022	e8 00 00 00 00	 call	 _zero_poly
  00027	83 c4 04	 add	 esp, 4

; 160  :   zero_poly(tmp);

  0002a	8d 85 f0 fd ff
	ff		 lea	 eax, DWORD PTR _tmp$[ebp]
  00030	50		 push	 eax
  00031	e8 00 00 00 00	 call	 _zero_poly
  00036	83 c4 04	 add	 esp, 4

; 161  :   gamma[0] = 1;

  00039	8b 45 08	 mov	 eax, DWORD PTR _gamma$[ebp]
  0003c	c7 00 01 00 00
	00		 mov	 DWORD PTR [eax], 1

; 162  : 	
; 163  :   for (e = 0; e < NErasures; e++) {

  00042	c7 45 f8 00 00
	00 00		 mov	 DWORD PTR _e$[ebp], 0
  00049	eb 09		 jmp	 SHORT $LN3@init_gamma
$LN2@init_gamma:
  0004b	8b 45 f8	 mov	 eax, DWORD PTR _e$[ebp]
  0004e	83 c0 01	 add	 eax, 1
  00051	89 45 f8	 mov	 DWORD PTR _e$[ebp], eax
$LN3@init_gamma:
  00054	8b 45 f8	 mov	 eax, DWORD PTR _e$[ebp]
  00057	3b 05 00 00 00
	00		 cmp	 eax, DWORD PTR _NErasures
  0005d	7d 58		 jge	 SHORT $LN4@init_gamma

; 164  :     copy_poly(tmp, gamma);

  0005f	8b 45 08	 mov	 eax, DWORD PTR _gamma$[ebp]
  00062	50		 push	 eax
  00063	8d 8d f0 fd ff
	ff		 lea	 ecx, DWORD PTR _tmp$[ebp]
  00069	51		 push	 ecx
  0006a	e8 00 00 00 00	 call	 _copy_poly
  0006f	83 c4 08	 add	 esp, 8

; 165  :     scale_poly(gexp[ErasureLocs[e]], tmp);

  00072	8d 85 f0 fd ff
	ff		 lea	 eax, DWORD PTR _tmp$[ebp]
  00078	50		 push	 eax
  00079	8b 4d f8	 mov	 ecx, DWORD PTR _e$[ebp]
  0007c	8b 14 8d 00 00
	00 00		 mov	 edx, DWORD PTR _ErasureLocs[ecx*4]
  00083	8b 04 95 00 00
	00 00		 mov	 eax, DWORD PTR _gexp[edx*4]
  0008a	50		 push	 eax
  0008b	e8 00 00 00 00	 call	 _scale_poly
  00090	83 c4 08	 add	 esp, 8

; 166  :     mul_z_poly(tmp);

  00093	8d 85 f0 fd ff
	ff		 lea	 eax, DWORD PTR _tmp$[ebp]
  00099	50		 push	 eax
  0009a	e8 00 00 00 00	 call	 _mul_z_poly
  0009f	83 c4 04	 add	 esp, 4

; 167  :     add_polys(gamma, tmp);

  000a2	8d 85 f0 fd ff
	ff		 lea	 eax, DWORD PTR _tmp$[ebp]
  000a8	50		 push	 eax
  000a9	8b 4d 08	 mov	 ecx, DWORD PTR _gamma$[ebp]
  000ac	51		 push	 ecx
  000ad	e8 00 00 00 00	 call	 _add_polys
  000b2	83 c4 08	 add	 esp, 8

; 168  :   }

  000b5	eb 94		 jmp	 SHORT $LN2@init_gamma
$LN4@init_gamma:

; 169  : }

  000b7	52		 push	 edx
  000b8	8b cd		 mov	 ecx, ebp
  000ba	50		 push	 eax
  000bb	8d 15 00 00 00
	00		 lea	 edx, DWORD PTR $LN8@init_gamma
  000c1	e8 00 00 00 00	 call	 @_RTC_CheckStackVars@8
  000c6	58		 pop	 eax
  000c7	5a		 pop	 edx
  000c8	5f		 pop	 edi
  000c9	5e		 pop	 esi
  000ca	5b		 pop	 ebx
  000cb	81 c4 d4 02 00
	00		 add	 esp, 724		; 000002d4H
  000d1	3b ec		 cmp	 ebp, esp
  000d3	e8 00 00 00 00	 call	 __RTC_CheckEsp
  000d8	8b e5		 mov	 esp, ebp
  000da	5d		 pop	 ebp
  000db	c3		 ret	 0
$LN8@init_gamma:
  000dc	01 00 00 00	 DD	 1
  000e0	00 00 00 00	 DD	 $LN7@init_gamma
$LN7@init_gamma:
  000e4	f0 fd ff ff	 DD	 -528			; fffffdf0H
  000e8	00 02 00 00	 DD	 512			; 00000200H
  000ec	00 00 00 00	 DD	 $LN6@init_gamma
$LN6@init_gamma:
  000f0	74		 DB	 116			; 00000074H
  000f1	6d		 DB	 109			; 0000006dH
  000f2	70		 DB	 112			; 00000070H
  000f3	00		 DB	 0
_init_gamma ENDP
_TEXT	ENDS
PUBLIC	_compute_next_omega
; Function compile flags: /Odtp /RTCsu /ZI
;	COMDAT _compute_next_omega
_TEXT	SEGMENT
_i$ = -8						; size = 4
_d$ = 8							; size = 4
_A$ = 12						; size = 4
_dst$ = 16						; size = 4
_src$ = 20						; size = 4
_compute_next_omega PROC				; COMDAT

; 175  : {

  00000	55		 push	 ebp
  00001	8b ec		 mov	 ebp, esp
  00003	81 ec cc 00 00
	00		 sub	 esp, 204		; 000000ccH
  00009	53		 push	 ebx
  0000a	56		 push	 esi
  0000b	57		 push	 edi
  0000c	8d bd 34 ff ff
	ff		 lea	 edi, DWORD PTR [ebp-204]
  00012	b9 33 00 00 00	 mov	 ecx, 51			; 00000033H
  00017	b8 cc cc cc cc	 mov	 eax, -858993460		; ccccccccH
  0001c	f3 ab		 rep stosd

; 176  :   int i;
; 177  :   for ( i = 0; i < NPAR*2;  i++) {

  0001e	c7 45 f8 00 00
	00 00		 mov	 DWORD PTR _i$[ebp], 0
  00025	eb 09		 jmp	 SHORT $LN3@compute_ne
$LN2@compute_ne:
  00027	8b 45 f8	 mov	 eax, DWORD PTR _i$[ebp]
  0002a	83 c0 01	 add	 eax, 1
  0002d	89 45 f8	 mov	 DWORD PTR _i$[ebp], eax
$LN3@compute_ne:
  00030	a1 00 00 00 00	 mov	 eax, DWORD PTR _NPAR
  00035	d1 e0		 shl	 eax, 1
  00037	39 45 f8	 cmp	 DWORD PTR _i$[ebp], eax
  0003a	7d 2a		 jge	 SHORT $LN4@compute_ne

; 178  :     dst[i] = src[i] ^ gmult(d, A[i]);

  0003c	8b 45 f8	 mov	 eax, DWORD PTR _i$[ebp]
  0003f	8b 4d 0c	 mov	 ecx, DWORD PTR _A$[ebp]
  00042	8b 14 81	 mov	 edx, DWORD PTR [ecx+eax*4]
  00045	52		 push	 edx
  00046	8b 45 08	 mov	 eax, DWORD PTR _d$[ebp]
  00049	50		 push	 eax
  0004a	e8 00 00 00 00	 call	 _gmult
  0004f	83 c4 08	 add	 esp, 8
  00052	8b 4d f8	 mov	 ecx, DWORD PTR _i$[ebp]
  00055	8b 55 14	 mov	 edx, DWORD PTR _src$[ebp]
  00058	33 04 8a	 xor	 eax, DWORD PTR [edx+ecx*4]
  0005b	8b 4d f8	 mov	 ecx, DWORD PTR _i$[ebp]
  0005e	8b 55 10	 mov	 edx, DWORD PTR _dst$[ebp]
  00061	89 04 8a	 mov	 DWORD PTR [edx+ecx*4], eax

; 179  :   }

  00064	eb c1		 jmp	 SHORT $LN2@compute_ne
$LN4@compute_ne:

; 180  : }

  00066	5f		 pop	 edi
  00067	5e		 pop	 esi
  00068	5b		 pop	 ebx
  00069	81 c4 cc 00 00
	00		 add	 esp, 204		; 000000ccH
  0006f	3b ec		 cmp	 ebp, esp
  00071	e8 00 00 00 00	 call	 __RTC_CheckEsp
  00076	8b e5		 mov	 esp, ebp
  00078	5d		 pop	 ebp
  00079	c3		 ret	 0
_compute_next_omega ENDP
; Function compile flags: /Odtp /RTCsu /ZI
_TEXT	ENDS
;	COMDAT _compute_discrepancy
_TEXT	SEGMENT
_sum$ = -20						; size = 4
_i$ = -8						; size = 4
_lambda$ = 8						; size = 4
_S$ = 12						; size = 4
_L$ = 16						; size = 4
_n$ = 20						; size = 4
_compute_discrepancy PROC				; COMDAT

; 186  : {

  00000	55		 push	 ebp
  00001	8b ec		 mov	 ebp, esp
  00003	81 ec d8 00 00
	00		 sub	 esp, 216		; 000000d8H
  00009	53		 push	 ebx
  0000a	56		 push	 esi
  0000b	57		 push	 edi
  0000c	8d bd 28 ff ff
	ff		 lea	 edi, DWORD PTR [ebp-216]
  00012	b9 36 00 00 00	 mov	 ecx, 54			; 00000036H
  00017	b8 cc cc cc cc	 mov	 eax, -858993460		; ccccccccH
  0001c	f3 ab		 rep stosd

; 187  :   int i, sum=0;

  0001e	c7 45 ec 00 00
	00 00		 mov	 DWORD PTR _sum$[ebp], 0

; 188  : 	
; 189  :   for (i = 0; i <= L; i++) 

  00025	c7 45 f8 00 00
	00 00		 mov	 DWORD PTR _i$[ebp], 0
  0002c	eb 09		 jmp	 SHORT $LN3@compute_di
$LN2@compute_di:
  0002e	8b 45 f8	 mov	 eax, DWORD PTR _i$[ebp]
  00031	83 c0 01	 add	 eax, 1
  00034	89 45 f8	 mov	 DWORD PTR _i$[ebp], eax
$LN3@compute_di:
  00037	8b 45 f8	 mov	 eax, DWORD PTR _i$[ebp]
  0003a	3b 45 10	 cmp	 eax, DWORD PTR _L$[ebp]
  0003d	7f 27		 jg	 SHORT $LN1@compute_di

; 190  :     sum ^= gmult(lambda[i], S[n-i]);

  0003f	8b 45 14	 mov	 eax, DWORD PTR _n$[ebp]
  00042	2b 45 f8	 sub	 eax, DWORD PTR _i$[ebp]
  00045	8b 4d 0c	 mov	 ecx, DWORD PTR _S$[ebp]
  00048	8b 14 81	 mov	 edx, DWORD PTR [ecx+eax*4]
  0004b	52		 push	 edx
  0004c	8b 45 f8	 mov	 eax, DWORD PTR _i$[ebp]
  0004f	8b 4d 08	 mov	 ecx, DWORD PTR _lambda$[ebp]
  00052	8b 14 81	 mov	 edx, DWORD PTR [ecx+eax*4]
  00055	52		 push	 edx
  00056	e8 00 00 00 00	 call	 _gmult
  0005b	83 c4 08	 add	 esp, 8
  0005e	33 45 ec	 xor	 eax, DWORD PTR _sum$[ebp]
  00061	89 45 ec	 mov	 DWORD PTR _sum$[ebp], eax
  00064	eb c8		 jmp	 SHORT $LN2@compute_di
$LN1@compute_di:

; 191  :   return (sum);

  00066	8b 45 ec	 mov	 eax, DWORD PTR _sum$[ebp]

; 192  : }

  00069	5f		 pop	 edi
  0006a	5e		 pop	 esi
  0006b	5b		 pop	 ebx
  0006c	81 c4 d8 00 00
	00		 add	 esp, 216		; 000000d8H
  00072	3b ec		 cmp	 ebp, esp
  00074	e8 00 00 00 00	 call	 __RTC_CheckEsp
  00079	8b e5		 mov	 esp, ebp
  0007b	5d		 pop	 ebp
  0007c	c3		 ret	 0
_compute_discrepancy ENDP
; Function compile flags: /Odtp /RTCsu /ZI
_TEXT	ENDS
;	COMDAT _add_polys
_TEXT	SEGMENT
_i$ = -8						; size = 4
_dst$ = 8						; size = 4
_src$ = 12						; size = 4
_add_polys PROC						; COMDAT

; 197  : {

  00000	55		 push	 ebp
  00001	8b ec		 mov	 ebp, esp
  00003	81 ec cc 00 00
	00		 sub	 esp, 204		; 000000ccH
  00009	53		 push	 ebx
  0000a	56		 push	 esi
  0000b	57		 push	 edi
  0000c	8d bd 34 ff ff
	ff		 lea	 edi, DWORD PTR [ebp-204]
  00012	b9 33 00 00 00	 mov	 ecx, 51			; 00000033H
  00017	b8 cc cc cc cc	 mov	 eax, -858993460		; ccccccccH
  0001c	f3 ab		 rep stosd

; 198  :   int i;
; 199  :   for (i = 0; i < NPAR*2; i++) dst[i] ^= src[i];

  0001e	c7 45 f8 00 00
	00 00		 mov	 DWORD PTR _i$[ebp], 0
  00025	eb 09		 jmp	 SHORT $LN3@add_polys
$LN2@add_polys:
  00027	8b 45 f8	 mov	 eax, DWORD PTR _i$[ebp]
  0002a	83 c0 01	 add	 eax, 1
  0002d	89 45 f8	 mov	 DWORD PTR _i$[ebp], eax
$LN3@add_polys:
  00030	a1 00 00 00 00	 mov	 eax, DWORD PTR _NPAR
  00035	d1 e0		 shl	 eax, 1
  00037	39 45 f8	 cmp	 DWORD PTR _i$[ebp], eax
  0003a	7d 1d		 jge	 SHORT $LN4@add_polys
  0003c	8b 45 f8	 mov	 eax, DWORD PTR _i$[ebp]
  0003f	8b 4d 08	 mov	 ecx, DWORD PTR _dst$[ebp]
  00042	8b 55 f8	 mov	 edx, DWORD PTR _i$[ebp]
  00045	8b 75 0c	 mov	 esi, DWORD PTR _src$[ebp]
  00048	8b 04 81	 mov	 eax, DWORD PTR [ecx+eax*4]
  0004b	33 04 96	 xor	 eax, DWORD PTR [esi+edx*4]
  0004e	8b 4d f8	 mov	 ecx, DWORD PTR _i$[ebp]
  00051	8b 55 08	 mov	 edx, DWORD PTR _dst$[ebp]
  00054	89 04 8a	 mov	 DWORD PTR [edx+ecx*4], eax
  00057	eb ce		 jmp	 SHORT $LN2@add_polys
$LN4@add_polys:

; 200  : }

  00059	5f		 pop	 edi
  0005a	5e		 pop	 esi
  0005b	5b		 pop	 ebx
  0005c	8b e5		 mov	 esp, ebp
  0005e	5d		 pop	 ebp
  0005f	c3		 ret	 0
_add_polys ENDP
; Function compile flags: /Odtp /RTCsu /ZI
_TEXT	ENDS
;	COMDAT _copy_poly
_TEXT	SEGMENT
_i$ = -8						; size = 4
_dst$ = 8						; size = 4
_src$ = 12						; size = 4
_copy_poly PROC						; COMDAT

; 203  : {

  00000	55		 push	 ebp
  00001	8b ec		 mov	 ebp, esp
  00003	81 ec cc 00 00
	00		 sub	 esp, 204		; 000000ccH
  00009	53		 push	 ebx
  0000a	56		 push	 esi
  0000b	57		 push	 edi
  0000c	8d bd 34 ff ff
	ff		 lea	 edi, DWORD PTR [ebp-204]
  00012	b9 33 00 00 00	 mov	 ecx, 51			; 00000033H
  00017	b8 cc cc cc cc	 mov	 eax, -858993460		; ccccccccH
  0001c	f3 ab		 rep stosd

; 204  :   int i;
; 205  :   for (i = 0; i < NPAR*2; i++) dst[i] = src[i];

  0001e	c7 45 f8 00 00
	00 00		 mov	 DWORD PTR _i$[ebp], 0
  00025	eb 09		 jmp	 SHORT $LN3@copy_poly
$LN2@copy_poly:
  00027	8b 45 f8	 mov	 eax, DWORD PTR _i$[ebp]
  0002a	83 c0 01	 add	 eax, 1
  0002d	89 45 f8	 mov	 DWORD PTR _i$[ebp], eax
$LN3@copy_poly:
  00030	a1 00 00 00 00	 mov	 eax, DWORD PTR _NPAR
  00035	d1 e0		 shl	 eax, 1
  00037	39 45 f8	 cmp	 DWORD PTR _i$[ebp], eax
  0003a	7d 14		 jge	 SHORT $LN4@copy_poly
  0003c	8b 45 f8	 mov	 eax, DWORD PTR _i$[ebp]
  0003f	8b 4d 08	 mov	 ecx, DWORD PTR _dst$[ebp]
  00042	8b 55 f8	 mov	 edx, DWORD PTR _i$[ebp]
  00045	8b 75 0c	 mov	 esi, DWORD PTR _src$[ebp]
  00048	8b 14 96	 mov	 edx, DWORD PTR [esi+edx*4]
  0004b	89 14 81	 mov	 DWORD PTR [ecx+eax*4], edx
  0004e	eb d7		 jmp	 SHORT $LN2@copy_poly
$LN4@copy_poly:

; 206  : }

  00050	5f		 pop	 edi
  00051	5e		 pop	 esi
  00052	5b		 pop	 ebx
  00053	8b e5		 mov	 esp, ebp
  00055	5d		 pop	 ebp
  00056	c3		 ret	 0
_copy_poly ENDP
; Function compile flags: /Odtp /RTCsu /ZI
_TEXT	ENDS
;	COMDAT _scale_poly
_TEXT	SEGMENT
_i$ = -8						; size = 4
_k$ = 8							; size = 4
_poly$ = 12						; size = 4
_scale_poly PROC					; COMDAT

; 209  : {	

  00000	55		 push	 ebp
  00001	8b ec		 mov	 ebp, esp
  00003	81 ec cc 00 00
	00		 sub	 esp, 204		; 000000ccH
  00009	53		 push	 ebx
  0000a	56		 push	 esi
  0000b	57		 push	 edi
  0000c	8d bd 34 ff ff
	ff		 lea	 edi, DWORD PTR [ebp-204]
  00012	b9 33 00 00 00	 mov	 ecx, 51			; 00000033H
  00017	b8 cc cc cc cc	 mov	 eax, -858993460		; ccccccccH
  0001c	f3 ab		 rep stosd

; 210  :   int i;
; 211  :   for (i = 0; i < NPAR*2; i++) poly[i] = gmult(k, poly[i]);

  0001e	c7 45 f8 00 00
	00 00		 mov	 DWORD PTR _i$[ebp], 0
  00025	eb 09		 jmp	 SHORT $LN3@scale_poly
$LN2@scale_poly:
  00027	8b 45 f8	 mov	 eax, DWORD PTR _i$[ebp]
  0002a	83 c0 01	 add	 eax, 1
  0002d	89 45 f8	 mov	 DWORD PTR _i$[ebp], eax
$LN3@scale_poly:
  00030	a1 00 00 00 00	 mov	 eax, DWORD PTR _NPAR
  00035	d1 e0		 shl	 eax, 1
  00037	39 45 f8	 cmp	 DWORD PTR _i$[ebp], eax
  0003a	7d 21		 jge	 SHORT $LN4@scale_poly
  0003c	8b 45 f8	 mov	 eax, DWORD PTR _i$[ebp]
  0003f	8b 4d 0c	 mov	 ecx, DWORD PTR _poly$[ebp]
  00042	8b 14 81	 mov	 edx, DWORD PTR [ecx+eax*4]
  00045	52		 push	 edx
  00046	8b 45 08	 mov	 eax, DWORD PTR _k$[ebp]
  00049	50		 push	 eax
  0004a	e8 00 00 00 00	 call	 _gmult
  0004f	83 c4 08	 add	 esp, 8
  00052	8b 4d f8	 mov	 ecx, DWORD PTR _i$[ebp]
  00055	8b 55 0c	 mov	 edx, DWORD PTR _poly$[ebp]
  00058	89 04 8a	 mov	 DWORD PTR [edx+ecx*4], eax
  0005b	eb ca		 jmp	 SHORT $LN2@scale_poly
$LN4@scale_poly:

; 212  : }

  0005d	5f		 pop	 edi
  0005e	5e		 pop	 esi
  0005f	5b		 pop	 ebx
  00060	81 c4 cc 00 00
	00		 add	 esp, 204		; 000000ccH
  00066	3b ec		 cmp	 ebp, esp
  00068	e8 00 00 00 00	 call	 __RTC_CheckEsp
  0006d	8b e5		 mov	 esp, ebp
  0006f	5d		 pop	 ebp
  00070	c3		 ret	 0
_scale_poly ENDP
; Function compile flags: /Odtp /RTCsu /ZI
_TEXT	ENDS
;	COMDAT _zero_poly
_TEXT	SEGMENT
_i$ = -8						; size = 4
_poly$ = 8						; size = 4
_zero_poly PROC						; COMDAT

; 216  : {

  00000	55		 push	 ebp
  00001	8b ec		 mov	 ebp, esp
  00003	81 ec cc 00 00
	00		 sub	 esp, 204		; 000000ccH
  00009	53		 push	 ebx
  0000a	56		 push	 esi
  0000b	57		 push	 edi
  0000c	8d bd 34 ff ff
	ff		 lea	 edi, DWORD PTR [ebp-204]
  00012	b9 33 00 00 00	 mov	 ecx, 51			; 00000033H
  00017	b8 cc cc cc cc	 mov	 eax, -858993460		; ccccccccH
  0001c	f3 ab		 rep stosd

; 217  :   int i;
; 218  :   for (i = 0; i < NPAR*2; i++) poly[i] = 0;

  0001e	c7 45 f8 00 00
	00 00		 mov	 DWORD PTR _i$[ebp], 0
  00025	eb 09		 jmp	 SHORT $LN3@zero_poly
$LN2@zero_poly:
  00027	8b 45 f8	 mov	 eax, DWORD PTR _i$[ebp]
  0002a	83 c0 01	 add	 eax, 1
  0002d	89 45 f8	 mov	 DWORD PTR _i$[ebp], eax
$LN3@zero_poly:
  00030	a1 00 00 00 00	 mov	 eax, DWORD PTR _NPAR
  00035	d1 e0		 shl	 eax, 1
  00037	39 45 f8	 cmp	 DWORD PTR _i$[ebp], eax
  0003a	7d 0f		 jge	 SHORT $LN4@zero_poly
  0003c	8b 45 f8	 mov	 eax, DWORD PTR _i$[ebp]
  0003f	8b 4d 08	 mov	 ecx, DWORD PTR _poly$[ebp]
  00042	c7 04 81 00 00
	00 00		 mov	 DWORD PTR [ecx+eax*4], 0
  00049	eb dc		 jmp	 SHORT $LN2@zero_poly
$LN4@zero_poly:

; 219  : }

  0004b	5f		 pop	 edi
  0004c	5e		 pop	 esi
  0004d	5b		 pop	 ebx
  0004e	8b e5		 mov	 esp, ebp
  00050	5d		 pop	 ebp
  00051	c3		 ret	 0
_zero_poly ENDP
; Function compile flags: /Odtp /RTCsu /ZI
_TEXT	ENDS
;	COMDAT _mul_z_poly
_TEXT	SEGMENT
_i$ = -8						; size = 4
_src$ = 8						; size = 4
_mul_z_poly PROC					; COMDAT

; 224  : {

  00000	55		 push	 ebp
  00001	8b ec		 mov	 ebp, esp
  00003	81 ec cc 00 00
	00		 sub	 esp, 204		; 000000ccH
  00009	53		 push	 ebx
  0000a	56		 push	 esi
  0000b	57		 push	 edi
  0000c	8d bd 34 ff ff
	ff		 lea	 edi, DWORD PTR [ebp-204]
  00012	b9 33 00 00 00	 mov	 ecx, 51			; 00000033H
  00017	b8 cc cc cc cc	 mov	 eax, -858993460		; ccccccccH
  0001c	f3 ab		 rep stosd

; 225  :   int i;
; 226  :   for (i = NPAR*2-1; i > 0; i--) src[i] = src[i-1];

  0001e	a1 00 00 00 00	 mov	 eax, DWORD PTR _NPAR
  00023	8d 4c 00 ff	 lea	 ecx, DWORD PTR [eax+eax-1]
  00027	89 4d f8	 mov	 DWORD PTR _i$[ebp], ecx
  0002a	eb 09		 jmp	 SHORT $LN3@mul_z_poly
$LN2@mul_z_poly:
  0002c	8b 45 f8	 mov	 eax, DWORD PTR _i$[ebp]
  0002f	83 e8 01	 sub	 eax, 1
  00032	89 45 f8	 mov	 DWORD PTR _i$[ebp], eax
$LN3@mul_z_poly:
  00035	83 7d f8 00	 cmp	 DWORD PTR _i$[ebp], 0
  00039	7e 15		 jle	 SHORT $LN1@mul_z_poly
  0003b	8b 45 f8	 mov	 eax, DWORD PTR _i$[ebp]
  0003e	8b 4d 08	 mov	 ecx, DWORD PTR _src$[ebp]
  00041	8b 55 f8	 mov	 edx, DWORD PTR _i$[ebp]
  00044	8b 75 08	 mov	 esi, DWORD PTR _src$[ebp]
  00047	8b 54 96 fc	 mov	 edx, DWORD PTR [esi+edx*4-4]
  0004b	89 14 81	 mov	 DWORD PTR [ecx+eax*4], edx
  0004e	eb dc		 jmp	 SHORT $LN2@mul_z_poly
$LN1@mul_z_poly:

; 227  :   src[0] = 0;

  00050	8b 45 08	 mov	 eax, DWORD PTR _src$[ebp]
  00053	c7 00 00 00 00
	00		 mov	 DWORD PTR [eax], 0

; 228  : }

  00059	5f		 pop	 edi
  0005a	5e		 pop	 esi
  0005b	5b		 pop	 ebx
  0005c	8b e5		 mov	 esp, ebp
  0005e	5d		 pop	 ebp
  0005f	c3		 ret	 0
_mul_z_poly ENDP
_TEXT	ENDS
PUBLIC	??_C@_0CE@DCFOKBDG@Root?5found?5at?5r?5?$DN?5?$CFd?0?5?$CI255?9r?$CJ?5?$DN?5@ ; `string'
PUBLIC	_Find_Roots
EXTRN	_fprintf:PROC
EXTRN	___iob_func:PROC
EXTRN	_DEBUG:DWORD
_BSS	SEGMENT
_ErrorLocs DD	0100H DUP (?)
_BSS	ENDS
;	COMDAT ??_C@_0CE@DCFOKBDG@Root?5found?5at?5r?5?$DN?5?$CFd?0?5?$CI255?9r?$CJ?5?$DN?5@
CONST	SEGMENT
??_C@_0CE@DCFOKBDG@Root?5found?5at?5r?5?$DN?5?$CFd?0?5?$CI255?9r?$CJ?5?$DN?5@ DB 'R'
	DB	'oot found at r = %d, (255-r) = %d', 0aH, 00H ; `string'
; Function compile flags: /Odtp /RTCsu /ZI
CONST	ENDS
;	COMDAT _Find_Roots
_TEXT	SEGMENT
_k$ = -32						; size = 4
_r$ = -20						; size = 4
_sum$ = -8						; size = 4
_Find_Roots PROC					; COMDAT

; 240  : {

  00000	55		 push	 ebp
  00001	8b ec		 mov	 ebp, esp
  00003	81 ec e4 00 00
	00		 sub	 esp, 228		; 000000e4H
  00009	53		 push	 ebx
  0000a	56		 push	 esi
  0000b	57		 push	 edi
  0000c	8d bd 1c ff ff
	ff		 lea	 edi, DWORD PTR [ebp-228]
  00012	b9 39 00 00 00	 mov	 ecx, 57			; 00000039H
  00017	b8 cc cc cc cc	 mov	 eax, -858993460		; ccccccccH
  0001c	f3 ab		 rep stosd

; 241  :   int sum, r, k;	
; 242  :   NErrors = 0;

  0001e	c7 05 00 00 00
	00 00 00 00 00	 mov	 DWORD PTR _NErrors, 0

; 243  :   
; 244  :   for (r = 1; r < 256; r++) {

  00028	c7 45 ec 01 00
	00 00		 mov	 DWORD PTR _r$[ebp], 1
  0002f	eb 09		 jmp	 SHORT $LN8@Find_Roots
$LN7@Find_Roots:
  00031	8b 45 ec	 mov	 eax, DWORD PTR _r$[ebp]
  00034	83 c0 01	 add	 eax, 1
  00037	89 45 ec	 mov	 DWORD PTR _r$[ebp], eax
$LN8@Find_Roots:
  0003a	81 7d ec 00 01
	00 00		 cmp	 DWORD PTR _r$[ebp], 256	; 00000100H
  00041	0f 8d b1 00 00
	00		 jge	 $LN9@Find_Roots

; 245  :     sum = 0;

  00047	c7 45 f8 00 00
	00 00		 mov	 DWORD PTR _sum$[ebp], 0

; 246  :     /* evaluate lambda at r */
; 247  :     for (k = 0; k < NPAR+1; k++) {

  0004e	c7 45 e0 00 00
	00 00		 mov	 DWORD PTR _k$[ebp], 0
  00055	eb 09		 jmp	 SHORT $LN5@Find_Roots
$LN4@Find_Roots:
  00057	8b 45 e0	 mov	 eax, DWORD PTR _k$[ebp]
  0005a	83 c0 01	 add	 eax, 1
  0005d	89 45 e0	 mov	 DWORD PTR _k$[ebp], eax
$LN5@Find_Roots:
  00060	a1 00 00 00 00	 mov	 eax, DWORD PTR _NPAR
  00065	83 c0 01	 add	 eax, 1
  00068	39 45 e0	 cmp	 DWORD PTR _k$[ebp], eax
  0006b	7d 32		 jge	 SHORT $LN3@Find_Roots

; 248  :       sum ^= gmult(gexp[(k*r)%255], Lambda[k]);

  0006d	8b 45 e0	 mov	 eax, DWORD PTR _k$[ebp]
  00070	8b 0c 85 00 00
	00 00		 mov	 ecx, DWORD PTR _Lambda[eax*4]
  00077	51		 push	 ecx
  00078	8b 45 e0	 mov	 eax, DWORD PTR _k$[ebp]
  0007b	0f af 45 ec	 imul	 eax, DWORD PTR _r$[ebp]
  0007f	99		 cdq
  00080	b9 ff 00 00 00	 mov	 ecx, 255		; 000000ffH
  00085	f7 f9		 idiv	 ecx
  00087	8b 14 95 00 00
	00 00		 mov	 edx, DWORD PTR _gexp[edx*4]
  0008e	52		 push	 edx
  0008f	e8 00 00 00 00	 call	 _gmult
  00094	83 c4 08	 add	 esp, 8
  00097	33 45 f8	 xor	 eax, DWORD PTR _sum$[ebp]
  0009a	89 45 f8	 mov	 DWORD PTR _sum$[ebp], eax

; 249  :     }

  0009d	eb b8		 jmp	 SHORT $LN4@Find_Roots
$LN3@Find_Roots:

; 250  :     if (sum == 0) 

  0009f	83 7d f8 00	 cmp	 DWORD PTR _sum$[ebp], 0
  000a3	75 4e		 jne	 SHORT $LN2@Find_Roots

; 251  :       { 
; 252  : 	ErrorLocs[NErrors] = (255-r); NErrors++; 

  000a5	b8 ff 00 00 00	 mov	 eax, 255		; 000000ffH
  000aa	2b 45 ec	 sub	 eax, DWORD PTR _r$[ebp]
  000ad	8b 0d 00 00 00
	00		 mov	 ecx, DWORD PTR _NErrors
  000b3	89 04 8d 00 00
	00 00		 mov	 DWORD PTR _ErrorLocs[ecx*4], eax
  000ba	a1 00 00 00 00	 mov	 eax, DWORD PTR _NErrors
  000bf	83 c0 01	 add	 eax, 1
  000c2	a3 00 00 00 00	 mov	 DWORD PTR _NErrors, eax

; 253  : 	if (DEBUG) fprintf(stderr, "Root found at r = %d, (255-r) = %d\n", r, (255-r));

  000c7	83 3d 00 00 00
	00 00		 cmp	 DWORD PTR _DEBUG, 0
  000ce	74 23		 je	 SHORT $LN2@Find_Roots
  000d0	b8 ff 00 00 00	 mov	 eax, 255		; 000000ffH
  000d5	2b 45 ec	 sub	 eax, DWORD PTR _r$[ebp]
  000d8	50		 push	 eax
  000d9	8b 4d ec	 mov	 ecx, DWORD PTR _r$[ebp]
  000dc	51		 push	 ecx
  000dd	68 00 00 00 00	 push	 OFFSET ??_C@_0CE@DCFOKBDG@Root?5found?5at?5r?5?$DN?5?$CFd?0?5?$CI255?9r?$CJ?5?$DN?5@
  000e2	e8 00 00 00 00	 call	 ___iob_func
  000e7	83 c0 40	 add	 eax, 64			; 00000040H
  000ea	50		 push	 eax
  000eb	e8 00 00 00 00	 call	 _fprintf
  000f0	83 c4 10	 add	 esp, 16			; 00000010H
$LN2@Find_Roots:

; 254  :       }
; 255  :   }

  000f3	e9 39 ff ff ff	 jmp	 $LN7@Find_Roots
$LN9@Find_Roots:

; 256  : }

  000f8	5f		 pop	 edi
  000f9	5e		 pop	 esi
  000fa	5b		 pop	 ebx
  000fb	81 c4 e4 00 00
	00		 add	 esp, 228		; 000000e4H
  00101	3b ec		 cmp	 ebp, esp
  00103	e8 00 00 00 00	 call	 __RTC_CheckEsp
  00108	8b e5		 mov	 esp, ebp
  0010a	5d		 pop	 ebp
  0010b	c3		 ret	 0
_Find_Roots ENDP
_TEXT	ENDS
PUBLIC	??_C@_0BI@LDJGECM@Uncorrectable?5codeword?6?$AA@ ; `string'
PUBLIC	??_C@_0BP@MOHGDCFA@Error?5magnitude?5?$CF?$CDx?5at?5loc?5?$CFd?6?$AA@ ; `string'
PUBLIC	??_C@_0CO@PMEACNNN@Error?5loc?5i?$DN?$CFd?5outside?5of?5codewo@ ; `string'
PUBLIC	??_C@_0BE@PGDAFPFA@RS?5found?5?$CFd?5errors?6?$AA@ ; `string'
PUBLIC	_correct_errors_erasures
EXTRN	_MaxErrors:DWORD
;	COMDAT ??_C@_0BI@LDJGECM@Uncorrectable?5codeword?6?$AA@
CONST	SEGMENT
??_C@_0BI@LDJGECM@Uncorrectable?5codeword?6?$AA@ DB 'Uncorrectable codewo'
	DB	'rd', 0aH, 00H				; `string'
CONST	ENDS
;	COMDAT ??_C@_0BP@MOHGDCFA@Error?5magnitude?5?$CF?$CDx?5at?5loc?5?$CFd?6?$AA@
CONST	SEGMENT
??_C@_0BP@MOHGDCFA@Error?5magnitude?5?$CF?$CDx?5at?5loc?5?$CFd?6?$AA@ DB 'E'
	DB	'rror magnitude %#x at loc %d', 0aH, 00H	; `string'
CONST	ENDS
;	COMDAT ??_C@_0CO@PMEACNNN@Error?5loc?5i?$DN?$CFd?5outside?5of?5codewo@
CONST	SEGMENT
??_C@_0CO@PMEACNNN@Error?5loc?5i?$DN?$CFd?5outside?5of?5codewo@ DB 'Error'
	DB	' loc i=%d outside of codeword length %d', 0aH, 00H ; `string'
CONST	ENDS
;	COMDAT ??_C@_0BE@PGDAFPFA@RS?5found?5?$CFd?5errors?6?$AA@
CONST	SEGMENT
??_C@_0BE@PGDAFPFA@RS?5found?5?$CFd?5errors?6?$AA@ DB 'RS found %d errors'
	DB	0aH, 00H					; `string'
; Function compile flags: /Odtp /RTCsu /ZI
CONST	ENDS
;	COMDAT _correct_errors_erasures
_TEXT	SEGMENT
_denom$2525 = -68					; size = 4
_num$2524 = -56						; size = 4
_err$ = -44						; size = 4
_j$ = -32						; size = 4
_i$ = -20						; size = 4
_r$ = -8						; size = 4
_codeword$ = 8						; size = 4
_csize$ = 12						; size = 4
_nerasures$ = 16					; size = 4
_erasures$ = 20						; size = 4
_correct_errors_erasures PROC				; COMDAT

; 276  : {

  00000	55		 push	 ebp
  00001	8b ec		 mov	 ebp, esp
  00003	81 ec 08 01 00
	00		 sub	 esp, 264		; 00000108H
  00009	53		 push	 ebx
  0000a	56		 push	 esi
  0000b	57		 push	 edi
  0000c	8d bd f8 fe ff
	ff		 lea	 edi, DWORD PTR [ebp-264]
  00012	b9 42 00 00 00	 mov	 ecx, 66			; 00000042H
  00017	b8 cc cc cc cc	 mov	 eax, -858993460		; ccccccccH
  0001c	f3 ab		 rep stosd

; 277  :   int r, i, j, err;
; 278  : 
; 279  :   /* If you want to take advantage of erasure correction, be sure to
; 280  :      set NErasures and ErasureLocs[] with the locations of erasures. 
; 281  :      */
; 282  :   NErasures = nerasures;

  0001e	8b 45 10	 mov	 eax, DWORD PTR _nerasures$[ebp]
  00021	a3 00 00 00 00	 mov	 DWORD PTR _NErasures, eax

; 283  :   for (i = 0; i < NErasures; i++) ErasureLocs[i] = erasures[i];

  00026	c7 45 ec 00 00
	00 00		 mov	 DWORD PTR _i$[ebp], 0
  0002d	eb 09		 jmp	 SHORT $LN22@correct_er
$LN21@correct_er:
  0002f	8b 45 ec	 mov	 eax, DWORD PTR _i$[ebp]
  00032	83 c0 01	 add	 eax, 1
  00035	89 45 ec	 mov	 DWORD PTR _i$[ebp], eax
$LN22@correct_er:
  00038	8b 45 ec	 mov	 eax, DWORD PTR _i$[ebp]
  0003b	3b 05 00 00 00
	00		 cmp	 eax, DWORD PTR _NErasures
  00041	7d 15		 jge	 SHORT $LN20@correct_er
  00043	8b 45 ec	 mov	 eax, DWORD PTR _i$[ebp]
  00046	8b 4d ec	 mov	 ecx, DWORD PTR _i$[ebp]
  00049	8b 55 14	 mov	 edx, DWORD PTR _erasures$[ebp]
  0004c	8b 0c 8a	 mov	 ecx, DWORD PTR [edx+ecx*4]
  0004f	89 0c 85 00 00
	00 00		 mov	 DWORD PTR _ErasureLocs[eax*4], ecx
  00056	eb d7		 jmp	 SHORT $LN21@correct_er
$LN20@correct_er:

; 284  : 
; 285  :   Modified_Berlekamp_Massey();

  00058	e8 00 00 00 00	 call	 _Modified_Berlekamp_Massey

; 286  :   Find_Roots();

  0005d	e8 00 00 00 00	 call	 _Find_Roots

; 287  : 
; 288  : 
; 289  :   if (DEBUG) fprintf(stderr, "RS found %d errors\n", NErrors);

  00062	83 3d 00 00 00
	00 00		 cmp	 DWORD PTR _DEBUG, 0
  00069	74 1c		 je	 SHORT $LN19@correct_er
  0006b	a1 00 00 00 00	 mov	 eax, DWORD PTR _NErrors
  00070	50		 push	 eax
  00071	68 00 00 00 00	 push	 OFFSET ??_C@_0BE@PGDAFPFA@RS?5found?5?$CFd?5errors?6?$AA@
  00076	e8 00 00 00 00	 call	 ___iob_func
  0007b	83 c0 40	 add	 eax, 64			; 00000040H
  0007e	50		 push	 eax
  0007f	e8 00 00 00 00	 call	 _fprintf
  00084	83 c4 0c	 add	 esp, 12			; 0000000cH
$LN19@correct_er:

; 290  : 
; 291  : 
; 292  :   if ((NErrors <= MaxErrors) && NErrors > 0) { 

  00087	a1 00 00 00 00	 mov	 eax, DWORD PTR _NErrors
  0008c	3b 05 00 00 00
	00		 cmp	 eax, DWORD PTR _MaxErrors
  00092	0f 8f c6 01 00
	00		 jg	 $LN18@correct_er
  00098	83 3d 00 00 00
	00 00		 cmp	 DWORD PTR _NErrors, 0
  0009f	0f 8e b9 01 00
	00		 jle	 $LN18@correct_er

; 293  : 
; 294  :     /* first check for illegal error locs */
; 295  :     for (r = 0; r < NErrors; r++) {

  000a5	c7 45 f8 00 00
	00 00		 mov	 DWORD PTR _r$[ebp], 0
  000ac	eb 09		 jmp	 SHORT $LN17@correct_er
$LN16@correct_er:
  000ae	8b 45 f8	 mov	 eax, DWORD PTR _r$[ebp]
  000b1	83 c0 01	 add	 eax, 1
  000b4	89 45 f8	 mov	 DWORD PTR _r$[ebp], eax
$LN17@correct_er:
  000b7	8b 45 f8	 mov	 eax, DWORD PTR _r$[ebp]
  000ba	3b 05 00 00 00
	00		 cmp	 eax, DWORD PTR _NErrors
  000c0	7d 3f		 jge	 SHORT $LN15@correct_er

; 296  :       if (ErrorLocs[r] >= csize) {

  000c2	8b 45 f8	 mov	 eax, DWORD PTR _r$[ebp]
  000c5	8b 0c 85 00 00
	00 00		 mov	 ecx, DWORD PTR _ErrorLocs[eax*4]
  000cc	3b 4d 0c	 cmp	 ecx, DWORD PTR _csize$[ebp]
  000cf	7c 2e		 jl	 SHORT $LN14@correct_er

; 297  : 	if (DEBUG) fprintf(stderr, "Error loc i=%d outside of codeword length %d\n", i, csize);

  000d1	83 3d 00 00 00
	00 00		 cmp	 DWORD PTR _DEBUG, 0
  000d8	74 1e		 je	 SHORT $LN13@correct_er
  000da	8b 45 0c	 mov	 eax, DWORD PTR _csize$[ebp]
  000dd	50		 push	 eax
  000de	8b 4d ec	 mov	 ecx, DWORD PTR _i$[ebp]
  000e1	51		 push	 ecx
  000e2	68 00 00 00 00	 push	 OFFSET ??_C@_0CO@PMEACNNN@Error?5loc?5i?$DN?$CFd?5outside?5of?5codewo@
  000e7	e8 00 00 00 00	 call	 ___iob_func
  000ec	83 c0 40	 add	 eax, 64			; 00000040H
  000ef	50		 push	 eax
  000f0	e8 00 00 00 00	 call	 _fprintf
  000f5	83 c4 10	 add	 esp, 16			; 00000010H
$LN13@correct_er:

; 298  : 	return(0);

  000f8	33 c0		 xor	 eax, eax
  000fa	e9 89 01 00 00	 jmp	 $LN23@correct_er
$LN14@correct_er:

; 299  :       }
; 300  :     }

  000ff	eb ad		 jmp	 SHORT $LN16@correct_er
$LN15@correct_er:

; 301  : 
; 302  :     for (r = 0; r < NErrors; r++) {

  00101	c7 45 f8 00 00
	00 00		 mov	 DWORD PTR _r$[ebp], 0
  00108	eb 09		 jmp	 SHORT $LN12@correct_er
$LN11@correct_er:
  0010a	8b 45 f8	 mov	 eax, DWORD PTR _r$[ebp]
  0010d	83 c0 01	 add	 eax, 1
  00110	89 45 f8	 mov	 DWORD PTR _r$[ebp], eax
$LN12@correct_er:
  00113	8b 45 f8	 mov	 eax, DWORD PTR _r$[ebp]
  00116	3b 05 00 00 00
	00		 cmp	 eax, DWORD PTR _NErrors
  0011c	0f 8d 33 01 00
	00		 jge	 $LN10@correct_er

; 303  :       int num, denom;
; 304  :       i = ErrorLocs[r];

  00122	8b 45 f8	 mov	 eax, DWORD PTR _r$[ebp]
  00125	8b 0c 85 00 00
	00 00		 mov	 ecx, DWORD PTR _ErrorLocs[eax*4]
  0012c	89 4d ec	 mov	 DWORD PTR _i$[ebp], ecx

; 305  :       /* evaluate Omega at alpha^(-i) */
; 306  : 
; 307  :       num = 0;

  0012f	c7 45 c8 00 00
	00 00		 mov	 DWORD PTR _num$2524[ebp], 0

; 308  :       for (j = 0; j < NPAR*2; j++) 

  00136	c7 45 e0 00 00
	00 00		 mov	 DWORD PTR _j$[ebp], 0
  0013d	eb 09		 jmp	 SHORT $LN9@correct_er
$LN8@correct_er:
  0013f	8b 45 e0	 mov	 eax, DWORD PTR _j$[ebp]
  00142	83 c0 01	 add	 eax, 1
  00145	89 45 e0	 mov	 DWORD PTR _j$[ebp], eax
$LN9@correct_er:
  00148	a1 00 00 00 00	 mov	 eax, DWORD PTR _NPAR
  0014d	d1 e0		 shl	 eax, 1
  0014f	39 45 e0	 cmp	 DWORD PTR _j$[ebp], eax
  00152	7d 37		 jge	 SHORT $LN7@correct_er

; 309  : 	num ^= gmult(Omega[j], gexp[((255-i)*j)%255]);

  00154	b8 ff 00 00 00	 mov	 eax, 255		; 000000ffH
  00159	2b 45 ec	 sub	 eax, DWORD PTR _i$[ebp]
  0015c	0f af 45 e0	 imul	 eax, DWORD PTR _j$[ebp]
  00160	99		 cdq
  00161	b9 ff 00 00 00	 mov	 ecx, 255		; 000000ffH
  00166	f7 f9		 idiv	 ecx
  00168	8b 14 95 00 00
	00 00		 mov	 edx, DWORD PTR _gexp[edx*4]
  0016f	52		 push	 edx
  00170	8b 45 e0	 mov	 eax, DWORD PTR _j$[ebp]
  00173	8b 0c 85 00 00
	00 00		 mov	 ecx, DWORD PTR _Omega[eax*4]
  0017a	51		 push	 ecx
  0017b	e8 00 00 00 00	 call	 _gmult
  00180	83 c4 08	 add	 esp, 8
  00183	33 45 c8	 xor	 eax, DWORD PTR _num$2524[ebp]
  00186	89 45 c8	 mov	 DWORD PTR _num$2524[ebp], eax
  00189	eb b4		 jmp	 SHORT $LN8@correct_er
$LN7@correct_er:

; 310  :       
; 311  :       /* evaluate Lambda' (derivative) at alpha^(-i) ; all odd powers disappear */
; 312  :       denom = 0;

  0018b	c7 45 bc 00 00
	00 00		 mov	 DWORD PTR _denom$2525[ebp], 0

; 313  :       for (j = 1; j < NPAR*2; j += 2) {

  00192	c7 45 e0 01 00
	00 00		 mov	 DWORD PTR _j$[ebp], 1
  00199	eb 09		 jmp	 SHORT $LN6@correct_er
$LN5@correct_er:
  0019b	8b 45 e0	 mov	 eax, DWORD PTR _j$[ebp]
  0019e	83 c0 02	 add	 eax, 2
  001a1	89 45 e0	 mov	 DWORD PTR _j$[ebp], eax
$LN6@correct_er:
  001a4	a1 00 00 00 00	 mov	 eax, DWORD PTR _NPAR
  001a9	d1 e0		 shl	 eax, 1
  001ab	39 45 e0	 cmp	 DWORD PTR _j$[ebp], eax
  001ae	7d 3c		 jge	 SHORT $LN4@correct_er

; 314  : 	denom ^= gmult(Lambda[j], gexp[((255-i)*(j-1)) % 255]);

  001b0	b8 ff 00 00 00	 mov	 eax, 255		; 000000ffH
  001b5	2b 45 ec	 sub	 eax, DWORD PTR _i$[ebp]
  001b8	8b 4d e0	 mov	 ecx, DWORD PTR _j$[ebp]
  001bb	83 e9 01	 sub	 ecx, 1
  001be	0f af c1	 imul	 eax, ecx
  001c1	99		 cdq
  001c2	b9 ff 00 00 00	 mov	 ecx, 255		; 000000ffH
  001c7	f7 f9		 idiv	 ecx
  001c9	8b 14 95 00 00
	00 00		 mov	 edx, DWORD PTR _gexp[edx*4]
  001d0	52		 push	 edx
  001d1	8b 45 e0	 mov	 eax, DWORD PTR _j$[ebp]
  001d4	8b 0c 85 00 00
	00 00		 mov	 ecx, DWORD PTR _Lambda[eax*4]
  001db	51		 push	 ecx
  001dc	e8 00 00 00 00	 call	 _gmult
  001e1	83 c4 08	 add	 esp, 8
  001e4	33 45 bc	 xor	 eax, DWORD PTR _denom$2525[ebp]
  001e7	89 45 bc	 mov	 DWORD PTR _denom$2525[ebp], eax

; 315  :       }

  001ea	eb af		 jmp	 SHORT $LN5@correct_er
$LN4@correct_er:

; 316  :       
; 317  :       err = gmult(num, ginv(denom));

  001ec	8b 45 bc	 mov	 eax, DWORD PTR _denom$2525[ebp]
  001ef	50		 push	 eax
  001f0	e8 00 00 00 00	 call	 _ginv
  001f5	83 c4 04	 add	 esp, 4
  001f8	50		 push	 eax
  001f9	8b 4d c8	 mov	 ecx, DWORD PTR _num$2524[ebp]
  001fc	51		 push	 ecx
  001fd	e8 00 00 00 00	 call	 _gmult
  00202	83 c4 08	 add	 esp, 8
  00205	89 45 d4	 mov	 DWORD PTR _err$[ebp], eax

; 318  :       if (DEBUG) fprintf(stderr, "Error magnitude %#x at loc %d\n", err, csize-i);

  00208	83 3d 00 00 00
	00 00		 cmp	 DWORD PTR _DEBUG, 0
  0020f	74 21		 je	 SHORT $LN3@correct_er
  00211	8b 45 0c	 mov	 eax, DWORD PTR _csize$[ebp]
  00214	2b 45 ec	 sub	 eax, DWORD PTR _i$[ebp]
  00217	50		 push	 eax
  00218	8b 4d d4	 mov	 ecx, DWORD PTR _err$[ebp]
  0021b	51		 push	 ecx
  0021c	68 00 00 00 00	 push	 OFFSET ??_C@_0BP@MOHGDCFA@Error?5magnitude?5?$CF?$CDx?5at?5loc?5?$CFd?6?$AA@
  00221	e8 00 00 00 00	 call	 ___iob_func
  00226	83 c0 40	 add	 eax, 64			; 00000040H
  00229	50		 push	 eax
  0022a	e8 00 00 00 00	 call	 _fprintf
  0022f	83 c4 10	 add	 esp, 16			; 00000010H
$LN3@correct_er:

; 319  :       
; 320  :       codeword[csize-i-1] ^= err;

  00232	8b 45 0c	 mov	 eax, DWORD PTR _csize$[ebp]
  00235	2b 45 ec	 sub	 eax, DWORD PTR _i$[ebp]
  00238	8b 4d 08	 mov	 ecx, DWORD PTR _codeword$[ebp]
  0023b	0f b6 54 01 ff	 movzx	 edx, BYTE PTR [ecx+eax-1]
  00240	33 55 d4	 xor	 edx, DWORD PTR _err$[ebp]
  00243	8b 45 0c	 mov	 eax, DWORD PTR _csize$[ebp]
  00246	2b 45 ec	 sub	 eax, DWORD PTR _i$[ebp]
  00249	8b 4d 08	 mov	 ecx, DWORD PTR _codeword$[ebp]
  0024c	88 54 01 ff	 mov	 BYTE PTR [ecx+eax-1], dl

; 321  :     }

  00250	e9 b5 fe ff ff	 jmp	 $LN11@correct_er
$LN10@correct_er:

; 322  :     return(1);

  00255	b8 01 00 00 00	 mov	 eax, 1
  0025a	eb 2c		 jmp	 SHORT $LN23@correct_er

; 323  :   }
; 324  :   else {

  0025c	eb 2a		 jmp	 SHORT $LN23@correct_er
$LN18@correct_er:

; 325  :     if (DEBUG && NErrors) fprintf(stderr, "Uncorrectable codeword\n");

  0025e	83 3d 00 00 00
	00 00		 cmp	 DWORD PTR _DEBUG, 0
  00265	74 1f		 je	 SHORT $LN1@correct_er
  00267	83 3d 00 00 00
	00 00		 cmp	 DWORD PTR _NErrors, 0
  0026e	74 16		 je	 SHORT $LN1@correct_er
  00270	68 00 00 00 00	 push	 OFFSET ??_C@_0BI@LDJGECM@Uncorrectable?5codeword?6?$AA@
  00275	e8 00 00 00 00	 call	 ___iob_func
  0027a	83 c0 40	 add	 eax, 64			; 00000040H
  0027d	50		 push	 eax
  0027e	e8 00 00 00 00	 call	 _fprintf
  00283	83 c4 08	 add	 esp, 8
$LN1@correct_er:

; 326  :     return(0);

  00286	33 c0		 xor	 eax, eax
$LN23@correct_er:

; 327  :   }
; 328  : }

  00288	5f		 pop	 edi
  00289	5e		 pop	 esi
  0028a	5b		 pop	 ebx
  0028b	81 c4 08 01 00
	00		 add	 esp, 264		; 00000108H
  00291	3b ec		 cmp	 ebp, esp
  00293	e8 00 00 00 00	 call	 __RTC_CheckEsp
  00298	8b e5		 mov	 esp, ebp
  0029a	5d		 pop	 ebp
  0029b	c3		 ret	 0
_correct_errors_erasures ENDP
_TEXT	ENDS
END
