; Listing generated by Microsoft (R) Optimizing Compiler Version 14.00.50727.42 

	TITLE	c:\SkyDrive\Dev\Source\ARDOPC\FEC.c
	.686P
	.XMM
	include listing.inc
	.model	flat

INCLUDELIB LIBCMTD
INCLUDELIB OLDNAMES

_DATA	SEGMENT
COMM	_FECRepeatsSent:DWORD
COMM	_intFECFramesSent:DWORD
COMM	_bytLastFECDataFrameSent:BYTE
COMM	_blnSendIDFrame:DWORD
COMM	_dttLastFECIDSent:DWORD
COMM	_bytFrameType:BYTE
COMM	_crcLastFECDataPassedToHost:DWORD
COMM	_bytFailedDataLength:DWORD
COMM	_strCurrentFrameFilename:BYTE:010H
COMM	_bytFailedData:BYTE:0640H
_DATA	ENDS
PUBLIC	??_C@_0CK@PCLMFFJB@?$FLARDOPprotocol?4StartFEC?$FN?5No?5data@ ; `string'
PUBLIC	??_C@_0FM@FNKGFNCI@?$FLARDOPprotocol?4StartFEC?$FN?5?$CFd?5byte@ ; `string'
PUBLIC	_StartFEC
EXTRN	_NeedID:DWORD
EXTRN	_SetARDOPProtocolState:PROC
EXTRN	_intFrameRepeatInterval:DWORD
EXTRN	_blnAbort:DWORD
EXTRN	_strcpy:PROC
EXTRN	_strFECMode:BYTE
EXTRN	_strcmp:PROC
EXTRN	_strAllDataModes:BYTE
EXTRN	_strAllDataModesLen:DWORD
EXTRN	_CheckValidCallsignSyntax:PROC
EXTRN	_Callsign:TBYTE
EXTRN	_bytDataToSendLength:DWORD
EXTRN	_getTicks:PROC
EXTRN	_WriteDebugLog:PROC
EXTRN	_AddDataToDataToSend:PROC
EXTRN	_ProtocolState:DWORD
EXTRN	_FECRepeats:DWORD
EXTRN	__RTC_CheckEsp:PROC
EXTRN	__RTC_Shutdown:PROC
EXTRN	__RTC_InitBase:PROC
;	COMDAT ??_C@_0CK@PCLMFFJB@?$FLARDOPprotocol?4StartFEC?$FN?5No?5data@
; File c:\skydrive\dev\source\ardopc\fec.c
CONST	SEGMENT
??_C@_0CK@PCLMFFJB@?$FLARDOPprotocol?4StartFEC?$FN?5No?5data@ DB '[ARDOPp'
	DB	'rotocol.StartFEC] No data to send!', 00H	; `string'
CONST	ENDS
;	COMDAT ??_C@_0FM@FNKGFNCI@?$FLARDOPprotocol?4StartFEC?$FN?5?$CFd?5byte@
CONST	SEGMENT
??_C@_0FM@FNKGFNCI@?$FLARDOPprotocol?4StartFEC?$FN?5?$CFd?5byte@ DB '[ARD'
	DB	'OPprotocol.StartFEC] %d bytes received while in FECSend state'
	DB	'...append to data to send.', 00H		; `string'
CONST	ENDS
;	COMDAT rtc$TMZ
rtc$TMZ	SEGMENT
__RTC_Shutdown.rtc$TMZ DD FLAT:__RTC_Shutdown
rtc$TMZ	ENDS
;	COMDAT rtc$IMZ
rtc$IMZ	SEGMENT
__RTC_InitBase.rtc$IMZ DD FLAT:__RTC_InitBase
; Function compile flags: /Odtp /RTCsu /ZI
rtc$IMZ	ENDS
;	COMDAT _StartFEC
_TEXT	SEGMENT
_i$ = -20						; size = 4
_blnModeOK$ = -8					; size = 4
_bytData$ = 8						; size = 4
_Len$ = 12						; size = 4
_strDataMode$ = 16					; size = 4
_intRepeats$ = 20					; size = 4
_blnSendID$ = 24					; size = 4
_StartFEC PROC						; COMDAT

; 46   : {

  00000	55		 push	 ebp
  00001	8b ec		 mov	 ebp, esp
  00003	81 ec d8 00 00
	00		 sub	 esp, 216		; 000000d8H
  00009	53		 push	 ebx
  0000a	56		 push	 esi
  0000b	57		 push	 edi
  0000c	8d bd 28 ff ff
	ff		 lea	 edi, DWORD PTR [ebp-216]
  00012	b9 36 00 00 00	 mov	 ecx, 54			; 00000036H
  00017	b8 cc cc cc cc	 mov	 eax, -858993460		; ccccccccH
  0001c	f3 ab		 rep stosd

; 47   : 	// Return True if OK false if problem
; 48   : 
; 49   : 	BOOL blnModeOK = FALSE;

  0001e	c7 45 f8 00 00
	00 00		 mov	 DWORD PTR _blnModeOK$[ebp], 0

; 50   : 	int i;
; 51   : 
; 52   : 	FECRepeats = intRepeats;

  00025	8b 45 14	 mov	 eax, DWORD PTR _intRepeats$[ebp]
  00028	a3 00 00 00 00	 mov	 DWORD PTR _FECRepeats, eax

; 53   : 
; 54   : 	if (ProtocolState == FECSend)	// If already sending FEC data simply add to the OB queue

  0002d	83 3d 00 00 00
	00 06		 cmp	 DWORD PTR _ProtocolState, 6
  00034	75 2f		 jne	 SHORT $LN13@StartFEC

; 55   : 	{
; 56   : 		AddDataToDataToSend(bytData, Len);	// add new data to queue

  00036	8b 45 0c	 mov	 eax, DWORD PTR _Len$[ebp]
  00039	50		 push	 eax
  0003a	8b 4d 08	 mov	 ecx, DWORD PTR _bytData$[ebp]
  0003d	51		 push	 ecx
  0003e	e8 00 00 00 00	 call	 _AddDataToDataToSend
  00043	83 c4 08	 add	 esp, 8

; 57   : 
; 58   : 		WriteDebugLog(LOGDEBUG, "[ARDOPprotocol.StartFEC] %d bytes received while in FECSend state...append to data to send.", Len);

  00046	8b 45 0c	 mov	 eax, DWORD PTR _Len$[ebp]
  00049	50		 push	 eax
  0004a	68 00 00 00 00	 push	 OFFSET ??_C@_0FM@FNKGFNCI@?$FLARDOPprotocol?4StartFEC?$FN?5?$CFd?5byte@
  0004f	6a 07		 push	 7
  00051	e8 00 00 00 00	 call	 _WriteDebugLog
  00056	83 c4 0c	 add	 esp, 12			; 0000000cH

; 59   : 		return TRUE;

  00059	b8 01 00 00 00	 mov	 eax, 1
  0005e	e9 06 01 00 00	 jmp	 $LN14@StartFEC

; 60   : 	}
; 61   : 	else

  00063	eb 0a		 jmp	 SHORT $LN12@StartFEC
$LN13@StartFEC:

; 62   : 		dttLastFECIDSent = Now;

  00065	e8 00 00 00 00	 call	 _getTicks
  0006a	a3 00 00 00 00	 mov	 DWORD PTR _dttLastFECIDSent, eax
$LN12@StartFEC:

; 63   : 	
; 64   : 	//	Check to see that there is data in the buffer.
; 65   : 
; 66   : 	if (Len == 0 && bytDataToSendLength == 0)

  0006f	83 7d 0c 00	 cmp	 DWORD PTR _Len$[ebp], 0
  00073	75 1f		 jne	 SHORT $LN11@StartFEC
  00075	83 3d 00 00 00
	00 00		 cmp	 DWORD PTR _bytDataToSendLength, 0
  0007c	75 16		 jne	 SHORT $LN11@StartFEC

; 67   : 	{
; 68   : 		WriteDebugLog(LOGDEBUG, "[ARDOPprotocol.StartFEC] No data to send!");

  0007e	68 00 00 00 00	 push	 OFFSET ??_C@_0CK@PCLMFFJB@?$FLARDOPprotocol?4StartFEC?$FN?5No?5data@
  00083	6a 07		 push	 7
  00085	e8 00 00 00 00	 call	 _WriteDebugLog
  0008a	83 c4 08	 add	 esp, 8

; 69   : 		return FALSE;

  0008d	33 c0		 xor	 eax, eax
  0008f	e9 d5 00 00 00	 jmp	 $LN14@StartFEC
$LN11@StartFEC:

; 70   : 	}
; 71   : 
; 72   : 	// Check intRepeates
; 73   : 	
; 74   : 	if (intRepeats < 0 || intRepeats > 5)

  00094	83 7d 14 00	 cmp	 DWORD PTR _intRepeats$[ebp], 0
  00098	7c 06		 jl	 SHORT $LN9@StartFEC
  0009a	83 7d 14 05	 cmp	 DWORD PTR _intRepeats$[ebp], 5
  0009e	7e 07		 jle	 SHORT $LN10@StartFEC
$LN9@StartFEC:

; 75   : 	{
; 76   :         //    Logs.Exception("[ARDOPprotocol.StartFEC] Repeats out of range: " & intRepeats.ToString)
; 77   : 		return FALSE;

  000a0	33 c0		 xor	 eax, eax
  000a2	e9 c2 00 00 00	 jmp	 $LN14@StartFEC
$LN10@StartFEC:

; 78   : 	}
; 79   : 	
; 80   : 	//	check call sign
; 81   : 	
; 82   : 	if (!CheckValidCallsignSyntax(Callsign))

  000a7	68 00 00 00 00	 push	 OFFSET _Callsign
  000ac	e8 00 00 00 00	 call	 _CheckValidCallsignSyntax
  000b1	83 c4 04	 add	 esp, 4
  000b4	85 c0		 test	 eax, eax
  000b6	75 07		 jne	 SHORT $LN8@StartFEC

; 83   : 	{
; 84   :      //       Logs.Exception("[ARDOPprotocol.StartFEC] Invalid call sign: " & MCB.Callsign)
; 85   : 		return FALSE;

  000b8	33 c0		 xor	 eax, eax
  000ba	e9 aa 00 00 00	 jmp	 $LN14@StartFEC
$LN8@StartFEC:

; 86   : 	}
; 87   : 	
; 88   : 	//	Check to see that strDataMode is correct
; 89   :     
; 90   : 	for (i = 0;  i < strAllDataModesLen; i++)

  000bf	c7 45 ec 00 00
	00 00		 mov	 DWORD PTR _i$[ebp], 0
  000c6	eb 09		 jmp	 SHORT $LN7@StartFEC
$LN6@StartFEC:
  000c8	8b 45 ec	 mov	 eax, DWORD PTR _i$[ebp]
  000cb	83 c0 01	 add	 eax, 1
  000ce	89 45 ec	 mov	 DWORD PTR _i$[ebp], eax
$LN7@StartFEC:
  000d1	8b 45 ec	 mov	 eax, DWORD PTR _i$[ebp]
  000d4	3b 05 00 00 00
	00		 cmp	 eax, DWORD PTR _strAllDataModesLen
  000da	7d 38		 jge	 SHORT $LN5@StartFEC

; 91   : 	{
; 92   : 		if (strcmp(strDataMode, strAllDataModes[i]) == 0)

  000dc	8b 45 ec	 mov	 eax, DWORD PTR _i$[ebp]
  000df	6b c0 0f	 imul	 eax, 15			; 0000000fH
  000e2	05 00 00 00 00	 add	 eax, OFFSET _strAllDataModes
  000e7	50		 push	 eax
  000e8	8b 4d 10	 mov	 ecx, DWORD PTR _strDataMode$[ebp]
  000eb	51		 push	 ecx
  000ec	e8 00 00 00 00	 call	 _strcmp
  000f1	83 c4 08	 add	 esp, 8
  000f4	85 c0		 test	 eax, eax
  000f6	75 1a		 jne	 SHORT $LN4@StartFEC

; 93   : 		{
; 94   : 			strcpy(strFECMode, strDataMode);

  000f8	8b 45 10	 mov	 eax, DWORD PTR _strDataMode$[ebp]
  000fb	50		 push	 eax
  000fc	68 00 00 00 00	 push	 OFFSET _strFECMode
  00101	e8 00 00 00 00	 call	 _strcpy
  00106	83 c4 08	 add	 esp, 8

; 95   : 			blnModeOK = TRUE;

  00109	c7 45 f8 01 00
	00 00		 mov	 DWORD PTR _blnModeOK$[ebp], 1

; 96   : 			break;

  00110	eb 02		 jmp	 SHORT $LN5@StartFEC
$LN4@StartFEC:

; 97   : 		}
; 98   : 	}

  00112	eb b4		 jmp	 SHORT $LN6@StartFEC
$LN5@StartFEC:

; 99   : 
; 100  : 	if (blnModeOK == FALSE)

  00114	83 7d f8 00	 cmp	 DWORD PTR _blnModeOK$[ebp], 0
  00118	75 04		 jne	 SHORT $LN3@StartFEC

; 101  : 	{
; 102  : 		//Logs.Exception("[ARDOPprotocol.StartFEC] Illegal FEC mode: " & strDataMode)
; 103  : 		return FALSE;

  0011a	33 c0		 xor	 eax, eax
  0011c	eb 4b		 jmp	 SHORT $LN14@StartFEC
$LN3@StartFEC:

; 104  : 	}
; 105  :         
; 106  : 	//While objMain.SoundIsPlaying
; 107  :        //    Thread.Sleep(100)
; 108  :         //End While
; 109  : 
; 110  : 	blnAbort = FALSE;

  0011e	c7 05 00 00 00
	00 00 00 00 00	 mov	 DWORD PTR _blnAbort, 0

; 111  : 
; 112  : 	intFrameRepeatInterval = 400;	// should be a safe number for FEC...perhaps could be shortened down to 200 -300 ms

  00128	c7 05 00 00 00
	00 90 01 00 00	 mov	 DWORD PTR _intFrameRepeatInterval, 400 ; 00000190H

; 113  :  
; 114  : 	AddDataToDataToSend(bytData, Len);	// add new data to queue

  00132	8b 45 0c	 mov	 eax, DWORD PTR _Len$[ebp]
  00135	50		 push	 eax
  00136	8b 4d 08	 mov	 ecx, DWORD PTR _bytData$[ebp]
  00139	51		 push	 ecx
  0013a	e8 00 00 00 00	 call	 _AddDataToDataToSend
  0013f	83 c4 08	 add	 esp, 8

; 115  : 
; 116  : 	SetARDOPProtocolState(FECSend);		// set to FECSend state

  00142	6a 06		 push	 6
  00144	e8 00 00 00 00	 call	 _SetARDOPProtocolState
  00149	83 c4 04	 add	 esp, 4

; 117  : 
; 118  : 	blnSendIDFrame = blnSendID;

  0014c	8b 45 18	 mov	 eax, DWORD PTR _blnSendID$[ebp]
  0014f	a3 00 00 00 00	 mov	 DWORD PTR _blnSendIDFrame, eax

; 119  : 
; 120  : 	if (blnSendID)

  00154	83 7d 18 00	 cmp	 DWORD PTR _blnSendID$[ebp], 0
  00158	74 0a		 je	 SHORT $LN1@StartFEC

; 121  : 	{
; 122  : 		NeedID = TRUE;

  0015a	c7 05 00 00 00
	00 01 00 00 00	 mov	 DWORD PTR _NeedID, 1
$LN1@StartFEC:

; 123  : 	}
; 124  : 	else
; 125  : 	{
; 126  : 		// Cant we just call GetNextFECFrame??
; 127  : 
; 128  : //		GetNextFECFrame();		// Use timer to start so cmd response is immediate
; 129  : /*
; 130  : 			Dim bytFrameData(-1) As Byte
; 131  :             strFrameComponents = strFECMode.Split(".")
; 132  :             bytFrameType = objFrameInfo.FrameCode(strFECMode & ".E")
; 133  :             If bytFrameType = bytLastFECDataFrameSent Then ' Added 0.3.4.1 
; 134  :                 bytFrameType = bytFrameType Xor &H1 ' insures a new start is on a different frame type. 
; 135  :             End If
; 136  :             objFrameInfo.FrameInfo(bytFrameType, blnOdd, intNumCar, strMod, intBaud, intDataLen, intRSLen, bytQualThres, strType)
; 137  :             GetDataFromQueue(bytFrameData, intDataLen * intNumCar)
; 138  :             ' If bytFrameData.Length < (intDataLen * intNumCar) Then ReDim Preserve bytFrameData((intDataLen * intNumCar) - 1)
; 139  :             'Logs.WriteDebug("[ARDOPprotocol.StartFEC]  Frame Data (string) = " & GetString(bytFrameData))
; 140  :             If strMod = "4FSK" Then
; 141  :                 bytFrameData = objMain.objMod.EncodeFSKData(bytFrameType, bytFrameData, strCurrentFrameFilename)
; 142  :                 intCurrentFrameSamples = objMain.objMod.Mod4FSKData(bytFrameType, bytFrameData)
; 143  :             ElseIf strMod = "16FSK" Then
; 144  :                 bytFrameData = objMain.objMod.EncodeFSKData(bytFrameType, bytFrameData, strCurrentFrameFilename)
; 145  :                 intCurrentFrameSamples = objMain.objMod.Mod16FSKData(bytFrameType, bytFrameData)
; 146  :             ElseIf strMod = "8FSK" Then
; 147  :                 bytFrameData = objMain.objMod.EncodeFSKData(bytFrameType, bytFrameData, strCurrentFrameFilename)
; 148  :                 intCurrentFrameSamples = objMain.objMod.Mod8FSKData(bytFrameType, bytFrameData)
; 149  :             Else
; 150  :                 bytFrameData = objMain.objMod.EncodePSK(bytFrameType, bytFrameData, strCurrentFrameFilename)
; 151  :                 intCurrentFrameSamples = objMain.objMod.ModPSK(bytFrameType, bytFrameData)
; 152  :             End If
; 153  :             bytLastFECDataFrameSent = bytFrameType
; 154  :             objMain.SendFrame(intCurrentFrameSamples, strCurrentFrameFilename)
; 155  :             intFECFramesSent = 1
; 156  : */
; 157  : 	}
; 158  : 	return TRUE;

  00164	b8 01 00 00 00	 mov	 eax, 1
$LN14@StartFEC:

; 159  : }

  00169	5f		 pop	 edi
  0016a	5e		 pop	 esi
  0016b	5b		 pop	 ebx
  0016c	81 c4 d8 00 00
	00		 add	 esp, 216		; 000000d8H
  00172	3b ec		 cmp	 ebp, esp
  00174	e8 00 00 00 00	 call	 __RTC_CheckEsp
  00179	8b e5		 mov	 esp, ebp
  0017b	5d		 pop	 ebp
  0017c	c3		 ret	 0
_StartFEC ENDP
_TEXT	ENDS
PUBLIC	??_C@_04GLIEPKGD@8FSK?$AA@			; `string'
PUBLIC	??_C@_05GMHCMGLE@16FSK?$AA@			; `string'
PUBLIC	??_C@_04KOHEBHGC@4FSK?$AA@			; `string'
PUBLIC	??_C@_02LPGDPGEH@?4E?$AA@			; `string'
PUBLIC	??_C@_0EC@OHPJANKP@?$FLGetNextFECFrame?$FN?5All?5data?5and?5r@ ; `string'
PUBLIC	??_C@_0DO@GBCFOMNC@?$FLGetNextFECFrame?$FN?5intFECFramesSe@ ; `string'
PUBLIC	??_C@_0DA@KOKJKGJM@?$FLGetNextFECFrame?$FN?5FECAbort?4?5Goin@ ; `string'
PUBLIC	??_C@_00CNPNBAHC@?$AA@				; `string'
PUBLIC	__$ArrayPad$
PUBLIC	_GetNextFECFrame
EXTRN	_Encode4FSKIDFrame:PROC
EXTRN	_GridSquare:BYTE
EXTRN	_txSleep:PROC
EXTRN	_ModPSKDataAndPlay:PROC
EXTRN	_EncodePSKData:PROC
EXTRN	_Mod8FSKDataAndPlay:PROC
EXTRN	_Mod16FSKDataAndPlay:PROC
EXTRN	_Mod4FSKDataAndPlay:PROC
EXTRN	_Mod4FSK600BdDataAndPlay:PROC
EXTRN	_intCalcLeader:DWORD
EXTRN	_RemoveDataFromQueue:PROC
EXTRN	_EncLen:DWORD
EXTRN	_EncodeFSKData:PROC
EXTRN	_bytDataToSend:BYTE
EXTRN	_bytEncodedBytes:BYTE
EXTRN	_FrameInfo:PROC
EXTRN	_bytMinQualThresh:BYTE
EXTRN	_FrameCode:PROC
EXTRN	_strcat:PROC
EXTRN	_blnEnbARQRpt:DWORD
EXTRN	_KeyPTT:PROC
EXTRN	_ClearDataToSend:PROC
EXTRN	___security_cookie:DWORD
EXTRN	@__security_check_cookie@4:PROC
EXTRN	@_RTC_CheckStackVars@8:PROC
;	COMDAT ??_C@_04GLIEPKGD@8FSK?$AA@
CONST	SEGMENT
??_C@_04GLIEPKGD@8FSK?$AA@ DB '8FSK', 00H		; `string'
CONST	ENDS
;	COMDAT ??_C@_05GMHCMGLE@16FSK?$AA@
CONST	SEGMENT
??_C@_05GMHCMGLE@16FSK?$AA@ DB '16FSK', 00H		; `string'
CONST	ENDS
;	COMDAT ??_C@_04KOHEBHGC@4FSK?$AA@
CONST	SEGMENT
??_C@_04KOHEBHGC@4FSK?$AA@ DB '4FSK', 00H		; `string'
CONST	ENDS
;	COMDAT ??_C@_02LPGDPGEH@?4E?$AA@
CONST	SEGMENT
??_C@_02LPGDPGEH@?4E?$AA@ DB '.E', 00H			; `string'
CONST	ENDS
;	COMDAT ??_C@_0EC@OHPJANKP@?$FLGetNextFECFrame?$FN?5All?5data?5and?5r@
CONST	SEGMENT
??_C@_0EC@OHPJANKP@?$FLGetNextFECFrame?$FN?5All?5data?5and?5r@ DB '[GetNe'
	DB	'xtFECFrame] All data and repeats sent.  Going to DISC state', 00H ; `string'
CONST	ENDS
;	COMDAT ??_C@_0DO@GBCFOMNC@?$FLGetNextFECFrame?$FN?5intFECFramesSe@
CONST	SEGMENT
??_C@_0DO@GBCFOMNC@?$FLGetNextFECFrame?$FN?5intFECFramesSe@ DB '[GetNextF'
	DB	'ECFrame] intFECFramesSent = -1.  Going to DISC state', 00H ; `string'
CONST	ENDS
;	COMDAT ??_C@_0DA@KOKJKGJM@?$FLGetNextFECFrame?$FN?5FECAbort?4?5Goin@
CONST	SEGMENT
??_C@_0DA@KOKJKGJM@?$FLGetNextFECFrame?$FN?5FECAbort?4?5Goin@ DB '[GetNex'
	DB	'tFECFrame] FECAbort. Going to DISC state', 00H ; `string'
CONST	ENDS
;	COMDAT ??_C@_00CNPNBAHC@?$AA@
CONST	SEGMENT
??_C@_00CNPNBAHC@?$AA@ DB 00H				; `string'
; Function compile flags: /Odtp /RTCsu /ZI
CONST	ENDS
;	COMDAT _GetNextFECFrame
_TEXT	SEGMENT
_bytEncodedBytes$5543 = -172				; size = 16
_FullType$5524 = -148					; size = 16
_strMod$ = -124						; size = 16
_strType$ = -100					; size = 18
_blnOdd$ = -72						; size = 4
_intRSLen$ = -60					; size = 4
_intDataLen$ = -48					; size = 4
_intBaud$ = -36						; size = 4
_intNumCar$ = -24					; size = 4
_Len$ = -12						; size = 4
__$ArrayPad$ = -4					; size = 4
_GetNextFECFrame PROC					; COMDAT

; 164  : {

  00000	55		 push	 ebp
  00001	8b ec		 mov	 ebp, esp
  00003	81 ec 70 01 00
	00		 sub	 esp, 368		; 00000170H
  00009	53		 push	 ebx
  0000a	56		 push	 esi
  0000b	57		 push	 edi
  0000c	8d bd 90 fe ff
	ff		 lea	 edi, DWORD PTR [ebp-368]
  00012	b9 5c 00 00 00	 mov	 ecx, 92			; 0000005cH
  00017	b8 cc cc cc cc	 mov	 eax, -858993460		; ccccccccH
  0001c	f3 ab		 rep stosd
  0001e	a1 00 00 00 00	 mov	 eax, DWORD PTR ___security_cookie
  00023	33 c5		 xor	 eax, ebp
  00025	89 45 fc	 mov	 DWORD PTR __$ArrayPad$[ebp], eax

; 165  : 	int Len;
; 166  : 	int intNumCar, intBaud, intDataLen, intRSLen;
; 167  : 	BOOL blnOdd;
; 168  :     char strType[18] = "";

  00028	a0 00 00 00 00	 mov	 al, BYTE PTR ??_C@_00CNPNBAHC@?$AA@
  0002d	88 45 9c	 mov	 BYTE PTR _strType$[ebp], al
  00030	33 c0		 xor	 eax, eax
  00032	89 45 9d	 mov	 DWORD PTR _strType$[ebp+1], eax
  00035	89 45 a1	 mov	 DWORD PTR _strType$[ebp+5], eax
  00038	89 45 a5	 mov	 DWORD PTR _strType$[ebp+9], eax
  0003b	89 45 a9	 mov	 DWORD PTR _strType$[ebp+13], eax
  0003e	88 45 ad	 mov	 BYTE PTR _strType$[ebp+17], al

; 169  :     char strMod[16] = "";

  00041	a0 00 00 00 00	 mov	 al, BYTE PTR ??_C@_00CNPNBAHC@?$AA@
  00046	88 45 84	 mov	 BYTE PTR _strMod$[ebp], al
  00049	33 c0		 xor	 eax, eax
  0004b	89 45 85	 mov	 DWORD PTR _strMod$[ebp+1], eax
  0004e	89 45 89	 mov	 DWORD PTR _strMod$[ebp+5], eax
  00051	89 45 8d	 mov	 DWORD PTR _strMod$[ebp+9], eax
  00054	66 89 45 91	 mov	 WORD PTR _strMod$[ebp+13], ax
  00058	88 45 93	 mov	 BYTE PTR _strMod$[ebp+15], al

; 170  : 
; 171  : 	if (blnAbort)

  0005b	83 3d 00 00 00
	00 00		 cmp	 DWORD PTR _blnAbort, 0
  00062	74 39		 je	 SHORT $LN19@GetNextFEC

; 172  : 	{
; 173  : 		ClearDataToSend();

  00064	e8 00 00 00 00	 call	 _ClearDataToSend

; 174  : 
; 175  : 		WriteDebugLog(LOGDEBUG, "[GetNextFECFrame] FECAbort. Going to DISC state");

  00069	68 00 00 00 00	 push	 OFFSET ??_C@_0DA@KOKJKGJM@?$FLGetNextFECFrame?$FN?5FECAbort?4?5Goin@
  0006e	6a 07		 push	 7
  00070	e8 00 00 00 00	 call	 _WriteDebugLog
  00075	83 c4 08	 add	 esp, 8

; 176  : 		KeyPTT(FALSE);  // insurance for PTT off

  00078	6a 00		 push	 0
  0007a	e8 00 00 00 00	 call	 _KeyPTT
  0007f	83 c4 04	 add	 esp, 4

; 177  : 		SetARDOPProtocolState(DISC);

  00082	6a 01		 push	 1
  00084	e8 00 00 00 00	 call	 _SetARDOPProtocolState
  00089	83 c4 04	 add	 esp, 4

; 178  : 		blnAbort = FALSE;

  0008c	c7 05 00 00 00
	00 00 00 00 00	 mov	 DWORD PTR _blnAbort, 0

; 179  : 		return FALSE;

  00096	33 c0		 xor	 eax, eax
  00098	e9 4c 04 00 00	 jmp	 $LN20@GetNextFEC
$LN19@GetNextFEC:

; 180  : 	}
; 181  : 	
; 182  : 	if (intFECFramesSent == -1)

  0009d	83 3d 00 00 00
	00 ff		 cmp	 DWORD PTR _intFECFramesSent, -1
  000a4	75 2a		 jne	 SHORT $LN18@GetNextFEC

; 183  : 	{
; 184  : 		WriteDebugLog(LOGDEBUG, "[GetNextFECFrame] intFECFramesSent = -1.  Going to DISC state");

  000a6	68 00 00 00 00	 push	 OFFSET ??_C@_0DO@GBCFOMNC@?$FLGetNextFECFrame?$FN?5intFECFramesSe@
  000ab	6a 07		 push	 7
  000ad	e8 00 00 00 00	 call	 _WriteDebugLog
  000b2	83 c4 08	 add	 esp, 8

; 185  : 		
; 186  : 		SetARDOPProtocolState(DISC);

  000b5	6a 01		 push	 1
  000b7	e8 00 00 00 00	 call	 _SetARDOPProtocolState
  000bc	83 c4 04	 add	 esp, 4

; 187  : 		KeyPTT(FALSE); // insurance for PTT off

  000bf	6a 00		 push	 0
  000c1	e8 00 00 00 00	 call	 _KeyPTT
  000c6	83 c4 04	 add	 esp, 4

; 188  : 		return FALSE;

  000c9	33 c0		 xor	 eax, eax
  000cb	e9 19 04 00 00	 jmp	 $LN20@GetNextFEC
$LN18@GetNextFEC:

; 189  : 	}
; 190  : 	
; 191  : 	if (bytDataToSendLength == 0 && FECRepeatsSent >= FECRepeats && ProtocolState == FECSend)

  000d0	83 3d 00 00 00
	00 00		 cmp	 DWORD PTR _bytDataToSendLength, 0
  000d7	75 4a		 jne	 SHORT $LN17@GetNextFEC
  000d9	a1 00 00 00 00	 mov	 eax, DWORD PTR _FECRepeatsSent
  000de	3b 05 00 00 00
	00		 cmp	 eax, DWORD PTR _FECRepeats
  000e4	7c 3d		 jl	 SHORT $LN17@GetNextFEC
  000e6	83 3d 00 00 00
	00 06		 cmp	 DWORD PTR _ProtocolState, 6
  000ed	75 34		 jne	 SHORT $LN17@GetNextFEC

; 192  : 	{
; 193  : 		WriteDebugLog(LOGDEBUG, "[GetNextFECFrame] All data and repeats sent.  Going to DISC state");

  000ef	68 00 00 00 00	 push	 OFFSET ??_C@_0EC@OHPJANKP@?$FLGetNextFECFrame?$FN?5All?5data?5and?5r@
  000f4	6a 07		 push	 7
  000f6	e8 00 00 00 00	 call	 _WriteDebugLog
  000fb	83 c4 08	 add	 esp, 8

; 194  :             
; 195  : 		SetARDOPProtocolState(DISC);

  000fe	6a 01		 push	 1
  00100	e8 00 00 00 00	 call	 _SetARDOPProtocolState
  00105	83 c4 04	 add	 esp, 4

; 196  : 		blnEnbARQRpt = FALSE;

  00108	c7 05 00 00 00
	00 00 00 00 00	 mov	 DWORD PTR _blnEnbARQRpt, 0

; 197  : 		KeyPTT(FALSE); // insurance for PTT of

  00112	6a 00		 push	 0
  00114	e8 00 00 00 00	 call	 _KeyPTT
  00119	83 c4 04	 add	 esp, 4

; 198  : 
; 199  : 		return FALSE;

  0011c	33 c0		 xor	 eax, eax
  0011e	e9 c6 03 00 00	 jmp	 $LN20@GetNextFEC
$LN17@GetNextFEC:

; 200  : 	}
; 201  : 	
; 202  : 	if (ProtocolState != FECSend)

  00123	83 3d 00 00 00
	00 06		 cmp	 DWORD PTR _ProtocolState, 6
  0012a	74 07		 je	 SHORT $LN16@GetNextFEC

; 203  : 		return FALSE;

  0012c	33 c0		 xor	 eax, eax
  0012e	e9 b6 03 00 00	 jmp	 $LN20@GetNextFEC
$LN16@GetNextFEC:

; 204  : 
; 205  : 	if (intFECFramesSent == 0)

  00133	83 3d 00 00 00
	00 00		 cmp	 DWORD PTR _intFECFramesSent, 0
  0013a	0f 85 b2 02 00
	00		 jne	 $LN15@GetNextFEC

; 206  : 	{
; 207  : 		// Initialize the first FEC Data frame (even) from the queue and compute the Filtered samples and filename
; 208  : 
; 209  : 		char FullType[16];
; 210  : 
; 211  : 		strcpy(FullType, strFECMode);

  00140	68 00 00 00 00	 push	 OFFSET _strFECMode
  00145	8d 85 6c ff ff
	ff		 lea	 eax, DWORD PTR _FullType$5524[ebp]
  0014b	50		 push	 eax
  0014c	e8 00 00 00 00	 call	 _strcpy
  00151	83 c4 08	 add	 esp, 8

; 212  : 		strcat(FullType, ".E");

  00154	68 00 00 00 00	 push	 OFFSET ??_C@_02LPGDPGEH@?4E?$AA@
  00159	8d 85 6c ff ff
	ff		 lea	 eax, DWORD PTR _FullType$5524[ebp]
  0015f	50		 push	 eax
  00160	e8 00 00 00 00	 call	 _strcat
  00165	83 c4 08	 add	 esp, 8

; 213  : 
; 214  : 		bytFrameType = FrameCode(FullType);

  00168	8d 85 6c ff ff
	ff		 lea	 eax, DWORD PTR _FullType$5524[ebp]
  0016e	50		 push	 eax
  0016f	e8 00 00 00 00	 call	 _FrameCode
  00174	83 c4 04	 add	 esp, 4
  00177	a2 00 00 00 00	 mov	 BYTE PTR _bytFrameType, al

; 215  : 
; 216  :  //           If bytFrameType = bytLastFECDataFrameSent Then ' Added 0.3.4.1 
; 217  :  //               bytFrameType = bytFrameType Xor 0x1 ' insures a new start is on a different frame type. 
; 218  :  //           End If
; 219  : 
; 220  :  
; 221  : 		FrameInfo(bytFrameType, &blnOdd, &intNumCar, strMod, &intBaud, &intDataLen, &intRSLen, &bytMinQualThresh, strType);

  0017c	8d 45 9c	 lea	 eax, DWORD PTR _strType$[ebp]
  0017f	50		 push	 eax
  00180	68 00 00 00 00	 push	 OFFSET _bytMinQualThresh
  00185	8d 4d c4	 lea	 ecx, DWORD PTR _intRSLen$[ebp]
  00188	51		 push	 ecx
  00189	8d 55 d0	 lea	 edx, DWORD PTR _intDataLen$[ebp]
  0018c	52		 push	 edx
  0018d	8d 45 dc	 lea	 eax, DWORD PTR _intBaud$[ebp]
  00190	50		 push	 eax
  00191	8d 4d 84	 lea	 ecx, DWORD PTR _strMod$[ebp]
  00194	51		 push	 ecx
  00195	8d 55 e8	 lea	 edx, DWORD PTR _intNumCar$[ebp]
  00198	52		 push	 edx
  00199	8d 45 b8	 lea	 eax, DWORD PTR _blnOdd$[ebp]
  0019c	50		 push	 eax
  0019d	8a 0d 00 00 00
	00		 mov	 cl, BYTE PTR _bytFrameType
  001a3	51		 push	 ecx
  001a4	e8 00 00 00 00	 call	 _FrameInfo
  001a9	83 c4 24	 add	 esp, 36			; 00000024H

; 222  : 
; 223  : 		Len = intDataLen * intNumCar;

  001ac	8b 45 d0	 mov	 eax, DWORD PTR _intDataLen$[ebp]
  001af	0f af 45 e8	 imul	 eax, DWORD PTR _intNumCar$[ebp]
  001b3	89 45 f4	 mov	 DWORD PTR _Len$[ebp], eax

; 224  : 
; 225  : 		if (Len > bytDataToSendLength)

  001b6	8b 45 f4	 mov	 eax, DWORD PTR _Len$[ebp]
  001b9	3b 05 00 00 00
	00		 cmp	 eax, DWORD PTR _bytDataToSendLength
  001bf	7e 08		 jle	 SHORT $LN14@GetNextFEC

; 226  : 			Len = bytDataToSendLength;

  001c1	a1 00 00 00 00	 mov	 eax, DWORD PTR _bytDataToSendLength
  001c6	89 45 f4	 mov	 DWORD PTR _Len$[ebp], eax
$LN14@GetNextFEC:

; 227  : 
; 228  : 		bytLastFECDataFrameSent = bytFrameType;

  001c9	a0 00 00 00 00	 mov	 al, BYTE PTR _bytFrameType
  001ce	a2 00 00 00 00	 mov	 BYTE PTR _bytLastFECDataFrameSent, al
$sendit$5527:

; 229  : 
; 230  : sendit:
; 231  : 		if (FECRepeats)

  001d3	83 3d 00 00 00
	00 00		 cmp	 DWORD PTR _FECRepeats, 0
  001da	74 0c		 je	 SHORT $LN13@GetNextFEC

; 232  : 			blnEnbARQRpt = TRUE;

  001dc	c7 05 00 00 00
	00 01 00 00 00	 mov	 DWORD PTR _blnEnbARQRpt, 1

; 233  : 		else

  001e6	eb 0a		 jmp	 SHORT $LN12@GetNextFEC
$LN13@GetNextFEC:

; 234  : 			blnEnbARQRpt = FALSE;

  001e8	c7 05 00 00 00
	00 00 00 00 00	 mov	 DWORD PTR _blnEnbARQRpt, 0
$LN12@GetNextFEC:

; 235  : 
; 236  : 		intFrameRepeatInterval = 400;	// should be a safe number for FEC...perhaps could be shortened down to 200 -300 ms

  001f2	c7 05 00 00 00
	00 90 01 00 00	 mov	 DWORD PTR _intFrameRepeatInterval, 400 ; 00000190H

; 237  : 
; 238  : 		FECRepeatsSent = 0;

  001fc	c7 05 00 00 00
	00 00 00 00 00	 mov	 DWORD PTR _FECRepeatsSent, 0

; 239  : 
; 240  : 		intFECFramesSent += 1;

  00206	a1 00 00 00 00	 mov	 eax, DWORD PTR _intFECFramesSent
  0020b	83 c0 01	 add	 eax, 1
  0020e	a3 00 00 00 00	 mov	 DWORD PTR _intFECFramesSent, eax

; 241  : 
; 242  : 		bytFrameType = bytLastFECDataFrameSent;

  00213	a0 00 00 00 00	 mov	 al, BYTE PTR _bytLastFECDataFrameSent
  00218	a2 00 00 00 00	 mov	 BYTE PTR _bytFrameType, al

; 243  : 
; 244  : 		if (strcmp(strMod, "4FSK") == 0)

  0021d	68 00 00 00 00	 push	 OFFSET ??_C@_04KOHEBHGC@4FSK?$AA@
  00222	8d 45 84	 lea	 eax, DWORD PTR _strMod$[ebp]
  00225	50		 push	 eax
  00226	e8 00 00 00 00	 call	 _strcmp
  0022b	83 c4 08	 add	 esp, 8
  0022e	85 c0		 test	 eax, eax
  00230	0f 85 91 00 00
	00		 jne	 $LN11@GetNextFEC

; 245  : 		{
; 246  : 			EncLen = EncodeFSKData(bytFrameType, bytDataToSend, Len, bytEncodedBytes);

  00236	68 00 00 00 00	 push	 OFFSET _bytEncodedBytes
  0023b	8b 45 f4	 mov	 eax, DWORD PTR _Len$[ebp]
  0023e	50		 push	 eax
  0023f	68 00 00 00 00	 push	 OFFSET _bytDataToSend
  00244	8a 0d 00 00 00
	00		 mov	 cl, BYTE PTR _bytFrameType
  0024a	51		 push	 ecx
  0024b	e8 00 00 00 00	 call	 _EncodeFSKData
  00250	83 c4 10	 add	 esp, 16			; 00000010H
  00253	a3 00 00 00 00	 mov	 DWORD PTR _EncLen, eax

; 247  : 			RemoveDataFromQueue(Len);		// No ACKS in FEC

  00258	8b 45 f4	 mov	 eax, DWORD PTR _Len$[ebp]
  0025b	50		 push	 eax
  0025c	e8 00 00 00 00	 call	 _RemoveDataFromQueue
  00261	83 c4 04	 add	 esp, 4

; 248  : 
; 249  : 			if (bytFrameType >= 0x7A && bytFrameType <= 0x7D)

  00264	0f b6 05 00 00
	00 00		 movzx	 eax, BYTE PTR _bytFrameType
  0026b	83 f8 7a	 cmp	 eax, 122		; 0000007aH
  0026e	7c 30		 jl	 SHORT $LN10@GetNextFEC
  00270	0f b6 05 00 00
	00 00		 movzx	 eax, BYTE PTR _bytFrameType
  00277	83 f8 7d	 cmp	 eax, 125		; 0000007dH
  0027a	7f 24		 jg	 SHORT $LN10@GetNextFEC

; 250  : 				Mod4FSK600BdDataAndPlay(bytEncodedBytes[0], bytEncodedBytes, EncLen, intCalcLeader);  // Modulate Data frame 

  0027c	a1 00 00 00 00	 mov	 eax, DWORD PTR _intCalcLeader
  00281	50		 push	 eax
  00282	8b 0d 00 00 00
	00		 mov	 ecx, DWORD PTR _EncLen
  00288	51		 push	 ecx
  00289	68 00 00 00 00	 push	 OFFSET _bytEncodedBytes
  0028e	0f b6 15 00 00
	00 00		 movzx	 edx, BYTE PTR _bytEncodedBytes
  00295	52		 push	 edx
  00296	e8 00 00 00 00	 call	 _Mod4FSK600BdDataAndPlay
  0029b	83 c4 10	 add	 esp, 16			; 00000010H

; 251  : 			else

  0029e	eb 22		 jmp	 SHORT $LN9@GetNextFEC
$LN10@GetNextFEC:

; 252  : 				Mod4FSKDataAndPlay(bytEncodedBytes[0], bytEncodedBytes, EncLen, intCalcLeader);  // Modulate Data frame 

  002a0	a1 00 00 00 00	 mov	 eax, DWORD PTR _intCalcLeader
  002a5	50		 push	 eax
  002a6	8b 0d 00 00 00
	00		 mov	 ecx, DWORD PTR _EncLen
  002ac	51		 push	 ecx
  002ad	68 00 00 00 00	 push	 OFFSET _bytEncodedBytes
  002b2	0f b6 15 00 00
	00 00		 movzx	 edx, BYTE PTR _bytEncodedBytes
  002b9	52		 push	 edx
  002ba	e8 00 00 00 00	 call	 _Mod4FSKDataAndPlay
  002bf	83 c4 10	 add	 esp, 16			; 00000010H
$LN9@GetNextFEC:

; 253  : 		}
; 254  : 		else if (strcmp(strMod, "16FSK") == 0)

  002c2	e9 21 01 00 00	 jmp	 $LN8@GetNextFEC
$LN11@GetNextFEC:
  002c7	68 00 00 00 00	 push	 OFFSET ??_C@_05GMHCMGLE@16FSK?$AA@
  002cc	8d 45 84	 lea	 eax, DWORD PTR _strMod$[ebp]
  002cf	50		 push	 eax
  002d0	e8 00 00 00 00	 call	 _strcmp
  002d5	83 c4 08	 add	 esp, 8
  002d8	85 c0		 test	 eax, eax
  002da	75 55		 jne	 SHORT $LN7@GetNextFEC

; 255  : 		{
; 256  : 			EncLen = EncodeFSKData(bytFrameType, bytDataToSend, Len, bytEncodedBytes);

  002dc	68 00 00 00 00	 push	 OFFSET _bytEncodedBytes
  002e1	8b 45 f4	 mov	 eax, DWORD PTR _Len$[ebp]
  002e4	50		 push	 eax
  002e5	68 00 00 00 00	 push	 OFFSET _bytDataToSend
  002ea	8a 0d 00 00 00
	00		 mov	 cl, BYTE PTR _bytFrameType
  002f0	51		 push	 ecx
  002f1	e8 00 00 00 00	 call	 _EncodeFSKData
  002f6	83 c4 10	 add	 esp, 16			; 00000010H
  002f9	a3 00 00 00 00	 mov	 DWORD PTR _EncLen, eax

; 257  : 			RemoveDataFromQueue(Len);		// No ACKS in FEC

  002fe	8b 45 f4	 mov	 eax, DWORD PTR _Len$[ebp]
  00301	50		 push	 eax
  00302	e8 00 00 00 00	 call	 _RemoveDataFromQueue
  00307	83 c4 04	 add	 esp, 4

; 258  : 			Mod16FSKDataAndPlay(bytEncodedBytes[0], bytEncodedBytes, EncLen, intCalcLeader);  // Modulate Data frame 

  0030a	a1 00 00 00 00	 mov	 eax, DWORD PTR _intCalcLeader
  0030f	50		 push	 eax
  00310	8b 0d 00 00 00
	00		 mov	 ecx, DWORD PTR _EncLen
  00316	51		 push	 ecx
  00317	68 00 00 00 00	 push	 OFFSET _bytEncodedBytes
  0031c	0f b6 15 00 00
	00 00		 movzx	 edx, BYTE PTR _bytEncodedBytes
  00323	52		 push	 edx
  00324	e8 00 00 00 00	 call	 _Mod16FSKDataAndPlay
  00329	83 c4 10	 add	 esp, 16			; 00000010H
  0032c	e9 b7 00 00 00	 jmp	 $LN8@GetNextFEC
$LN7@GetNextFEC:

; 259  : 		}
; 260  : 		else if (strcmp(strMod, "8FSK") == 0)

  00331	68 00 00 00 00	 push	 OFFSET ??_C@_04GLIEPKGD@8FSK?$AA@
  00336	8d 45 84	 lea	 eax, DWORD PTR _strMod$[ebp]
  00339	50		 push	 eax
  0033a	e8 00 00 00 00	 call	 _strcmp
  0033f	83 c4 08	 add	 esp, 8
  00342	85 c0		 test	 eax, eax
  00344	75 52		 jne	 SHORT $LN5@GetNextFEC

; 261  : 		{
; 262  : 			EncLen = EncodeFSKData(bytFrameType, bytDataToSend, Len, bytEncodedBytes);          //      intCurrentFrameSamples = Mod8FSKData(bytFrameType, bytData);

  00346	68 00 00 00 00	 push	 OFFSET _bytEncodedBytes
  0034b	8b 45 f4	 mov	 eax, DWORD PTR _Len$[ebp]
  0034e	50		 push	 eax
  0034f	68 00 00 00 00	 push	 OFFSET _bytDataToSend
  00354	8a 0d 00 00 00
	00		 mov	 cl, BYTE PTR _bytFrameType
  0035a	51		 push	 ecx
  0035b	e8 00 00 00 00	 call	 _EncodeFSKData
  00360	83 c4 10	 add	 esp, 16			; 00000010H
  00363	a3 00 00 00 00	 mov	 DWORD PTR _EncLen, eax

; 263  : 			RemoveDataFromQueue(Len);		// No ACKS in FEC

  00368	8b 45 f4	 mov	 eax, DWORD PTR _Len$[ebp]
  0036b	50		 push	 eax
  0036c	e8 00 00 00 00	 call	 _RemoveDataFromQueue
  00371	83 c4 04	 add	 esp, 4

; 264  : 			Mod8FSKDataAndPlay(bytEncodedBytes[0], bytEncodedBytes, EncLen, intCalcLeader);  // Modulate Data frame 

  00374	a1 00 00 00 00	 mov	 eax, DWORD PTR _intCalcLeader
  00379	50		 push	 eax
  0037a	8b 0d 00 00 00
	00		 mov	 ecx, DWORD PTR _EncLen
  00380	51		 push	 ecx
  00381	68 00 00 00 00	 push	 OFFSET _bytEncodedBytes
  00386	0f b6 15 00 00
	00 00		 movzx	 edx, BYTE PTR _bytEncodedBytes
  0038d	52		 push	 edx
  0038e	e8 00 00 00 00	 call	 _Mod8FSKDataAndPlay
  00393	83 c4 10	 add	 esp, 16			; 00000010H

; 265  : 		}
; 266  : 		else		// This handles PSK and QAM

  00396	eb 50		 jmp	 SHORT $LN8@GetNextFEC
$LN5@GetNextFEC:

; 267  : 		{
; 268  : 			EncLen = EncodePSKData(bytFrameType, bytDataToSend, Len, bytEncodedBytes);

  00398	68 00 00 00 00	 push	 OFFSET _bytEncodedBytes
  0039d	8b 45 f4	 mov	 eax, DWORD PTR _Len$[ebp]
  003a0	50		 push	 eax
  003a1	68 00 00 00 00	 push	 OFFSET _bytDataToSend
  003a6	8a 0d 00 00 00
	00		 mov	 cl, BYTE PTR _bytFrameType
  003ac	51		 push	 ecx
  003ad	e8 00 00 00 00	 call	 _EncodePSKData
  003b2	83 c4 10	 add	 esp, 16			; 00000010H
  003b5	a3 00 00 00 00	 mov	 DWORD PTR _EncLen, eax

; 269  : 			RemoveDataFromQueue(Len);		// No ACKS in FEC

  003ba	8b 45 f4	 mov	 eax, DWORD PTR _Len$[ebp]
  003bd	50		 push	 eax
  003be	e8 00 00 00 00	 call	 _RemoveDataFromQueue
  003c3	83 c4 04	 add	 esp, 4

; 270  : 			ModPSKDataAndPlay(bytEncodedBytes[0], bytEncodedBytes, EncLen, intCalcLeader);  // Modulate Data frame 

  003c6	a1 00 00 00 00	 mov	 eax, DWORD PTR _intCalcLeader
  003cb	50		 push	 eax
  003cc	8b 0d 00 00 00
	00		 mov	 ecx, DWORD PTR _EncLen
  003d2	51		 push	 ecx
  003d3	68 00 00 00 00	 push	 OFFSET _bytEncodedBytes
  003d8	0f b6 15 00 00
	00 00		 movzx	 edx, BYTE PTR _bytEncodedBytes
  003df	52		 push	 edx
  003e0	e8 00 00 00 00	 call	 _ModPSKDataAndPlay
  003e5	83 c4 10	 add	 esp, 16			; 00000010H
$LN8@GetNextFEC:

; 271  : 		}
; 272  : 		return TRUE;

  003e8	b8 01 00 00 00	 mov	 eax, 1
  003ed	e9 f7 00 00 00	 jmp	 $LN20@GetNextFEC
$LN15@GetNextFEC:

; 273  : 	}
; 274  : 	
; 275  : 	// Not First
; 276  : 
; 277  : 	if (FECRepeatsSent >= FECRepeats)

  003f2	a1 00 00 00 00	 mov	 eax, DWORD PTR _FECRepeatsSent
  003f7	3b 05 00 00 00
	00		 cmp	 eax, DWORD PTR _FECRepeats
  003fd	0f 8c c7 00 00
	00		 jl	 $LN3@GetNextFEC

; 278  : 	{
; 279  : 		// Send New Data
; 280  : 
; 281  : 		//	Need to add pause  
; 282  : 
; 283  : 		txSleep(400);

  00403	68 90 01 00 00	 push	 400			; 00000190H
  00408	e8 00 00 00 00	 call	 _txSleep
  0040d	83 c4 04	 add	 esp, 4

; 284  : 
; 285  : 		if ((Now - dttLastFECIDSent) > 600000)		// 10 Mins

  00410	e8 00 00 00 00	 call	 _getTicks
  00415	2b 05 00 00 00
	00		 sub	 eax, DWORD PTR _dttLastFECIDSent
  0041b	3d c0 27 09 00	 cmp	 eax, 600000		; 000927c0H
  00420	76 47		 jbe	 SHORT $LN2@GetNextFEC

; 286  : 		{
; 287  : 			// Send ID every 10 Mins
; 288  : 
; 289  : 			unsigned char bytEncodedBytes[16];
; 290  : 
; 291  : 			EncLen = Encode4FSKIDFrame(Callsign, GridSquare, bytEncodedBytes);

  00422	8d 85 54 ff ff
	ff		 lea	 eax, DWORD PTR _bytEncodedBytes$5543[ebp]
  00428	50		 push	 eax
  00429	68 00 00 00 00	 push	 OFFSET _GridSquare
  0042e	68 00 00 00 00	 push	 OFFSET _Callsign
  00433	e8 00 00 00 00	 call	 _Encode4FSKIDFrame
  00438	83 c4 0c	 add	 esp, 12			; 0000000cH
  0043b	a3 00 00 00 00	 mov	 DWORD PTR _EncLen, eax

; 292  : 			Mod4FSKDataAndPlay(0x30, &bytEncodedBytes[0], 16, 0);		// only returns when all sent

  00440	6a 00		 push	 0
  00442	6a 10		 push	 16			; 00000010H
  00444	8d 85 54 ff ff
	ff		 lea	 eax, DWORD PTR _bytEncodedBytes$5543[ebp]
  0044a	50		 push	 eax
  0044b	6a 30		 push	 48			; 00000030H
  0044d	e8 00 00 00 00	 call	 _Mod4FSKDataAndPlay
  00452	83 c4 10	 add	 esp, 16			; 00000010H

; 293  : 
; 294  : 			dttLastFECIDSent = Now;

  00455	e8 00 00 00 00	 call	 _getTicks
  0045a	a3 00 00 00 00	 mov	 DWORD PTR _dttLastFECIDSent, eax

; 295  : 			return TRUE;

  0045f	b8 01 00 00 00	 mov	 eax, 1
  00464	e9 80 00 00 00	 jmp	 $LN20@GetNextFEC
$LN2@GetNextFEC:

; 296  : 		}
; 297  : 
; 298  : 		FrameInfo(bytLastFECDataFrameSent, &blnOdd, &intNumCar, strMod, &intBaud, &intDataLen, &intRSLen, &bytMinQualThresh, strType);

  00469	8d 45 9c	 lea	 eax, DWORD PTR _strType$[ebp]
  0046c	50		 push	 eax
  0046d	68 00 00 00 00	 push	 OFFSET _bytMinQualThresh
  00472	8d 4d c4	 lea	 ecx, DWORD PTR _intRSLen$[ebp]
  00475	51		 push	 ecx
  00476	8d 55 d0	 lea	 edx, DWORD PTR _intDataLen$[ebp]
  00479	52		 push	 edx
  0047a	8d 45 dc	 lea	 eax, DWORD PTR _intBaud$[ebp]
  0047d	50		 push	 eax
  0047e	8d 4d 84	 lea	 ecx, DWORD PTR _strMod$[ebp]
  00481	51		 push	 ecx
  00482	8d 55 e8	 lea	 edx, DWORD PTR _intNumCar$[ebp]
  00485	52		 push	 edx
  00486	8d 45 b8	 lea	 eax, DWORD PTR _blnOdd$[ebp]
  00489	50		 push	 eax
  0048a	8a 0d 00 00 00
	00		 mov	 cl, BYTE PTR _bytLastFECDataFrameSent
  00490	51		 push	 ecx
  00491	e8 00 00 00 00	 call	 _FrameInfo
  00496	83 c4 24	 add	 esp, 36			; 00000024H

; 299  : 
; 300  : 		Len = intDataLen * intNumCar;

  00499	8b 45 d0	 mov	 eax, DWORD PTR _intDataLen$[ebp]
  0049c	0f af 45 e8	 imul	 eax, DWORD PTR _intNumCar$[ebp]
  004a0	89 45 f4	 mov	 DWORD PTR _Len$[ebp], eax

; 301  : 
; 302  : 		if (Len > bytDataToSendLength)

  004a3	8b 45 f4	 mov	 eax, DWORD PTR _Len$[ebp]
  004a6	3b 05 00 00 00
	00		 cmp	 eax, DWORD PTR _bytDataToSendLength
  004ac	7e 08		 jle	 SHORT $LN1@GetNextFEC

; 303  : 			Len = bytDataToSendLength;

  004ae	a1 00 00 00 00	 mov	 eax, DWORD PTR _bytDataToSendLength
  004b3	89 45 f4	 mov	 DWORD PTR _Len$[ebp], eax
$LN1@GetNextFEC:

; 304  : 
; 305  : 		bytLastFECDataFrameSent = bytLastFECDataFrameSent ^ 1;

  004b6	0f b6 05 00 00
	00 00		 movzx	 eax, BYTE PTR _bytLastFECDataFrameSent
  004bd	83 f0 01	 xor	 eax, 1
  004c0	a2 00 00 00 00	 mov	 BYTE PTR _bytLastFECDataFrameSent, al

; 306  : 		goto sendit;

  004c5	e9 09 fd ff ff	 jmp	 $sendit$5527
$LN3@GetNextFEC:

; 307  : 	}
; 308  : 		
; 309  : 	// just a repeat of the last frame so no changes to samples...just inc frames Sent
; 310  : 
; 311  : 	FECRepeatsSent++;

  004ca	a1 00 00 00 00	 mov	 eax, DWORD PTR _FECRepeatsSent
  004cf	83 c0 01	 add	 eax, 1
  004d2	a3 00 00 00 00	 mov	 DWORD PTR _FECRepeatsSent, eax

; 312  : 	intFECFramesSent++;

  004d7	a1 00 00 00 00	 mov	 eax, DWORD PTR _intFECFramesSent
  004dc	83 c0 01	 add	 eax, 1
  004df	a3 00 00 00 00	 mov	 DWORD PTR _intFECFramesSent, eax

; 313  : 
; 314  : 	return TRUE;

  004e4	b8 01 00 00 00	 mov	 eax, 1
$LN20@GetNextFEC:

; 315  : }

  004e9	52		 push	 edx
  004ea	8b cd		 mov	 ecx, ebp
  004ec	50		 push	 eax
  004ed	8d 15 00 00 00
	00		 lea	 edx, DWORD PTR $LN32@GetNextFEC
  004f3	e8 00 00 00 00	 call	 @_RTC_CheckStackVars@8
  004f8	58		 pop	 eax
  004f9	5a		 pop	 edx
  004fa	5f		 pop	 edi
  004fb	5e		 pop	 esi
  004fc	5b		 pop	 ebx
  004fd	8b 4d fc	 mov	 ecx, DWORD PTR __$ArrayPad$[ebp]
  00500	33 cd		 xor	 ecx, ebp
  00502	e8 00 00 00 00	 call	 @__security_check_cookie@4
  00507	81 c4 70 01 00
	00		 add	 esp, 368		; 00000170H
  0050d	3b ec		 cmp	 ebp, esp
  0050f	e8 00 00 00 00	 call	 __RTC_CheckEsp
  00514	8b e5		 mov	 esp, ebp
  00516	5d		 pop	 ebp
  00517	c3		 ret	 0
$LN32@GetNextFEC:
  00518	09 00 00 00	 DD	 9
  0051c	00 00 00 00	 DD	 $LN31@GetNextFEC
$LN31@GetNextFEC:
  00520	e8 ff ff ff	 DD	 -24			; ffffffe8H
  00524	04 00 00 00	 DD	 4
  00528	00 00 00 00	 DD	 $LN22@GetNextFEC
  0052c	dc ff ff ff	 DD	 -36			; ffffffdcH
  00530	04 00 00 00	 DD	 4
  00534	00 00 00 00	 DD	 $LN23@GetNextFEC
  00538	d0 ff ff ff	 DD	 -48			; ffffffd0H
  0053c	04 00 00 00	 DD	 4
  00540	00 00 00 00	 DD	 $LN24@GetNextFEC
  00544	c4 ff ff ff	 DD	 -60			; ffffffc4H
  00548	04 00 00 00	 DD	 4
  0054c	00 00 00 00	 DD	 $LN25@GetNextFEC
  00550	b8 ff ff ff	 DD	 -72			; ffffffb8H
  00554	04 00 00 00	 DD	 4
  00558	00 00 00 00	 DD	 $LN26@GetNextFEC
  0055c	9c ff ff ff	 DD	 -100			; ffffff9cH
  00560	12 00 00 00	 DD	 18			; 00000012H
  00564	00 00 00 00	 DD	 $LN27@GetNextFEC
  00568	84 ff ff ff	 DD	 -124			; ffffff84H
  0056c	10 00 00 00	 DD	 16			; 00000010H
  00570	00 00 00 00	 DD	 $LN28@GetNextFEC
  00574	6c ff ff ff	 DD	 -148			; ffffff6cH
  00578	10 00 00 00	 DD	 16			; 00000010H
  0057c	00 00 00 00	 DD	 $LN29@GetNextFEC
  00580	54 ff ff ff	 DD	 -172			; ffffff54H
  00584	10 00 00 00	 DD	 16			; 00000010H
  00588	00 00 00 00	 DD	 $LN30@GetNextFEC
$LN30@GetNextFEC:
  0058c	62		 DB	 98			; 00000062H
  0058d	79		 DB	 121			; 00000079H
  0058e	74		 DB	 116			; 00000074H
  0058f	45		 DB	 69			; 00000045H
  00590	6e		 DB	 110			; 0000006eH
  00591	63		 DB	 99			; 00000063H
  00592	6f		 DB	 111			; 0000006fH
  00593	64		 DB	 100			; 00000064H
  00594	65		 DB	 101			; 00000065H
  00595	64		 DB	 100			; 00000064H
  00596	42		 DB	 66			; 00000042H
  00597	79		 DB	 121			; 00000079H
  00598	74		 DB	 116			; 00000074H
  00599	65		 DB	 101			; 00000065H
  0059a	73		 DB	 115			; 00000073H
  0059b	00		 DB	 0
$LN29@GetNextFEC:
  0059c	46		 DB	 70			; 00000046H
  0059d	75		 DB	 117			; 00000075H
  0059e	6c		 DB	 108			; 0000006cH
  0059f	6c		 DB	 108			; 0000006cH
  005a0	54		 DB	 84			; 00000054H
  005a1	79		 DB	 121			; 00000079H
  005a2	70		 DB	 112			; 00000070H
  005a3	65		 DB	 101			; 00000065H
  005a4	00		 DB	 0
$LN28@GetNextFEC:
  005a5	73		 DB	 115			; 00000073H
  005a6	74		 DB	 116			; 00000074H
  005a7	72		 DB	 114			; 00000072H
  005a8	4d		 DB	 77			; 0000004dH
  005a9	6f		 DB	 111			; 0000006fH
  005aa	64		 DB	 100			; 00000064H
  005ab	00		 DB	 0
$LN27@GetNextFEC:
  005ac	73		 DB	 115			; 00000073H
  005ad	74		 DB	 116			; 00000074H
  005ae	72		 DB	 114			; 00000072H
  005af	54		 DB	 84			; 00000054H
  005b0	79		 DB	 121			; 00000079H
  005b1	70		 DB	 112			; 00000070H
  005b2	65		 DB	 101			; 00000065H
  005b3	00		 DB	 0
$LN26@GetNextFEC:
  005b4	62		 DB	 98			; 00000062H
  005b5	6c		 DB	 108			; 0000006cH
  005b6	6e		 DB	 110			; 0000006eH
  005b7	4f		 DB	 79			; 0000004fH
  005b8	64		 DB	 100			; 00000064H
  005b9	64		 DB	 100			; 00000064H
  005ba	00		 DB	 0
$LN25@GetNextFEC:
  005bb	69		 DB	 105			; 00000069H
  005bc	6e		 DB	 110			; 0000006eH
  005bd	74		 DB	 116			; 00000074H
  005be	52		 DB	 82			; 00000052H
  005bf	53		 DB	 83			; 00000053H
  005c0	4c		 DB	 76			; 0000004cH
  005c1	65		 DB	 101			; 00000065H
  005c2	6e		 DB	 110			; 0000006eH
  005c3	00		 DB	 0
$LN24@GetNextFEC:
  005c4	69		 DB	 105			; 00000069H
  005c5	6e		 DB	 110			; 0000006eH
  005c6	74		 DB	 116			; 00000074H
  005c7	44		 DB	 68			; 00000044H
  005c8	61		 DB	 97			; 00000061H
  005c9	74		 DB	 116			; 00000074H
  005ca	61		 DB	 97			; 00000061H
  005cb	4c		 DB	 76			; 0000004cH
  005cc	65		 DB	 101			; 00000065H
  005cd	6e		 DB	 110			; 0000006eH
  005ce	00		 DB	 0
$LN23@GetNextFEC:
  005cf	69		 DB	 105			; 00000069H
  005d0	6e		 DB	 110			; 0000006eH
  005d1	74		 DB	 116			; 00000074H
  005d2	42		 DB	 66			; 00000042H
  005d3	61		 DB	 97			; 00000061H
  005d4	75		 DB	 117			; 00000075H
  005d5	64		 DB	 100			; 00000064H
  005d6	00		 DB	 0
$LN22@GetNextFEC:
  005d7	69		 DB	 105			; 00000069H
  005d8	6e		 DB	 110			; 0000006eH
  005d9	74		 DB	 116			; 00000074H
  005da	4e		 DB	 78			; 0000004eH
  005db	75		 DB	 117			; 00000075H
  005dc	6d		 DB	 109			; 0000006dH
  005dd	43		 DB	 67			; 00000043H
  005de	61		 DB	 97			; 00000061H
  005df	72		 DB	 114			; 00000072H
  005e0	00		 DB	 0
_GetNextFECFrame ENDP
_TEXT	ENDS
PUBLIC	??_C@_0FH@GOBFGOBK@?$FLARDOPprotocol?4ProcessRcvdFECDat@ ; `string'
PUBLIC	??_C@_03MNMBHEOP@FEC?$AA@			; `string'
PUBLIC	??_C@_0FD@BGFFGKPD@?$FLARDOPprotocol?4ProcessRcvdFECDat@ ; `string'
PUBLIC	??_C@_03JFMEENOE@ERR?$AA@			; `string'
PUBLIC	??_C@_0GA@KLDLLKN@?$FLARDOPprotocol?4ProcessRcvdFECDat@ ; `string'
PUBLIC	_ProcessRcvdFECDataFrame
EXTRN	_memcpy:PROC
EXTRN	_AddTagToDataAndSendToHost:PROC
EXTRN	_intLastFailedFrameID:DWORD
EXTRN	_Name:PROC
EXTRN	_CommandTrace:DWORD
EXTRN	_intLastFrameIDToHost:DWORD
EXTRN	_GenCRC16:PROC
EXTRN	_frameLen:DWORD
;	COMDAT ??_C@_0FH@GOBFGOBK@?$FLARDOPprotocol?4ProcessRcvdFECDat@
CONST	SEGMENT
??_C@_0FH@GOBFGOBK@?$FLARDOPprotocol?4ProcessRcvdFECDat@ DB '[ARDOPprotoc'
	DB	'ol.ProcessRcvdFECDataFrame] Pass good data frame  ID %s to Ho'
	DB	'st (%d bytes)', 00H				; `string'
CONST	ENDS
;	COMDAT ??_C@_03MNMBHEOP@FEC?$AA@
CONST	SEGMENT
??_C@_03MNMBHEOP@FEC?$AA@ DB 'FEC', 00H			; `string'
CONST	ENDS
;	COMDAT ??_C@_0FD@BGFFGKPD@?$FLARDOPprotocol?4ProcessRcvdFECDat@
CONST	SEGMENT
??_C@_0FD@BGFFGKPD@?$FLARDOPprotocol?4ProcessRcvdFECDat@ DB '[ARDOPprotoc'
	DB	'ol.ProcessRcvdFECDataFrame] Pass failed frame ID %s to Host ('
	DB	'%d bytes)', 00H				; `string'
CONST	ENDS
;	COMDAT ??_C@_03JFMEENOE@ERR?$AA@
CONST	SEGMENT
??_C@_03JFMEENOE@ERR?$AA@ DB 'ERR', 00H			; `string'
CONST	ENDS
;	COMDAT ??_C@_0GA@KLDLLKN@?$FLARDOPprotocol?4ProcessRcvdFECDat@
CONST	SEGMENT
??_C@_0GA@KLDLLKN@?$FLARDOPprotocol?4ProcessRcvdFECDat@ DB '[ARDOPprotoco'
	DB	'l.ProcessRcvdFECDataFrame] Same Frame ID: %s and matching dat'
	DB	'a, not passed to Host', 00H			; `string'
; Function compile flags: /Odtp /RTCsu /ZI
CONST	ENDS
;	COMDAT _ProcessRcvdFECDataFrame
_TEXT	SEGMENT
_CRC$5554 = -8						; size = 4
_intFrameType$ = 8					; size = 4
_bytData$ = 12						; size = 4
_blnFrameDecodedOK$ = 16				; size = 4
_ProcessRcvdFECDataFrame PROC				; COMDAT

; 322  : {

  00000	55		 push	 ebp
  00001	8b ec		 mov	 ebp, esp
  00003	81 ec cc 00 00
	00		 sub	 esp, 204		; 000000ccH
  00009	53		 push	 ebx
  0000a	56		 push	 esi
  0000b	57		 push	 edi
  0000c	8d bd 34 ff ff
	ff		 lea	 edi, DWORD PTR [ebp-204]
  00012	b9 33 00 00 00	 mov	 ecx, 51			; 00000033H
  00017	b8 cc cc cc cc	 mov	 eax, -858993460		; ccccccccH
  0001c	f3 ab		 rep stosd

; 323  : 	// Determine if this frame should be passed to Host.
; 324  : 
; 325  : 	if (blnFrameDecodedOK)

  0001e	83 7d 10 00	 cmp	 DWORD PTR _blnFrameDecodedOK$[ebp], 0
  00022	0f 84 45 01 00
	00		 je	 $LN11@ProcessRcv

; 326  : 	{
; 327  : 		int CRC = GenCRC16(bytData, frameLen);

  00028	66 a1 00 00 00
	00		 mov	 ax, WORD PTR _frameLen
  0002e	50		 push	 eax
  0002f	8b 4d 0c	 mov	 ecx, DWORD PTR _bytData$[ebp]
  00032	51		 push	 ecx
  00033	e8 00 00 00 00	 call	 _GenCRC16
  00038	83 c4 08	 add	 esp, 8
  0003b	89 45 f8	 mov	 DWORD PTR _CRC$5554[ebp], eax

; 328  : 		
; 329  : 		if (intFrameType == intLastFrameIDToHost && CRC == crcLastFECDataPassedToHost)

  0003e	8b 45 08	 mov	 eax, DWORD PTR _intFrameType$[ebp]
  00041	3b 05 00 00 00
	00		 cmp	 eax, DWORD PTR _intLastFrameIDToHost
  00047	75 35		 jne	 SHORT $LN10@ProcessRcv
  00049	8b 45 f8	 mov	 eax, DWORD PTR _CRC$5554[ebp]
  0004c	3b 05 00 00 00
	00		 cmp	 eax, DWORD PTR _crcLastFECDataPassedToHost
  00052	75 2a		 jne	 SHORT $LN10@ProcessRcv

; 330  : 		{
; 331  : 			if (CommandTrace) WriteDebugLog(LOGINFO, "[ARDOPprotocol.ProcessRcvdFECDataFrame] Same Frame ID: %s and matching data, not passed to Host", Name(intFrameType));

  00054	83 3d 00 00 00
	00 00		 cmp	 DWORD PTR _CommandTrace, 0
  0005b	74 1c		 je	 SHORT $LN9@ProcessRcv
  0005d	8a 45 08	 mov	 al, BYTE PTR _intFrameType$[ebp]
  00060	50		 push	 eax
  00061	e8 00 00 00 00	 call	 _Name
  00066	83 c4 04	 add	 esp, 4
  00069	50		 push	 eax
  0006a	68 00 00 00 00	 push	 OFFSET ??_C@_0GA@KLDLLKN@?$FLARDOPprotocol?4ProcessRcvdFECDat@
  0006f	6a 06		 push	 6
  00071	e8 00 00 00 00	 call	 _WriteDebugLog
  00076	83 c4 0c	 add	 esp, 12			; 0000000cH
$LN9@ProcessRcv:

; 332  : 			return;

  00079	e9 b5 01 00 00	 jmp	 $LN12@ProcessRcv
$LN10@ProcessRcv:

; 333  : 		}
; 334  : 		
; 335  : 		if (bytFailedDataLength > 0 && intLastFailedFrameID != intFrameType)

  0007e	83 3d 00 00 00
	00 00		 cmp	 DWORD PTR _bytFailedDataLength, 0
  00085	7e 61		 jle	 SHORT $LN8@ProcessRcv
  00087	a1 00 00 00 00	 mov	 eax, DWORD PTR _intLastFailedFrameID
  0008c	3b 45 08	 cmp	 eax, DWORD PTR _intFrameType$[ebp]
  0008f	74 57		 je	 SHORT $LN8@ProcessRcv

; 336  : 		{
; 337  : 			AddTagToDataAndSendToHost(bytFailedData, "ERR", bytFailedDataLength);

  00091	a1 00 00 00 00	 mov	 eax, DWORD PTR _bytFailedDataLength
  00096	50		 push	 eax
  00097	68 00 00 00 00	 push	 OFFSET ??_C@_03JFMEENOE@ERR?$AA@
  0009c	68 00 00 00 00	 push	 OFFSET _bytFailedData
  000a1	e8 00 00 00 00	 call	 _AddTagToDataAndSendToHost
  000a6	83 c4 0c	 add	 esp, 12			; 0000000cH

; 338  : 			if (CommandTrace) WriteDebugLog(LOGINFO, "[ARDOPprotocol.ProcessRcvdFECDataFrame] Pass failed frame ID %s to Host (%d bytes)", Name(intFrameType), bytFailedDataLength);

  000a9	83 3d 00 00 00
	00 00		 cmp	 DWORD PTR _CommandTrace, 0
  000b0	74 22		 je	 SHORT $LN7@ProcessRcv
  000b2	a1 00 00 00 00	 mov	 eax, DWORD PTR _bytFailedDataLength
  000b7	50		 push	 eax
  000b8	8a 4d 08	 mov	 cl, BYTE PTR _intFrameType$[ebp]
  000bb	51		 push	 ecx
  000bc	e8 00 00 00 00	 call	 _Name
  000c1	83 c4 04	 add	 esp, 4
  000c4	50		 push	 eax
  000c5	68 00 00 00 00	 push	 OFFSET ??_C@_0FD@BGFFGKPD@?$FLARDOPprotocol?4ProcessRcvdFECDat@
  000ca	6a 06		 push	 6
  000cc	e8 00 00 00 00	 call	 _WriteDebugLog
  000d1	83 c4 10	 add	 esp, 16			; 00000010H
$LN7@ProcessRcv:

; 339  : 			bytFailedDataLength = 0;

  000d4	c7 05 00 00 00
	00 00 00 00 00	 mov	 DWORD PTR _bytFailedDataLength, 0

; 340  : 			intLastFailedFrameID = -1;

  000de	c7 05 00 00 00
	00 ff ff ff ff	 mov	 DWORD PTR _intLastFailedFrameID, -1
$LN8@ProcessRcv:

; 341  : 		}
; 342  : 
; 343  : 
; 344  : 		AddTagToDataAndSendToHost(bytData, "FEC", frameLen);

  000e8	a1 00 00 00 00	 mov	 eax, DWORD PTR _frameLen
  000ed	50		 push	 eax
  000ee	68 00 00 00 00	 push	 OFFSET ??_C@_03MNMBHEOP@FEC?$AA@
  000f3	8b 4d 0c	 mov	 ecx, DWORD PTR _bytData$[ebp]
  000f6	51		 push	 ecx
  000f7	e8 00 00 00 00	 call	 _AddTagToDataAndSendToHost
  000fc	83 c4 0c	 add	 esp, 12			; 0000000cH

; 345  : 
; 346  : 		crcLastFECDataPassedToHost = GenCRC16(bytData, frameLen);

  000ff	66 a1 00 00 00
	00		 mov	 ax, WORD PTR _frameLen
  00105	50		 push	 eax
  00106	8b 4d 0c	 mov	 ecx, DWORD PTR _bytData$[ebp]
  00109	51		 push	 ecx
  0010a	e8 00 00 00 00	 call	 _GenCRC16
  0010f	83 c4 08	 add	 esp, 8
  00112	a3 00 00 00 00	 mov	 DWORD PTR _crcLastFECDataPassedToHost, eax

; 347  : 		intLastFrameIDToHost = intFrameType;

  00117	8b 45 08	 mov	 eax, DWORD PTR _intFrameType$[ebp]
  0011a	a3 00 00 00 00	 mov	 DWORD PTR _intLastFrameIDToHost, eax

; 348  : 		if (intLastFailedFrameID == intFrameType)

  0011f	a1 00 00 00 00	 mov	 eax, DWORD PTR _intLastFailedFrameID
  00124	3b 45 08	 cmp	 eax, DWORD PTR _intFrameType$[ebp]
  00127	75 14		 jne	 SHORT $LN6@ProcessRcv

; 349  : 		{
; 350  : 			bytFailedDataLength = 0;

  00129	c7 05 00 00 00
	00 00 00 00 00	 mov	 DWORD PTR _bytFailedDataLength, 0

; 351  : 			intLastFailedFrameID = -1;

  00133	c7 05 00 00 00
	00 ff ff ff ff	 mov	 DWORD PTR _intLastFailedFrameID, -1
$LN6@ProcessRcv:

; 352  : 		}
; 353  : 
; 354  : 		if (CommandTrace) WriteDebugLog(LOGINFO, "[ARDOPprotocol.ProcessRcvdFECDataFrame] Pass good data frame  ID %s to Host (%d bytes)", Name(intFrameType), frameLen);

  0013d	83 3d 00 00 00
	00 00		 cmp	 DWORD PTR _CommandTrace, 0
  00144	74 22		 je	 SHORT $LN5@ProcessRcv
  00146	a1 00 00 00 00	 mov	 eax, DWORD PTR _frameLen
  0014b	50		 push	 eax
  0014c	8a 4d 08	 mov	 cl, BYTE PTR _intFrameType$[ebp]
  0014f	51		 push	 ecx
  00150	e8 00 00 00 00	 call	 _Name
  00155	83 c4 04	 add	 esp, 4
  00158	50		 push	 eax
  00159	68 00 00 00 00	 push	 OFFSET ??_C@_0FH@GOBFGOBK@?$FLARDOPprotocol?4ProcessRcvdFECDat@
  0015e	6a 06		 push	 6
  00160	e8 00 00 00 00	 call	 _WriteDebugLog
  00165	83 c4 10	 add	 esp, 16			; 00000010H
$LN5@ProcessRcv:

; 355  : 	}
; 356  : 	else

  00168	e9 c6 00 00 00	 jmp	 $LN12@ProcessRcv
$LN11@ProcessRcv:

; 357  : 	{
; 358  : 		// Bad Decode
; 359  : 		
; 360  : 		if (bytFailedDataLength > 0 && intLastFailedFrameID != intFrameType)

  0016d	83 3d 00 00 00
	00 00		 cmp	 DWORD PTR _bytFailedDataLength, 0
  00174	0f 8e 90 00 00
	00		 jle	 $LN3@ProcessRcv
  0017a	a1 00 00 00 00	 mov	 eax, DWORD PTR _intLastFailedFrameID
  0017f	3b 45 08	 cmp	 eax, DWORD PTR _intFrameType$[ebp]
  00182	0f 84 82 00 00
	00		 je	 $LN3@ProcessRcv

; 361  : 		{
; 362  : 			AddTagToDataAndSendToHost(bytFailedData, "ERR", bytFailedDataLength);

  00188	a1 00 00 00 00	 mov	 eax, DWORD PTR _bytFailedDataLength
  0018d	50		 push	 eax
  0018e	68 00 00 00 00	 push	 OFFSET ??_C@_03JFMEENOE@ERR?$AA@
  00193	68 00 00 00 00	 push	 OFFSET _bytFailedData
  00198	e8 00 00 00 00	 call	 _AddTagToDataAndSendToHost
  0019d	83 c4 0c	 add	 esp, 12			; 0000000cH

; 363  : 			if (CommandTrace) WriteDebugLog(LOGINFO, "[ARDOPprotocol.ProcessRcvdFECDataFrame] Pass failed frame ID %s to Host (%d bytes)", Name(intFrameType), bytFailedDataLength);

  001a0	83 3d 00 00 00
	00 00		 cmp	 DWORD PTR _CommandTrace, 0
  001a7	74 22		 je	 SHORT $LN2@ProcessRcv
  001a9	a1 00 00 00 00	 mov	 eax, DWORD PTR _bytFailedDataLength
  001ae	50		 push	 eax
  001af	8a 4d 08	 mov	 cl, BYTE PTR _intFrameType$[ebp]
  001b2	51		 push	 ecx
  001b3	e8 00 00 00 00	 call	 _Name
  001b8	83 c4 04	 add	 esp, 4
  001bb	50		 push	 eax
  001bc	68 00 00 00 00	 push	 OFFSET ??_C@_0FD@BGFFGKPD@?$FLARDOPprotocol?4ProcessRcvdFECDat@
  001c1	6a 06		 push	 6
  001c3	e8 00 00 00 00	 call	 _WriteDebugLog
  001c8	83 c4 10	 add	 esp, 16			; 00000010H
$LN2@ProcessRcv:

; 364  : 			bytFailedDataLength = 0;

  001cb	c7 05 00 00 00
	00 00 00 00 00	 mov	 DWORD PTR _bytFailedDataLength, 0

; 365  : 			intLastFrameIDToHost = intLastFailedFrameID;

  001d5	a1 00 00 00 00	 mov	 eax, DWORD PTR _intLastFailedFrameID
  001da	a3 00 00 00 00	 mov	 DWORD PTR _intLastFrameIDToHost, eax

; 366  : 			if (CommandTrace) WriteDebugLog(LOGINFO, "[ARDOPprotocol.ProcessRcvdFECDataFrame] Pass failed frame ID %s to Host (%d bytes)", Name(intFrameType), bytFailedDataLength);

  001df	83 3d 00 00 00
	00 00		 cmp	 DWORD PTR _CommandTrace, 0
  001e6	74 22		 je	 SHORT $LN3@ProcessRcv
  001e8	a1 00 00 00 00	 mov	 eax, DWORD PTR _bytFailedDataLength
  001ed	50		 push	 eax
  001ee	8a 4d 08	 mov	 cl, BYTE PTR _intFrameType$[ebp]
  001f1	51		 push	 ecx
  001f2	e8 00 00 00 00	 call	 _Name
  001f7	83 c4 04	 add	 esp, 4
  001fa	50		 push	 eax
  001fb	68 00 00 00 00	 push	 OFFSET ??_C@_0FD@BGFFGKPD@?$FLARDOPprotocol?4ProcessRcvdFECDat@
  00200	6a 06		 push	 6
  00202	e8 00 00 00 00	 call	 _WriteDebugLog
  00207	83 c4 10	 add	 esp, 16			; 00000010H
$LN3@ProcessRcv:

; 367  : 		}
; 368  : 		memcpy(bytFailedData, bytData, frameLen);	// ' capture the current data and frame type 

  0020a	a1 00 00 00 00	 mov	 eax, DWORD PTR _frameLen
  0020f	50		 push	 eax
  00210	8b 4d 0c	 mov	 ecx, DWORD PTR _bytData$[ebp]
  00213	51		 push	 ecx
  00214	68 00 00 00 00	 push	 OFFSET _bytFailedData
  00219	e8 00 00 00 00	 call	 _memcpy
  0021e	83 c4 0c	 add	 esp, 12			; 0000000cH

; 369  : 		bytFailedDataLength = frameLen;

  00221	a1 00 00 00 00	 mov	 eax, DWORD PTR _frameLen
  00226	a3 00 00 00 00	 mov	 DWORD PTR _bytFailedDataLength, eax

; 370  : 		intLastFailedFrameID = intFrameType;

  0022b	8b 45 08	 mov	 eax, DWORD PTR _intFrameType$[ebp]
  0022e	a3 00 00 00 00	 mov	 DWORD PTR _intLastFailedFrameID, eax
$LN12@ProcessRcv:

; 371  : 	}
; 372  : }

  00233	5f		 pop	 edi
  00234	5e		 pop	 esi
  00235	5b		 pop	 ebx
  00236	81 c4 cc 00 00
	00		 add	 esp, 204		; 000000ccH
  0023c	3b ec		 cmp	 ebp, esp
  0023e	e8 00 00 00 00	 call	 __RTC_CheckEsp
  00243	8b e5		 mov	 esp, ebp
  00245	5d		 pop	 ebp
  00246	c3		 ret	 0
_ProcessRcvdFECDataFrame ENDP
_TEXT	ENDS
END
