; Listing generated by Microsoft (R) Optimizing Compiler Version 14.00.50727.762 

	TITLE	c:\Users\John\OneDrive\Dev\Source\ARDOPC\FFT.c
	.686P
	.XMM
	include listing.inc
	.model	flat

INCLUDELIB LIBCMTD
INCLUDELIB OLDNAMES

PUBLIC	_ipow
EXTRN	__RTC_Shutdown:PROC
EXTRN	__RTC_InitBase:PROC
;	COMDAT rtc$TMZ
; File c:\users\john\onedrive\dev\source\ardopc\fft.c
rtc$TMZ	SEGMENT
__RTC_Shutdown.rtc$TMZ DD FLAT:__RTC_Shutdown
rtc$TMZ	ENDS
;	COMDAT rtc$IMZ
rtc$IMZ	SEGMENT
__RTC_InitBase.rtc$IMZ DD FLAT:__RTC_InitBase
; Function compile flags: /Odtp /RTCsu /ZI
rtc$IMZ	ENDS
;	COMDAT _ipow
_TEXT	SEGMENT
_result$ = -8						; size = 4
_base$ = 8						; size = 4
_exp$ = 12						; size = 4
_ipow	PROC						; COMDAT

; 64   : {

  00000	55		 push	 ebp
  00001	8b ec		 mov	 ebp, esp
  00003	81 ec cc 00 00
	00		 sub	 esp, 204		; 000000ccH
  00009	53		 push	 ebx
  0000a	56		 push	 esi
  0000b	57		 push	 edi
  0000c	8d bd 34 ff ff
	ff		 lea	 edi, DWORD PTR [ebp-204]
  00012	b9 33 00 00 00	 mov	 ecx, 51			; 00000033H
  00017	b8 cc cc cc cc	 mov	 eax, -858993460		; ccccccccH
  0001c	f3 ab		 rep stosd

; 65   :     int result = 1;

  0001e	c7 45 f8 01 00
	00 00		 mov	 DWORD PTR _result$[ebp], 1
$LN3@ipow:

; 66   :     while (exp)

  00025	83 7d 0c 00	 cmp	 DWORD PTR _exp$[ebp], 0
  00029	74 26		 je	 SHORT $LN2@ipow

; 67   :     {
; 68   :         if (exp & 1)

  0002b	8b 45 0c	 mov	 eax, DWORD PTR _exp$[ebp]
  0002e	83 e0 01	 and	 eax, 1
  00031	74 0a		 je	 SHORT $LN1@ipow

; 69   :             result *= base;

  00033	8b 45 f8	 mov	 eax, DWORD PTR _result$[ebp]
  00036	0f af 45 08	 imul	 eax, DWORD PTR _base$[ebp]
  0003a	89 45 f8	 mov	 DWORD PTR _result$[ebp], eax
$LN1@ipow:

; 70   :         exp >>= 1;

  0003d	8b 45 0c	 mov	 eax, DWORD PTR _exp$[ebp]
  00040	d1 f8		 sar	 eax, 1
  00042	89 45 0c	 mov	 DWORD PTR _exp$[ebp], eax

; 71   :         base *= base;

  00045	8b 45 08	 mov	 eax, DWORD PTR _base$[ebp]
  00048	0f af 45 08	 imul	 eax, DWORD PTR _base$[ebp]
  0004c	89 45 08	 mov	 DWORD PTR _base$[ebp], eax

; 72   :     }

  0004f	eb d4		 jmp	 SHORT $LN3@ipow
$LN2@ipow:

; 73   : 
; 74   :     return result;

  00051	8b 45 f8	 mov	 eax, DWORD PTR _result$[ebp]

; 75   : }

  00054	5f		 pop	 edi
  00055	5e		 pop	 esi
  00056	5b		 pop	 ebx
  00057	8b e5		 mov	 esp, ebp
  00059	5d		 pop	 ebp
  0005a	c3		 ret	 0
_ipow	ENDP
_TEXT	ENDS
PUBLIC	_NumberOfBitsNeeded
EXTRN	__RTC_CheckEsp:PROC
; Function compile flags: /Odtp /RTCsu /ZI
;	COMDAT _NumberOfBitsNeeded
_TEXT	SEGMENT
_i$ = -8						; size = 4
_PowerOfTwo$ = 8					; size = 4
_NumberOfBitsNeeded PROC				; COMDAT

; 78   : {

  00000	55		 push	 ebp
  00001	8b ec		 mov	 ebp, esp
  00003	81 ec cc 00 00
	00		 sub	 esp, 204		; 000000ccH
  00009	53		 push	 ebx
  0000a	56		 push	 esi
  0000b	57		 push	 edi
  0000c	8d bd 34 ff ff
	ff		 lea	 edi, DWORD PTR [ebp-204]
  00012	b9 33 00 00 00	 mov	 ecx, 51			; 00000033H
  00017	b8 cc cc cc cc	 mov	 eax, -858993460		; ccccccccH
  0001c	f3 ab		 rep stosd

; 79   : 	int i;
; 80   : 
; 81   : 	for (i = 0; i <= 16; i++)

  0001e	c7 45 f8 00 00
	00 00		 mov	 DWORD PTR _i$[ebp], 0
  00025	eb 09		 jmp	 SHORT $LN4@NumberOfBi
$LN3@NumberOfBi:
  00027	8b 45 f8	 mov	 eax, DWORD PTR _i$[ebp]
  0002a	83 c0 01	 add	 eax, 1
  0002d	89 45 f8	 mov	 DWORD PTR _i$[ebp], eax
$LN4@NumberOfBi:
  00030	83 7d f8 10	 cmp	 DWORD PTR _i$[ebp], 16	; 00000010H
  00034	7f 1a		 jg	 SHORT $LN2@NumberOfBi

; 82   : 	{
; 83   : 		if ((PowerOfTwo & ipow(2, i)) != 0)

  00036	8b 45 f8	 mov	 eax, DWORD PTR _i$[ebp]
  00039	50		 push	 eax
  0003a	6a 02		 push	 2
  0003c	e8 00 00 00 00	 call	 _ipow
  00041	83 c4 08	 add	 esp, 8
  00044	23 45 08	 and	 eax, DWORD PTR _PowerOfTwo$[ebp]
  00047	74 05		 je	 SHORT $LN1@NumberOfBi

; 84   : 			return i;

  00049	8b 45 f8	 mov	 eax, DWORD PTR _i$[ebp]
  0004c	eb 04		 jmp	 SHORT $LN5@NumberOfBi
$LN1@NumberOfBi:

; 85   : 		
; 86   : 	}	

  0004e	eb d7		 jmp	 SHORT $LN3@NumberOfBi
$LN2@NumberOfBi:

; 87   : 	return 0;

  00050	33 c0		 xor	 eax, eax
$LN5@NumberOfBi:

; 88   : }

  00052	5f		 pop	 edi
  00053	5e		 pop	 esi
  00054	5b		 pop	 ebx
  00055	81 c4 cc 00 00
	00		 add	 esp, 204		; 000000ccH
  0005b	3b ec		 cmp	 ebp, esp
  0005d	e8 00 00 00 00	 call	 __RTC_CheckEsp
  00062	8b e5		 mov	 esp, ebp
  00064	5d		 pop	 ebp
  00065	c3		 ret	 0
_NumberOfBitsNeeded ENDP
_TEXT	ENDS
PUBLIC	_ReverseBits
; Function compile flags: /Odtp /RTCsu /ZI
;	COMDAT _ReverseBits
_TEXT	SEGMENT
_Rev$ = -20						; size = 4
_i$ = -8						; size = 4
_Index$ = 8						; size = 4
_NumBits$ = 12						; size = 4
_ReverseBits PROC					; COMDAT

; 92   : {

  00000	55		 push	 ebp
  00001	8b ec		 mov	 ebp, esp
  00003	81 ec d8 00 00
	00		 sub	 esp, 216		; 000000d8H
  00009	53		 push	 ebx
  0000a	56		 push	 esi
  0000b	57		 push	 edi
  0000c	8d bd 28 ff ff
	ff		 lea	 edi, DWORD PTR [ebp-216]
  00012	b9 36 00 00 00	 mov	 ecx, 54			; 00000036H
  00017	b8 cc cc cc cc	 mov	 eax, -858993460		; ccccccccH
  0001c	f3 ab		 rep stosd

; 93   : 	int i, Rev = 0;

  0001e	c7 45 ec 00 00
	00 00		 mov	 DWORD PTR _Rev$[ebp], 0

; 94   : 	
; 95   :     for (i = 0; i < NumBits; i++)

  00025	c7 45 f8 00 00
	00 00		 mov	 DWORD PTR _i$[ebp], 0
  0002c	eb 09		 jmp	 SHORT $LN3@ReverseBit
$LN2@ReverseBit:
  0002e	8b 45 f8	 mov	 eax, DWORD PTR _i$[ebp]
  00031	83 c0 01	 add	 eax, 1
  00034	89 45 f8	 mov	 DWORD PTR _i$[ebp], eax
$LN3@ReverseBit:
  00037	8b 45 f8	 mov	 eax, DWORD PTR _i$[ebp]
  0003a	3b 45 0c	 cmp	 eax, DWORD PTR _NumBits$[ebp]
  0003d	7d 1d		 jge	 SHORT $LN1@ReverseBit

; 96   : 	{
; 97   : 		Rev = (Rev * 2) | (Index & 1);

  0003f	8b 45 ec	 mov	 eax, DWORD PTR _Rev$[ebp]
  00042	d1 e0		 shl	 eax, 1
  00044	8b 4d 08	 mov	 ecx, DWORD PTR _Index$[ebp]
  00047	83 e1 01	 and	 ecx, 1
  0004a	0b c1		 or	 eax, ecx
  0004c	89 45 ec	 mov	 DWORD PTR _Rev$[ebp], eax

; 98   : 		Index = Index /2;

  0004f	8b 45 08	 mov	 eax, DWORD PTR _Index$[ebp]
  00052	99		 cdq
  00053	2b c2		 sub	 eax, edx
  00055	d1 f8		 sar	 eax, 1
  00057	89 45 08	 mov	 DWORD PTR _Index$[ebp], eax

; 99   : 	}

  0005a	eb d2		 jmp	 SHORT $LN2@ReverseBit
$LN1@ReverseBit:

; 100  : 
; 101  :     return Rev;

  0005c	8b 45 ec	 mov	 eax, DWORD PTR _Rev$[ebp]

; 102  : }

  0005f	5f		 pop	 edi
  00060	5e		 pop	 esi
  00061	5b		 pop	 ebx
  00062	8b e5		 mov	 esp, ebp
  00064	5d		 pop	 ebp
  00065	c3		 ret	 0
_ReverseBits ENDP
_TEXT	ENDS
PUBLIC	__real@3f800000
PUBLIC	__real@4000000000000000
PUBLIC	__real@3fe0000000000000
PUBLIC	__real@00000000
PUBLIC	__real@40c90fda
PUBLIC	__real@c0c90fda
PUBLIC	_FourierTransform
EXTRN	_sin:PROC
EXTRN	__fltused:DWORD
;	COMDAT __real@3f800000
CONST	SEGMENT
__real@3f800000 DD 03f800000r			; 1
CONST	ENDS
;	COMDAT __real@4000000000000000
CONST	SEGMENT
__real@4000000000000000 DQ 04000000000000000r	; 2
CONST	ENDS
;	COMDAT __real@3fe0000000000000
CONST	SEGMENT
__real@3fe0000000000000 DQ 03fe0000000000000r	; 0.5
CONST	ENDS
;	COMDAT __real@00000000
CONST	SEGMENT
__real@00000000 DD 000000000r			; 0
CONST	ENDS
;	COMDAT __real@40c90fda
CONST	SEGMENT
__real@40c90fda DD 040c90fdar			; 6.28319
CONST	ENDS
;	COMDAT __real@c0c90fda
CONST	SEGMENT
__real@c0c90fda DD 0c0c90fdar			; -6.28319
; Function compile flags: /Odtp /RTCsu /ZI
CONST	ENDS
;	COMDAT _FourierTransform
_TEXT	SEGMENT
tv278 = -388						; size = 4
tv270 = -388						; size = 4
tv255 = -388						; size = 4
_AI$ = -188						; size = 4
_AR$ = -176						; size = 4
_TI$ = -164						; size = 4
_TR$ = -152						; size = 4
_Beta$ = -140						; size = 4
_Alpha$ = -128						; size = 4
_DeltaAr$ = -116					; size = 4
_DeltaAngle$ = -104					; size = 4
_BlockEnd$ = -92					; size = 4
_BlockSize$ = -80					; size = 4
_n$ = -68						; size = 4
_K$ = -56						; size = 4
_j$ = -44						; size = 4
_I$ = -32						; size = 4
_NumBits$ = -17						; size = 1
_AngleNumerator$ = -8					; size = 4
_NumSamples$ = 8					; size = 4
_RealIn$ = 12						; size = 4
_RealOut$ = 16						; size = 4
_ImagOut$ = 20						; size = 4
_InverseTransform$ = 24					; size = 4
_FourierTransform PROC					; COMDAT

; 105  : {

  00000	55		 push	 ebp
  00001	8b ec		 mov	 ebp, esp
  00003	81 ec 84 01 00
	00		 sub	 esp, 388		; 00000184H
  00009	53		 push	 ebx
  0000a	56		 push	 esi
  0000b	57		 push	 edi
  0000c	8d bd 7c fe ff
	ff		 lea	 edi, DWORD PTR [ebp-388]
  00012	b9 61 00 00 00	 mov	 ecx, 97			; 00000061H
  00017	b8 cc cc cc cc	 mov	 eax, -858993460		; ccccccccH
  0001c	f3 ab		 rep stosd

; 106  : 	float AngleNumerator;
; 107  : 	unsigned char NumBits;
; 108  : 	
; 109  : 	int I, j, K, n, BlockSize, BlockEnd;
; 110  : 	float DeltaAngle, DeltaAr;
; 111  : 	float Alpha, Beta;
; 112  : 	float TR, TI, AR, AI;
; 113  : 	
; 114  : 	if (InverseTransform)

  0001e	83 7d 18 00	 cmp	 DWORD PTR _InverseTransform$[ebp], 0
  00022	74 0b		 je	 SHORT $LN16@FourierTra

; 115  : 		AngleNumerator = -2.0f * M_PI;

  00024	d9 05 00 00 00
	00		 fld	 DWORD PTR __real@c0c90fda
  0002a	d9 5d f8	 fstp	 DWORD PTR _AngleNumerator$[ebp]

; 116  : 	else

  0002d	eb 09		 jmp	 SHORT $LN15@FourierTra
$LN16@FourierTra:

; 117  : 		AngleNumerator = 2.0f * M_PI;

  0002f	d9 05 00 00 00
	00		 fld	 DWORD PTR __real@40c90fda
  00035	d9 5d f8	 fstp	 DWORD PTR _AngleNumerator$[ebp]
$LN15@FourierTra:

; 118  : 
; 119  : 	NumBits = NumberOfBitsNeeded(NumSamples);

  00038	8b 45 08	 mov	 eax, DWORD PTR _NumSamples$[ebp]
  0003b	50		 push	 eax
  0003c	e8 00 00 00 00	 call	 _NumberOfBitsNeeded
  00041	83 c4 04	 add	 esp, 4
  00044	88 45 ef	 mov	 BYTE PTR _NumBits$[ebp], al

; 120  : 
; 121  : 	for (I = 0; I < NumSamples; I++)

  00047	c7 45 e0 00 00
	00 00		 mov	 DWORD PTR _I$[ebp], 0
  0004e	eb 09		 jmp	 SHORT $LN14@FourierTra
$LN13@FourierTra:
  00050	8b 45 e0	 mov	 eax, DWORD PTR _I$[ebp]
  00053	83 c0 01	 add	 eax, 1
  00056	89 45 e0	 mov	 DWORD PTR _I$[ebp], eax
$LN14@FourierTra:
  00059	8b 45 e0	 mov	 eax, DWORD PTR _I$[ebp]
  0005c	3b 45 08	 cmp	 eax, DWORD PTR _NumSamples$[ebp]
  0005f	7d 40		 jge	 SHORT $LN12@FourierTra

; 122  : 	{
; 123  : 		j = ReverseBits(I, NumBits);

  00061	0f b6 45 ef	 movzx	 eax, BYTE PTR _NumBits$[ebp]
  00065	50		 push	 eax
  00066	8b 4d e0	 mov	 ecx, DWORD PTR _I$[ebp]
  00069	51		 push	 ecx
  0006a	e8 00 00 00 00	 call	 _ReverseBits
  0006f	83 c4 08	 add	 esp, 8
  00072	89 45 d4	 mov	 DWORD PTR _j$[ebp], eax

; 124  : 		RealOut[j] = RealIn[I];

  00075	8b 45 e0	 mov	 eax, DWORD PTR _I$[ebp]
  00078	8b 4d 0c	 mov	 ecx, DWORD PTR _RealIn$[ebp]
  0007b	0f bf 14 41	 movsx	 edx, WORD PTR [ecx+eax*2]
  0007f	89 95 7c fe ff
	ff		 mov	 DWORD PTR tv255[ebp], edx
  00085	db 85 7c fe ff
	ff		 fild	 DWORD PTR tv255[ebp]
  0008b	8b 45 d4	 mov	 eax, DWORD PTR _j$[ebp]
  0008e	8b 4d 10	 mov	 ecx, DWORD PTR _RealOut$[ebp]
  00091	d9 1c 81	 fstp	 DWORD PTR [ecx+eax*4]

; 125  : 		ImagOut[j] = 0.0f; // Not using I in ImageIn[I];

  00094	8b 45 d4	 mov	 eax, DWORD PTR _j$[ebp]
  00097	8b 4d 14	 mov	 ecx, DWORD PTR _ImagOut$[ebp]
  0009a	d9 ee		 fldz
  0009c	d9 1c 81	 fstp	 DWORD PTR [ecx+eax*4]

; 126  : 	}

  0009f	eb af		 jmp	 SHORT $LN13@FourierTra
$LN12@FourierTra:

; 127  : 
; 128  : 	BlockEnd = 1;

  000a1	c7 45 a4 01 00
	00 00		 mov	 DWORD PTR _BlockEnd$[ebp], 1

; 129  : 	BlockSize = 2;

  000a8	c7 45 b0 02 00
	00 00		 mov	 DWORD PTR _BlockSize$[ebp], 2
$LN11@FourierTra:

; 130  : 
; 131  : 	while (BlockSize <= NumSamples)

  000af	8b 45 b0	 mov	 eax, DWORD PTR _BlockSize$[ebp]
  000b2	3b 45 08	 cmp	 eax, DWORD PTR _NumSamples$[ebp]
  000b5	0f 8f d8 01 00
	00		 jg	 $LN10@FourierTra

; 132  : 	{
; 133  : 		DeltaAngle = AngleNumerator / BlockSize;

  000bb	db 45 b0	 fild	 DWORD PTR _BlockSize$[ebp]
  000be	d8 7d f8	 fdivr	 DWORD PTR _AngleNumerator$[ebp]
  000c1	d9 5d 98	 fstp	 DWORD PTR _DeltaAngle$[ebp]

; 134  : 		Alpha = sinf(0.5f * DeltaAngle);

  000c4	d9 45 98	 fld	 DWORD PTR _DeltaAngle$[ebp]
  000c7	dc 0d 00 00 00
	00		 fmul	 QWORD PTR __real@3fe0000000000000
  000cd	83 ec 08	 sub	 esp, 8
  000d0	dd 1c 24	 fstp	 QWORD PTR [esp]
  000d3	e8 00 00 00 00	 call	 _sin
  000d8	83 c4 08	 add	 esp, 8
  000db	d9 9d 7c fe ff
	ff		 fstp	 DWORD PTR tv270[ebp]
  000e1	d9 85 7c fe ff
	ff		 fld	 DWORD PTR tv270[ebp]
  000e7	d9 5d 80	 fstp	 DWORD PTR _Alpha$[ebp]

; 135  : 		Alpha = 2.0f * Alpha * Alpha;

  000ea	d9 45 80	 fld	 DWORD PTR _Alpha$[ebp]
  000ed	dc 0d 00 00 00
	00		 fmul	 QWORD PTR __real@4000000000000000
  000f3	d8 4d 80	 fmul	 DWORD PTR _Alpha$[ebp]
  000f6	d9 5d 80	 fstp	 DWORD PTR _Alpha$[ebp]

; 136  : 		Beta = sinf(DeltaAngle);

  000f9	d9 45 98	 fld	 DWORD PTR _DeltaAngle$[ebp]
  000fc	83 ec 08	 sub	 esp, 8
  000ff	dd 1c 24	 fstp	 QWORD PTR [esp]
  00102	e8 00 00 00 00	 call	 _sin
  00107	83 c4 08	 add	 esp, 8
  0010a	d9 9d 7c fe ff
	ff		 fstp	 DWORD PTR tv278[ebp]
  00110	d9 85 7c fe ff
	ff		 fld	 DWORD PTR tv278[ebp]
  00116	d9 9d 74 ff ff
	ff		 fstp	 DWORD PTR _Beta$[ebp]

; 137  : 		
; 138  : 		I = 0;

  0011c	c7 45 e0 00 00
	00 00		 mov	 DWORD PTR _I$[ebp], 0
$LN9@FourierTra:

; 139  : 
; 140  : 		while (I < NumSamples)

  00123	8b 45 e0	 mov	 eax, DWORD PTR _I$[ebp]
  00126	3b 45 08	 cmp	 eax, DWORD PTR _NumSamples$[ebp]
  00129	0f 8d 51 01 00
	00		 jge	 $LN8@FourierTra

; 141  : 		{
; 142  : 			AR = 1.0f;

  0012f	d9 e8		 fld1
  00131	d9 9d 50 ff ff
	ff		 fstp	 DWORD PTR _AR$[ebp]

; 143  : 			AI = 0.0f;

  00137	d9 ee		 fldz
  00139	d9 9d 44 ff ff
	ff		 fstp	 DWORD PTR _AI$[ebp]

; 144  : 			
; 145  : 			j = I;

  0013f	8b 45 e0	 mov	 eax, DWORD PTR _I$[ebp]
  00142	89 45 d4	 mov	 DWORD PTR _j$[ebp], eax

; 146  : 			
; 147  : 			for (n = 0; n <  BlockEnd; n++)

  00145	c7 45 bc 00 00
	00 00		 mov	 DWORD PTR _n$[ebp], 0
  0014c	eb 09		 jmp	 SHORT $LN7@FourierTra
$LN6@FourierTra:
  0014e	8b 45 bc	 mov	 eax, DWORD PTR _n$[ebp]
  00151	83 c0 01	 add	 eax, 1
  00154	89 45 bc	 mov	 DWORD PTR _n$[ebp], eax
$LN7@FourierTra:
  00157	8b 45 bc	 mov	 eax, DWORD PTR _n$[ebp]
  0015a	3b 45 a4	 cmp	 eax, DWORD PTR _BlockEnd$[ebp]
  0015d	0f 8d 0f 01 00
	00		 jge	 $LN5@FourierTra

; 148  : 			{
; 149  : 				K = j + BlockEnd;

  00163	8b 45 d4	 mov	 eax, DWORD PTR _j$[ebp]
  00166	03 45 a4	 add	 eax, DWORD PTR _BlockEnd$[ebp]
  00169	89 45 c8	 mov	 DWORD PTR _K$[ebp], eax

; 150  : 				TR = AR * RealOut[K] - AI * ImagOut[K];

  0016c	d9 85 50 ff ff
	ff		 fld	 DWORD PTR _AR$[ebp]
  00172	8b 45 c8	 mov	 eax, DWORD PTR _K$[ebp]
  00175	8b 4d 10	 mov	 ecx, DWORD PTR _RealOut$[ebp]
  00178	d8 0c 81	 fmul	 DWORD PTR [ecx+eax*4]
  0017b	d9 85 44 ff ff
	ff		 fld	 DWORD PTR _AI$[ebp]
  00181	8b 55 c8	 mov	 edx, DWORD PTR _K$[ebp]
  00184	8b 45 14	 mov	 eax, DWORD PTR _ImagOut$[ebp]
  00187	d8 0c 90	 fmul	 DWORD PTR [eax+edx*4]
  0018a	de e9		 fsubp	 ST(1), ST(0)
  0018c	d9 9d 68 ff ff
	ff		 fstp	 DWORD PTR _TR$[ebp]

; 151  : 				TI = AI * RealOut[K] + AR * ImagOut[K];

  00192	d9 85 44 ff ff
	ff		 fld	 DWORD PTR _AI$[ebp]
  00198	8b 45 c8	 mov	 eax, DWORD PTR _K$[ebp]
  0019b	8b 4d 10	 mov	 ecx, DWORD PTR _RealOut$[ebp]
  0019e	d8 0c 81	 fmul	 DWORD PTR [ecx+eax*4]
  001a1	d9 85 50 ff ff
	ff		 fld	 DWORD PTR _AR$[ebp]
  001a7	8b 55 c8	 mov	 edx, DWORD PTR _K$[ebp]
  001aa	8b 45 14	 mov	 eax, DWORD PTR _ImagOut$[ebp]
  001ad	d8 0c 90	 fmul	 DWORD PTR [eax+edx*4]
  001b0	de c1		 faddp	 ST(1), ST(0)
  001b2	d9 9d 5c ff ff
	ff		 fstp	 DWORD PTR _TI$[ebp]

; 152  : 				RealOut[K] = RealOut[j] - TR;

  001b8	8b 45 d4	 mov	 eax, DWORD PTR _j$[ebp]
  001bb	8b 4d 10	 mov	 ecx, DWORD PTR _RealOut$[ebp]
  001be	d9 04 81	 fld	 DWORD PTR [ecx+eax*4]
  001c1	d8 a5 68 ff ff
	ff		 fsub	 DWORD PTR _TR$[ebp]
  001c7	8b 55 c8	 mov	 edx, DWORD PTR _K$[ebp]
  001ca	8b 45 10	 mov	 eax, DWORD PTR _RealOut$[ebp]
  001cd	d9 1c 90	 fstp	 DWORD PTR [eax+edx*4]

; 153  : 				ImagOut[K] = ImagOut[j] - TI;

  001d0	8b 45 d4	 mov	 eax, DWORD PTR _j$[ebp]
  001d3	8b 4d 14	 mov	 ecx, DWORD PTR _ImagOut$[ebp]
  001d6	d9 04 81	 fld	 DWORD PTR [ecx+eax*4]
  001d9	d8 a5 5c ff ff
	ff		 fsub	 DWORD PTR _TI$[ebp]
  001df	8b 55 c8	 mov	 edx, DWORD PTR _K$[ebp]
  001e2	8b 45 14	 mov	 eax, DWORD PTR _ImagOut$[ebp]
  001e5	d9 1c 90	 fstp	 DWORD PTR [eax+edx*4]

; 154  : 				RealOut[j] = RealOut[j] + TR;

  001e8	8b 45 d4	 mov	 eax, DWORD PTR _j$[ebp]
  001eb	8b 4d 10	 mov	 ecx, DWORD PTR _RealOut$[ebp]
  001ee	d9 04 81	 fld	 DWORD PTR [ecx+eax*4]
  001f1	d8 85 68 ff ff
	ff		 fadd	 DWORD PTR _TR$[ebp]
  001f7	8b 55 d4	 mov	 edx, DWORD PTR _j$[ebp]
  001fa	8b 45 10	 mov	 eax, DWORD PTR _RealOut$[ebp]
  001fd	d9 1c 90	 fstp	 DWORD PTR [eax+edx*4]

; 155  : 				ImagOut[j] = ImagOut[j] + TI;

  00200	8b 45 d4	 mov	 eax, DWORD PTR _j$[ebp]
  00203	8b 4d 14	 mov	 ecx, DWORD PTR _ImagOut$[ebp]
  00206	d9 04 81	 fld	 DWORD PTR [ecx+eax*4]
  00209	d8 85 5c ff ff
	ff		 fadd	 DWORD PTR _TI$[ebp]
  0020f	8b 55 d4	 mov	 edx, DWORD PTR _j$[ebp]
  00212	8b 45 14	 mov	 eax, DWORD PTR _ImagOut$[ebp]
  00215	d9 1c 90	 fstp	 DWORD PTR [eax+edx*4]

; 156  : 				DeltaAr = Alpha * AR + Beta * AI;

  00218	d9 45 80	 fld	 DWORD PTR _Alpha$[ebp]
  0021b	d8 8d 50 ff ff
	ff		 fmul	 DWORD PTR _AR$[ebp]
  00221	d9 85 74 ff ff
	ff		 fld	 DWORD PTR _Beta$[ebp]
  00227	d8 8d 44 ff ff
	ff		 fmul	 DWORD PTR _AI$[ebp]
  0022d	de c1		 faddp	 ST(1), ST(0)
  0022f	d9 5d 8c	 fstp	 DWORD PTR _DeltaAr$[ebp]

; 157  : 				AI = AI - (Alpha * AI - Beta * AR);

  00232	d9 45 80	 fld	 DWORD PTR _Alpha$[ebp]
  00235	d8 8d 44 ff ff
	ff		 fmul	 DWORD PTR _AI$[ebp]
  0023b	d9 85 74 ff ff
	ff		 fld	 DWORD PTR _Beta$[ebp]
  00241	d8 8d 50 ff ff
	ff		 fmul	 DWORD PTR _AR$[ebp]
  00247	de e9		 fsubp	 ST(1), ST(0)
  00249	d8 ad 44 ff ff
	ff		 fsubr	 DWORD PTR _AI$[ebp]
  0024f	d9 9d 44 ff ff
	ff		 fstp	 DWORD PTR _AI$[ebp]

; 158  : 				AR = AR - DeltaAr;

  00255	d9 85 50 ff ff
	ff		 fld	 DWORD PTR _AR$[ebp]
  0025b	d8 65 8c	 fsub	 DWORD PTR _DeltaAr$[ebp]
  0025e	d9 9d 50 ff ff
	ff		 fstp	 DWORD PTR _AR$[ebp]

; 159  : 				j = j + 1;

  00264	8b 45 d4	 mov	 eax, DWORD PTR _j$[ebp]
  00267	83 c0 01	 add	 eax, 1
  0026a	89 45 d4	 mov	 DWORD PTR _j$[ebp], eax

; 160  : 			}

  0026d	e9 dc fe ff ff	 jmp	 $LN6@FourierTra
$LN5@FourierTra:

; 161  : 			I = I + BlockSize;

  00272	8b 45 e0	 mov	 eax, DWORD PTR _I$[ebp]
  00275	03 45 b0	 add	 eax, DWORD PTR _BlockSize$[ebp]
  00278	89 45 e0	 mov	 DWORD PTR _I$[ebp], eax

; 162  : 		}

  0027b	e9 a3 fe ff ff	 jmp	 $LN9@FourierTra
$LN8@FourierTra:

; 163  : 		BlockEnd = BlockSize;

  00280	8b 45 b0	 mov	 eax, DWORD PTR _BlockSize$[ebp]
  00283	89 45 a4	 mov	 DWORD PTR _BlockEnd$[ebp], eax

; 164  : 		BlockSize = BlockSize * 2;

  00286	8b 45 b0	 mov	 eax, DWORD PTR _BlockSize$[ebp]
  00289	d1 e0		 shl	 eax, 1
  0028b	89 45 b0	 mov	 DWORD PTR _BlockSize$[ebp], eax

; 165  : 	}

  0028e	e9 1c fe ff ff	 jmp	 $LN11@FourierTra
$LN10@FourierTra:

; 166  : 	
; 167  : 	if (InverseTransform)

  00293	83 7d 18 00	 cmp	 DWORD PTR _InverseTransform$[ebp], 0
  00297	74 46		 je	 SHORT $LN1@FourierTra

; 168  : 	{
; 169  : 		//	Normalize the resulting time samples...
; 170  : 		
; 171  : 		for (I = 0; I < NumSamples; I++)

  00299	c7 45 e0 00 00
	00 00		 mov	 DWORD PTR _I$[ebp], 0
  002a0	eb 09		 jmp	 SHORT $LN3@FourierTra
$LN2@FourierTra:
  002a2	8b 45 e0	 mov	 eax, DWORD PTR _I$[ebp]
  002a5	83 c0 01	 add	 eax, 1
  002a8	89 45 e0	 mov	 DWORD PTR _I$[ebp], eax
$LN3@FourierTra:
  002ab	8b 45 e0	 mov	 eax, DWORD PTR _I$[ebp]
  002ae	3b 45 08	 cmp	 eax, DWORD PTR _NumSamples$[ebp]
  002b1	7d 2c		 jge	 SHORT $LN1@FourierTra

; 172  : 		{
; 173  : 			RealOut[I] = RealOut[I] / NumSamples;

  002b3	db 45 08	 fild	 DWORD PTR _NumSamples$[ebp]
  002b6	8b 45 e0	 mov	 eax, DWORD PTR _I$[ebp]
  002b9	8b 4d 10	 mov	 ecx, DWORD PTR _RealOut$[ebp]
  002bc	d8 3c 81	 fdivr	 DWORD PTR [ecx+eax*4]
  002bf	8b 55 e0	 mov	 edx, DWORD PTR _I$[ebp]
  002c2	8b 45 10	 mov	 eax, DWORD PTR _RealOut$[ebp]
  002c5	d9 1c 90	 fstp	 DWORD PTR [eax+edx*4]

; 174  : 			ImagOut[I] = ImagOut[I] / NumSamples;

  002c8	db 45 08	 fild	 DWORD PTR _NumSamples$[ebp]
  002cb	8b 45 e0	 mov	 eax, DWORD PTR _I$[ebp]
  002ce	8b 4d 14	 mov	 ecx, DWORD PTR _ImagOut$[ebp]
  002d1	d8 3c 81	 fdivr	 DWORD PTR [ecx+eax*4]
  002d4	8b 55 e0	 mov	 edx, DWORD PTR _I$[ebp]
  002d7	8b 45 14	 mov	 eax, DWORD PTR _ImagOut$[ebp]
  002da	d9 1c 90	 fstp	 DWORD PTR [eax+edx*4]

; 175  : 		}

  002dd	eb c3		 jmp	 SHORT $LN2@FourierTra
$LN1@FourierTra:

; 176  : 	}
; 177  : }

  002df	5f		 pop	 edi
  002e0	5e		 pop	 esi
  002e1	5b		 pop	 ebx
  002e2	81 c4 84 01 00
	00		 add	 esp, 388		; 00000184H
  002e8	3b ec		 cmp	 ebp, esp
  002ea	e8 00 00 00 00	 call	 __RTC_CheckEsp
  002ef	8b e5		 mov	 esp, ebp
  002f1	5d		 pop	 ebp
  002f2	c3		 ret	 0
_FourierTransform ENDP
_TEXT	ENDS
END
