; Listing generated by Microsoft (R) Optimizing Compiler Version 14.00.50727.762 

	TITLE	c:\Users\John\OneDrive\Dev\Source\ARDOPC\rs.c
	.686P
	.XMM
	include listing.inc
	.model	flat

INCLUDELIB LIBCMTD
INCLUDELIB OLDNAMES

PUBLIC	_DEBUG
_DATA	SEGMENT
COMM	_pBytes:DWORD:080H
COMM	_synBytes:DWORD:080H
COMM	_genPoly:DWORD:0100H
_DATA	ENDS
_BSS	SEGMENT
_DEBUG	DD	01H DUP (?)
_BSS	ENDS
PUBLIC	_initialize_ecc
EXTRN	_NPAR:DWORD
EXTRN	_init_galois_tables:PROC
EXTRN	__RTC_CheckEsp:PROC
EXTRN	__RTC_Shutdown:PROC
EXTRN	__RTC_InitBase:PROC
;	COMDAT rtc$TMZ
; File c:\users\john\onedrive\dev\source\ardopc\rs.c
rtc$TMZ	SEGMENT
__RTC_Shutdown.rtc$TMZ DD FLAT:__RTC_Shutdown
rtc$TMZ	ENDS
;	COMDAT rtc$IMZ
rtc$IMZ	SEGMENT
__RTC_InitBase.rtc$IMZ DD FLAT:__RTC_InitBase
; Function compile flags: /Odtp /RTCsu /ZI
rtc$IMZ	ENDS
;	COMDAT _initialize_ecc
_TEXT	SEGMENT
_initialize_ecc PROC					; COMDAT

; 62   : {

  00000	55		 push	 ebp
  00001	8b ec		 mov	 ebp, esp
  00003	81 ec c0 00 00
	00		 sub	 esp, 192		; 000000c0H
  00009	53		 push	 ebx
  0000a	56		 push	 esi
  0000b	57		 push	 edi
  0000c	8d bd 40 ff ff
	ff		 lea	 edi, DWORD PTR [ebp-192]
  00012	b9 30 00 00 00	 mov	 ecx, 48			; 00000030H
  00017	b8 cc cc cc cc	 mov	 eax, -858993460		; ccccccccH
  0001c	f3 ab		 rep stosd

; 63   :   /* Initialize the galois field arithmetic tables */
; 64   :     init_galois_tables();

  0001e	e8 00 00 00 00	 call	 _init_galois_tables

; 65   : 
; 66   :     /* Compute the encoder generator polynomial */
; 67   :     compute_genpoly(NPAR, genPoly);

  00023	68 00 00 00 00	 push	 OFFSET _genPoly
  00028	a1 00 00 00 00	 mov	 eax, DWORD PTR _NPAR
  0002d	50		 push	 eax
  0002e	e8 00 00 00 00	 call	 _compute_genpoly
  00033	83 c4 08	 add	 esp, 8

; 68   : }

  00036	5f		 pop	 edi
  00037	5e		 pop	 esi
  00038	5b		 pop	 ebx
  00039	81 c4 c0 00 00
	00		 add	 esp, 192		; 000000c0H
  0003f	3b ec		 cmp	 ebp, esp
  00041	e8 00 00 00 00	 call	 __RTC_CheckEsp
  00046	8b e5		 mov	 esp, ebp
  00048	5d		 pop	 ebp
  00049	c3		 ret	 0
_initialize_ecc ENDP
_TEXT	ENDS
PUBLIC	_zero_fill_from
; Function compile flags: /Odtp /RTCsu /ZI
;	COMDAT _zero_fill_from
_TEXT	SEGMENT
_i$ = -8						; size = 4
_buf$ = 8						; size = 4
_from$ = 12						; size = 4
_to$ = 16						; size = 4
_zero_fill_from PROC					; COMDAT

; 72   : {

  00000	55		 push	 ebp
  00001	8b ec		 mov	 ebp, esp
  00003	81 ec cc 00 00
	00		 sub	 esp, 204		; 000000ccH
  00009	53		 push	 ebx
  0000a	56		 push	 esi
  0000b	57		 push	 edi
  0000c	8d bd 34 ff ff
	ff		 lea	 edi, DWORD PTR [ebp-204]
  00012	b9 33 00 00 00	 mov	 ecx, 51			; 00000033H
  00017	b8 cc cc cc cc	 mov	 eax, -858993460		; ccccccccH
  0001c	f3 ab		 rep stosd

; 73   :   int i;
; 74   :   for (i = from; i < to; i++) buf[i] = 0;

  0001e	8b 45 0c	 mov	 eax, DWORD PTR _from$[ebp]
  00021	89 45 f8	 mov	 DWORD PTR _i$[ebp], eax
  00024	eb 09		 jmp	 SHORT $LN3@zero_fill_
$LN2@zero_fill_:
  00026	8b 45 f8	 mov	 eax, DWORD PTR _i$[ebp]
  00029	83 c0 01	 add	 eax, 1
  0002c	89 45 f8	 mov	 DWORD PTR _i$[ebp], eax
$LN3@zero_fill_:
  0002f	8b 45 f8	 mov	 eax, DWORD PTR _i$[ebp]
  00032	3b 45 10	 cmp	 eax, DWORD PTR _to$[ebp]
  00035	7d 0b		 jge	 SHORT $LN4@zero_fill_
  00037	8b 45 08	 mov	 eax, DWORD PTR _buf$[ebp]
  0003a	03 45 f8	 add	 eax, DWORD PTR _i$[ebp]
  0003d	c6 00 00	 mov	 BYTE PTR [eax], 0
  00040	eb e4		 jmp	 SHORT $LN2@zero_fill_
$LN4@zero_fill_:

; 75   : }

  00042	5f		 pop	 edi
  00043	5e		 pop	 esi
  00044	5b		 pop	 ebx
  00045	8b e5		 mov	 esp, ebp
  00047	5d		 pop	 ebp
  00048	c3		 ret	 0
_zero_fill_from ENDP
_TEXT	ENDS
PUBLIC	??_C@_01EEMJAFIK@?6?$AA@			; `string'
PUBLIC	??_C@_09CFNMJMAG@?$FL?$CFd?$FN?3?$CFx?0?5?$AA@	; `string'
PUBLIC	??_C@_0P@ILJEILH@Parity?5Bytes?3?5?$AA@		; `string'
PUBLIC	_print_parity
EXTRN	_WriteDebugLog:PROC
;	COMDAT ??_C@_01EEMJAFIK@?6?$AA@
CONST	SEGMENT
??_C@_01EEMJAFIK@?6?$AA@ DB 0aH, 00H			; `string'
CONST	ENDS
;	COMDAT ??_C@_09CFNMJMAG@?$FL?$CFd?$FN?3?$CFx?0?5?$AA@
CONST	SEGMENT
??_C@_09CFNMJMAG@?$FL?$CFd?$FN?3?$CFx?0?5?$AA@ DB '[%d]:%x, ', 00H ; `string'
CONST	ENDS
;	COMDAT ??_C@_0P@ILJEILH@Parity?5Bytes?3?5?$AA@
CONST	SEGMENT
??_C@_0P@ILJEILH@Parity?5Bytes?3?5?$AA@ DB 'Parity Bytes: ', 00H ; `string'
; Function compile flags: /Odtp /RTCsu /ZI
CONST	ENDS
;	COMDAT _print_parity
_TEXT	SEGMENT
_i$ = -8						; size = 4
_print_parity PROC					; COMDAT

; 80   : { 

  00000	55		 push	 ebp
  00001	8b ec		 mov	 ebp, esp
  00003	81 ec cc 00 00
	00		 sub	 esp, 204		; 000000ccH
  00009	53		 push	 ebx
  0000a	56		 push	 esi
  0000b	57		 push	 edi
  0000c	8d bd 34 ff ff
	ff		 lea	 edi, DWORD PTR [ebp-204]
  00012	b9 33 00 00 00	 mov	 ecx, 51			; 00000033H
  00017	b8 cc cc cc cc	 mov	 eax, -858993460		; ccccccccH
  0001c	f3 ab		 rep stosd

; 81   :   int i;
; 82   :   WriteDebugLog(LOGDEBUG, "Parity Bytes: ");

  0001e	68 00 00 00 00	 push	 OFFSET ??_C@_0P@ILJEILH@Parity?5Bytes?3?5?$AA@
  00023	6a 07		 push	 7
  00025	e8 00 00 00 00	 call	 _WriteDebugLog
  0002a	83 c4 08	 add	 esp, 8

; 83   :   for (i = 0; i < NPAR; i++) 

  0002d	c7 45 f8 00 00
	00 00		 mov	 DWORD PTR _i$[ebp], 0
  00034	eb 09		 jmp	 SHORT $LN3@print_pari
$LN2@print_pari:
  00036	8b 45 f8	 mov	 eax, DWORD PTR _i$[ebp]
  00039	83 c0 01	 add	 eax, 1
  0003c	89 45 f8	 mov	 DWORD PTR _i$[ebp], eax
$LN3@print_pari:
  0003f	8b 45 f8	 mov	 eax, DWORD PTR _i$[ebp]
  00042	3b 05 00 00 00
	00		 cmp	 eax, DWORD PTR _NPAR
  00048	7d 20		 jge	 SHORT $LN1@print_pari

; 84   :     WriteDebugLog(LOGDEBUG, "[%d]:%x, ",i,pBytes[i]);

  0004a	8b 45 f8	 mov	 eax, DWORD PTR _i$[ebp]
  0004d	8b 0c 85 00 00
	00 00		 mov	 ecx, DWORD PTR _pBytes[eax*4]
  00054	51		 push	 ecx
  00055	8b 55 f8	 mov	 edx, DWORD PTR _i$[ebp]
  00058	52		 push	 edx
  00059	68 00 00 00 00	 push	 OFFSET ??_C@_09CFNMJMAG@?$FL?$CFd?$FN?3?$CFx?0?5?$AA@
  0005e	6a 07		 push	 7
  00060	e8 00 00 00 00	 call	 _WriteDebugLog
  00065	83 c4 10	 add	 esp, 16			; 00000010H
  00068	eb cc		 jmp	 SHORT $LN2@print_pari
$LN1@print_pari:

; 85   :   WriteDebugLog(LOGDEBUG, "\n");

  0006a	68 00 00 00 00	 push	 OFFSET ??_C@_01EEMJAFIK@?6?$AA@
  0006f	6a 07		 push	 7
  00071	e8 00 00 00 00	 call	 _WriteDebugLog
  00076	83 c4 08	 add	 esp, 8

; 86   : }

  00079	5f		 pop	 edi
  0007a	5e		 pop	 esi
  0007b	5b		 pop	 ebx
  0007c	81 c4 cc 00 00
	00		 add	 esp, 204		; 000000ccH
  00082	3b ec		 cmp	 ebp, esp
  00084	e8 00 00 00 00	 call	 __RTC_CheckEsp
  00089	8b e5		 mov	 esp, ebp
  0008b	5d		 pop	 ebp
  0008c	c3		 ret	 0
_print_parity ENDP
_TEXT	ENDS
PUBLIC	??_C@_0BB@KPHGEJCG@Syndrome?5Bytes?3?5?$AA@	; `string'
PUBLIC	_print_syndrome
;	COMDAT ??_C@_0BB@KPHGEJCG@Syndrome?5Bytes?3?5?$AA@
CONST	SEGMENT
??_C@_0BB@KPHGEJCG@Syndrome?5Bytes?3?5?$AA@ DB 'Syndrome Bytes: ', 00H ; `string'
; Function compile flags: /Odtp /RTCsu /ZI
CONST	ENDS
;	COMDAT _print_syndrome
_TEXT	SEGMENT
_i$ = -8						; size = 4
_print_syndrome PROC					; COMDAT

; 91   : { 

  00000	55		 push	 ebp
  00001	8b ec		 mov	 ebp, esp
  00003	81 ec cc 00 00
	00		 sub	 esp, 204		; 000000ccH
  00009	53		 push	 ebx
  0000a	56		 push	 esi
  0000b	57		 push	 edi
  0000c	8d bd 34 ff ff
	ff		 lea	 edi, DWORD PTR [ebp-204]
  00012	b9 33 00 00 00	 mov	 ecx, 51			; 00000033H
  00017	b8 cc cc cc cc	 mov	 eax, -858993460		; ccccccccH
  0001c	f3 ab		 rep stosd

; 92   :   int i;
; 93   :   WriteDebugLog(LOGDEBUG, "Syndrome Bytes: ");

  0001e	68 00 00 00 00	 push	 OFFSET ??_C@_0BB@KPHGEJCG@Syndrome?5Bytes?3?5?$AA@
  00023	6a 07		 push	 7
  00025	e8 00 00 00 00	 call	 _WriteDebugLog
  0002a	83 c4 08	 add	 esp, 8

; 94   :   for (i = 0; i < NPAR; i++) 

  0002d	c7 45 f8 00 00
	00 00		 mov	 DWORD PTR _i$[ebp], 0
  00034	eb 09		 jmp	 SHORT $LN3@print_synd
$LN2@print_synd:
  00036	8b 45 f8	 mov	 eax, DWORD PTR _i$[ebp]
  00039	83 c0 01	 add	 eax, 1
  0003c	89 45 f8	 mov	 DWORD PTR _i$[ebp], eax
$LN3@print_synd:
  0003f	8b 45 f8	 mov	 eax, DWORD PTR _i$[ebp]
  00042	3b 05 00 00 00
	00		 cmp	 eax, DWORD PTR _NPAR
  00048	7d 20		 jge	 SHORT $LN1@print_synd

; 95   :     WriteDebugLog(LOGDEBUG, "[%d]:%x, ",i,synBytes[i]);

  0004a	8b 45 f8	 mov	 eax, DWORD PTR _i$[ebp]
  0004d	8b 0c 85 00 00
	00 00		 mov	 ecx, DWORD PTR _synBytes[eax*4]
  00054	51		 push	 ecx
  00055	8b 55 f8	 mov	 edx, DWORD PTR _i$[ebp]
  00058	52		 push	 edx
  00059	68 00 00 00 00	 push	 OFFSET ??_C@_09CFNMJMAG@?$FL?$CFd?$FN?3?$CFx?0?5?$AA@
  0005e	6a 07		 push	 7
  00060	e8 00 00 00 00	 call	 _WriteDebugLog
  00065	83 c4 10	 add	 esp, 16			; 00000010H
  00068	eb cc		 jmp	 SHORT $LN2@print_synd
$LN1@print_synd:

; 96   :   WriteDebugLog(LOGDEBUG, "\n");

  0006a	68 00 00 00 00	 push	 OFFSET ??_C@_01EEMJAFIK@?6?$AA@
  0006f	6a 07		 push	 7
  00071	e8 00 00 00 00	 call	 _WriteDebugLog
  00076	83 c4 08	 add	 esp, 8

; 97   : }

  00079	5f		 pop	 edi
  0007a	5e		 pop	 esi
  0007b	5b		 pop	 ebx
  0007c	81 c4 cc 00 00
	00		 add	 esp, 204		; 000000ccH
  00082	3b ec		 cmp	 ebp, esp
  00084	e8 00 00 00 00	 call	 __RTC_CheckEsp
  00089	8b e5		 mov	 esp, ebp
  0008b	5d		 pop	 ebp
  0008c	c3		 ret	 0
_print_syndrome ENDP
_TEXT	ENDS
PUBLIC	_decode_data
EXTRN	_gmult:PROC
EXTRN	_gexp:BYTE
; Function compile flags: /Odtp /RTCsu /ZI
;	COMDAT _decode_data
_TEXT	SEGMENT
_sum$ = -32						; size = 4
_j$ = -20						; size = 4
_i$ = -8						; size = 4
_data$ = 8						; size = 4
_nbytes$ = 12						; size = 4
_decode_data PROC					; COMDAT

; 109  : {

  00000	55		 push	 ebp
  00001	8b ec		 mov	 ebp, esp
  00003	81 ec e4 00 00
	00		 sub	 esp, 228		; 000000e4H
  00009	53		 push	 ebx
  0000a	56		 push	 esi
  0000b	57		 push	 edi
  0000c	8d bd 1c ff ff
	ff		 lea	 edi, DWORD PTR [ebp-228]
  00012	b9 39 00 00 00	 mov	 ecx, 57			; 00000039H
  00017	b8 cc cc cc cc	 mov	 eax, -858993460		; ccccccccH
  0001c	f3 ab		 rep stosd

; 110  : 	int i, j, sum;
; 111  : 	for (j = 0; j < NPAR;  j++)

  0001e	c7 45 ec 00 00
	00 00		 mov	 DWORD PTR _j$[ebp], 0
  00025	eb 09		 jmp	 SHORT $LN6@decode_dat
$LN5@decode_dat:
  00027	8b 45 ec	 mov	 eax, DWORD PTR _j$[ebp]
  0002a	83 c0 01	 add	 eax, 1
  0002d	89 45 ec	 mov	 DWORD PTR _j$[ebp], eax
$LN6@decode_dat:
  00030	8b 45 ec	 mov	 eax, DWORD PTR _j$[ebp]
  00033	3b 05 00 00 00
	00		 cmp	 eax, DWORD PTR _NPAR
  00039	7d 57		 jge	 SHORT $LN7@decode_dat

; 112  : 	{
; 113  : 		sum	= 0;

  0003b	c7 45 e0 00 00
	00 00		 mov	 DWORD PTR _sum$[ebp], 0

; 114  : 		for (i = 0; i < nbytes; i++)

  00042	c7 45 f8 00 00
	00 00		 mov	 DWORD PTR _i$[ebp], 0
  00049	eb 09		 jmp	 SHORT $LN3@decode_dat
$LN2@decode_dat:
  0004b	8b 45 f8	 mov	 eax, DWORD PTR _i$[ebp]
  0004e	83 c0 01	 add	 eax, 1
  00051	89 45 f8	 mov	 DWORD PTR _i$[ebp], eax
$LN3@decode_dat:
  00054	8b 45 f8	 mov	 eax, DWORD PTR _i$[ebp]
  00057	3b 45 0c	 cmp	 eax, DWORD PTR _nbytes$[ebp]
  0005a	7d 27		 jge	 SHORT $LN1@decode_dat

; 115  : 		{
; 116  : 			sum = data[i] ^ gmult(gexp[j+1], sum);

  0005c	8b 45 08	 mov	 eax, DWORD PTR _data$[ebp]
  0005f	03 45 f8	 add	 eax, DWORD PTR _i$[ebp]
  00062	0f b6 30	 movzx	 esi, BYTE PTR [eax]
  00065	8b 4d e0	 mov	 ecx, DWORD PTR _sum$[ebp]
  00068	51		 push	 ecx
  00069	8b 55 ec	 mov	 edx, DWORD PTR _j$[ebp]
  0006c	8b 04 95 04 00
	00 00		 mov	 eax, DWORD PTR _gexp[edx*4+4]
  00073	50		 push	 eax
  00074	e8 00 00 00 00	 call	 _gmult
  00079	83 c4 08	 add	 esp, 8
  0007c	33 f0		 xor	 esi, eax
  0007e	89 75 e0	 mov	 DWORD PTR _sum$[ebp], esi

; 117  : 		}

  00081	eb c8		 jmp	 SHORT $LN2@decode_dat
$LN1@decode_dat:

; 118  : 		
; 119  : 		synBytes[j]  = sum;

  00083	8b 45 ec	 mov	 eax, DWORD PTR _j$[ebp]
  00086	8b 4d e0	 mov	 ecx, DWORD PTR _sum$[ebp]
  00089	89 0c 85 00 00
	00 00		 mov	 DWORD PTR _synBytes[eax*4], ecx

; 120  : 
; 121  : //	WriteDebugLog(LOGDEBUG, "%d %d %d\r\n", i, synBytes[i], index_of[s[i]]);
; 122  : 
; 123  : 	}

  00090	eb 95		 jmp	 SHORT $LN5@decode_dat
$LN7@decode_dat:

; 124  : }

  00092	5f		 pop	 edi
  00093	5e		 pop	 esi
  00094	5b		 pop	 ebx
  00095	81 c4 e4 00 00
	00		 add	 esp, 228		; 000000e4H
  0009b	3b ec		 cmp	 ebp, esp
  0009d	e8 00 00 00 00	 call	 __RTC_CheckEsp
  000a2	8b e5		 mov	 esp, ebp
  000a4	5d		 pop	 ebp
  000a5	c3		 ret	 0
_decode_data ENDP
_TEXT	ENDS
PUBLIC	_check_syndrome
; Function compile flags: /Odtp /RTCsu /ZI
;	COMDAT _check_syndrome
_TEXT	SEGMENT
_nz$ = -20						; size = 4
_i$ = -8						; size = 4
_check_syndrome PROC					; COMDAT

; 130  : {

  00000	55		 push	 ebp
  00001	8b ec		 mov	 ebp, esp
  00003	81 ec d8 00 00
	00		 sub	 esp, 216		; 000000d8H
  00009	53		 push	 ebx
  0000a	56		 push	 esi
  0000b	57		 push	 edi
  0000c	8d bd 28 ff ff
	ff		 lea	 edi, DWORD PTR [ebp-216]
  00012	b9 36 00 00 00	 mov	 ecx, 54			; 00000036H
  00017	b8 cc cc cc cc	 mov	 eax, -858993460		; ccccccccH
  0001c	f3 ab		 rep stosd

; 131  :  int i, nz = 0;

  0001e	c7 45 ec 00 00
	00 00		 mov	 DWORD PTR _nz$[ebp], 0

; 132  :  for (i =0 ; i < NPAR; i++) {

  00025	c7 45 f8 00 00
	00 00		 mov	 DWORD PTR _i$[ebp], 0
  0002c	eb 09		 jmp	 SHORT $LN4@check_synd
$LN3@check_synd:
  0002e	8b 45 f8	 mov	 eax, DWORD PTR _i$[ebp]
  00031	83 c0 01	 add	 eax, 1
  00034	89 45 f8	 mov	 DWORD PTR _i$[ebp], eax
$LN4@check_synd:
  00037	8b 45 f8	 mov	 eax, DWORD PTR _i$[ebp]
  0003a	3b 05 00 00 00
	00		 cmp	 eax, DWORD PTR _NPAR
  00040	7d 18		 jge	 SHORT $LN2@check_synd

; 133  :   if (synBytes[i] != 0) {

  00042	8b 45 f8	 mov	 eax, DWORD PTR _i$[ebp]
  00045	83 3c 85 00 00
	00 00 00	 cmp	 DWORD PTR _synBytes[eax*4], 0
  0004d	74 09		 je	 SHORT $LN1@check_synd

; 134  :       nz = 1;

  0004f	c7 45 ec 01 00
	00 00		 mov	 DWORD PTR _nz$[ebp], 1

; 135  :       break;

  00056	eb 02		 jmp	 SHORT $LN2@check_synd
$LN1@check_synd:

; 136  :   }
; 137  :  }

  00058	eb d4		 jmp	 SHORT $LN3@check_synd
$LN2@check_synd:

; 138  :  return nz;

  0005a	8b 45 ec	 mov	 eax, DWORD PTR _nz$[ebp]

; 139  : }

  0005d	5f		 pop	 edi
  0005e	5e		 pop	 esi
  0005f	5b		 pop	 ebx
  00060	8b e5		 mov	 esp, ebp
  00062	5d		 pop	 ebp
  00063	c3		 ret	 0
_check_syndrome ENDP
_TEXT	ENDS
PUBLIC	??_C@_0BL@FLPPCLIK@?5inv?5log?5S?$FL?$CFd?$FN?1S?$FL?$CFd?$FN?5?$DN?5?$CFd?6?$AA@ ; `string'
PUBLIC	_debug_check_syndrome
EXTRN	_glog:BYTE
EXTRN	_ginv:PROC
;	COMDAT ??_C@_0BL@FLPPCLIK@?5inv?5log?5S?$FL?$CFd?$FN?1S?$FL?$CFd?$FN?5?$DN?5?$CFd?6?$AA@
CONST	SEGMENT
??_C@_0BL@FLPPCLIK@?5inv?5log?5S?$FL?$CFd?$FN?1S?$FL?$CFd?$FN?5?$DN?5?$CFd?6?$AA@ DB ' '
	DB	'inv log S[%d]/S[%d] = %d', 0aH, 00H		; `string'
; Function compile flags: /Odtp /RTCsu /ZI
CONST	ENDS
;	COMDAT _debug_check_syndrome
_TEXT	SEGMENT
_i$ = -8						; size = 4
_debug_check_syndrome PROC				; COMDAT

; 144  : {	

  00000	55		 push	 ebp
  00001	8b ec		 mov	 ebp, esp
  00003	81 ec cc 00 00
	00		 sub	 esp, 204		; 000000ccH
  00009	53		 push	 ebx
  0000a	56		 push	 esi
  0000b	57		 push	 edi
  0000c	8d bd 34 ff ff
	ff		 lea	 edi, DWORD PTR [ebp-204]
  00012	b9 33 00 00 00	 mov	 ecx, 51			; 00000033H
  00017	b8 cc cc cc cc	 mov	 eax, -858993460		; ccccccccH
  0001c	f3 ab		 rep stosd

; 145  :   int i;
; 146  : 	
; 147  :   for (i = 0; i < 3; i++) {

  0001e	c7 45 f8 00 00
	00 00		 mov	 DWORD PTR _i$[ebp], 0
  00025	eb 09		 jmp	 SHORT $LN3@debug_chec
$LN2@debug_chec:
  00027	8b 45 f8	 mov	 eax, DWORD PTR _i$[ebp]
  0002a	83 c0 01	 add	 eax, 1
  0002d	89 45 f8	 mov	 DWORD PTR _i$[ebp], eax
$LN3@debug_chec:
  00030	83 7d f8 03	 cmp	 DWORD PTR _i$[ebp], 3
  00034	7d 4b		 jge	 SHORT $LN4@debug_chec

; 148  :     WriteDebugLog(LOGDEBUG, " inv log S[%d]/S[%d] = %d\n", i, i+1, 
; 149  : 	   glog[gmult(synBytes[i], ginv(synBytes[i+1]))]);

  00036	8b 45 f8	 mov	 eax, DWORD PTR _i$[ebp]
  00039	8b 0c 85 04 00
	00 00		 mov	 ecx, DWORD PTR _synBytes[eax*4+4]
  00040	51		 push	 ecx
  00041	e8 00 00 00 00	 call	 _ginv
  00046	83 c4 04	 add	 esp, 4
  00049	50		 push	 eax
  0004a	8b 55 f8	 mov	 edx, DWORD PTR _i$[ebp]
  0004d	8b 04 95 00 00
	00 00		 mov	 eax, DWORD PTR _synBytes[edx*4]
  00054	50		 push	 eax
  00055	e8 00 00 00 00	 call	 _gmult
  0005a	83 c4 08	 add	 esp, 8
  0005d	8b 0c 85 00 00
	00 00		 mov	 ecx, DWORD PTR _glog[eax*4]
  00064	51		 push	 ecx
  00065	8b 55 f8	 mov	 edx, DWORD PTR _i$[ebp]
  00068	83 c2 01	 add	 edx, 1
  0006b	52		 push	 edx
  0006c	8b 45 f8	 mov	 eax, DWORD PTR _i$[ebp]
  0006f	50		 push	 eax
  00070	68 00 00 00 00	 push	 OFFSET ??_C@_0BL@FLPPCLIK@?5inv?5log?5S?$FL?$CFd?$FN?1S?$FL?$CFd?$FN?5?$DN?5?$CFd?6?$AA@
  00075	6a 07		 push	 7
  00077	e8 00 00 00 00	 call	 _WriteDebugLog
  0007c	83 c4 14	 add	 esp, 20			; 00000014H

; 150  :   }

  0007f	eb a6		 jmp	 SHORT $LN2@debug_chec
$LN4@debug_chec:

; 151  : }

  00081	5f		 pop	 edi
  00082	5e		 pop	 esi
  00083	5b		 pop	 ebx
  00084	81 c4 cc 00 00
	00		 add	 esp, 204		; 000000ccH
  0008a	3b ec		 cmp	 ebp, esp
  0008c	e8 00 00 00 00	 call	 __RTC_CheckEsp
  00091	8b e5		 mov	 esp, ebp
  00093	5d		 pop	 ebp
  00094	c3		 ret	 0
_debug_check_syndrome ENDP
_TEXT	ENDS
EXTRN	_copy_poly:PROC
EXTRN	_mult_polys:PROC
EXTRN	_zero_poly:PROC
EXTRN	@_RTC_CheckStackVars@8:PROC
; Function compile flags: /Odtp /RTCsu /ZI
;	COMDAT _compute_genpoly
_TEXT	SEGMENT
_tp1$ = -2072						; size = 1024
_tp$ = -1040						; size = 1024
_i$ = -8						; size = 4
_nbytes$ = 8						; size = 4
_genpoly$ = 12						; size = 4
_compute_genpoly PROC					; COMDAT

; 162  : {

  00000	55		 push	 ebp
  00001	8b ec		 mov	 ebp, esp
  00003	81 ec dc 08 00
	00		 sub	 esp, 2268		; 000008dcH
  00009	53		 push	 ebx
  0000a	56		 push	 esi
  0000b	57		 push	 edi
  0000c	8d bd 24 f7 ff
	ff		 lea	 edi, DWORD PTR [ebp-2268]
  00012	b9 37 02 00 00	 mov	 ecx, 567		; 00000237H
  00017	b8 cc cc cc cc	 mov	 eax, -858993460		; ccccccccH
  0001c	f3 ab		 rep stosd

; 163  :   int i, tp[256], tp1[256];
; 164  : 	
; 165  :   /* multiply (x + a^n) for n = 1 to nbytes */
; 166  : 
; 167  :   zero_poly(tp1);

  0001e	8d 85 e8 f7 ff
	ff		 lea	 eax, DWORD PTR _tp1$[ebp]
  00024	50		 push	 eax
  00025	e8 00 00 00 00	 call	 _zero_poly
  0002a	83 c4 04	 add	 esp, 4

; 168  :   tp1[0] = 1;

  0002d	c7 85 e8 f7 ff
	ff 01 00 00 00	 mov	 DWORD PTR _tp1$[ebp], 1

; 169  : 
; 170  :   for (i = 1; i <= nbytes; i++) {

  00037	c7 45 f8 01 00
	00 00		 mov	 DWORD PTR _i$[ebp], 1
  0003e	eb 09		 jmp	 SHORT $LN3@compute_ge
$LN2@compute_ge:
  00040	8b 45 f8	 mov	 eax, DWORD PTR _i$[ebp]
  00043	83 c0 01	 add	 eax, 1
  00046	89 45 f8	 mov	 DWORD PTR _i$[ebp], eax
$LN3@compute_ge:
  00049	8b 45 f8	 mov	 eax, DWORD PTR _i$[ebp]
  0004c	3b 45 08	 cmp	 eax, DWORD PTR _nbytes$[ebp]
  0004f	7f 58		 jg	 SHORT $LN4@compute_ge

; 171  :     zero_poly(tp);

  00051	8d 85 f0 fb ff
	ff		 lea	 eax, DWORD PTR _tp$[ebp]
  00057	50		 push	 eax
  00058	e8 00 00 00 00	 call	 _zero_poly
  0005d	83 c4 04	 add	 esp, 4

; 172  :     tp[0] = gexp[i];		/* set up x+a^n */

  00060	8b 45 f8	 mov	 eax, DWORD PTR _i$[ebp]
  00063	8b 0c 85 00 00
	00 00		 mov	 ecx, DWORD PTR _gexp[eax*4]
  0006a	89 8d f0 fb ff
	ff		 mov	 DWORD PTR _tp$[ebp], ecx

; 173  :     tp[1] = 1;

  00070	c7 85 f4 fb ff
	ff 01 00 00 00	 mov	 DWORD PTR _tp$[ebp+4], 1

; 174  : 	  
; 175  :     mult_polys(genpoly, tp, tp1);

  0007a	8d 85 e8 f7 ff
	ff		 lea	 eax, DWORD PTR _tp1$[ebp]
  00080	50		 push	 eax
  00081	8d 8d f0 fb ff
	ff		 lea	 ecx, DWORD PTR _tp$[ebp]
  00087	51		 push	 ecx
  00088	8b 55 0c	 mov	 edx, DWORD PTR _genpoly$[ebp]
  0008b	52		 push	 edx
  0008c	e8 00 00 00 00	 call	 _mult_polys
  00091	83 c4 0c	 add	 esp, 12			; 0000000cH

; 176  :     copy_poly(tp1, genpoly);

  00094	8b 45 0c	 mov	 eax, DWORD PTR _genpoly$[ebp]
  00097	50		 push	 eax
  00098	8d 8d e8 f7 ff
	ff		 lea	 ecx, DWORD PTR _tp1$[ebp]
  0009e	51		 push	 ecx
  0009f	e8 00 00 00 00	 call	 _copy_poly
  000a4	83 c4 08	 add	 esp, 8

; 177  :   }

  000a7	eb 97		 jmp	 SHORT $LN2@compute_ge
$LN4@compute_ge:

; 178  : }

  000a9	52		 push	 edx
  000aa	8b cd		 mov	 ecx, ebp
  000ac	50		 push	 eax
  000ad	8d 15 00 00 00
	00		 lea	 edx, DWORD PTR $LN9@compute_ge
  000b3	e8 00 00 00 00	 call	 @_RTC_CheckStackVars@8
  000b8	58		 pop	 eax
  000b9	5a		 pop	 edx
  000ba	5f		 pop	 edi
  000bb	5e		 pop	 esi
  000bc	5b		 pop	 ebx
  000bd	81 c4 dc 08 00
	00		 add	 esp, 2268		; 000008dcH
  000c3	3b ec		 cmp	 ebp, esp
  000c5	e8 00 00 00 00	 call	 __RTC_CheckEsp
  000ca	8b e5		 mov	 esp, ebp
  000cc	5d		 pop	 ebp
  000cd	c3		 ret	 0
  000ce	8b ff		 npad	 2
$LN9@compute_ge:
  000d0	02 00 00 00	 DD	 2
  000d4	00 00 00 00	 DD	 $LN8@compute_ge
$LN8@compute_ge:
  000d8	f0 fb ff ff	 DD	 -1040			; fffffbf0H
  000dc	00 04 00 00	 DD	 1024			; 00000400H
  000e0	00 00 00 00	 DD	 $LN6@compute_ge
  000e4	e8 f7 ff ff	 DD	 -2072			; fffff7e8H
  000e8	00 04 00 00	 DD	 1024			; 00000400H
  000ec	00 00 00 00	 DD	 $LN7@compute_ge
$LN7@compute_ge:
  000f0	74		 DB	 116			; 00000074H
  000f1	70		 DB	 112			; 00000070H
  000f2	31		 DB	 49			; 00000031H
  000f3	00		 DB	 0
$LN6@compute_ge:
  000f4	74		 DB	 116			; 00000074H
  000f5	70		 DB	 112			; 00000070H
  000f6	00		 DB	 0
_compute_genpoly ENDP
_TEXT	ENDS
PUBLIC	__$ArrayPad$
PUBLIC	_encode_data
EXTRN	_memcpy:PROC
EXTRN	___security_cookie:DWORD
EXTRN	@__security_check_cookie@4:PROC
; Function compile flags: /Odtp /RTCsu /ZI
;	COMDAT _encode_data
_TEXT	SEGMENT
_LFSR$ = -112						; size = 65
_j$ = -36						; size = 4
_dbyte$ = -24						; size = 4
_i$ = -12						; size = 4
__$ArrayPad$ = -4					; size = 4
_msg$ = 8						; size = 4
_nbytes$ = 12						; size = 4
_dst$ = 16						; size = 4
_encode_data PROC					; COMDAT

; 190  : {

  00000	55		 push	 ebp
  00001	8b ec		 mov	 ebp, esp
  00003	81 ec 34 01 00
	00		 sub	 esp, 308		; 00000134H
  00009	53		 push	 ebx
  0000a	56		 push	 esi
  0000b	57		 push	 edi
  0000c	8d bd cc fe ff
	ff		 lea	 edi, DWORD PTR [ebp-308]
  00012	b9 4d 00 00 00	 mov	 ecx, 77			; 0000004dH
  00017	b8 cc cc cc cc	 mov	 eax, -858993460		; ccccccccH
  0001c	f3 ab		 rep stosd
  0001e	a1 00 00 00 00	 mov	 eax, DWORD PTR ___security_cookie
  00023	33 c5		 xor	 eax, ebp
  00025	89 45 fc	 mov	 DWORD PTR __$ArrayPad$[ebp], eax

; 191  : 	int i ,dbyte, j;
; 192  : 	unsigned char LFSR[MAXNPAR+1];
; 193  : 
; 194  : 	for(i=0; i < NPAR+1; i++)

  00028	c7 45 f4 00 00
	00 00		 mov	 DWORD PTR _i$[ebp], 0
  0002f	eb 09		 jmp	 SHORT $LN9@encode_dat
$LN8@encode_dat:
  00031	8b 45 f4	 mov	 eax, DWORD PTR _i$[ebp]
  00034	83 c0 01	 add	 eax, 1
  00037	89 45 f4	 mov	 DWORD PTR _i$[ebp], eax
$LN9@encode_dat:
  0003a	a1 00 00 00 00	 mov	 eax, DWORD PTR _NPAR
  0003f	83 c0 01	 add	 eax, 1
  00042	39 45 f4	 cmp	 DWORD PTR _i$[ebp], eax
  00045	7d 0a		 jge	 SHORT $LN7@encode_dat

; 195  : 		LFSR[i]=0;

  00047	8b 45 f4	 mov	 eax, DWORD PTR _i$[ebp]
  0004a	c6 44 05 90 00	 mov	 BYTE PTR _LFSR$[ebp+eax], 0
  0004f	eb e0		 jmp	 SHORT $LN8@encode_dat
$LN7@encode_dat:

; 196  : 
; 197  :  // for (i = 0; i < nbytes; i++)
; 198  : 	for (i = nbytes-1; i >= 0; i--)		// Order reversed for compatibility wiyh Rick' Code

  00051	8b 45 0c	 mov	 eax, DWORD PTR _nbytes$[ebp]
  00054	83 e8 01	 sub	 eax, 1
  00057	89 45 f4	 mov	 DWORD PTR _i$[ebp], eax
  0005a	eb 09		 jmp	 SHORT $LN6@encode_dat
$LN5@encode_dat:
  0005c	8b 45 f4	 mov	 eax, DWORD PTR _i$[ebp]
  0005f	83 e8 01	 sub	 eax, 1
  00062	89 45 f4	 mov	 DWORD PTR _i$[ebp], eax
$LN6@encode_dat:
  00065	83 7d f4 00	 cmp	 DWORD PTR _i$[ebp], 0
  00069	7c 7a		 jl	 SHORT $LN4@encode_dat

; 199  : 	{
; 200  : 		dbyte = msg[i] ^ LFSR[NPAR-1];

  0006b	8b 45 08	 mov	 eax, DWORD PTR _msg$[ebp]
  0006e	03 45 f4	 add	 eax, DWORD PTR _i$[ebp]
  00071	0f b6 08	 movzx	 ecx, BYTE PTR [eax]
  00074	8b 15 00 00 00
	00		 mov	 edx, DWORD PTR _NPAR
  0007a	0f b6 44 15 8f	 movzx	 eax, BYTE PTR _LFSR$[ebp+edx-1]
  0007f	33 c8		 xor	 ecx, eax
  00081	89 4d e8	 mov	 DWORD PTR _dbyte$[ebp], ecx

; 201  : 		for (j = NPAR-1; j > 0; j--)

  00084	a1 00 00 00 00	 mov	 eax, DWORD PTR _NPAR
  00089	83 e8 01	 sub	 eax, 1
  0008c	89 45 dc	 mov	 DWORD PTR _j$[ebp], eax
  0008f	eb 09		 jmp	 SHORT $LN3@encode_dat
$LN2@encode_dat:
  00091	8b 45 dc	 mov	 eax, DWORD PTR _j$[ebp]
  00094	83 e8 01	 sub	 eax, 1
  00097	89 45 dc	 mov	 DWORD PTR _j$[ebp], eax
$LN3@encode_dat:
  0009a	83 7d dc 00	 cmp	 DWORD PTR _j$[ebp], 0
  0009e	7e 2a		 jle	 SHORT $LN1@encode_dat

; 202  : 		{
; 203  : 			LFSR[j] = LFSR[j-1] ^ gmult(genPoly[j], dbyte);

  000a0	8b 45 dc	 mov	 eax, DWORD PTR _j$[ebp]
  000a3	0f b6 5c 05 8f	 movzx	 ebx, BYTE PTR _LFSR$[ebp+eax-1]
  000a8	8b 4d e8	 mov	 ecx, DWORD PTR _dbyte$[ebp]
  000ab	51		 push	 ecx
  000ac	8b 55 dc	 mov	 edx, DWORD PTR _j$[ebp]
  000af	8b 04 95 00 00
	00 00		 mov	 eax, DWORD PTR _genPoly[edx*4]
  000b6	50		 push	 eax
  000b7	e8 00 00 00 00	 call	 _gmult
  000bc	83 c4 08	 add	 esp, 8
  000bf	33 d8		 xor	 ebx, eax
  000c1	8b 4d dc	 mov	 ecx, DWORD PTR _j$[ebp]
  000c4	88 5c 0d 90	 mov	 BYTE PTR _LFSR$[ebp+ecx], bl

; 204  : 		}

  000c8	eb c7		 jmp	 SHORT $LN2@encode_dat
$LN1@encode_dat:

; 205  : 		LFSR[0] = gmult(genPoly[0], dbyte);

  000ca	8b 45 e8	 mov	 eax, DWORD PTR _dbyte$[ebp]
  000cd	50		 push	 eax
  000ce	8b 0d 00 00 00
	00		 mov	 ecx, DWORD PTR _genPoly
  000d4	51		 push	 ecx
  000d5	e8 00 00 00 00	 call	 _gmult
  000da	83 c4 08	 add	 esp, 8
  000dd	88 45 90	 mov	 BYTE PTR _LFSR$[ebp], al

; 206  : 	}

  000e0	e9 77 ff ff ff	 jmp	 $LN5@encode_dat
$LN4@encode_dat:

; 207  : 
; 208  : 	// return the parity bytes
; 209  :   
; 210  : 	memcpy(dst, LFSR, NPAR);

  000e5	a1 00 00 00 00	 mov	 eax, DWORD PTR _NPAR
  000ea	50		 push	 eax
  000eb	8d 4d 90	 lea	 ecx, DWORD PTR _LFSR$[ebp]
  000ee	51		 push	 ecx
  000ef	8b 55 10	 mov	 edx, DWORD PTR _dst$[ebp]
  000f2	52		 push	 edx
  000f3	e8 00 00 00 00	 call	 _memcpy
  000f8	83 c4 0c	 add	 esp, 12			; 0000000cH

; 211  : }

  000fb	52		 push	 edx
  000fc	8b cd		 mov	 ecx, ebp
  000fe	50		 push	 eax
  000ff	8d 15 00 00 00
	00		 lea	 edx, DWORD PTR $LN14@encode_dat
  00105	e8 00 00 00 00	 call	 @_RTC_CheckStackVars@8
  0010a	58		 pop	 eax
  0010b	5a		 pop	 edx
  0010c	5f		 pop	 edi
  0010d	5e		 pop	 esi
  0010e	5b		 pop	 ebx
  0010f	8b 4d fc	 mov	 ecx, DWORD PTR __$ArrayPad$[ebp]
  00112	33 cd		 xor	 ecx, ebp
  00114	e8 00 00 00 00	 call	 @__security_check_cookie@4
  00119	81 c4 34 01 00
	00		 add	 esp, 308		; 00000134H
  0011f	3b ec		 cmp	 ebp, esp
  00121	e8 00 00 00 00	 call	 __RTC_CheckEsp
  00126	8b e5		 mov	 esp, ebp
  00128	5d		 pop	 ebp
  00129	c3		 ret	 0
  0012a	8b ff		 npad	 2
$LN14@encode_dat:
  0012c	01 00 00 00	 DD	 1
  00130	00 00 00 00	 DD	 $LN13@encode_dat
$LN13@encode_dat:
  00134	90 ff ff ff	 DD	 -112			; ffffff90H
  00138	41 00 00 00	 DD	 65			; 00000041H
  0013c	00 00 00 00	 DD	 $LN12@encode_dat
$LN12@encode_dat:
  00140	4c		 DB	 76			; 0000004cH
  00141	46		 DB	 70			; 00000046H
  00142	53		 DB	 83			; 00000053H
  00143	52		 DB	 82			; 00000052H
  00144	00		 DB	 0
_encode_data ENDP
_TEXT	ENDS
END
