; Listing generated by Microsoft (R) Optimizing Compiler Version 14.00.50727.42 

	TITLE	c:\SkyDrive\Dev\Source\ARDOPC\SCSHostInterface.c
	.686P
	.XMM
	include listing.inc
	.model	flat

INCLUDELIB LIBCMTD
INCLUDELIB OLDNAMES

PUBLIC	_bytDataToSendLength
PUBLIC	_bytesforHost
PUBLIC	_bytesEchoed
PUBLIC	_DelayedEcho
PUBLIC	_PTCMode
PUBLIC	_change
PUBLIC	_state
PUBLIC	_DataChannel
PUBLIC	_xCRCTAB
_DATA	SEGMENT
COMM	_CRCTAB:WORD:0100H
COMM	_bytEchoData:BYTE:04f8H
COMM	_Toggle:DWORD
COMM	_CommandToHostBuffer:BYTE:0200H
COMM	_CommandToHostBufferLen:DWORD
COMM	_PACMode:DWORD
COMM	_RXBPtr:DWORD
COMM	_ReplyLen:DWORD
COMM	_bytDataToSend:BYTE:01000H
COMM	_HostMode:DWORD
COMM	_ReportCall:BYTE:0aH
COMM	_Term4Mode:DWORD
COMM	_CMDReplyBuffer:BYTE:0100H
COMM	_SCSReply:BYTE:010aH
COMM	_bytDataforHost:BYTE:0800H
_DATA	ENDS
_BSS	SEGMENT
_bytDataToSendLength DD 01H DUP (?)
_bytesforHost DD 01H DUP (?)
_bytesEchoed DD	01H DUP (?)
_DelayedEcho DB	01H DUP (?)
	ALIGN	4

_PTCMode DD	01H DUP (?)
_change	DD	01H DUP (?)
_state	DD	01H DUP (?)
_BSS	ENDS
CONST	SEGMENT
_xCRCTAB DW	00H
	DW	01189H
	DW	02312H
	DW	0329bH
	DW	04624H
	DW	057adH
	DW	06536H
	DW	074bfH
	DW	08c48H
	DW	09dc1H
	DW	0af5aH
	DW	0bed3H
	DW	0ca6cH
	DW	0dbe5H
	DW	0e97eH
	DW	0f8f7H
	DW	01081H
	DW	0108H
	DW	03393H
	DW	0221aH
	DW	056a5H
	DW	0472cH
	DW	075b7H
	DW	0643eH
	DW	09cc9H
	DW	08d40H
	DW	0bfdbH
	DW	0ae52H
	DW	0daedH
	DW	0cb64H
	DW	0f9ffH
	DW	0e876H
	DW	02102H
	DW	0308bH
	DW	0210H
	DW	01399H
	DW	06726H
	DW	076afH
	DW	04434H
	DW	055bdH
	DW	0ad4aH
	DW	0bcc3H
	DW	08e58H
	DW	09fd1H
	DW	0eb6eH
	DW	0fae7H
	DW	0c87cH
	DW	0d9f5H
	DW	03183H
	DW	0200aH
	DW	01291H
	DW	0318H
	DW	077a7H
	DW	0662eH
	DW	054b5H
	DW	0453cH
	DW	0bdcbH
	DW	0ac42H
	DW	09ed9H
	DW	08f50H
	DW	0fbefH
	DW	0ea66H
	DW	0d8fdH
	DW	0c974H
	DW	04204H
	DW	0538dH
	DW	06116H
	DW	0709fH
	DW	0420H
	DW	015a9H
	DW	02732H
	DW	036bbH
	DW	0ce4cH
	DW	0dfc5H
	DW	0ed5eH
	DW	0fcd7H
	DW	08868H
	DW	099e1H
	DW	0ab7aH
	DW	0baf3H
	DW	05285H
	DW	0430cH
	DW	07197H
	DW	0601eH
	DW	014a1H
	DW	0528H
	DW	037b3H
	DW	0263aH
	DW	0decdH
	DW	0cf44H
	DW	0fddfH
	DW	0ec56H
	DW	098e9H
	DW	08960H
	DW	0bbfbH
	DW	0aa72H
	DW	06306H
	DW	0728fH
	DW	04014H
	DW	0519dH
	DW	02522H
	DW	034abH
	DW	0630H
	DW	017b9H
	DW	0ef4eH
	DW	0fec7H
	DW	0cc5cH
	DW	0ddd5H
	DW	0a96aH
	DW	0b8e3H
	DW	08a78H
	DW	09bf1H
	DW	07387H
	DW	0620eH
	DW	05095H
	DW	0411cH
	DW	035a3H
	DW	0242aH
	DW	016b1H
	DW	0738H
	DW	0ffcfH
	DW	0ee46H
	DW	0dcddH
	DW	0cd54H
	DW	0b9ebH
	DW	0a862H
	DW	09af9H
	DW	08b70H
	DW	08408H
	DW	09581H
	DW	0a71aH
	DW	0b693H
	DW	0c22cH
	DW	0d3a5H
	DW	0e13eH
	DW	0f0b7H
	DW	0840H
	DW	019c9H
	DW	02b52H
	DW	03adbH
	DW	04e64H
	DW	05fedH
	DW	06d76H
	DW	07cffH
	DW	09489H
	DW	08500H
	DW	0b79bH
	DW	0a612H
	DW	0d2adH
	DW	0c324H
	DW	0f1bfH
	DW	0e036H
	DW	018c1H
	DW	0948H
	DW	03bd3H
	DW	02a5aH
	DW	05ee5H
	DW	04f6cH
	DW	07df7H
	DW	06c7eH
	DW	0a50aH
	DW	0b483H
	DW	08618H
	DW	09791H
	DW	0e32eH
	DW	0f2a7H
	DW	0c03cH
	DW	0d1b5H
	DW	02942H
	DW	038cbH
	DW	0a50H
	DW	01bd9H
	DW	06f66H
	DW	07eefH
	DW	04c74H
	DW	05dfdH
	DW	0b58bH
	DW	0a402H
	DW	09699H
	DW	08710H
	DW	0f3afH
	DW	0e226H
	DW	0d0bdH
	DW	0c134H
	DW	039c3H
	DW	0284aH
	DW	01ad1H
	DW	0b58H
	DW	07fe7H
	DW	06e6eH
	DW	05cf5H
	DW	04d7cH
	DW	0c60cH
	DW	0d785H
	DW	0e51eH
	DW	0f497H
	DW	08028H
	DW	091a1H
	DW	0a33aH
	DW	0b2b3H
	DW	04a44H
	DW	05bcdH
	DW	06956H
	DW	078dfH
	DW	0c60H
	DW	01de9H
	DW	02f72H
	DW	03efbH
	DW	0d68dH
	DW	0c704H
	DW	0f59fH
	DW	0e416H
	DW	090a9H
	DW	08120H
	DW	0b3bbH
	DW	0a232H
	DW	05ac5H
	DW	04b4cH
	DW	079d7H
	DW	0685eH
	DW	01ce1H
	DW	0d68H
	DW	03ff3H
	DW	02e7aH
	DW	0e70eH
	DW	0f687H
	DW	0c41cH
	DW	0d595H
	DW	0a12aH
	DW	0b0a3H
	DW	08238H
	DW	093b1H
	DW	06b46H
	DW	07acfH
	DW	04854H
	DW	059ddH
	DW	02d62H
	DW	03cebH
	DW	0e70H
	DW	01ff9H
	DW	0f78fH
	DW	0e606H
	DW	0d49dH
	DW	0c514H
	DW	0b1abH
	DW	0a022H
	DW	092b9H
	DW	08330H
	DW	07bc7H
	DW	06a4eH
	DW	058d5H
	DW	0495cH
	DW	03de3H
	DW	02c6aH
	DW	01ef1H
	DW	0f78H
CONST	ENDS
_DATA	SEGMENT
_DataChannel DD	01fH
_DATA	ENDS
PUBLIC	??_C@_06BJKOMAPB@DISCON?$AA@			; `string'
PUBLIC	??_C@_01LIIJDEN@?$AN?$AA@			; `string'
PUBLIC	??_C@_0L@ICJFIHDM@CONNECTED?5?$AA@		; `string'
PUBLIC	??_C@_0O@LJMNHICC@Disconnected?$AN?$AA@		; `string'
PUBLIC	??_C@_0L@HACOFEBF@CONNECT?5TO?$AA@		; `string'
PUBLIC	??_C@_07JINEOCAO@STATUS?5?$AA@			; `string'
PUBLIC	??_C@_0BD@JBJHAFGC@Command?5to?5Host?5?$CFs?$AA@ ; `string'
PUBLIC	_SendCommandToHost
EXTRN	_PutString:PROC
EXTRN	_strlop:PROC
EXTRN	_memcpy:PROC
EXTRN	_memcmp:PROC
EXTRN	_strcpy:PROC
EXTRN	_WriteDebugLog:PROC
EXTRN	_strlen:PROC
EXTRN	__RTC_CheckEsp:PROC
EXTRN	__RTC_Shutdown:PROC
EXTRN	__RTC_InitBase:PROC
;	COMDAT ??_C@_06BJKOMAPB@DISCON?$AA@
; File c:\skydrive\dev\source\ardopc\scshostinterface.c
CONST	SEGMENT
??_C@_06BJKOMAPB@DISCON?$AA@ DB 'DISCON', 00H		; `string'
CONST	ENDS
;	COMDAT ??_C@_01LIIJDEN@?$AN?$AA@
CONST	SEGMENT
??_C@_01LIIJDEN@?$AN?$AA@ DB 0dH, 00H			; `string'
CONST	ENDS
;	COMDAT ??_C@_0L@ICJFIHDM@CONNECTED?5?$AA@
CONST	SEGMENT
??_C@_0L@ICJFIHDM@CONNECTED?5?$AA@ DB 'CONNECTED ', 00H	; `string'
CONST	ENDS
;	COMDAT ??_C@_0O@LJMNHICC@Disconnected?$AN?$AA@
CONST	SEGMENT
??_C@_0O@LJMNHICC@Disconnected?$AN?$AA@ DB 'Disconnected', 0dH, 00H ; `string'
CONST	ENDS
;	COMDAT ??_C@_0L@HACOFEBF@CONNECT?5TO?$AA@
CONST	SEGMENT
??_C@_0L@HACOFEBF@CONNECT?5TO?$AA@ DB 'CONNECT TO', 00H	; `string'
CONST	ENDS
;	COMDAT ??_C@_07JINEOCAO@STATUS?5?$AA@
CONST	SEGMENT
??_C@_07JINEOCAO@STATUS?5?$AA@ DB 'STATUS ', 00H	; `string'
CONST	ENDS
;	COMDAT ??_C@_0BD@JBJHAFGC@Command?5to?5Host?5?$CFs?$AA@
CONST	SEGMENT
??_C@_0BD@JBJHAFGC@Command?5to?5Host?5?$CFs?$AA@ DB 'Command to Host %s', 00H ; `string'
CONST	ENDS
;	COMDAT rtc$TMZ
rtc$TMZ	SEGMENT
__RTC_Shutdown.rtc$TMZ DD FLAT:__RTC_Shutdown
rtc$TMZ	ENDS
;	COMDAT rtc$IMZ
rtc$IMZ	SEGMENT
__RTC_InitBase.rtc$IMZ DD FLAT:__RTC_InitBase
; Function compile flags: /Odtp /RTCsu /ZI
rtc$IMZ	ENDS
;	COMDAT _SendCommandToHost
_TEXT	SEGMENT
_len$5528 = -20						; size = 4
_ptr$5527 = -8						; size = 4
_Cmd$ = 8						; size = 4
_SendCommandToHost PROC					; COMDAT

; 98   : {

  00000	55		 push	 ebp
  00001	8b ec		 mov	 ebp, esp
  00003	81 ec d8 00 00
	00		 sub	 esp, 216		; 000000d8H
  00009	53		 push	 ebx
  0000a	56		 push	 esi
  0000b	57		 push	 edi
  0000c	8d bd 28 ff ff
	ff		 lea	 edi, DWORD PTR [ebp-216]
  00012	b9 36 00 00 00	 mov	 ecx, 54			; 00000036H
  00017	b8 cc cc cc cc	 mov	 eax, -858993460		; ccccccccH
  0001c	f3 ab		 rep stosd

; 99   : 	if (HostMode & !PTCMode)	// ARDOP Native

  0001e	33 c0		 xor	 eax, eax
  00020	83 3d 00 00 00
	00 00		 cmp	 DWORD PTR _PTCMode, 0
  00027	0f 94 c0	 sete	 al
  0002a	23 05 00 00 00
	00		 and	 eax, DWORD PTR _HostMode
  00030	0f 84 b7 00 00
	00		 je	 $LN13@SendComman

; 100  : 	{
; 101  : 		char * ptr = &CommandToHostBuffer[CommandToHostBufferLen];

  00036	a1 00 00 00 00	 mov	 eax, DWORD PTR _CommandToHostBufferLen
  0003b	05 00 00 00 00	 add	 eax, OFFSET _CommandToHostBuffer
  00040	89 45 f8	 mov	 DWORD PTR _ptr$5527[ebp], eax

; 102  : 		int len = strlen(Cmd);

  00043	8b 45 08	 mov	 eax, DWORD PTR _Cmd$[ebp]
  00046	50		 push	 eax
  00047	e8 00 00 00 00	 call	 _strlen
  0004c	83 c4 04	 add	 esp, 4
  0004f	89 45 ec	 mov	 DWORD PTR _len$5528[ebp], eax

; 103  : 
; 104  : 		WriteDebugLog(LOGDEBUG, "Command to Host %s", Cmd);

  00052	8b 45 08	 mov	 eax, DWORD PTR _Cmd$[ebp]
  00055	50		 push	 eax
  00056	68 00 00 00 00	 push	 OFFSET ??_C@_0BD@JBJHAFGC@Command?5to?5Host?5?$CFs?$AA@
  0005b	6a 07		 push	 7
  0005d	e8 00 00 00 00	 call	 _WriteDebugLog
  00062	83 c4 0c	 add	 esp, 12			; 0000000cH

; 105  : 
; 106  : 		if (CommandToHostBufferLen + len > 500)

  00065	a1 00 00 00 00	 mov	 eax, DWORD PTR _CommandToHostBufferLen
  0006a	03 45 ec	 add	 eax, DWORD PTR _len$5528[ebp]
  0006d	3d f4 01 00 00	 cmp	 eax, 500		; 000001f4H
  00072	7e 05		 jle	 SHORT $LN12@SendComman

; 107  : 			return;			// ignore if full

  00074	e9 c0 01 00 00	 jmp	 $LN14@SendComman
$LN12@SendComman:

; 108  : 
; 109  : 		// Add headers and queue for host
; 110  : 
; 111  : 		*ptr++ = 'c';

  00079	8b 45 f8	 mov	 eax, DWORD PTR _ptr$5527[ebp]
  0007c	c6 00 63	 mov	 BYTE PTR [eax], 99	; 00000063H
  0007f	8b 4d f8	 mov	 ecx, DWORD PTR _ptr$5527[ebp]
  00082	83 c1 01	 add	 ecx, 1
  00085	89 4d f8	 mov	 DWORD PTR _ptr$5527[ebp], ecx

; 112  : 		*ptr++ = ':';

  00088	8b 45 f8	 mov	 eax, DWORD PTR _ptr$5527[ebp]
  0008b	c6 00 3a	 mov	 BYTE PTR [eax], 58	; 0000003aH
  0008e	8b 4d f8	 mov	 ecx, DWORD PTR _ptr$5527[ebp]
  00091	83 c1 01	 add	 ecx, 1
  00094	89 4d f8	 mov	 DWORD PTR _ptr$5527[ebp], ecx

; 113  : 		strcpy(ptr, Cmd);

  00097	8b 45 08	 mov	 eax, DWORD PTR _Cmd$[ebp]
  0009a	50		 push	 eax
  0009b	8b 4d f8	 mov	 ecx, DWORD PTR _ptr$5527[ebp]
  0009e	51		 push	 ecx
  0009f	e8 00 00 00 00	 call	 _strcpy
  000a4	83 c4 08	 add	 esp, 8

; 114  : 		ptr += len;

  000a7	8b 45 f8	 mov	 eax, DWORD PTR _ptr$5527[ebp]
  000aa	03 45 ec	 add	 eax, DWORD PTR _len$5528[ebp]
  000ad	89 45 f8	 mov	 DWORD PTR _ptr$5527[ebp], eax

; 115  : 		*ptr++ = '\r';

  000b0	8b 45 f8	 mov	 eax, DWORD PTR _ptr$5527[ebp]
  000b3	c6 00 0d	 mov	 BYTE PTR [eax], 13	; 0000000dH
  000b6	8b 4d f8	 mov	 ecx, DWORD PTR _ptr$5527[ebp]
  000b9	83 c1 01	 add	 ecx, 1
  000bc	89 4d f8	 mov	 DWORD PTR _ptr$5527[ebp], ecx

; 116  : 
; 117  : 		CommandToHostBufferLen += (len + 3);

  000bf	8b 45 ec	 mov	 eax, DWORD PTR _len$5528[ebp]
  000c2	8b 0d 00 00 00
	00		 mov	 ecx, DWORD PTR _CommandToHostBufferLen
  000c8	8d 54 01 03	 lea	 edx, DWORD PTR [ecx+eax+3]
  000cc	89 15 00 00 00
	00		 mov	 DWORD PTR _CommandToHostBufferLen, edx

; 118  : 
; 119  : 		if (CommandToHostBufferLen > 512)

  000d2	81 3d 00 00 00
	00 00 02 00 00	 cmp	 DWORD PTR _CommandToHostBufferLen, 512 ; 00000200H
  000dc	7e 0a		 jle	 SHORT $LN11@SendComman

; 120  : 			CommandToHostBufferLen = 0;

  000de	c7 05 00 00 00
	00 00 00 00 00	 mov	 DWORD PTR _CommandToHostBufferLen, 0
$LN11@SendComman:

; 121  : 
; 122  : 		return;

  000e8	e9 4c 01 00 00	 jmp	 $LN14@SendComman
$LN13@SendComman:

; 123  : 	}
; 124  : 
; 125  : 	if (memcmp(Cmd, "STATUS ", 7) == 0)

  000ed	6a 07		 push	 7
  000ef	68 00 00 00 00	 push	 OFFSET ??_C@_07JINEOCAO@STATUS?5?$AA@
  000f4	8b 45 08	 mov	 eax, DWORD PTR _Cmd$[ebp]
  000f7	50		 push	 eax
  000f8	e8 00 00 00 00	 call	 _memcmp
  000fd	83 c4 0c	 add	 esp, 12			; 0000000cH
  00100	85 c0		 test	 eax, eax
  00102	75 6b		 jne	 SHORT $LN10@SendComman

; 126  : 	{
; 127  : 		if (memcmp(&Cmd[7], "CONNECT TO", 10) == 0)

  00104	6a 0a		 push	 10			; 0000000aH
  00106	68 00 00 00 00	 push	 OFFSET ??_C@_0L@HACOFEBF@CONNECT?5TO?$AA@
  0010b	8b 45 08	 mov	 eax, DWORD PTR _Cmd$[ebp]
  0010e	83 c0 07	 add	 eax, 7
  00111	50		 push	 eax
  00112	e8 00 00 00 00	 call	 _memcmp
  00117	83 c4 0c	 add	 esp, 12			; 0000000cH
  0011a	85 c0		 test	 eax, eax
  0011c	75 51		 jne	 SHORT $LN10@SendComman

; 128  : 		{
; 129  : 			if (HostMode)

  0011e	83 3d 00 00 00
	00 00		 cmp	 DWORD PTR _HostMode, 0
  00125	74 3b		 je	 SHORT $LN8@SendComman

; 130  : 			{
; 131  : 				memcpy(ReportCall, &Cmd[18], 10);

  00127	6a 0a		 push	 10			; 0000000aH
  00129	8b 45 08	 mov	 eax, DWORD PTR _Cmd$[ebp]
  0012c	83 c0 12	 add	 eax, 18			; 00000012H
  0012f	50		 push	 eax
  00130	68 00 00 00 00	 push	 OFFSET _ReportCall
  00135	e8 00 00 00 00	 call	 _memcpy
  0013a	83 c4 0c	 add	 esp, 12			; 0000000cH

; 132  : 				strlop(ReportCall, ' ');

  0013d	6a 20		 push	 32			; 00000020H
  0013f	68 00 00 00 00	 push	 OFFSET _ReportCall
  00144	e8 00 00 00 00	 call	 _strlop
  00149	83 c4 08	 add	 esp, 8

; 133  : 				change = 1;

  0014c	c7 05 00 00 00
	00 01 00 00 00	 mov	 DWORD PTR _change, 1

; 134  : 				state = 0;

  00156	c7 05 00 00 00
	00 00 00 00 00	 mov	 DWORD PTR _state, 0

; 135  : 			}
; 136  : 			else

  00160	eb 0d		 jmp	 SHORT $LN10@SendComman
$LN8@SendComman:

; 137  : 				PutString("Disconnected\r");

  00162	68 00 00 00 00	 push	 OFFSET ??_C@_0O@LJMNHICC@Disconnected?$AN?$AA@
  00167	e8 00 00 00 00	 call	 _PutString
  0016c	83 c4 04	 add	 esp, 4
$LN10@SendComman:

; 138  : 		}
; 139  : 	}
; 140  : 	if (memcmp(Cmd, "CONNECTED ", 10) == 0)

  0016f	6a 0a		 push	 10			; 0000000aH
  00171	68 00 00 00 00	 push	 OFFSET ??_C@_0L@ICJFIHDM@CONNECTED?5?$AA@
  00176	8b 45 08	 mov	 eax, DWORD PTR _Cmd$[ebp]
  00179	50		 push	 eax
  0017a	e8 00 00 00 00	 call	 _memcmp
  0017f	83 c4 0c	 add	 esp, 12			; 0000000cH
  00182	85 c0		 test	 eax, eax
  00184	75 5d		 jne	 SHORT $LN6@SendComman

; 141  : 	{
; 142  : 		if (HostMode)

  00186	83 3d 00 00 00
	00 00		 cmp	 DWORD PTR _HostMode, 0
  0018d	74 3b		 je	 SHORT $LN5@SendComman

; 143  : 		{
; 144  : 			memcpy(ReportCall, &Cmd[10], 10);

  0018f	6a 0a		 push	 10			; 0000000aH
  00191	8b 45 08	 mov	 eax, DWORD PTR _Cmd$[ebp]
  00194	83 c0 0a	 add	 eax, 10			; 0000000aH
  00197	50		 push	 eax
  00198	68 00 00 00 00	 push	 OFFSET _ReportCall
  0019d	e8 00 00 00 00	 call	 _memcpy
  001a2	83 c4 0c	 add	 esp, 12			; 0000000cH

; 145  : 			strlop(ReportCall, ' ');

  001a5	6a 20		 push	 32			; 00000020H
  001a7	68 00 00 00 00	 push	 OFFSET _ReportCall
  001ac	e8 00 00 00 00	 call	 _strlop
  001b1	83 c4 08	 add	 esp, 8

; 146  : 			change = 1;

  001b4	c7 05 00 00 00
	00 01 00 00 00	 mov	 DWORD PTR _change, 1

; 147  : 			state = 1;

  001be	c7 05 00 00 00
	00 01 00 00 00	 mov	 DWORD PTR _state, 1

; 148  : 		}
; 149  : 		else

  001c8	eb 19		 jmp	 SHORT $LN6@SendComman
$LN5@SendComman:

; 150  : 		{
; 151  : 			PutString(Cmd);

  001ca	8b 45 08	 mov	 eax, DWORD PTR _Cmd$[ebp]
  001cd	50		 push	 eax
  001ce	e8 00 00 00 00	 call	 _PutString
  001d3	83 c4 04	 add	 esp, 4

; 152  : 			PutString("\r");

  001d6	68 00 00 00 00	 push	 OFFSET ??_C@_01LIIJDEN@?$AN?$AA@
  001db	e8 00 00 00 00	 call	 _PutString
  001e0	83 c4 04	 add	 esp, 4
$LN6@SendComman:

; 153  : 		}
; 154  : 		}
; 155  : 
; 156  : 	if (memcmp(Cmd, "DISCON", 6) == 0)

  001e3	6a 06		 push	 6
  001e5	68 00 00 00 00	 push	 OFFSET ??_C@_06BJKOMAPB@DISCON?$AA@
  001ea	8b 45 08	 mov	 eax, DWORD PTR _Cmd$[ebp]
  001ed	50		 push	 eax
  001ee	e8 00 00 00 00	 call	 _memcmp
  001f3	83 c4 0c	 add	 esp, 12			; 0000000cH
  001f6	85 c0		 test	 eax, eax
  001f8	75 2c		 jne	 SHORT $LN3@SendComman

; 157  : 	{
; 158  : 		if (HostMode)

  001fa	83 3d 00 00 00
	00 00		 cmp	 DWORD PTR _HostMode, 0
  00201	74 16		 je	 SHORT $LN2@SendComman

; 159  : 		{
; 160  : 			change = 1;

  00203	c7 05 00 00 00
	00 01 00 00 00	 mov	 DWORD PTR _change, 1

; 161  : 			state = 0;

  0020d	c7 05 00 00 00
	00 00 00 00 00	 mov	 DWORD PTR _state, 0

; 162  : 		}
; 163  : 		else

  00217	eb 0d		 jmp	 SHORT $LN3@SendComman
$LN2@SendComman:

; 164  : 			PutString("Disconnected\r");

  00219	68 00 00 00 00	 push	 OFFSET ??_C@_0O@LJMNHICC@Disconnected?$AN?$AA@
  0021e	e8 00 00 00 00	 call	 _PutString
  00223	83 c4 04	 add	 esp, 4
$LN3@SendComman:

; 165  : 	}
; 166  : 	WriteDebugLog(LOGDEBUG, "Command to Host %s", Cmd);

  00226	8b 45 08	 mov	 eax, DWORD PTR _Cmd$[ebp]
  00229	50		 push	 eax
  0022a	68 00 00 00 00	 push	 OFFSET ??_C@_0BD@JBJHAFGC@Command?5to?5Host?5?$CFs?$AA@
  0022f	6a 07		 push	 7
  00231	e8 00 00 00 00	 call	 _WriteDebugLog
  00236	83 c4 0c	 add	 esp, 12			; 0000000cH
$LN14@SendComman:

; 167  : }

  00239	5f		 pop	 edi
  0023a	5e		 pop	 esi
  0023b	5b		 pop	 ebx
  0023c	81 c4 d8 00 00
	00		 add	 esp, 216		; 000000d8H
  00242	3b ec		 cmp	 ebp, esp
  00244	e8 00 00 00 00	 call	 __RTC_CheckEsp
  00249	8b e5		 mov	 esp, ebp
  0024b	5d		 pop	 ebp
  0024c	c3		 ret	 0
_SendCommandToHost ENDP
_TEXT	ENDS
PUBLIC	_QueueCommandToHost
; Function compile flags: /Odtp /RTCsu /ZI
;	COMDAT _QueueCommandToHost
_TEXT	SEGMENT
_Cmd$ = 8						; size = 4
_QueueCommandToHost PROC				; COMDAT

; 171  : {

  00000	55		 push	 ebp
  00001	8b ec		 mov	 ebp, esp
  00003	81 ec c0 00 00
	00		 sub	 esp, 192		; 000000c0H
  00009	53		 push	 ebx
  0000a	56		 push	 esi
  0000b	57		 push	 edi
  0000c	8d bd 40 ff ff
	ff		 lea	 edi, DWORD PTR [ebp-192]
  00012	b9 30 00 00 00	 mov	 ecx, 48			; 00000030H
  00017	b8 cc cc cc cc	 mov	 eax, -858993460		; ccccccccH
  0001c	f3 ab		 rep stosd

; 172  : 	SendCommandToHost(Cmd);		// no queuing now

  0001e	8b 45 08	 mov	 eax, DWORD PTR _Cmd$[ebp]
  00021	50		 push	 eax
  00022	e8 00 00 00 00	 call	 _SendCommandToHost
  00027	83 c4 04	 add	 esp, 4

; 173  : }

  0002a	5f		 pop	 edi
  0002b	5e		 pop	 esi
  0002c	5b		 pop	 ebx
  0002d	81 c4 c0 00 00
	00		 add	 esp, 192		; 000000c0H
  00033	3b ec		 cmp	 ebp, esp
  00035	e8 00 00 00 00	 call	 __RTC_CheckEsp
  0003a	8b e5		 mov	 esp, ebp
  0003c	5d		 pop	 ebp
  0003d	c3		 ret	 0
_QueueCommandToHost ENDP
_TEXT	ENDS
PUBLIC	_SendReplyToHost
; Function compile flags: /Odtp /RTCsu /ZI
;	COMDAT _SendReplyToHost
_TEXT	SEGMENT
_Cmd$ = 8						; size = 4
_SendReplyToHost PROC					; COMDAT

; 177  : {

  00000	55		 push	 ebp
  00001	8b ec		 mov	 ebp, esp
  00003	81 ec c0 00 00
	00		 sub	 esp, 192		; 000000c0H
  00009	53		 push	 ebx
  0000a	56		 push	 esi
  0000b	57		 push	 edi
  0000c	8d bd 40 ff ff
	ff		 lea	 edi, DWORD PTR [ebp-192]
  00012	b9 30 00 00 00	 mov	 ecx, 48			; 00000030H
  00017	b8 cc cc cc cc	 mov	 eax, -858993460		; ccccccccH
  0001c	f3 ab		 rep stosd

; 178  : 	// Used by command handler
; 179  : 
; 180  : 	if (HostMode)

  0001e	83 3d 00 00 00
	00 00		 cmp	 DWORD PTR _HostMode, 0
  00025	74 20		 je	 SHORT $LN4@SendReplyT

; 181  : 		if (PTCMode)

  00027	83 3d 00 00 00
	00 00		 cmp	 DWORD PTR _PTCMode, 0
  0002e	74 04		 je	 SHORT $LN3@SendReplyT

; 182  : 			return;				// shouldnt have commands jn PTC Mode

  00030	eb 21		 jmp	 SHORT $LN5@SendReplyT

; 183  : 		else

  00032	eb 11		 jmp	 SHORT $LN2@SendReplyT
$LN3@SendReplyT:

; 184  : 			strcpy(CMDReplyBuffer, Cmd);

  00034	8b 45 08	 mov	 eax, DWORD PTR _Cmd$[ebp]
  00037	50		 push	 eax
  00038	68 00 00 00 00	 push	 OFFSET _CMDReplyBuffer
  0003d	e8 00 00 00 00	 call	 _strcpy
  00042	83 c4 08	 add	 esp, 8
$LN2@SendReplyT:

; 185  : 
; 186  : 	else

  00045	eb 0c		 jmp	 SHORT $LN5@SendReplyT
$LN4@SendReplyT:

; 187  : 		PutString(Cmd);

  00047	8b 45 08	 mov	 eax, DWORD PTR _Cmd$[ebp]
  0004a	50		 push	 eax
  0004b	e8 00 00 00 00	 call	 _PutString
  00050	83 c4 04	 add	 esp, 4
$LN5@SendReplyT:

; 188  : }

  00053	5f		 pop	 edi
  00054	5e		 pop	 esi
  00055	5b		 pop	 ebx
  00056	81 c4 c0 00 00
	00		 add	 esp, 192		; 000000c0H
  0005c	3b ec		 cmp	 ebp, esp
  0005e	e8 00 00 00 00	 call	 __RTC_CheckEsp
  00063	8b e5		 mov	 esp, ebp
  00065	5d		 pop	 ebp
  00066	c3		 ret	 0
_SendReplyToHost ENDP
_TEXT	ENDS
PUBLIC	??_C@_0BC@LACPMDGF@STATUS?5CONNECT?5TO?$AA@	; `string'
PUBLIC	_SendCommandToHostQuiet
;	COMDAT ??_C@_0BC@LACPMDGF@STATUS?5CONNECT?5TO?$AA@
CONST	SEGMENT
??_C@_0BC@LACPMDGF@STATUS?5CONNECT?5TO?$AA@ DB 'STATUS CONNECT TO', 00H ; `string'
; Function compile flags: /Odtp /RTCsu /ZI
CONST	ENDS
;	COMDAT _SendCommandToHostQuiet
_TEXT	SEGMENT
_Cmd$ = 8						; size = 4
_SendCommandToHostQuiet PROC				; COMDAT

; 191  : {

  00000	55		 push	 ebp
  00001	8b ec		 mov	 ebp, esp
  00003	81 ec c0 00 00
	00		 sub	 esp, 192		; 000000c0H
  00009	53		 push	 ebx
  0000a	56		 push	 esi
  0000b	57		 push	 edi
  0000c	8d bd 40 ff ff
	ff		 lea	 edi, DWORD PTR [ebp-192]
  00012	b9 30 00 00 00	 mov	 ecx, 48			; 00000030H
  00017	b8 cc cc cc cc	 mov	 eax, -858993460		; ccccccccH
  0001c	f3 ab		 rep stosd

; 192  : 	// if possible convert to equivalent PTC message
; 193  : 
; 194  : 	if (memcmp(Cmd, "STATUS CONNECT TO", 20) == 0)

  0001e	6a 14		 push	 20			; 00000014H
  00020	68 00 00 00 00	 push	 OFFSET ??_C@_0BC@LACPMDGF@STATUS?5CONNECT?5TO?$AA@
  00025	8b 45 08	 mov	 eax, DWORD PTR _Cmd$[ebp]
  00028	50		 push	 eax
  00029	e8 00 00 00 00	 call	 _memcmp
  0002e	83 c4 0c	 add	 esp, 12			; 0000000cH
  00031	85 c0		 test	 eax, eax
  00033	75 14		 jne	 SHORT $LN1@SendComman@2

; 195  : 	{
; 196  : 		change = 1;

  00035	c7 05 00 00 00
	00 01 00 00 00	 mov	 DWORD PTR _change, 1

; 197  : 		state = 0;

  0003f	c7 05 00 00 00
	00 00 00 00 00	 mov	 DWORD PTR _state, 0
$LN1@SendComman@2:

; 198  : 	}
; 199  : 
; 200  : 	WriteDebugLog(LOGDEBUG, "Command to Host %s", Cmd);

  00049	8b 45 08	 mov	 eax, DWORD PTR _Cmd$[ebp]
  0004c	50		 push	 eax
  0004d	68 00 00 00 00	 push	 OFFSET ??_C@_0BD@JBJHAFGC@Command?5to?5Host?5?$CFs?$AA@
  00052	6a 07		 push	 7
  00054	e8 00 00 00 00	 call	 _WriteDebugLog
  00059	83 c4 0c	 add	 esp, 12			; 0000000cH

; 201  : }

  0005c	5f		 pop	 edi
  0005d	5e		 pop	 esi
  0005e	5b		 pop	 ebx
  0005f	81 c4 c0 00 00
	00		 add	 esp, 192		; 000000c0H
  00065	3b ec		 cmp	 ebp, esp
  00067	e8 00 00 00 00	 call	 __RTC_CheckEsp
  0006c	8b e5		 mov	 esp, ebp
  0006e	5d		 pop	 ebp
  0006f	c3		 ret	 0
_SendCommandToHostQuiet ENDP
_TEXT	ENDS
PUBLIC	??_C@_03DBILIJHA@ARQ?$AA@			; `string'
PUBLIC	_AddTagToDataAndSendToHost
EXTRN	_strcmp:PROC
;	COMDAT ??_C@_03DBILIJHA@ARQ?$AA@
CONST	SEGMENT
??_C@_03DBILIJHA@ARQ?$AA@ DB 'ARQ', 00H			; `string'
; Function compile flags: /Odtp /RTCsu /ZI
CONST	ENDS
;	COMDAT _AddTagToDataAndSendToHost
_TEXT	SEGMENT
_Msg$ = 8						; size = 4
_Type$ = 12						; size = 4
_Len$ = 16						; size = 4
_AddTagToDataAndSendToHost PROC				; COMDAT

; 205  : {

  00000	55		 push	 ebp
  00001	8b ec		 mov	 ebp, esp
  00003	81 ec c0 00 00
	00		 sub	 esp, 192		; 000000c0H
  00009	53		 push	 ebx
  0000a	56		 push	 esi
  0000b	57		 push	 edi
  0000c	8d bd 40 ff ff
	ff		 lea	 edi, DWORD PTR [ebp-192]
  00012	b9 30 00 00 00	 mov	 ecx, 48			; 00000030H
  00017	b8 cc cc cc cc	 mov	 eax, -858993460		; ccccccccH
  0001c	f3 ab		 rep stosd

; 206  : 	if (!HostMode)

  0001e	83 3d 00 00 00
	00 00		 cmp	 DWORD PTR _HostMode, 0
  00025	75 1a		 jne	 SHORT $LN3@AddTagToDa

; 207  : 	{
; 208  : 		Msg[Len] = 0;

  00027	8b 45 08	 mov	 eax, DWORD PTR _Msg$[ebp]
  0002a	03 45 10	 add	 eax, DWORD PTR _Len$[ebp]
  0002d	c6 00 00	 mov	 BYTE PTR [eax], 0

; 209  : 		PutString(Msg);

  00030	8b 45 08	 mov	 eax, DWORD PTR _Msg$[ebp]
  00033	50		 push	 eax
  00034	e8 00 00 00 00	 call	 _PutString
  00039	83 c4 04	 add	 esp, 4

; 210  : 		return;

  0003c	e9 18 01 00 00	 jmp	 $LN4@AddTagToDa
$LN3@AddTagToDa:

; 211  : 	}
; 212  : 
; 213  : 	if (PTCMode)

  00041	83 3d 00 00 00
	00 00		 cmp	 DWORD PTR _PTCMode, 0
  00048	74 44		 je	 SHORT $LN2@AddTagToDa

; 214  : 	{
; 215  : 		// only pass ARQ Data to Host
; 216  : 
; 217  : 		if (strcmp(Type, "ARQ") == 0)

  0004a	68 00 00 00 00	 push	 OFFSET ??_C@_03DBILIJHA@ARQ?$AA@
  0004f	8b 45 0c	 mov	 eax, DWORD PTR _Type$[ebp]
  00052	50		 push	 eax
  00053	e8 00 00 00 00	 call	 _strcmp
  00058	83 c4 08	 add	 esp, 8
  0005b	85 c0		 test	 eax, eax
  0005d	75 2a		 jne	 SHORT $LN1@AddTagToDa

; 218  : 		{
; 219  : 			memcpy(&bytDataforHost[bytesforHost], Msg, Len);

  0005f	8b 45 10	 mov	 eax, DWORD PTR _Len$[ebp]
  00062	50		 push	 eax
  00063	8b 4d 08	 mov	 ecx, DWORD PTR _Msg$[ebp]
  00066	51		 push	 ecx
  00067	8b 15 00 00 00
	00		 mov	 edx, DWORD PTR _bytesforHost
  0006d	81 c2 00 00 00
	00		 add	 edx, OFFSET _bytDataforHost
  00073	52		 push	 edx
  00074	e8 00 00 00 00	 call	 _memcpy
  00079	83 c4 0c	 add	 esp, 12			; 0000000cH

; 220  : 			bytesforHost += Len;

  0007c	a1 00 00 00 00	 mov	 eax, DWORD PTR _bytesforHost
  00081	03 45 10	 add	 eax, DWORD PTR _Len$[ebp]
  00084	a3 00 00 00 00	 mov	 DWORD PTR _bytesforHost, eax
$LN1@AddTagToDa:

; 221  : 		}
; 222  : 
; 223  : 		return;

  00089	e9 cb 00 00 00	 jmp	 $LN4@AddTagToDa
$LN2@AddTagToDa:

; 224  : 	}
; 225  : 
; 226  : 	// In ARDOP Native add header (Type and Len)
; 227  : 
; 228  : 	bytDataforHost[bytesforHost++] = 'd';			// indicates data from TNC

  0008e	a1 00 00 00 00	 mov	 eax, DWORD PTR _bytesforHost
  00093	c6 80 00 00 00
	00 64		 mov	 BYTE PTR _bytDataforHost[eax], 100 ; 00000064H
  0009a	8b 0d 00 00 00
	00		 mov	 ecx, DWORD PTR _bytesforHost
  000a0	83 c1 01	 add	 ecx, 1
  000a3	89 0d 00 00 00
	00		 mov	 DWORD PTR _bytesforHost, ecx

; 229  : 	bytDataforHost[bytesforHost++] = ':';

  000a9	a1 00 00 00 00	 mov	 eax, DWORD PTR _bytesforHost
  000ae	c6 80 00 00 00
	00 3a		 mov	 BYTE PTR _bytDataforHost[eax], 58 ; 0000003aH
  000b5	8b 0d 00 00 00
	00		 mov	 ecx, DWORD PTR _bytesforHost
  000bb	83 c1 01	 add	 ecx, 1
  000be	89 0d 00 00 00
	00		 mov	 DWORD PTR _bytesforHost, ecx

; 230  : 	Len += 3;		// Tag

  000c4	8b 45 10	 mov	 eax, DWORD PTR _Len$[ebp]
  000c7	83 c0 03	 add	 eax, 3
  000ca	89 45 10	 mov	 DWORD PTR _Len$[ebp], eax

; 231  : 	bytDataforHost[bytesforHost++] = Len >> 8;		//' MS byte of count  (Includes strDataType but does not include the two trailing CRC bytes)

  000cd	8b 45 10	 mov	 eax, DWORD PTR _Len$[ebp]
  000d0	c1 f8 08	 sar	 eax, 8
  000d3	8b 0d 00 00 00
	00		 mov	 ecx, DWORD PTR _bytesforHost
  000d9	88 81 00 00 00
	00		 mov	 BYTE PTR _bytDataforHost[ecx], al
  000df	8b 15 00 00 00
	00		 mov	 edx, DWORD PTR _bytesforHost
  000e5	83 c2 01	 add	 edx, 1
  000e8	89 15 00 00 00
	00		 mov	 DWORD PTR _bytesforHost, edx

; 232  : 	bytDataforHost[bytesforHost++] = Len  & 0xFF;	// LS Byte

  000ee	8b 45 10	 mov	 eax, DWORD PTR _Len$[ebp]
  000f1	25 ff 00 00 00	 and	 eax, 255		; 000000ffH
  000f6	8b 0d 00 00 00
	00		 mov	 ecx, DWORD PTR _bytesforHost
  000fc	88 81 00 00 00
	00		 mov	 BYTE PTR _bytDataforHost[ecx], al
  00102	8b 15 00 00 00
	00		 mov	 edx, DWORD PTR _bytesforHost
  00108	83 c2 01	 add	 edx, 1
  0010b	89 15 00 00 00
	00		 mov	 DWORD PTR _bytesforHost, edx

; 233  : 	memcpy(&bytDataforHost[bytesforHost], Type, 3);

  00111	6a 03		 push	 3
  00113	8b 45 0c	 mov	 eax, DWORD PTR _Type$[ebp]
  00116	50		 push	 eax
  00117	8b 0d 00 00 00
	00		 mov	 ecx, DWORD PTR _bytesforHost
  0011d	81 c1 00 00 00
	00		 add	 ecx, OFFSET _bytDataforHost
  00123	51		 push	 ecx
  00124	e8 00 00 00 00	 call	 _memcpy
  00129	83 c4 0c	 add	 esp, 12			; 0000000cH

; 234  : 	memcpy(&bytDataforHost[bytesforHost + 3], Msg, Len - 3);

  0012c	8b 45 10	 mov	 eax, DWORD PTR _Len$[ebp]
  0012f	83 e8 03	 sub	 eax, 3
  00132	50		 push	 eax
  00133	8b 4d 08	 mov	 ecx, DWORD PTR _Msg$[ebp]
  00136	51		 push	 ecx
  00137	8b 15 00 00 00
	00		 mov	 edx, DWORD PTR _bytesforHost
  0013d	81 c2 03 00 00
	00		 add	 edx, OFFSET _bytDataforHost+3
  00143	52		 push	 edx
  00144	e8 00 00 00 00	 call	 _memcpy
  00149	83 c4 0c	 add	 esp, 12			; 0000000cH

; 235  : 	bytesforHost += Len;

  0014c	a1 00 00 00 00	 mov	 eax, DWORD PTR _bytesforHost
  00151	03 45 10	 add	 eax, DWORD PTR _Len$[ebp]
  00154	a3 00 00 00 00	 mov	 DWORD PTR _bytesforHost, eax
$LN4@AddTagToDa:

; 236  : }

  00159	5f		 pop	 edi
  0015a	5e		 pop	 esi
  0015b	5b		 pop	 ebx
  0015c	81 c4 c0 00 00
	00		 add	 esp, 192		; 000000c0H
  00162	3b ec		 cmp	 ebp, esp
  00164	e8 00 00 00 00	 call	 __RTC_CheckEsp
  00169	8b e5		 mov	 esp, ebp
  0016b	5d		 pop	 ebp
  0016c	c3		 ret	 0
_AddTagToDataAndSendToHost ENDP
_TEXT	ENDS
PUBLIC	??_C@_0BI@OPPPPCHH@?$CI?$CFd?$CJ?5DISCONNECTED?5fm?5?$CFs?$AA@ ; `string'
PUBLIC	_EmCRCStuffAndSend
PUBLIC	??_C@_0BF@NALENCAB@?$CI?$CFd?$CJ?5CONNECTED?5to?5?$CFs?$AA@ ; `string'
PUBLIC	_CheckStatusChange
EXTRN	_sprintf:PROC
;	COMDAT ??_C@_0BI@OPPPPCHH@?$CI?$CFd?$CJ?5DISCONNECTED?5fm?5?$CFs?$AA@
CONST	SEGMENT
??_C@_0BI@OPPPPCHH@?$CI?$CFd?$CJ?5DISCONNECTED?5fm?5?$CFs?$AA@ DB '(%d) D'
	DB	'ISCONNECTED fm %s', 00H			; `string'
CONST	ENDS
;	COMDAT ??_C@_0BF@NALENCAB@?$CI?$CFd?$CJ?5CONNECTED?5to?5?$CFs?$AA@
CONST	SEGMENT
??_C@_0BF@NALENCAB@?$CI?$CFd?$CJ?5CONNECTED?5to?5?$CFs?$AA@ DB '(%d) CONN'
	DB	'ECTED to %s', 00H				; `string'
; Function compile flags: /Odtp /RTCsu /ZI
CONST	ENDS
;	COMDAT _CheckStatusChange
_TEXT	SEGMENT
_CheckStatusChange PROC					; COMDAT

; 239  : {

  00000	55		 push	 ebp
  00001	8b ec		 mov	 ebp, esp
  00003	81 ec c0 00 00
	00		 sub	 esp, 192		; 000000c0H
  00009	53		 push	 ebx
  0000a	56		 push	 esi
  0000b	57		 push	 edi
  0000c	8d bd 40 ff ff
	ff		 lea	 edi, DWORD PTR [ebp-192]
  00012	b9 30 00 00 00	 mov	 ecx, 48			; 00000030H
  00017	b8 cc cc cc cc	 mov	 eax, -858993460		; ccccccccH
  0001c	f3 ab		 rep stosd

; 240  : 	if (change == 1)

  0001e	83 3d 00 00 00
	00 01		 cmp	 DWORD PTR _change, 1
  00025	0f 85 c7 00 00
	00		 jne	 $LN2@CheckStatu

; 241  : 	{
; 242  : 		change = 0;

  0002b	c7 05 00 00 00
	00 00 00 00 00	 mov	 DWORD PTR _change, 0

; 243  : 
; 244  : 		if (state == 1)

  00035	83 3d 00 00 00
	00 01		 cmp	 DWORD PTR _state, 1
  0003c	75 5a		 jne	 SHORT $LN1@CheckStatu

; 245  : 		{
; 246  : 			// Connected
; 247  : 
; 248  : 			SCSReply[2] = DataChannel;

  0003e	a0 00 00 00 00	 mov	 al, BYTE PTR _DataChannel
  00043	a2 02 00 00 00	 mov	 BYTE PTR _SCSReply+2, al

; 249  : 			SCSReply[3] = 3;

  00048	c6 05 03 00 00
	00 03		 mov	 BYTE PTR _SCSReply+3, 3

; 250  : 			ReplyLen  = sprintf(&SCSReply[4], "(%d) CONNECTED to %s", DataChannel, ReportCall);

  0004f	68 00 00 00 00	 push	 OFFSET _ReportCall
  00054	a1 00 00 00 00	 mov	 eax, DWORD PTR _DataChannel
  00059	50		 push	 eax
  0005a	68 00 00 00 00	 push	 OFFSET ??_C@_0BF@NALENCAB@?$CI?$CFd?$CJ?5CONNECTED?5to?5?$CFs?$AA@
  0005f	68 04 00 00 00	 push	 OFFSET _SCSReply+4
  00064	e8 00 00 00 00	 call	 _sprintf
  00069	83 c4 10	 add	 esp, 16			; 00000010H
  0006c	a3 00 00 00 00	 mov	 DWORD PTR _ReplyLen, eax

; 251  : 			ReplyLen += 5;

  00071	a1 00 00 00 00	 mov	 eax, DWORD PTR _ReplyLen
  00076	83 c0 05	 add	 eax, 5
  00079	a3 00 00 00 00	 mov	 DWORD PTR _ReplyLen, eax

; 252  : 			EmCRCStuffAndSend(SCSReply, ReplyLen);

  0007e	a1 00 00 00 00	 mov	 eax, DWORD PTR _ReplyLen
  00083	50		 push	 eax
  00084	68 00 00 00 00	 push	 OFFSET _SCSReply
  00089	e8 00 00 00 00	 call	 _EmCRCStuffAndSend
  0008e	83 c4 08	 add	 esp, 8

; 253  : 
; 254  : 			return TRUE;

  00091	b8 01 00 00 00	 mov	 eax, 1
  00096	eb 5c		 jmp	 SHORT $LN3@CheckStatu
$LN1@CheckStatu:

; 255  : 		}
; 256  : 		// Disconnected
; 257  : 		
; 258  : 		SCSReply[2] = DataChannel;

  00098	a0 00 00 00 00	 mov	 al, BYTE PTR _DataChannel
  0009d	a2 02 00 00 00	 mov	 BYTE PTR _SCSReply+2, al

; 259  : 		SCSReply[3] = 3;

  000a2	c6 05 03 00 00
	00 03		 mov	 BYTE PTR _SCSReply+3, 3

; 260  : 		ReplyLen  = sprintf(&SCSReply[4], "(%d) DISCONNECTED fm %s", DataChannel, ReportCall);

  000a9	68 00 00 00 00	 push	 OFFSET _ReportCall
  000ae	a1 00 00 00 00	 mov	 eax, DWORD PTR _DataChannel
  000b3	50		 push	 eax
  000b4	68 00 00 00 00	 push	 OFFSET ??_C@_0BI@OPPPPCHH@?$CI?$CFd?$CJ?5DISCONNECTED?5fm?5?$CFs?$AA@
  000b9	68 04 00 00 00	 push	 OFFSET _SCSReply+4
  000be	e8 00 00 00 00	 call	 _sprintf
  000c3	83 c4 10	 add	 esp, 16			; 00000010H
  000c6	a3 00 00 00 00	 mov	 DWORD PTR _ReplyLen, eax

; 261  : 		ReplyLen += 5;		// Include Null

  000cb	a1 00 00 00 00	 mov	 eax, DWORD PTR _ReplyLen
  000d0	83 c0 05	 add	 eax, 5
  000d3	a3 00 00 00 00	 mov	 DWORD PTR _ReplyLen, eax

; 262  : 		EmCRCStuffAndSend(SCSReply, ReplyLen);

  000d8	a1 00 00 00 00	 mov	 eax, DWORD PTR _ReplyLen
  000dd	50		 push	 eax
  000de	68 00 00 00 00	 push	 OFFSET _SCSReply
  000e3	e8 00 00 00 00	 call	 _EmCRCStuffAndSend
  000e8	83 c4 08	 add	 esp, 8

; 263  : 
; 264  : 		return TRUE;

  000eb	b8 01 00 00 00	 mov	 eax, 1
  000f0	eb 02		 jmp	 SHORT $LN3@CheckStatu
$LN2@CheckStatu:

; 265  : 	}
; 266  : 
; 267  : 	return FALSE;

  000f2	33 c0		 xor	 eax, eax
$LN3@CheckStatu:

; 268  : 
; 269  : }

  000f4	5f		 pop	 edi
  000f5	5e		 pop	 esi
  000f6	5b		 pop	 ebx
  000f7	81 c4 c0 00 00
	00		 add	 esp, 192		; 000000c0H
  000fd	3b ec		 cmp	 ebp, esp
  000ff	e8 00 00 00 00	 call	 __RTC_CheckEsp
  00104	8b e5		 mov	 esp, ebp
  00106	5d		 pop	 ebp
  00107	c3		 ret	 0
_CheckStatusChange ENDP
_TEXT	ENDS
PUBLIC	_CheckForControl
EXTRN	_memmove:PROC
; Function compile flags: /Odtp /RTCsu /ZI
;	COMDAT _CheckForControl
_TEXT	SEGMENT
_Length$ = -8						; size = 4
_CheckForControl PROC					; COMDAT

; 273  : {

  00000	55		 push	 ebp
  00001	8b ec		 mov	 ebp, esp
  00003	81 ec cc 00 00
	00		 sub	 esp, 204		; 000000ccH
  00009	53		 push	 ebx
  0000a	56		 push	 esi
  0000b	57		 push	 edi
  0000c	8d bd 34 ff ff
	ff		 lea	 edi, DWORD PTR [ebp-204]
  00012	b9 33 00 00 00	 mov	 ecx, 51			; 00000033H
  00017	b8 cc cc cc cc	 mov	 eax, -858993460		; ccccccccH
  0001c	f3 ab		 rep stosd

; 274  : 	int Length;
; 275  : 
; 276  : 	if (CommandToHostBufferLen == 0)

  0001e	83 3d 00 00 00
	00 00		 cmp	 DWORD PTR _CommandToHostBufferLen, 0
  00025	75 07		 jne	 SHORT $LN4@CheckForCo

; 277  : 		return FALSE;

  00027	33 c0		 xor	 eax, eax
  00029	e9 9b 00 00 00	 jmp	 $LN5@CheckForCo
$LN4@CheckForCo:

; 278  : 
; 279  : 	if (CommandToHostBufferLen > 256)

  0002e	81 3d 00 00 00
	00 00 01 00 00	 cmp	 DWORD PTR _CommandToHostBufferLen, 256 ; 00000100H
  00038	7e 09		 jle	 SHORT $LN3@CheckForCo

; 280  : 		Length = 256;

  0003a	c7 45 f8 00 01
	00 00		 mov	 DWORD PTR _Length$[ebp], 256 ; 00000100H

; 281  : 	else

  00041	eb 08		 jmp	 SHORT $LN2@CheckForCo
$LN3@CheckForCo:

; 282  : 		Length = CommandToHostBufferLen;

  00043	a1 00 00 00 00	 mov	 eax, DWORD PTR _CommandToHostBufferLen
  00048	89 45 f8	 mov	 DWORD PTR _Length$[ebp], eax
$LN2@CheckForCo:

; 283  : 
; 284  : 	memcpy(&SCSReply[5], CommandToHostBuffer, Length);

  0004b	8b 45 f8	 mov	 eax, DWORD PTR _Length$[ebp]
  0004e	50		 push	 eax
  0004f	68 00 00 00 00	 push	 OFFSET _CommandToHostBuffer
  00054	68 05 00 00 00	 push	 OFFSET _SCSReply+5
  00059	e8 00 00 00 00	 call	 _memcpy
  0005e	83 c4 0c	 add	 esp, 12			; 0000000cH

; 285  : 
; 286  : 	CommandToHostBufferLen -= Length;

  00061	a1 00 00 00 00	 mov	 eax, DWORD PTR _CommandToHostBufferLen
  00066	2b 45 f8	 sub	 eax, DWORD PTR _Length$[ebp]
  00069	a3 00 00 00 00	 mov	 DWORD PTR _CommandToHostBufferLen, eax

; 287  : 
; 288  : 	if (CommandToHostBufferLen)

  0006e	74 1d		 je	 SHORT $LN1@CheckForCo

; 289  : 		memmove(CommandToHostBuffer, &CommandToHostBuffer[Length], CommandToHostBufferLen);

  00070	a1 00 00 00 00	 mov	 eax, DWORD PTR _CommandToHostBufferLen
  00075	50		 push	 eax
  00076	8b 4d f8	 mov	 ecx, DWORD PTR _Length$[ebp]
  00079	81 c1 00 00 00
	00		 add	 ecx, OFFSET _CommandToHostBuffer
  0007f	51		 push	 ecx
  00080	68 00 00 00 00	 push	 OFFSET _CommandToHostBuffer
  00085	e8 00 00 00 00	 call	 _memmove
  0008a	83 c4 0c	 add	 esp, 12			; 0000000cH
$LN1@CheckForCo:

; 290  : 
; 291  : 	SCSReply[2] = 32;

  0008d	c6 05 02 00 00
	00 20		 mov	 BYTE PTR _SCSReply+2, 32 ; 00000020H

; 292  : 	SCSReply[3] = 7;

  00094	c6 05 03 00 00
	00 07		 mov	 BYTE PTR _SCSReply+3, 7

; 293  : 	SCSReply[4] = Length - 1;

  0009b	8b 45 f8	 mov	 eax, DWORD PTR _Length$[ebp]
  0009e	83 e8 01	 sub	 eax, 1
  000a1	a2 04 00 00 00	 mov	 BYTE PTR _SCSReply+4, al

; 294  : 
; 295  : 	ReplyLen = Length + 5;

  000a6	8b 45 f8	 mov	 eax, DWORD PTR _Length$[ebp]
  000a9	83 c0 05	 add	 eax, 5
  000ac	a3 00 00 00 00	 mov	 DWORD PTR _ReplyLen, eax

; 296  : 	EmCRCStuffAndSend(SCSReply, ReplyLen);

  000b1	a1 00 00 00 00	 mov	 eax, DWORD PTR _ReplyLen
  000b6	50		 push	 eax
  000b7	68 00 00 00 00	 push	 OFFSET _SCSReply
  000bc	e8 00 00 00 00	 call	 _EmCRCStuffAndSend
  000c1	83 c4 08	 add	 esp, 8

; 297  : 
; 298  : 	return TRUE;

  000c4	b8 01 00 00 00	 mov	 eax, 1
$LN5@CheckForCo:

; 299  : }

  000c9	5f		 pop	 edi
  000ca	5e		 pop	 esi
  000cb	5b		 pop	 ebx
  000cc	81 c4 cc 00 00
	00		 add	 esp, 204		; 000000ccH
  000d2	3b ec		 cmp	 ebp, esp
  000d4	e8 00 00 00 00	 call	 __RTC_CheckEsp
  000d9	8b e5		 mov	 esp, ebp
  000db	5d		 pop	 ebp
  000dc	c3		 ret	 0
_CheckForControl ENDP
_TEXT	ENDS
PUBLIC	_CheckForData
; Function compile flags: /Odtp /RTCsu /ZI
;	COMDAT _CheckForData
_TEXT	SEGMENT
_Length$ = -8						; size = 4
_CheckForData PROC					; COMDAT

; 302  : {

  00000	55		 push	 ebp
  00001	8b ec		 mov	 ebp, esp
  00003	81 ec cc 00 00
	00		 sub	 esp, 204		; 000000ccH
  00009	53		 push	 ebx
  0000a	56		 push	 esi
  0000b	57		 push	 edi
  0000c	8d bd 34 ff ff
	ff		 lea	 edi, DWORD PTR [ebp-204]
  00012	b9 33 00 00 00	 mov	 ecx, 51			; 00000033H
  00017	b8 cc cc cc cc	 mov	 eax, -858993460		; ccccccccH
  0001c	f3 ab		 rep stosd

; 303  : 	int Length;
; 304  : 
; 305  : 	if (bytesEchoed)

  0001e	83 3d 00 00 00
	00 00		 cmp	 DWORD PTR _bytesEchoed, 0
  00025	0f 84 a3 00 00
	00		 je	 $LN10@CheckForDa

; 306  : 	{
; 307  : 		// Echo back acked data
; 308  : 
; 309  : 		if (bytesEchoed > 256)

  0002b	81 3d 00 00 00
	00 00 01 00 00	 cmp	 DWORD PTR _bytesEchoed, 256 ; 00000100H
  00035	7e 09		 jle	 SHORT $LN9@CheckForDa

; 310  : 			Length = 256;

  00037	c7 45 f8 00 01
	00 00		 mov	 DWORD PTR _Length$[ebp], 256 ; 00000100H

; 311  : 		else

  0003e	eb 08		 jmp	 SHORT $LN8@CheckForDa
$LN9@CheckForDa:

; 312  : 			Length = bytesEchoed;

  00040	a1 00 00 00 00	 mov	 eax, DWORD PTR _bytesEchoed
  00045	89 45 f8	 mov	 DWORD PTR _Length$[ebp], eax
$LN8@CheckForDa:

; 313  : 
; 314  : 		memcpy(&SCSReply[5], bytEchoData, Length);

  00048	8b 45 f8	 mov	 eax, DWORD PTR _Length$[ebp]
  0004b	50		 push	 eax
  0004c	68 00 00 00 00	 push	 OFFSET _bytEchoData
  00051	68 05 00 00 00	 push	 OFFSET _SCSReply+5
  00056	e8 00 00 00 00	 call	 _memcpy
  0005b	83 c4 0c	 add	 esp, 12			; 0000000cH

; 315  : 
; 316  : 		bytesEchoed -= Length;

  0005e	a1 00 00 00 00	 mov	 eax, DWORD PTR _bytesEchoed
  00063	2b 45 f8	 sub	 eax, DWORD PTR _Length$[ebp]
  00066	a3 00 00 00 00	 mov	 DWORD PTR _bytesEchoed, eax

; 317  : 
; 318  : 		if (bytesEchoed)

  0006b	74 1d		 je	 SHORT $LN7@CheckForDa

; 319  : 			memmove(bytEchoData, &bytEchoData[Length], bytesEchoed);

  0006d	a1 00 00 00 00	 mov	 eax, DWORD PTR _bytesEchoed
  00072	50		 push	 eax
  00073	8b 4d f8	 mov	 ecx, DWORD PTR _Length$[ebp]
  00076	81 c1 00 00 00
	00		 add	 ecx, OFFSET _bytEchoData
  0007c	51		 push	 ecx
  0007d	68 00 00 00 00	 push	 OFFSET _bytEchoData
  00082	e8 00 00 00 00	 call	 _memmove
  00087	83 c4 0c	 add	 esp, 12			; 0000000cH
$LN7@CheckForDa:

; 320  : 
; 321  : 		SCSReply[2] = DataChannel;

  0008a	a0 00 00 00 00	 mov	 al, BYTE PTR _DataChannel
  0008f	a2 02 00 00 00	 mov	 BYTE PTR _SCSReply+2, al

; 322  : 		SCSReply[3] = 8;		// PTC Special - delayed echoed data

  00094	c6 05 03 00 00
	00 08		 mov	 BYTE PTR _SCSReply+3, 8

; 323  : 		SCSReply[4] = Length - 1;

  0009b	8b 45 f8	 mov	 eax, DWORD PTR _Length$[ebp]
  0009e	83 e8 01	 sub	 eax, 1
  000a1	a2 04 00 00 00	 mov	 BYTE PTR _SCSReply+4, al

; 324  : 
; 325  : 		ReplyLen = Length + 5;

  000a6	8b 45 f8	 mov	 eax, DWORD PTR _Length$[ebp]
  000a9	83 c0 05	 add	 eax, 5
  000ac	a3 00 00 00 00	 mov	 DWORD PTR _ReplyLen, eax

; 326  : 		EmCRCStuffAndSend(SCSReply, ReplyLen);

  000b1	a1 00 00 00 00	 mov	 eax, DWORD PTR _ReplyLen
  000b6	50		 push	 eax
  000b7	68 00 00 00 00	 push	 OFFSET _SCSReply
  000bc	e8 00 00 00 00	 call	 _EmCRCStuffAndSend
  000c1	83 c4 08	 add	 esp, 8

; 327  : 
; 328  : 		return TRUE;

  000c4	b8 01 00 00 00	 mov	 eax, 1
  000c9	e9 c0 00 00 00	 jmp	 $LN11@CheckForDa
$LN10@CheckForDa:

; 329  : 	}
; 330  : 
; 331  : 	if (bytesforHost == 0)

  000ce	83 3d 00 00 00
	00 00		 cmp	 DWORD PTR _bytesforHost, 0
  000d5	75 07		 jne	 SHORT $LN6@CheckForDa

; 332  : 		return FALSE;

  000d7	33 c0		 xor	 eax, eax
  000d9	e9 b0 00 00 00	 jmp	 $LN11@CheckForDa
$LN6@CheckForDa:

; 333  : 
; 334  : 	if (bytesforHost > 256)

  000de	81 3d 00 00 00
	00 00 01 00 00	 cmp	 DWORD PTR _bytesforHost, 256 ; 00000100H
  000e8	7e 09		 jle	 SHORT $LN5@CheckForDa

; 335  : 		Length = 256;

  000ea	c7 45 f8 00 01
	00 00		 mov	 DWORD PTR _Length$[ebp], 256 ; 00000100H

; 336  : 	else

  000f1	eb 08		 jmp	 SHORT $LN4@CheckForDa
$LN5@CheckForDa:

; 337  : 		Length = bytesforHost;

  000f3	a1 00 00 00 00	 mov	 eax, DWORD PTR _bytesforHost
  000f8	89 45 f8	 mov	 DWORD PTR _Length$[ebp], eax
$LN4@CheckForDa:

; 338  : 
; 339  : 	memcpy(&SCSReply[5], bytDataforHost, Length);

  000fb	8b 45 f8	 mov	 eax, DWORD PTR _Length$[ebp]
  000fe	50		 push	 eax
  000ff	68 00 00 00 00	 push	 OFFSET _bytDataforHost
  00104	68 05 00 00 00	 push	 OFFSET _SCSReply+5
  00109	e8 00 00 00 00	 call	 _memcpy
  0010e	83 c4 0c	 add	 esp, 12			; 0000000cH

; 340  : 
; 341  : 	bytesforHost -= Length;

  00111	a1 00 00 00 00	 mov	 eax, DWORD PTR _bytesforHost
  00116	2b 45 f8	 sub	 eax, DWORD PTR _Length$[ebp]
  00119	a3 00 00 00 00	 mov	 DWORD PTR _bytesforHost, eax

; 342  : 
; 343  : 	if (bytesforHost)

  0011e	74 1d		 je	 SHORT $LN3@CheckForDa

; 344  : 		memmove(bytDataforHost, &bytDataforHost[Length], bytesforHost);

  00120	a1 00 00 00 00	 mov	 eax, DWORD PTR _bytesforHost
  00125	50		 push	 eax
  00126	8b 4d f8	 mov	 ecx, DWORD PTR _Length$[ebp]
  00129	81 c1 00 00 00
	00		 add	 ecx, OFFSET _bytDataforHost
  0012f	51		 push	 ecx
  00130	68 00 00 00 00	 push	 OFFSET _bytDataforHost
  00135	e8 00 00 00 00	 call	 _memmove
  0013a	83 c4 0c	 add	 esp, 12			; 0000000cH
$LN3@CheckForDa:

; 345  : 
; 346  : 	if (PTCMode)

  0013d	83 3d 00 00 00
	00 00		 cmp	 DWORD PTR _PTCMode, 0
  00144	74 0c		 je	 SHORT $LN2@CheckForDa

; 347  : 		SCSReply[2] = DataChannel;

  00146	a0 00 00 00 00	 mov	 al, BYTE PTR _DataChannel
  0014b	a2 02 00 00 00	 mov	 BYTE PTR _SCSReply+2, al

; 348  : 	else

  00150	eb 07		 jmp	 SHORT $LN1@CheckForDa
$LN2@CheckForDa:

; 349  : 		SCSReply[2] = 33;

  00152	c6 05 02 00 00
	00 21		 mov	 BYTE PTR _SCSReply+2, 33 ; 00000021H
$LN1@CheckForDa:

; 350  : 
; 351  : 	SCSReply[3] = 7;

  00159	c6 05 03 00 00
	00 07		 mov	 BYTE PTR _SCSReply+3, 7

; 352  : 	SCSReply[4] = Length - 1;

  00160	8b 45 f8	 mov	 eax, DWORD PTR _Length$[ebp]
  00163	83 e8 01	 sub	 eax, 1
  00166	a2 04 00 00 00	 mov	 BYTE PTR _SCSReply+4, al

; 353  : 
; 354  : 	ReplyLen = Length + 5;

  0016b	8b 45 f8	 mov	 eax, DWORD PTR _Length$[ebp]
  0016e	83 c0 05	 add	 eax, 5
  00171	a3 00 00 00 00	 mov	 DWORD PTR _ReplyLen, eax

; 355  : 	EmCRCStuffAndSend(SCSReply, ReplyLen);

  00176	a1 00 00 00 00	 mov	 eax, DWORD PTR _ReplyLen
  0017b	50		 push	 eax
  0017c	68 00 00 00 00	 push	 OFFSET _SCSReply
  00181	e8 00 00 00 00	 call	 _EmCRCStuffAndSend
  00186	83 c4 08	 add	 esp, 8

; 356  : 
; 357  : 	return TRUE;

  00189	b8 01 00 00 00	 mov	 eax, 1
$LN11@CheckForDa:

; 358  : }

  0018e	5f		 pop	 edi
  0018f	5e		 pop	 esi
  00190	5b		 pop	 ebx
  00191	81 c4 cc 00 00
	00		 add	 esp, 204		; 000000ccH
  00197	3b ec		 cmp	 ebp, esp
  00199	e8 00 00 00 00	 call	 __RTC_CheckEsp
  0019e	8b e5		 mov	 esp, ebp
  001a0	5d		 pop	 ebp
  001a1	c3		 ret	 0
_CheckForData ENDP
_TEXT	ENDS
PUBLIC	_xcompute_crc
; Function compile flags: /Odtp /RTCsu /ZI
;	COMDAT _xcompute_crc
_TEXT	SEGMENT
_i$ = -20						; size = 4
_fcs$ = -8						; size = 2
_buf$ = 8						; size = 4
_len$ = 12						; size = 4
_xcompute_crc PROC					; COMDAT

; 400  : {

  00000	55		 push	 ebp
  00001	8b ec		 mov	 ebp, esp
  00003	81 ec d8 00 00
	00		 sub	 esp, 216		; 000000d8H
  00009	53		 push	 ebx
  0000a	56		 push	 esi
  0000b	57		 push	 edi
  0000c	8d bd 28 ff ff
	ff		 lea	 edi, DWORD PTR [ebp-216]
  00012	b9 36 00 00 00	 mov	 ecx, 54			; 00000036H
  00017	b8 cc cc cc cc	 mov	 eax, -858993460		; ccccccccH
  0001c	f3 ab		 rep stosd

; 401  : 	unsigned short fcs = 0xffff; 

  0001e	66 c7 45 f8 ff
	ff		 mov	 WORD PTR _fcs$[ebp], 65535 ; 0000ffffH

; 402  : 	int i;
; 403  : 
; 404  : 	for(i = 0; i < len; i++) 

  00024	c7 45 ec 00 00
	00 00		 mov	 DWORD PTR _i$[ebp], 0
  0002b	eb 09		 jmp	 SHORT $LN3@xcompute_c
$LN2@xcompute_c:
  0002d	8b 45 ec	 mov	 eax, DWORD PTR _i$[ebp]
  00030	83 c0 01	 add	 eax, 1
  00033	89 45 ec	 mov	 DWORD PTR _i$[ebp], eax
$LN3@xcompute_c:
  00036	8b 45 ec	 mov	 eax, DWORD PTR _i$[ebp]
  00039	3b 45 0c	 cmp	 eax, DWORD PTR _len$[ebp]
  0003c	7d 2c		 jge	 SHORT $LN1@xcompute_c

; 405  : 		fcs = (fcs >>8 ) ^ CRCTAB[(fcs ^ buf[i]) & 0xff]; 

  0003e	0f b7 45 f8	 movzx	 eax, WORD PTR _fcs$[ebp]
  00042	c1 f8 08	 sar	 eax, 8
  00045	0f b7 4d f8	 movzx	 ecx, WORD PTR _fcs$[ebp]
  00049	8b 55 08	 mov	 edx, DWORD PTR _buf$[ebp]
  0004c	03 55 ec	 add	 edx, DWORD PTR _i$[ebp]
  0004f	0f b6 12	 movzx	 edx, BYTE PTR [edx]
  00052	33 ca		 xor	 ecx, edx
  00054	81 e1 ff 00 00
	00		 and	 ecx, 255		; 000000ffH
  0005a	0f b7 0c 4d 00
	00 00 00	 movzx	 ecx, WORD PTR _CRCTAB[ecx*2]
  00062	33 c1		 xor	 eax, ecx
  00064	66 89 45 f8	 mov	 WORD PTR _fcs$[ebp], ax
  00068	eb c3		 jmp	 SHORT $LN2@xcompute_c
$LN1@xcompute_c:

; 406  : 
; 407  : 	return fcs;

  0006a	66 8b 45 f8	 mov	 ax, WORD PTR _fcs$[ebp]

; 408  : }

  0006e	5f		 pop	 edi
  0006f	5e		 pop	 esi
  00070	5b		 pop	 ebx
  00071	8b e5		 mov	 esp, ebp
  00073	5d		 pop	 ebp
  00074	c3		 ret	 0
_xcompute_crc ENDP
_TEXT	ENDS
PUBLIC	_EmUnstuff
; Function compile flags: /Odtp /RTCsu /ZI
;	COMDAT _EmUnstuff
_TEXT	SEGMENT
_j$ = -20						; size = 4
_i$ = -8						; size = 4
_MsgIn$ = 8						; size = 4
_MsgOut$ = 12						; size = 4
_len$ = 16						; size = 4
_EmUnstuff PROC						; COMDAT

; 416  : {

  00000	55		 push	 ebp
  00001	8b ec		 mov	 ebp, esp
  00003	81 ec d8 00 00
	00		 sub	 esp, 216		; 000000d8H
  00009	53		 push	 ebx
  0000a	56		 push	 esi
  0000b	57		 push	 edi
  0000c	8d bd 28 ff ff
	ff		 lea	 edi, DWORD PTR [ebp-216]
  00012	b9 36 00 00 00	 mov	 ecx, 54			; 00000036H
  00017	b8 cc cc cc cc	 mov	 eax, -858993460		; ccccccccH
  0001c	f3 ab		 rep stosd

; 417  : 	int i, j=0;

  0001e	c7 45 ec 00 00
	00 00		 mov	 DWORD PTR _j$[ebp], 0

; 418  : 
; 419  : 	for (i=0; i<len; i++, j++)

  00025	c7 45 f8 00 00
	00 00		 mov	 DWORD PTR _i$[ebp], 0
  0002c	eb 12		 jmp	 SHORT $LN6@EmUnstuff
$LN5@EmUnstuff:
  0002e	8b 45 f8	 mov	 eax, DWORD PTR _i$[ebp]
  00031	83 c0 01	 add	 eax, 1
  00034	89 45 f8	 mov	 DWORD PTR _i$[ebp], eax
  00037	8b 4d ec	 mov	 ecx, DWORD PTR _j$[ebp]
  0003a	83 c1 01	 add	 ecx, 1
  0003d	89 4d ec	 mov	 DWORD PTR _j$[ebp], ecx
$LN6@EmUnstuff:
  00040	8b 45 f8	 mov	 eax, DWORD PTR _i$[ebp]
  00043	3b 45 10	 cmp	 eax, DWORD PTR _len$[ebp]
  00046	7d 46		 jge	 SHORT $LN4@EmUnstuff

; 420  : 	{
; 421  : 		MsgOut[j] = MsgIn[i];

  00048	8b 45 0c	 mov	 eax, DWORD PTR _MsgOut$[ebp]
  0004b	03 45 ec	 add	 eax, DWORD PTR _j$[ebp]
  0004e	8b 4d 08	 mov	 ecx, DWORD PTR _MsgIn$[ebp]
  00051	03 4d f8	 add	 ecx, DWORD PTR _i$[ebp]
  00054	8a 11		 mov	 dl, BYTE PTR [ecx]
  00056	88 10		 mov	 BYTE PTR [eax], dl

; 422  : 		if (MsgIn[i] == 170)			// Remove next byte

  00058	8b 45 08	 mov	 eax, DWORD PTR _MsgIn$[ebp]
  0005b	03 45 f8	 add	 eax, DWORD PTR _i$[ebp]
  0005e	0f b6 08	 movzx	 ecx, BYTE PTR [eax]
  00061	81 f9 aa 00 00
	00		 cmp	 ecx, 170		; 000000aaH
  00067	75 23		 jne	 SHORT $LN3@EmUnstuff

; 423  : 		{
; 424  : 			i++;

  00069	8b 45 f8	 mov	 eax, DWORD PTR _i$[ebp]
  0006c	83 c0 01	 add	 eax, 1
  0006f	89 45 f8	 mov	 DWORD PTR _i$[ebp], eax

; 425  : 			if (MsgIn[i] != 0)

  00072	8b 45 08	 mov	 eax, DWORD PTR _MsgIn$[ebp]
  00075	03 45 f8	 add	 eax, DWORD PTR _i$[ebp]
  00078	0f b6 08	 movzx	 ecx, BYTE PTR [eax]
  0007b	85 c9		 test	 ecx, ecx
  0007d	74 0d		 je	 SHORT $LN3@EmUnstuff

; 426  : 				if (i != len) return -1;

  0007f	8b 45 f8	 mov	 eax, DWORD PTR _i$[ebp]
  00082	3b 45 10	 cmp	 eax, DWORD PTR _len$[ebp]
  00085	74 05		 je	 SHORT $LN3@EmUnstuff
  00087	83 c8 ff	 or	 eax, -1
  0008a	eb 05		 jmp	 SHORT $LN7@EmUnstuff
$LN3@EmUnstuff:

; 427  : 		}
; 428  : 	}

  0008c	eb a0		 jmp	 SHORT $LN5@EmUnstuff
$LN4@EmUnstuff:

; 429  : 
; 430  : 	return j;

  0008e	8b 45 ec	 mov	 eax, DWORD PTR _j$[ebp]
$LN7@EmUnstuff:

; 431  : }

  00091	5f		 pop	 edi
  00092	5e		 pop	 esi
  00093	5b		 pop	 ebx
  00094	8b e5		 mov	 esp, ebp
  00096	5d		 pop	 ebp
  00097	c3		 ret	 0
_EmUnstuff ENDP
_TEXT	ENDS
PUBLIC	??_C@_0BE@OLOODFCJ@SCS?5Host?5Command?5?$CFs?$AA@ ; `string'
PUBLIC	??_C@_03JDANDILB@?$CFd?5?$AA@			; `string'
PUBLIC	??_C@_08NAGKCGL@4?48?51?432?$AA@		; `string'
PUBLIC	??_C@_0BC@HDIJPDCG@?$CFd?5?$CFd?5?$CFd?5?$CFd?5?$CFd?5?$CFd?$AA@ ; `string'
PUBLIC	??_C@_0P@IHEBJIJI@Exit?5Host?5Mode?$AA@		; `string'
PUBLIC	??_C@_0BF@MMOFLHPH@Sending?5CMD?5Reply?5?$CFs?$AA@ ; `string'
PUBLIC	??_C@_02GPIGINON@c?3?$AA@			; `string'
PUBLIC	_ProcessRIGPacket
PUBLIC	??_C@_0BH@DGOOHENO@Radio?5Pool?5Returned?5?$CFd?$AA@ ; `string'
PUBLIC	??_C@_0CE@FJBABCEA@Same?5Toggle?5?9?5Repeating?5last?5pac@ ; `string'
PUBLIC	_ProcessSCSHostFrame
EXTRN	_blnARQDisconnect:DWORD
EXTRN	_SendARQConnectRequest:PROC
EXTRN	_Callsign:TBYTE
EXTRN	_ProcessCommandFromHost:PROC
EXTRN	_AddDataToDataToSend:PROC
EXTRN	_CatRXbuffer:BYTE
EXTRN	_blnBusyStatus:DWORD
EXTRN	_dblOffsetHz:DWORD
EXTRN	_intSessionBW:DWORD
EXTRN	_ProtocolState:DWORD
EXTRN	_CatRXLen:DWORD
EXTRN	_newStatus:DWORD
;	COMDAT ??_C@_0BE@OLOODFCJ@SCS?5Host?5Command?5?$CFs?$AA@
CONST	SEGMENT
??_C@_0BE@OLOODFCJ@SCS?5Host?5Command?5?$CFs?$AA@ DB 'SCS Host Command %s'
	DB	00H						; `string'
CONST	ENDS
;	COMDAT ??_C@_03JDANDILB@?$CFd?5?$AA@
CONST	SEGMENT
??_C@_03JDANDILB@?$CFd?5?$AA@ DB '%d ', 00H		; `string'
CONST	ENDS
;	COMDAT ??_C@_08NAGKCGL@4?48?51?432?$AA@
CONST	SEGMENT
??_C@_08NAGKCGL@4?48?51?432?$AA@ DB '4.8 1.32', 00H	; `string'
CONST	ENDS
;	COMDAT ??_C@_0BC@HDIJPDCG@?$CFd?5?$CFd?5?$CFd?5?$CFd?5?$CFd?5?$CFd?$AA@
CONST	SEGMENT
??_C@_0BC@HDIJPDCG@?$CFd?5?$CFd?5?$CFd?5?$CFd?5?$CFd?5?$CFd?$AA@ DB '%d %'
	DB	'd %d %d %d %d', 00H				; `string'
CONST	ENDS
;	COMDAT ??_C@_0P@IHEBJIJI@Exit?5Host?5Mode?$AA@
CONST	SEGMENT
??_C@_0P@IHEBJIJI@Exit?5Host?5Mode?$AA@ DB 'Exit Host Mode', 00H ; `string'
CONST	ENDS
;	COMDAT ??_C@_0BF@MMOFLHPH@Sending?5CMD?5Reply?5?$CFs?$AA@
CONST	SEGMENT
??_C@_0BF@MMOFLHPH@Sending?5CMD?5Reply?5?$CFs?$AA@ DB 'Sending CMD Reply '
	DB	'%s', 00H					; `string'
CONST	ENDS
;	COMDAT ??_C@_02GPIGINON@c?3?$AA@
CONST	SEGMENT
??_C@_02GPIGINON@c?3?$AA@ DB 'c:', 00H			; `string'
CONST	ENDS
;	COMDAT ??_C@_0BH@DGOOHENO@Radio?5Pool?5Returned?5?$CFd?$AA@
CONST	SEGMENT
??_C@_0BH@DGOOHENO@Radio?5Pool?5Returned?5?$CFd?$AA@ DB 'Radio Pool Retur'
	DB	'ned %d', 00H				; `string'
CONST	ENDS
;	COMDAT ??_C@_0CE@FJBABCEA@Same?5Toggle?5?9?5Repeating?5last?5pac@
CONST	SEGMENT
??_C@_0CE@FJBABCEA@Same?5Toggle?5?9?5Repeating?5last?5pac@ DB 'Same Toggl'
	DB	'e - Repeating last packet', 00H		; `string'
; Function compile flags: /Odtp /RTCsu /ZI
CONST	ENDS
;	COMDAT _ProcessSCSHostFrame
_TEXT	SEGMENT
tv418 = -276						; size = 4
tv416 = -272						; size = 4
tv333 = -268						; size = 4
tv239 = -268						; size = 4
tv413 = -266						; size = 2
_NextChan$5651 = -68					; size = 4
_RXToggle$ = -56					; size = 4
_len$ = -44						; size = 4
_Len$ = -32						; size = 4
_Command$ = -20						; size = 4
_Channel$ = -8						; size = 4
_Buffer$ = 8						; size = 4
_Length$ = 12						; size = 4
_ProcessSCSHostFrame PROC				; COMDAT

; 435  : {

  00000	55		 push	 ebp
  00001	8b ec		 mov	 ebp, esp
  00003	81 ec 14 01 00
	00		 sub	 esp, 276		; 00000114H
  00009	53		 push	 ebx
  0000a	56		 push	 esi
  0000b	57		 push	 edi
  0000c	8d bd ec fe ff
	ff		 lea	 edi, DWORD PTR [ebp-276]
  00012	b9 45 00 00 00	 mov	 ecx, 69			; 00000045H
  00017	b8 cc cc cc cc	 mov	 eax, -858993460		; ccccccccH
  0001c	f3 ab		 rep stosd

; 436  : 	int Channel = Buffer[0];

  0001e	8b 45 08	 mov	 eax, DWORD PTR _Buffer$[ebp]
  00021	0f b6 08	 movzx	 ecx, BYTE PTR [eax]
  00024	89 4d f8	 mov	 DWORD PTR _Channel$[ebp], ecx

; 437  : 	int Command = Buffer[1] & 0x3f;

  00027	8b 45 08	 mov	 eax, DWORD PTR _Buffer$[ebp]
  0002a	0f b6 48 01	 movzx	 ecx, BYTE PTR [eax+1]
  0002e	83 e1 3f	 and	 ecx, 63			; 0000003fH
  00031	89 4d ec	 mov	 DWORD PTR _Command$[ebp], ecx

; 438  : 	int Len = Buffer[2];

  00034	8b 45 08	 mov	 eax, DWORD PTR _Buffer$[ebp]
  00037	0f b6 48 02	 movzx	 ecx, BYTE PTR [eax+2]
  0003b	89 4d e0	 mov	 DWORD PTR _Len$[ebp], ecx

; 439  : 	int len;
; 440  : 	int RXToggle = Buffer[1] & 0x80;

  0003e	8b 45 08	 mov	 eax, DWORD PTR _Buffer$[ebp]
  00041	0f b6 48 01	 movzx	 ecx, BYTE PTR [eax+1]
  00045	81 e1 80 00 00
	00		 and	 ecx, 128		; 00000080H
  0004b	89 4d c8	 mov	 DWORD PTR _RXToggle$[ebp], ecx

; 441  : 
; 442  : //	WriteDebugLog(LOGINFO, "SCS Host Frame Toggle %x RXToggle %x Chan %d Cmd %d Len %d",
; 443  : //		Toggle, RXToggle, Channel, Command, Len);
; 444  : 
; 445  : 	if (Toggle == RXToggle && (Buffer[1] & 0x40) == 0)

  0004e	a1 00 00 00 00	 mov	 eax, DWORD PTR _Toggle
  00053	3b 45 c8	 cmp	 eax, DWORD PTR _RXToggle$[ebp]
  00056	75 33		 jne	 SHORT $LN66@ProcessSCS
  00058	8b 45 08	 mov	 eax, DWORD PTR _Buffer$[ebp]
  0005b	0f b6 48 01	 movzx	 ecx, BYTE PTR [eax+1]
  0005f	83 e1 40	 and	 ecx, 64			; 00000040H
  00062	75 27		 jne	 SHORT $LN66@ProcessSCS

; 446  : 	{
; 447  : 		// Repeat Condition
; 448  : 
; 449  : 		EmCRCStuffAndSend(SCSReply, ReplyLen);

  00064	a1 00 00 00 00	 mov	 eax, DWORD PTR _ReplyLen
  00069	50		 push	 eax
  0006a	68 00 00 00 00	 push	 OFFSET _SCSReply
  0006f	e8 00 00 00 00	 call	 _EmCRCStuffAndSend
  00074	83 c4 08	 add	 esp, 8

; 450  : 		WriteDebugLog(LOGINFO, "Same Toggle - Repeating last packet");

  00077	68 00 00 00 00	 push	 OFFSET ??_C@_0CE@FJBABCEA@Same?5Toggle?5?9?5Repeating?5last?5pac@
  0007c	6a 06		 push	 6
  0007e	e8 00 00 00 00	 call	 _WriteDebugLog
  00083	83 c4 08	 add	 esp, 8

; 451  : 
; 452  : 		return;

  00086	e9 d6 07 00 00	 jmp	 $LN29@ProcessSCS
$LN66@ProcessSCS:

; 453  : 	}
; 454  : 
; 455  : 	Toggle = RXToggle;

  0008b	8b 45 c8	 mov	 eax, DWORD PTR _RXToggle$[ebp]
  0008e	a3 00 00 00 00	 mov	 DWORD PTR _Toggle, eax

; 456  : 
; 457  : 	if (Channel == 255)

  00093	81 7d f8 ff 00
	00 00		 cmp	 DWORD PTR _Channel$[ebp], 255 ; 000000ffH
  0009a	0f 85 f9 00 00
	00		 jne	 $LN65@ProcessSCS

; 458  : 	{
; 459  : 		UCHAR * NextChan = &SCSReply[4];

  000a0	c7 45 bc 04 00
	00 00		 mov	 DWORD PTR _NextChan$5651[ebp], OFFSET _SCSReply+4

; 460  : 		
; 461  : 		// General Poll
; 462  : 
; 463  : 		// See if any channels have anything available
; 464  : 
; 465  : 		if (newStatus)

  000a7	83 3d 00 00 00
	00 00		 cmp	 DWORD PTR _newStatus, 0
  000ae	74 19		 je	 SHORT $LN64@ProcessSCS

; 466  : 		{
; 467  : 			newStatus = FALSE;

  000b0	c7 05 00 00 00
	00 00 00 00 00	 mov	 DWORD PTR _newStatus, 0

; 468  : 			*(NextChan++) = 255;

  000ba	8b 45 bc	 mov	 eax, DWORD PTR _NextChan$5651[ebp]
  000bd	c6 00 ff	 mov	 BYTE PTR [eax], 255	; 000000ffH
  000c0	8b 4d bc	 mov	 ecx, DWORD PTR _NextChan$5651[ebp]
  000c3	83 c1 01	 add	 ecx, 1
  000c6	89 4d bc	 mov	 DWORD PTR _NextChan$5651[ebp], ecx
$LN64@ProcessSCS:

; 469  : 		}
; 470  : 
; 471  : 		if (CatRXLen)		// Cat data available?

  000c9	83 3d 00 00 00
	00 00		 cmp	 DWORD PTR _CatRXLen, 0
  000d0	74 24		 je	 SHORT $LN63@ProcessSCS

; 472  : 		{
; 473  : 			WriteDebugLog(LOGDEBUG, "Radio Pool Returned %d",CatRXLen);

  000d2	a1 00 00 00 00	 mov	 eax, DWORD PTR _CatRXLen
  000d7	50		 push	 eax
  000d8	68 00 00 00 00	 push	 OFFSET ??_C@_0BH@DGOOHENO@Radio?5Pool?5Returned?5?$CFd?$AA@
  000dd	6a 07		 push	 7
  000df	e8 00 00 00 00	 call	 _WriteDebugLog
  000e4	83 c4 0c	 add	 esp, 12			; 0000000cH

; 474  : 			*(NextChan++) = 254;	// 253 + 1

  000e7	8b 45 bc	 mov	 eax, DWORD PTR _NextChan$5651[ebp]
  000ea	c6 00 fe	 mov	 BYTE PTR [eax], 254	; 000000feH
  000ed	8b 4d bc	 mov	 ecx, DWORD PTR _NextChan$5651[ebp]
  000f0	83 c1 01	 add	 ecx, 1
  000f3	89 4d bc	 mov	 DWORD PTR _NextChan$5651[ebp], ecx
$LN63@ProcessSCS:

; 475  : 		}
; 476  : 		if (CommandToHostBufferLen)	// only used in Native mode

  000f6	83 3d 00 00 00
	00 00		 cmp	 DWORD PTR _CommandToHostBufferLen, 0
  000fd	74 0f		 je	 SHORT $LN62@ProcessSCS

; 477  : 			*(NextChan++) = 33;		// Native mode cmd channel

  000ff	8b 45 bc	 mov	 eax, DWORD PTR _NextChan$5651[ebp]
  00102	c6 00 21	 mov	 BYTE PTR [eax], 33	; 00000021H
  00105	8b 4d bc	 mov	 ecx, DWORD PTR _NextChan$5651[ebp]
  00108	83 c1 01	 add	 ecx, 1
  0010b	89 4d bc	 mov	 DWORD PTR _NextChan$5651[ebp], ecx
$LN62@ProcessSCS:

; 478  : 
; 479  : 		if (bytesforHost || bytesEchoed || change)

  0010e	83 3d 00 00 00
	00 00		 cmp	 DWORD PTR _bytesforHost, 0
  00115	75 12		 jne	 SHORT $LN60@ProcessSCS
  00117	83 3d 00 00 00
	00 00		 cmp	 DWORD PTR _bytesEchoed, 0
  0011e	75 09		 jne	 SHORT $LN60@ProcessSCS
  00120	83 3d 00 00 00
	00 00		 cmp	 DWORD PTR _change, 0
  00127	74 2e		 je	 SHORT $LN58@ProcessSCS
$LN60@ProcessSCS:

; 480  : 			if (PTCMode)

  00129	83 3d 00 00 00
	00 00		 cmp	 DWORD PTR _PTCMode, 0
  00130	74 16		 je	 SHORT $LN59@ProcessSCS

; 481  : 				*(NextChan++) = DataChannel; // Something for this channel

  00132	8b 45 bc	 mov	 eax, DWORD PTR _NextChan$5651[ebp]
  00135	8a 0d 00 00 00
	00		 mov	 cl, BYTE PTR _DataChannel
  0013b	88 08		 mov	 BYTE PTR [eax], cl
  0013d	8b 55 bc	 mov	 edx, DWORD PTR _NextChan$5651[ebp]
  00140	83 c2 01	 add	 edx, 1
  00143	89 55 bc	 mov	 DWORD PTR _NextChan$5651[ebp], edx

; 482  : 			else

  00146	eb 0f		 jmp	 SHORT $LN58@ProcessSCS
$LN59@ProcessSCS:

; 483  : 				*(NextChan++) = 34;		// Native mode data channel

  00148	8b 45 bc	 mov	 eax, DWORD PTR _NextChan$5651[ebp]
  0014b	c6 00 22	 mov	 BYTE PTR [eax], 34	; 00000022H
  0014e	8b 4d bc	 mov	 ecx, DWORD PTR _NextChan$5651[ebp]
  00151	83 c1 01	 add	 ecx, 1
  00154	89 4d bc	 mov	 DWORD PTR _NextChan$5651[ebp], ecx
$LN58@ProcessSCS:

; 484  : 
; 485  : #ifdef LOGTOHOST
; 486  : 		if (LogToHostBufferLen)	// only used in Native mode
; 487  : 			*(NextChan++) = 35;		// Native mode log channel
; 488  : #endif
; 489  : 
; 490  : 		*(NextChan++) = 0;

  00157	8b 45 bc	 mov	 eax, DWORD PTR _NextChan$5651[ebp]
  0015a	c6 00 00	 mov	 BYTE PTR [eax], 0
  0015d	8b 4d bc	 mov	 ecx, DWORD PTR _NextChan$5651[ebp]
  00160	83 c1 01	 add	 ecx, 1
  00163	89 4d bc	 mov	 DWORD PTR _NextChan$5651[ebp], ecx

; 491  : 
; 492  : 		SCSReply[2] = 255;

  00166	c6 05 02 00 00
	00 ff		 mov	 BYTE PTR _SCSReply+2, 255 ; 000000ffH

; 493  : 		SCSReply[3] = 1;

  0016d	c6 05 03 00 00
	00 01		 mov	 BYTE PTR _SCSReply+3, 1

; 494  : 
; 495  : 		ReplyLen = NextChan - &SCSReply[0];

  00174	8b 45 bc	 mov	 eax, DWORD PTR _NextChan$5651[ebp]
  00177	2d 00 00 00 00	 sub	 eax, OFFSET _SCSReply
  0017c	a3 00 00 00 00	 mov	 DWORD PTR _ReplyLen, eax

; 496  : 
; 497  : 		EmCRCStuffAndSend(SCSReply, ReplyLen);

  00181	a1 00 00 00 00	 mov	 eax, DWORD PTR _ReplyLen
  00186	50		 push	 eax
  00187	68 00 00 00 00	 push	 OFFSET _SCSReply
  0018c	e8 00 00 00 00	 call	 _EmCRCStuffAndSend
  00191	83 c4 08	 add	 esp, 8

; 498  : 		return;

  00194	e9 c8 06 00 00	 jmp	 $LN29@ProcessSCS
$LN65@ProcessSCS:

; 499  : 	}
; 500  : 
; 501  : 	if (Channel == 254)			// Status

  00199	81 7d f8 fe 00
	00 00		 cmp	 DWORD PTR _Channel$[ebp], 254 ; 000000feH
  001a0	0f 85 56 01 00
	00		 jne	 $LN57@ProcessSCS

; 502  : 	{
; 503  : 		// Extended Status Poll
; 504  : 
; 505  : 		SCSReply[2] = 254;

  001a6	c6 05 02 00 00
	00 fe		 mov	 BYTE PTR _SCSReply+2, 254 ; 000000feH

; 506  : 		SCSReply[3] = 7;		// Status

  001ad	c6 05 03 00 00
	00 07		 mov	 BYTE PTR _SCSReply+3, 7

; 507  : 		SCSReply[4] = 3;		// Len -1

  001b4	c6 05 04 00 00
	00 03		 mov	 BYTE PTR _SCSReply+4, 3

; 508  : 
; 509  : //		if (ProtocolState == IDLE || ProtocolState == IRS || ProtocolState == ISS)
; 510  : 		if (ProtocolState != DISC)

  001bb	83 3d 00 00 00
	00 01		 cmp	 DWORD PTR _ProtocolState, 1
  001c2	0f 84 e8 00 00
	00		 je	 $LN56@ProcessSCS

; 511  : 		{
; 512  : 			// connected states
; 513  : 
; 514  : 			SCSReply[5] = 0xa2;		// ARQ, Traffic

  001c8	c6 05 05 00 00
	00 a2		 mov	 BYTE PTR _SCSReply+5, 162 ; 000000a2H

; 515  : 
; 516  : 			if (ProtocolState != IRS)

  001cf	83 3d 00 00 00
	00 03		 cmp	 DWORD PTR _ProtocolState, 3
  001d6	74 0f		 je	 SHORT $LN55@ProcessSCS

; 517  : 				SCSReply[5] |= 0x8;	// Send Bit

  001d8	0f b6 05 05 00
	00 00		 movzx	 eax, BYTE PTR _SCSReply+5
  001df	83 c8 08	 or	 eax, 8
  001e2	a2 05 00 00 00	 mov	 BYTE PTR _SCSReply+5, al
$LN55@ProcessSCS:

; 518  : 
; 519  : 			if (intSessionBW == 200)

  001e7	81 3d 00 00 00
	00 c8 00 00 00	 cmp	 DWORD PTR _intSessionBW, 200 ; 000000c8H
  001f1	75 09		 jne	 SHORT $LN54@ProcessSCS

; 520  : 				SCSReply[6] = 1;		// P1

  001f3	c6 05 06 00 00
	00 01		 mov	 BYTE PTR _SCSReply+6, 1
  001fa	eb 31		 jmp	 SHORT $LN49@ProcessSCS
$LN54@ProcessSCS:

; 521  : 			else if (intSessionBW == 500)

  001fc	81 3d 00 00 00
	00 f4 01 00 00	 cmp	 DWORD PTR _intSessionBW, 500 ; 000001f4H
  00206	75 09		 jne	 SHORT $LN52@ProcessSCS

; 522  : 				SCSReply[6] = 2;		// P2

  00208	c6 05 06 00 00
	00 02		 mov	 BYTE PTR _SCSReply+6, 2
  0020f	eb 1c		 jmp	 SHORT $LN49@ProcessSCS
$LN52@ProcessSCS:

; 523  : 			else if (intSessionBW == 1000)

  00211	81 3d 00 00 00
	00 e8 03 00 00	 cmp	 DWORD PTR _intSessionBW, 1000 ; 000003e8H
  0021b	75 09		 jne	 SHORT $LN50@ProcessSCS

; 524  : 				SCSReply[6] = 3;		// P2

  0021d	c6 05 06 00 00
	00 03		 mov	 BYTE PTR _SCSReply+6, 3

; 525  : 			else

  00224	eb 07		 jmp	 SHORT $LN49@ProcessSCS
$LN50@ProcessSCS:

; 526  : 				SCSReply[6] = 4;		// P4

  00226	c6 05 06 00 00
	00 04		 mov	 BYTE PTR _SCSReply+6, 4
$LN49@ProcessSCS:

; 527  : 
; 528  : 
; 529  : 			// Speedlevel Mapping from RMS Express
; 530  : 
; 531  : 			// P1 {100, 200}, _
; 532  :             // P2 {200, 400, 600, 800}, _
; 533  :             // P3 {200, 600, 1400, 2800, 3200, 3600}, _
; 534  :             // P4 {47, 85, 150, 300, 450, 1100, 2200, 3300, 4400, 5500}}
; 535  : 
; 536  : 			if (intSessionBW == 200)

  0022d	81 3d 00 00 00
	00 c8 00 00 00	 cmp	 DWORD PTR _intSessionBW, 200 ; 000000c8H
  00237	75 09		 jne	 SHORT $LN48@ProcessSCS

; 537  : 				SCSReply[7] = 1;

  00239	c6 05 07 00 00
	00 01		 mov	 BYTE PTR _SCSReply+7, 1
  00240	eb 31		 jmp	 SHORT $LN43@ProcessSCS
$LN48@ProcessSCS:

; 538  : 			else if (intSessionBW == 500)

  00242	81 3d 00 00 00
	00 f4 01 00 00	 cmp	 DWORD PTR _intSessionBW, 500 ; 000001f4H
  0024c	75 09		 jne	 SHORT $LN46@ProcessSCS

; 539  : 				SCSReply[7] = 2;		// P2

  0024e	c6 05 07 00 00
	00 02		 mov	 BYTE PTR _SCSReply+7, 2
  00255	eb 1c		 jmp	 SHORT $LN43@ProcessSCS
$LN46@ProcessSCS:

; 540  : 			else if (intSessionBW == 1000)

  00257	81 3d 00 00 00
	00 e8 03 00 00	 cmp	 DWORD PTR _intSessionBW, 1000 ; 000003e8H
  00261	75 09		 jne	 SHORT $LN44@ProcessSCS

; 541  : 				SCSReply[7] = 3;		// P2

  00263	c6 05 07 00 00
	00 03		 mov	 BYTE PTR _SCSReply+7, 3

; 542  : 			else

  0026a	eb 07		 jmp	 SHORT $LN43@ProcessSCS
$LN44@ProcessSCS:

; 543  : 				SCSReply[7] = 6;		// P4

  0026c	c6 05 07 00 00
	00 06		 mov	 BYTE PTR _SCSReply+7, 6
$LN43@ProcessSCS:

; 544  : 
; 545  : 			SCSReply[8] = dblOffsetHz;	// Freq Error

  00273	d9 05 00 00 00
	00		 fld	 DWORD PTR _dblOffsetHz
  00279	d9 bd f6 fe ff
	ff		 fnstcw	 WORD PTR tv413[ebp]
  0027f	0f b7 85 f6 fe
	ff ff		 movzx	 eax, WORD PTR tv413[ebp]
  00286	0d 00 0c 00 00	 or	 eax, 3072		; 00000c00H
  0028b	89 85 f0 fe ff
	ff		 mov	 DWORD PTR tv416[ebp], eax
  00291	d9 ad f0 fe ff
	ff		 fldcw	 WORD PTR tv416[ebp]
  00297	db 9d ec fe ff
	ff		 fistp	 DWORD PTR tv418[ebp]
  0029d	d9 ad f6 fe ff
	ff		 fldcw	 WORD PTR tv413[ebp]
  002a3	8a 85 ec fe ff
	ff		 mov	 al, BYTE PTR tv418[ebp]
  002a9	a2 08 00 00 00	 mov	 BYTE PTR _SCSReply+8, al

; 546  : 		}
; 547  : 		else

  002ae	eb 2e		 jmp	 SHORT $LN42@ProcessSCS
$LN56@ProcessSCS:

; 548  : 		{
; 549  : 			if (blnBusyStatus)

  002b0	83 3d 00 00 00
	00 00		 cmp	 DWORD PTR _blnBusyStatus, 0
  002b7	74 09		 je	 SHORT $LN41@ProcessSCS

; 550  : 				SCSReply[5] = 0xf0;

  002b9	c6 05 05 00 00
	00 f0		 mov	 BYTE PTR _SCSReply+5, 240 ; 000000f0H

; 551  : 			else

  002c0	eb 07		 jmp	 SHORT $LN40@ProcessSCS
$LN41@ProcessSCS:

; 552  : 				SCSReply[5] = 0;

  002c2	c6 05 05 00 00
	00 00		 mov	 BYTE PTR _SCSReply+5, 0
$LN40@ProcessSCS:

; 553  : 
; 554  : 			SCSReply[6] = 0;

  002c9	c6 05 06 00 00
	00 00		 mov	 BYTE PTR _SCSReply+6, 0

; 555  : 			SCSReply[7] = 0;

  002d0	c6 05 07 00 00
	00 00		 mov	 BYTE PTR _SCSReply+7, 0

; 556  : 			SCSReply[8] = 0;

  002d7	c6 05 08 00 00
	00 00		 mov	 BYTE PTR _SCSReply+8, 0
$LN42@ProcessSCS:

; 557  : 		}
; 558  : 
; 559  : 		ReplyLen = 9;

  002de	c7 05 00 00 00
	00 09 00 00 00	 mov	 DWORD PTR _ReplyLen, 9

; 560  : 		EmCRCStuffAndSend(SCSReply, 9);

  002e8	6a 09		 push	 9
  002ea	68 00 00 00 00	 push	 OFFSET _SCSReply
  002ef	e8 00 00 00 00	 call	 _EmCRCStuffAndSend
  002f4	83 c4 08	 add	 esp, 8

; 561  : 		return;

  002f7	e9 65 05 00 00	 jmp	 $LN29@ProcessSCS
$LN57@ProcessSCS:

; 562  : 	}
; 563  : 
; 564  : 	if (Channel == 253)			// Rig Control

  002fc	81 7d f8 fd 00
	00 00		 cmp	 DWORD PTR _Channel$[ebp], 253 ; 000000fdH
  00303	0f 85 a8 00 00
	00		 jne	 $LN39@ProcessSCS

; 565  : 	{
; 566  : 		if (Command == 1 && Buffer[3] == 'G')	

  00309	83 7d ec 01	 cmp	 DWORD PTR _Command$[ebp], 1
  0030d	75 6f		 jne	 SHORT $LN38@ProcessSCS
  0030f	8b 45 08	 mov	 eax, DWORD PTR _Buffer$[ebp]
  00312	0f b6 48 03	 movzx	 ecx, BYTE PTR [eax+3]
  00316	83 f9 47	 cmp	 ecx, 71			; 00000047H
  00319	75 63		 jne	 SHORT $LN38@ProcessSCS

; 567  : 		{
; 568  : 			// Poll for Rig Data
; 569  : 
; 570  : 			memcpy(&SCSReply[5], CatRXbuffer, CatRXLen);

  0031b	a1 00 00 00 00	 mov	 eax, DWORD PTR _CatRXLen
  00320	50		 push	 eax
  00321	68 00 00 00 00	 push	 OFFSET _CatRXbuffer
  00326	68 05 00 00 00	 push	 OFFSET _SCSReply+5
  0032b	e8 00 00 00 00	 call	 _memcpy
  00330	83 c4 0c	 add	 esp, 12			; 0000000cH

; 571  : 			SCSReply[2] = Channel;

  00333	8a 45 f8	 mov	 al, BYTE PTR _Channel$[ebp]
  00336	a2 02 00 00 00	 mov	 BYTE PTR _SCSReply+2, al

; 572  : 			SCSReply[3] = 7;

  0033b	c6 05 03 00 00
	00 07		 mov	 BYTE PTR _SCSReply+3, 7

; 573  : 			SCSReply[4] = CatRXLen - 1;

  00342	a1 00 00 00 00	 mov	 eax, DWORD PTR _CatRXLen
  00347	83 e8 01	 sub	 eax, 1
  0034a	a2 04 00 00 00	 mov	 BYTE PTR _SCSReply+4, al

; 574  : 
; 575  : 			ReplyLen = CatRXLen + 5;

  0034f	a1 00 00 00 00	 mov	 eax, DWORD PTR _CatRXLen
  00354	83 c0 05	 add	 eax, 5
  00357	a3 00 00 00 00	 mov	 DWORD PTR _ReplyLen, eax

; 576  : 			EmCRCStuffAndSend(SCSReply, ReplyLen);

  0035c	a1 00 00 00 00	 mov	 eax, DWORD PTR _ReplyLen
  00361	50		 push	 eax
  00362	68 00 00 00 00	 push	 OFFSET _SCSReply
  00367	e8 00 00 00 00	 call	 _EmCRCStuffAndSend
  0036c	83 c4 08	 add	 esp, 8

; 577  : 			CatRXLen = 0;

  0036f	c7 05 00 00 00
	00 00 00 00 00	 mov	 DWORD PTR _CatRXLen, 0

; 578  : 			return;

  00379	e9 e3 04 00 00	 jmp	 $LN29@ProcessSCS
$LN38@ProcessSCS:

; 579  : 		}
; 580  : 
; 581  : 		Len = Buffer[2] + 1;

  0037e	8b 45 08	 mov	 eax, DWORD PTR _Buffer$[ebp]
  00381	0f b6 48 02	 movzx	 ecx, BYTE PTR [eax+2]
  00385	83 c1 01	 add	 ecx, 1
  00388	89 4d e0	 mov	 DWORD PTR _Len$[ebp], ecx

; 582  : 		Buffer[Len + 3] = 0;

  0038b	8b 45 08	 mov	 eax, DWORD PTR _Buffer$[ebp]
  0038e	03 45 e0	 add	 eax, DWORD PTR _Len$[ebp]
  00391	c6 40 03 00	 mov	 BYTE PTR [eax+3], 0

; 583  : 
; 584  : 		// RMS Express sends #TRX: Commands, eg #TRX TY I 9600 $00 TTL
; 585  : 		// BPQ sends Data Frames with the raw contents
; 586  : 
; 587  : 		ProcessRIGPacket(Command, &Buffer[3], Len);

  00395	8b 45 e0	 mov	 eax, DWORD PTR _Len$[ebp]
  00398	50		 push	 eax
  00399	8b 4d 08	 mov	 ecx, DWORD PTR _Buffer$[ebp]
  0039c	83 c1 03	 add	 ecx, 3
  0039f	51		 push	 ecx
  003a0	8b 55 ec	 mov	 edx, DWORD PTR _Command$[ebp]
  003a3	52		 push	 edx
  003a4	e8 00 00 00 00	 call	 _ProcessRIGPacket
  003a9	83 c4 0c	 add	 esp, 12			; 0000000cH

; 588  : 		goto AckIt;

  003ac	e9 a6 02 00 00	 jmp	 $AckIt$5680
$LN39@ProcessSCS:

; 589  : 	}
; 590  : 
; 591  : 	if (Command == 0)

  003b1	83 7d ec 00	 cmp	 DWORD PTR _Command$[ebp], 0
  003b5	0f 85 fa 00 00
	00		 jne	 $LN37@ProcessSCS

; 592  : 	{
; 593  : 		// Data Frame
; 594  : 
; 595  : 		if (Channel == 31)			// PTC Mode

  003bb	83 7d f8 1f	 cmp	 DWORD PTR _Channel$[ebp], 31 ; 0000001fH
  003bf	75 1f		 jne	 SHORT $LN36@ProcessSCS

; 596  : 			AddDataToDataToSend(&Buffer[3], Buffer[2] + 1);

  003c1	8b 45 08	 mov	 eax, DWORD PTR _Buffer$[ebp]
  003c4	0f b6 48 02	 movzx	 ecx, BYTE PTR [eax+2]
  003c8	83 c1 01	 add	 ecx, 1
  003cb	51		 push	 ecx
  003cc	8b 55 08	 mov	 edx, DWORD PTR _Buffer$[ebp]
  003cf	83 c2 03	 add	 edx, 3
  003d2	52		 push	 edx
  003d3	e8 00 00 00 00	 call	 _AddDataToDataToSend
  003d8	83 c4 08	 add	 esp, 8
  003db	e9 d0 00 00 00	 jmp	 $LN31@ProcessSCS
$LN36@ProcessSCS:

; 597  : 
; 598  : 		else if (Channel == 32)		// Native Mode Command

  003e0	83 7d f8 20	 cmp	 DWORD PTR _Channel$[ebp], 32 ; 00000020H
  003e4	0f 85 a6 00 00
	00		 jne	 $LN34@ProcessSCS

; 599  : 		{
; 600  : 			Buffer[Len + 3] = 0;

  003ea	8b 45 08	 mov	 eax, DWORD PTR _Buffer$[ebp]
  003ed	03 45 e0	 add	 eax, DWORD PTR _Len$[ebp]
  003f0	c6 40 03 00	 mov	 BYTE PTR [eax+3], 0

; 601  : 			CMDReplyBuffer[0] = 0;	// in case no reply

  003f4	c6 05 00 00 00
	00 00		 mov	 BYTE PTR _CMDReplyBuffer, 0

; 602  : 			ProcessCommandFromHost(&Buffer[5]); // Skip C:

  003fb	8b 45 08	 mov	 eax, DWORD PTR _Buffer$[ebp]
  003fe	83 c0 05	 add	 eax, 5
  00401	50		 push	 eax
  00402	e8 00 00 00 00	 call	 _ProcessCommandFromHost
  00407	83 c4 04	 add	 esp, 4

; 603  : 
; 604  : 			// Command will have put reply in CMDReplyBuffer
; 605  : 
; 606  : 			if (CMDReplyBuffer[0] == 0) // no response

  0040a	0f be 05 00 00
	00 00		 movsx	 eax, BYTE PTR _CMDReplyBuffer
  00411	85 c0		 test	 eax, eax
  00413	75 05		 jne	 SHORT $LN33@ProcessSCS

; 607  : 				goto AckIt;

  00415	e9 3d 02 00 00	 jmp	 $AckIt$5680
$LN33@ProcessSCS:

; 608  : 			
; 609  : 			SCSReply[2] = Channel;

  0041a	8a 45 f8	 mov	 al, BYTE PTR _Channel$[ebp]
  0041d	a2 02 00 00 00	 mov	 BYTE PTR _SCSReply+2, al

; 610  : 			SCSReply[3] = 1;

  00422	c6 05 03 00 00
	00 01		 mov	 BYTE PTR _SCSReply+3, 1

; 611  : 			strcpy(&SCSReply[4], "c:");

  00429	68 00 00 00 00	 push	 OFFSET ??_C@_02GPIGINON@c?3?$AA@
  0042e	68 04 00 00 00	 push	 OFFSET _SCSReply+4
  00433	e8 00 00 00 00	 call	 _strcpy
  00438	83 c4 08	 add	 esp, 8

; 612  : 			strcpy(&SCSReply[6], CMDReplyBuffer);

  0043b	68 00 00 00 00	 push	 OFFSET _CMDReplyBuffer
  00440	68 06 00 00 00	 push	 OFFSET _SCSReply+6
  00445	e8 00 00 00 00	 call	 _strcpy
  0044a	83 c4 08	 add	 esp, 8

; 613  : 			ReplyLen = strlen(CMDReplyBuffer) + 7;

  0044d	68 00 00 00 00	 push	 OFFSET _CMDReplyBuffer
  00452	e8 00 00 00 00	 call	 _strlen
  00457	83 c4 04	 add	 esp, 4
  0045a	83 c0 07	 add	 eax, 7
  0045d	a3 00 00 00 00	 mov	 DWORD PTR _ReplyLen, eax

; 614  : 			EmCRCStuffAndSend(SCSReply, ReplyLen);

  00462	a1 00 00 00 00	 mov	 eax, DWORD PTR _ReplyLen
  00467	50		 push	 eax
  00468	68 00 00 00 00	 push	 OFFSET _SCSReply
  0046d	e8 00 00 00 00	 call	 _EmCRCStuffAndSend
  00472	83 c4 08	 add	 esp, 8

; 615  : 			WriteDebugLog(LOGDEBUG, "Sending CMD Reply %s", CMDReplyBuffer);

  00475	68 00 00 00 00	 push	 OFFSET _CMDReplyBuffer
  0047a	68 00 00 00 00	 push	 OFFSET ??_C@_0BF@MMOFLHPH@Sending?5CMD?5Reply?5?$CFs?$AA@
  0047f	6a 07		 push	 7
  00481	e8 00 00 00 00	 call	 _WriteDebugLog
  00486	83 c4 0c	 add	 esp, 12			; 0000000cH
  00489	e9 d3 03 00 00	 jmp	 $LN29@ProcessSCS

; 616  : 			return;

  0048e	eb 20		 jmp	 SHORT $LN31@ProcessSCS
$LN34@ProcessSCS:

; 617  : 		}
; 618  : 
; 619  : 		else if (Channel == 33)		// Native Mode Data

  00490	83 7d f8 21	 cmp	 DWORD PTR _Channel$[ebp], 33 ; 00000021H
  00494	75 1a		 jne	 SHORT $LN31@ProcessSCS

; 620  : 
; 621  : 			// Format is D: Len Data - remove D: and Len
; 622  : 			AddDataToDataToSend(&Buffer[7], Buffer[2] - 3);

  00496	8b 45 08	 mov	 eax, DWORD PTR _Buffer$[ebp]
  00499	0f b6 48 02	 movzx	 ecx, BYTE PTR [eax+2]
  0049d	83 e9 03	 sub	 ecx, 3
  004a0	51		 push	 ecx
  004a1	8b 55 08	 mov	 edx, DWORD PTR _Buffer$[ebp]
  004a4	83 c2 07	 add	 edx, 7
  004a7	52		 push	 edx
  004a8	e8 00 00 00 00	 call	 _AddDataToDataToSend
  004ad	83 c4 08	 add	 esp, 8
$LN31@ProcessSCS:

; 623  : 
; 624  : 		goto AckIt;

  004b0	e9 a2 01 00 00	 jmp	 $AckIt$5680
$LN37@ProcessSCS:

; 625  : 	}
; 626  : 
; 627  : //	WriteDebugLog(LOGDEBUG, "%c", Buffer[3]);
; 628  : 
; 629  : 	switch (Buffer[3])

  004b5	8b 45 08	 mov	 eax, DWORD PTR _Buffer$[ebp]
  004b8	0f b6 48 03	 movzx	 ecx, BYTE PTR [eax+3]
  004bc	89 8d f4 fe ff
	ff		 mov	 DWORD PTR tv239[ebp], ecx
  004c2	8b 95 f4 fe ff
	ff		 mov	 edx, DWORD PTR tv239[ebp]
  004c8	83 ea 23	 sub	 edx, 35			; 00000023H
  004cb	89 95 f4 fe ff
	ff		 mov	 DWORD PTR tv239[ebp], edx
  004d1	83 bd f4 fe ff
	ff 29		 cmp	 DWORD PTR tv239[ebp], 41 ; 00000029H
  004d8	0f 87 54 03 00
	00		 ja	 $LN1@ProcessSCS
  004de	8b 85 f4 fe ff
	ff		 mov	 eax, DWORD PTR tv239[ebp]
  004e4	0f b6 88 00 00
	00 00		 movzx	 ecx, BYTE PTR $LN69@ProcessSCS[eax]
  004eb	ff 24 8d 00 00
	00 00		 jmp	 DWORD PTR $LN70@ProcessSCS[ecx*4]
$LN28@ProcessSCS:

; 630  : 	{
; 631  : 	case 'J':				// JHOST
; 632  : 
; 633  : 		HostMode = FALSE;

  004f2	c7 05 00 00 00
	00 00 00 00 00	 mov	 DWORD PTR _HostMode, 0

; 634  : 		WriteDebugLog(LOGINFO, "Exit Host Mode");

  004fc	68 00 00 00 00	 push	 OFFSET ??_C@_0P@IHEBJIJI@Exit?5Host?5Mode?$AA@
  00501	6a 06		 push	 6
  00503	e8 00 00 00 00	 call	 _WriteDebugLog
  00508	83 c4 08	 add	 esp, 8

; 635  : 		return;

  0050b	e9 51 03 00 00	 jmp	 $LN29@ProcessSCS
$LN27@ProcessSCS:

; 636  : 
; 637  : 	case 'L':
; 638  : /*
; 639  :                             ' Status responses from the 'L' command will have 6 fields separated by spaces.
; 640  :                             ' The field definitions are as follows:
; 641  :                             ' Field 1: Number of link status messages not yet displayed
; 642  :                             ' Field 2: NUmber of receive frames not yet displayed
; 643  :                             ' Field 3: NUmber of send frames not yet delivered
; 644  :                             ' Field 4: NUmber of transmitted frames not yet acknowledged
; 645  :                             ' Field 5: NUmber of tries on the current operation
; 646  :                             ' Field 6: Link state:
; 647  :                             '   0 = Disconnected
; 648  :                             '   1 = Link Setop
; 649  :                             '   2 = Frame Reject
; 650  :                             '   3 = Disconnect Request
; 651  :                             '   4 = Information transfer
; 652  :                             '   5 = Reject Frame Sent
; 653  :                             '   6 = Waiting Acknowledgement
; 654  :                             '   7 = Device Busy
; 655  :                             '   8 = Remote Device Busy
; 656  :                             '   9 = Both Devices Busy
; 657  :                             '   10 = Waiting Acknowledgement and Device Busy
; 658  :                             '   11 = Waiting Acknowledgement and Remote Busy
; 659  :                             '   12 = Waiting Acknowledgement and Both Device Busy
; 660  :                             '   13 = Reject Frame Sent and Device Busy
; 661  :                             '   14 = Reject Frame Sent and Remote Busy
; 662  :                             '   15 = Reject Frame Sent and Both Device Busy
; 663  :                             '
; 664  : 							*/
; 665  : 
; 666  : 			// I think only 3 is important as it is used for flow control
; 667  : 			// RMS Express stops at 20
; 668  : 
; 669  : 		SCSReply[2] = Channel;

  00510	8a 45 f8	 mov	 al, BYTE PTR _Channel$[ebp]
  00513	a2 02 00 00 00	 mov	 BYTE PTR _SCSReply+2, al

; 670  : 		SCSReply[3] = 1;

  00518	c6 05 03 00 00
	00 01		 mov	 BYTE PTR _SCSReply+3, 1

; 671  : 		len = sprintf(&SCSReply[4], "%d %d %d %d %d %d", 0, 0, (bytDataToSendLength > 3000)?51:0, 0, 0, 4);

  0051f	6a 04		 push	 4
  00521	6a 00		 push	 0
  00523	6a 00		 push	 0
  00525	33 c0		 xor	 eax, eax
  00527	81 3d 00 00 00
	00 b8 0b 00 00	 cmp	 DWORD PTR _bytDataToSendLength, 3000 ; 00000bb8H
  00531	0f 9e c0	 setle	 al
  00534	83 e8 01	 sub	 eax, 1
  00537	83 e0 33	 and	 eax, 51			; 00000033H
  0053a	50		 push	 eax
  0053b	6a 00		 push	 0
  0053d	6a 00		 push	 0
  0053f	68 00 00 00 00	 push	 OFFSET ??_C@_0BC@HDIJPDCG@?$CFd?5?$CFd?5?$CFd?5?$CFd?5?$CFd?5?$CFd?$AA@
  00544	68 04 00 00 00	 push	 OFFSET _SCSReply+4
  00549	e8 00 00 00 00	 call	 _sprintf
  0054e	83 c4 20	 add	 esp, 32			; 00000020H
  00551	89 45 d4	 mov	 DWORD PTR _len$[ebp], eax

; 672  : 		ReplyLen = len + 5;

  00554	8b 45 d4	 mov	 eax, DWORD PTR _len$[ebp]
  00557	83 c0 05	 add	 eax, 5
  0055a	a3 00 00 00 00	 mov	 DWORD PTR _ReplyLen, eax

; 673  : 		EmCRCStuffAndSend(SCSReply, len + 5);

  0055f	8b 45 d4	 mov	 eax, DWORD PTR _len$[ebp]
  00562	83 c0 05	 add	 eax, 5
  00565	50		 push	 eax
  00566	68 00 00 00 00	 push	 OFFSET _SCSReply
  0056b	e8 00 00 00 00	 call	 _EmCRCStuffAndSend
  00570	83 c4 08	 add	 esp, 8

; 674  : 		return;

  00573	e9 e9 02 00 00	 jmp	 $LN29@ProcessSCS

; 675  : 
; 676  : 
; 677  : 		return;

  00578	e9 e4 02 00 00	 jmp	 $LN29@ProcessSCS
$LN26@ProcessSCS:

; 678  : 
; 679  : 	case 'G':				// Specific Poll
; 680  : 	
; 681  : 		if (PTCMode)

  0057d	83 3d 00 00 00
	00 00		 cmp	 DWORD PTR _PTCMode, 0
  00584	74 1e		 je	 SHORT $LN25@ProcessSCS

; 682  : 		{
; 683  : 			if (CheckStatusChange())

  00586	e8 00 00 00 00	 call	 _CheckStatusChange
  0058b	85 c0		 test	 eax, eax
  0058d	74 05		 je	 SHORT $LN24@ProcessSCS

; 684  : 				return;					// It has sent reply

  0058f	e9 cd 02 00 00	 jmp	 $LN29@ProcessSCS
$LN24@ProcessSCS:

; 685  : 
; 686  : 			if (CheckForData())

  00594	e8 00 00 00 00	 call	 _CheckForData
  00599	85 c0		 test	 eax, eax
  0059b	74 05		 je	 SHORT $LN23@ProcessSCS

; 687  : 				return;					// It has sent reply

  0059d	e9 bf 02 00 00	 jmp	 $LN29@ProcessSCS
$LN23@ProcessSCS:

; 688  : 		}
; 689  : 		else

  005a2	eb 28		 jmp	 SHORT $LN18@ProcessSCS
$LN25@ProcessSCS:

; 690  : 		{
; 691  : 			// Native mode
; 692  : 
; 693  : 			if (Channel == 32)

  005a4	83 7d f8 20	 cmp	 DWORD PTR _Channel$[ebp], 32 ; 00000020H
  005a8	75 0e		 jne	 SHORT $LN20@ProcessSCS

; 694  : 				if (CheckForControl())

  005aa	e8 00 00 00 00	 call	 _CheckForControl
  005af	85 c0		 test	 eax, eax
  005b1	74 05		 je	 SHORT $LN20@ProcessSCS

; 695  : 					return;				// It has sent reply

  005b3	e9 a9 02 00 00	 jmp	 $LN29@ProcessSCS
$LN20@ProcessSCS:

; 696  : 
; 697  : 			if (Channel == 33)

  005b8	83 7d f8 21	 cmp	 DWORD PTR _Channel$[ebp], 33 ; 00000021H
  005bc	75 0e		 jne	 SHORT $LN18@ProcessSCS

; 698  : 				if (CheckForData())

  005be	e8 00 00 00 00	 call	 _CheckForData
  005c3	85 c0		 test	 eax, eax
  005c5	74 05		 je	 SHORT $LN18@ProcessSCS

; 699  : 					return;				// It has sent reply

  005c7	e9 95 02 00 00	 jmp	 $LN29@ProcessSCS
$LN18@ProcessSCS:

; 700  : 
; 701  : #ifdef LOGTOHOST
; 702  : 			if (Channel == 34)
; 703  : 				if (CheckForLog())
; 704  : 					return;				// It has sent reply
; 705  : #endif
; 706  : 		}
; 707  : 
; 708  : 		// reply nothing doing
; 709  : 
; 710  : 		SCSReply[2] = Channel;

  005cc	8a 45 f8	 mov	 al, BYTE PTR _Channel$[ebp]
  005cf	a2 02 00 00 00	 mov	 BYTE PTR _SCSReply+2, al

; 711  : 		SCSReply[3] = 0;

  005d4	c6 05 03 00 00
	00 00		 mov	 BYTE PTR _SCSReply+3, 0

; 712  : 		ReplyLen = 4;

  005db	c7 05 00 00 00
	00 04 00 00 00	 mov	 DWORD PTR _ReplyLen, 4

; 713  : 		EmCRCStuffAndSend(SCSReply, 4);

  005e5	6a 04		 push	 4
  005e7	68 00 00 00 00	 push	 OFFSET _SCSReply
  005ec	e8 00 00 00 00	 call	 _EmCRCStuffAndSend
  005f1	83 c4 08	 add	 esp, 8

; 714  : 		return;

  005f4	e9 68 02 00 00	 jmp	 $LN29@ProcessSCS
$LN17@ProcessSCS:

; 715  : 
; 716  : 	case 'C':				// Connect
; 717  : 
; 718  : 		// Could be real, or just C to request status
; 719  : 
; 720  : 		if (Channel == 0)

  005f9	83 7d f8 00	 cmp	 DWORD PTR _Channel$[ebp], 0
  005fd	75 02		 jne	 SHORT $LN16@ProcessSCS

; 721  : 			goto AckIt;

  005ff	eb 56		 jmp	 SHORT $AckIt$5680
$LN16@ProcessSCS:

; 722  : 
; 723  : 		if (Length == 0)

  00601	83 7d 0c 00	 cmp	 DWORD PTR _Length$[ebp], 0
  00605	75 05		 jne	 SHORT $LN15@ProcessSCS

; 724  : 		{
; 725  : 			// STATUS REQUEST - IF CONNECTED, GET CALL
; 726  : 
; 727  : 			return;

  00607	e9 55 02 00 00	 jmp	 $LN29@ProcessSCS
$LN15@ProcessSCS:

; 728  : 		}
; 729  : 		Buffer[Length - 2] = 0;

  0060c	8b 45 08	 mov	 eax, DWORD PTR _Buffer$[ebp]
  0060f	03 45 0c	 add	 eax, DWORD PTR _Length$[ebp]
  00612	c6 40 fe 00	 mov	 BYTE PTR [eax-2], 0

; 730  : 
; 731  : 		if (Buffer[5] == '%' || Buffer[5] == '!' ||Buffer[5] == ';' )

  00616	8b 45 08	 mov	 eax, DWORD PTR _Buffer$[ebp]
  00619	0f b6 48 05	 movzx	 ecx, BYTE PTR [eax+5]
  0061d	83 f9 25	 cmp	 ecx, 37			; 00000025H
  00620	74 18		 je	 SHORT $LN13@ProcessSCS
  00622	8b 45 08	 mov	 eax, DWORD PTR _Buffer$[ebp]
  00625	0f b6 48 05	 movzx	 ecx, BYTE PTR [eax+5]
  00629	83 f9 21	 cmp	 ecx, 33			; 00000021H
  0062c	74 0c		 je	 SHORT $LN13@ProcessSCS
  0062e	8b 45 08	 mov	 eax, DWORD PTR _Buffer$[ebp]
  00631	0f b6 48 05	 movzx	 ecx, BYTE PTR [eax+5]
  00635	83 f9 3b	 cmp	 ecx, 59			; 0000003bH
  00638	75 09		 jne	 SHORT $LN14@ProcessSCS
$LN13@ProcessSCS:

; 732  : 			Buffer++;		// Long Path / Robust

  0063a	8b 45 08	 mov	 eax, DWORD PTR _Buffer$[ebp]
  0063d	83 c0 01	 add	 eax, 1
  00640	89 45 08	 mov	 DWORD PTR _Buffer$[ebp], eax
$LN14@ProcessSCS:

; 733  : 
; 734  : 		SendARQConnectRequest(Callsign, &Buffer[5]);

  00643	8b 45 08	 mov	 eax, DWORD PTR _Buffer$[ebp]
  00646	83 c0 05	 add	 eax, 5
  00649	50		 push	 eax
  0064a	68 00 00 00 00	 push	 OFFSET _Callsign
  0064f	e8 00 00 00 00	 call	 _SendARQConnectRequest
  00654	83 c4 08	 add	 esp, 8
$AckIt$5680:

; 735  : 
; 736  : 	AckIt:
; 737  : 
; 738  : 		SCSReply[2] = Channel;

  00657	8a 45 f8	 mov	 al, BYTE PTR _Channel$[ebp]
  0065a	a2 02 00 00 00	 mov	 BYTE PTR _SCSReply+2, al

; 739  : 		SCSReply[3] = 0;

  0065f	c6 05 03 00 00
	00 00		 mov	 BYTE PTR _SCSReply+3, 0

; 740  : 		ReplyLen = 4;

  00666	c7 05 00 00 00
	00 04 00 00 00	 mov	 DWORD PTR _ReplyLen, 4

; 741  : 		EmCRCStuffAndSend(SCSReply, 4);

  00670	6a 04		 push	 4
  00672	68 00 00 00 00	 push	 OFFSET _SCSReply
  00677	e8 00 00 00 00	 call	 _EmCRCStuffAndSend
  0067c	83 c4 08	 add	 esp, 8

; 742  : 		return;

  0067f	e9 dd 01 00 00	 jmp	 $LN29@ProcessSCS
$LN12@ProcessSCS:

; 743  : 
; 744  : 	case 'D':
; 745  : 
; 746  : 		// Disconnect
; 747  : 
; 748  : 		if (ProtocolState == IDLE || ProtocolState == IRS || ProtocolState == ISS)

  00684	83 3d 00 00 00
	00 04		 cmp	 DWORD PTR _ProtocolState, 4
  0068b	74 12		 je	 SHORT $LN10@ProcessSCS
  0068d	83 3d 00 00 00
	00 03		 cmp	 DWORD PTR _ProtocolState, 3
  00694	74 09		 je	 SHORT $LN10@ProcessSCS
  00696	83 3d 00 00 00
	00 02		 cmp	 DWORD PTR _ProtocolState, 2
  0069d	75 0a		 jne	 SHORT $LN11@ProcessSCS
$LN10@ProcessSCS:

; 749  : 			blnARQDisconnect = TRUE;

  0069f	c7 05 00 00 00
	00 01 00 00 00	 mov	 DWORD PTR _blnARQDisconnect, 1
$LN11@ProcessSCS:

; 750  : 
; 751  : 		goto AckIt;

  006a9	eb ac		 jmp	 SHORT $AckIt$5680
$LN9@ProcessSCS:

; 752  : 		
; 753  : 	case '%':
; 754  : 
; 755  : 		// %X commands
; 756  : 
; 757  : 		switch (Buffer[4])

  006ab	8b 45 08	 mov	 eax, DWORD PTR _Buffer$[ebp]
  006ae	8a 48 04	 mov	 cl, BYTE PTR [eax+4]
  006b1	88 8d f4 fe ff
	ff		 mov	 BYTE PTR tv333[ebp], cl
  006b7	80 bd f4 fe ff
	ff 4d		 cmp	 BYTE PTR tv333[ebp], 77	; 0000004dH
  006be	74 4a		 je	 SHORT $LN5@ProcessSCS
  006c0	80 bd f4 fe ff
	ff 56		 cmp	 BYTE PTR tv333[ebp], 86	; 00000056H
  006c7	74 02		 je	 SHORT $LN6@ProcessSCS
  006c9	eb 7f		 jmp	 SHORT $LN4@ProcessSCS
$LN6@ProcessSCS:

; 758  : 		{
; 759  : 		case 'V':					// Version
; 760  : 
; 761  : 			SCSReply[2] = Channel;

  006cb	8a 45 f8	 mov	 al, BYTE PTR _Channel$[ebp]
  006ce	a2 02 00 00 00	 mov	 BYTE PTR _SCSReply+2, al

; 762  : 			SCSReply[3] = 1;

  006d3	c6 05 03 00 00
	00 01		 mov	 BYTE PTR _SCSReply+3, 1

; 763  : 			strcpy(&SCSReply[4], "4.8 1.32");

  006da	68 00 00 00 00	 push	 OFFSET ??_C@_08NAGKCGL@4?48?51?432?$AA@
  006df	68 04 00 00 00	 push	 OFFSET _SCSReply+4
  006e4	e8 00 00 00 00	 call	 _strcpy
  006e9	83 c4 08	 add	 esp, 8

; 764  : 			ReplyLen = 13;

  006ec	c7 05 00 00 00
	00 0d 00 00 00	 mov	 DWORD PTR _ReplyLen, 13	; 0000000dH

; 765  : 			EmCRCStuffAndSend(SCSReply, 13);

  006f6	6a 0d		 push	 13			; 0000000dH
  006f8	68 00 00 00 00	 push	 OFFSET _SCSReply
  006fd	e8 00 00 00 00	 call	 _EmCRCStuffAndSend
  00702	83 c4 08	 add	 esp, 8

; 766  : 
; 767  : 			return;

  00705	e9 57 01 00 00	 jmp	 $LN29@ProcessSCS
$LN5@ProcessSCS:

; 768  : 
; 769  : 
; 770  : 		case 'M':
; 771  : 
; 772  : 			DelayedEcho = Buffer[5];

  0070a	8b 45 08	 mov	 eax, DWORD PTR _Buffer$[ebp]
  0070d	8a 48 05	 mov	 cl, BYTE PTR [eax+5]
  00710	88 0d 00 00 00
	00		 mov	 BYTE PTR _DelayedEcho, cl

; 773  : 			
; 774  : 			SCSReply[2] = Channel;

  00716	8a 45 f8	 mov	 al, BYTE PTR _Channel$[ebp]
  00719	a2 02 00 00 00	 mov	 BYTE PTR _SCSReply+2, al

; 775  : 			SCSReply[3] = 1;

  0071e	c6 05 03 00 00
	00 01		 mov	 BYTE PTR _SCSReply+3, 1

; 776  : 			SCSReply[4] = 0;

  00725	c6 05 04 00 00
	00 00		 mov	 BYTE PTR _SCSReply+4, 0

; 777  : 
; 778  : 			ReplyLen = 5;

  0072c	c7 05 00 00 00
	00 05 00 00 00	 mov	 DWORD PTR _ReplyLen, 5

; 779  : 			EmCRCStuffAndSend(SCSReply, 5);

  00736	6a 05		 push	 5
  00738	68 00 00 00 00	 push	 OFFSET _SCSReply
  0073d	e8 00 00 00 00	 call	 _EmCRCStuffAndSend
  00742	83 c4 08	 add	 esp, 8

; 780  : 
; 781  : 			return;

  00745	e9 17 01 00 00	 jmp	 $LN29@ProcessSCS
$LN4@ProcessSCS:

; 782  : 
; 783  : 		default:
; 784  : 						
; 785  : 			SCSReply[2] = Channel;

  0074a	8a 45 f8	 mov	 al, BYTE PTR _Channel$[ebp]
  0074d	a2 02 00 00 00	 mov	 BYTE PTR _SCSReply+2, al

; 786  : 			SCSReply[3] = 1;

  00752	c6 05 03 00 00
	00 01		 mov	 BYTE PTR _SCSReply+3, 1

; 787  : 			SCSReply[4] = 0;

  00759	c6 05 04 00 00
	00 00		 mov	 BYTE PTR _SCSReply+4, 0

; 788  : 
; 789  : 			ReplyLen = 5;

  00760	c7 05 00 00 00
	00 05 00 00 00	 mov	 DWORD PTR _ReplyLen, 5

; 790  : 			EmCRCStuffAndSend(SCSReply, 5);

  0076a	6a 05		 push	 5
  0076c	68 00 00 00 00	 push	 OFFSET _SCSReply
  00771	e8 00 00 00 00	 call	 _EmCRCStuffAndSend
  00776	83 c4 08	 add	 esp, 8

; 791  : 
; 792  : 			return;

  00779	e9 e3 00 00 00	 jmp	 $LN29@ProcessSCS
$LN7@ProcessSCS:

; 793  : 		}
; 794  : 	
; 795  : 	case '@':
; 796  : 
; 797  : 		// Pobably just @B
; 798  : 
; 799  : 		SCSReply[2] = Channel;

  0077e	8a 45 f8	 mov	 al, BYTE PTR _Channel$[ebp]
  00781	a2 02 00 00 00	 mov	 BYTE PTR _SCSReply+2, al

; 800  : 		SCSReply[3] = 1;

  00786	c6 05 03 00 00
	00 01		 mov	 BYTE PTR _SCSReply+3, 1

; 801  : 		len = sprintf(&SCSReply[4], "%d ", 4096 - bytDataToSendLength);

  0078d	b8 00 10 00 00	 mov	 eax, 4096		; 00001000H
  00792	2b 05 00 00 00
	00		 sub	 eax, DWORD PTR _bytDataToSendLength
  00798	50		 push	 eax
  00799	68 00 00 00 00	 push	 OFFSET ??_C@_03JDANDILB@?$CFd?5?$AA@
  0079e	68 04 00 00 00	 push	 OFFSET _SCSReply+4
  007a3	e8 00 00 00 00	 call	 _sprintf
  007a8	83 c4 0c	 add	 esp, 12			; 0000000cH
  007ab	89 45 d4	 mov	 DWORD PTR _len$[ebp], eax

; 802  : 		ReplyLen = len + 5;

  007ae	8b 45 d4	 mov	 eax, DWORD PTR _len$[ebp]
  007b1	83 c0 05	 add	 eax, 5
  007b4	a3 00 00 00 00	 mov	 DWORD PTR _ReplyLen, eax

; 803  : 		EmCRCStuffAndSend(SCSReply, len + 5);

  007b9	8b 45 d4	 mov	 eax, DWORD PTR _len$[ebp]
  007bc	83 c0 05	 add	 eax, 5
  007bf	50		 push	 eax
  007c0	68 00 00 00 00	 push	 OFFSET _SCSReply
  007c5	e8 00 00 00 00	 call	 _EmCRCStuffAndSend
  007ca	83 c4 08	 add	 esp, 8

; 804  : 		return;

  007cd	e9 8f 00 00 00	 jmp	 $LN29@ProcessSCS
$LN2@ProcessSCS:

; 805  : 
; 806  : 	case '#':
; 807  : 
; 808  : 		// Use # Construct to send ARDOP commands
; 809  : 
; 810  : 		Buffer[Length - 2] = 0;

  007d2	8b 45 08	 mov	 eax, DWORD PTR _Buffer$[ebp]
  007d5	03 45 0c	 add	 eax, DWORD PTR _Length$[ebp]
  007d8	c6 40 fe 00	 mov	 BYTE PTR [eax-2], 0

; 811  : 		WriteDebugLog(LOGDEBUG, "SCS Host Command %s", &Buffer[4]);

  007dc	8b 45 08	 mov	 eax, DWORD PTR _Buffer$[ebp]
  007df	83 c0 04	 add	 eax, 4
  007e2	50		 push	 eax
  007e3	68 00 00 00 00	 push	 OFFSET ??_C@_0BE@OLOODFCJ@SCS?5Host?5Command?5?$CFs?$AA@
  007e8	6a 07		 push	 7
  007ea	e8 00 00 00 00	 call	 _WriteDebugLog
  007ef	83 c4 0c	 add	 esp, 12			; 0000000cH

; 812  : 
; 813  : 		ProcessCommandFromHost(&Buffer[4]);

  007f2	8b 45 08	 mov	 eax, DWORD PTR _Buffer$[ebp]
  007f5	83 c0 04	 add	 eax, 4
  007f8	50		 push	 eax
  007f9	e8 00 00 00 00	 call	 _ProcessCommandFromHost
  007fe	83 c4 04	 add	 esp, 4

; 814  : 		SCSReply[2] = Channel;

  00801	8a 45 f8	 mov	 al, BYTE PTR _Channel$[ebp]
  00804	a2 02 00 00 00	 mov	 BYTE PTR _SCSReply+2, al

; 815  : 		SCSReply[3] = 1;

  00809	c6 05 03 00 00
	00 01		 mov	 BYTE PTR _SCSReply+3, 1

; 816  : 		SCSReply[4] = 0;

  00810	c6 05 04 00 00
	00 00		 mov	 BYTE PTR _SCSReply+4, 0

; 817  : 
; 818  : 		ReplyLen = 5;

  00817	c7 05 00 00 00
	00 05 00 00 00	 mov	 DWORD PTR _ReplyLen, 5

; 819  : 		EmCRCStuffAndSend(SCSReply, 5);

  00821	6a 05		 push	 5
  00823	68 00 00 00 00	 push	 OFFSET _SCSReply
  00828	e8 00 00 00 00	 call	 _EmCRCStuffAndSend
  0082d	83 c4 08	 add	 esp, 8

; 820  : 
; 821  : 		return;

  00830	eb 2f		 jmp	 SHORT $LN29@ProcessSCS
$LN1@ProcessSCS:

; 822  : 
; 823  : 	default:
; 824  : 						
; 825  : 		SCSReply[2] = Channel;

  00832	8a 45 f8	 mov	 al, BYTE PTR _Channel$[ebp]
  00835	a2 02 00 00 00	 mov	 BYTE PTR _SCSReply+2, al

; 826  : 		SCSReply[3] = 1;

  0083a	c6 05 03 00 00
	00 01		 mov	 BYTE PTR _SCSReply+3, 1

; 827  : 		SCSReply[4] = 0;

  00841	c6 05 04 00 00
	00 00		 mov	 BYTE PTR _SCSReply+4, 0

; 828  : 
; 829  : 		ReplyLen = 5;

  00848	c7 05 00 00 00
	00 05 00 00 00	 mov	 DWORD PTR _ReplyLen, 5

; 830  : 		EmCRCStuffAndSend(SCSReply, 5);

  00852	6a 05		 push	 5
  00854	68 00 00 00 00	 push	 OFFSET _SCSReply
  00859	e8 00 00 00 00	 call	 _EmCRCStuffAndSend
  0085e	83 c4 08	 add	 esp, 8
$LN29@ProcessSCS:

; 831  : 	}
; 832  : }

  00861	5f		 pop	 edi
  00862	5e		 pop	 esi
  00863	5b		 pop	 ebx
  00864	81 c4 14 01 00
	00		 add	 esp, 276		; 00000114H
  0086a	3b ec		 cmp	 ebp, esp
  0086c	e8 00 00 00 00	 call	 __RTC_CheckEsp
  00871	8b e5		 mov	 esp, ebp
  00873	5d		 pop	 ebp
  00874	c3		 ret	 0
  00875	8d 49 00	 npad	 3
$LN70@ProcessSCS:
  00878	00 00 00 00	 DD	 $LN2@ProcessSCS
  0087c	00 00 00 00	 DD	 $LN9@ProcessSCS
  00880	00 00 00 00	 DD	 $LN7@ProcessSCS
  00884	00 00 00 00	 DD	 $LN17@ProcessSCS
  00888	00 00 00 00	 DD	 $LN12@ProcessSCS
  0088c	00 00 00 00	 DD	 $LN26@ProcessSCS
  00890	00 00 00 00	 DD	 $LN28@ProcessSCS
  00894	00 00 00 00	 DD	 $LN27@ProcessSCS
  00898	00 00 00 00	 DD	 $LN1@ProcessSCS
$LN69@ProcessSCS:
  0089c	00		 DB	 0
  0089d	08		 DB	 8
  0089e	01		 DB	 1
  0089f	08		 DB	 8
  008a0	08		 DB	 8
  008a1	08		 DB	 8
  008a2	08		 DB	 8
  008a3	08		 DB	 8
  008a4	08		 DB	 8
  008a5	08		 DB	 8
  008a6	08		 DB	 8
  008a7	08		 DB	 8
  008a8	08		 DB	 8
  008a9	08		 DB	 8
  008aa	08		 DB	 8
  008ab	08		 DB	 8
  008ac	08		 DB	 8
  008ad	08		 DB	 8
  008ae	08		 DB	 8
  008af	08		 DB	 8
  008b0	08		 DB	 8
  008b1	08		 DB	 8
  008b2	08		 DB	 8
  008b3	08		 DB	 8
  008b4	08		 DB	 8
  008b5	08		 DB	 8
  008b6	08		 DB	 8
  008b7	08		 DB	 8
  008b8	08		 DB	 8
  008b9	02		 DB	 2
  008ba	08		 DB	 8
  008bb	08		 DB	 8
  008bc	03		 DB	 3
  008bd	04		 DB	 4
  008be	08		 DB	 8
  008bf	08		 DB	 8
  008c0	05		 DB	 5
  008c1	08		 DB	 8
  008c2	08		 DB	 8
  008c3	06		 DB	 6
  008c4	08		 DB	 8
  008c5	07		 DB	 7
_ProcessSCSHostFrame ENDP
_TEXT	ENDS
PUBLIC	??_C@_05OELEEGJB@?$ANXXXX?$AA@			; `string'
PUBLIC	??_C@_03IIGELFDF@MYL?$AA@			; `string'
PUBLIC	??_C@_0BP@CKPGFAOD@?$AN?6PTC?9II?5COMPATIBILITY?5MODE?3?50?$AA@ ; `string'
PUBLIC	??_C@_04OMCJHAID@PTCC?$AA@			; `string'
PUBLIC	??_C@_0CJ@LLJHPPIH@?$AN?6LICENSE?3?5010000141714CB53?5ABCD@ ; `string'
PUBLIC	??_C@_07LEJMGMMC@LICENSE?$AA@			; `string'
PUBLIC	??_C@_0CC@GMPMHBNC@?$AN?6Serial?5number?3?5010000000000000@ ; `string'
PUBLIC	??_C@_08NPGKANFC@SYS?5SERN?$AA@			; `string'
PUBLIC	??_C@_0O@LHPKONNH@?$ANMycall?3?5?$DO?$CFs?$DM?$AA@ ; `string'
PUBLIC	??_C@_03PPMKJPK@MYC?$AA@			; `string'
PUBLIC	??_C@_05CNOGGFJG@PAC?54?$AA@			; `string'
PUBLIC	??_C@_03HNNPMIAF@T?50?$AA@			; `string'
PUBLIC	??_C@_06ECFGNPKG@TERM?54?$AA@			; `string'
PUBLIC	??_C@_0BC@MEFMFOFD@ARDOP?5Native?5Mode?$AA@	; `string'
PUBLIC	??_C@_05BNOBEDPN@ARDOP?$AA@			; `string'
PUBLIC	??_C@_0BD@GKKENHJE@PTC?5Emulation?5Mode?$AA@	; `string'
PUBLIC	??_C@_04MGLLHAAE@?$AN?6OK?$AA@			; `string'
PUBLIC	??_C@_07EOCDMAHH@RESTART?$AA@			; `string'
PUBLIC	??_C@_0BD@PJLEBKPD@Entering?5Host?5Mode?$AA@	; `string'
PUBLIC	??_C@_06LCGHJIPI@JHOST4?$AA@			; `string'
PUBLIC	??_C@_0CK@IPNFMMG@?$AN?6PRMS?5Express?5sends?5next?5withou@ ; `string'
PUBLIC	??_C@_03LBIAKKDM@CB?5?$AA@			; `string'
PUBLIC	??_C@_0P@EGMOCKEC@SCS?5Command?5?$CFs?$AA@	; `string'
PUBLIC	__$ArrayPad$
PUBLIC	_ProcessSCSTextCommand
EXTRN	_PutChar:PROC
EXTRN	_ARQBandwidth:DWORD
EXTRN	_atoi:PROC
EXTRN	__strupr:PROC
EXTRN	_strchr:PROC
EXTRN	_GetNextARQFrame:PROC
EXTRN	_blnAbort:DWORD
EXTRN	__memicmp:PROC
EXTRN	_ARQState:DWORD
EXTRN	___security_cookie:DWORD
EXTRN	@__security_check_cookie@4:PROC
EXTRN	@_RTC_CheckStackVars@8:PROC
;	COMDAT ??_C@_05OELEEGJB@?$ANXXXX?$AA@
CONST	SEGMENT
??_C@_05OELEEGJB@?$ANXXXX?$AA@ DB 0dH, 'XXXX', 00H	; `string'
CONST	ENDS
;	COMDAT ??_C@_03IIGELFDF@MYL?$AA@
CONST	SEGMENT
??_C@_03IIGELFDF@MYL?$AA@ DB 'MYL', 00H			; `string'
CONST	ENDS
;	COMDAT ??_C@_0BP@CKPGFAOD@?$AN?6PTC?9II?5COMPATIBILITY?5MODE?3?50?$AA@
CONST	SEGMENT
??_C@_0BP@CKPGFAOD@?$AN?6PTC?9II?5COMPATIBILITY?5MODE?3?50?$AA@ DB 0dH, 0aH
	DB	'PTC-II COMPATIBILITY MODE: 0', 00H		; `string'
CONST	ENDS
;	COMDAT ??_C@_04OMCJHAID@PTCC?$AA@
CONST	SEGMENT
??_C@_04OMCJHAID@PTCC?$AA@ DB 'PTCC', 00H		; `string'
CONST	ENDS
;	COMDAT ??_C@_0CJ@LLJHPPIH@?$AN?6LICENSE?3?5010000141714CB53?5ABCD@
CONST	SEGMENT
??_C@_0CJ@LLJHPPIH@?$AN?6LICENSE?3?5010000141714CB53?5ABCD@ DB 0dH, 0aH, 'L'
	DB	'ICENSE: 010000141714CB53 ABCDEFGHIJKL', 00H	; `string'
CONST	ENDS
;	COMDAT ??_C@_07LEJMGMMC@LICENSE?$AA@
CONST	SEGMENT
??_C@_07LEJMGMMC@LICENSE?$AA@ DB 'LICENSE', 00H		; `string'
CONST	ENDS
;	COMDAT ??_C@_0CC@GMPMHBNC@?$AN?6Serial?5number?3?5010000000000000@
CONST	SEGMENT
??_C@_0CC@GMPMHBNC@?$AN?6Serial?5number?3?5010000000000000@ DB 0dH, 0aH, 'S'
	DB	'erial number: 0100000000000000', 00H	; `string'
CONST	ENDS
;	COMDAT ??_C@_08NPGKANFC@SYS?5SERN?$AA@
CONST	SEGMENT
??_C@_08NPGKANFC@SYS?5SERN?$AA@ DB 'SYS SERN', 00H	; `string'
CONST	ENDS
;	COMDAT ??_C@_0O@LHPKONNH@?$ANMycall?3?5?$DO?$CFs?$DM?$AA@
CONST	SEGMENT
??_C@_0O@LHPKONNH@?$ANMycall?3?5?$DO?$CFs?$DM?$AA@ DB 0dH, 'Mycall: >%s<', 00H ; `string'
CONST	ENDS
;	COMDAT ??_C@_03PPMKJPK@MYC?$AA@
CONST	SEGMENT
??_C@_03PPMKJPK@MYC?$AA@ DB 'MYC', 00H			; `string'
CONST	ENDS
;	COMDAT ??_C@_05CNOGGFJG@PAC?54?$AA@
CONST	SEGMENT
??_C@_05CNOGGFJG@PAC?54?$AA@ DB 'PAC 4', 00H		; `string'
CONST	ENDS
;	COMDAT ??_C@_03HNNPMIAF@T?50?$AA@
CONST	SEGMENT
??_C@_03HNNPMIAF@T?50?$AA@ DB 'T 0', 00H		; `string'
CONST	ENDS
;	COMDAT ??_C@_06ECFGNPKG@TERM?54?$AA@
CONST	SEGMENT
??_C@_06ECFGNPKG@TERM?54?$AA@ DB 'TERM 4', 00H		; `string'
CONST	ENDS
;	COMDAT ??_C@_0BC@MEFMFOFD@ARDOP?5Native?5Mode?$AA@
CONST	SEGMENT
??_C@_0BC@MEFMFOFD@ARDOP?5Native?5Mode?$AA@ DB 'ARDOP Native Mode', 00H ; `string'
CONST	ENDS
;	COMDAT ??_C@_05BNOBEDPN@ARDOP?$AA@
CONST	SEGMENT
??_C@_05BNOBEDPN@ARDOP?$AA@ DB 'ARDOP', 00H		; `string'
CONST	ENDS
;	COMDAT ??_C@_0BD@GKKENHJE@PTC?5Emulation?5Mode?$AA@
CONST	SEGMENT
??_C@_0BD@GKKENHJE@PTC?5Emulation?5Mode?$AA@ DB 'PTC Emulation Mode', 00H ; `string'
CONST	ENDS
;	COMDAT ??_C@_04MGLLHAAE@?$AN?6OK?$AA@
CONST	SEGMENT
??_C@_04MGLLHAAE@?$AN?6OK?$AA@ DB 0dH, 0aH, 'OK', 00H	; `string'
CONST	ENDS
;	COMDAT ??_C@_07EOCDMAHH@RESTART?$AA@
CONST	SEGMENT
??_C@_07EOCDMAHH@RESTART?$AA@ DB 'RESTART', 00H		; `string'
CONST	ENDS
;	COMDAT ??_C@_0BD@PJLEBKPD@Entering?5Host?5Mode?$AA@
CONST	SEGMENT
??_C@_0BD@PJLEBKPD@Entering?5Host?5Mode?$AA@ DB 'Entering Host Mode', 00H ; `string'
CONST	ENDS
;	COMDAT ??_C@_06LCGHJIPI@JHOST4?$AA@
CONST	SEGMENT
??_C@_06LCGHJIPI@JHOST4?$AA@ DB 'JHOST4', 00H		; `string'
CONST	ENDS
;	COMDAT ??_C@_0CK@IPNFMMG@?$AN?6PRMS?5Express?5sends?5next?5withou@
CONST	SEGMENT
??_C@_0CK@IPNFMMG@?$AN?6PRMS?5Express?5sends?5next?5withou@ DB 0dH, 0aH, 'P'
	DB	'RMS Express sends next without waiting', 00H ; `string'
CONST	ENDS
;	COMDAT ??_C@_03LBIAKKDM@CB?5?$AA@
CONST	SEGMENT
??_C@_03LBIAKKDM@CB?5?$AA@ DB 'CB ', 00H		; `string'
CONST	ENDS
;	COMDAT ??_C@_0P@EGMOCKEC@SCS?5Command?5?$CFs?$AA@
CONST	SEGMENT
??_C@_0P@EGMOCKEC@SCS?5Command?5?$CFs?$AA@ DB 'SCS Command %s', 00H ; `string'
; Function compile flags: /Odtp /RTCsu /ZI
CONST	ENDS
;	COMDAT _ProcessSCSTextCommand
_TEXT	SEGMENT
_level$5794 = -276					; size = 4
_ptr$5793 = -264					; size = 4
_Resp$5791 = -252					; size = 6
_SerialNo$5786 = -236					; size = 31
_SerialNo$5777 = -196					; size = 34
_MYResp$5771 = -152					; size = 80
_ptr$5770 = -64						; size = 4
_SerialNo$5743 = -52					; size = 42
__$ArrayPad$ = -4					; size = 4
_Command$ = 8						; size = 4
_Len$ = 12						; size = 4
_ProcessSCSTextCommand PROC				; COMDAT

; 836  : {

  00000	55		 push	 ebp
  00001	8b ec		 mov	 ebp, esp
  00003	81 ec d8 01 00
	00		 sub	 esp, 472		; 000001d8H
  00009	53		 push	 ebx
  0000a	56		 push	 esi
  0000b	57		 push	 edi
  0000c	8d bd 28 fe ff
	ff		 lea	 edi, DWORD PTR [ebp-472]
  00012	b9 76 00 00 00	 mov	 ecx, 118		; 00000076H
  00017	b8 cc cc cc cc	 mov	 eax, -858993460		; ccccccccH
  0001c	f3 ab		 rep stosd
  0001e	a1 00 00 00 00	 mov	 eax, DWORD PTR ___security_cookie
  00023	33 c5		 xor	 eax, ebp
  00025	89 45 fc	 mov	 DWORD PTR __$ArrayPad$[ebp], eax

; 837  : 	// Command to SCS in non-Host mode.
; 838  : 
; 839  : 	// if connected, queue for transmit
; 840  : 
; 841  : 	if (ProtocolState == DISC
; 842  : 		|| (ProtocolState == ISS && ARQState == ISSConReq))

  00028	83 3d 00 00 00
	00 01		 cmp	 DWORD PTR _ProtocolState, 1
  0002f	74 12		 je	 SHORT $LN38@ProcessSCS@2
  00031	83 3d 00 00 00
	00 02		 cmp	 DWORD PTR _ProtocolState, 2
  00038	75 0b		 jne	 SHORT $LN39@ProcessSCS@2
  0003a	83 3d 00 00 00
	00 01		 cmp	 DWORD PTR _ARQState, 1
  00041	75 02		 jne	 SHORT $LN39@ProcessSCS@2
$LN38@ProcessSCS@2:

; 843  : 	{
; 844  : 		// Command Mode
; 845  : 	}
; 846  : 	else

  00043	eb 15		 jmp	 SHORT $LN37@ProcessSCS@2
$LN39@ProcessSCS@2:

; 847  : 	{
; 848  : 		AddDataToDataToSend(Command, Len);

  00045	8b 45 0c	 mov	 eax, DWORD PTR _Len$[ebp]
  00048	50		 push	 eax
  00049	8b 4d 08	 mov	 ecx, DWORD PTR _Command$[ebp]
  0004c	51		 push	 ecx
  0004d	e8 00 00 00 00	 call	 _AddDataToDataToSend
  00052	83 c4 08	 add	 esp, 8

; 849  : 		return;

  00055	e9 b7 04 00 00	 jmp	 $LN40@ProcessSCS@2
$LN37@ProcessSCS@2:

; 850  : 	}
; 851  : 
; 852  : 	Command[Len - 1] = 0;		// Remove CR

  0005a	8b 45 08	 mov	 eax, DWORD PTR _Command$[ebp]
  0005d	03 45 0c	 add	 eax, DWORD PTR _Len$[ebp]
  00060	c6 40 ff 00	 mov	 BYTE PTR [eax-1], 0

; 853  : 
; 854  : 	WriteDebugLog(LOGDEBUG, "SCS Command %s", Command);

  00064	8b 45 08	 mov	 eax, DWORD PTR _Command$[ebp]
  00067	50		 push	 eax
  00068	68 00 00 00 00	 push	 OFFSET ??_C@_0P@EGMOCKEC@SCS?5Command?5?$CFs?$AA@
  0006d	6a 07		 push	 7
  0006f	e8 00 00 00 00	 call	 _WriteDebugLog
  00074	83 c4 0c	 add	 esp, 12			; 0000000cH

; 855  : 
; 856  : 	if (Len == 1)

  00077	83 7d 0c 01	 cmp	 DWORD PTR _Len$[ebp], 1
  0007b	75 05		 jne	 SHORT $LN36@ProcessSCS@2

; 857  : 		goto SendPrompt;		// Just a CR

  0007d	e9 a4 03 00 00	 jmp	 $SendPrompt$5740
$LN36@ProcessSCS@2:

; 858  : 
; 859  : 
; 860  : 	if (_memicmp(Command, "CB ", 3) == 0)

  00082	6a 03		 push	 3
  00084	68 00 00 00 00	 push	 OFFSET ??_C@_03LBIAKKDM@CB?5?$AA@
  00089	8b 45 08	 mov	 eax, DWORD PTR _Command$[ebp]
  0008c	50		 push	 eax
  0008d	e8 00 00 00 00	 call	 __memicmp
  00092	83 c4 0c	 add	 esp, 12			; 0000000cH
  00095	85 c0		 test	 eax, eax
  00097	75 16		 jne	 SHORT $LN35@ProcessSCS@2

; 861  : 	{
; 862  : 		char SerialNo[] = "\r\nPRMS Express sends next without waiting";

  00099	b9 0a 00 00 00	 mov	 ecx, 10			; 0000000aH
  0009e	be 00 00 00 00	 mov	 esi, OFFSET ??_C@_0CK@IPNFMMG@?$AN?6PRMS?5Express?5sends?5next?5withou@
  000a3	8d 7d cc	 lea	 edi, DWORD PTR _SerialNo$5743[ebp]
  000a6	f3 a5		 rep movsd
  000a8	66 a5		 movsw

; 863  : 	//	PutString(SerialNo);
; 864  : 		return;

  000aa	e9 62 04 00 00	 jmp	 $LN40@ProcessSCS@2
$LN35@ProcessSCS@2:

; 865  : 	}
; 866  : 
; 867  : 	if (_memicmp(Command, "JHOST4", 6) == 0)

  000af	6a 06		 push	 6
  000b1	68 00 00 00 00	 push	 OFFSET ??_C@_06LCGHJIPI@JHOST4?$AA@
  000b6	8b 45 08	 mov	 eax, DWORD PTR _Command$[ebp]
  000b9	50		 push	 eax
  000ba	e8 00 00 00 00	 call	 __memicmp
  000bf	83 c4 0c	 add	 esp, 12			; 0000000cH
  000c2	85 c0		 test	 eax, eax
  000c4	75 52		 jne	 SHORT $LN34@ProcessSCS@2

; 868  : 	{
; 869  : 		HostMode = TRUE;

  000c6	c7 05 00 00 00
	00 01 00 00 00	 mov	 DWORD PTR _HostMode, 1

; 870  : 		WriteDebugLog(LOGINFO, "Entering Host Mode");

  000d0	68 00 00 00 00	 push	 OFFSET ??_C@_0BD@PJLEBKPD@Entering?5Host?5Mode?$AA@
  000d5	6a 06		 push	 6
  000d7	e8 00 00 00 00	 call	 _WriteDebugLog
  000dc	83 c4 08	 add	 esp, 8

; 871  : 		Toggle = 0;

  000df	c7 05 00 00 00
	00 00 00 00 00	 mov	 DWORD PTR _Toggle, 0

; 872  : 		blnAbort = True;

  000e9	c7 05 00 00 00
	00 01 00 00 00	 mov	 DWORD PTR _blnAbort, 1

; 873  : 
; 874  : 		if (ProtocolState == IDLE || ProtocolState == IRS || ProtocolState == IRStoISS)

  000f3	83 3d 00 00 00
	00 04		 cmp	 DWORD PTR _ProtocolState, 4
  000fa	74 12		 je	 SHORT $LN32@ProcessSCS@2
  000fc	83 3d 00 00 00
	00 03		 cmp	 DWORD PTR _ProtocolState, 3
  00103	74 09		 je	 SHORT $LN32@ProcessSCS@2
  00105	83 3d 00 00 00
	00 05		 cmp	 DWORD PTR _ProtocolState, 5
  0010c	75 05		 jne	 SHORT $LN33@ProcessSCS@2
$LN32@ProcessSCS@2:

; 875  : 			GetNextARQFrame();

  0010e	e8 00 00 00 00	 call	 _GetNextARQFrame
$LN33@ProcessSCS@2:

; 876  : 	
; 877  : 		return;

  00113	e9 f9 03 00 00	 jmp	 $LN40@ProcessSCS@2
$LN34@ProcessSCS@2:

; 878  : 	}
; 879  : 
; 880  : 	if (_memicmp(Command, "RESTART", 7) == 0)

  00118	6a 07		 push	 7
  0011a	68 00 00 00 00	 push	 OFFSET ??_C@_07EOCDMAHH@RESTART?$AA@
  0011f	8b 45 08	 mov	 eax, DWORD PTR _Command$[ebp]
  00122	50		 push	 eax
  00123	e8 00 00 00 00	 call	 __memicmp
  00128	83 c4 0c	 add	 esp, 12			; 0000000cH
  0012b	85 c0		 test	 eax, eax
  0012d	75 26		 jne	 SHORT $LN31@ProcessSCS@2

; 881  : 	{
; 882  : 		PutString("\r\nOK");

  0012f	68 00 00 00 00	 push	 OFFSET ??_C@_04MGLLHAAE@?$AN?6OK?$AA@
  00134	e8 00 00 00 00	 call	 _PutString
  00139	83 c4 04	 add	 esp, 4

; 883  : 		PTCMode = TRUE;

  0013c	c7 05 00 00 00
	00 01 00 00 00	 mov	 DWORD PTR _PTCMode, 1

; 884  : 		WriteDebugLog(LOGINFO, "PTC Emulation Mode");

  00146	68 00 00 00 00	 push	 OFFSET ??_C@_0BD@GKKENHJE@PTC?5Emulation?5Mode?$AA@
  0014b	6a 06		 push	 6
  0014d	e8 00 00 00 00	 call	 _WriteDebugLog
  00152	83 c4 08	 add	 esp, 8
$LN31@ProcessSCS@2:

; 885  : 	}
; 886  : 
; 887  : 	if (_memicmp(Command, "ARDOP", 5) == 0)

  00155	6a 05		 push	 5
  00157	68 00 00 00 00	 push	 OFFSET ??_C@_05BNOBEDPN@ARDOP?$AA@
  0015c	8b 45 08	 mov	 eax, DWORD PTR _Command$[ebp]
  0015f	50		 push	 eax
  00160	e8 00 00 00 00	 call	 __memicmp
  00165	83 c4 0c	 add	 esp, 12			; 0000000cH
  00168	85 c0		 test	 eax, eax
  0016a	75 2b		 jne	 SHORT $LN30@ProcessSCS@2

; 888  : 	{
; 889  : 		PutString("\r\nOK");

  0016c	68 00 00 00 00	 push	 OFFSET ??_C@_04MGLLHAAE@?$AN?6OK?$AA@
  00171	e8 00 00 00 00	 call	 _PutString
  00176	83 c4 04	 add	 esp, 4

; 890  : 		PTCMode = FALSE;

  00179	c7 05 00 00 00
	00 00 00 00 00	 mov	 DWORD PTR _PTCMode, 0

; 891  : 		WriteDebugLog(LOGINFO, "ARDOP Native Mode");

  00183	68 00 00 00 00	 push	 OFFSET ??_C@_0BC@MEFMFOFD@ARDOP?5Native?5Mode?$AA@
  00188	6a 06		 push	 6
  0018a	e8 00 00 00 00	 call	 _WriteDebugLog
  0018f	83 c4 08	 add	 esp, 8
  00192	e9 8f 02 00 00	 jmp	 $SendPrompt$5740
$LN30@ProcessSCS@2:

; 892  : 	}
; 893  : 
; 894  : 	else if (_memicmp(Command, "TERM 4", 6) == 0)

  00197	6a 06		 push	 6
  00199	68 00 00 00 00	 push	 OFFSET ??_C@_06ECFGNPKG@TERM?54?$AA@
  0019e	8b 45 08	 mov	 eax, DWORD PTR _Command$[ebp]
  001a1	50		 push	 eax
  001a2	e8 00 00 00 00	 call	 __memicmp
  001a7	83 c4 0c	 add	 esp, 12			; 0000000cH
  001aa	85 c0		 test	 eax, eax
  001ac	75 0f		 jne	 SHORT $LN28@ProcessSCS@2

; 895  : 		Term4Mode = TRUE;

  001ae	c7 05 00 00 00
	00 01 00 00 00	 mov	 DWORD PTR _Term4Mode, 1
  001b8	e9 69 02 00 00	 jmp	 $SendPrompt$5740
$LN28@ProcessSCS@2:

; 896  : 
; 897  : 	else if (_memicmp(Command, "T 0", 3) == 0)

  001bd	6a 03		 push	 3
  001bf	68 00 00 00 00	 push	 OFFSET ??_C@_03HNNPMIAF@T?50?$AA@
  001c4	8b 45 08	 mov	 eax, DWORD PTR _Command$[ebp]
  001c7	50		 push	 eax
  001c8	e8 00 00 00 00	 call	 __memicmp
  001cd	83 c4 0c	 add	 esp, 12			; 0000000cH
  001d0	85 c0		 test	 eax, eax
  001d2	75 0f		 jne	 SHORT $LN26@ProcessSCS@2

; 898  : 		Term4Mode = FALSE;

  001d4	c7 05 00 00 00
	00 00 00 00 00	 mov	 DWORD PTR _Term4Mode, 0
  001de	e9 43 02 00 00	 jmp	 $SendPrompt$5740
$LN26@ProcessSCS@2:

; 899  : 
; 900  : 	else if (_memicmp(Command, "PAC 4", 5) == 0)

  001e3	6a 05		 push	 5
  001e5	68 00 00 00 00	 push	 OFFSET ??_C@_05CNOGGFJG@PAC?54?$AA@
  001ea	8b 45 08	 mov	 eax, DWORD PTR _Command$[ebp]
  001ed	50		 push	 eax
  001ee	e8 00 00 00 00	 call	 __memicmp
  001f3	83 c4 0c	 add	 esp, 12			; 0000000cH
  001f6	85 c0		 test	 eax, eax
  001f8	75 0f		 jne	 SHORT $LN24@ProcessSCS@2

; 901  : 		PACMode = TRUE;

  001fa	c7 05 00 00 00
	00 01 00 00 00	 mov	 DWORD PTR _PACMode, 1
  00204	e9 1d 02 00 00	 jmp	 $SendPrompt$5740
$LN24@ProcessSCS@2:

; 902  : 
; 903  : 	else if (_memicmp(Command, "MYC", 3) == 0)

  00209	6a 03		 push	 3
  0020b	68 00 00 00 00	 push	 OFFSET ??_C@_03PPMKJPK@MYC?$AA@
  00210	8b 45 08	 mov	 eax, DWORD PTR _Command$[ebp]
  00213	50		 push	 eax
  00214	e8 00 00 00 00	 call	 __memicmp
  00219	83 c4 0c	 add	 esp, 12			; 0000000cH
  0021c	85 c0		 test	 eax, eax
  0021e	0f 85 85 00 00
	00		 jne	 $LN22@ProcessSCS@2

; 904  : 	{
; 905  : 		char * ptr = strchr(Command, ' ');

  00224	6a 20		 push	 32			; 00000020H
  00226	8b 45 08	 mov	 eax, DWORD PTR _Command$[ebp]
  00229	50		 push	 eax
  0022a	e8 00 00 00 00	 call	 _strchr
  0022f	83 c4 08	 add	 esp, 8
  00232	89 45 c0	 mov	 DWORD PTR _ptr$5770[ebp], eax

; 906  : 		char MYResp[80];
; 907  : 	
; 908  : 		Command[Len-1] = 0;		// Remove CR

  00235	8b 45 08	 mov	 eax, DWORD PTR _Command$[ebp]
  00238	03 45 0c	 add	 eax, DWORD PTR _Len$[ebp]
  0023b	c6 40 ff 00	 mov	 BYTE PTR [eax-1], 0

; 909  : 		
; 910  : 		if (ptr && (strlen(ptr) > 2))

  0023f	83 7d c0 00	 cmp	 DWORD PTR _ptr$5770[ebp], 0
  00243	74 37		 je	 SHORT $LN21@ProcessSCS@2
  00245	8b 45 c0	 mov	 eax, DWORD PTR _ptr$5770[ebp]
  00248	50		 push	 eax
  00249	e8 00 00 00 00	 call	 _strlen
  0024e	83 c4 04	 add	 esp, 4
  00251	83 f8 02	 cmp	 eax, 2
  00254	76 26		 jbe	 SHORT $LN21@ProcessSCS@2

; 911  : 		{
; 912  : 			_strupr(ptr);

  00256	8b 45 c0	 mov	 eax, DWORD PTR _ptr$5770[ebp]
  00259	50		 push	 eax
  0025a	e8 00 00 00 00	 call	 __strupr
  0025f	83 c4 04	 add	 esp, 4

; 913  : 			strcpy(Callsign, ++ptr); 

  00262	8b 45 c0	 mov	 eax, DWORD PTR _ptr$5770[ebp]
  00265	83 c0 01	 add	 eax, 1
  00268	89 45 c0	 mov	 DWORD PTR _ptr$5770[ebp], eax
  0026b	8b 4d c0	 mov	 ecx, DWORD PTR _ptr$5770[ebp]
  0026e	51		 push	 ecx
  0026f	68 00 00 00 00	 push	 OFFSET _Callsign
  00274	e8 00 00 00 00	 call	 _strcpy
  00279	83 c4 08	 add	 esp, 8
$LN21@ProcessSCS@2:

; 914  : 		}
; 915  : 
; 916  : 		sprintf(MYResp, "\rMycall: >%s<", Callsign);

  0027c	68 00 00 00 00	 push	 OFFSET _Callsign
  00281	68 00 00 00 00	 push	 OFFSET ??_C@_0O@LHPKONNH@?$ANMycall?3?5?$DO?$CFs?$DM?$AA@
  00286	8d 85 68 ff ff
	ff		 lea	 eax, DWORD PTR _MYResp$5771[ebp]
  0028c	50		 push	 eax
  0028d	e8 00 00 00 00	 call	 _sprintf
  00292	83 c4 0c	 add	 esp, 12			; 0000000cH

; 917  : 		PutString(MYResp);

  00295	8d 85 68 ff ff
	ff		 lea	 eax, DWORD PTR _MYResp$5771[ebp]
  0029b	50		 push	 eax
  0029c	e8 00 00 00 00	 call	 _PutString
  002a1	83 c4 04	 add	 esp, 4
  002a4	e9 7d 01 00 00	 jmp	 $SendPrompt$5740
$LN22@ProcessSCS@2:

; 918  : 	}
; 919  : 
; 920  : 	else if (_memicmp(Command, "SYS SERN", 8) == 0)

  002a9	6a 08		 push	 8
  002ab	68 00 00 00 00	 push	 OFFSET ??_C@_08NPGKANFC@SYS?5SERN?$AA@
  002b0	8b 45 08	 mov	 eax, DWORD PTR _Command$[ebp]
  002b3	50		 push	 eax
  002b4	e8 00 00 00 00	 call	 __memicmp
  002b9	83 c4 0c	 add	 esp, 12			; 0000000cH
  002bc	85 c0		 test	 eax, eax
  002be	75 28		 jne	 SHORT $LN19@ProcessSCS@2

; 921  : 	{
; 922  : 		char SerialNo[] = "\r\nSerial number: 0100000000000000";

  002c0	b9 08 00 00 00	 mov	 ecx, 8
  002c5	be 00 00 00 00	 mov	 esi, OFFSET ??_C@_0CC@GMPMHBNC@?$AN?6Serial?5number?3?5010000000000000@
  002ca	8d bd 3c ff ff
	ff		 lea	 edi, DWORD PTR _SerialNo$5777[ebp]
  002d0	f3 a5		 rep movsd
  002d2	66 a5		 movsw

; 923  : 		PutString(SerialNo);

  002d4	8d 85 3c ff ff
	ff		 lea	 eax, DWORD PTR _SerialNo$5777[ebp]
  002da	50		 push	 eax
  002db	e8 00 00 00 00	 call	 _PutString
  002e0	83 c4 04	 add	 esp, 4
  002e3	e9 3e 01 00 00	 jmp	 $SendPrompt$5740
$LN19@ProcessSCS@2:

; 924  : 	}
; 925  : 
; 926  : 	else if (_memicmp(Command, "LICENSE", 8) == 0)

  002e8	6a 08		 push	 8
  002ea	68 00 00 00 00	 push	 OFFSET ??_C@_07LEJMGMMC@LICENSE?$AA@
  002ef	8b 45 08	 mov	 eax, DWORD PTR _Command$[ebp]
  002f2	50		 push	 eax
  002f3	e8 00 00 00 00	 call	 __memicmp
  002f8	83 c4 0c	 add	 esp, 12			; 0000000cH
  002fb	85 c0		 test	 eax, eax
  002fd	75 12		 jne	 SHORT $LN17@ProcessSCS@2

; 927  : 	{
; 928  : 		PutString("\r\nLICENSE: 010000141714CB53 ABCDEFGHIJKL");

  002ff	68 00 00 00 00	 push	 OFFSET ??_C@_0CJ@LLJHPPIH@?$AN?6LICENSE?3?5010000141714CB53?5ABCD@
  00304	e8 00 00 00 00	 call	 _PutString
  00309	83 c4 04	 add	 esp, 4
  0030c	e9 15 01 00 00	 jmp	 $SendPrompt$5740
$LN17@ProcessSCS@2:

; 929  : 	}
; 930  : 
; 931  : 	else if (_memicmp(Command, "PTCC", 4) == 0)

  00311	6a 04		 push	 4
  00313	68 00 00 00 00	 push	 OFFSET ??_C@_04OMCJHAID@PTCC?$AA@
  00318	8b 45 08	 mov	 eax, DWORD PTR _Command$[ebp]
  0031b	50		 push	 eax
  0031c	e8 00 00 00 00	 call	 __memicmp
  00321	83 c4 0c	 add	 esp, 12			; 0000000cH
  00324	85 c0		 test	 eax, eax
  00326	75 29		 jne	 SHORT $LN15@ProcessSCS@2

; 932  : 	{
; 933  : 		char SerialNo[] = "\r\nPTC-II COMPATIBILITY MODE: 0";

  00328	b9 07 00 00 00	 mov	 ecx, 7
  0032d	be 00 00 00 00	 mov	 esi, OFFSET ??_C@_0BP@CKPGFAOD@?$AN?6PTC?9II?5COMPATIBILITY?5MODE?3?50?$AA@
  00332	8d bd 14 ff ff
	ff		 lea	 edi, DWORD PTR _SerialNo$5786[ebp]
  00338	f3 a5		 rep movsd
  0033a	66 a5		 movsw
  0033c	a4		 movsb

; 934  : 		PutString(SerialNo);

  0033d	8d 85 14 ff ff
	ff		 lea	 eax, DWORD PTR _SerialNo$5786[ebp]
  00343	50		 push	 eax
  00344	e8 00 00 00 00	 call	 _PutString
  00349	83 c4 04	 add	 esp, 4
  0034c	e9 d5 00 00 00	 jmp	 $SendPrompt$5740
$LN15@ProcessSCS@2:

; 935  : 	}
; 936  : 
; 937  : 	else if (_memicmp(Command, "MYL", 3) == 0)

  00351	6a 03		 push	 3
  00353	68 00 00 00 00	 push	 OFFSET ??_C@_03IIGELFDF@MYL?$AA@
  00358	8b 45 08	 mov	 eax, DWORD PTR _Command$[ebp]
  0035b	50		 push	 eax
  0035c	e8 00 00 00 00	 call	 __memicmp
  00361	83 c4 0c	 add	 esp, 12			; 0000000cH
  00364	85 c0		 test	 eax, eax
  00366	0f 85 ae 00 00
	00		 jne	 $LN13@ProcessSCS@2

; 938  : 	{
; 939  : 		char Resp[] = "\rXXXX";

  0036c	a1 00 00 00 00	 mov	 eax, DWORD PTR ??_C@_05OELEEGJB@?$ANXXXX?$AA@
  00371	89 85 04 ff ff
	ff		 mov	 DWORD PTR _Resp$5791[ebp], eax
  00377	66 8b 0d 04 00
	00 00		 mov	 cx, WORD PTR ??_C@_05OELEEGJB@?$ANXXXX?$AA@+4
  0037e	66 89 8d 08 ff
	ff ff		 mov	 WORD PTR _Resp$5791[ebp+4], cx

; 940  : 		char * ptr = strchr(Command, ' ');

  00385	6a 20		 push	 32			; 00000020H
  00387	8b 45 08	 mov	 eax, DWORD PTR _Command$[ebp]
  0038a	50		 push	 eax
  0038b	e8 00 00 00 00	 call	 _strchr
  00390	83 c4 08	 add	 esp, 8
  00393	89 85 f8 fe ff
	ff		 mov	 DWORD PTR _ptr$5793[ebp], eax

; 941  : 		int level;
; 942  : 		
; 943  : 		if (ptr)

  00399	83 bd f8 fe ff
	ff 00		 cmp	 DWORD PTR _ptr$5793[ebp], 0
  003a0	74 15		 je	 SHORT $LN12@ProcessSCS@2

; 944  : 			level = atoi(ptr);

  003a2	8b 85 f8 fe ff
	ff		 mov	 eax, DWORD PTR _ptr$5793[ebp]
  003a8	50		 push	 eax
  003a9	e8 00 00 00 00	 call	 _atoi
  003ae	83 c4 04	 add	 esp, 4
  003b1	89 85 ec fe ff
	ff		 mov	 DWORD PTR _level$5794[ebp], eax
$LN12@ProcessSCS@2:

; 945  : 		
; 946  : 		if (level == 1)

  003b7	83 bd ec fe ff
	ff 01		 cmp	 DWORD PTR _level$5794[ebp], 1
  003be	75 0c		 jne	 SHORT $LN11@ProcessSCS@2

; 947  : 			ARQBandwidth = B200MAX;

  003c0	c7 05 00 00 00
	00 04 00 00 00	 mov	 DWORD PTR _ARQBandwidth, 4
  003ca	eb 3d		 jmp	 SHORT $LN10@ProcessSCS@2
$LN11@ProcessSCS@2:

; 948  : 		else if (level == 2)

  003cc	83 bd ec fe ff
	ff 02		 cmp	 DWORD PTR _level$5794[ebp], 2
  003d3	75 0c		 jne	 SHORT $LN9@ProcessSCS@2

; 949  : 			ARQBandwidth = B500MAX;

  003d5	c7 05 00 00 00
	00 05 00 00 00	 mov	 DWORD PTR _ARQBandwidth, 5
  003df	eb 28		 jmp	 SHORT $LN10@ProcessSCS@2
$LN9@ProcessSCS@2:

; 950  : 		else if (level == 3)

  003e1	83 bd ec fe ff
	ff 03		 cmp	 DWORD PTR _level$5794[ebp], 3
  003e8	75 0c		 jne	 SHORT $LN7@ProcessSCS@2

; 951  : 			ARQBandwidth = B1000MAX;

  003ea	c7 05 00 00 00
	00 06 00 00 00	 mov	 DWORD PTR _ARQBandwidth, 6
  003f4	eb 13		 jmp	 SHORT $LN10@ProcessSCS@2
$LN7@ProcessSCS@2:

; 952  : 		else if (level == 4)

  003f6	83 bd ec fe ff
	ff 04		 cmp	 DWORD PTR _level$5794[ebp], 4
  003fd	75 0a		 jne	 SHORT $LN10@ProcessSCS@2

; 953  : 			ARQBandwidth = B2000MAX;

  003ff	c7 05 00 00 00
	00 07 00 00 00	 mov	 DWORD PTR _ARQBandwidth, 7
$LN10@ProcessSCS@2:

; 954  : 
; 955  : 		PutString(Resp);

  00409	8d 85 04 ff ff
	ff		 lea	 eax, DWORD PTR _Resp$5791[ebp]
  0040f	50		 push	 eax
  00410	e8 00 00 00 00	 call	 _PutString
  00415	83 c4 04	 add	 esp, 4

; 956  : 	}
; 957  : 	else 

  00418	eb 0c		 jmp	 SHORT $SendPrompt$5740
$LN13@ProcessSCS@2:

; 958  : 	{
; 959  : 		// Process as an ARDOP Command
; 960  : 
; 961  : 		ProcessCommandFromHost(Command);

  0041a	8b 45 08	 mov	 eax, DWORD PTR _Command$[ebp]
  0041d	50		 push	 eax
  0041e	e8 00 00 00 00	 call	 _ProcessCommandFromHost
  00423	83 c4 04	 add	 esp, 4
$SendPrompt$5740:

; 962  : //
; 963  : //		char SerialNo[] = "\rXXXX";
; 964  : //		PutString(SerialNo);
; 965  : 	}
; 966  : 
; 967  : SendPrompt:	
; 968  : 	
; 969  : 	if (PACMode)

  00426	83 3d 00 00 00
	00 00		 cmp	 DWORD PTR _PACMode, 0
  0042d	74 41		 je	 SHORT $LN3@ProcessSCS@2

; 970  : 	{
; 971  : 		PutChar( 13);

  0042f	6a 0d		 push	 13			; 0000000dH
  00431	e8 00 00 00 00	 call	 _PutChar
  00436	83 c4 04	 add	 esp, 4

; 972  : 		PutChar( 'p');

  00439	6a 70		 push	 112			; 00000070H
  0043b	e8 00 00 00 00	 call	 _PutChar
  00440	83 c4 04	 add	 esp, 4

; 973  : 		PutChar( 'a');

  00443	6a 61		 push	 97			; 00000061H
  00445	e8 00 00 00 00	 call	 _PutChar
  0044a	83 c4 04	 add	 esp, 4

; 974  : 		PutChar( 'c');

  0044d	6a 63		 push	 99			; 00000063H
  0044f	e8 00 00 00 00	 call	 _PutChar
  00454	83 c4 04	 add	 esp, 4

; 975  : 		PutChar( ':');

  00457	6a 3a		 push	 58			; 0000003aH
  00459	e8 00 00 00 00	 call	 _PutChar
  0045e	83 c4 04	 add	 esp, 4

; 976  : 		PutChar( ' ');

  00461	6a 20		 push	 32			; 00000020H
  00463	e8 00 00 00 00	 call	 _PutChar
  00468	83 c4 04	 add	 esp, 4

; 977  : 
; 978  : 		return;

  0046b	e9 a1 00 00 00	 jmp	 $LN40@ProcessSCS@2
$LN3@ProcessSCS@2:

; 979  : 	}
; 980  : 
; 981  : 	if (Term4Mode)

  00470	83 3d 00 00 00
	00 00		 cmp	 DWORD PTR _Term4Mode, 0
  00477	74 5c		 je	 SHORT $LN2@ProcessSCS@2

; 982  : 	{
; 983  : 		PutChar( 13);

  00479	6a 0d		 push	 13			; 0000000dH
  0047b	e8 00 00 00 00	 call	 _PutChar
  00480	83 c4 04	 add	 esp, 4

; 984  : 		PutChar( 4);

  00483	6a 04		 push	 4
  00485	e8 00 00 00 00	 call	 _PutChar
  0048a	83 c4 04	 add	 esp, 4

; 985  : 		PutChar( 13);

  0048d	6a 0d		 push	 13			; 0000000dH
  0048f	e8 00 00 00 00	 call	 _PutChar
  00494	83 c4 04	 add	 esp, 4

; 986  : 		PutChar( 'c');

  00497	6a 63		 push	 99			; 00000063H
  00499	e8 00 00 00 00	 call	 _PutChar
  0049e	83 c4 04	 add	 esp, 4

; 987  : 		PutChar( 'm');

  004a1	6a 6d		 push	 109			; 0000006dH
  004a3	e8 00 00 00 00	 call	 _PutChar
  004a8	83 c4 04	 add	 esp, 4

; 988  : 		PutChar( 'd');

  004ab	6a 64		 push	 100			; 00000064H
  004ad	e8 00 00 00 00	 call	 _PutChar
  004b2	83 c4 04	 add	 esp, 4

; 989  : 		PutChar( ':');

  004b5	6a 3a		 push	 58			; 0000003aH
  004b7	e8 00 00 00 00	 call	 _PutChar
  004bc	83 c4 04	 add	 esp, 4

; 990  : 		PutChar( ' ');

  004bf	6a 20		 push	 32			; 00000020H
  004c1	e8 00 00 00 00	 call	 _PutChar
  004c6	83 c4 04	 add	 esp, 4

; 991  : 		PutChar( 1);

  004c9	6a 01		 push	 1
  004cb	e8 00 00 00 00	 call	 _PutChar
  004d0	83 c4 04	 add	 esp, 4

; 992  : 	}
; 993  : 	else

  004d3	eb 3c		 jmp	 SHORT $LN40@ProcessSCS@2
$LN2@ProcessSCS@2:

; 994  : 	{
; 995  : 		PutChar( 13);

  004d5	6a 0d		 push	 13			; 0000000dH
  004d7	e8 00 00 00 00	 call	 _PutChar
  004dc	83 c4 04	 add	 esp, 4

; 996  : 		PutChar( 'c');

  004df	6a 63		 push	 99			; 00000063H
  004e1	e8 00 00 00 00	 call	 _PutChar
  004e6	83 c4 04	 add	 esp, 4

; 997  : 		PutChar( 'm');

  004e9	6a 6d		 push	 109			; 0000006dH
  004eb	e8 00 00 00 00	 call	 _PutChar
  004f0	83 c4 04	 add	 esp, 4

; 998  : 		PutChar( 'd');

  004f3	6a 64		 push	 100			; 00000064H
  004f5	e8 00 00 00 00	 call	 _PutChar
  004fa	83 c4 04	 add	 esp, 4

; 999  : 		PutChar( ':');

  004fd	6a 3a		 push	 58			; 0000003aH
  004ff	e8 00 00 00 00	 call	 _PutChar
  00504	83 c4 04	 add	 esp, 4

; 1000 : 		PutChar( ' ');

  00507	6a 20		 push	 32			; 00000020H
  00509	e8 00 00 00 00	 call	 _PutChar
  0050e	83 c4 04	 add	 esp, 4
$LN40@ProcessSCS@2:

; 1001 : 	}
; 1002 : 
; 1003 : 
; 1004 : /*
; 1005 : 	if (Term4Mode)
; 1006 : 		PutChar( 4);
; 1007 : 
; 1008 : 	PutChar( 13);
; 1009 : 	PutChar( 'c');
; 1010 : 	PutChar( 'm');
; 1011 : 	PutChar( 'd');
; 1012 : 	PutChar( ':');
; 1013 : 	PutChar( ' ');
; 1014 : */	
; 1015 : 	return;
; 1016 : }

  00511	52		 push	 edx
  00512	8b cd		 mov	 ecx, ebp
  00514	50		 push	 eax
  00515	8d 15 00 00 00
	00		 lea	 edx, DWORD PTR $LN48@ProcessSCS@2
  0051b	e8 00 00 00 00	 call	 @_RTC_CheckStackVars@8
  00520	58		 pop	 eax
  00521	5a		 pop	 edx
  00522	5f		 pop	 edi
  00523	5e		 pop	 esi
  00524	5b		 pop	 ebx
  00525	8b 4d fc	 mov	 ecx, DWORD PTR __$ArrayPad$[ebp]
  00528	33 cd		 xor	 ecx, ebp
  0052a	e8 00 00 00 00	 call	 @__security_check_cookie@4
  0052f	81 c4 d8 01 00
	00		 add	 esp, 472		; 000001d8H
  00535	3b ec		 cmp	 ebp, esp
  00537	e8 00 00 00 00	 call	 __RTC_CheckEsp
  0053c	8b e5		 mov	 esp, ebp
  0053e	5d		 pop	 ebp
  0053f	c3		 ret	 0
$LN48@ProcessSCS@2:
  00540	05 00 00 00	 DD	 5
  00544	00 00 00 00	 DD	 $LN47@ProcessSCS@2
$LN47@ProcessSCS@2:
  00548	cc ff ff ff	 DD	 -52			; ffffffccH
  0054c	2a 00 00 00	 DD	 42			; 0000002aH
  00550	00 00 00 00	 DD	 $LN42@ProcessSCS@2
  00554	68 ff ff ff	 DD	 -152			; ffffff68H
  00558	50 00 00 00	 DD	 80			; 00000050H
  0055c	00 00 00 00	 DD	 $LN43@ProcessSCS@2
  00560	3c ff ff ff	 DD	 -196			; ffffff3cH
  00564	22 00 00 00	 DD	 34			; 00000022H
  00568	00 00 00 00	 DD	 $LN44@ProcessSCS@2
  0056c	14 ff ff ff	 DD	 -236			; ffffff14H
  00570	1f 00 00 00	 DD	 31			; 0000001fH
  00574	00 00 00 00	 DD	 $LN45@ProcessSCS@2
  00578	04 ff ff ff	 DD	 -252			; ffffff04H
  0057c	06 00 00 00	 DD	 6
  00580	00 00 00 00	 DD	 $LN46@ProcessSCS@2
$LN46@ProcessSCS@2:
  00584	52		 DB	 82			; 00000052H
  00585	65		 DB	 101			; 00000065H
  00586	73		 DB	 115			; 00000073H
  00587	70		 DB	 112			; 00000070H
  00588	00		 DB	 0
$LN45@ProcessSCS@2:
  00589	53		 DB	 83			; 00000053H
  0058a	65		 DB	 101			; 00000065H
  0058b	72		 DB	 114			; 00000072H
  0058c	69		 DB	 105			; 00000069H
  0058d	61		 DB	 97			; 00000061H
  0058e	6c		 DB	 108			; 0000006cH
  0058f	4e		 DB	 78			; 0000004eH
  00590	6f		 DB	 111			; 0000006fH
  00591	00		 DB	 0
$LN44@ProcessSCS@2:
  00592	53		 DB	 83			; 00000053H
  00593	65		 DB	 101			; 00000065H
  00594	72		 DB	 114			; 00000072H
  00595	69		 DB	 105			; 00000069H
  00596	61		 DB	 97			; 00000061H
  00597	6c		 DB	 108			; 0000006cH
  00598	4e		 DB	 78			; 0000004eH
  00599	6f		 DB	 111			; 0000006fH
  0059a	00		 DB	 0
$LN43@ProcessSCS@2:
  0059b	4d		 DB	 77			; 0000004dH
  0059c	59		 DB	 89			; 00000059H
  0059d	52		 DB	 82			; 00000052H
  0059e	65		 DB	 101			; 00000065H
  0059f	73		 DB	 115			; 00000073H
  005a0	70		 DB	 112			; 00000070H
  005a1	00		 DB	 0
$LN42@ProcessSCS@2:
  005a2	53		 DB	 83			; 00000053H
  005a3	65		 DB	 101			; 00000065H
  005a4	72		 DB	 114			; 00000072H
  005a5	69		 DB	 105			; 00000069H
  005a6	61		 DB	 97			; 00000061H
  005a7	6c		 DB	 108			; 0000006cH
  005a8	4e		 DB	 78			; 0000004eH
  005a9	6f		 DB	 111			; 0000006fH
  005aa	00		 DB	 0
_ProcessSCSTextCommand ENDP
_TEXT	ENDS
PUBLIC	??_C@_0BH@HIICFMDJ@cancelling?5input?5?$CFd?5?$CFd?$AA@ ; `string'
PUBLIC	??_C@_00CNPNBAHC@?$AA@				; `string'
PUBLIC	__$ArrayPad$
PUBLIC	_ProcessSCSPacket
EXTRN	_compute_crc:PROC
EXTRN	_memset:PROC
;	COMDAT ??_C@_0BH@HIICFMDJ@cancelling?5input?5?$CFd?5?$CFd?$AA@
CONST	SEGMENT
??_C@_0BH@HIICFMDJ@cancelling?5input?5?$CFd?5?$CFd?$AA@ DB 'cancelling in'
	DB	'put %d %d', 00H				; `string'
CONST	ENDS
;	COMDAT ??_C@_00CNPNBAHC@?$AA@
CONST	SEGMENT
??_C@_00CNPNBAHC@?$AA@ DB 00H				; `string'
; Function compile flags: /Odtp /RTCsu /ZI
CONST	ENDS
;	COMDAT _ProcessSCSPacket
_TEXT	SEGMENT
_cmdlen$5818 = -544					; size = 4
_ptr$5817 = -532					; size = 4
_UnstuffBuffer$ = -520					; size = 500
_crc$ = -12						; size = 2
__$ArrayPad$ = -4					; size = 4
_rxbuffer$ = 8						; size = 4
_Length$ = 12						; size = 4
_ProcessSCSPacket PROC					; COMDAT

; 1020 : {

  00000	55		 push	 ebp
  00001	8b ec		 mov	 ebp, esp
  00003	81 ec e4 02 00
	00		 sub	 esp, 740		; 000002e4H
  00009	53		 push	 ebx
  0000a	56		 push	 esi
  0000b	57		 push	 edi
  0000c	8d bd 1c fd ff
	ff		 lea	 edi, DWORD PTR [ebp-740]
  00012	b9 b9 00 00 00	 mov	 ecx, 185		; 000000b9H
  00017	b8 cc cc cc cc	 mov	 eax, -858993460		; ccccccccH
  0001c	f3 ab		 rep stosd
  0001e	a1 00 00 00 00	 mov	 eax, DWORD PTR ___security_cookie
  00023	33 c5		 xor	 eax, ebp
  00025	89 45 fc	 mov	 DWORD PTR __$ArrayPad$[ebp], eax

; 1021 : 	unsigned short crc;
; 1022 : 	char UnstuffBuffer[500] = "";

  00028	a0 00 00 00 00	 mov	 al, BYTE PTR ??_C@_00CNPNBAHC@?$AA@
  0002d	88 85 f8 fd ff
	ff		 mov	 BYTE PTR _UnstuffBuffer$[ebp], al
  00033	68 f3 01 00 00	 push	 499			; 000001f3H
  00038	6a 00		 push	 0
  0003a	8d 85 f9 fd ff
	ff		 lea	 eax, DWORD PTR _UnstuffBuffer$[ebp+1]
  00040	50		 push	 eax
  00041	e8 00 00 00 00	 call	 _memset
  00046	83 c4 0c	 add	 esp, 12			; 0000000cH
$Loop$5815:

; 1023 : 
; 1024 : 	// DED mode doesn't have an end of frame delimiter. We need to know if we have a full frame
; 1025 : 
; 1026 : 	// Fortunately this is a polled protocol, so we only get one frame at a time
; 1027 : 
; 1028 : 	// If first char != 170, then probably a Terminal Mode Frame. Wait for CR on end
; 1029 : 
; 1030 : 	// If first char is 170, we could check rhe length field, but that could be corrupt, as
; 1031 : 	// we haen't checked CRC. All I can think of is to check the CRC and if it is ok, assume frame is
; 1032 : 	// complete. If CRC is duff, we will eventually time out and get a retry. The retry code
; 1033 : 	// can clear the RC buffer
; 1034 : 			
; 1035 : Loop:
; 1036 : 
; 1037 : 	if (rxbuffer[0] != 170)

  00049	8b 45 08	 mov	 eax, DWORD PTR _rxbuffer$[ebp]
  0004c	0f b6 08	 movzx	 ecx, BYTE PTR [eax]
  0004f	81 f9 aa 00 00
	00		 cmp	 ecx, 170		; 000000aaH
  00055	0f 84 7d 02 00
	00		 je	 $LN18@ProcessSCS@3

; 1038 : 	{
; 1039 : 		UCHAR *ptr;
; 1040 : 		int cmdlen;
; 1041 : 		
; 1042 : 		// Char Mode Frame I think we need to see CR on end (and we could have more than one in buffer
; 1043 : 
; 1044 : 		// If we think we are in host mode, then it could be noise - just discard.
; 1045 : 
; 1046 : 		if (HostMode)

  0005b	83 3d 00 00 00
	00 00		 cmp	 DWORD PTR _HostMode, 0
  00062	74 0f		 je	 SHORT $LN17@ProcessSCS@3

; 1047 : 		{
; 1048 : 			RXBPtr = 0;

  00064	c7 05 00 00 00
	00 00 00 00 00	 mov	 DWORD PTR _RXBPtr, 0

; 1049 : 			return;

  0006e	e9 14 03 00 00	 jmp	 $LN19@ProcessSCS@3
$LN17@ProcessSCS@3:

; 1050 : 		}
; 1051 : 
; 1052 : 		rxbuffer[Length] = 0;

  00073	8b 45 08	 mov	 eax, DWORD PTR _rxbuffer$[ebp]
  00076	03 45 0c	 add	 eax, DWORD PTR _Length$[ebp]
  00079	c6 00 00	 mov	 BYTE PTR [eax], 0

; 1053 : 
; 1054 : 		if (rxbuffer[0] == 0x1b)

  0007c	8b 45 08	 mov	 eax, DWORD PTR _rxbuffer$[ebp]
  0007f	0f b6 08	 movzx	 ecx, BYTE PTR [eax]
  00082	83 f9 1b	 cmp	 ecx, 27			; 0000001bH
  00085	75 3b		 jne	 SHORT $LN16@ProcessSCS@3

; 1055 : 		{
; 1056 : 			// Just ignore (I think!)
; 1057 : 
; 1058 : 			RXBPtr--;

  00087	a1 00 00 00 00	 mov	 eax, DWORD PTR _RXBPtr
  0008c	83 e8 01	 sub	 eax, 1
  0008f	a3 00 00 00 00	 mov	 DWORD PTR _RXBPtr, eax

; 1059 : 			if (RXBPtr)

  00094	74 27		 je	 SHORT $LN15@ProcessSCS@3

; 1060 : 			{
; 1061 : 				memmove(rxbuffer, rxbuffer+1, RXBPtr + 1);

  00096	a1 00 00 00 00	 mov	 eax, DWORD PTR _RXBPtr
  0009b	83 c0 01	 add	 eax, 1
  0009e	50		 push	 eax
  0009f	8b 4d 08	 mov	 ecx, DWORD PTR _rxbuffer$[ebp]
  000a2	83 c1 01	 add	 ecx, 1
  000a5	51		 push	 ecx
  000a6	8b 55 08	 mov	 edx, DWORD PTR _rxbuffer$[ebp]
  000a9	52		 push	 edx
  000aa	e8 00 00 00 00	 call	 _memmove
  000af	83 c4 0c	 add	 esp, 12			; 0000000cH

; 1062 : 				Length--;

  000b2	8b 45 0c	 mov	 eax, DWORD PTR _Length$[ebp]
  000b5	83 e8 01	 sub	 eax, 1
  000b8	89 45 0c	 mov	 DWORD PTR _Length$[ebp], eax

; 1063 : 				goto Loop;

  000bb	eb 8c		 jmp	 SHORT $Loop$5815
$LN15@ProcessSCS@3:

; 1064 : 			}
; 1065 : 			return;

  000bd	e9 c5 02 00 00	 jmp	 $LN19@ProcessSCS@3
$LN16@ProcessSCS@3:

; 1066 : 		}
; 1067 : 
; 1068 : 		if (rxbuffer[0] == 0x1e)

  000c2	8b 45 08	 mov	 eax, DWORD PTR _rxbuffer$[ebp]
  000c5	0f b6 08	 movzx	 ecx, BYTE PTR [eax]
  000c8	83 f9 1e	 cmp	 ecx, 30			; 0000001eH
  000cb	0f 85 f6 00 00
	00		 jne	 $LN14@ProcessSCS@3

; 1069 : 		{
; 1070 : 			// Status POLL
; 1071 : 
; 1072 : 			RXBPtr--;

  000d1	a1 00 00 00 00	 mov	 eax, DWORD PTR _RXBPtr
  000d6	83 e8 01	 sub	 eax, 1
  000d9	a3 00 00 00 00	 mov	 DWORD PTR _RXBPtr, eax

; 1073 : 			if (RXBPtr)

  000de	74 2a		 je	 SHORT $LN13@ProcessSCS@3

; 1074 : 			{
; 1075 : 				memmove(rxbuffer, rxbuffer+1, RXBPtr + 1);

  000e0	a1 00 00 00 00	 mov	 eax, DWORD PTR _RXBPtr
  000e5	83 c0 01	 add	 eax, 1
  000e8	50		 push	 eax
  000e9	8b 4d 08	 mov	 ecx, DWORD PTR _rxbuffer$[ebp]
  000ec	83 c1 01	 add	 ecx, 1
  000ef	51		 push	 ecx
  000f0	8b 55 08	 mov	 edx, DWORD PTR _rxbuffer$[ebp]
  000f3	52		 push	 edx
  000f4	e8 00 00 00 00	 call	 _memmove
  000f9	83 c4 0c	 add	 esp, 12			; 0000000cH

; 1076 : 				Length--;

  000fc	8b 45 0c	 mov	 eax, DWORD PTR _Length$[ebp]
  000ff	83 e8 01	 sub	 eax, 1
  00102	89 45 0c	 mov	 DWORD PTR _Length$[ebp], eax

; 1077 : 				goto Loop;

  00105	e9 3f ff ff ff	 jmp	 $Loop$5815
$LN13@ProcessSCS@3:

; 1078 : 			}
; 1079 : 			PutChar(30);

  0010a	6a 1e		 push	 30			; 0000001eH
  0010c	e8 00 00 00 00	 call	 _PutChar
  00111	83 c4 04	 add	 esp, 4

; 1080 : 			PutChar(0x87);

  00114	68 87 00 00 00	 push	 135			; 00000087H
  00119	e8 00 00 00 00	 call	 _PutChar
  0011e	83 c4 04	 add	 esp, 4

; 1081 : 
; 1082 : 			if (Term4Mode)

  00121	83 3d 00 00 00
	00 00		 cmp	 DWORD PTR _Term4Mode, 0
  00128	74 5c		 je	 SHORT $LN12@ProcessSCS@3

; 1083 : 			{
; 1084 : 				PutChar(13);

  0012a	6a 0d		 push	 13			; 0000000dH
  0012c	e8 00 00 00 00	 call	 _PutChar
  00131	83 c4 04	 add	 esp, 4

; 1085 : 				PutChar(4);

  00134	6a 04		 push	 4
  00136	e8 00 00 00 00	 call	 _PutChar
  0013b	83 c4 04	 add	 esp, 4

; 1086 : 				PutChar(13);

  0013e	6a 0d		 push	 13			; 0000000dH
  00140	e8 00 00 00 00	 call	 _PutChar
  00145	83 c4 04	 add	 esp, 4

; 1087 : 				PutChar('c');

  00148	6a 63		 push	 99			; 00000063H
  0014a	e8 00 00 00 00	 call	 _PutChar
  0014f	83 c4 04	 add	 esp, 4

; 1088 : 				PutChar('m');

  00152	6a 6d		 push	 109			; 0000006dH
  00154	e8 00 00 00 00	 call	 _PutChar
  00159	83 c4 04	 add	 esp, 4

; 1089 : 				PutChar('d');

  0015c	6a 64		 push	 100			; 00000064H
  0015e	e8 00 00 00 00	 call	 _PutChar
  00163	83 c4 04	 add	 esp, 4

; 1090 : 				PutChar(':');

  00166	6a 3a		 push	 58			; 0000003aH
  00168	e8 00 00 00 00	 call	 _PutChar
  0016d	83 c4 04	 add	 esp, 4

; 1091 : 				PutChar(' ');

  00170	6a 20		 push	 32			; 00000020H
  00172	e8 00 00 00 00	 call	 _PutChar
  00177	83 c4 04	 add	 esp, 4

; 1092 : 				PutChar(1);

  0017a	6a 01		 push	 1
  0017c	e8 00 00 00 00	 call	 _PutChar
  00181	83 c4 04	 add	 esp, 4

; 1093 : 			}
; 1094 : 			else

  00184	eb 3c		 jmp	 SHORT $LN11@ProcessSCS@3
$LN12@ProcessSCS@3:

; 1095 : 			{
; 1096 : 				PutChar(13);

  00186	6a 0d		 push	 13			; 0000000dH
  00188	e8 00 00 00 00	 call	 _PutChar
  0018d	83 c4 04	 add	 esp, 4

; 1097 : 				PutChar('c');

  00190	6a 63		 push	 99			; 00000063H
  00192	e8 00 00 00 00	 call	 _PutChar
  00197	83 c4 04	 add	 esp, 4

; 1098 : 				PutChar('m');

  0019a	6a 6d		 push	 109			; 0000006dH
  0019c	e8 00 00 00 00	 call	 _PutChar
  001a1	83 c4 04	 add	 esp, 4

; 1099 : 				PutChar('d');

  001a4	6a 64		 push	 100			; 00000064H
  001a6	e8 00 00 00 00	 call	 _PutChar
  001ab	83 c4 04	 add	 esp, 4

; 1100 : 				PutChar(':');

  001ae	6a 3a		 push	 58			; 0000003aH
  001b0	e8 00 00 00 00	 call	 _PutChar
  001b5	83 c4 04	 add	 esp, 4

; 1101 : 				PutChar(' ');

  001b8	6a 20		 push	 32			; 00000020H
  001ba	e8 00 00 00 00	 call	 _PutChar
  001bf	83 c4 04	 add	 esp, 4
$LN11@ProcessSCS@3:

; 1102 : 			}
; 1103 : 			return;

  001c2	e9 c0 01 00 00	 jmp	 $LN19@ProcessSCS@3
$LN14@ProcessSCS@3:

; 1104 : 		}
; 1105 : 
; 1106 : 		// We are in text mode, if buffer contains nulls clear it
; 1107 : 
; 1108 : 		if (strlen(rxbuffer) < Length)

  001c7	8b 45 08	 mov	 eax, DWORD PTR _rxbuffer$[ebp]
  001ca	50		 push	 eax
  001cb	e8 00 00 00 00	 call	 _strlen
  001d0	83 c4 04	 add	 esp, 4
  001d3	3b 45 0c	 cmp	 eax, DWORD PTR _Length$[ebp]
  001d6	73 2f		 jae	 SHORT $LN10@ProcessSCS@3

; 1109 : 		{
; 1110 : 			RXBPtr = 0;

  001d8	c7 05 00 00 00
	00 00 00 00 00	 mov	 DWORD PTR _RXBPtr, 0

; 1111 : 			WriteDebugLog(LOGDEBUG, "cancelling input %d %d", strlen(rxbuffer), Length);

  001e2	8b 45 0c	 mov	 eax, DWORD PTR _Length$[ebp]
  001e5	50		 push	 eax
  001e6	8b 4d 08	 mov	 ecx, DWORD PTR _rxbuffer$[ebp]
  001e9	51		 push	 ecx
  001ea	e8 00 00 00 00	 call	 _strlen
  001ef	83 c4 04	 add	 esp, 4
  001f2	50		 push	 eax
  001f3	68 00 00 00 00	 push	 OFFSET ??_C@_0BH@HIICFMDJ@cancelling?5input?5?$CFd?5?$CFd?$AA@
  001f8	6a 07		 push	 7
  001fa	e8 00 00 00 00	 call	 _WriteDebugLog
  001ff	83 c4 10	 add	 esp, 16			; 00000010H

; 1112 : 			return;

  00202	e9 80 01 00 00	 jmp	 $LN19@ProcessSCS@3
$LN10@ProcessSCS@3:

; 1113 : 		}
; 1114 : 		ptr = strchr(rxbuffer, 13);

  00207	6a 0d		 push	 13			; 0000000dH
  00209	8b 45 08	 mov	 eax, DWORD PTR _rxbuffer$[ebp]
  0020c	50		 push	 eax
  0020d	e8 00 00 00 00	 call	 _strchr
  00212	83 c4 08	 add	 esp, 8
  00215	89 85 ec fd ff
	ff		 mov	 DWORD PTR _ptr$5817[ebp], eax

; 1115 : 
; 1116 : 		if (ptr == 0)

  0021b	83 bd ec fd ff
	ff 00		 cmp	 DWORD PTR _ptr$5817[ebp], 0
  00222	75 18		 jne	 SHORT $LN9@ProcessSCS@3

; 1117 : 		{
; 1118 : 			if (Length > 290)

  00224	81 7d 0c 22 01
	00 00		 cmp	 DWORD PTR _Length$[ebp], 290 ; 00000122H
  0022b	7e 0a		 jle	 SHORT $LN8@ProcessSCS@3

; 1119 : 				RXBPtr = 0;			// unreasonable length

  0022d	c7 05 00 00 00
	00 00 00 00 00	 mov	 DWORD PTR _RXBPtr, 0
$LN8@ProcessSCS@3:

; 1120 : 		
; 1121 : 			// Wait for rest of frame
; 1122 : 
; 1123 : 			return;

  00237	e9 4b 01 00 00	 jmp	 $LN19@ProcessSCS@3
$LN9@ProcessSCS@3:

; 1124 : 		}
; 1125 : 		ptr++;

  0023c	8b 85 ec fd ff
	ff		 mov	 eax, DWORD PTR _ptr$5817[ebp]
  00242	83 c0 01	 add	 eax, 1
  00245	89 85 ec fd ff
	ff		 mov	 DWORD PTR _ptr$5817[ebp], eax

; 1126 : 
; 1127 : 		cmdlen = ptr - rxbuffer;

  0024b	8b 85 ec fd ff
	ff		 mov	 eax, DWORD PTR _ptr$5817[ebp]
  00251	2b 45 08	 sub	 eax, DWORD PTR _rxbuffer$[ebp]
  00254	89 85 e0 fd ff
	ff		 mov	 DWORD PTR _cmdlen$5818[ebp], eax

; 1128 : 
; 1129 : 		// Complete Char Mode Frame
; 1130 : 
; 1131 : 		RXBPtr -= cmdlen;		// Ready for next frame

  0025a	a1 00 00 00 00	 mov	 eax, DWORD PTR _RXBPtr
  0025f	2b 85 e0 fd ff
	ff		 sub	 eax, DWORD PTR _cmdlen$5818[ebp]
  00265	a3 00 00 00 00	 mov	 DWORD PTR _RXBPtr, eax

; 1132 : 		Length -= cmdlen;

  0026a	8b 45 0c	 mov	 eax, DWORD PTR _Length$[ebp]
  0026d	2b 85 e0 fd ff
	ff		 sub	 eax, DWORD PTR _cmdlen$5818[ebp]
  00273	89 45 0c	 mov	 DWORD PTR _Length$[ebp], eax

; 1133 : 
; 1134 : 		ProcessSCSTextCommand(rxbuffer, cmdlen);

  00276	8b 85 e0 fd ff
	ff		 mov	 eax, DWORD PTR _cmdlen$5818[ebp]
  0027c	50		 push	 eax
  0027d	8b 4d 08	 mov	 ecx, DWORD PTR _rxbuffer$[ebp]
  00280	51		 push	 ecx
  00281	e8 00 00 00 00	 call	 _ProcessSCSTextCommand
  00286	83 c4 08	 add	 esp, 8

; 1135 : 
; 1136 : 		if (RXBPtr)

  00289	83 3d 00 00 00
	00 00		 cmp	 DWORD PTR _RXBPtr, 0
  00290	74 41		 je	 SHORT $LN7@ProcessSCS@3

; 1137 : 		{
; 1138 : 			memmove(rxbuffer, ptr, RXBPtr + 1);

  00292	a1 00 00 00 00	 mov	 eax, DWORD PTR _RXBPtr
  00297	83 c0 01	 add	 eax, 1
  0029a	50		 push	 eax
  0029b	8b 8d ec fd ff
	ff		 mov	 ecx, DWORD PTR _ptr$5817[ebp]
  002a1	51		 push	 ecx
  002a2	8b 55 08	 mov	 edx, DWORD PTR _rxbuffer$[ebp]
  002a5	52		 push	 edx
  002a6	e8 00 00 00 00	 call	 _memmove
  002ab	83 c4 0c	 add	 esp, 12			; 0000000cH

; 1139 : 			if (HostMode)

  002ae	83 3d 00 00 00
	00 00		 cmp	 DWORD PTR _HostMode, 0
  002b5	74 17		 je	 SHORT $LN6@ProcessSCS@3

; 1140 : 			{
; 1141 : 				// now in host mode, so pass rest up a level
; 1142 : 				
; 1143 : 				ProcessSCSPacket(rxbuffer, RXBPtr);

  002b7	a1 00 00 00 00	 mov	 eax, DWORD PTR _RXBPtr
  002bc	50		 push	 eax
  002bd	8b 4d 08	 mov	 ecx, DWORD PTR _rxbuffer$[ebp]
  002c0	51		 push	 ecx
  002c1	e8 00 00 00 00	 call	 _ProcessSCSPacket
  002c6	83 c4 08	 add	 esp, 8

; 1144 : 				return;

  002c9	e9 b9 00 00 00	 jmp	 $LN19@ProcessSCS@3
$LN6@ProcessSCS@3:

; 1145 : 			}
; 1146 : 			goto Loop;

  002ce	e9 76 fd ff ff	 jmp	 $Loop$5815
$LN7@ProcessSCS@3:

; 1147 : 		}
; 1148 : 		return;

  002d3	e9 af 00 00 00	 jmp	 $LN19@ProcessSCS@3
$LN18@ProcessSCS@3:

; 1149 : 	}
; 1150 : 
; 1151 : 	// Receiving a Host Mode frame
; 1152 : 
; 1153 : 	if (HostMode == 0)

  002d8	83 3d 00 00 00
	00 00		 cmp	 DWORD PTR _HostMode, 0
  002df	75 0f		 jne	 SHORT $LN5@ProcessSCS@3

; 1154 : 	{
; 1155 : 		RXBPtr = 0;

  002e1	c7 05 00 00 00
	00 00 00 00 00	 mov	 DWORD PTR _RXBPtr, 0

; 1156 : 		return;

  002eb	e9 97 00 00 00	 jmp	 $LN19@ProcessSCS@3
$LN5@ProcessSCS@3:

; 1157 : 	}
; 1158 : 
; 1159 : 	if (Length < 6)				// Minimum Frame Sise

  002f0	83 7d 0c 06	 cmp	 DWORD PTR _Length$[ebp], 6
  002f4	7d 05		 jge	 SHORT $LN4@ProcessSCS@3

; 1160 : 		return;

  002f6	e9 8c 00 00 00	 jmp	 $LN19@ProcessSCS@3
$LN4@ProcessSCS@3:

; 1161 : 
; 1162 : 	if (rxbuffer[2] == 170)

  002fb	8b 45 08	 mov	 eax, DWORD PTR _rxbuffer$[ebp]
  002fe	0f b6 48 02	 movzx	 ecx, BYTE PTR [eax+2]
  00302	81 f9 aa 00 00
	00		 cmp	 ecx, 170		; 000000aaH
  00308	75 0c		 jne	 SHORT $LN3@ProcessSCS@3

; 1163 : 	{
; 1164 : 		// Retransmit Request
; 1165 : 	
; 1166 : 		RXBPtr = 0;

  0030a	c7 05 00 00 00
	00 00 00 00 00	 mov	 DWORD PTR _RXBPtr, 0

; 1167 : 		return;				// Ignore for now

  00314	eb 71		 jmp	 SHORT $LN19@ProcessSCS@3
$LN3@ProcessSCS@3:

; 1168 : 	}
; 1169 : 
; 1170 : 	// Can't unstuff into same buffer - fails if partial msg received, and we unstuff twice
; 1171 : 
; 1172 : 	Length = EmUnstuff(&rxbuffer[2], &UnstuffBuffer[2], Length - 2);

  00316	8b 45 0c	 mov	 eax, DWORD PTR _Length$[ebp]
  00319	83 e8 02	 sub	 eax, 2
  0031c	50		 push	 eax
  0031d	8d 8d fa fd ff
	ff		 lea	 ecx, DWORD PTR _UnstuffBuffer$[ebp+2]
  00323	51		 push	 ecx
  00324	8b 55 08	 mov	 edx, DWORD PTR _rxbuffer$[ebp]
  00327	83 c2 02	 add	 edx, 2
  0032a	52		 push	 edx
  0032b	e8 00 00 00 00	 call	 _EmUnstuff
  00330	83 c4 0c	 add	 esp, 12			; 0000000cH
  00333	89 45 0c	 mov	 DWORD PTR _Length$[ebp], eax

; 1173 : 
; 1174 : 	if (Length == -1)

  00336	83 7d 0c ff	 cmp	 DWORD PTR _Length$[ebp], -1
  0033a	75 0c		 jne	 SHORT $LN2@ProcessSCS@3

; 1175 : 	{
; 1176 : 		// Unstuff returned an errors (170 not followed by 0)
; 1177 : 
; 1178 : 		RXBPtr = 0;

  0033c	c7 05 00 00 00
	00 00 00 00 00	 mov	 DWORD PTR _RXBPtr, 0

; 1179 : 		return;				// Ignore for now

  00346	eb 3f		 jmp	 SHORT $LN19@ProcessSCS@3
$LN2@ProcessSCS@3:

; 1180 : 	}
; 1181 : 	crc = compute_crc(&UnstuffBuffer[2], Length);

  00348	8b 45 0c	 mov	 eax, DWORD PTR _Length$[ebp]
  0034b	50		 push	 eax
  0034c	8d 8d fa fd ff
	ff		 lea	 ecx, DWORD PTR _UnstuffBuffer$[ebp+2]
  00352	51		 push	 ecx
  00353	e8 00 00 00 00	 call	 _compute_crc
  00358	83 c4 08	 add	 esp, 8
  0035b	66 89 45 f4	 mov	 WORD PTR _crc$[ebp], ax

; 1182 : 
; 1183 : 	if (crc == 0xf0b8)		// Good CRC

  0035f	0f b7 45 f4	 movzx	 eax, WORD PTR _crc$[ebp]
  00363	3d b8 f0 00 00	 cmp	 eax, 61624		; 0000f0b8H
  00368	75 1d		 jne	 SHORT $LN19@ProcessSCS@3

; 1184 : 	{
; 1185 : 		RXBPtr = 0;		// Ready for next frame

  0036a	c7 05 00 00 00
	00 00 00 00 00	 mov	 DWORD PTR _RXBPtr, 0

; 1186 : 		ProcessSCSHostFrame(&UnstuffBuffer[2], Length);

  00374	8b 45 0c	 mov	 eax, DWORD PTR _Length$[ebp]
  00377	50		 push	 eax
  00378	8d 8d fa fd ff
	ff		 lea	 ecx, DWORD PTR _UnstuffBuffer$[ebp+2]
  0037e	51		 push	 ecx
  0037f	e8 00 00 00 00	 call	 _ProcessSCSHostFrame
  00384	83 c4 08	 add	 esp, 8
$LN19@ProcessSCS@3:

; 1187 : 		return;
; 1188 : 	}
; 1189 : 
; 1190 : 	// Bad CRC - assume incomplete frame, and wait for rest. If it was a full bad frame, timeout and retry will recover link.
; 1191 : 
; 1192 : 	return;
; 1193 : }

  00387	52		 push	 edx
  00388	8b cd		 mov	 ecx, ebp
  0038a	50		 push	 eax
  0038b	8d 15 00 00 00
	00		 lea	 edx, DWORD PTR $LN25@ProcessSCS@3
  00391	e8 00 00 00 00	 call	 @_RTC_CheckStackVars@8
  00396	58		 pop	 eax
  00397	5a		 pop	 edx
  00398	5f		 pop	 edi
  00399	5e		 pop	 esi
  0039a	5b		 pop	 ebx
  0039b	8b 4d fc	 mov	 ecx, DWORD PTR __$ArrayPad$[ebp]
  0039e	33 cd		 xor	 ecx, ebp
  003a0	e8 00 00 00 00	 call	 @__security_check_cookie@4
  003a5	81 c4 e4 02 00
	00		 add	 esp, 740		; 000002e4H
  003ab	3b ec		 cmp	 ebp, esp
  003ad	e8 00 00 00 00	 call	 __RTC_CheckEsp
  003b2	8b e5		 mov	 esp, ebp
  003b4	5d		 pop	 ebp
  003b5	c3		 ret	 0
  003b6	8b ff		 npad	 2
$LN25@ProcessSCS@3:
  003b8	01 00 00 00	 DD	 1
  003bc	00 00 00 00	 DD	 $LN24@ProcessSCS@3
$LN24@ProcessSCS@3:
  003c0	f8 fd ff ff	 DD	 -520			; fffffdf8H
  003c4	f4 01 00 00	 DD	 500			; 000001f4H
  003c8	00 00 00 00	 DD	 $LN23@ProcessSCS@3
$LN23@ProcessSCS@3:
  003cc	55		 DB	 85			; 00000055H
  003cd	6e		 DB	 110			; 0000006eH
  003ce	73		 DB	 115			; 00000073H
  003cf	74		 DB	 116			; 00000074H
  003d0	75		 DB	 117			; 00000075H
  003d1	66		 DB	 102			; 00000066H
  003d2	66		 DB	 102			; 00000066H
  003d3	42		 DB	 66			; 00000042H
  003d4	75		 DB	 117			; 00000075H
  003d5	66		 DB	 102			; 00000066H
  003d6	66		 DB	 102			; 00000066H
  003d7	65		 DB	 101			; 00000065H
  003d8	72		 DB	 114			; 00000072H
  003d9	00		 DB	 0
_ProcessSCSPacket ENDP
_TEXT	ENDS
PUBLIC	__$ArrayPad$
EXTRN	_SerialSendData:PROC
; Function compile flags: /Odtp /RTCsu /ZI
;	COMDAT _EmCRCStuffAndSend
_TEXT	SEGMENT
_j$ = -544						; size = 4
_i$ = -532						; size = 4
_StuffedMsg$ = -520					; size = 500
_crc$ = -12						; size = 2
__$ArrayPad$ = -4					; size = 4
_Msg$ = 8						; size = 4
_Len$ = 12						; size = 4
_EmCRCStuffAndSend PROC					; COMDAT

; 1197 : {

  00000	55		 push	 ebp
  00001	8b ec		 mov	 ebp, esp
  00003	81 ec e4 02 00
	00		 sub	 esp, 740		; 000002e4H
  00009	53		 push	 ebx
  0000a	56		 push	 esi
  0000b	57		 push	 edi
  0000c	8d bd 1c fd ff
	ff		 lea	 edi, DWORD PTR [ebp-740]
  00012	b9 b9 00 00 00	 mov	 ecx, 185		; 000000b9H
  00017	b8 cc cc cc cc	 mov	 eax, -858993460		; ccccccccH
  0001c	f3 ab		 rep stosd
  0001e	a1 00 00 00 00	 mov	 eax, DWORD PTR ___security_cookie
  00023	33 c5		 xor	 eax, ebp
  00025	89 45 fc	 mov	 DWORD PTR __$ArrayPad$[ebp], eax

; 1198 : 	unsigned short int crc;
; 1199 : 	UCHAR StuffedMsg[500];
; 1200 : 	int i, j;
; 1201 : 
; 1202 : 	if (PTCMode == FALSE)		// only native  mode has toggle on input

  00028	83 3d 00 00 00
	00 00		 cmp	 DWORD PTR _PTCMode, 0
  0002f	75 23		 jne	 SHORT $LN6@EmCRCStuff

; 1203 : 	{
; 1204 : 		Msg[3] &= 0x7F;

  00031	8b 45 08	 mov	 eax, DWORD PTR _Msg$[ebp]
  00034	0f b6 48 03	 movzx	 ecx, BYTE PTR [eax+3]
  00038	83 e1 7f	 and	 ecx, 127		; 0000007fH
  0003b	8b 55 08	 mov	 edx, DWORD PTR _Msg$[ebp]
  0003e	88 4a 03	 mov	 BYTE PTR [edx+3], cl

; 1205 : 		Msg[3] |= Toggle;

  00041	8b 45 08	 mov	 eax, DWORD PTR _Msg$[ebp]
  00044	0f b6 48 03	 movzx	 ecx, BYTE PTR [eax+3]
  00048	0b 0d 00 00 00
	00		 or	 ecx, DWORD PTR _Toggle
  0004e	8b 55 08	 mov	 edx, DWORD PTR _Msg$[ebp]
  00051	88 4a 03	 mov	 BYTE PTR [edx+3], cl
$LN6@EmCRCStuff:

; 1206 : //		Msg[3] ^= 0x80;		// reinveret toggle so we reply with received toggle
; 1207 : 	}
; 1208 : 	crc = compute_crc(&Msg[2], Len-2);

  00054	8b 45 0c	 mov	 eax, DWORD PTR _Len$[ebp]
  00057	83 e8 02	 sub	 eax, 2
  0005a	50		 push	 eax
  0005b	8b 4d 08	 mov	 ecx, DWORD PTR _Msg$[ebp]
  0005e	83 c1 02	 add	 ecx, 2
  00061	51		 push	 ecx
  00062	e8 00 00 00 00	 call	 _compute_crc
  00067	83 c4 08	 add	 esp, 8
  0006a	66 89 45 f4	 mov	 WORD PTR _crc$[ebp], ax

; 1209 : 	crc ^= 0xffff;

  0006e	0f b7 45 f4	 movzx	 eax, WORD PTR _crc$[ebp]
  00072	35 ff ff 00 00	 xor	 eax, 65535		; 0000ffffH
  00077	66 89 45 f4	 mov	 WORD PTR _crc$[ebp], ax

; 1210 : 
; 1211 : 	Msg[Len++] = (crc&0xff);

  0007b	0f b7 45 f4	 movzx	 eax, WORD PTR _crc$[ebp]
  0007f	25 ff 00 00 00	 and	 eax, 255		; 000000ffH
  00084	8b 4d 08	 mov	 ecx, DWORD PTR _Msg$[ebp]
  00087	03 4d 0c	 add	 ecx, DWORD PTR _Len$[ebp]
  0008a	88 01		 mov	 BYTE PTR [ecx], al
  0008c	8b 55 0c	 mov	 edx, DWORD PTR _Len$[ebp]
  0008f	83 c2 01	 add	 edx, 1
  00092	89 55 0c	 mov	 DWORD PTR _Len$[ebp], edx

; 1212 : 	Msg[Len++] = (crc>>8);

  00095	0f b7 45 f4	 movzx	 eax, WORD PTR _crc$[ebp]
  00099	c1 f8 08	 sar	 eax, 8
  0009c	8b 4d 08	 mov	 ecx, DWORD PTR _Msg$[ebp]
  0009f	03 4d 0c	 add	 ecx, DWORD PTR _Len$[ebp]
  000a2	88 01		 mov	 BYTE PTR [ecx], al
  000a4	8b 55 0c	 mov	 edx, DWORD PTR _Len$[ebp]
  000a7	83 c2 01	 add	 edx, 1
  000aa	89 55 0c	 mov	 DWORD PTR _Len$[ebp], edx

; 1213 : 
; 1214 : 	for (i = j = 2; i < Len; i++)

  000ad	c7 85 e0 fd ff
	ff 02 00 00 00	 mov	 DWORD PTR _j$[ebp], 2
  000b7	8b 85 e0 fd ff
	ff		 mov	 eax, DWORD PTR _j$[ebp]
  000bd	89 85 ec fd ff
	ff		 mov	 DWORD PTR _i$[ebp], eax
  000c3	eb 0f		 jmp	 SHORT $LN5@EmCRCStuff
$LN4@EmCRCStuff:
  000c5	8b 85 ec fd ff
	ff		 mov	 eax, DWORD PTR _i$[ebp]
  000cb	83 c0 01	 add	 eax, 1
  000ce	89 85 ec fd ff
	ff		 mov	 DWORD PTR _i$[ebp], eax
$LN5@EmCRCStuff:
  000d4	8b 85 ec fd ff
	ff		 mov	 eax, DWORD PTR _i$[ebp]
  000da	3b 45 0c	 cmp	 eax, DWORD PTR _Len$[ebp]
  000dd	7d 5a		 jge	 SHORT $LN3@EmCRCStuff

; 1215 : 	{
; 1216 : 		StuffedMsg[j++] = Msg[i];

  000df	8b 45 08	 mov	 eax, DWORD PTR _Msg$[ebp]
  000e2	03 85 ec fd ff
	ff		 add	 eax, DWORD PTR _i$[ebp]
  000e8	8b 8d e0 fd ff
	ff		 mov	 ecx, DWORD PTR _j$[ebp]
  000ee	8a 10		 mov	 dl, BYTE PTR [eax]
  000f0	88 94 0d f8 fd
	ff ff		 mov	 BYTE PTR _StuffedMsg$[ebp+ecx], dl
  000f7	8b 85 e0 fd ff
	ff		 mov	 eax, DWORD PTR _j$[ebp]
  000fd	83 c0 01	 add	 eax, 1
  00100	89 85 e0 fd ff
	ff		 mov	 DWORD PTR _j$[ebp], eax

; 1217 : 		if (Msg[i] == 170)

  00106	8b 45 08	 mov	 eax, DWORD PTR _Msg$[ebp]
  00109	03 85 ec fd ff
	ff		 add	 eax, DWORD PTR _i$[ebp]
  0010f	0f b6 08	 movzx	 ecx, BYTE PTR [eax]
  00112	81 f9 aa 00 00
	00		 cmp	 ecx, 170		; 000000aaH
  00118	75 1d		 jne	 SHORT $LN2@EmCRCStuff

; 1218 : 		{
; 1219 : 			StuffedMsg[j++] = 0;

  0011a	8b 85 e0 fd ff
	ff		 mov	 eax, DWORD PTR _j$[ebp]
  00120	c6 84 05 f8 fd
	ff ff 00	 mov	 BYTE PTR _StuffedMsg$[ebp+eax], 0
  00128	8b 8d e0 fd ff
	ff		 mov	 ecx, DWORD PTR _j$[ebp]
  0012e	83 c1 01	 add	 ecx, 1
  00131	89 8d e0 fd ff
	ff		 mov	 DWORD PTR _j$[ebp], ecx
$LN2@EmCRCStuff:

; 1220 : 		}
; 1221 : 	}

  00137	eb 8c		 jmp	 SHORT $LN4@EmCRCStuff
$LN3@EmCRCStuff:

; 1222 : 
; 1223 : 	if (j != i)

  00139	8b 85 e0 fd ff
	ff		 mov	 eax, DWORD PTR _j$[ebp]
  0013f	3b 85 ec fd ff
	ff		 cmp	 eax, DWORD PTR _i$[ebp]
  00145	74 23		 je	 SHORT $LN1@EmCRCStuff

; 1224 : 	{
; 1225 : 		Len = j;

  00147	8b 85 e0 fd ff
	ff		 mov	 eax, DWORD PTR _j$[ebp]
  0014d	89 45 0c	 mov	 DWORD PTR _Len$[ebp], eax

; 1226 : 		memcpy(Msg, StuffedMsg, j);

  00150	8b 85 e0 fd ff
	ff		 mov	 eax, DWORD PTR _j$[ebp]
  00156	50		 push	 eax
  00157	8d 8d f8 fd ff
	ff		 lea	 ecx, DWORD PTR _StuffedMsg$[ebp]
  0015d	51		 push	 ecx
  0015e	8b 55 08	 mov	 edx, DWORD PTR _Msg$[ebp]
  00161	52		 push	 edx
  00162	e8 00 00 00 00	 call	 _memcpy
  00167	83 c4 0c	 add	 esp, 12			; 0000000cH
$LN1@EmCRCStuff:

; 1227 : 	}
; 1228 : 
; 1229 : 	Msg[0] = 170;

  0016a	8b 45 08	 mov	 eax, DWORD PTR _Msg$[ebp]
  0016d	c6 00 aa	 mov	 BYTE PTR [eax], 170	; 000000aaH

; 1230 : 	Msg[1] = 170;

  00170	8b 45 08	 mov	 eax, DWORD PTR _Msg$[ebp]
  00173	c6 40 01 aa	 mov	 BYTE PTR [eax+1], 170	; 000000aaH

; 1231 : 
; 1232 : 	SerialSendData(Msg, Len);

  00177	8b 45 0c	 mov	 eax, DWORD PTR _Len$[ebp]
  0017a	50		 push	 eax
  0017b	8b 4d 08	 mov	 ecx, DWORD PTR _Msg$[ebp]
  0017e	51		 push	 ecx
  0017f	e8 00 00 00 00	 call	 _SerialSendData
  00184	83 c4 08	 add	 esp, 8

; 1233 : }

  00187	52		 push	 edx
  00188	8b cd		 mov	 ecx, ebp
  0018a	50		 push	 eax
  0018b	8d 15 00 00 00
	00		 lea	 edx, DWORD PTR $LN11@EmCRCStuff
  00191	e8 00 00 00 00	 call	 @_RTC_CheckStackVars@8
  00196	58		 pop	 eax
  00197	5a		 pop	 edx
  00198	5f		 pop	 edi
  00199	5e		 pop	 esi
  0019a	5b		 pop	 ebx
  0019b	8b 4d fc	 mov	 ecx, DWORD PTR __$ArrayPad$[ebp]
  0019e	33 cd		 xor	 ecx, ebp
  001a0	e8 00 00 00 00	 call	 @__security_check_cookie@4
  001a5	81 c4 e4 02 00
	00		 add	 esp, 740		; 000002e4H
  001ab	3b ec		 cmp	 ebp, esp
  001ad	e8 00 00 00 00	 call	 __RTC_CheckEsp
  001b2	8b e5		 mov	 esp, ebp
  001b4	5d		 pop	 ebp
  001b5	c3		 ret	 0
  001b6	8b ff		 npad	 2
$LN11@EmCRCStuff:
  001b8	01 00 00 00	 DD	 1
  001bc	00 00 00 00	 DD	 $LN10@EmCRCStuff
$LN10@EmCRCStuff:
  001c0	f8 fd ff ff	 DD	 -520			; fffffdf8H
  001c4	f4 01 00 00	 DD	 500			; 000001f4H
  001c8	00 00 00 00	 DD	 $LN9@EmCRCStuff
$LN9@EmCRCStuff:
  001cc	53		 DB	 83			; 00000053H
  001cd	74		 DB	 116			; 00000074H
  001ce	75		 DB	 117			; 00000075H
  001cf	66		 DB	 102			; 00000066H
  001d0	66		 DB	 102			; 00000066H
  001d1	65		 DB	 101			; 00000065H
  001d2	64		 DB	 100			; 00000064H
  001d3	4d		 DB	 77			; 0000004dH
  001d4	73		 DB	 115			; 00000073H
  001d5	67		 DB	 103			; 00000067H
  001d6	00		 DB	 0
_EmCRCStuffAndSend ENDP
_TEXT	ENDS
PUBLIC	??_C@_07CNJIKIIB@?$CDTRX?5T?5?$AA@		; `string'
EXTRN	_CatWrite:PROC
;	COMDAT ??_C@_07CNJIKIIB@?$CDTRX?5T?5?$AA@
CONST	SEGMENT
??_C@_07CNJIKIIB@?$CDTRX?5T?5?$AA@ DB '#TRX T ', 00H	; `string'
; Function compile flags: /Odtp /RTCsu /ZI
CONST	ENDS
;	COMDAT _ProcessRIGPacket
_TEXT	SEGMENT
tv73 = -244						; size = 4
_val$5865 = -41						; size = 1
_c$5864 = -29						; size = 1
_ptr2$5863 = -20					; size = 4
_ptr1$5862 = -8						; size = 4
_Command$ = 8						; size = 4
_Buffer$ = 12						; size = 4
_Len$ = 16						; size = 4
_ProcessRIGPacket PROC					; COMDAT

; 1273 : {

  00000	55		 push	 ebp
  00001	8b ec		 mov	 ebp, esp
  00003	81 ec f4 00 00
	00		 sub	 esp, 244		; 000000f4H
  00009	53		 push	 ebx
  0000a	56		 push	 esi
  0000b	57		 push	 edi
  0000c	8d bd 0c ff ff
	ff		 lea	 edi, DWORD PTR [ebp-244]
  00012	b9 3d 00 00 00	 mov	 ecx, 61			; 0000003dH
  00017	b8 cc cc cc cc	 mov	 eax, -858993460		; ccccccccH
  0001c	f3 ab		 rep stosd

; 1274 : 	// RMS Express sends #TRX: Commands
; 1275 : 
; 1276 : 	// #TRX TY I 9600 $00 TTL
; 1277 : 	// #TRX T FEFE00E0050015050700FD
; 1278 : 	// #TRX T FEFE00E00601FD
; 1279 : 
; 1280 : 	// BPQ sends Data Frames with the raw contents
; 1281 : 
; 1282 : 	if (memcmp(Buffer, "#TRX T ", 7) == 0)

  0001e	6a 07		 push	 7
  00020	68 00 00 00 00	 push	 OFFSET ??_C@_07CNJIKIIB@?$CDTRX?5T?5?$AA@
  00025	8b 45 0c	 mov	 eax, DWORD PTR _Buffer$[ebp]
  00028	50		 push	 eax
  00029	e8 00 00 00 00	 call	 _memcmp
  0002e	83 c4 0c	 add	 esp, 12			; 0000000cH
  00031	85 c0		 test	 eax, eax
  00033	0f 85 04 01 00
	00		 jne	 $LN7@ProcessRIG

; 1283 : 	{
; 1284 : 		// RMS Express form
; 1285 : 
; 1286 : 		char * ptr1 =  &Buffer[7];

  00039	8b 45 0c	 mov	 eax, DWORD PTR _Buffer$[ebp]
  0003c	83 c0 07	 add	 eax, 7
  0003f	89 45 f8	 mov	 DWORD PTR _ptr1$5862[ebp], eax

; 1287 : 		char * ptr2 = Buffer;

  00042	8b 45 0c	 mov	 eax, DWORD PTR _Buffer$[ebp]
  00045	89 45 ec	 mov	 DWORD PTR _ptr2$5863[ebp], eax

; 1288 : 		char c;
; 1289 : 		unsigned char val;
; 1290 : 
; 1291 : 		Len -= 7;

  00048	8b 45 10	 mov	 eax, DWORD PTR _Len$[ebp]
  0004b	83 e8 07	 sub	 eax, 7
  0004e	89 45 10	 mov	 DWORD PTR _Len$[ebp], eax
$LN6@ProcessRIG:

; 1292 : 		
; 1293 : 		while (Len-- > 0)

  00051	8b 45 10	 mov	 eax, DWORD PTR _Len$[ebp]
  00054	8b 4d 10	 mov	 ecx, DWORD PTR _Len$[ebp]
  00057	83 e9 01	 sub	 ecx, 1
  0005a	89 4d 10	 mov	 DWORD PTR _Len$[ebp], ecx
  0005d	85 c0		 test	 eax, eax
  0005f	7e 0c		 jle	 SHORT $LN10@ProcessRIG
  00061	c7 85 0c ff ff
	ff 01 00 00 00	 mov	 DWORD PTR tv73[ebp], 1
  0006b	eb 0a		 jmp	 SHORT $LN11@ProcessRIG
$LN10@ProcessRIG:
  0006d	c7 85 0c ff ff
	ff 00 00 00 00	 mov	 DWORD PTR tv73[ebp], 0
$LN11@ProcessRIG:
  00077	83 bd 0c ff ff
	ff 00		 cmp	 DWORD PTR tv73[ebp], 0
  0007e	0f 84 a4 00 00
	00		 je	 $LN5@ProcessRIG

; 1294 : 		{
; 1295 : 			c = *(ptr1++);

  00084	8b 45 f8	 mov	 eax, DWORD PTR _ptr1$5862[ebp]
  00087	8a 08		 mov	 cl, BYTE PTR [eax]
  00089	88 4d e3	 mov	 BYTE PTR _c$5864[ebp], cl
  0008c	8b 55 f8	 mov	 edx, DWORD PTR _ptr1$5862[ebp]
  0008f	83 c2 01	 add	 edx, 1
  00092	89 55 f8	 mov	 DWORD PTR _ptr1$5862[ebp], edx

; 1296 : 			
; 1297 : 			if (c >= 0x30)

  00095	0f be 45 e3	 movsx	 eax, BYTE PTR _c$5864[ebp]
  00099	83 f8 30	 cmp	 eax, 48			; 00000030H
  0009c	7c 27		 jl	 SHORT $LN4@ProcessRIG

; 1298 : 			{
; 1299 : 				c -= 0x30;

  0009e	0f be 45 e3	 movsx	 eax, BYTE PTR _c$5864[ebp]
  000a2	83 e8 30	 sub	 eax, 48			; 00000030H
  000a5	88 45 e3	 mov	 BYTE PTR _c$5864[ebp], al

; 1300 : 				if (c > 9)

  000a8	0f be 45 e3	 movsx	 eax, BYTE PTR _c$5864[ebp]
  000ac	83 f8 09	 cmp	 eax, 9
  000af	7e 0a		 jle	 SHORT $LN3@ProcessRIG

; 1301 : 					c -= 7;		// a-f

  000b1	0f be 45 e3	 movsx	 eax, BYTE PTR _c$5864[ebp]
  000b5	83 e8 07	 sub	 eax, 7
  000b8	88 45 e3	 mov	 BYTE PTR _c$5864[ebp], al
$LN3@ProcessRIG:

; 1302 : 
; 1303 : 				val = c << 4;

  000bb	0f be 45 e3	 movsx	 eax, BYTE PTR _c$5864[ebp]
  000bf	c1 e0 04	 shl	 eax, 4
  000c2	88 45 d7	 mov	 BYTE PTR _val$5865[ebp], al
$LN4@ProcessRIG:

; 1304 : 			}
; 1305 : 
; 1306 : 			Len--;

  000c5	8b 45 10	 mov	 eax, DWORD PTR _Len$[ebp]
  000c8	83 e8 01	 sub	 eax, 1
  000cb	89 45 10	 mov	 DWORD PTR _Len$[ebp], eax

; 1307 : 
; 1308 : 			c = *(ptr1++);

  000ce	8b 45 f8	 mov	 eax, DWORD PTR _ptr1$5862[ebp]
  000d1	8a 08		 mov	 cl, BYTE PTR [eax]
  000d3	88 4d e3	 mov	 BYTE PTR _c$5864[ebp], cl
  000d6	8b 55 f8	 mov	 edx, DWORD PTR _ptr1$5862[ebp]
  000d9	83 c2 01	 add	 edx, 1
  000dc	89 55 f8	 mov	 DWORD PTR _ptr1$5862[ebp], edx

; 1309 : 			
; 1310 : 			if (c >= 0x30)

  000df	0f be 45 e3	 movsx	 eax, BYTE PTR _c$5864[ebp]
  000e3	83 f8 30	 cmp	 eax, 48			; 00000030H
  000e6	7c 2a		 jl	 SHORT $LN2@ProcessRIG

; 1311 : 			{
; 1312 : 				c -= 0x30;

  000e8	0f be 45 e3	 movsx	 eax, BYTE PTR _c$5864[ebp]
  000ec	83 e8 30	 sub	 eax, 48			; 00000030H
  000ef	88 45 e3	 mov	 BYTE PTR _c$5864[ebp], al

; 1313 : 				if (c > 9)

  000f2	0f be 45 e3	 movsx	 eax, BYTE PTR _c$5864[ebp]
  000f6	83 f8 09	 cmp	 eax, 9
  000f9	7e 0a		 jle	 SHORT $LN1@ProcessRIG

; 1314 : 					c -= 7;		// a-f

  000fb	0f be 45 e3	 movsx	 eax, BYTE PTR _c$5864[ebp]
  000ff	83 e8 07	 sub	 eax, 7
  00102	88 45 e3	 mov	 BYTE PTR _c$5864[ebp], al
$LN1@ProcessRIG:

; 1315 : 
; 1316 : 				val |= c;

  00105	0f be 45 e3	 movsx	 eax, BYTE PTR _c$5864[ebp]
  00109	0f b6 4d d7	 movzx	 ecx, BYTE PTR _val$5865[ebp]
  0010d	0b c8		 or	 ecx, eax
  0010f	88 4d d7	 mov	 BYTE PTR _val$5865[ebp], cl
$LN2@ProcessRIG:

; 1317 : 			}
; 1318 : 			*(ptr2++) = val;

  00112	8b 45 ec	 mov	 eax, DWORD PTR _ptr2$5863[ebp]
  00115	8a 4d d7	 mov	 cl, BYTE PTR _val$5865[ebp]
  00118	88 08		 mov	 BYTE PTR [eax], cl
  0011a	8b 55 ec	 mov	 edx, DWORD PTR _ptr2$5863[ebp]
  0011d	83 c2 01	 add	 edx, 1
  00120	89 55 ec	 mov	 DWORD PTR _ptr2$5863[ebp], edx

; 1319 : 		}

  00123	e9 29 ff ff ff	 jmp	 $LN6@ProcessRIG
$LN5@ProcessRIG:

; 1320 : 
; 1321 : 		CatWrite(Buffer, ptr2 - Buffer);

  00128	8b 45 ec	 mov	 eax, DWORD PTR _ptr2$5863[ebp]
  0012b	2b 45 0c	 sub	 eax, DWORD PTR _Buffer$[ebp]
  0012e	50		 push	 eax
  0012f	8b 4d 0c	 mov	 ecx, DWORD PTR _Buffer$[ebp]
  00132	51		 push	 ecx
  00133	e8 00 00 00 00	 call	 _CatWrite
  00138	83 c4 08	 add	 esp, 8

; 1322 : 		return;

  0013b	eb 10		 jmp	 SHORT $LN8@ProcessRIG
$LN7@ProcessRIG:

; 1323 : 	}
; 1324 : 	CatWrite(Buffer, Len);

  0013d	8b 45 10	 mov	 eax, DWORD PTR _Len$[ebp]
  00140	50		 push	 eax
  00141	8b 4d 0c	 mov	 ecx, DWORD PTR _Buffer$[ebp]
  00144	51		 push	 ecx
  00145	e8 00 00 00 00	 call	 _CatWrite
  0014a	83 c4 08	 add	 esp, 8
$LN8@ProcessRIG:

; 1325 : 	return;
; 1326 : }

  0014d	5f		 pop	 edi
  0014e	5e		 pop	 esi
  0014f	5b		 pop	 ebx
  00150	81 c4 f4 00 00
	00		 add	 esp, 244		; 000000f4H
  00156	3b ec		 cmp	 ebp, esp
  00158	e8 00 00 00 00	 call	 __RTC_CheckEsp
  0015d	8b e5		 mov	 esp, ebp
  0015f	5d		 pop	 ebp
  00160	c3		 ret	 0
_ProcessRIGPacket ENDP
_TEXT	ENDS
END
