; Listing generated by Microsoft (R) Optimizing Compiler Version 14.00.50727.42 

	TITLE	c:\SkyDrive\Dev\Source\ARDOPC\SoundInputSmallMem.c
	.686P
	.XMM
	include listing.inc
	.model	flat

INCLUDELIB LIBCMTD
INCLUDELIB OLDNAMES

PUBLIC	_blnLeaderFound
PUBLIC	_intLeaderRcvdMs
PUBLIC	_intPriorMixedSamplesLength
PUBLIC	_intFilteredMixedSamplesLength
PUBLIC	_intCenterFreq
PUBLIC	_strType
PUBLIC	_strMod
PUBLIC	_intToneMags
PUBLIC	_goodCarriers
PUBLIC	_intPhases
PUBLIC	_intMags
PUBLIC	_charIndex
PUBLIC	_PSKInitDone
PUBLIC	_dblOffsetLastGoodDecode
PUBLIC	_dttLastGoodFrameTypeDecode
PUBLIC	_dblOffsetHz
PUBLIC	_dbl2Pi
PUBLIC	_dblNCOFreq
PUBLIC	_dblNCOPhase
PUBLIC	_dblNCOPhaseInc
PUBLIC	_intMFSReadPtr
PUBLIC	_RcvdSamplesLen
PUBLIC	_HanWinLen
PUBLIC	_Corrections
PUBLIC	_DummyCarrier
PUBLIC	_Decode600Buffer
PUBLIC	_intCarMagThreshold
_DATA	SEGMENT
COMM	_dttStartRmtLeaderMeasure:DWORD
COMM	_LastDataFrameType:DWORD
COMM	_bytFrameData2:BYTE:0100H
COMM	_dblSNdBPwr_2:DWORD
COMM	_bytFrameData3:BYTE:0100H
COMM	_dblAng:DWORD
COMM	_intToneMagsIndex:DWORD:04H
COMM	_intPhasesLength:DWORD
COMM	_intFrameType:DWORD
COMM	_dblPhaseInc:QWORD
COMM	_bytFrameData6:BYTE:0100H
COMM	_totalRSErrors:DWORD
COMM	_intFilteredMixedSamples:WORD:01388H
COMM	_intCP:WORD:08H
COMM	_CarrierOk:BYTE:08H
COMM	_dttLastLeaderDetect:DWORD
COMM	_bytData:BYTE:04f8H
COMM	_intPSKPhase_0:WORD:08H
COMM	_intBaud:DWORD
COMM	_bytFrameData1:BYTE:02f8H
COMM	_blnFrameSyncFound:DWORD
COMM	_intPhasesLen:DWORD
COMM	_intNumCar:DWORD
COMM	_strDecodeCapture:BYTE:0400H
COMM	_intToneMagsAvg:DWORD:0530H
COMM	_intPSKPhase_1:WORD:08H
COMM	_intSampleLen:DWORD
COMM	_intPSKMode:DWORD
COMM	_bytFrameData4:BYTE:0100H
COMM	_intSumCounts:DWORD:08H
COMM	_frameLen:DWORD
COMM	_intDataLen:DWORD
COMM	_intSampPerSym:DWORD
COMM	_dblHanWin:DWORD:078H
COMM	_intDataBytesPerCar:DWORD
COMM	_blnOdd:DWORD
COMM	_bytFrameData5:BYTE:0100H
COMM	_dblFreqBin:DWORD:08H
COMM	_GotBitSyncTicks:DWORD
COMM	_intDataPtr:DWORD
COMM	_intMagLength:DWORD
COMM	_intCarFreq:DWORD
COMM	_intToneMagsLength:DWORD
COMM	_bytMinQualThresh:BYTE
COMM	_dblSNdBPwr_1:DWORD
COMM	_bytFrameData7:BYTE:0100H
COMM	_intCarPhaseAvg:WORD:01460H
COMM	_SymbolsLeft:DWORD
COMM	_bytFrameData8:BYTE:0100H
COMM	_intCarMagAvg:WORD:01460H
COMM	_strRcvFrameTag:BYTE:020H
COMM	_blnLeaderDetected:DWORD
COMM	_intNforGoertzel:WORD:08H
COMM	_dblSNdBPwr:DWORD
COMM	_blnSymbolSyncFound:DWORD
COMM	_dttLastGoodFrameTypeDecod:DWORD
COMM	_intARQRTmeasuredMs:DWORD
COMM	_intPriorMixedSamples:WORD:078H
COMM	_intRSLen:DWORD
_DATA	ENDS
_BSS	SEGMENT
_blnLeaderFound DD 01H DUP (?)
_intFilteredMixedSamplesLength DD 01H DUP (?)
_strType DB	012H DUP (?)
	ALIGN	4

_strMod	DB	010H DUP (?)
_intToneMags DD	04000H DUP (?)
_goodCarriers DB 01H DUP (?)
	ALIGN	4

_intPhases DW	01460H DUP (?)
_intMags DW	01460H DUP (?)
_charIndex DD	01H DUP (?)
_PSKInitDone DD	01H DUP (?)
_dblOffsetLastGoodDecode DD 01H DUP (?)
_dttLastGoodFrameTypeDecode DD 01H DUP (?)
_dblOffsetHz DD	01H DUP (?)
_dblNCOPhase DD	01H DUP (?)
_RcvdSamplesLen DD 01H DUP (?)
_dblZin_1 DD	01H DUP (?)
_dblZin_2 DD	01H DUP (?)
_dblZComb DD	01H DUP (?)
_dblZout_0 DD	01bH DUP (?)
_dblZout_1 DD	01bH DUP (?)
_dblZout_2 DD	01bH DUP (?)
_dblCoef DD	01bH DUP (?)
?dblZin@?1??FSMixFilter2000Hz@@9@9 DD 01H DUP (?)	; `FSMixFilter2000Hz'::`2'::dblZin
?dblCoef@?1??Filter150Hz@@9@9 DD 011H DUP (?)		; `Filter150Hz'::`2'::dblCoef
?dblCoef@?1??Filter75Hz@@9@9 DD 03H DUP (?)		; `Filter75Hz'::`2'::dblCoef
_HanWinLen DD	01H DUP (?)
_Corrections DD	01H DUP (?)
_DummyCarrier DD 01H DUP (?)
?dblTrackingPhase@?1??Track1CarPSK@@9@9 DD 01H DUP (?)	; `Track1CarPSK'::`2'::dblTrackingPhase
_intCarMagThreshold DW 08H DUP (?)
_BSS	ENDS
_DATA	SEGMENT
_intLeaderRcvdMs DD 03e8H
_intPriorMixedSamplesLength DD 078H
_intCenterFreq DD 05dcH
_dbl2Pi	DD	040c90fd8r			; 6.28318
_dblNCOFreq DD	0453b8000r			; 3000
_dblNCOPhaseInc DD 03fc90fd8r			; 1.5708
_intMFSReadPtr DD 01eH
_dblR	DD	03f7fdf3br			; 0.9995
_intN	DD	078H
?dblR@?1??Filter150Hz@@9@9 DD 03f7fdf3br	; 0.9995 ; `Filter150Hz'::`2'::dblR
?intN@?1??Filter150Hz@@9@9 DD 078H			; `Filter150Hz'::`2'::intN
?dblR@?1??Filter75Hz@@9@9 DD 03f7fdf3br		; 0.9995 ; `Filter75Hz'::`2'::dblR
?intN@?1??Filter75Hz@@9@9 DD 0f0H			; `Filter75Hz'::`2'::intN
_Decode600Buffer DD FLAT:_bytFrameData1
_DATA	ENDS
PUBLIC	_IsValidFrameType
EXTRN	_isValidFrame:BYTE
EXTRN	__RTC_Shutdown:PROC
EXTRN	__RTC_InitBase:PROC
;	COMDAT rtc$TMZ
; File c:\skydrive\dev\source\ardopc\soundinputsmallmem.c
rtc$TMZ	SEGMENT
__RTC_Shutdown.rtc$TMZ DD FLAT:__RTC_Shutdown
rtc$TMZ	ENDS
;	COMDAT rtc$IMZ
rtc$IMZ	SEGMENT
__RTC_InitBase.rtc$IMZ DD FLAT:__RTC_InitBase
; Function compile flags: /Odtp /RTCsu /ZI
rtc$IMZ	ENDS
;	COMDAT _IsValidFrameType
_TEXT	SEGMENT
_bytType$ = 8						; size = 1
_IsValidFrameType PROC					; COMDAT

; 324  : {

  00000	55		 push	 ebp
  00001	8b ec		 mov	 ebp, esp
  00003	81 ec c0 00 00
	00		 sub	 esp, 192		; 000000c0H
  00009	53		 push	 ebx
  0000a	56		 push	 esi
  0000b	57		 push	 edi
  0000c	8d bd 40 ff ff
	ff		 lea	 edi, DWORD PTR [ebp-192]
  00012	b9 30 00 00 00	 mov	 ecx, 48			; 00000030H
  00017	b8 cc cc cc cc	 mov	 eax, -858993460		; ccccccccH
  0001c	f3 ab		 rep stosd

; 325  : 	//  used in the minimum distance decoder (update if frames added or removed)
; 326  : 
; 327  : 	return (isValidFrame[bytType]);

  0001e	0f b6 45 08	 movzx	 eax, BYTE PTR _bytType$[ebp]
  00022	0f b6 80 00 00
	00 00		 movzx	 eax, BYTE PTR _isValidFrame[eax]

; 328  : /*
; 329  : 	if (bytType >= 0 && bytType <= 0x1F)  return TRUE;
; 330  :     if (bytType == 0x23 || bytType == 0x26 || bytType == 0x29 || bytType == 0x2C || bytType == 0x2D || bytType == 0x2E) return TRUE;
; 331  : 
; 332  : 	if (bytType >= 0x30 && bytType <= 0x3c)  return TRUE;
; 333  : 	if (bytType >= 0x30 && bytType <= 0x3c)  return TRUE;
; 334  : 	if (bytType >= 0x40 && bytType <= 0x4f)  return TRUE;
; 335  : 	if (bytType >= 0x50 && bytType <= 0x5b)  return TRUE;
; 336  : 	if (bytType >= 0x60 && bytType <= 0x69)  return TRUE;
; 337  : 	if (bytType >= 0x70 && bytType <= 0x7d)  return TRUE;
; 338  : 	if (bytType >= 0xe0 && bytType <= 0xff)  return TRUE;
; 339  : 	if (bytType == 0xd0)  return TRUE;
; 340  : 
; 341  : 	return FALSE;
; 342  : */
; 343  : }

  00029	5f		 pop	 edi
  0002a	5e		 pop	 esi
  0002b	5b		 pop	 ebx
  0002c	8b e5		 mov	 esp, ebp
  0002e	5d		 pop	 ebp
  0002f	c3		 ret	 0
_IsValidFrameType ENDP
_TEXT	ENDS
PUBLIC	_IsShortControlFrame
; Function compile flags: /Odtp /RTCsu /ZI
;	COMDAT _IsShortControlFrame
_TEXT	SEGMENT
_bytType$ = 8						; size = 1
_IsShortControlFrame PROC				; COMDAT

; 348  : {

  00000	55		 push	 ebp
  00001	8b ec		 mov	 ebp, esp
  00003	81 ec c0 00 00
	00		 sub	 esp, 192		; 000000c0H
  00009	53		 push	 ebx
  0000a	56		 push	 esi
  0000b	57		 push	 edi
  0000c	8d bd 40 ff ff
	ff		 lea	 edi, DWORD PTR [ebp-192]
  00012	b9 30 00 00 00	 mov	 ecx, 48			; 00000030H
  00017	b8 cc cc cc cc	 mov	 eax, -858993460		; ccccccccH
  0001c	f3 ab		 rep stosd

; 349  : 	if (bytType <= 0x1F) return TRUE;  // NAK

  0001e	0f b6 45 08	 movzx	 eax, BYTE PTR _bytType$[ebp]
  00022	83 f8 1f	 cmp	 eax, 31			; 0000001fH
  00025	7f 07		 jg	 SHORT $LN4@IsShortCon
  00027	b8 01 00 00 00	 mov	 eax, 1
  0002c	eb 51		 jmp	 SHORT $LN5@IsShortCon
$LN4@IsShortCon:

; 350  : 	if (bytType == 0x23 || bytType == 0x24 || bytType == 0x29 || bytType == 0x2C || bytType == 0x2D || bytType == 0x2E) return TRUE; // BREAK, IDLE, DISC, END, ConRejBusy, ConRejBW

  0002e	0f b6 45 08	 movzx	 eax, BYTE PTR _bytType$[ebp]
  00032	83 f8 23	 cmp	 eax, 35			; 00000023H
  00035	74 2d		 je	 SHORT $LN2@IsShortCon
  00037	0f b6 45 08	 movzx	 eax, BYTE PTR _bytType$[ebp]
  0003b	83 f8 24	 cmp	 eax, 36			; 00000024H
  0003e	74 24		 je	 SHORT $LN2@IsShortCon
  00040	0f b6 45 08	 movzx	 eax, BYTE PTR _bytType$[ebp]
  00044	83 f8 29	 cmp	 eax, 41			; 00000029H
  00047	74 1b		 je	 SHORT $LN2@IsShortCon
  00049	0f b6 45 08	 movzx	 eax, BYTE PTR _bytType$[ebp]
  0004d	83 f8 2c	 cmp	 eax, 44			; 0000002cH
  00050	74 12		 je	 SHORT $LN2@IsShortCon
  00052	0f b6 45 08	 movzx	 eax, BYTE PTR _bytType$[ebp]
  00056	83 f8 2d	 cmp	 eax, 45			; 0000002dH
  00059	74 09		 je	 SHORT $LN2@IsShortCon
  0005b	0f b6 45 08	 movzx	 eax, BYTE PTR _bytType$[ebp]
  0005f	83 f8 2e	 cmp	 eax, 46			; 0000002eH
  00062	75 07		 jne	 SHORT $LN3@IsShortCon
$LN2@IsShortCon:
  00064	b8 01 00 00 00	 mov	 eax, 1
  00069	eb 14		 jmp	 SHORT $LN5@IsShortCon
$LN3@IsShortCon:

; 351  : 	if (bytType >= 0xE0) return TRUE;  // ACK

  0006b	0f b6 45 08	 movzx	 eax, BYTE PTR _bytType$[ebp]
  0006f	3d e0 00 00 00	 cmp	 eax, 224		; 000000e0H
  00074	7c 07		 jl	 SHORT $LN1@IsShortCon
  00076	b8 01 00 00 00	 mov	 eax, 1
  0007b	eb 02		 jmp	 SHORT $LN5@IsShortCon
$LN1@IsShortCon:

; 352  : 	return FALSE;

  0007d	33 c0		 xor	 eax, eax
$LN5@IsShortCon:

; 353  : }

  0007f	5f		 pop	 edi
  00080	5e		 pop	 esi
  00081	5b		 pop	 ebx
  00082	8b e5		 mov	 esp, ebp
  00084	5d		 pop	 ebp
  00085	c3		 ret	 0
_IsShortControlFrame ENDP
_TEXT	ENDS
PUBLIC	??_C@_02EFIMBOMN@?4O?$AA@			; `string'
PUBLIC	??_C@_02LPGDPGEH@?4E?$AA@			; `string'
PUBLIC	_IsDataFrame
EXTRN	_strstr:PROC
EXTRN	_Name:PROC
EXTRN	__RTC_CheckEsp:PROC
;	COMDAT ??_C@_02EFIMBOMN@?4O?$AA@
CONST	SEGMENT
??_C@_02EFIMBOMN@?4O?$AA@ DB '.O', 00H			; `string'
CONST	ENDS
;	COMDAT ??_C@_02LPGDPGEH@?4E?$AA@
CONST	SEGMENT
??_C@_02LPGDPGEH@?4E?$AA@ DB '.E', 00H			; `string'
; Function compile flags: /Odtp /RTCsu /ZI
CONST	ENDS
;	COMDAT _IsDataFrame
_TEXT	SEGMENT
_String$ = -8						; size = 4
_intFrameType$ = 8					; size = 1
_IsDataFrame PROC					; COMDAT

; 358  : {

  00000	55		 push	 ebp
  00001	8b ec		 mov	 ebp, esp
  00003	81 ec cc 00 00
	00		 sub	 esp, 204		; 000000ccH
  00009	53		 push	 ebx
  0000a	56		 push	 esi
  0000b	57		 push	 edi
  0000c	8d bd 34 ff ff
	ff		 lea	 edi, DWORD PTR [ebp-204]
  00012	b9 33 00 00 00	 mov	 ecx, 51			; 00000033H
  00017	b8 cc cc cc cc	 mov	 eax, -858993460		; ccccccccH
  0001c	f3 ab		 rep stosd

; 359  : 	const char * String = Name(intFrameType);

  0001e	8a 45 08	 mov	 al, BYTE PTR _intFrameType$[ebp]
  00021	50		 push	 eax
  00022	e8 00 00 00 00	 call	 _Name
  00027	83 c4 04	 add	 esp, 4
  0002a	89 45 f8	 mov	 DWORD PTR _String$[ebp], eax

; 360  : 
; 361  : 	if (String == NULL || String[0] == 0)

  0002d	83 7d f8 00	 cmp	 DWORD PTR _String$[ebp], 0
  00031	74 0a		 je	 SHORT $LN3@IsDataFram
  00033	8b 45 f8	 mov	 eax, DWORD PTR _String$[ebp]
  00036	0f be 08	 movsx	 ecx, BYTE PTR [eax]
  00039	85 c9		 test	 ecx, ecx
  0003b	75 04		 jne	 SHORT $LN4@IsDataFram
$LN3@IsDataFram:

; 362  : 		return FALSE;

  0003d	33 c0		 xor	 eax, eax
  0003f	eb 33		 jmp	 SHORT $LN5@IsDataFram
$LN4@IsDataFram:

; 363  : 
; 364  : 	if (strstr(String, ".E") || strstr(String, ".O"))

  00041	68 00 00 00 00	 push	 OFFSET ??_C@_02LPGDPGEH@?4E?$AA@
  00046	8b 45 f8	 mov	 eax, DWORD PTR _String$[ebp]
  00049	50		 push	 eax
  0004a	e8 00 00 00 00	 call	 _strstr
  0004f	83 c4 08	 add	 esp, 8
  00052	85 c0		 test	 eax, eax
  00054	75 15		 jne	 SHORT $LN1@IsDataFram
  00056	68 00 00 00 00	 push	 OFFSET ??_C@_02EFIMBOMN@?4O?$AA@
  0005b	8b 45 f8	 mov	 eax, DWORD PTR _String$[ebp]
  0005e	50		 push	 eax
  0005f	e8 00 00 00 00	 call	 _strstr
  00064	83 c4 08	 add	 esp, 8
  00067	85 c0		 test	 eax, eax
  00069	74 07		 je	 SHORT $LN2@IsDataFram
$LN1@IsDataFram:

; 365  : 		return TRUE;

  0006b	b8 01 00 00 00	 mov	 eax, 1
  00070	eb 02		 jmp	 SHORT $LN5@IsDataFram
$LN2@IsDataFram:

; 366  : 
; 367  : 	return FALSE;

  00072	33 c0		 xor	 eax, eax
$LN5@IsDataFram:

; 368  : }

  00074	5f		 pop	 edi
  00075	5e		 pop	 esi
  00076	5b		 pop	 ebx
  00077	81 c4 cc 00 00
	00		 add	 esp, 204		; 000000ccH
  0007d	3b ec		 cmp	 ebp, esp
  0007f	e8 00 00 00 00	 call	 __RTC_CheckEsp
  00084	8b e5		 mov	 esp, ebp
  00086	5d		 pop	 ebp
  00087	c3		 ret	 0
_IsDataFrame ENDP
_TEXT	ENDS
PUBLIC	__real@00000000
PUBLIC	_ResetSNPwrs
EXTRN	__fltused:DWORD
;	COMDAT __real@00000000
CONST	SEGMENT
__real@00000000 DD 000000000r			; 0
; Function compile flags: /Odtp /RTCsu /ZI
CONST	ENDS
;	COMDAT _ResetSNPwrs
_TEXT	SEGMENT
_ResetSNPwrs PROC					; COMDAT

; 371  : {

  00000	55		 push	 ebp
  00001	8b ec		 mov	 ebp, esp
  00003	81 ec c0 00 00
	00		 sub	 esp, 192		; 000000c0H
  00009	53		 push	 ebx
  0000a	56		 push	 esi
  0000b	57		 push	 edi
  0000c	8d bd 40 ff ff
	ff		 lea	 edi, DWORD PTR [ebp-192]
  00012	b9 30 00 00 00	 mov	 ecx, 48			; 00000030H
  00017	b8 cc cc cc cc	 mov	 eax, -858993460		; ccccccccH
  0001c	f3 ab		 rep stosd

; 372  : 	dblSNdBPwr = 0;

  0001e	d9 ee		 fldz
  00020	d9 1d 00 00 00
	00		 fstp	 DWORD PTR _dblSNdBPwr

; 373  : 	dblSNdBPwr_1 = 0;

  00026	d9 ee		 fldz
  00028	d9 1d 00 00 00
	00		 fstp	 DWORD PTR _dblSNdBPwr_1

; 374  : 	dblSNdBPwr_2 = 0;

  0002e	d9 ee		 fldz
  00030	d9 1d 00 00 00
	00		 fstp	 DWORD PTR _dblSNdBPwr_2

; 375  : }

  00036	5f		 pop	 edi
  00037	5e		 pop	 esi
  00038	5b		 pop	 ebx
  00039	8b e5		 mov	 esp, ebp
  0003b	5d		 pop	 ebp
  0003c	c3		 ret	 0
_ResetSNPwrs ENDP
_TEXT	ENDS
PUBLIC	_ClearAllMixedSamples
; Function compile flags: /Odtp /RTCsu /ZI
;	COMDAT _ClearAllMixedSamples
_TEXT	SEGMENT
_ClearAllMixedSamples PROC				; COMDAT

; 380  : {

  00000	55		 push	 ebp
  00001	8b ec		 mov	 ebp, esp
  00003	81 ec c0 00 00
	00		 sub	 esp, 192		; 000000c0H
  00009	53		 push	 ebx
  0000a	56		 push	 esi
  0000b	57		 push	 edi
  0000c	8d bd 40 ff ff
	ff		 lea	 edi, DWORD PTR [ebp-192]
  00012	b9 30 00 00 00	 mov	 ecx, 48			; 00000030H
  00017	b8 cc cc cc cc	 mov	 eax, -858993460		; ccccccccH
  0001c	f3 ab		 rep stosd

; 381  : 	intFilteredMixedSamplesLength = 0;

  0001e	c7 05 00 00 00
	00 00 00 00 00	 mov	 DWORD PTR _intFilteredMixedSamplesLength, 0

; 382  : 	intMFSReadPtr = 0;

  00028	c7 05 00 00 00
	00 00 00 00 00	 mov	 DWORD PTR _intMFSReadPtr, 0

; 383  : }

  00032	5f		 pop	 edi
  00033	5e		 pop	 esi
  00034	5b		 pop	 ebx
  00035	8b e5		 mov	 esp, ebp
  00037	5d		 pop	 ebp
  00038	c3		 ret	 0
_ClearAllMixedSamples ENDP
_TEXT	ENDS
PUBLIC	_InitializeMixedSamples
EXTRN	_dttStartRTMeasure:DWORD
EXTRN	_getTicks:PROC
; Function compile flags: /Odtp /RTCsu /ZI
;	COMDAT _InitializeMixedSamples
_TEXT	SEGMENT
tv69 = -196						; size = 4
_InitializeMixedSamples PROC				; COMDAT

; 388  : {

  00000	55		 push	 ebp
  00001	8b ec		 mov	 ebp, esp
  00003	81 ec c4 00 00
	00		 sub	 esp, 196		; 000000c4H
  00009	53		 push	 ebx
  0000a	56		 push	 esi
  0000b	57		 push	 edi
  0000c	8d bd 3c ff ff
	ff		 lea	 edi, DWORD PTR [ebp-196]
  00012	b9 31 00 00 00	 mov	 ecx, 49			; 00000031H
  00017	b8 cc cc cc cc	 mov	 eax, -858993460		; ccccccccH
  0001c	f3 ab		 rep stosd

; 389  : 	// Measure the time from release of PTT to leader detection of reply.
; 390  : 
; 391  : 	intARQRTmeasuredMs = min(10000, Now - dttStartRTMeasure); //?????? needs work

  0001e	e8 00 00 00 00	 call	 _getTicks
  00023	2b 05 00 00 00
	00		 sub	 eax, DWORD PTR _dttStartRTMeasure
  00029	3d 10 27 00 00	 cmp	 eax, 10000		; 00002710H
  0002e	76 0c		 jbe	 SHORT $LN3@Initialize
  00030	c7 85 3c ff ff
	ff 10 27 00 00	 mov	 DWORD PTR tv69[ebp], 10000 ; 00002710H
  0003a	eb 11		 jmp	 SHORT $LN4@Initialize
$LN3@Initialize:
  0003c	e8 00 00 00 00	 call	 _getTicks
  00041	2b 05 00 00 00
	00		 sub	 eax, DWORD PTR _dttStartRTMeasure
  00047	89 85 3c ff ff
	ff		 mov	 DWORD PTR tv69[ebp], eax
$LN4@Initialize:
  0004d	8b 85 3c ff ff
	ff		 mov	 eax, DWORD PTR tv69[ebp]
  00053	a3 00 00 00 00	 mov	 DWORD PTR _intARQRTmeasuredMs, eax

; 392  : 	intPriorMixedSamplesLength = 120;  // zero out prior samples in Prior sample buffer

  00058	c7 05 00 00 00
	00 78 00 00 00	 mov	 DWORD PTR _intPriorMixedSamplesLength, 120 ; 00000078H

; 393  : 	intFilteredMixedSamplesLength = 0;	// zero out the FilteredMixedSamples array

  00062	c7 05 00 00 00
	00 00 00 00 00	 mov	 DWORD PTR _intFilteredMixedSamplesLength, 0

; 394  : 	intMFSReadPtr = 30;				// reset the MFSReadPtr offset 30 to accomodate the filter delay

  0006c	c7 05 00 00 00
	00 1e 00 00 00	 mov	 DWORD PTR _intMFSReadPtr, 30 ; 0000001eH

; 395  : }

  00076	5f		 pop	 edi
  00077	5e		 pop	 esi
  00078	5b		 pop	 ebx
  00079	81 c4 c4 00 00
	00		 add	 esp, 196		; 000000c4H
  0007f	3b ec		 cmp	 ebp, esp
  00081	e8 00 00 00 00	 call	 __RTC_CheckEsp
  00086	8b e5		 mov	 esp, ebp
  00088	5d		 pop	 ebp
  00089	c3		 ret	 0
_InitializeMixedSamples ENDP
_TEXT	ENDS
PUBLIC	_DiscardOldSamples
; Function compile flags: /Odtp /RTCsu /ZI
;	COMDAT _DiscardOldSamples
_TEXT	SEGMENT
_DiscardOldSamples PROC					; COMDAT

; 400  : {

  00000	55		 push	 ebp
  00001	8b ec		 mov	 ebp, esp
  00003	81 ec c0 00 00
	00		 sub	 esp, 192		; 000000c0H
  00009	53		 push	 ebx
  0000a	56		 push	 esi
  0000b	57		 push	 edi
  0000c	8d bd 40 ff ff
	ff		 lea	 edi, DWORD PTR [ebp-192]
  00012	b9 30 00 00 00	 mov	 ecx, 48			; 00000030H
  00017	b8 cc cc cc cc	 mov	 eax, -858993460		; ccccccccH
  0001c	f3 ab		 rep stosd

; 401  : 	// This restructures the intRcvdSamples array discarding all samples prior to intRcvdSamplesRPtr
; 402  :  
; 403  : 	//not sure why we need this !!
; 404  : /*
; 405  : 	if (RcvdSamplesLen - intRcvdSamplesRPtr <= 0)
; 406  : 		RcvdSamplesLen = intRcvdSamplesRPtr = 0;
; 407  : 	else
; 408  : 	{
; 409  : 		// This is rather slow. I'd prefer a cyclic buffer. Lets see....
; 410  : 		
; 411  : 		memmove(intRcvdSamples, &intRcvdSamples[intRcvdSamplesRPtr], (RcvdSamplesLen - intRcvdSamplesRPtr)* 2);
; 412  : 		RcvdSamplesLen -= intRcvdSamplesRPtr;
; 413  : 		intRcvdSamplesRPtr = 0;
; 414  : 	}
; 415  : */
; 416  : }

  0001e	5f		 pop	 edi
  0001f	5e		 pop	 esi
  00020	5b		 pop	 ebx
  00021	8b e5		 mov	 esp, ebp
  00023	5d		 pop	 ebp
  00024	c3		 ret	 0
_DiscardOldSamples ENDP
_TEXT	ENDS
PUBLIC	__real@3f81111120000000
PUBLIC	__real@3fd8e56040000000
PUBLIC	__real@401921fb00000000
PUBLIC	__real@0000000000000000
PUBLIC	__real@4000000000000000
PUBLIC	_FSMixFilter2000Hz
EXTRN	_memmove:PROC
EXTRN	_ceil:PROC
EXTRN	_cos:PROC
EXTRN	_pow:PROC
EXTRN	__ftol2_sse:PROC
_BSS	SEGMENT
?dblR2@?1??FSMixFilter2000Hz@@9@9 DD 01H DUP (?)	; `FSMixFilter2000Hz'::`2'::dblR2
?dblRn@?1??FSMixFilter2000Hz@@9@9 DD 01H DUP (?)	; `FSMixFilter2000Hz'::`2'::dblRn
_BSS	ENDS
;	COMDAT __real@3f81111120000000
CONST	SEGMENT
__real@3f81111120000000 DQ 03f81111120000000r	; 0.00833333
CONST	ENDS
;	COMDAT __real@3fd8e56040000000
CONST	SEGMENT
__real@3fd8e56040000000 DQ 03fd8e56040000000r	; 0.389
CONST	ENDS
;	COMDAT __real@401921fb00000000
CONST	SEGMENT
__real@401921fb00000000 DQ 0401921fb00000000r	; 6.28318
CONST	ENDS
;	COMDAT __real@0000000000000000
CONST	SEGMENT
__real@0000000000000000 DQ 00000000000000000r	; 0
CONST	ENDS
;	COMDAT __real@4000000000000000
CONST	SEGMENT
__real@4000000000000000 DQ 04000000000000000r	; 2
; Function compile flags: /Odtp /RTCsu /ZI
CONST	ENDS
;	COMDAT _FSMixFilter2000Hz
_TEXT	SEGMENT
tv267 = -240						; size = 4
tv329 = -236						; size = 8
tv289 = -236						; size = 4
tv280 = -236						; size = 4
tv286 = -232						; size = 4
tv278 = -232						; size = 4
tv252 = -232						; size = 4
tv244 = -232						; size = 4
_intFilteredSample$ = -32				; size = 4
_j$ = -20						; size = 4
_i$ = -8						; size = 4
_intMixedSamples$ = 8					; size = 4
_intMixedSamplesLength$ = 12				; size = 4
_FSMixFilter2000Hz PROC					; COMDAT

; 433  : {

  00000	55		 push	 ebp
  00001	8b ec		 mov	 ebp, esp
  00003	81 ec f0 00 00
	00		 sub	 esp, 240		; 000000f0H
  00009	53		 push	 ebx
  0000a	56		 push	 esi
  0000b	57		 push	 edi
  0000c	8d bd 10 ff ff
	ff		 lea	 edi, DWORD PTR [ebp-240]
  00012	b9 3c 00 00 00	 mov	 ecx, 60			; 0000003cH
  00017	b8 cc cc cc cc	 mov	 eax, -858993460		; ccccccccH
  0001c	f3 ab		 rep stosd

; 434  : 	// assumes sample rate of 12000
; 435  : 	// implements  23 100 Hz wide sections   (~2000 Hz wide @ - 30dB centered on 1500 Hz)
; 436  : 
; 437  : 	// FSF (Frequency Selective Filter) variables
; 438  : 
; 439  : 	// This works on intMixedSamples, len intMixedSamplesLength;
; 440  : 
; 441  : 	// Filtered data is appended to intFilteredMixedSamples
; 442  : 
; 443  : 	static float dblRn;
; 444  : 	static float dblR2;
; 445  : 
; 446  : 	static float dblZin = 0;
; 447  :       
; 448  : 	int i, j;
; 449  : 
; 450  : 	float intFilteredSample = 0;			//  Filtered sample

  0001e	d9 ee		 fldz
  00020	d9 5d e0	 fstp	 DWORD PTR _intFilteredSample$[ebp]

; 451  : 
; 452  : 	dblRn = powf(dblR, intN);

  00023	db 05 00 00 00
	00		 fild	 DWORD PTR _intN
  00029	83 ec 08	 sub	 esp, 8
  0002c	dd 1c 24	 fstp	 QWORD PTR [esp]
  0002f	d9 05 00 00 00
	00		 fld	 DWORD PTR _dblR
  00035	83 ec 08	 sub	 esp, 8
  00038	dd 1c 24	 fstp	 QWORD PTR [esp]
  0003b	e8 00 00 00 00	 call	 _pow
  00040	83 c4 10	 add	 esp, 16			; 00000010H
  00043	d9 9d 18 ff ff
	ff		 fstp	 DWORD PTR tv244[ebp]
  00049	d9 85 18 ff ff
	ff		 fld	 DWORD PTR tv244[ebp]
  0004f	d9 1d 00 00 00
	00		 fstp	 DWORD PTR ?dblRn@?1??FSMixFilter2000Hz@@9@9

; 453  : 
; 454  : 	dblR2 = powf(dblR, 2);

  00055	83 ec 08	 sub	 esp, 8
  00058	dd 05 00 00 00
	00		 fld	 QWORD PTR __real@4000000000000000
  0005e	dd 1c 24	 fstp	 QWORD PTR [esp]
  00061	d9 05 00 00 00
	00		 fld	 DWORD PTR _dblR
  00067	83 ec 08	 sub	 esp, 8
  0006a	dd 1c 24	 fstp	 QWORD PTR [esp]
  0006d	e8 00 00 00 00	 call	 _pow
  00072	83 c4 10	 add	 esp, 16			; 00000010H
  00075	d9 9d 18 ff ff
	ff		 fstp	 DWORD PTR tv252[ebp]
  0007b	d9 85 18 ff ff
	ff		 fld	 DWORD PTR tv252[ebp]
  00081	d9 1d 00 00 00
	00		 fstp	 DWORD PTR ?dblR2@?1??FSMixFilter2000Hz@@9@9

; 455  : 
; 456  : 	// Initialize the coefficients
; 457  :     
; 458  : 	if (dblCoef[26] == 0)

  00087	d9 05 68 00 00
	00		 fld	 DWORD PTR _dblCoef+104
  0008d	dc 1d 00 00 00
	00		 fcomp	 QWORD PTR __real@0000000000000000
  00093	df e0		 fnstsw	 ax
  00095	f6 c4 44	 test	 ah, 68			; 00000044H
  00098	7a 65		 jp	 SHORT $LN14@FSMixFilte

; 459  : 	{
; 460  : 		for (i = 4; i <= 26; i++)

  0009a	c7 45 f8 04 00
	00 00		 mov	 DWORD PTR _i$[ebp], 4
  000a1	eb 09		 jmp	 SHORT $LN16@FSMixFilte
$LN15@FSMixFilte:
  000a3	8b 45 f8	 mov	 eax, DWORD PTR _i$[ebp]
  000a6	83 c0 01	 add	 eax, 1
  000a9	89 45 f8	 mov	 DWORD PTR _i$[ebp], eax
$LN16@FSMixFilte:
  000ac	83 7d f8 1a	 cmp	 DWORD PTR _i$[ebp], 26	; 0000001aH
  000b0	7f 4d		 jg	 SHORT $LN14@FSMixFilte

; 461  : 		{
; 462  : 			dblCoef[i] = 2 * dblR * cosf(2 * M_PI * i / intN);  // For Frequency = bin i

  000b2	d9 05 00 00 00
	00		 fld	 DWORD PTR _dblR
  000b8	dc 0d 00 00 00
	00		 fmul	 QWORD PTR __real@4000000000000000
  000be	db 45 f8	 fild	 DWORD PTR _i$[ebp]
  000c1	dc 0d 00 00 00
	00		 fmul	 QWORD PTR __real@401921fb00000000
  000c7	da 35 00 00 00
	00		 fidiv	 DWORD PTR _intN
  000cd	83 ec 08	 sub	 esp, 8
  000d0	dd 1c 24	 fstp	 QWORD PTR [esp]
  000d3	dd 9d 14 ff ff
	ff		 fstp	 QWORD PTR tv329[ebp]
  000d9	e8 00 00 00 00	 call	 _cos
  000de	83 c4 08	 add	 esp, 8
  000e1	d9 9d 10 ff ff
	ff		 fstp	 DWORD PTR tv267[ebp]
  000e7	d9 85 10 ff ff
	ff		 fld	 DWORD PTR tv267[ebp]
  000ed	dc 8d 14 ff ff
	ff		 fmul	 QWORD PTR tv329[ebp]
  000f3	8b 45 f8	 mov	 eax, DWORD PTR _i$[ebp]
  000f6	d9 1c 85 00 00
	00 00		 fstp	 DWORD PTR _dblCoef[eax*4]

; 463  : 		}

  000fd	eb a4		 jmp	 SHORT $LN15@FSMixFilte
$LN14@FSMixFilte:

; 464  : 	}
; 465  : 
; 466  : 	for (i = 0; i < intMixedSamplesLength; i++)

  000ff	c7 45 f8 00 00
	00 00		 mov	 DWORD PTR _i$[ebp], 0
  00106	eb 09		 jmp	 SHORT $LN13@FSMixFilte
$LN12@FSMixFilte:
  00108	8b 45 f8	 mov	 eax, DWORD PTR _i$[ebp]
  0010b	83 c0 01	 add	 eax, 1
  0010e	89 45 f8	 mov	 DWORD PTR _i$[ebp], eax
$LN13@FSMixFilte:
  00111	8b 45 f8	 mov	 eax, DWORD PTR _i$[ebp]
  00114	3b 45 0c	 cmp	 eax, DWORD PTR _intMixedSamplesLength$[ebp]
  00117	0f 8d c8 01 00
	00		 jge	 $LN11@FSMixFilte

; 467  : 	{
; 468  : 		intFilteredSample = 0;

  0011d	d9 ee		 fldz
  0011f	d9 5d e0	 fstp	 DWORD PTR _intFilteredSample$[ebp]

; 469  : 
; 470  : 		if (i < intN)

  00122	8b 45 f8	 mov	 eax, DWORD PTR _i$[ebp]
  00125	3b 05 00 00 00
	00		 cmp	 eax, DWORD PTR _intN
  0012b	7d 3d		 jge	 SHORT $LN10@FSMixFilte

; 471  : 			dblZin = intMixedSamples[i] - dblRn * intPriorMixedSamples[i];

  0012d	8b 45 f8	 mov	 eax, DWORD PTR _i$[ebp]
  00130	8b 4d 08	 mov	 ecx, DWORD PTR _intMixedSamples$[ebp]
  00133	0f bf 14 41	 movsx	 edx, WORD PTR [ecx+eax*2]
  00137	89 95 18 ff ff
	ff		 mov	 DWORD PTR tv278[ebp], edx
  0013d	db 85 18 ff ff
	ff		 fild	 DWORD PTR tv278[ebp]
  00143	8b 45 f8	 mov	 eax, DWORD PTR _i$[ebp]
  00146	0f bf 0c 45 00
	00 00 00	 movsx	 ecx, WORD PTR _intPriorMixedSamples[eax*2]
  0014e	89 8d 14 ff ff
	ff		 mov	 DWORD PTR tv280[ebp], ecx
  00154	db 85 14 ff ff
	ff		 fild	 DWORD PTR tv280[ebp]
  0015a	d8 0d 00 00 00
	00		 fmul	 DWORD PTR ?dblRn@?1??FSMixFilter2000Hz@@9@9
  00160	de e9		 fsubp	 ST(1), ST(0)
  00162	d9 1d 00 00 00
	00		 fstp	 DWORD PTR ?dblZin@?1??FSMixFilter2000Hz@@9@9

; 472  : 		else 

  00168	eb 40		 jmp	 SHORT $LN9@FSMixFilte
$LN10@FSMixFilte:

; 473  : 			dblZin = intMixedSamples[i] - dblRn * intMixedSamples[i - intN];

  0016a	8b 45 f8	 mov	 eax, DWORD PTR _i$[ebp]
  0016d	8b 4d 08	 mov	 ecx, DWORD PTR _intMixedSamples$[ebp]
  00170	0f bf 14 41	 movsx	 edx, WORD PTR [ecx+eax*2]
  00174	89 95 18 ff ff
	ff		 mov	 DWORD PTR tv286[ebp], edx
  0017a	db 85 18 ff ff
	ff		 fild	 DWORD PTR tv286[ebp]
  00180	8b 45 f8	 mov	 eax, DWORD PTR _i$[ebp]
  00183	2b 05 00 00 00
	00		 sub	 eax, DWORD PTR _intN
  00189	8b 4d 08	 mov	 ecx, DWORD PTR _intMixedSamples$[ebp]
  0018c	0f bf 14 41	 movsx	 edx, WORD PTR [ecx+eax*2]
  00190	89 95 14 ff ff
	ff		 mov	 DWORD PTR tv289[ebp], edx
  00196	db 85 14 ff ff
	ff		 fild	 DWORD PTR tv289[ebp]
  0019c	d8 0d 00 00 00
	00		 fmul	 DWORD PTR ?dblRn@?1??FSMixFilter2000Hz@@9@9
  001a2	de e9		 fsubp	 ST(1), ST(0)
  001a4	d9 1d 00 00 00
	00		 fstp	 DWORD PTR ?dblZin@?1??FSMixFilter2000Hz@@9@9
$LN9@FSMixFilte:

; 474  :  
; 475  : 		//Compute the Comb
; 476  : 
; 477  : 		dblZComb = dblZin - dblZin_2 * dblR2;

  001aa	d9 05 00 00 00
	00		 fld	 DWORD PTR _dblZin_2
  001b0	d8 0d 00 00 00
	00		 fmul	 DWORD PTR ?dblR2@?1??FSMixFilter2000Hz@@9@9
  001b6	d8 2d 00 00 00
	00		 fsubr	 DWORD PTR ?dblZin@?1??FSMixFilter2000Hz@@9@9
  001bc	d9 1d 00 00 00
	00		 fstp	 DWORD PTR _dblZComb

; 478  : 		dblZin_2 = dblZin_1;

  001c2	d9 05 00 00 00
	00		 fld	 DWORD PTR _dblZin_1
  001c8	d9 1d 00 00 00
	00		 fstp	 DWORD PTR _dblZin_2

; 479  : 		dblZin_1 = dblZin;

  001ce	d9 05 00 00 00
	00		 fld	 DWORD PTR ?dblZin@?1??FSMixFilter2000Hz@@9@9
  001d4	d9 1d 00 00 00
	00		 fstp	 DWORD PTR _dblZin_1

; 480  : 
; 481  : 		// Now the resonators
; 482  : 		for (j = 4; j <= 26; j++)	   // calculate output for 3 resonators 

  001da	c7 45 ec 04 00
	00 00		 mov	 DWORD PTR _j$[ebp], 4
  001e1	eb 09		 jmp	 SHORT $LN8@FSMixFilte
$LN7@FSMixFilte:
  001e3	8b 45 ec	 mov	 eax, DWORD PTR _j$[ebp]
  001e6	83 c0 01	 add	 eax, 1
  001e9	89 45 ec	 mov	 DWORD PTR _j$[ebp], eax
$LN8@FSMixFilte:
  001ec	83 7d ec 1a	 cmp	 DWORD PTR _j$[ebp], 26	; 0000001aH
  001f0	0f 8f b1 00 00
	00		 jg	 $LN6@FSMixFilte

; 483  : 		{
; 484  : 			dblZout_0[j] = dblZComb + dblCoef[j] * dblZout_1[j] - dblR2 * dblZout_2[j];

  001f6	8b 45 ec	 mov	 eax, DWORD PTR _j$[ebp]
  001f9	d9 04 85 00 00
	00 00		 fld	 DWORD PTR _dblCoef[eax*4]
  00200	8b 4d ec	 mov	 ecx, DWORD PTR _j$[ebp]
  00203	d8 0c 8d 00 00
	00 00		 fmul	 DWORD PTR _dblZout_1[ecx*4]
  0020a	d8 05 00 00 00
	00		 fadd	 DWORD PTR _dblZComb
  00210	d9 05 00 00 00
	00		 fld	 DWORD PTR ?dblR2@?1??FSMixFilter2000Hz@@9@9
  00216	8b 55 ec	 mov	 edx, DWORD PTR _j$[ebp]
  00219	d8 0c 95 00 00
	00 00		 fmul	 DWORD PTR _dblZout_2[edx*4]
  00220	de e9		 fsubp	 ST(1), ST(0)
  00222	8b 45 ec	 mov	 eax, DWORD PTR _j$[ebp]
  00225	d9 1c 85 00 00
	00 00		 fstp	 DWORD PTR _dblZout_0[eax*4]

; 485  : 			dblZout_2[j] = dblZout_1[j];

  0022c	8b 45 ec	 mov	 eax, DWORD PTR _j$[ebp]
  0022f	8b 4d ec	 mov	 ecx, DWORD PTR _j$[ebp]
  00232	d9 04 8d 00 00
	00 00		 fld	 DWORD PTR _dblZout_1[ecx*4]
  00239	d9 1c 85 00 00
	00 00		 fstp	 DWORD PTR _dblZout_2[eax*4]

; 486  : 			dblZout_1[j] = dblZout_0[j];

  00240	8b 45 ec	 mov	 eax, DWORD PTR _j$[ebp]
  00243	8b 4d ec	 mov	 ecx, DWORD PTR _j$[ebp]
  00246	d9 04 8d 00 00
	00 00		 fld	 DWORD PTR _dblZout_0[ecx*4]
  0024d	d9 1c 85 00 00
	00 00		 fstp	 DWORD PTR _dblZout_1[eax*4]

; 487  : 
; 488  : 			//' scale each by transition coeff and + (Even) or - (Odd) 
; 489  : 			//' Resonators 2 and 13 scaled by .389 get best shape and side lobe supression 
; 490  : 			//' Scaling also accomodates for the filter "gain" of approx 60. 
; 491  :  
; 492  : 			if (j == 4 || j == 26)

  00254	83 7d ec 04	 cmp	 DWORD PTR _j$[ebp], 4
  00258	74 06		 je	 SHORT $LN4@FSMixFilte
  0025a	83 7d ec 1a	 cmp	 DWORD PTR _j$[ebp], 26	; 0000001aH
  0025e	75 18		 jne	 SHORT $LN5@FSMixFilte
$LN4@FSMixFilte:

; 493  : 				intFilteredSample += 0.389f * dblZout_0[j];

  00260	8b 45 ec	 mov	 eax, DWORD PTR _j$[ebp]
  00263	d9 04 85 00 00
	00 00		 fld	 DWORD PTR _dblZout_0[eax*4]
  0026a	dc 0d 00 00 00
	00		 fmul	 QWORD PTR __real@3fd8e56040000000
  00270	d8 45 e0	 fadd	 DWORD PTR _intFilteredSample$[ebp]
  00273	d9 5d e0	 fstp	 DWORD PTR _intFilteredSample$[ebp]
  00276	eb 2a		 jmp	 SHORT $LN1@FSMixFilte
$LN5@FSMixFilte:

; 494  : 			else if ((j & 1) == 0)

  00278	8b 45 ec	 mov	 eax, DWORD PTR _j$[ebp]
  0027b	83 e0 01	 and	 eax, 1
  0027e	75 12		 jne	 SHORT $LN2@FSMixFilte

; 495  : 				intFilteredSample += dblZout_0[j];

  00280	d9 45 e0	 fld	 DWORD PTR _intFilteredSample$[ebp]
  00283	8b 45 ec	 mov	 eax, DWORD PTR _j$[ebp]
  00286	d8 04 85 00 00
	00 00		 fadd	 DWORD PTR _dblZout_0[eax*4]
  0028d	d9 5d e0	 fstp	 DWORD PTR _intFilteredSample$[ebp]

; 496  : 			else

  00290	eb 10		 jmp	 SHORT $LN1@FSMixFilte
$LN2@FSMixFilte:

; 497  : 				intFilteredSample -= dblZout_0[j];

  00292	d9 45 e0	 fld	 DWORD PTR _intFilteredSample$[ebp]
  00295	8b 45 ec	 mov	 eax, DWORD PTR _j$[ebp]
  00298	d8 24 85 00 00
	00 00		 fsub	 DWORD PTR _dblZout_0[eax*4]
  0029f	d9 5d e0	 fstp	 DWORD PTR _intFilteredSample$[ebp]
$LN1@FSMixFilte:

; 498  : 		}

  002a2	e9 3c ff ff ff	 jmp	 $LN7@FSMixFilte
$LN6@FSMixFilte:

; 499  : 		intFilteredMixedSamples[intFilteredMixedSamplesLength++] = (int)ceil(intFilteredSample * 0.00833333333f);  // rescales for gain of filter

  002a7	d9 45 e0	 fld	 DWORD PTR _intFilteredSample$[ebp]
  002aa	dc 0d 00 00 00
	00		 fmul	 QWORD PTR __real@3f81111120000000
  002b0	83 ec 08	 sub	 esp, 8
  002b3	dd 1c 24	 fstp	 QWORD PTR [esp]
  002b6	e8 00 00 00 00	 call	 _ceil
  002bb	83 c4 08	 add	 esp, 8
  002be	e8 00 00 00 00	 call	 __ftol2_sse
  002c3	8b 0d 00 00 00
	00		 mov	 ecx, DWORD PTR _intFilteredMixedSamplesLength
  002c9	66 89 04 4d 00
	00 00 00	 mov	 WORD PTR _intFilteredMixedSamples[ecx*2], ax
  002d1	8b 15 00 00 00
	00		 mov	 edx, DWORD PTR _intFilteredMixedSamplesLength
  002d7	83 c2 01	 add	 edx, 1
  002da	89 15 00 00 00
	00		 mov	 DWORD PTR _intFilteredMixedSamplesLength, edx

; 500  : 	}

  002e0	e9 23 fe ff ff	 jmp	 $LN12@FSMixFilte
$LN11@FSMixFilte:

; 501  : 	
; 502  : 	// update the prior intPriorMixedSamples array for the next filter call 
; 503  :    
; 504  : 	memmove(intPriorMixedSamples, &intMixedSamples[intMixedSamplesLength - intN], intPriorMixedSamplesLength * 2);		 

  002e5	a1 00 00 00 00	 mov	 eax, DWORD PTR _intPriorMixedSamplesLength
  002ea	d1 e0		 shl	 eax, 1
  002ec	50		 push	 eax
  002ed	8b 4d 0c	 mov	 ecx, DWORD PTR _intMixedSamplesLength$[ebp]
  002f0	2b 0d 00 00 00
	00		 sub	 ecx, DWORD PTR _intN
  002f6	8b 55 08	 mov	 edx, DWORD PTR _intMixedSamples$[ebp]
  002f9	8d 04 4a	 lea	 eax, DWORD PTR [edx+ecx*2]
  002fc	50		 push	 eax
  002fd	68 00 00 00 00	 push	 OFFSET _intPriorMixedSamples
  00302	e8 00 00 00 00	 call	 _memmove
  00307	83 c4 0c	 add	 esp, 12			; 0000000cH

; 505  : }

  0030a	5f		 pop	 edi
  0030b	5e		 pop	 esi
  0030c	5b		 pop	 ebx
  0030d	81 c4 f0 00 00
	00		 add	 esp, 240		; 000000f0H
  00313	3b ec		 cmp	 ebp, esp
  00315	e8 00 00 00 00	 call	 __RTC_CheckEsp
  0031a	8b e5		 mov	 esp, ebp
  0031c	5d		 pop	 ebp
  0031d	c3		 ret	 0
_FSMixFilter2000Hz ENDP
_TEXT	ENDS
PUBLIC	__real@3f81111110f3bf11
PUBLIC	__real@3fc99999a0000000
PUBLIC	_Filter150Hz
EXTRN	@_RTC_CheckStackVars@8:PROC
EXTRN	_memset:PROC
_BSS	SEGMENT
?dblR2@?1??Filter150Hz@@9@9 DD 01H DUP (?)		; `Filter150Hz'::`2'::dblR2
?dblRn@?1??Filter150Hz@@9@9 DD 01H DUP (?)		; `Filter150Hz'::`2'::dblRn
_BSS	ENDS
;	COMDAT __real@3f81111110f3bf11
CONST	SEGMENT
__real@3f81111110f3bf11 DQ 03f81111110f3bf11r	; 0.00833333
CONST	ENDS
;	COMDAT __real@3fc99999a0000000
CONST	SEGMENT
__real@3fc99999a0000000 DQ 03fc99999a0000000r	; 0.2
; Function compile flags: /Odtp /RTCsu /ZI
CONST	ENDS
;	COMDAT _Filter150Hz
_TEXT	SEGMENT
tv267 = -528						; size = 4
tv315 = -524						; size = 8
tv281 = -524						; size = 4
tv279 = -520						; size = 4
tv275 = -520						; size = 4
tv252 = -520						; size = 4
tv244 = -520						; size = 4
_largest$ = -320					; size = 4
_FilterOut$ = -308					; size = 4
_j$ = -296						; size = 4
_i$ = -284						; size = 4
_dblZout_2$ = -272					; size = 68
_dblZout_1$ = -196					; size = 68
_dblZout_0$ = -120					; size = 68
_dblZComb$ = -44					; size = 4
_dblZin_2$ = -32					; size = 4
_dblZin_1$ = -20					; size = 4
_dblZin$ = -8						; size = 4
_intFilterOut$ = 8					; size = 4
_Filter150Hz PROC					; COMDAT

; 510  : {

  00000	55		 push	 ebp
  00001	8b ec		 mov	 ebp, esp
  00003	81 ec 10 02 00
	00		 sub	 esp, 528		; 00000210H
  00009	53		 push	 ebx
  0000a	56		 push	 esi
  0000b	57		 push	 edi
  0000c	8d bd f0 fd ff
	ff		 lea	 edi, DWORD PTR [ebp-528]
  00012	b9 84 00 00 00	 mov	 ecx, 132		; 00000084H
  00017	b8 cc cc cc cc	 mov	 eax, -858993460		; ccccccccH
  0001c	f3 ab		 rep stosd

; 511  : 	// assumes sample rate of 12000
; 512  : 	// implements  3 100 Hz wide sections   (~150 Hz wide @ - 30dB centered on 1500 Hz)
; 513  : 
; 514  : 	// FSF (Frequency Selective Filter) variables
; 515  : 
; 516  : 	static float dblR = 0.9995f;		// insures stability (must be < 1.0) (Value .9995 7/8/2013 gives good results)
; 517  : 	static int intN = 120;				//Length of filter 12000/100
; 518  : 	static float dblRn;
; 519  : 	static float dblR2;
; 520  : 	static float dblCoef[17] = {0.0};			// the coefficients
; 521  : 	float dblZin = 0, dblZin_1 = 0, dblZin_2 = 0, dblZComb= 0;  // Used in the comb generator

  0001e	d9 ee		 fldz
  00020	d9 5d f8	 fstp	 DWORD PTR _dblZin$[ebp]
  00023	d9 ee		 fldz
  00025	d9 5d ec	 fstp	 DWORD PTR _dblZin_1$[ebp]
  00028	d9 ee		 fldz
  0002a	d9 5d e0	 fstp	 DWORD PTR _dblZin_2$[ebp]
  0002d	d9 ee		 fldz
  0002f	d9 5d d4	 fstp	 DWORD PTR _dblZComb$[ebp]

; 522  : 	// The resonators 
; 523  :       
; 524  : 	float dblZout_0[17] = {0.0};	// resonator outputs

  00032	d9 ee		 fldz
  00034	d9 5d 88	 fstp	 DWORD PTR _dblZout_0$[ebp]
  00037	6a 40		 push	 64			; 00000040H
  00039	6a 00		 push	 0
  0003b	8d 45 8c	 lea	 eax, DWORD PTR _dblZout_0$[ebp+4]
  0003e	50		 push	 eax
  0003f	e8 00 00 00 00	 call	 _memset
  00044	83 c4 0c	 add	 esp, 12			; 0000000cH

; 525  : 	float dblZout_1[17] = {0.0};	// resonator outputs delayed one sample

  00047	d9 ee		 fldz
  00049	d9 9d 3c ff ff
	ff		 fstp	 DWORD PTR _dblZout_1$[ebp]
  0004f	6a 40		 push	 64			; 00000040H
  00051	6a 00		 push	 0
  00053	8d 85 40 ff ff
	ff		 lea	 eax, DWORD PTR _dblZout_1$[ebp+4]
  00059	50		 push	 eax
  0005a	e8 00 00 00 00	 call	 _memset
  0005f	83 c4 0c	 add	 esp, 12			; 0000000cH

; 526  : 	float dblZout_2[17] = {0.0};	// resonator outputs delayed two samples

  00062	d9 ee		 fldz
  00064	d9 9d f0 fe ff
	ff		 fstp	 DWORD PTR _dblZout_2$[ebp]
  0006a	6a 40		 push	 64			; 00000040H
  0006c	6a 00		 push	 0
  0006e	8d 85 f4 fe ff
	ff		 lea	 eax, DWORD PTR _dblZout_2$[ebp+4]
  00074	50		 push	 eax
  00075	e8 00 00 00 00	 call	 _memset
  0007a	83 c4 0c	 add	 esp, 12			; 0000000cH

; 527  : 
; 528  : 	int i, j;
; 529  : 
; 530  : 	float FilterOut = 0;			//  Filtered sample

  0007d	d9 ee		 fldz
  0007f	d9 9d cc fe ff
	ff		 fstp	 DWORD PTR _FilterOut$[ebp]

; 531  : 	float largest = 0;

  00085	d9 ee		 fldz
  00087	d9 9d c0 fe ff
	ff		 fstp	 DWORD PTR _largest$[ebp]

; 532  : 
; 533  : 	dblRn = powf(dblR, intN);

  0008d	db 05 00 00 00
	00		 fild	 DWORD PTR ?intN@?1??Filter150Hz@@9@9
  00093	83 ec 08	 sub	 esp, 8
  00096	dd 1c 24	 fstp	 QWORD PTR [esp]
  00099	d9 05 00 00 00
	00		 fld	 DWORD PTR ?dblR@?1??Filter150Hz@@9@9
  0009f	83 ec 08	 sub	 esp, 8
  000a2	dd 1c 24	 fstp	 QWORD PTR [esp]
  000a5	e8 00 00 00 00	 call	 _pow
  000aa	83 c4 10	 add	 esp, 16			; 00000010H
  000ad	d9 9d f8 fd ff
	ff		 fstp	 DWORD PTR tv244[ebp]
  000b3	d9 85 f8 fd ff
	ff		 fld	 DWORD PTR tv244[ebp]
  000b9	d9 1d 00 00 00
	00		 fstp	 DWORD PTR ?dblRn@?1??Filter150Hz@@9@9

; 534  : 
; 535  : 	dblR2 = powf(dblR, 2);

  000bf	83 ec 08	 sub	 esp, 8
  000c2	dd 05 00 00 00
	00		 fld	 QWORD PTR __real@4000000000000000
  000c8	dd 1c 24	 fstp	 QWORD PTR [esp]
  000cb	d9 05 00 00 00
	00		 fld	 DWORD PTR ?dblR@?1??Filter150Hz@@9@9
  000d1	83 ec 08	 sub	 esp, 8
  000d4	dd 1c 24	 fstp	 QWORD PTR [esp]
  000d7	e8 00 00 00 00	 call	 _pow
  000dc	83 c4 10	 add	 esp, 16			; 00000010H
  000df	d9 9d f8 fd ff
	ff		 fstp	 DWORD PTR tv252[ebp]
  000e5	d9 85 f8 fd ff
	ff		 fld	 DWORD PTR tv252[ebp]
  000eb	d9 1d 00 00 00
	00		 fstp	 DWORD PTR ?dblR2@?1??Filter150Hz@@9@9

; 536  : 
; 537  : 	// Initialize the coefficients
; 538  :     
; 539  : 	if (dblCoef[17] == 0)

  000f1	d9 05 44 00 00
	00		 fld	 DWORD PTR ?dblCoef@?1??Filter150Hz@@9@9+68
  000f7	dc 1d 00 00 00
	00		 fcomp	 QWORD PTR __real@0000000000000000
  000fd	df e0		 fnstsw	 ax
  000ff	f6 c4 44	 test	 ah, 68			; 00000044H
  00102	7a 77		 jp	 SHORT $LN12@Filter150H

; 540  : 	{
; 541  : 		for (i = 14; i <= 16; i++)

  00104	c7 85 e4 fe ff
	ff 0e 00 00 00	 mov	 DWORD PTR _i$[ebp], 14	; 0000000eH
  0010e	eb 0f		 jmp	 SHORT $LN14@Filter150H
$LN13@Filter150H:
  00110	8b 85 e4 fe ff
	ff		 mov	 eax, DWORD PTR _i$[ebp]
  00116	83 c0 01	 add	 eax, 1
  00119	89 85 e4 fe ff
	ff		 mov	 DWORD PTR _i$[ebp], eax
$LN14@Filter150H:
  0011f	83 bd e4 fe ff
	ff 10		 cmp	 DWORD PTR _i$[ebp], 16	; 00000010H
  00126	7f 53		 jg	 SHORT $LN12@Filter150H

; 542  : 		{
; 543  : 			dblCoef[i] = 2 * dblR * cosf(2 * M_PI * i / intN);  // For Frequency = bin i

  00128	d9 05 00 00 00
	00		 fld	 DWORD PTR ?dblR@?1??Filter150Hz@@9@9
  0012e	dc 0d 00 00 00
	00		 fmul	 QWORD PTR __real@4000000000000000
  00134	db 85 e4 fe ff
	ff		 fild	 DWORD PTR _i$[ebp]
  0013a	dc 0d 00 00 00
	00		 fmul	 QWORD PTR __real@401921fb00000000
  00140	da 35 00 00 00
	00		 fidiv	 DWORD PTR ?intN@?1??Filter150Hz@@9@9
  00146	83 ec 08	 sub	 esp, 8
  00149	dd 1c 24	 fstp	 QWORD PTR [esp]
  0014c	dd 9d f4 fd ff
	ff		 fstp	 QWORD PTR tv315[ebp]
  00152	e8 00 00 00 00	 call	 _cos
  00157	83 c4 08	 add	 esp, 8
  0015a	d9 9d f0 fd ff
	ff		 fstp	 DWORD PTR tv267[ebp]
  00160	d9 85 f0 fd ff
	ff		 fld	 DWORD PTR tv267[ebp]
  00166	dc 8d f4 fd ff
	ff		 fmul	 QWORD PTR tv315[ebp]
  0016c	8b 85 e4 fe ff
	ff		 mov	 eax, DWORD PTR _i$[ebp]
  00172	d9 1c 85 00 00
	00 00		 fstp	 DWORD PTR ?dblCoef@?1??Filter150Hz@@9@9[eax*4]

; 544  : 		}

  00179	eb 95		 jmp	 SHORT $LN13@Filter150H
$LN12@Filter150H:

; 545  : 	}
; 546  : 
; 547  : 	for (i = 0; i < 480; i++)

  0017b	c7 85 e4 fe ff
	ff 00 00 00 00	 mov	 DWORD PTR _i$[ebp], 0
  00185	eb 0f		 jmp	 SHORT $LN11@Filter150H
$LN10@Filter150H:
  00187	8b 85 e4 fe ff
	ff		 mov	 eax, DWORD PTR _i$[ebp]
  0018d	83 c0 01	 add	 eax, 1
  00190	89 85 e4 fe ff
	ff		 mov	 DWORD PTR _i$[ebp], eax
$LN11@Filter150H:
  00196	81 bd e4 fe ff
	ff e0 01 00 00	 cmp	 DWORD PTR _i$[ebp], 480	; 000001e0H
  001a0	0f 8d b6 01 00
	00		 jge	 $LN9@Filter150H

; 548  : 	{
; 549  : 		if (i < intN)

  001a6	8b 85 e4 fe ff
	ff		 mov	 eax, DWORD PTR _i$[ebp]
  001ac	3b 05 00 00 00
	00		 cmp	 eax, DWORD PTR ?intN@?1??Filter150Hz@@9@9
  001b2	7d 32		 jge	 SHORT $LN8@Filter150H

; 550  : 			dblZin = intFilteredMixedSamples[intMFSReadPtr + i] - dblRn * 0;	// no prior mixed samples

  001b4	a1 00 00 00 00	 mov	 eax, DWORD PTR _intMFSReadPtr
  001b9	03 85 e4 fe ff
	ff		 add	 eax, DWORD PTR _i$[ebp]
  001bf	0f bf 0c 45 00
	00 00 00	 movsx	 ecx, WORD PTR _intFilteredMixedSamples[eax*2]
  001c7	89 8d f8 fd ff
	ff		 mov	 DWORD PTR tv275[ebp], ecx
  001cd	db 85 f8 fd ff
	ff		 fild	 DWORD PTR tv275[ebp]
  001d3	d9 05 00 00 00
	00		 fld	 DWORD PTR ?dblRn@?1??Filter150Hz@@9@9
  001d9	dc 0d 00 00 00
	00		 fmul	 QWORD PTR __real@0000000000000000
  001df	de e9		 fsubp	 ST(1), ST(0)
  001e1	d9 5d f8	 fstp	 DWORD PTR _dblZin$[ebp]

; 551  : 		else

  001e4	eb 50		 jmp	 SHORT $LN7@Filter150H
$LN8@Filter150H:

; 552  : 			dblZin = intFilteredMixedSamples[intMFSReadPtr + i] - dblRn * intFilteredMixedSamples[intMFSReadPtr + i - intN];

  001e6	a1 00 00 00 00	 mov	 eax, DWORD PTR _intMFSReadPtr
  001eb	03 85 e4 fe ff
	ff		 add	 eax, DWORD PTR _i$[ebp]
  001f1	0f bf 0c 45 00
	00 00 00	 movsx	 ecx, WORD PTR _intFilteredMixedSamples[eax*2]
  001f9	89 8d f8 fd ff
	ff		 mov	 DWORD PTR tv279[ebp], ecx
  001ff	db 85 f8 fd ff
	ff		 fild	 DWORD PTR tv279[ebp]
  00205	8b 15 00 00 00
	00		 mov	 edx, DWORD PTR _intMFSReadPtr
  0020b	03 95 e4 fe ff
	ff		 add	 edx, DWORD PTR _i$[ebp]
  00211	2b 15 00 00 00
	00		 sub	 edx, DWORD PTR ?intN@?1??Filter150Hz@@9@9
  00217	0f bf 04 55 00
	00 00 00	 movsx	 eax, WORD PTR _intFilteredMixedSamples[edx*2]
  0021f	89 85 f4 fd ff
	ff		 mov	 DWORD PTR tv281[ebp], eax
  00225	db 85 f4 fd ff
	ff		 fild	 DWORD PTR tv281[ebp]
  0022b	d8 0d 00 00 00
	00		 fmul	 DWORD PTR ?dblRn@?1??Filter150Hz@@9@9
  00231	de e9		 fsubp	 ST(1), ST(0)
  00233	d9 5d f8	 fstp	 DWORD PTR _dblZin$[ebp]
$LN7@Filter150H:

; 553  : 
; 554  : 		// Compute the Comb
; 555  : 		
; 556  : 		dblZComb = dblZin - dblZin_2 * dblR2;

  00236	d9 45 e0	 fld	 DWORD PTR _dblZin_2$[ebp]
  00239	d8 0d 00 00 00
	00		 fmul	 DWORD PTR ?dblR2@?1??Filter150Hz@@9@9
  0023f	d8 6d f8	 fsubr	 DWORD PTR _dblZin$[ebp]
  00242	d9 5d d4	 fstp	 DWORD PTR _dblZComb$[ebp]

; 557  : 		dblZin_2 = dblZin_1;

  00245	d9 45 ec	 fld	 DWORD PTR _dblZin_1$[ebp]
  00248	d9 5d e0	 fstp	 DWORD PTR _dblZin_2$[ebp]

; 558  : 		dblZin_1 = dblZin;

  0024b	d9 45 f8	 fld	 DWORD PTR _dblZin$[ebp]
  0024e	d9 5d ec	 fstp	 DWORD PTR _dblZin_1$[ebp]

; 559  : 
; 560  : 		// Now the resonators
; 561  : 
; 562  : 		for (j = 14; j <= 16; j++)		   // calculate output for 3 resonators 

  00251	c7 85 d8 fe ff
	ff 0e 00 00 00	 mov	 DWORD PTR _j$[ebp], 14	; 0000000eH
  0025b	eb 0f		 jmp	 SHORT $LN6@Filter150H
$LN5@Filter150H:
  0025d	8b 85 d8 fe ff
	ff		 mov	 eax, DWORD PTR _j$[ebp]
  00263	83 c0 01	 add	 eax, 1
  00266	89 85 d8 fe ff
	ff		 mov	 DWORD PTR _j$[ebp], eax
$LN6@Filter150H:
  0026c	83 bd d8 fe ff
	ff 10		 cmp	 DWORD PTR _j$[ebp], 16	; 00000010H
  00273	0f 8f b2 00 00
	00		 jg	 $LN4@Filter150H

; 563  : 		{
; 564  : 			dblZout_0[j] = dblZComb + dblCoef[j] * dblZout_1[j] - dblR2 * dblZout_2[j];

  00279	8b 85 d8 fe ff
	ff		 mov	 eax, DWORD PTR _j$[ebp]
  0027f	d9 04 85 00 00
	00 00		 fld	 DWORD PTR ?dblCoef@?1??Filter150Hz@@9@9[eax*4]
  00286	8b 8d d8 fe ff
	ff		 mov	 ecx, DWORD PTR _j$[ebp]
  0028c	d8 8c 8d 3c ff
	ff ff		 fmul	 DWORD PTR _dblZout_1$[ebp+ecx*4]
  00293	d8 45 d4	 fadd	 DWORD PTR _dblZComb$[ebp]
  00296	d9 05 00 00 00
	00		 fld	 DWORD PTR ?dblR2@?1??Filter150Hz@@9@9
  0029c	8b 95 d8 fe ff
	ff		 mov	 edx, DWORD PTR _j$[ebp]
  002a2	d8 8c 95 f0 fe
	ff ff		 fmul	 DWORD PTR _dblZout_2$[ebp+edx*4]
  002a9	de e9		 fsubp	 ST(1), ST(0)
  002ab	8b 85 d8 fe ff
	ff		 mov	 eax, DWORD PTR _j$[ebp]
  002b1	d9 5c 85 88	 fstp	 DWORD PTR _dblZout_0$[ebp+eax*4]

; 565  : 			dblZout_2[j] = dblZout_1[j];

  002b5	8b 85 d8 fe ff
	ff		 mov	 eax, DWORD PTR _j$[ebp]
  002bb	8b 8d d8 fe ff
	ff		 mov	 ecx, DWORD PTR _j$[ebp]
  002c1	d9 84 8d 3c ff
	ff ff		 fld	 DWORD PTR _dblZout_1$[ebp+ecx*4]
  002c8	d9 9c 85 f0 fe
	ff ff		 fstp	 DWORD PTR _dblZout_2$[ebp+eax*4]

; 566  : 			dblZout_1[j] = dblZout_0[j];

  002cf	8b 85 d8 fe ff
	ff		 mov	 eax, DWORD PTR _j$[ebp]
  002d5	8b 8d d8 fe ff
	ff		 mov	 ecx, DWORD PTR _j$[ebp]
  002db	d9 44 8d 88	 fld	 DWORD PTR _dblZout_0$[ebp+ecx*4]
  002df	d9 9c 85 3c ff
	ff ff		 fstp	 DWORD PTR _dblZout_1$[ebp+eax*4]

; 567  : 	
; 568  : 			//	scale each by transition coeff and + (Even) or - (Odd) 
; 569  : 
; 570  : 			// Scaling also accomodates for the filter "gain" of approx 120. 
; 571  : 			// These transition coefficients fairly close to optimum for WGN 0db PSK4, 100 baud (yield highest average quality) 5/24/2014
; 572  :  
; 573  : 			if (j == 14 || j == 16)

  002e6	83 bd d8 fe ff
	ff 0e		 cmp	 DWORD PTR _j$[ebp], 14	; 0000000eH
  002ed	74 09		 je	 SHORT $LN2@Filter150H
  002ef	83 bd d8 fe ff
	ff 10		 cmp	 DWORD PTR _j$[ebp], 16	; 00000010H
  002f6	75 18		 jne	 SHORT $LN3@Filter150H
$LN2@Filter150H:

; 574  : 				FilterOut = 0.2f * dblZout_0[j];	 // this transisiton minimizes ringing and peaks

  002f8	8b 85 d8 fe ff
	ff		 mov	 eax, DWORD PTR _j$[ebp]
  002fe	d9 44 85 88	 fld	 DWORD PTR _dblZout_0$[ebp+eax*4]
  00302	dc 0d 00 00 00
	00		 fmul	 QWORD PTR __real@3fc99999a0000000
  00308	d9 9d cc fe ff
	ff		 fstp	 DWORD PTR _FilterOut$[ebp]

; 575  : 			else

  0030e	eb 16		 jmp	 SHORT $LN1@Filter150H
$LN3@Filter150H:

; 576  : 				FilterOut -= dblZout_0[j];

  00310	d9 85 cc fe ff
	ff		 fld	 DWORD PTR _FilterOut$[ebp]
  00316	8b 85 d8 fe ff
	ff		 mov	 eax, DWORD PTR _j$[ebp]
  0031c	d8 64 85 88	 fsub	 DWORD PTR _dblZout_0$[ebp+eax*4]
  00320	d9 9d cc fe ff
	ff		 fstp	 DWORD PTR _FilterOut$[ebp]
$LN1@Filter150H:

; 577  : 		}

  00326	e9 32 ff ff ff	 jmp	 $LN5@Filter150H
$LN4@Filter150H:

; 578  : 		intFilterOut[i] = (int)ceil(FilterOut * 0.00833333333);	 // rescales for gain of filter

  0032b	d9 85 cc fe ff
	ff		 fld	 DWORD PTR _FilterOut$[ebp]
  00331	dc 0d 00 00 00
	00		 fmul	 QWORD PTR __real@3f81111110f3bf11
  00337	83 ec 08	 sub	 esp, 8
  0033a	dd 1c 24	 fstp	 QWORD PTR [esp]
  0033d	e8 00 00 00 00	 call	 _ceil
  00342	83 c4 08	 add	 esp, 8
  00345	e8 00 00 00 00	 call	 __ftol2_sse
  0034a	8b 8d e4 fe ff
	ff		 mov	 ecx, DWORD PTR _i$[ebp]
  00350	8b 55 08	 mov	 edx, DWORD PTR _intFilterOut$[ebp]
  00353	66 89 04 4a	 mov	 WORD PTR [edx+ecx*2], ax

; 579  : 	}

  00357	e9 2b fe ff ff	 jmp	 $LN10@Filter150H
$LN9@Filter150H:

; 580  : 
; 581  : }

  0035c	52		 push	 edx
  0035d	8b cd		 mov	 ecx, ebp
  0035f	50		 push	 eax
  00360	8d 15 00 00 00
	00		 lea	 edx, DWORD PTR $LN22@Filter150H
  00366	e8 00 00 00 00	 call	 @_RTC_CheckStackVars@8
  0036b	58		 pop	 eax
  0036c	5a		 pop	 edx
  0036d	5f		 pop	 edi
  0036e	5e		 pop	 esi
  0036f	5b		 pop	 ebx
  00370	81 c4 10 02 00
	00		 add	 esp, 528		; 00000210H
  00376	3b ec		 cmp	 ebp, esp
  00378	e8 00 00 00 00	 call	 __RTC_CheckEsp
  0037d	8b e5		 mov	 esp, ebp
  0037f	5d		 pop	 ebp
  00380	c3		 ret	 0
  00381	8d 49 00	 npad	 3
$LN22@Filter150H:
  00384	03 00 00 00	 DD	 3
  00388	00 00 00 00	 DD	 $LN21@Filter150H
$LN21@Filter150H:
  0038c	88 ff ff ff	 DD	 -120			; ffffff88H
  00390	44 00 00 00	 DD	 68			; 00000044H
  00394	00 00 00 00	 DD	 $LN18@Filter150H
  00398	3c ff ff ff	 DD	 -196			; ffffff3cH
  0039c	44 00 00 00	 DD	 68			; 00000044H
  003a0	00 00 00 00	 DD	 $LN19@Filter150H
  003a4	f0 fe ff ff	 DD	 -272			; fffffef0H
  003a8	44 00 00 00	 DD	 68			; 00000044H
  003ac	00 00 00 00	 DD	 $LN20@Filter150H
$LN20@Filter150H:
  003b0	64		 DB	 100			; 00000064H
  003b1	62		 DB	 98			; 00000062H
  003b2	6c		 DB	 108			; 0000006cH
  003b3	5a		 DB	 90			; 0000005aH
  003b4	6f		 DB	 111			; 0000006fH
  003b5	75		 DB	 117			; 00000075H
  003b6	74		 DB	 116			; 00000074H
  003b7	5f		 DB	 95			; 0000005fH
  003b8	32		 DB	 50			; 00000032H
  003b9	00		 DB	 0
$LN19@Filter150H:
  003ba	64		 DB	 100			; 00000064H
  003bb	62		 DB	 98			; 00000062H
  003bc	6c		 DB	 108			; 0000006cH
  003bd	5a		 DB	 90			; 0000005aH
  003be	6f		 DB	 111			; 0000006fH
  003bf	75		 DB	 117			; 00000075H
  003c0	74		 DB	 116			; 00000074H
  003c1	5f		 DB	 95			; 0000005fH
  003c2	31		 DB	 49			; 00000031H
  003c3	00		 DB	 0
$LN18@Filter150H:
  003c4	64		 DB	 100			; 00000064H
  003c5	62		 DB	 98			; 00000062H
  003c6	6c		 DB	 108			; 0000006cH
  003c7	5a		 DB	 90			; 0000005aH
  003c8	6f		 DB	 111			; 0000006fH
  003c9	75		 DB	 117			; 00000075H
  003ca	74		 DB	 116			; 00000074H
  003cb	5f		 DB	 95			; 0000005fH
  003cc	30		 DB	 48			; 00000030H
  003cd	00		 DB	 0
_Filter150Hz ENDP
_TEXT	ENDS
PUBLIC	__real@3f70cb2960000000
PUBLIC	__real@3fd97aa260000000
PUBLIC	_Filter75Hz
_BSS	SEGMENT
?dblR2@?1??Filter75Hz@@9@9 DD 01H DUP (?)		; `Filter75Hz'::`2'::dblR2
?dblRn@?1??Filter75Hz@@9@9 DD 01H DUP (?)		; `Filter75Hz'::`2'::dblRn
_BSS	ENDS
;	COMDAT __real@3f70cb2960000000
CONST	SEGMENT
__real@3f70cb2960000000 DQ 03f70cb2960000000r	; 0.0041
CONST	ENDS
;	COMDAT __real@3fd97aa260000000
CONST	SEGMENT
__real@3fd97aa260000000 DQ 03fd97aa260000000r	; 0.39811
; Function compile flags: /Odtp /RTCsu /ZI
CONST	ENDS
;	COMDAT _Filter75Hz
_TEXT	SEGMENT
tv275 = -364						; size = 4
tv324 = -360						; size = 8
tv290 = -356						; size = 4
tv288 = -352						; size = 4
tv284 = -352						; size = 4
tv266 = -352						; size = 4
tv258 = -352						; size = 4
tv250 = -352						; size = 4
_largest$ = -152					; size = 4
_FilterOut$ = -140					; size = 4
_j$ = -128						; size = 4
_i$ = -116						; size = 4
_dblZout_2$ = -104					; size = 12
_dblZout_1$ = -84					; size = 12
_dblZout_0$ = -64					; size = 12
_dblZComb$ = -44					; size = 4
_dblZin_2$ = -32					; size = 4
_dblZin_1$ = -20					; size = 4
_dblZin$ = -8						; size = 4
_intFilterOut$ = 8					; size = 4
_blnInitialise$ = 12					; size = 4
_intSamplesToFilter$ = 16				; size = 4
_Filter75Hz PROC					; COMDAT

; 586  : {

  00000	55		 push	 ebp
  00001	8b ec		 mov	 ebp, esp
  00003	81 ec 6c 01 00
	00		 sub	 esp, 364		; 0000016cH
  00009	53		 push	 ebx
  0000a	56		 push	 esi
  0000b	57		 push	 edi
  0000c	8d bd 94 fe ff
	ff		 lea	 edi, DWORD PTR [ebp-364]
  00012	b9 5b 00 00 00	 mov	 ecx, 91			; 0000005bH
  00017	b8 cc cc cc cc	 mov	 eax, -858993460		; ccccccccH
  0001c	f3 ab		 rep stosd

; 587  : 	// assumes sample rate of 12000
; 588  : 	// implements  3 100 Hz wide sections   (~150 Hz wide @ - 30dB centered on 1500 Hz)
; 589  : 
; 590  : 	// FSF (Frequency Selective Filter) variables
; 591  : 
; 592  : 	static float dblR = 0.9995f;		// insures stability (must be < 1.0) (Value .9995 7/8/2013 gives good results)
; 593  : 	static int intN = 240;				//Length of filter 12000/50 - delays output 120 samples from input
; 594  : 	static float dblRn;
; 595  : 	static float dblR2;
; 596  : 	static float dblCoef[3] = {0.0};			// the coefficients
; 597  : 	float dblZin = 0, dblZin_1 = 0, dblZin_2 = 0, dblZComb= 0;  // Used in the comb generator

  0001e	d9 ee		 fldz
  00020	d9 5d f8	 fstp	 DWORD PTR _dblZin$[ebp]
  00023	d9 ee		 fldz
  00025	d9 5d ec	 fstp	 DWORD PTR _dblZin_1$[ebp]
  00028	d9 ee		 fldz
  0002a	d9 5d e0	 fstp	 DWORD PTR _dblZin_2$[ebp]
  0002d	d9 ee		 fldz
  0002f	d9 5d d4	 fstp	 DWORD PTR _dblZComb$[ebp]

; 598  : 	// The resonators 
; 599  :       
; 600  : 	float dblZout_0[3] = {0.0};	// resonator outputs

  00032	d9 ee		 fldz
  00034	d9 5d c0	 fstp	 DWORD PTR _dblZout_0$[ebp]
  00037	33 c0		 xor	 eax, eax
  00039	89 45 c4	 mov	 DWORD PTR _dblZout_0$[ebp+4], eax
  0003c	89 45 c8	 mov	 DWORD PTR _dblZout_0$[ebp+8], eax

; 601  : 	float dblZout_1[3] = {0.0};	// resonator outputs delayed one sample

  0003f	d9 ee		 fldz
  00041	d9 5d ac	 fstp	 DWORD PTR _dblZout_1$[ebp]
  00044	33 c0		 xor	 eax, eax
  00046	89 45 b0	 mov	 DWORD PTR _dblZout_1$[ebp+4], eax
  00049	89 45 b4	 mov	 DWORD PTR _dblZout_1$[ebp+8], eax

; 602  : 	float dblZout_2[3] = {0.0};	// resonator outputs delayed two samples

  0004c	d9 ee		 fldz
  0004e	d9 5d 98	 fstp	 DWORD PTR _dblZout_2$[ebp]
  00051	33 c0		 xor	 eax, eax
  00053	89 45 9c	 mov	 DWORD PTR _dblZout_2$[ebp+4], eax
  00056	89 45 a0	 mov	 DWORD PTR _dblZout_2$[ebp+8], eax

; 603  : 
; 604  : 	int i, j;
; 605  : 
; 606  : 	float FilterOut = 0;			//  Filtered sample

  00059	d9 ee		 fldz
  0005b	d9 9d 74 ff ff
	ff		 fstp	 DWORD PTR _FilterOut$[ebp]

; 607  : 	float largest = 0;

  00061	d9 ee		 fldz
  00063	d9 9d 68 ff ff
	ff		 fstp	 DWORD PTR _largest$[ebp]

; 608  : 
; 609  : 	dblRn = powf(dblR, intN);

  00069	db 05 00 00 00
	00		 fild	 DWORD PTR ?intN@?1??Filter75Hz@@9@9
  0006f	83 ec 08	 sub	 esp, 8
  00072	dd 1c 24	 fstp	 QWORD PTR [esp]
  00075	d9 05 00 00 00
	00		 fld	 DWORD PTR ?dblR@?1??Filter75Hz@@9@9
  0007b	83 ec 08	 sub	 esp, 8
  0007e	dd 1c 24	 fstp	 QWORD PTR [esp]
  00081	e8 00 00 00 00	 call	 _pow
  00086	83 c4 10	 add	 esp, 16			; 00000010H
  00089	d9 9d a0 fe ff
	ff		 fstp	 DWORD PTR tv250[ebp]
  0008f	d9 85 a0 fe ff
	ff		 fld	 DWORD PTR tv250[ebp]
  00095	d9 1d 00 00 00
	00		 fstp	 DWORD PTR ?dblRn@?1??Filter75Hz@@9@9

; 610  : 
; 611  : 	dblR2 = powf(dblR, 2);

  0009b	83 ec 08	 sub	 esp, 8
  0009e	dd 05 00 00 00
	00		 fld	 QWORD PTR __real@4000000000000000
  000a4	dd 1c 24	 fstp	 QWORD PTR [esp]
  000a7	d9 05 00 00 00
	00		 fld	 DWORD PTR ?dblR@?1??Filter75Hz@@9@9
  000ad	83 ec 08	 sub	 esp, 8
  000b0	dd 1c 24	 fstp	 QWORD PTR [esp]
  000b3	e8 00 00 00 00	 call	 _pow
  000b8	83 c4 10	 add	 esp, 16			; 00000010H
  000bb	d9 9d a0 fe ff
	ff		 fstp	 DWORD PTR tv258[ebp]
  000c1	d9 85 a0 fe ff
	ff		 fld	 DWORD PTR tv258[ebp]
  000c7	d9 1d 00 00 00
	00		 fstp	 DWORD PTR ?dblR2@?1??Filter75Hz@@9@9

; 612  : 
; 613  : 	// Initialize the coefficients
; 614  :     
; 615  : 	if (dblCoef[2] == 0)

  000cd	d9 05 08 00 00
	00		 fld	 DWORD PTR ?dblCoef@?1??Filter75Hz@@9@9+8
  000d3	dc 1d 00 00 00
	00		 fcomp	 QWORD PTR __real@0000000000000000
  000d9	df e0		 fnstsw	 ax
  000db	f6 c4 44	 test	 ah, 68			; 00000044H
  000de	7a 74		 jp	 SHORT $LN12@Filter75Hz

; 616  : 	{
; 617  : 		for (i = 0; i <= 3; i++)

  000e0	c7 45 8c 00 00
	00 00		 mov	 DWORD PTR _i$[ebp], 0
  000e7	eb 09		 jmp	 SHORT $LN14@Filter75Hz
$LN13@Filter75Hz:
  000e9	8b 45 8c	 mov	 eax, DWORD PTR _i$[ebp]
  000ec	83 c0 01	 add	 eax, 1
  000ef	89 45 8c	 mov	 DWORD PTR _i$[ebp], eax
$LN14@Filter75Hz:
  000f2	83 7d 8c 03	 cmp	 DWORD PTR _i$[ebp], 3
  000f6	7f 5c		 jg	 SHORT $LN12@Filter75Hz

; 618  : 		{
; 619  : 			dblCoef[i] = 2 * dblR * cosf(2 * M_PI * (29 + i)/ intN);  // For Frequency = bin 29, 30, 31

  000f8	d9 05 00 00 00
	00		 fld	 DWORD PTR ?dblR@?1??Filter75Hz@@9@9
  000fe	dc 0d 00 00 00
	00		 fmul	 QWORD PTR __real@4000000000000000
  00104	8b 45 8c	 mov	 eax, DWORD PTR _i$[ebp]
  00107	83 c0 1d	 add	 eax, 29			; 0000001dH
  0010a	89 85 a0 fe ff
	ff		 mov	 DWORD PTR tv266[ebp], eax
  00110	db 85 a0 fe ff
	ff		 fild	 DWORD PTR tv266[ebp]
  00116	dc 0d 00 00 00
	00		 fmul	 QWORD PTR __real@401921fb00000000
  0011c	da 35 00 00 00
	00		 fidiv	 DWORD PTR ?intN@?1??Filter75Hz@@9@9
  00122	83 ec 08	 sub	 esp, 8
  00125	dd 1c 24	 fstp	 QWORD PTR [esp]
  00128	dd 9d 98 fe ff
	ff		 fstp	 QWORD PTR tv324[ebp]
  0012e	e8 00 00 00 00	 call	 _cos
  00133	83 c4 08	 add	 esp, 8
  00136	d9 9d 94 fe ff
	ff		 fstp	 DWORD PTR tv275[ebp]
  0013c	d9 85 94 fe ff
	ff		 fld	 DWORD PTR tv275[ebp]
  00142	dc 8d 98 fe ff
	ff		 fmul	 QWORD PTR tv324[ebp]
  00148	8b 4d 8c	 mov	 ecx, DWORD PTR _i$[ebp]
  0014b	d9 1c 8d 00 00
	00 00		 fstp	 DWORD PTR ?dblCoef@?1??Filter75Hz@@9@9[ecx*4]

; 620  : 		}

  00152	eb 95		 jmp	 SHORT $LN13@Filter75Hz
$LN12@Filter75Hz:

; 621  : 	}
; 622  : 
; 623  : 	for (i = 0; i < intSamplesToFilter; i++)

  00154	c7 45 8c 00 00
	00 00		 mov	 DWORD PTR _i$[ebp], 0
  0015b	eb 09		 jmp	 SHORT $LN11@Filter75Hz
$LN10@Filter75Hz:
  0015d	8b 45 8c	 mov	 eax, DWORD PTR _i$[ebp]
  00160	83 c0 01	 add	 eax, 1
  00163	89 45 8c	 mov	 DWORD PTR _i$[ebp], eax
$LN11@Filter75Hz:
  00166	8b 45 8c	 mov	 eax, DWORD PTR _i$[ebp]
  00169	3b 45 10	 cmp	 eax, DWORD PTR _intSamplesToFilter$[ebp]
  0016c	0f 8d 6e 01 00
	00		 jge	 $LN9@Filter75Hz

; 624  : 	{
; 625  : 		if (i < intN)

  00172	8b 45 8c	 mov	 eax, DWORD PTR _i$[ebp]
  00175	3b 05 00 00 00
	00		 cmp	 eax, DWORD PTR ?intN@?1??Filter75Hz@@9@9
  0017b	7d 2f		 jge	 SHORT $LN8@Filter75Hz

; 626  : 			dblZin = intFilteredMixedSamples[intMFSReadPtr + i] - dblRn * 0;	// no prior mixed samples

  0017d	a1 00 00 00 00	 mov	 eax, DWORD PTR _intMFSReadPtr
  00182	03 45 8c	 add	 eax, DWORD PTR _i$[ebp]
  00185	0f bf 0c 45 00
	00 00 00	 movsx	 ecx, WORD PTR _intFilteredMixedSamples[eax*2]
  0018d	89 8d a0 fe ff
	ff		 mov	 DWORD PTR tv284[ebp], ecx
  00193	db 85 a0 fe ff
	ff		 fild	 DWORD PTR tv284[ebp]
  00199	d9 05 00 00 00
	00		 fld	 DWORD PTR ?dblRn@?1??Filter75Hz@@9@9
  0019f	dc 0d 00 00 00
	00		 fmul	 QWORD PTR __real@0000000000000000
  001a5	de e9		 fsubp	 ST(1), ST(0)
  001a7	d9 5d f8	 fstp	 DWORD PTR _dblZin$[ebp]

; 627  : 		else

  001aa	eb 4a		 jmp	 SHORT $LN7@Filter75Hz
$LN8@Filter75Hz:

; 628  : 			dblZin = intFilteredMixedSamples[intMFSReadPtr + i] - dblRn * intFilteredMixedSamples[intMFSReadPtr + i - intN];

  001ac	a1 00 00 00 00	 mov	 eax, DWORD PTR _intMFSReadPtr
  001b1	03 45 8c	 add	 eax, DWORD PTR _i$[ebp]
  001b4	0f bf 0c 45 00
	00 00 00	 movsx	 ecx, WORD PTR _intFilteredMixedSamples[eax*2]
  001bc	89 8d a0 fe ff
	ff		 mov	 DWORD PTR tv288[ebp], ecx
  001c2	db 85 a0 fe ff
	ff		 fild	 DWORD PTR tv288[ebp]
  001c8	8b 15 00 00 00
	00		 mov	 edx, DWORD PTR _intMFSReadPtr
  001ce	03 55 8c	 add	 edx, DWORD PTR _i$[ebp]
  001d1	2b 15 00 00 00
	00		 sub	 edx, DWORD PTR ?intN@?1??Filter75Hz@@9@9
  001d7	0f bf 04 55 00
	00 00 00	 movsx	 eax, WORD PTR _intFilteredMixedSamples[edx*2]
  001df	89 85 9c fe ff
	ff		 mov	 DWORD PTR tv290[ebp], eax
  001e5	db 85 9c fe ff
	ff		 fild	 DWORD PTR tv290[ebp]
  001eb	d8 0d 00 00 00
	00		 fmul	 DWORD PTR ?dblRn@?1??Filter75Hz@@9@9
  001f1	de e9		 fsubp	 ST(1), ST(0)
  001f3	d9 5d f8	 fstp	 DWORD PTR _dblZin$[ebp]
$LN7@Filter75Hz:

; 629  : 
; 630  : 		// Compute the Comb
; 631  : 		
; 632  : 		dblZComb = dblZin - dblZin_2 * dblR2;

  001f6	d9 45 e0	 fld	 DWORD PTR _dblZin_2$[ebp]
  001f9	d8 0d 00 00 00
	00		 fmul	 DWORD PTR ?dblR2@?1??Filter75Hz@@9@9
  001ff	d8 6d f8	 fsubr	 DWORD PTR _dblZin$[ebp]
  00202	d9 5d d4	 fstp	 DWORD PTR _dblZComb$[ebp]

; 633  : 		dblZin_2 = dblZin_1;

  00205	d9 45 ec	 fld	 DWORD PTR _dblZin_1$[ebp]
  00208	d9 5d e0	 fstp	 DWORD PTR _dblZin_2$[ebp]

; 634  : 		dblZin_1 = dblZin;

  0020b	d9 45 f8	 fld	 DWORD PTR _dblZin$[ebp]
  0020e	d9 5d ec	 fstp	 DWORD PTR _dblZin_1$[ebp]

; 635  : 
; 636  : 		// Now the resonators
; 637  : 
; 638  : 		for (j = 0; j < 3; j++)		   // calculate output for 3 resonators 

  00211	c7 45 80 00 00
	00 00		 mov	 DWORD PTR _j$[ebp], 0
  00218	eb 09		 jmp	 SHORT $LN6@Filter75Hz
$LN5@Filter75Hz:
  0021a	8b 45 80	 mov	 eax, DWORD PTR _j$[ebp]
  0021d	83 c0 01	 add	 eax, 1
  00220	89 45 80	 mov	 DWORD PTR _j$[ebp], eax
$LN6@Filter75Hz:
  00223	83 7d 80 03	 cmp	 DWORD PTR _j$[ebp], 3
  00227	0f 8d 85 00 00
	00		 jge	 $LN4@Filter75Hz

; 639  : 		{
; 640  : 			dblZout_0[j] = dblZComb + dblCoef[j] * dblZout_1[j] - dblR2 * dblZout_2[j];

  0022d	8b 45 80	 mov	 eax, DWORD PTR _j$[ebp]
  00230	d9 04 85 00 00
	00 00		 fld	 DWORD PTR ?dblCoef@?1??Filter75Hz@@9@9[eax*4]
  00237	8b 4d 80	 mov	 ecx, DWORD PTR _j$[ebp]
  0023a	d8 4c 8d ac	 fmul	 DWORD PTR _dblZout_1$[ebp+ecx*4]
  0023e	d8 45 d4	 fadd	 DWORD PTR _dblZComb$[ebp]
  00241	d9 05 00 00 00
	00		 fld	 DWORD PTR ?dblR2@?1??Filter75Hz@@9@9
  00247	8b 55 80	 mov	 edx, DWORD PTR _j$[ebp]
  0024a	d8 4c 95 98	 fmul	 DWORD PTR _dblZout_2$[ebp+edx*4]
  0024e	de e9		 fsubp	 ST(1), ST(0)
  00250	8b 45 80	 mov	 eax, DWORD PTR _j$[ebp]
  00253	d9 5c 85 c0	 fstp	 DWORD PTR _dblZout_0$[ebp+eax*4]

; 641  : 			dblZout_2[j] = dblZout_1[j];

  00257	8b 45 80	 mov	 eax, DWORD PTR _j$[ebp]
  0025a	8b 4d 80	 mov	 ecx, DWORD PTR _j$[ebp]
  0025d	d9 44 8d ac	 fld	 DWORD PTR _dblZout_1$[ebp+ecx*4]
  00261	d9 5c 85 98	 fstp	 DWORD PTR _dblZout_2$[ebp+eax*4]

; 642  : 			dblZout_1[j] = dblZout_0[j];

  00265	8b 45 80	 mov	 eax, DWORD PTR _j$[ebp]
  00268	8b 4d 80	 mov	 ecx, DWORD PTR _j$[ebp]
  0026b	d9 44 8d c0	 fld	 DWORD PTR _dblZout_0$[ebp+ecx*4]
  0026f	d9 5c 85 ac	 fstp	 DWORD PTR _dblZout_1$[ebp+eax*4]

; 643  : 	
; 644  : 			//	scale each by transition coeff and + (Even) or - (Odd) 
; 645  : 
; 646  : 			// Scaling also accomodates for the filter "gain" of approx 120. 
; 647  : 			// These transition coefficients fairly close to optimum for WGN 0db PSK4, 100 baud (yield highest average quality) 5/24/2014
; 648  :  
; 649  : 			if (j == 0 || j == 2)

  00273	83 7d 80 00	 cmp	 DWORD PTR _j$[ebp], 0
  00277	74 06		 je	 SHORT $LN2@Filter75Hz
  00279	83 7d 80 02	 cmp	 DWORD PTR _j$[ebp], 2
  0027d	75 1b		 jne	 SHORT $LN3@Filter75Hz
$LN2@Filter75Hz:

; 650  : 				FilterOut -= 0.39811f * dblZout_0[j];	 // this transisiton minimizes ringing and peaks

  0027f	8b 45 80	 mov	 eax, DWORD PTR _j$[ebp]
  00282	d9 44 85 c0	 fld	 DWORD PTR _dblZout_0$[ebp+eax*4]
  00286	dc 0d 00 00 00
	00		 fmul	 QWORD PTR __real@3fd97aa260000000
  0028c	d8 ad 74 ff ff
	ff		 fsubr	 DWORD PTR _FilterOut$[ebp]
  00292	d9 9d 74 ff ff
	ff		 fstp	 DWORD PTR _FilterOut$[ebp]

; 651  : 			else

  00298	eb 13		 jmp	 SHORT $LN1@Filter75Hz
$LN3@Filter75Hz:

; 652  : 				FilterOut += dblZout_0[j];

  0029a	d9 85 74 ff ff
	ff		 fld	 DWORD PTR _FilterOut$[ebp]
  002a0	8b 45 80	 mov	 eax, DWORD PTR _j$[ebp]
  002a3	d8 44 85 c0	 fadd	 DWORD PTR _dblZout_0$[ebp+eax*4]
  002a7	d9 9d 74 ff ff
	ff		 fstp	 DWORD PTR _FilterOut$[ebp]
$LN1@Filter75Hz:

; 653  : 		}

  002ad	e9 68 ff ff ff	 jmp	 $LN5@Filter75Hz
$LN4@Filter75Hz:

; 654  : 		intFilterOut[i] = (int)ceil(FilterOut * 0.0041f);	 // rescales for gain of filter

  002b2	d9 85 74 ff ff
	ff		 fld	 DWORD PTR _FilterOut$[ebp]
  002b8	dc 0d 00 00 00
	00		 fmul	 QWORD PTR __real@3f70cb2960000000
  002be	83 ec 08	 sub	 esp, 8
  002c1	dd 1c 24	 fstp	 QWORD PTR [esp]
  002c4	e8 00 00 00 00	 call	 _ceil
  002c9	83 c4 08	 add	 esp, 8
  002cc	e8 00 00 00 00	 call	 __ftol2_sse
  002d1	8b 4d 8c	 mov	 ecx, DWORD PTR _i$[ebp]
  002d4	8b 55 08	 mov	 edx, DWORD PTR _intFilterOut$[ebp]
  002d7	66 89 04 4a	 mov	 WORD PTR [edx+ecx*2], ax

; 655  : 	}

  002db	e9 7d fe ff ff	 jmp	 $LN10@Filter75Hz
$LN9@Filter75Hz:

; 656  : }

  002e0	52		 push	 edx
  002e1	8b cd		 mov	 ecx, ebp
  002e3	50		 push	 eax
  002e4	8d 15 00 00 00
	00		 lea	 edx, DWORD PTR $LN22@Filter75Hz
  002ea	e8 00 00 00 00	 call	 @_RTC_CheckStackVars@8
  002ef	58		 pop	 eax
  002f0	5a		 pop	 edx
  002f1	5f		 pop	 edi
  002f2	5e		 pop	 esi
  002f3	5b		 pop	 ebx
  002f4	81 c4 6c 01 00
	00		 add	 esp, 364		; 0000016cH
  002fa	3b ec		 cmp	 ebp, esp
  002fc	e8 00 00 00 00	 call	 __RTC_CheckEsp
  00301	8b e5		 mov	 esp, ebp
  00303	5d		 pop	 ebp
  00304	c3		 ret	 0
  00305	8d 49 00	 npad	 3
$LN22@Filter75Hz:
  00308	03 00 00 00	 DD	 3
  0030c	00 00 00 00	 DD	 $LN21@Filter75Hz
$LN21@Filter75Hz:
  00310	c0 ff ff ff	 DD	 -64			; ffffffc0H
  00314	0c 00 00 00	 DD	 12			; 0000000cH
  00318	00 00 00 00	 DD	 $LN18@Filter75Hz
  0031c	ac ff ff ff	 DD	 -84			; ffffffacH
  00320	0c 00 00 00	 DD	 12			; 0000000cH
  00324	00 00 00 00	 DD	 $LN19@Filter75Hz
  00328	98 ff ff ff	 DD	 -104			; ffffff98H
  0032c	0c 00 00 00	 DD	 12			; 0000000cH
  00330	00 00 00 00	 DD	 $LN20@Filter75Hz
$LN20@Filter75Hz:
  00334	64		 DB	 100			; 00000064H
  00335	62		 DB	 98			; 00000062H
  00336	6c		 DB	 108			; 0000006cH
  00337	5a		 DB	 90			; 0000005aH
  00338	6f		 DB	 111			; 0000006fH
  00339	75		 DB	 117			; 00000075H
  0033a	74		 DB	 116			; 00000074H
  0033b	5f		 DB	 95			; 0000005fH
  0033c	32		 DB	 50			; 00000032H
  0033d	00		 DB	 0
$LN19@Filter75Hz:
  0033e	64		 DB	 100			; 00000064H
  0033f	62		 DB	 98			; 00000062H
  00340	6c		 DB	 108			; 0000006cH
  00341	5a		 DB	 90			; 0000005aH
  00342	6f		 DB	 111			; 0000006fH
  00343	75		 DB	 117			; 00000075H
  00344	74		 DB	 116			; 00000074H
  00345	5f		 DB	 95			; 0000005fH
  00346	31		 DB	 49			; 00000031H
  00347	00		 DB	 0
$LN18@Filter75Hz:
  00348	64		 DB	 100			; 00000064H
  00349	62		 DB	 98			; 00000062H
  0034a	6c		 DB	 108			; 0000006cH
  0034b	5a		 DB	 90			; 0000005aH
  0034c	6f		 DB	 111			; 0000006fH
  0034d	75		 DB	 117			; 00000075H
  0034e	74		 DB	 116			; 00000074H
  0034f	5f		 DB	 95			; 0000005fH
  00350	30		 DB	 48			; 00000030H
  00351	00		 DB	 0
_Filter75Hz ENDP
_TEXT	ENDS
PUBLIC	__real@40c7700000000000
PUBLIC	__real@40a7700000000000
PUBLIC	__$ArrayPad$
PUBLIC	_MixNCOFilter
EXTRN	___security_cookie:DWORD
EXTRN	@__security_check_cookie@4:PROC
;	COMDAT __real@40c7700000000000
CONST	SEGMENT
__real@40c7700000000000 DQ 040c7700000000000r	; 12000
CONST	ENDS
;	COMDAT __real@40a7700000000000
CONST	SEGMENT
__real@40a7700000000000 DQ 040a7700000000000r	; 3000
; Function compile flags: /Odtp /RTCsu /ZI
CONST	ENDS
;	COMDAT _MixNCOFilter
_TEXT	SEGMENT
tv163 = -2648						; size = 4
tv154 = -2644						; size = 4
tv177 = -2640						; size = 8
tv149 = -2632						; size = 4
_intMixedSamplesLength$ = -2432				; size = 4
_intMixedSamples$ = -2420				; size = 2400
_i$ = -12						; size = 4
__$ArrayPad$ = -4					; size = 4
_intNewSamples$ = 8					; size = 4
_Length$ = 12						; size = 4
_dblOffsetHz$ = 16					; size = 4
_MixNCOFilter PROC					; COMDAT

; 661  : {

  00000	55		 push	 ebp
  00001	8b ec		 mov	 ebp, esp
  00003	81 ec 58 0a 00
	00		 sub	 esp, 2648		; 00000a58H
  00009	53		 push	 ebx
  0000a	56		 push	 esi
  0000b	57		 push	 edi
  0000c	8d bd a8 f5 ff
	ff		 lea	 edi, DWORD PTR [ebp-2648]
  00012	b9 96 02 00 00	 mov	 ecx, 662		; 00000296H
  00017	b8 cc cc cc cc	 mov	 eax, -858993460		; ccccccccH
  0001c	f3 ab		 rep stosd
  0001e	a1 00 00 00 00	 mov	 eax, DWORD PTR ___security_cookie
  00023	33 c5		 xor	 eax, ebp
  00025	89 45 fc	 mov	 DWORD PTR __$ArrayPad$[ebp], eax

; 662  : 	// Correct the dimension of intPriorMixedSamples if needed (should only happen after a bandwidth setting change). 
; 663  : 
; 664  : 	int i;
; 665  : 	short intMixedSamples[1200];	// All we need at once ( I hope!)		// may need to be int
; 666  : 	int	intMixedSamplesLength ;		//size of intMixedSamples
; 667  : 
; 668  : 	if (Length == 0)

  00028	83 7d 0c 00	 cmp	 DWORD PTR _Length$[ebp], 0
  0002c	75 05		 jne	 SHORT $LN5@MixNCOFilt

; 669  : 		return;

  0002e	e9 0e 01 00 00	 jmp	 $LN6@MixNCOFilt
$LN5@MixNCOFilt:

; 670  : 
; 671  : 	// Nominal NCO freq is 3000 Hz  to downmix intNewSamples  (NCO - Fnew) to center of 1500 Hz (invertes the sideband too) 
; 672  : 
; 673  : 	dblNCOFreq = 3000 + dblOffsetHz;

  00033	d9 45 10	 fld	 DWORD PTR _dblOffsetHz$[ebp]
  00036	dc 05 00 00 00
	00		 fadd	 QWORD PTR __real@40a7700000000000
  0003c	d9 1d 00 00 00
	00		 fstp	 DWORD PTR _dblNCOFreq

; 674  : 	dblNCOPhaseInc = dblNCOFreq * dbl2Pi / 12000;

  00042	d9 05 00 00 00
	00		 fld	 DWORD PTR _dblNCOFreq
  00048	d8 0d 00 00 00
	00		 fmul	 DWORD PTR _dbl2Pi
  0004e	dc 35 00 00 00
	00		 fdiv	 QWORD PTR __real@40c7700000000000
  00054	d9 1d 00 00 00
	00		 fstp	 DWORD PTR _dblNCOPhaseInc

; 675  : 
; 676  : 	intMixedSamplesLength = Length;

  0005a	8b 45 0c	 mov	 eax, DWORD PTR _Length$[ebp]
  0005d	89 85 80 f6 ff
	ff		 mov	 DWORD PTR _intMixedSamplesLength$[ebp], eax

; 677  : 
; 678  : 	for (i = 0; i < Length; i++)

  00063	c7 45 f4 00 00
	00 00		 mov	 DWORD PTR _i$[ebp], 0
  0006a	eb 09		 jmp	 SHORT $LN4@MixNCOFilt
$LN3@MixNCOFilt:
  0006c	8b 45 f4	 mov	 eax, DWORD PTR _i$[ebp]
  0006f	83 c0 01	 add	 eax, 1
  00072	89 45 f4	 mov	 DWORD PTR _i$[ebp], eax
$LN4@MixNCOFilt:
  00075	8b 45 f4	 mov	 eax, DWORD PTR _i$[ebp]
  00078	3b 45 0c	 cmp	 eax, DWORD PTR _Length$[ebp]
  0007b	0f 8d aa 00 00
	00		 jge	 $LN2@MixNCOFilt

; 679  : 	{
; 680  : 		intMixedSamples[i] = (int)ceilf(intNewSamples[i] * cosf(dblNCOPhase));  // later may want a lower "cost" implementation of "Cos"

  00081	8b 45 f4	 mov	 eax, DWORD PTR _i$[ebp]
  00084	8b 4d 08	 mov	 ecx, DWORD PTR _intNewSamples$[ebp]
  00087	0f bf 14 41	 movsx	 edx, WORD PTR [ecx+eax*2]
  0008b	89 95 b8 f5 ff
	ff		 mov	 DWORD PTR tv149[ebp], edx
  00091	db 85 b8 f5 ff
	ff		 fild	 DWORD PTR tv149[ebp]
  00097	d9 05 00 00 00
	00		 fld	 DWORD PTR _dblNCOPhase
  0009d	83 ec 08	 sub	 esp, 8
  000a0	dd 1c 24	 fstp	 QWORD PTR [esp]
  000a3	dd 9d b0 f5 ff
	ff		 fstp	 QWORD PTR tv177[ebp]
  000a9	e8 00 00 00 00	 call	 _cos
  000ae	83 c4 08	 add	 esp, 8
  000b1	d9 9d ac f5 ff
	ff		 fstp	 DWORD PTR tv154[ebp]
  000b7	d9 85 ac f5 ff
	ff		 fld	 DWORD PTR tv154[ebp]
  000bd	dc 8d b0 f5 ff
	ff		 fmul	 QWORD PTR tv177[ebp]
  000c3	83 ec 08	 sub	 esp, 8
  000c6	dd 1c 24	 fstp	 QWORD PTR [esp]
  000c9	e8 00 00 00 00	 call	 _ceil
  000ce	83 c4 08	 add	 esp, 8
  000d1	d9 9d a8 f5 ff
	ff		 fstp	 DWORD PTR tv163[ebp]
  000d7	d9 85 a8 f5 ff
	ff		 fld	 DWORD PTR tv163[ebp]
  000dd	e8 00 00 00 00	 call	 __ftol2_sse
  000e2	8b 4d f4	 mov	 ecx, DWORD PTR _i$[ebp]
  000e5	66 89 84 4d 8c
	f6 ff ff	 mov	 WORD PTR _intMixedSamples$[ebp+ecx*2], ax

; 681  : 		dblNCOPhase += dblNCOPhaseInc;

  000ed	d9 05 00 00 00
	00		 fld	 DWORD PTR _dblNCOPhase
  000f3	d8 05 00 00 00
	00		 fadd	 DWORD PTR _dblNCOPhaseInc
  000f9	d9 1d 00 00 00
	00		 fstp	 DWORD PTR _dblNCOPhase

; 682  : 		if (dblNCOPhase > dbl2Pi)

  000ff	d9 05 00 00 00
	00		 fld	 DWORD PTR _dblNCOPhase
  00105	d9 05 00 00 00
	00		 fld	 DWORD PTR _dbl2Pi
  0010b	de d9		 fcompp
  0010d	df e0		 fnstsw	 ax
  0010f	f6 c4 05	 test	 ah, 5
  00112	7a 12		 jp	 SHORT $LN1@MixNCOFilt

; 683  : 			dblNCOPhase -= dbl2Pi;

  00114	d9 05 00 00 00
	00		 fld	 DWORD PTR _dblNCOPhase
  0011a	d8 25 00 00 00
	00		 fsub	 DWORD PTR _dbl2Pi
  00120	d9 1d 00 00 00
	00		 fstp	 DWORD PTR _dblNCOPhase
$LN1@MixNCOFilt:

; 684  : 	}

  00126	e9 41 ff ff ff	 jmp	 $LN3@MixNCOFilt
$LN2@MixNCOFilt:

; 685  : 
; 686  : 	
; 687  : 	
; 688  : 	// showed no significant difference if the 2000 Hz filer used for all bandwidths.
; 689  : //	printtick("Start Filter");
; 690  : 	FSMixFilter2000Hz(intMixedSamples, intMixedSamplesLength);   // filter through the FS filter (required to reject image from Local oscillator)

  0012b	8b 85 80 f6 ff
	ff		 mov	 eax, DWORD PTR _intMixedSamplesLength$[ebp]
  00131	50		 push	 eax
  00132	8d 8d 8c f6 ff
	ff		 lea	 ecx, DWORD PTR _intMixedSamples$[ebp]
  00138	51		 push	 ecx
  00139	e8 00 00 00 00	 call	 _FSMixFilter2000Hz
  0013e	83 c4 08	 add	 esp, 8
$LN6@MixNCOFilt:

; 691  : //	printtick("Done Filter");
; 692  : 
; 693  : 	// save for analysys
; 694  : 
; 695  : //	WriteSamples(&intFilteredMixedSamples[oldlen], Length);
; 696  : //	WriteSamples(intMixedSamples, Length);
; 697  : 
; 698  : }

  00141	52		 push	 edx
  00142	8b cd		 mov	 ecx, ebp
  00144	50		 push	 eax
  00145	8d 15 00 00 00
	00		 lea	 edx, DWORD PTR $LN10@MixNCOFilt
  0014b	e8 00 00 00 00	 call	 @_RTC_CheckStackVars@8
  00150	58		 pop	 eax
  00151	5a		 pop	 edx
  00152	5f		 pop	 edi
  00153	5e		 pop	 esi
  00154	5b		 pop	 ebx
  00155	8b 4d fc	 mov	 ecx, DWORD PTR __$ArrayPad$[ebp]
  00158	33 cd		 xor	 ecx, ebp
  0015a	e8 00 00 00 00	 call	 @__security_check_cookie@4
  0015f	81 c4 58 0a 00
	00		 add	 esp, 2648		; 00000a58H
  00165	3b ec		 cmp	 ebp, esp
  00167	e8 00 00 00 00	 call	 __RTC_CheckEsp
  0016c	8b e5		 mov	 esp, ebp
  0016e	5d		 pop	 ebp
  0016f	c3		 ret	 0
$LN10@MixNCOFilt:
  00170	01 00 00 00	 DD	 1
  00174	00 00 00 00	 DD	 $LN9@MixNCOFilt
$LN9@MixNCOFilt:
  00178	8c f6 ff ff	 DD	 -2420			; fffff68cH
  0017c	60 09 00 00	 DD	 2400			; 00000960H
  00180	00 00 00 00	 DD	 $LN8@MixNCOFilt
$LN8@MixNCOFilt:
  00184	69		 DB	 105			; 00000069H
  00185	6e		 DB	 110			; 0000006eH
  00186	74		 DB	 116			; 00000074H
  00187	4d		 DB	 77			; 0000004dH
  00188	69		 DB	 105			; 00000069H
  00189	78		 DB	 120			; 00000078H
  0018a	65		 DB	 101			; 00000065H
  0018b	64		 DB	 100			; 00000064H
  0018c	53		 DB	 83			; 00000053H
  0018d	61		 DB	 97			; 00000061H
  0018e	6d		 DB	 109			; 0000006dH
  0018f	70		 DB	 112			; 00000070H
  00190	6c		 DB	 108			; 0000006cH
  00191	65		 DB	 101			; 00000065H
  00192	73		 DB	 115			; 00000073H
  00193	00		 DB	 0
_MixNCOFilter ENDP
_TEXT	ENDS
PUBLIC	??_C@_0DD@GKIILJHI@?$FLDemodDecode4FSKData?$FN?5RS?5says?5ok@ ; `string'
PUBLIC	??_C@_0DA@GNDHNMDG@?$FLDemodDecode4FSKData?$FN?5OK?5with?5RS@ ; `string'
PUBLIC	??_C@_0CM@BJAFNGBK@?$FLDemodDecode4FSKData?$FN?5RS?5Says?5Ca@ ; `string'
PUBLIC	??_C@_0CE@GIJINHBJ@?$FLDemodDecode4FSKData?$FN?5OK?5without@ ; `string'
PUBLIC	??_C@_0DB@CAEKLCDD@?$FLDemodDecode4FSKData?$FN?5Carrier?5?$CFd@ ; `string'
PUBLIC	_CorrectRawDataWithRS
EXTRN	_NErrors:DWORD
EXTRN	_RSDecode:PROC
EXTRN	_CheckCRC16FrameType:PROC
EXTRN	_WriteDebugLog:PROC
EXTRN	_memcpy:PROC
;	COMDAT ??_C@_0DD@GKIILJHI@?$FLDemodDecode4FSKData?$FN?5RS?5says?5ok@
CONST	SEGMENT
??_C@_0DD@GKIILJHI@?$FLDemodDecode4FSKData?$FN?5RS?5says?5ok@ DB '[DemodD'
	DB	'ecode4FSKData] RS says ok but CRC still bad', 00H ; `string'
CONST	ENDS
;	COMDAT ??_C@_0DA@GNDHNMDG@?$FLDemodDecode4FSKData?$FN?5OK?5with?5RS@
CONST	SEGMENT
??_C@_0DA@GNDHNMDG@?$FLDemodDecode4FSKData?$FN?5OK?5with?5RS@ DB '[DemodD'
	DB	'ecode4FSKData] OK with RS %d corrections', 00H ; `string'
CONST	ENDS
;	COMDAT ??_C@_0CM@BJAFNGBK@?$FLDemodDecode4FSKData?$FN?5RS?5Says?5Ca@
CONST	SEGMENT
??_C@_0CM@BJAFNGBK@?$FLDemodDecode4FSKData?$FN?5RS?5Says?5Ca@ DB '[DemodD'
	DB	'ecode4FSKData] RS Says Can''t Correct', 00H	; `string'
CONST	ENDS
;	COMDAT ??_C@_0CE@GIJINHBJ@?$FLDemodDecode4FSKData?$FN?5OK?5without@
CONST	SEGMENT
??_C@_0CE@GIJINHBJ@?$FLDemodDecode4FSKData?$FN?5OK?5without@ DB '[DemodDe'
	DB	'code4FSKData] OK without RS', 00H		; `string'
CONST	ENDS
;	COMDAT ??_C@_0DB@CAEKLCDD@?$FLDemodDecode4FSKData?$FN?5Carrier?5?$CFd@
CONST	SEGMENT
??_C@_0DB@CAEKLCDD@?$FLDemodDecode4FSKData?$FN?5Carrier?5?$CFd@ DB '[Demo'
	DB	'dDecode4FSKData] Carrier %d already decoded', 00H ; `string'
; Function compile flags: /Odtp /RTCsu /ZI
CONST	ENDS
;	COMDAT _CorrectRawDataWithRS
_TEXT	SEGMENT
_intFailedByteCnt$5792 = -32				; size = 4
_FrameOK$ = -20						; size = 4
_blnRSOK$ = -8						; size = 4
_bytRawData$ = 8					; size = 4
_bytCorrectedData$ = 12					; size = 4
_intDataLen$ = 16					; size = 4
_intRSLen$ = 20						; size = 4
_bytFrameType$ = 24					; size = 4
_Carrier$ = 28						; size = 4
_CorrectRawDataWithRS PROC				; COMDAT

; 703  : {

  00000	55		 push	 ebp
  00001	8b ec		 mov	 ebp, esp
  00003	81 ec e4 00 00
	00		 sub	 esp, 228		; 000000e4H
  00009	53		 push	 ebx
  0000a	56		 push	 esi
  0000b	57		 push	 edi
  0000c	8d bd 1c ff ff
	ff		 lea	 edi, DWORD PTR [ebp-228]
  00012	b9 39 00 00 00	 mov	 ecx, 57			; 00000039H
  00017	b8 cc cc cc cc	 mov	 eax, -858993460		; ccccccccH
  0001c	f3 ab		 rep stosd

; 704  : 	BOOL blnRSOK;
; 705  : 	BOOL FrameOK;
; 706  : 
; 707  : 	//Dim bytNoRS(1 + intDataLen + 2 - 1) As Byte  ' 1 byte byte Count, Data, 2 byte CRC 
; 708  : 	//Array.Copy(bytRawData, 0, bytNoRS, 0, bytNoRS.Length)
; 709  : 
; 710  : 	if (CarrierOk[Carrier])	// Already decoded this carrier?

  0001e	8b 45 1c	 mov	 eax, DWORD PTR _Carrier$[ebp]
  00021	0f be 88 00 00
	00 00		 movsx	 ecx, BYTE PTR _CarrierOk[eax]
  00028	85 c9		 test	 ecx, ecx
  0002a	74 36		 je	 SHORT $LN8@CorrectRaw

; 711  : 	{
; 712  : 		// Athough we have already checked the data, it may be in the wrong place
; 713  : 		// in the buffer if another carrier was decoded wrong.
; 714  : 
; 715  : 		memcpy(bytCorrectedData, &bytRawData[1], bytRawData[0]);    

  0002c	8b 45 08	 mov	 eax, DWORD PTR _bytRawData$[ebp]
  0002f	0f b6 08	 movzx	 ecx, BYTE PTR [eax]
  00032	51		 push	 ecx
  00033	8b 55 08	 mov	 edx, DWORD PTR _bytRawData$[ebp]
  00036	83 c2 01	 add	 edx, 1
  00039	52		 push	 edx
  0003a	8b 45 0c	 mov	 eax, DWORD PTR _bytCorrectedData$[ebp]
  0003d	50		 push	 eax
  0003e	e8 00 00 00 00	 call	 _memcpy
  00043	83 c4 0c	 add	 esp, 12			; 0000000cH

; 716  : 
; 717  : 		WriteDebugLog("[DemodDecode4FSKData] Carrier %d already decoded", Carrier);

  00046	8b 45 1c	 mov	 eax, DWORD PTR _Carrier$[ebp]
  00049	50		 push	 eax
  0004a	68 00 00 00 00	 push	 OFFSET ??_C@_0DB@CAEKLCDD@?$FLDemodDecode4FSKData?$FN?5Carrier?5?$CFd@
  0004f	e8 00 00 00 00	 call	 _WriteDebugLog
  00054	83 c4 08	 add	 esp, 8

; 718  : 		return bytRawData[0];			// don't do it again

  00057	8b 45 08	 mov	 eax, DWORD PTR _bytRawData$[ebp]
  0005a	0f b6 00	 movzx	 eax, BYTE PTR [eax]
  0005d	e9 45 01 00 00	 jmp	 $LN9@CorrectRaw
$LN8@CorrectRaw:

; 719  : 	}
; 720  : 
; 721  : 	if (CheckCRC16FrameType(bytRawData, intDataLen + 1, bytFrameType)) // No RS correction needed

  00062	8a 45 18	 mov	 al, BYTE PTR _bytFrameType$[ebp]
  00065	50		 push	 eax
  00066	8b 4d 10	 mov	 ecx, DWORD PTR _intDataLen$[ebp]
  00069	83 c1 01	 add	 ecx, 1
  0006c	51		 push	 ecx
  0006d	8b 55 08	 mov	 edx, DWORD PTR _bytRawData$[ebp]
  00070	52		 push	 edx
  00071	e8 00 00 00 00	 call	 _CheckCRC16FrameType
  00076	83 c4 0c	 add	 esp, 12			; 0000000cH
  00079	85 c0		 test	 eax, eax
  0007b	74 3c		 je	 SHORT $LN7@CorrectRaw

; 722  : 	{
; 723  : 		// return the actual data
; 724  : 		
; 725  : 		memcpy(bytCorrectedData, &bytRawData[1], bytRawData[0]);    

  0007d	8b 45 08	 mov	 eax, DWORD PTR _bytRawData$[ebp]
  00080	0f b6 08	 movzx	 ecx, BYTE PTR [eax]
  00083	51		 push	 ecx
  00084	8b 55 08	 mov	 edx, DWORD PTR _bytRawData$[ebp]
  00087	83 c2 01	 add	 edx, 1
  0008a	52		 push	 edx
  0008b	8b 45 0c	 mov	 eax, DWORD PTR _bytCorrectedData$[ebp]
  0008e	50		 push	 eax
  0008f	e8 00 00 00 00	 call	 _memcpy
  00094	83 c4 0c	 add	 esp, 12			; 0000000cH

; 726  : 		WriteDebugLog("[DemodDecode4FSKData] OK without RS");

  00097	68 00 00 00 00	 push	 OFFSET ??_C@_0CE@GIJINHBJ@?$FLDemodDecode4FSKData?$FN?5OK?5without@
  0009c	e8 00 00 00 00	 call	 _WriteDebugLog
  000a1	83 c4 04	 add	 esp, 4

; 727  : 		CarrierOk[Carrier] = TRUE;

  000a4	8b 45 1c	 mov	 eax, DWORD PTR _Carrier$[ebp]
  000a7	c6 80 00 00 00
	00 01		 mov	 BYTE PTR _CarrierOk[eax], 1

; 728  : 		return bytRawData[0];

  000ae	8b 45 08	 mov	 eax, DWORD PTR _bytRawData$[ebp]
  000b1	0f b6 00	 movzx	 eax, BYTE PTR [eax]
  000b4	e9 ee 00 00 00	 jmp	 $LN9@CorrectRaw
$LN7@CorrectRaw:

; 729  : 	}
; 730  : 	
; 731  : 	// Try correcting with RS Parity
; 732  : 
; 733  : 	FrameOK = RSDecode(bytRawData, intDataLen + 3 + intRSLen, intRSLen, &blnRSOK);

  000b9	8d 45 f8	 lea	 eax, DWORD PTR _blnRSOK$[ebp]
  000bc	50		 push	 eax
  000bd	8b 4d 14	 mov	 ecx, DWORD PTR _intRSLen$[ebp]
  000c0	51		 push	 ecx
  000c1	8b 55 14	 mov	 edx, DWORD PTR _intRSLen$[ebp]
  000c4	8b 45 10	 mov	 eax, DWORD PTR _intDataLen$[ebp]
  000c7	8d 4c 10 03	 lea	 ecx, DWORD PTR [eax+edx+3]
  000cb	51		 push	 ecx
  000cc	8b 55 08	 mov	 edx, DWORD PTR _bytRawData$[ebp]
  000cf	52		 push	 edx
  000d0	e8 00 00 00 00	 call	 _RSDecode
  000d5	83 c4 10	 add	 esp, 16			; 00000010H
  000d8	89 45 ec	 mov	 DWORD PTR _FrameOK$[ebp], eax

; 734  : 
; 735  : 	if (blnRSOK)

  000db	83 7d f8 00	 cmp	 DWORD PTR _blnRSOK$[ebp], 0
  000df	74 02		 je	 SHORT $LN6@CorrectRaw

; 736  : 	{}
; 737  : //		WriteDebugLog("RS Says OK without correction");
; 738  : 	else

  000e1	eb 1a		 jmp	 SHORT $LN5@CorrectRaw
$LN6@CorrectRaw:

; 739  : 	if (FrameOK)

  000e3	83 7d ec 00	 cmp	 DWORD PTR _FrameOK$[ebp], 0
  000e7	74 02		 je	 SHORT $LN4@CorrectRaw

; 740  : 	{}
; 741  : //		WriteDebugLog("RS Says OK after %d correction(s)", NErrors);
; 742  : 	else

  000e9	eb 12		 jmp	 SHORT $LN5@CorrectRaw
$LN4@CorrectRaw:

; 743  : 	{
; 744  : 		WriteDebugLog("[DemodDecode4FSKData] RS Says Can't Correct");

  000eb	68 00 00 00 00	 push	 OFFSET ??_C@_0CM@BJAFNGBK@?$FLDemodDecode4FSKData?$FN?5RS?5Says?5Ca@
  000f0	e8 00 00 00 00	 call	 _WriteDebugLog
  000f5	83 c4 04	 add	 esp, 4

; 745  : 		goto returnBad;

  000f8	e9 86 00 00 00	 jmp	 $returnBad$5790
$LN5@CorrectRaw:

; 746  : 	}
; 747  : 
; 748  :     if (FrameOK &&  CheckCRC16FrameType(bytRawData, intDataLen + 1, bytFrameType)) // RS correction successful 

  000fd	83 7d ec 00	 cmp	 DWORD PTR _FrameOK$[ebp], 0
  00101	74 73		 je	 SHORT $LN2@CorrectRaw
  00103	8a 45 18	 mov	 al, BYTE PTR _bytFrameType$[ebp]
  00106	50		 push	 eax
  00107	8b 4d 10	 mov	 ecx, DWORD PTR _intDataLen$[ebp]
  0010a	83 c1 01	 add	 ecx, 1
  0010d	51		 push	 ecx
  0010e	8b 55 08	 mov	 edx, DWORD PTR _bytRawData$[ebp]
  00111	52		 push	 edx
  00112	e8 00 00 00 00	 call	 _CheckCRC16FrameType
  00117	83 c4 0c	 add	 esp, 12			; 0000000cH
  0011a	85 c0		 test	 eax, eax
  0011c	74 58		 je	 SHORT $LN2@CorrectRaw

; 749  : 	{
; 750  : 		int intFailedByteCnt = 0;

  0011e	c7 45 e0 00 00
	00 00		 mov	 DWORD PTR _intFailedByteCnt$5792[ebp], 0

; 751  : 		
; 752  : 		// need to fix this if we want to use it
; 753  : 		//  test code just to determine how many corrections were applied  ...later remove
; 754  :         //for (j = 0 ; j < intDataLen + 3; j++)
; 755  : 		//{
; 756  : 		//	if (bytRawData[j] <> bytCorrectedData[j])
; 757  : 		//		intFailedByteCnt++;
; 758  : 		//}
; 759  : 
; 760  :         WriteDebugLog("[DemodDecode4FSKData] OK with RS %d corrections", NErrors);

  00125	a1 00 00 00 00	 mov	 eax, DWORD PTR _NErrors
  0012a	50		 push	 eax
  0012b	68 00 00 00 00	 push	 OFFSET ??_C@_0DA@GNDHNMDG@?$FLDemodDecode4FSKData?$FN?5OK?5with?5RS@
  00130	e8 00 00 00 00	 call	 _WriteDebugLog
  00135	83 c4 08	 add	 esp, 8

; 761  : 		totalRSErrors += NErrors;

  00138	a1 00 00 00 00	 mov	 eax, DWORD PTR _totalRSErrors
  0013d	03 05 00 00 00
	00		 add	 eax, DWORD PTR _NErrors
  00143	a3 00 00 00 00	 mov	 DWORD PTR _totalRSErrors, eax

; 762  :  
; 763  : 		// End of test code
; 764  : 
; 765  : 		memcpy(bytCorrectedData, &bytRawData[1], bytRawData[0]);  

  00148	8b 45 08	 mov	 eax, DWORD PTR _bytRawData$[ebp]
  0014b	0f b6 08	 movzx	 ecx, BYTE PTR [eax]
  0014e	51		 push	 ecx
  0014f	8b 55 08	 mov	 edx, DWORD PTR _bytRawData$[ebp]
  00152	83 c2 01	 add	 edx, 1
  00155	52		 push	 edx
  00156	8b 45 0c	 mov	 eax, DWORD PTR _bytCorrectedData$[ebp]
  00159	50		 push	 eax
  0015a	e8 00 00 00 00	 call	 _memcpy
  0015f	83 c4 0c	 add	 esp, 12			; 0000000cH

; 766  : 		CarrierOk[Carrier] = TRUE;

  00162	8b 45 1c	 mov	 eax, DWORD PTR _Carrier$[ebp]
  00165	c6 80 00 00 00
	00 01		 mov	 BYTE PTR _CarrierOk[eax], 1

; 767  : 		return bytRawData[0];

  0016c	8b 45 08	 mov	 eax, DWORD PTR _bytRawData$[ebp]
  0016f	0f b6 00	 movzx	 eax, BYTE PTR [eax]
  00172	eb 33		 jmp	 SHORT $LN9@CorrectRaw

; 768  : 	}
; 769  : 	else

  00174	eb 0d		 jmp	 SHORT $returnBad$5790
$LN2@CorrectRaw:

; 770  :         WriteDebugLog("[DemodDecode4FSKData] RS says ok but CRC still bad");

  00176	68 00 00 00 00	 push	 OFFSET ??_C@_0DD@GKIILJHI@?$FLDemodDecode4FSKData?$FN?5RS?5says?5ok@
  0017b	e8 00 00 00 00	 call	 _WriteDebugLog
  00180	83 c4 04	 add	 esp, 4
$returnBad$5790:

; 771  : 	
; 772  : 	// return uncorrected data without byte count or RS Parity
; 773  : 
; 774  : returnBad:
; 775  : 
; 776  : 	memcpy(bytCorrectedData, &bytRawData[1], intDataLen);    

  00183	8b 45 10	 mov	 eax, DWORD PTR _intDataLen$[ebp]
  00186	50		 push	 eax
  00187	8b 4d 08	 mov	 ecx, DWORD PTR _bytRawData$[ebp]
  0018a	83 c1 01	 add	 ecx, 1
  0018d	51		 push	 ecx
  0018e	8b 55 0c	 mov	 edx, DWORD PTR _bytCorrectedData$[ebp]
  00191	52		 push	 edx
  00192	e8 00 00 00 00	 call	 _memcpy
  00197	83 c4 0c	 add	 esp, 12			; 0000000cH

; 777  : 
; 778  : 	//Array.Copy(bytRawData, 1, bytCorrectedData, 0, bytCorrectedData.Length) 
; 779  :      
; 780  : 	CarrierOk[Carrier] = FALSE;

  0019a	8b 45 1c	 mov	 eax, DWORD PTR _Carrier$[ebp]
  0019d	c6 80 00 00 00
	00 00		 mov	 BYTE PTR _CarrierOk[eax], 0

; 781  : 	return intDataLen;

  001a4	8b 45 10	 mov	 eax, DWORD PTR _intDataLen$[ebp]
$LN9@CorrectRaw:

; 782  : }

  001a7	52		 push	 edx
  001a8	8b cd		 mov	 ecx, ebp
  001aa	50		 push	 eax
  001ab	8d 15 00 00 00
	00		 lea	 edx, DWORD PTR $LN13@CorrectRaw
  001b1	e8 00 00 00 00	 call	 @_RTC_CheckStackVars@8
  001b6	58		 pop	 eax
  001b7	5a		 pop	 edx
  001b8	5f		 pop	 edi
  001b9	5e		 pop	 esi
  001ba	5b		 pop	 ebx
  001bb	81 c4 e4 00 00
	00		 add	 esp, 228		; 000000e4H
  001c1	3b ec		 cmp	 ebp, esp
  001c3	e8 00 00 00 00	 call	 __RTC_CheckEsp
  001c8	8b e5		 mov	 esp, ebp
  001ca	5d		 pop	 ebp
  001cb	c3		 ret	 0
$LN13@CorrectRaw:
  001cc	01 00 00 00	 DD	 1
  001d0	00 00 00 00	 DD	 $LN12@CorrectRaw
$LN12@CorrectRaw:
  001d4	f8 ff ff ff	 DD	 -8			; fffffff8H
  001d8	04 00 00 00	 DD	 4
  001dc	00 00 00 00	 DD	 $LN11@CorrectRaw
$LN11@CorrectRaw:
  001e0	62		 DB	 98			; 00000062H
  001e1	6c		 DB	 108			; 0000006cH
  001e2	6e		 DB	 110			; 0000006eH
  001e3	52		 DB	 82			; 00000052H
  001e4	53		 DB	 83			; 00000053H
  001e5	4f		 DB	 79			; 0000004fH
  001e6	4b		 DB	 75			; 0000004bH
  001e7	00		 DB	 0
_CorrectRawDataWithRS ENDP
_TEXT	ENDS
PUBLIC	??_C@_03JFMEENOE@ERR?$AA@			; `string'
PUBLIC	??_C@_0BL@EBKFJBEL@Received?5Data?0?5No?5State?5?$CFs?$AA@ ; `string'
PUBLIC	??_C@_03OJBHPKML@IDF?$AA@			; `string'
PUBLIC	??_C@_03JJIFJOJL@QAM?$AA@			; `string'
PUBLIC	??_C@_03GIMBCJGG@PSK?$AA@			; `string'
PUBLIC	_DecodeFrame
PUBLIC	??_C@_0GD@LEDMPOGN@?$FLARDOPprotocol?4ProcessNewSamples@ ; `string'
PUBLIC	??_C@_0HE@GMFGFFGG@?$FLARDOPprotocol?4ProcessNewSamples@ ; `string'
PUBLIC	??_C@_0CP@JLDOIPPD@STATUS?5QUEUE?5BREAK?5new?5Protocol?5@ ; `string'
PUBLIC	??_C@_0FL@HDOBMIFN@?$FLARDOPprotocol?4ProcessNewSamples@ ; `string'
PUBLIC	??_C@_09GBPIIGEG@Qual?5?$DN?5?$CFd?$AA@		; `string'
PUBLIC	_UpdatePhaseConstellation
PUBLIC	??_C@_05OIEEHJAK@16QAM?$AA@			; `string'
PUBLIC	_Update8FSKConstellation
PUBLIC	??_C@_04GLIEPKGD@8FSK?$AA@			; `string'
PUBLIC	_Update16FSKConstellation
PUBLIC	??_C@_05GMHCMGLE@16FSK?$AA@			; `string'
PUBLIC	_Update4FSKConstellation
PUBLIC	??_C@_04KOHEBHGC@4FSK?$AA@			; `string'
PUBLIC	_DemodulateFrame
PUBLIC	??_C@_0CF@NGDJKDHP@MEMARQ?5Flags?5?$CFd?5?$CFd?5?$CFd?5?$CFd?5?$CFd?5?$CFd?5?$CF@ ; `string'
PUBLIC	??_C@_0CE@PACHHMPP@New?5frame?5type?5?9?5MEMARQ?5flags?5re@ ; `string'
PUBLIC	??_C@_0BJ@JADBCDC@?$FLDecodeFrame?$FN?5Frame?3?5?$CFs?5?$AA@ ; `string'
PUBLIC	??_C@_00CNPNBAHC@?$AA@				; `string'
PUBLIC	??_C@_0FI@LAFGIKHG@?$FLARDOPprotocol?4ProcessNewSamples@ ; `string'
PUBLIC	??_C@_0IL@FILFNEGA@?$FLARDOPprotocol?4ProcessNewSamples@ ; `string'
PUBLIC	??_C@_0P@MHCKBMIJ@bad?5frame?5type?$AA@		; `string'
PUBLIC	??_C@_0BH@KEHAODIE@poor?5frame?5type?5decode?$AA@ ; `string'
PUBLIC	_Acquire4FSKFrameType
PUBLIC	??_C@_0BD@MKHACAGP@frame?5sync?5timeout?$AA@	; `string'
PUBLIC	_AcquireFrameSyncRSB
PUBLIC	_Acquire2ToneLeaderSymbolFraming
PUBLIC	_SearchFor2ToneLeader2
PUBLIC	_ProcessNewSamples
EXTRN	_InitializeConnection:PROC
EXTRN	_intFailedQAMFrameDataDecodes:DWORD
EXTRN	_intFailedPSKFrameDataDecodes:DWORD
EXTRN	_ProcessRcvdARQFrame:PROC
EXTRN	_blnTimeoutTriggered:DWORD
EXTRN	_ProcessUnconnectedConReqFrame:PROC
EXTRN	_AddTagToDataAndSendToHost:PROC
EXTRN	_ProcessRcvdFECDataFrame:PROC
EXTRN	_intGoodQAMFrameDataDecodes:DWORD
EXTRN	_intGoodPSKFrameDataDecodes:DWORD
EXTRN	_AccumulateStats:DWORD
EXTRN	_Mod4FSKDataAndPlay:PROC
EXTRN	_LeaderLength:DWORD
EXTRN	_EncLen:DWORD
EXTRN	_Encode4FSKControl:PROC
EXTRN	_bytSessionID:BYTE
EXTRN	_bytEncodedBytes:BYTE
EXTRN	_bytDataToSendLength:DWORD
EXTRN	_ARDOPStates:BYTE
EXTRN	_SendCommandToHost:PROC
EXTRN	_intFrameRepeatInterval:DWORD
EXTRN	_ComputeInterFrameInterval:PROC
EXTRN	_rand:PROC
EXTRN	_bytLastACKedDataFrameType:BYTE
EXTRN	_blnBREAKCmd:DWORD
EXTRN	_intLastRcvdFrameQuality:DWORD
EXTRN	_strcmp:PROC
EXTRN	_ProtocolMode:DWORD
EXTRN	_memset:PROC
EXTRN	_DecodeCompleteTime:DWORD
EXTRN	_SendData:PROC
EXTRN	_intLinkTurnovers:DWORD
EXTRN	_SetARDOPProtocolState:PROC
EXTRN	_GetNextFrameData:PROC
EXTRN	_intShiftUpDn:DWORD
EXTRN	_bytCurrentFrameType:BYTE
EXTRN	_intLastARQDataFrameToHost:DWORD
EXTRN	_blnEnbARQRpt:DWORD
EXTRN	_ARQSubStates:BYTE
EXTRN	_ARQState:DWORD
EXTRN	_FrameInfo:PROC
EXTRN	_DebugLog:DWORD
EXTRN	_printtick:PROC
EXTRN	_ProtocolState:DWORD
EXTRN	_UpdateBusyDetector:PROC
EXTRN	_State:DWORD
;	COMDAT ??_C@_03JFMEENOE@ERR?$AA@
CONST	SEGMENT
??_C@_03JFMEENOE@ERR?$AA@ DB 'ERR', 00H			; `string'
CONST	ENDS
;	COMDAT ??_C@_0BL@EBKFJBEL@Received?5Data?0?5No?5State?5?$CFs?$AA@
CONST	SEGMENT
??_C@_0BL@EBKFJBEL@Received?5Data?0?5No?5State?5?$CFs?$AA@ DB 'Received D'
	DB	'ata, No State %s', 00H			; `string'
CONST	ENDS
;	COMDAT ??_C@_03OJBHPKML@IDF?$AA@
CONST	SEGMENT
??_C@_03OJBHPKML@IDF?$AA@ DB 'IDF', 00H			; `string'
CONST	ENDS
;	COMDAT ??_C@_03JJIFJOJL@QAM?$AA@
CONST	SEGMENT
??_C@_03JJIFJOJL@QAM?$AA@ DB 'QAM', 00H			; `string'
CONST	ENDS
;	COMDAT ??_C@_03GIMBCJGG@PSK?$AA@
CONST	SEGMENT
??_C@_03GIMBCJGG@PSK?$AA@ DB 'PSK', 00H			; `string'
CONST	ENDS
;	COMDAT ??_C@_0GD@LEDMPOGN@?$FLARDOPprotocol?4ProcessNewSamples@
CONST	SEGMENT
??_C@_0GD@LEDMPOGN@?$FLARDOPprotocol?4ProcessNewSamples@ DB '[ARDOPprotoc'
	DB	'ol.ProcessNewSamples] Skip Data Decoding when ProtcolState=IR'
	DB	'StoISS, Answer with BREAK', 00H		; `string'
CONST	ENDS
;	COMDAT ??_C@_0HE@GMFGFFGG@?$FLARDOPprotocol?4ProcessNewSamples@
CONST	SEGMENT
??_C@_0HE@GMFGFFGG@?$FLARDOPprotocol?4ProcessNewSamples@ DB '[ARDOPprotoc'
	DB	'ol.ProcessNewSamples] %d bytes to send in ProtocolState: %s: '
	DB	'Send BREAK,  New state=IRStoISS (Rule 3.3)', 00H ; `string'
CONST	ENDS
;	COMDAT ??_C@_0CP@JLDOIPPD@STATUS?5QUEUE?5BREAK?5new?5Protocol?5@
CONST	SEGMENT
??_C@_0CP@JLDOIPPD@STATUS?5QUEUE?5BREAK?5new?5Protocol?5@ DB 'STATUS QUEU'
	DB	'E BREAK new Protocol State IRStoISS', 00H	; `string'
CONST	ENDS
;	COMDAT ??_C@_0FL@HDOBMIFN@?$FLARDOPprotocol?4ProcessNewSamples@
CONST	SEGMENT
??_C@_0FL@HDOBMIFN@?$FLARDOPprotocol?4ProcessNewSamples@ DB '[ARDOPprotoc'
	DB	'ol.ProcessNewSamples] Skip Data Decoding when blnBREAKCmd and'
	DB	' ProtcolState=IRS', 00H			; `string'
CONST	ENDS
;	COMDAT ??_C@_09GBPIIGEG@Qual?5?$DN?5?$CFd?$AA@
CONST	SEGMENT
??_C@_09GBPIIGEG@Qual?5?$DN?5?$CFd?$AA@ DB 'Qual = %d', 00H ; `string'
CONST	ENDS
;	COMDAT ??_C@_05OIEEHJAK@16QAM?$AA@
CONST	SEGMENT
??_C@_05OIEEHJAK@16QAM?$AA@ DB '16QAM', 00H		; `string'
CONST	ENDS
;	COMDAT ??_C@_04GLIEPKGD@8FSK?$AA@
CONST	SEGMENT
??_C@_04GLIEPKGD@8FSK?$AA@ DB '8FSK', 00H		; `string'
CONST	ENDS
;	COMDAT ??_C@_05GMHCMGLE@16FSK?$AA@
CONST	SEGMENT
??_C@_05GMHCMGLE@16FSK?$AA@ DB '16FSK', 00H		; `string'
CONST	ENDS
;	COMDAT ??_C@_04KOHEBHGC@4FSK?$AA@
CONST	SEGMENT
??_C@_04KOHEBHGC@4FSK?$AA@ DB '4FSK', 00H		; `string'
CONST	ENDS
;	COMDAT ??_C@_0CF@NGDJKDHP@MEMARQ?5Flags?5?$CFd?5?$CFd?5?$CFd?5?$CFd?5?$CFd?5?$CFd?5?$CF@
CONST	SEGMENT
??_C@_0CF@NGDJKDHP@MEMARQ?5Flags?5?$CFd?5?$CFd?5?$CFd?5?$CFd?5?$CFd?5?$CFd?5?$CF@ DB 'M'
	DB	'EMARQ Flags %d %d %d %d %d %d %d %d', 00H	; `string'
CONST	ENDS
;	COMDAT ??_C@_0CE@PACHHMPP@New?5frame?5type?5?9?5MEMARQ?5flags?5re@
CONST	SEGMENT
??_C@_0CE@PACHHMPP@New?5frame?5type?5?9?5MEMARQ?5flags?5re@ DB 'New frame'
	DB	' type - MEMARQ flags reset', 00H		; `string'
CONST	ENDS
;	COMDAT ??_C@_0BJ@JADBCDC@?$FLDecodeFrame?$FN?5Frame?3?5?$CFs?5?$AA@
CONST	SEGMENT
??_C@_0BJ@JADBCDC@?$FLDecodeFrame?$FN?5Frame?3?5?$CFs?5?$AA@ DB '[DecodeF'
	DB	'rame] Frame: %s ', 00H			; `string'
CONST	ENDS
;	COMDAT ??_C@_00CNPNBAHC@?$AA@
CONST	SEGMENT
??_C@_00CNPNBAHC@?$AA@ DB 00H				; `string'
CONST	ENDS
;	COMDAT ??_C@_0FI@LAFGIKHG@?$FLARDOPprotocol?4ProcessNewSamples@
CONST	SEGMENT
??_C@_0FI@LAFGIKHG@?$FLARDOPprotocol?4ProcessNewSamples@ DB '[ARDOPprotoc'
	DB	'ol.ProcessNewSamples, ProtocolState=IRStoISS, Initializing Ge'
	DB	'tNextFrameData', 00H			; `string'
CONST	ENDS
;	COMDAT ??_C@_0IL@FILFNEGA@?$FLARDOPprotocol?4ProcessNewSamples@
CONST	SEGMENT
??_C@_0IL@FILFNEGA@?$FLARDOPprotocol?4ProcessNewSamples@ DB '[ARDOPprotoc'
	DB	'ol.ProcessNewSamples] ProtocolState=IRStoISS, substate = %s A'
	DB	'CK received. Cease BREAKS, NewProtocolState=ISS, substate ISS'
	DB	'Data', 00H					; `string'
CONST	ENDS
;	COMDAT ??_C@_0P@MHCKBMIJ@bad?5frame?5type?$AA@
CONST	SEGMENT
??_C@_0P@MHCKBMIJ@bad?5frame?5type?$AA@ DB 'bad frame type', 00H ; `string'
CONST	ENDS
;	COMDAT ??_C@_0BH@KEHAODIE@poor?5frame?5type?5decode?$AA@
CONST	SEGMENT
??_C@_0BH@KEHAODIE@poor?5frame?5type?5decode?$AA@ DB 'poor frame type dec'
	DB	'ode', 00H					; `string'
CONST	ENDS
;	COMDAT ??_C@_0BD@MKHACAGP@frame?5sync?5timeout?$AA@
CONST	SEGMENT
??_C@_0BD@MKHACAGP@frame?5sync?5timeout?$AA@ DB 'frame sync timeout', 00H ; `string'
; Function compile flags: /Odtp /RTCsu /ZI
CONST	ENDS
;	COMDAT _ProcessNewSamples
_TEXT	SEGMENT
_intSN$5816 = -120					; size = 4
_blnFrameDecodedOK$ = -108				; size = 4
_intRcvdSamplesWPtr$ = -8				; size = 4
_Samples$ = 8						; size = 4
_nSamples$ = 12						; size = 4
_ProcessNewSamples PROC					; COMDAT

; 800  : {

  00000	55		 push	 ebp
  00001	8b ec		 mov	 ebp, esp
  00003	81 ec 48 01 00
	00		 sub	 esp, 328		; 00000148H
  00009	53		 push	 ebx
  0000a	56		 push	 esi
  0000b	57		 push	 edi
  0000c	8d bd b8 fe ff
	ff		 lea	 edi, DWORD PTR [ebp-328]
  00012	b9 52 00 00 00	 mov	 ecx, 82			; 00000052H
  00017	b8 cc cc cc cc	 mov	 eax, -858993460		; ccccccccH
  0001c	f3 ab		 rep stosd

; 801  : 	int intRcvdSamplesWPtr = 0;

  0001e	c7 45 f8 00 00
	00 00		 mov	 DWORD PTR _intRcvdSamplesWPtr$[ebp], 0

; 802  : 
; 803  : 	char Msg[80];
; 804  : 
; 805  :  //       Dim stcStatus As Status = Nothing
; 806  : 	BOOL blnFrameDecodedOK = FALSE;

  00025	c7 45 94 00 00
	00 00		 mov	 DWORD PTR _blnFrameDecodedOK$[ebp], 0

; 807  : 
; 808  : //	LookforUZ7HOLeader(Samples, nSamples);
; 809  : 
; 810  : //	return;
; 811  : 
; 812  : //	printtick("Start Busy");
; 813  : 	if (State == SearchingForLeader)

  0002c	83 3d 00 00 00
	00 00		 cmp	 DWORD PTR _State, 0
  00033	75 0c		 jne	 SHORT $LN84@ProcessNew

; 814  : 		UpdateBusyDetector(Samples);

  00035	8b 45 08	 mov	 eax, DWORD PTR _Samples$[ebp]
  00038	50		 push	 eax
  00039	e8 00 00 00 00	 call	 _UpdateBusyDetector
  0003e	83 c4 04	 add	 esp, 4
$LN84@ProcessNew:

; 815  : //	printtick("Done Busy");
; 816  : 	if (ProtocolState == FECSend)

  00041	83 3d 00 00 00
	00 06		 cmp	 DWORD PTR _ProtocolState, 6
  00048	75 05		 jne	 SHORT $LN83@ProcessNew

; 817  : 		return;

  0004a	e9 e7 0b 00 00	 jmp	 $LN54@ProcessNew
$LN83@ProcessNew:

; 818  : 
; 819  : 	// it seems that searchforleader runs on unmixed and unfilered samples
; 820  : 
; 821  : 	// Searching for leader
; 822  : 
; 823  : 	if (State == SearchingForLeader)

  0004f	83 3d 00 00 00
	00 00		 cmp	 DWORD PTR _State, 0
  00056	0f 85 84 00 00
	00		 jne	 $LN77@ProcessNew
$LN81@ProcessNew:

; 824  : 	{
; 825  : 		// Search for leader as long as 960 samples (8  symbols) available
; 826  : 
; 827  : //		WriteDebugLog("Looking for Leader");
; 828  : 
; 829  : 		while (State == SearchingForLeader && nSamples > 960)

  0005c	83 3d 00 00 00
	00 00		 cmp	 DWORD PTR _State, 0
  00063	75 68		 jne	 SHORT $LN80@ProcessNew
  00065	81 7d 0c c0 03
	00 00		 cmp	 DWORD PTR _nSamples$[ebp], 960 ; 000003c0H
  0006c	7e 5f		 jle	 SHORT $LN80@ProcessNew

; 830  : 		{
; 831  : 			int intSN;
; 832  : 			
; 833  : 			blnLeaderFound = SearchFor2ToneLeader2(Samples, nSamples, &dblOffsetHz, &intSN);

  0006e	8d 45 88	 lea	 eax, DWORD PTR _intSN$5816[ebp]
  00071	50		 push	 eax
  00072	68 00 00 00 00	 push	 OFFSET _dblOffsetHz
  00077	8b 4d 0c	 mov	 ecx, DWORD PTR _nSamples$[ebp]
  0007a	51		 push	 ecx
  0007b	8b 55 08	 mov	 edx, DWORD PTR _Samples$[ebp]
  0007e	52		 push	 edx
  0007f	e8 00 00 00 00	 call	 _SearchFor2ToneLeader2
  00084	83 c4 10	 add	 esp, 16			; 00000010H
  00087	a3 00 00 00 00	 mov	 DWORD PTR _blnLeaderFound, eax

; 834  : 		
; 835  : 			if (blnLeaderFound)

  0008c	83 3d 00 00 00
	00 00		 cmp	 DWORD PTR _blnLeaderFound, 0
  00093	74 20		 je	 SHORT $LN79@ProcessNew

; 836  : 			{
; 837  : //				WriteDebugLog("Got Leader");
; 838  : 
; 839  : 				dttLastLeaderDetect = Now;

  00095	e8 00 00 00 00	 call	 _getTicks
  0009a	a3 00 00 00 00	 mov	 DWORD PTR _dttLastLeaderDetect, eax

; 840  :                 //        stcStatus.ControlName = "lblOffset"
; 841  :                 //        stcStatus.Text = "Offset: " & (Format(dblOffsetHz, "#0.0").PadLeft(6)) & " Hz"
; 842  :                  //       queTNCStatus.Enqueue(stcStatus)
; 843  : 
; 844  : 				InitializeMixedSamples();

  0009f	e8 00 00 00 00	 call	 _InitializeMixedSamples

; 845  : 				State = AcquireSymbolSync;

  000a4	c7 05 00 00 00
	00 01 00 00 00	 mov	 DWORD PTR _State, 1

; 846  : 				ResetSNPwrs();

  000ae	e8 00 00 00 00	 call	 _ResetSNPwrs

; 847  : 			}
; 848  : 			else

  000b3	eb 16		 jmp	 SHORT $LN78@ProcessNew
$LN79@ProcessNew:

; 849  : 			{
; 850  : 				nSamples -= 480;

  000b5	8b 45 0c	 mov	 eax, DWORD PTR _nSamples$[ebp]
  000b8	2d e0 01 00 00	 sub	 eax, 480		; 000001e0H
  000bd	89 45 0c	 mov	 DWORD PTR _nSamples$[ebp], eax

; 851  : 				Samples += 480;		// !!!! needs attention !!!

  000c0	8b 45 08	 mov	 eax, DWORD PTR _Samples$[ebp]
  000c3	05 c0 03 00 00	 add	 eax, 960		; 000003c0H
  000c8	89 45 08	 mov	 DWORD PTR _Samples$[ebp], eax
$LN78@ProcessNew:

; 852  : 			}
; 853  : 		}

  000cb	eb 8f		 jmp	 SHORT $LN81@ProcessNew
$LN80@ProcessNew:

; 854  : 		if (State == SearchingForLeader)

  000cd	83 3d 00 00 00
	00 00		 cmp	 DWORD PTR _State, 0
  000d4	75 0a		 jne	 SHORT $LN77@ProcessNew

; 855  : 		{
; 856  : 			DiscardOldSamples();

  000d6	e8 00 00 00 00	 call	 _DiscardOldSamples

; 857  : 			return;

  000db	e9 56 0b 00 00	 jmp	 $LN54@ProcessNew
$LN77@ProcessNew:

; 858  : 		}
; 859  : 	}
; 860  : 
; 861  : 
; 862  : 	// Got leader
; 863  : 
; 864  : 	//	At this point samples haven't been processed, and are in Samples, len nSamples
; 865  : 
; 866  : 	// I'm going to filter all samples into intFilteredMixedSamples.
; 867  : 
; 868  : //	printtick("Start Mix");
; 869  : 
; 870  : 	MixNCOFilter(Samples, nSamples, dblOffsetHz); // Mix and filter new samples (Mixing consumes all intRcvdSamples)

  000e0	51		 push	 ecx
  000e1	d9 05 00 00 00
	00		 fld	 DWORD PTR _dblOffsetHz
  000e7	d9 1c 24	 fstp	 DWORD PTR [esp]
  000ea	8b 45 0c	 mov	 eax, DWORD PTR _nSamples$[ebp]
  000ed	50		 push	 eax
  000ee	8b 4d 08	 mov	 ecx, DWORD PTR _Samples$[ebp]
  000f1	51		 push	 ecx
  000f2	e8 00 00 00 00	 call	 _MixNCOFilter
  000f7	83 c4 0c	 add	 esp, 12			; 0000000cH

; 871  : 	nSamples = 0;	//	all used

  000fa	c7 45 0c 00 00
	00 00		 mov	 DWORD PTR _nSamples$[ebp], 0

; 872  : 
; 873  : //	printtick("Done Mix Samples");
; 874  : 
; 875  : 	// Acquire Symbol Sync 
; 876  : 
; 877  :     if (State == AcquireSymbolSync)

  00101	83 3d 00 00 00
	00 01		 cmp	 DWORD PTR _State, 1
  00108	75 4a		 jne	 SHORT $LN73@ProcessNew

; 878  : 	{
; 879  : 		if ((intFilteredMixedSamplesLength - intMFSReadPtr) > 860)

  0010a	a1 00 00 00 00	 mov	 eax, DWORD PTR _intFilteredMixedSamplesLength
  0010f	2b 05 00 00 00
	00		 sub	 eax, DWORD PTR _intMFSReadPtr
  00115	3d 5c 03 00 00	 cmp	 eax, 860		; 0000035cH
  0011a	7e 38		 jle	 SHORT $LN73@ProcessNew

; 880  : 		{
; 881  : 			blnSymbolSyncFound = Acquire2ToneLeaderSymbolFraming();  // adjust the pointer to the nominal symbol start based on phase

  0011c	e8 00 00 00 00	 call	 _Acquire2ToneLeaderSymbolFraming
  00121	a3 00 00 00 00	 mov	 DWORD PTR _blnSymbolSyncFound, eax

; 882  : 			if (blnSymbolSyncFound)

  00126	83 3d 00 00 00
	00 00		 cmp	 DWORD PTR _blnSymbolSyncFound, 0
  0012d	74 0c		 je	 SHORT $LN74@ProcessNew

; 883  : 				State = AcquireFrameSync;

  0012f	c7 05 00 00 00
	00 02 00 00 00	 mov	 DWORD PTR _State, 2

; 884  : 			else

  00139	eb 19		 jmp	 SHORT $LN73@ProcessNew
$LN74@ProcessNew:

; 885  : 			{
; 886  : 				DiscardOldSamples();

  0013b	e8 00 00 00 00	 call	 _DiscardOldSamples

; 887  : 				ClearAllMixedSamples();

  00140	e8 00 00 00 00	 call	 _ClearAllMixedSamples

; 888  : 				State = SearchingForLeader;

  00145	c7 05 00 00 00
	00 00 00 00 00	 mov	 DWORD PTR _State, 0

; 889  : 				return;

  0014f	e9 e2 0a 00 00	 jmp	 $LN54@ProcessNew
$LN73@ProcessNew:

; 890  : 			}
; 891  : //			printtick("Got Sym Sync");
; 892  : 		}
; 893  : 	}
; 894  : 	
; 895  : 	//	Acquire Frame Sync
; 896  : 	
; 897  : 	if (State == AcquireFrameSync)

  00154	83 3d 00 00 00
	00 02		 cmp	 DWORD PTR _State, 2
  0015b	0f 85 8d 00 00
	00		 jne	 $LN70@ProcessNew

; 898  : 	{
; 899  : 		blnFrameSyncFound = AcquireFrameSyncRSB();

  00161	e8 00 00 00 00	 call	 _AcquireFrameSyncRSB
  00166	a3 00 00 00 00	 mov	 DWORD PTR _blnFrameSyncFound, eax

; 900  : 	
; 901  : 		if (blnFrameSyncFound)

  0016b	83 3d 00 00 00
	00 00		 cmp	 DWORD PTR _blnFrameSyncFound, 0
  00172	74 0a		 je	 SHORT $LN71@ProcessNew

; 902  : 		{
; 903  : 			State = AcquireFrameType;

  00174	c7 05 00 00 00
	00 03 00 00 00	 mov	 DWORD PTR _State, 3
$LN71@ProcessNew:

; 904  : 				
; 905  : 			//	Have frame Sync. Remove used samples from buffer
; 906  : 
; 907  : //			printtick("Got Frame Sync");
; 908  : 
; 909  : 		}
; 910  : 
; 911  : 		// Remove used samples
; 912  : 
; 913  : 		intFilteredMixedSamplesLength -= intMFSReadPtr;

  0017e	a1 00 00 00 00	 mov	 eax, DWORD PTR _intFilteredMixedSamplesLength
  00183	2b 05 00 00 00
	00		 sub	 eax, DWORD PTR _intMFSReadPtr
  00189	a3 00 00 00 00	 mov	 DWORD PTR _intFilteredMixedSamplesLength, eax

; 914  : 
; 915  : 		memmove(intFilteredMixedSamples,
; 916  : 			&intFilteredMixedSamples[intMFSReadPtr], intFilteredMixedSamplesLength * 2);

  0018e	a1 00 00 00 00	 mov	 eax, DWORD PTR _intFilteredMixedSamplesLength
  00193	d1 e0		 shl	 eax, 1
  00195	50		 push	 eax
  00196	8b 0d 00 00 00
	00		 mov	 ecx, DWORD PTR _intMFSReadPtr
  0019c	8d 14 4d 00 00
	00 00		 lea	 edx, DWORD PTR _intFilteredMixedSamples[ecx*2]
  001a3	52		 push	 edx
  001a4	68 00 00 00 00	 push	 OFFSET _intFilteredMixedSamples
  001a9	e8 00 00 00 00	 call	 _memmove
  001ae	83 c4 0c	 add	 esp, 12			; 0000000cH

; 917  : 
; 918  : 		intMFSReadPtr = 0;

  001b1	c7 05 00 00 00
	00 00 00 00 00	 mov	 DWORD PTR _intMFSReadPtr, 0

; 919  : 
; 920  : 		if ((Now - dttLastLeaderDetect) > 1000)		 // no Frame sync within 1000 ms (may want to make this limit a funciton of Mode and leaders)

  001bb	e8 00 00 00 00	 call	 _getTicks
  001c0	2b 05 00 00 00
	00		 sub	 eax, DWORD PTR _dttLastLeaderDetect
  001c6	3d e8 03 00 00	 cmp	 eax, 1000		; 000003e8H
  001cb	76 21		 jbe	 SHORT $LN70@ProcessNew

; 921  : 		{
; 922  : 			DiscardOldSamples();

  001cd	e8 00 00 00 00	 call	 _DiscardOldSamples

; 923  : 			ClearAllMixedSamples();

  001d2	e8 00 00 00 00	 call	 _ClearAllMixedSamples

; 924  : 			State = SearchingForLeader;

  001d7	c7 05 00 00 00
	00 00 00 00 00	 mov	 DWORD PTR _State, 0

; 925  : 			printtick("frame sync timeout");

  001e1	68 00 00 00 00	 push	 OFFSET ??_C@_0BD@MKHACAGP@frame?5sync?5timeout?$AA@
  001e6	e8 00 00 00 00	 call	 _printtick
  001eb	83 c4 04	 add	 esp, 4
$LN70@ProcessNew:

; 926  : 		}
; 927  : 	}
; 928  : 	
; 929  : 	//	Acquire Frame Type
; 930  : 
; 931  : 	if (State == AcquireFrameType)

  001ee	83 3d 00 00 00
	00 03		 cmp	 DWORD PTR _State, 3
  001f5	0f 85 8c 03 00
	00		 jne	 $LN65@ProcessNew

; 932  : 	{
; 933  : //		printtick("getting frame type");
; 934  : 
; 935  : 		intFrameType = Acquire4FSKFrameType();

  001fb	e8 00 00 00 00	 call	 _Acquire4FSKFrameType
  00200	a3 00 00 00 00	 mov	 DWORD PTR _intFrameType, eax

; 936  : 		if (intFrameType == -2)

  00205	83 3d 00 00 00
	00 fe		 cmp	 DWORD PTR _intFrameType, -2 ; fffffffeH
  0020c	75 05		 jne	 SHORT $LN68@ProcessNew

; 937  : 		{
; 938  : //			sprintf(Msg, "not enough %d %d", intFilteredMixedSamplesLength, intMFSReadPtr);
; 939  : //			printtick(Msg);
; 940  : 			return;		//  insufficient samples

  0020e	e9 23 0a 00 00	 jmp	 $LN54@ProcessNew
$LN68@ProcessNew:

; 941  : 		}
; 942  : 
; 943  : 		if (intFrameType == -1)		  // poor decode quality (large decode distance)

  00213	83 3d 00 00 00
	00 ff		 cmp	 DWORD PTR _intFrameType, -1
  0021a	75 2f		 jne	 SHORT $LN67@ProcessNew

; 944  : 		{
; 945  : 			State = SearchingForLeader;

  0021c	c7 05 00 00 00
	00 00 00 00 00	 mov	 DWORD PTR _State, 0

; 946  : 			ClearAllMixedSamples();

  00226	e8 00 00 00 00	 call	 _ClearAllMixedSamples

; 947  : 			DiscardOldSamples();

  0022b	e8 00 00 00 00	 call	 _DiscardOldSamples

; 948  : 			if (DebugLog) printtick("poor frame type decode");

  00230	83 3d 00 00 00
	00 00		 cmp	 DWORD PTR _DebugLog, 0
  00237	74 0d		 je	 SHORT $LN66@ProcessNew
  00239	68 00 00 00 00	 push	 OFFSET ??_C@_0BH@KEHAODIE@poor?5frame?5type?5decode?$AA@
  0023e	e8 00 00 00 00	 call	 _printtick
  00243	83 c4 04	 add	 esp, 4
$LN66@ProcessNew:

; 949  : 
; 950  : 			// stcStatus.BackColor = SystemColors.Control
; 951  : 			// stcStatus.Text = ""
; 952  : 			// stcStatus.ControlName = "lblRcvFrame"
; 953  : 			// queTNCStatus.Enqueue(stcStatus)
; 954  : 		}
; 955  : 		else

  00246	e9 3c 03 00 00	 jmp	 $LN65@ProcessNew
$LN67@ProcessNew:

; 956  : 		{
; 957  : 			//	Get Frame info and Initialise Demodulate variables
; 958  : 
; 959  : 			// We've used intMFSReadPtr samples, so remove from Buffer
; 960  : 
; 961  : //			sprintf(Msg, "Got Frame Type %x", intFrameType);
; 962  : //			printtick(Msg);
; 963  : 
; 964  : 			intFilteredMixedSamplesLength -= intMFSReadPtr;

  0024b	a1 00 00 00 00	 mov	 eax, DWORD PTR _intFilteredMixedSamplesLength
  00250	2b 05 00 00 00
	00		 sub	 eax, DWORD PTR _intMFSReadPtr
  00256	a3 00 00 00 00	 mov	 DWORD PTR _intFilteredMixedSamplesLength, eax

; 965  : 	
; 966  : 			memmove(intFilteredMixedSamples,
; 967  : 				&intFilteredMixedSamples[intMFSReadPtr], intFilteredMixedSamplesLength * 2); 

  0025b	a1 00 00 00 00	 mov	 eax, DWORD PTR _intFilteredMixedSamplesLength
  00260	d1 e0		 shl	 eax, 1
  00262	50		 push	 eax
  00263	8b 0d 00 00 00
	00		 mov	 ecx, DWORD PTR _intMFSReadPtr
  00269	8d 14 4d 00 00
	00 00		 lea	 edx, DWORD PTR _intFilteredMixedSamples[ecx*2]
  00270	52		 push	 edx
  00271	68 00 00 00 00	 push	 OFFSET _intFilteredMixedSamples
  00276	e8 00 00 00 00	 call	 _memmove
  0027b	83 c4 0c	 add	 esp, 12			; 0000000cH

; 968  : 
; 969  : 			intMFSReadPtr = 0;

  0027e	c7 05 00 00 00
	00 00 00 00 00	 mov	 DWORD PTR _intMFSReadPtr, 0

; 970  : 
; 971  : 			if (!FrameInfo(intFrameType, &blnOdd, &intNumCar, strMod, &intBaud, &intDataLen, &intRSLen, &bytMinQualThresh, strType))

  00288	68 00 00 00 00	 push	 OFFSET _strType
  0028d	68 00 00 00 00	 push	 OFFSET _bytMinQualThresh
  00292	68 00 00 00 00	 push	 OFFSET _intRSLen
  00297	68 00 00 00 00	 push	 OFFSET _intDataLen
  0029c	68 00 00 00 00	 push	 OFFSET _intBaud
  002a1	68 00 00 00 00	 push	 OFFSET _strMod
  002a6	68 00 00 00 00	 push	 OFFSET _intNumCar
  002ab	68 00 00 00 00	 push	 OFFSET _blnOdd
  002b0	a0 00 00 00 00	 mov	 al, BYTE PTR _intFrameType
  002b5	50		 push	 eax
  002b6	e8 00 00 00 00	 call	 _FrameInfo
  002bb	83 c4 24	 add	 esp, 36			; 00000024H
  002be	85 c0		 test	 eax, eax
  002c0	75 26		 jne	 SHORT $LN64@ProcessNew

; 972  : 			{
; 973  : 				printtick("bad frame type");

  002c2	68 00 00 00 00	 push	 OFFSET ??_C@_0P@MHCKBMIJ@bad?5frame?5type?$AA@
  002c7	e8 00 00 00 00	 call	 _printtick
  002cc	83 c4 04	 add	 esp, 4

; 974  : 				State = SearchingForLeader;

  002cf	c7 05 00 00 00
	00 00 00 00 00	 mov	 DWORD PTR _State, 0

; 975  : 				ClearAllMixedSamples();

  002d9	e8 00 00 00 00	 call	 _ClearAllMixedSamples

; 976  : 				DiscardOldSamples();

  002de	e8 00 00 00 00	 call	 _DiscardOldSamples

; 977  : 				return;

  002e3	e9 4e 09 00 00	 jmp	 $LN54@ProcessNew
$LN64@ProcessNew:

; 978  : 			}
; 979  : 
; 980  : 			if (IsShortControlFrame(intFrameType))

  002e8	a0 00 00 00 00	 mov	 al, BYTE PTR _intFrameType
  002ed	50		 push	 eax
  002ee	e8 00 00 00 00	 call	 _IsShortControlFrame
  002f3	83 c4 04	 add	 esp, 4
  002f6	85 c0		 test	 eax, eax
  002f8	0f 84 eb 00 00
	00		 je	 $LN63@ProcessNew

; 981  : 			{
; 982  : 				// Frame has no data so is now complete
; 983  : 
; 984  : 				// See if IRStoISS shortcut can be invoked
; 985  : 				
; 986  : 				if (ProtocolState == IRStoISS && intFrameType >= 0xe0)

  002fe	83 3d 00 00 00
	00 05		 cmp	 DWORD PTR _ProtocolState, 5
  00305	0f 85 98 00 00
	00		 jne	 $LN62@ProcessNew
  0030b	81 3d 00 00 00
	00 e0 00 00 00	 cmp	 DWORD PTR _intFrameType, 224 ; 000000e0H
  00315	0f 8c 88 00 00
	00		 jl	 $LN62@ProcessNew

; 987  : 				{
; 988  : 					//	In this state transition to ISS if  ACK frame 
; 989  : 		
; 990  : 					WriteDebugLog("[ARDOPprotocol.ProcessNewSamples] ProtocolState=IRStoISS, substate = %s ACK received. Cease BREAKS, NewProtocolState=ISS, substate ISSData", ARQSubStates[ARQState]);

  0031b	a1 00 00 00 00	 mov	 eax, DWORD PTR _ARQState
  00320	6b c0 0b	 imul	 eax, 11			; 0000000bH
  00323	05 00 00 00 00	 add	 eax, OFFSET _ARQSubStates
  00328	50		 push	 eax
  00329	68 00 00 00 00	 push	 OFFSET ??_C@_0IL@FILFNEGA@?$FLARDOPprotocol?4ProcessNewSamples@
  0032e	e8 00 00 00 00	 call	 _WriteDebugLog
  00333	83 c4 08	 add	 esp, 8

; 991  : 					blnEnbARQRpt = FALSE;	// stop the BREAK repeats

  00336	c7 05 00 00 00
	00 00 00 00 00	 mov	 DWORD PTR _blnEnbARQRpt, 0

; 992  : 					intLastARQDataFrameToHost = -1; // initialize to illegal value to capture first new ISS frame and pass to host

  00340	c7 05 00 00 00
	00 ff ff ff ff	 mov	 DWORD PTR _intLastARQDataFrameToHost, -1

; 993  : 
; 994  : 					if (bytCurrentFrameType == 0) //  hasn't been initialized yet

  0034a	0f b6 05 00 00
	00 00		 movzx	 eax, BYTE PTR _bytCurrentFrameType
  00351	85 c0		 test	 eax, eax
  00353	75 23		 jne	 SHORT $LN61@ProcessNew

; 995  : 					{
; 996  : 						WriteDebugLog("[ARDOPprotocol.ProcessNewSamples, ProtocolState=IRStoISS, Initializing GetNextFrameData");

  00355	68 00 00 00 00	 push	 OFFSET ??_C@_0FI@LAFGIKHG@?$FLARDOPprotocol?4ProcessNewSamples@
  0035a	e8 00 00 00 00	 call	 _WriteDebugLog
  0035f	83 c4 04	 add	 esp, 4

; 997  : 		   				GetNextFrameData(&intShiftUpDn, 0, "", TRUE); // just sets the initial data, frame type, and sets intShiftUpDn= 0

  00362	6a 01		 push	 1
  00364	68 00 00 00 00	 push	 OFFSET ??_C@_00CNPNBAHC@?$AA@
  00369	6a 00		 push	 0
  0036b	68 00 00 00 00	 push	 OFFSET _intShiftUpDn
  00370	e8 00 00 00 00	 call	 _GetNextFrameData
  00375	83 c4 10	 add	 esp, 16			; 00000010H
$LN61@ProcessNew:

; 998  : 					}
; 999  : 
; 1000 : 					SetARDOPProtocolState(ISS);

  00378	6a 02		 push	 2
  0037a	e8 00 00 00 00	 call	 _SetARDOPProtocolState
  0037f	83 c4 04	 add	 esp, 4

; 1001 : 					intLinkTurnovers += 1;

  00382	a1 00 00 00 00	 mov	 eax, DWORD PTR _intLinkTurnovers
  00387	83 c0 01	 add	 eax, 1
  0038a	a3 00 00 00 00	 mov	 DWORD PTR _intLinkTurnovers, eax

; 1002 : 					ARQState = ISSData;			

  0038f	c7 05 00 00 00
	00 03 00 00 00	 mov	 DWORD PTR _ARQState, 3

; 1003 : 					SendData();				 //       Send new data from outbound queue and set up repeats

  00399	e8 00 00 00 00	 call	 _SendData

; 1004 : 					goto skipDecode;

  0039e	e9 7f 08 00 00	 jmp	 $skipDecode$5842
$LN62@ProcessNew:

; 1005 : 				}
; 1006 :      
; 1007 : 				// prepare for next
; 1008 : 
; 1009 : 				DiscardOldSamples();

  003a3	e8 00 00 00 00	 call	 _DiscardOldSamples

; 1010 : 				ClearAllMixedSamples();

  003a8	e8 00 00 00 00	 call	 _ClearAllMixedSamples

; 1011 : 				State = SearchingForLeader;

  003ad	c7 05 00 00 00
	00 00 00 00 00	 mov	 DWORD PTR _State, 0

; 1012 : 				blnFrameDecodedOK = TRUE;

  003b7	c7 45 94 01 00
	00 00		 mov	 DWORD PTR _blnFrameDecodedOK$[ebp], 1

; 1013 : 				WriteDebugLog("[DecodeFrame] Frame: %s ", Name(intFrameType));

  003be	a0 00 00 00 00	 mov	 al, BYTE PTR _intFrameType
  003c3	50		 push	 eax
  003c4	e8 00 00 00 00	 call	 _Name
  003c9	83 c4 04	 add	 esp, 4
  003cc	50		 push	 eax
  003cd	68 00 00 00 00	 push	 OFFSET ??_C@_0BJ@JADBCDC@?$FLDecodeFrame?$FN?5Frame?3?5?$CFs?5?$AA@
  003d2	e8 00 00 00 00	 call	 _WriteDebugLog
  003d7	83 c4 08	 add	 esp, 8

; 1014 : 
; 1015 : 				DecodeCompleteTime = Now;

  003da	e8 00 00 00 00	 call	 _getTicks
  003df	a3 00 00 00 00	 mov	 DWORD PTR _DecodeCompleteTime, eax

; 1016 : 
; 1017 : 				goto ProcessFrame;

  003e4	e9 0d 05 00 00	 jmp	 $ProcessFrame$5844
$LN63@ProcessNew:

; 1018 : 			}
; 1019 : 
; 1020 : 			intSampPerSym = 12000 / intBaud;

  003e9	b8 e0 2e 00 00	 mov	 eax, 12000		; 00002ee0H
  003ee	99		 cdq
  003ef	f7 3d 00 00 00
	00		 idiv	 DWORD PTR _intBaud
  003f5	a3 00 00 00 00	 mov	 DWORD PTR _intSampPerSym, eax

; 1021 : 
; 1022 : 			if (IsDataFrame(intFrameType))

  003fa	a0 00 00 00 00	 mov	 al, BYTE PTR _intFrameType
  003ff	50		 push	 eax
  00400	e8 00 00 00 00	 call	 _IsDataFrame
  00405	83 c4 04	 add	 esp, 4
  00408	85 c0		 test	 eax, eax
  0040a	74 17		 je	 SHORT $LN60@ProcessNew

; 1023 : 				SymbolsLeft = intDataLen + intRSLen + 3; // Data has a length byte

  0040c	a1 00 00 00 00	 mov	 eax, DWORD PTR _intRSLen
  00411	8b 0d 00 00 00
	00		 mov	 ecx, DWORD PTR _intDataLen
  00417	8d 54 01 03	 lea	 edx, DWORD PTR [ecx+eax+3]
  0041b	89 15 00 00 00
	00		 mov	 DWORD PTR _SymbolsLeft, edx

; 1024 : 			else

  00421	eb 15		 jmp	 SHORT $LN59@ProcessNew
$LN60@ProcessNew:

; 1025 : 				SymbolsLeft = intDataLen + intRSLen + 2;

  00423	a1 00 00 00 00	 mov	 eax, DWORD PTR _intRSLen
  00428	8b 0d 00 00 00
	00		 mov	 ecx, DWORD PTR _intDataLen
  0042e	8d 54 01 02	 lea	 edx, DWORD PTR [ecx+eax+2]
  00432	89 15 00 00 00
	00		 mov	 DWORD PTR _SymbolsLeft, edx
$LN59@ProcessNew:

; 1026 : 
; 1027 : 			if (intDataLen == 600)

  00438	81 3d 00 00 00
	00 58 02 00 00	 cmp	 DWORD PTR _intDataLen, 600 ; 00000258H
  00442	75 0d		 jne	 SHORT $LN58@ProcessNew

; 1028 : 				SymbolsLeft += 6;		// 600 baud has 3 * RS Blocks

  00444	a1 00 00 00 00	 mov	 eax, DWORD PTR _SymbolsLeft
  00449	83 c0 06	 add	 eax, 6
  0044c	a3 00 00 00 00	 mov	 DWORD PTR _SymbolsLeft, eax
$LN58@ProcessNew:

; 1029 : 			
; 1030 : 			intToneMagsLength = 16 * SymbolsLeft;	// 4 tones, 2 bits per set

  00451	a1 00 00 00 00	 mov	 eax, DWORD PTR _SymbolsLeft
  00456	c1 e0 04	 shl	 eax, 4
  00459	a3 00 00 00 00	 mov	 DWORD PTR _intToneMagsLength, eax

; 1031 : 			
; 1032 : 			memset(intToneMagsIndex, 0, sizeof(intToneMagsIndex));

  0045e	6a 10		 push	 16			; 00000010H
  00460	6a 00		 push	 0
  00462	68 00 00 00 00	 push	 OFFSET _intToneMagsIndex
  00467	e8 00 00 00 00	 call	 _memset
  0046c	83 c4 0c	 add	 esp, 12			; 0000000cH

; 1033 : 			
; 1034 : 			charIndex = 0;	

  0046f	c7 05 00 00 00
	00 00 00 00 00	 mov	 DWORD PTR _charIndex, 0

; 1035 : 			PSKInitDone = 0;

  00479	c7 05 00 00 00
	00 00 00 00 00	 mov	 DWORD PTR _PSKInitDone, 0

; 1036 : 			
; 1037 : 			if (!IsShortControlFrame(intFrameType))

  00483	a0 00 00 00 00	 mov	 al, BYTE PTR _intFrameType
  00488	50		 push	 eax
  00489	e8 00 00 00 00	 call	 _IsShortControlFrame
  0048e	83 c4 04	 add	 esp, 4

; 1038 : 			{
; 1039 :                //         stcStatus.BackColor = Color.Khaki
; 1040 :                //         stcStatus.Text = strType
; 1041 :                //         stcStatus.ControlName = "lblRcvFrame"
; 1042 :                //         queTNCStatus.Enqueue(stcStatus)
; 1043 : 			}
; 1044 : 
; 1045 : 			State = AcquireFrame;

  00491	c7 05 00 00 00
	00 05 00 00 00	 mov	 DWORD PTR _State, 5

; 1046 : 			
; 1047 : 			if (ProtocolMode == FEC && IsDataFrame(intFrameType) && ProtocolState != FECSend)

  0049b	83 3d 00 00 00
	00 01		 cmp	 DWORD PTR _ProtocolMode, 1
  004a2	75 25		 jne	 SHORT $LN56@ProcessNew
  004a4	a0 00 00 00 00	 mov	 al, BYTE PTR _intFrameType
  004a9	50		 push	 eax
  004aa	e8 00 00 00 00	 call	 _IsDataFrame
  004af	83 c4 04	 add	 esp, 4
  004b2	85 c0		 test	 eax, eax
  004b4	74 13		 je	 SHORT $LN56@ProcessNew
  004b6	83 3d 00 00 00
	00 06		 cmp	 DWORD PTR _ProtocolState, 6
  004bd	74 0a		 je	 SHORT $LN56@ProcessNew

; 1048 : 				SetARDOPProtocolState(FECRcv);

  004bf	6a 07		 push	 7
  004c1	e8 00 00 00 00	 call	 _SetARDOPProtocolState
  004c6	83 c4 04	 add	 esp, 4
$LN56@ProcessNew:

; 1049 : 
; 1050 : 			// if a data frame, and not the same frame type as last, reinitialise 
; 1051 : 			// correctly received carriers byte and memory ARQ fields
; 1052 : 
; 1053 : //			if (IsDataFrame(intFrameType) && LastDataFrameType != intFrameType)
; 1054 : 
; 1055 : 			if (LastDataFrameType != intFrameType)

  004c9	a1 00 00 00 00	 mov	 eax, DWORD PTR _LastDataFrameType
  004ce	3b 05 00 00 00
	00		 cmp	 eax, DWORD PTR _intFrameType
  004d4	74 64		 je	 SHORT $LN55@ProcessNew

; 1056 : 			{
; 1057 : 				WriteDebugLog("New frame type - MEMARQ flags reset");

  004d6	68 00 00 00 00	 push	 OFFSET ??_C@_0CE@PACHHMPP@New?5frame?5type?5?9?5MEMARQ?5flags?5re@
  004db	e8 00 00 00 00	 call	 _WriteDebugLog
  004e0	83 c4 04	 add	 esp, 4

; 1058 : 				memset(CarrierOk, 0, sizeof(CarrierOk));

  004e3	6a 08		 push	 8
  004e5	6a 00		 push	 0
  004e7	68 00 00 00 00	 push	 OFFSET _CarrierOk
  004ec	e8 00 00 00 00	 call	 _memset
  004f1	83 c4 0c	 add	 esp, 12			; 0000000cH

; 1059 : 				LastDataFrameType = intFrameType;

  004f4	a1 00 00 00 00	 mov	 eax, DWORD PTR _intFrameType
  004f9	a3 00 00 00 00	 mov	 DWORD PTR _LastDataFrameType, eax

; 1060 : 
; 1061 : 				// note that although we only do mem arq if enough RAM we
; 1062 : 				// still skip decoding carriers that have been received;
; 1063 : 
; 1064 : #ifdef MEMORYARQ
; 1065 : 				memset(intToneMagsAvg, 0, sizeof(intToneMagsAvg));

  004fe	68 c0 14 00 00	 push	 5312			; 000014c0H
  00503	6a 00		 push	 0
  00505	68 00 00 00 00	 push	 OFFSET _intToneMagsAvg
  0050a	e8 00 00 00 00	 call	 _memset
  0050f	83 c4 0c	 add	 esp, 12			; 0000000cH

; 1066 : 				memset(intCarPhaseAvg, 0, sizeof(intCarPhaseAvg));

  00512	68 c0 28 00 00	 push	 10432			; 000028c0H
  00517	6a 00		 push	 0
  00519	68 00 00 00 00	 push	 OFFSET _intCarPhaseAvg
  0051e	e8 00 00 00 00	 call	 _memset
  00523	83 c4 0c	 add	 esp, 12			; 0000000cH

; 1067 : 				memset(intCarMagAvg, 0, sizeof(intCarMagAvg));

  00526	68 c0 28 00 00	 push	 10432			; 000028c0H
  0052b	6a 00		 push	 0
  0052d	68 00 00 00 00	 push	 OFFSET _intCarMagAvg
  00532	e8 00 00 00 00	 call	 _memset
  00537	83 c4 0c	 add	 esp, 12			; 0000000cH
$LN55@ProcessNew:

; 1068 : #endif
; 1069 : 			}
; 1070 : 
; 1071 : 			WriteDebugLog("MEMARQ Flags %d %d %d %d %d %d %d %d",
; 1072 : 				CarrierOk[0], CarrierOk[1], CarrierOk[2], CarrierOk[3],
; 1073 : 				CarrierOk[4], CarrierOk[5], CarrierOk[6], CarrierOk[7]);

  0053a	0f be 05 07 00
	00 00		 movsx	 eax, BYTE PTR _CarrierOk+7
  00541	50		 push	 eax
  00542	0f be 0d 06 00
	00 00		 movsx	 ecx, BYTE PTR _CarrierOk+6
  00549	51		 push	 ecx
  0054a	0f be 15 05 00
	00 00		 movsx	 edx, BYTE PTR _CarrierOk+5
  00551	52		 push	 edx
  00552	0f be 05 04 00
	00 00		 movsx	 eax, BYTE PTR _CarrierOk+4
  00559	50		 push	 eax
  0055a	0f be 0d 03 00
	00 00		 movsx	 ecx, BYTE PTR _CarrierOk+3
  00561	51		 push	 ecx
  00562	0f be 15 02 00
	00 00		 movsx	 edx, BYTE PTR _CarrierOk+2
  00569	52		 push	 edx
  0056a	0f be 05 01 00
	00 00		 movsx	 eax, BYTE PTR _CarrierOk+1
  00571	50		 push	 eax
  00572	0f be 0d 00 00
	00 00		 movsx	 ecx, BYTE PTR _CarrierOk
  00579	51		 push	 ecx
  0057a	68 00 00 00 00	 push	 OFFSET ??_C@_0CF@NGDJKDHP@MEMARQ?5Flags?5?$CFd?5?$CFd?5?$CFd?5?$CFd?5?$CFd?5?$CFd?5?$CF@
  0057f	e8 00 00 00 00	 call	 _WriteDebugLog
  00584	83 c4 24	 add	 esp, 36			; 00000024H
$LN65@ProcessNew:

; 1074 : 		}
; 1075 : 	}
; 1076 : 	// Acquire Frame
; 1077 : 
; 1078 : 	if (State == AcquireFrame)

  00587	83 3d 00 00 00
	00 05		 cmp	 DWORD PTR _State, 5
  0058e	0f 85 a2 06 00
	00		 jne	 $LN54@ProcessNew

; 1079 : 	{
; 1080 : 		// Call DemodulateFrame for each set of samples
; 1081 : 
; 1082 : 		DemodulateFrame(intFrameType);

  00594	a1 00 00 00 00	 mov	 eax, DWORD PTR _intFrameType
  00599	50		 push	 eax
  0059a	e8 00 00 00 00	 call	 _DemodulateFrame
  0059f	83 c4 04	 add	 esp, 4

; 1083 : 
; 1084 : 		if (State == AcquireFrame)

  005a2	83 3d 00 00 00
	00 05		 cmp	 DWORD PTR _State, 5
  005a9	75 05		 jne	 SHORT $LN53@ProcessNew

; 1085 : 
; 1086 : 			// We haven't got it all yet so wait for more samples	
; 1087 : 			return;	

  005ab	e9 86 06 00 00	 jmp	 $LN54@ProcessNew
$LN53@ProcessNew:

; 1088 : 
; 1089 : 		//	We have the whole frame, so process it
; 1090 : 
; 1091 : 
; 1092 : //		printtick("got whole frame");
; 1093 : 
; 1094 : 		frameLen = 0;

  005b0	c7 05 00 00 00
	00 00 00 00 00	 mov	 DWORD PTR _frameLen, 0

; 1095 : 
; 1096 : 		if (strcmp (strMod, "4FSK") == 0)

  005ba	68 00 00 00 00	 push	 OFFSET ??_C@_04KOHEBHGC@4FSK?$AA@
  005bf	68 00 00 00 00	 push	 OFFSET _strMod
  005c4	e8 00 00 00 00	 call	 _strcmp
  005c9	83 c4 08	 add	 esp, 8
  005cc	85 c0		 test	 eax, eax
  005ce	75 17		 jne	 SHORT $LN52@ProcessNew

; 1097 : 			Update4FSKConstellation(&intToneMags[0][0], &intLastRcvdFrameQuality);

  005d0	68 00 00 00 00	 push	 OFFSET _intLastRcvdFrameQuality
  005d5	68 00 00 00 00	 push	 OFFSET _intToneMags
  005da	e8 00 00 00 00	 call	 _Update4FSKConstellation
  005df	83 c4 08	 add	 esp, 8
  005e2	e9 a8 00 00 00	 jmp	 $LN45@ProcessNew
$LN52@ProcessNew:

; 1098 : 		else if (strcmp (strMod, "16FSK") == 0)

  005e7	68 00 00 00 00	 push	 OFFSET ??_C@_05GMHCMGLE@16FSK?$AA@
  005ec	68 00 00 00 00	 push	 OFFSET _strMod
  005f1	e8 00 00 00 00	 call	 _strcmp
  005f6	83 c4 08	 add	 esp, 8
  005f9	85 c0		 test	 eax, eax
  005fb	75 14		 jne	 SHORT $LN50@ProcessNew

; 1099 : 			Update16FSKConstellation(&intToneMags[0][0], &intLastRcvdFrameQuality);

  005fd	68 00 00 00 00	 push	 OFFSET _intLastRcvdFrameQuality
  00602	68 00 00 00 00	 push	 OFFSET _intToneMags
  00607	e8 00 00 00 00	 call	 _Update16FSKConstellation
  0060c	83 c4 08	 add	 esp, 8
  0060f	eb 7e		 jmp	 SHORT $LN45@ProcessNew
$LN50@ProcessNew:

; 1100 : 		else if (strcmp (strMod, "8FSK") == 0)

  00611	68 00 00 00 00	 push	 OFFSET ??_C@_04GLIEPKGD@8FSK?$AA@
  00616	68 00 00 00 00	 push	 OFFSET _strMod
  0061b	e8 00 00 00 00	 call	 _strcmp
  00620	83 c4 08	 add	 esp, 8
  00623	85 c0		 test	 eax, eax
  00625	75 14		 jne	 SHORT $LN48@ProcessNew

; 1101 : 			Update8FSKConstellation(&intToneMags[0][0], &intLastRcvdFrameQuality);

  00627	68 00 00 00 00	 push	 OFFSET _intLastRcvdFrameQuality
  0062c	68 00 00 00 00	 push	 OFFSET _intToneMags
  00631	e8 00 00 00 00	 call	 _Update8FSKConstellation
  00636	83 c4 08	 add	 esp, 8

; 1102 : 		else

  00639	eb 54		 jmp	 SHORT $LN45@ProcessNew
$LN48@ProcessNew:

; 1103 : 			if (strcmp (strMod, "16QAM") == 0)

  0063b	68 00 00 00 00	 push	 OFFSET ??_C@_05OIEEHJAK@16QAM?$AA@
  00640	68 00 00 00 00	 push	 OFFSET _strMod
  00645	e8 00 00 00 00	 call	 _strcmp
  0064a	83 c4 08	 add	 esp, 8
  0064d	85 c0		 test	 eax, eax
  0064f	75 20		 jne	 SHORT $LN46@ProcessNew

; 1104 : 				intLastRcvdFrameQuality = UpdatePhaseConstellation(&intPhases[0][0], &intMags[0][0], strMod, TRUE);

  00651	6a 01		 push	 1
  00653	68 00 00 00 00	 push	 OFFSET _strMod
  00658	68 00 00 00 00	 push	 OFFSET _intMags
  0065d	68 00 00 00 00	 push	 OFFSET _intPhases
  00662	e8 00 00 00 00	 call	 _UpdatePhaseConstellation
  00667	83 c4 10	 add	 esp, 16			; 00000010H
  0066a	a3 00 00 00 00	 mov	 DWORD PTR _intLastRcvdFrameQuality, eax

; 1105 : 			else

  0066f	eb 1e		 jmp	 SHORT $LN45@ProcessNew
$LN46@ProcessNew:

; 1106 : 				intLastRcvdFrameQuality = UpdatePhaseConstellation(&intPhases[0][0], &intMags[0][0], strMod, FALSE);

  00671	6a 00		 push	 0
  00673	68 00 00 00 00	 push	 OFFSET _strMod
  00678	68 00 00 00 00	 push	 OFFSET _intMags
  0067d	68 00 00 00 00	 push	 OFFSET _intPhases
  00682	e8 00 00 00 00	 call	 _UpdatePhaseConstellation
  00687	83 c4 10	 add	 esp, 16			; 00000010H
  0068a	a3 00 00 00 00	 mov	 DWORD PTR _intLastRcvdFrameQuality, eax
$LN45@ProcessNew:

; 1107 : 
; 1108 : 
; 1109 : 		WriteDebugLog("Qual = %d", intLastRcvdFrameQuality);

  0068f	a1 00 00 00 00	 mov	 eax, DWORD PTR _intLastRcvdFrameQuality
  00694	50		 push	 eax
  00695	68 00 00 00 00	 push	 OFFSET ??_C@_09GBPIIGEG@Qual?5?$DN?5?$CFd?$AA@
  0069a	e8 00 00 00 00	 call	 _WriteDebugLog
  0069f	83 c4 08	 add	 esp, 8

; 1110 : 		DecodeCompleteTime = Now;

  006a2	e8 00 00 00 00	 call	 _getTicks
  006a7	a3 00 00 00 00	 mov	 DWORD PTR _DecodeCompleteTime, eax

; 1111 : 
; 1112 : 		// This mechanism is to skip actual decoding and reply/change state...no need to decode 
; 1113 : 
; 1114 : 		if (blnBREAKCmd && ProtocolState == IRS && ARQState == IRSData &&
; 1115 : 			intFrameType != bytLastACKedDataFrameType)

  006ac	83 3d 00 00 00
	00 00		 cmp	 DWORD PTR _blnBREAKCmd, 0
  006b3	0f 84 f0 00 00
	00		 je	 $LN44@ProcessNew
  006b9	83 3d 00 00 00
	00 03		 cmp	 DWORD PTR _ProtocolState, 3
  006c0	0f 85 e3 00 00
	00		 jne	 $LN44@ProcessNew
  006c6	83 3d 00 00 00
	00 06		 cmp	 DWORD PTR _ARQState, 6
  006cd	0f 85 d6 00 00
	00		 jne	 $LN44@ProcessNew
  006d3	0f b6 05 00 00
	00 00		 movzx	 eax, BYTE PTR _bytLastACKedDataFrameType
  006da	39 05 00 00 00
	00		 cmp	 DWORD PTR _intFrameType, eax
  006e0	0f 84 c3 00 00
	00		 je	 $LN44@ProcessNew

; 1116 : 		{
; 1117 : 			// This to immediatly go to IRStoISS if blnBREAKCmd enabled.
; 1118 : 		
; 1119 : 			//Implements protocol rule 3.4 (allows faster break) and does not require a good frame decode.
; 1120 : 
; 1121 : 			WriteDebugLog("[ARDOPprotocol.ProcessNewSamples] Skip Data Decoding when blnBREAKCmd and ProtcolState=IRS");

  006e6	68 00 00 00 00	 push	 OFFSET ??_C@_0FL@HDOBMIFN@?$FLARDOPprotocol?4ProcessNewSamples@
  006eb	e8 00 00 00 00	 call	 _WriteDebugLog
  006f0	83 c4 04	 add	 esp, 4

; 1122 : 			intFrameRepeatInterval = ComputeInterFrameInterval(1000 + rand() % 2000);

  006f3	e8 00 00 00 00	 call	 _rand
  006f8	99		 cdq
  006f9	b9 d0 07 00 00	 mov	 ecx, 2000		; 000007d0H
  006fe	f7 f9		 idiv	 ecx
  00700	81 c2 e8 03 00
	00		 add	 edx, 1000		; 000003e8H
  00706	52		 push	 edx
  00707	e8 00 00 00 00	 call	 _ComputeInterFrameInterval
  0070c	83 c4 04	 add	 esp, 4
  0070f	a3 00 00 00 00	 mov	 DWORD PTR _intFrameRepeatInterval, eax

; 1123 : 			SetARDOPProtocolState(IRStoISS); // (ONLY IRS State where repeats are used)				

  00714	6a 05		 push	 5
  00716	e8 00 00 00 00	 call	 _SetARDOPProtocolState
  0071b	83 c4 04	 add	 esp, 4

; 1124 : 			SendCommandToHost("STATUS QUEUE BREAK new Protocol State IRStoISS");

  0071e	68 00 00 00 00	 push	 OFFSET ??_C@_0CP@JLDOIPPD@STATUS?5QUEUE?5BREAK?5new?5Protocol?5@
  00723	e8 00 00 00 00	 call	 _SendCommandToHost
  00728	83 c4 04	 add	 esp, 4

; 1125 : 			blnEnbARQRpt = TRUE;  // setup for repeats until changeover

  0072b	c7 05 00 00 00
	00 01 00 00 00	 mov	 DWORD PTR _blnEnbARQRpt, 1

; 1126 : 			WriteDebugLog("[ARDOPprotocol.ProcessNewSamples] %d bytes to send in ProtocolState: %s: Send BREAK,  New state=IRStoISS (Rule 3.3)",
; 1127 : 					bytDataToSendLength,  ARDOPStates[ProtocolState]);

  00735	a1 00 00 00 00	 mov	 eax, DWORD PTR _ProtocolState
  0073a	6b c0 09	 imul	 eax, 9
  0073d	05 00 00 00 00	 add	 eax, OFFSET _ARDOPStates
  00742	50		 push	 eax
  00743	8b 0d 00 00 00
	00		 mov	 ecx, DWORD PTR _bytDataToSendLength
  00749	51		 push	 ecx
  0074a	68 00 00 00 00	 push	 OFFSET ??_C@_0HE@GMFGFFGG@?$FLARDOPprotocol?4ProcessNewSamples@
  0074f	e8 00 00 00 00	 call	 _WriteDebugLog
  00754	83 c4 0c	 add	 esp, 12			; 0000000cH

; 1128 :  			EncLen = Encode4FSKControl(BREAK, bytSessionID, bytEncodedBytes);

  00757	68 00 00 00 00	 push	 OFFSET _bytEncodedBytes
  0075c	a0 00 00 00 00	 mov	 al, BYTE PTR _bytSessionID
  00761	50		 push	 eax
  00762	6a 23		 push	 35			; 00000023H
  00764	e8 00 00 00 00	 call	 _Encode4FSKControl
  00769	83 c4 0c	 add	 esp, 12			; 0000000cH
  0076c	a3 00 00 00 00	 mov	 DWORD PTR _EncLen, eax

; 1129 : 			Mod4FSKDataAndPlay(BREAK, &bytEncodedBytes[0], EncLen, LeaderLength);		// only returns when all sent

  00771	a1 00 00 00 00	 mov	 eax, DWORD PTR _LeaderLength
  00776	50		 push	 eax
  00777	8b 0d 00 00 00
	00		 mov	 ecx, DWORD PTR _EncLen
  0077d	51		 push	 ecx
  0077e	68 00 00 00 00	 push	 OFFSET _bytEncodedBytes
  00783	6a 23		 push	 35			; 00000023H
  00785	e8 00 00 00 00	 call	 _Mod4FSKDataAndPlay
  0078a	83 c4 10	 add	 esp, 16			; 00000010H

; 1130 : 
; 1131 : 			WriteDebugLog("[ARDOPprotocol.ProcessNewSamples] Skip Data Decoding when blnBREAKCmd and ProtcolState=IRS");

  0078d	68 00 00 00 00	 push	 OFFSET ??_C@_0FL@HDOBMIFN@?$FLARDOPprotocol?4ProcessNewSamples@
  00792	e8 00 00 00 00	 call	 _WriteDebugLog
  00797	83 c4 04	 add	 esp, 4

; 1132 : 			blnBREAKCmd = FALSE;

  0079a	c7 05 00 00 00
	00 00 00 00 00	 mov	 DWORD PTR _blnBREAKCmd, 0

; 1133 : 			goto skipDecode;

  007a4	e9 79 04 00 00	 jmp	 $skipDecode$5842
$LN44@ProcessNew:

; 1134 : 		}
; 1135 : 						
; 1136 : 		if (ProtocolState == IRStoISS && IsDataFrame(intFrameType))

  007a9	83 3d 00 00 00
	00 05		 cmp	 DWORD PTR _ProtocolState, 5
  007b0	0f 85 85 00 00
	00		 jne	 $LN43@ProcessNew
  007b6	a0 00 00 00 00	 mov	 al, BYTE PTR _intFrameType
  007bb	50		 push	 eax
  007bc	e8 00 00 00 00	 call	 _IsDataFrame
  007c1	83 c4 04	 add	 esp, 4
  007c4	85 c0		 test	 eax, eax
  007c6	74 73		 je	 SHORT $LN43@ProcessNew

; 1137 : 		{
; 1138 : 			//	In this state answer any data frame with BREAK 
; 1139 : 		    // not necessary to decode the frame ....just frame type
; 1140 : 
; 1141 : 			WriteDebugLog("[ARDOPprotocol.ProcessNewSamples] Skip Data Decoding when ProtcolState=IRStoISS, Answer with BREAK");

  007c8	68 00 00 00 00	 push	 OFFSET ??_C@_0GD@LEDMPOGN@?$FLARDOPprotocol?4ProcessNewSamples@
  007cd	e8 00 00 00 00	 call	 _WriteDebugLog
  007d2	83 c4 04	 add	 esp, 4

; 1142 : 			intFrameRepeatInterval = ComputeInterFrameInterval(1000 + rand() % 2000);

  007d5	e8 00 00 00 00	 call	 _rand
  007da	99		 cdq
  007db	b9 d0 07 00 00	 mov	 ecx, 2000		; 000007d0H
  007e0	f7 f9		 idiv	 ecx
  007e2	81 c2 e8 03 00
	00		 add	 edx, 1000		; 000003e8H
  007e8	52		 push	 edx
  007e9	e8 00 00 00 00	 call	 _ComputeInterFrameInterval
  007ee	83 c4 04	 add	 esp, 4
  007f1	a3 00 00 00 00	 mov	 DWORD PTR _intFrameRepeatInterval, eax

; 1143 : 			blnEnbARQRpt = TRUE;  // setup for repeats until changeover

  007f6	c7 05 00 00 00
	00 01 00 00 00	 mov	 DWORD PTR _blnEnbARQRpt, 1

; 1144 :  			EncLen = Encode4FSKControl(BREAK, bytSessionID, bytEncodedBytes);

  00800	68 00 00 00 00	 push	 OFFSET _bytEncodedBytes
  00805	a0 00 00 00 00	 mov	 al, BYTE PTR _bytSessionID
  0080a	50		 push	 eax
  0080b	6a 23		 push	 35			; 00000023H
  0080d	e8 00 00 00 00	 call	 _Encode4FSKControl
  00812	83 c4 0c	 add	 esp, 12			; 0000000cH
  00815	a3 00 00 00 00	 mov	 DWORD PTR _EncLen, eax

; 1145 : 			Mod4FSKDataAndPlay(BREAK, &bytEncodedBytes[0], EncLen, LeaderLength);		// only returns when all sent

  0081a	a1 00 00 00 00	 mov	 eax, DWORD PTR _LeaderLength
  0081f	50		 push	 eax
  00820	8b 0d 00 00 00
	00		 mov	 ecx, DWORD PTR _EncLen
  00826	51		 push	 ecx
  00827	68 00 00 00 00	 push	 OFFSET _bytEncodedBytes
  0082c	6a 23		 push	 35			; 00000023H
  0082e	e8 00 00 00 00	 call	 _Mod4FSKDataAndPlay
  00833	83 c4 10	 add	 esp, 16			; 00000010H

; 1146 : 			goto skipDecode;

  00836	e9 e7 03 00 00	 jmp	 $skipDecode$5842
$LN43@ProcessNew:

; 1147 : 		}						
; 1148 : 		
; 1149 : 		if (ProtocolState == IRStoISS && intFrameType >= 0xe0)

  0083b	83 3d 00 00 00
	00 05		 cmp	 DWORD PTR _ProtocolState, 5
  00842	0f 85 98 00 00
	00		 jne	 $LN42@ProcessNew
  00848	81 3d 00 00 00
	00 e0 00 00 00	 cmp	 DWORD PTR _intFrameType, 224 ; 000000e0H
  00852	0f 8c 88 00 00
	00		 jl	 $LN42@ProcessNew

; 1150 : 		{
; 1151 : 			//	In this state transition to ISS if  ACK frame 
; 1152 : 		
; 1153 : 			WriteDebugLog("[ARDOPprotocol.ProcessNewSamples] ProtocolState=IRStoISS, substate = %s ACK received. Cease BREAKS, NewProtocolState=ISS, substate ISSData", ARQSubStates[ARQState]);

  00858	a1 00 00 00 00	 mov	 eax, DWORD PTR _ARQState
  0085d	6b c0 0b	 imul	 eax, 11			; 0000000bH
  00860	05 00 00 00 00	 add	 eax, OFFSET _ARQSubStates
  00865	50		 push	 eax
  00866	68 00 00 00 00	 push	 OFFSET ??_C@_0IL@FILFNEGA@?$FLARDOPprotocol?4ProcessNewSamples@
  0086b	e8 00 00 00 00	 call	 _WriteDebugLog
  00870	83 c4 08	 add	 esp, 8

; 1154 : 			blnEnbARQRpt = FALSE;	// stop the BREAK repeats

  00873	c7 05 00 00 00
	00 00 00 00 00	 mov	 DWORD PTR _blnEnbARQRpt, 0

; 1155 : 			intLastARQDataFrameToHost = -1; // initialize to illegal value to capture first new ISS frame and pass to host

  0087d	c7 05 00 00 00
	00 ff ff ff ff	 mov	 DWORD PTR _intLastARQDataFrameToHost, -1

; 1156 : 
; 1157 : 			if (bytCurrentFrameType == 0) //  hasn't been initialized yet

  00887	0f b6 05 00 00
	00 00		 movzx	 eax, BYTE PTR _bytCurrentFrameType
  0088e	85 c0		 test	 eax, eax
  00890	75 23		 jne	 SHORT $LN41@ProcessNew

; 1158 : 			{
; 1159 : 				WriteDebugLog("[ARDOPprotocol.ProcessNewSamples, ProtocolState=IRStoISS, Initializing GetNextFrameData");

  00892	68 00 00 00 00	 push	 OFFSET ??_C@_0FI@LAFGIKHG@?$FLARDOPprotocol?4ProcessNewSamples@
  00897	e8 00 00 00 00	 call	 _WriteDebugLog
  0089c	83 c4 04	 add	 esp, 4

; 1160 :    				GetNextFrameData(&intShiftUpDn, 0, "", TRUE); // just sets the initial data, frame type, and sets intShiftUpDn= 0

  0089f	6a 01		 push	 1
  008a1	68 00 00 00 00	 push	 OFFSET ??_C@_00CNPNBAHC@?$AA@
  008a6	6a 00		 push	 0
  008a8	68 00 00 00 00	 push	 OFFSET _intShiftUpDn
  008ad	e8 00 00 00 00	 call	 _GetNextFrameData
  008b2	83 c4 10	 add	 esp, 16			; 00000010H
$LN41@ProcessNew:

; 1161 : 			}
; 1162 : 
; 1163 : 			SetARDOPProtocolState(ISS);

  008b5	6a 02		 push	 2
  008b7	e8 00 00 00 00	 call	 _SetARDOPProtocolState
  008bc	83 c4 04	 add	 esp, 4

; 1164 : 			intLinkTurnovers += 1;

  008bf	a1 00 00 00 00	 mov	 eax, DWORD PTR _intLinkTurnovers
  008c4	83 c0 01	 add	 eax, 1
  008c7	a3 00 00 00 00	 mov	 DWORD PTR _intLinkTurnovers, eax

; 1165 : 			ARQState = ISSData;			

  008cc	c7 05 00 00 00
	00 03 00 00 00	 mov	 DWORD PTR _ARQState, 3

; 1166 : 			SendData();				 //       Send new data from outbound queue and set up repeats

  008d6	e8 00 00 00 00	 call	 _SendData

; 1167 : 			goto skipDecode;

  008db	e9 42 03 00 00	 jmp	 $skipDecode$5842
$LN42@ProcessNew:

; 1168 : 		}
; 1169 :      
; 1170 : 		blnFrameDecodedOK = DecodeFrame(intFrameType, bytData);

  008e0	68 00 00 00 00	 push	 OFFSET _bytData
  008e5	a1 00 00 00 00	 mov	 eax, DWORD PTR _intFrameType
  008ea	50		 push	 eax
  008eb	e8 00 00 00 00	 call	 _DecodeFrame
  008f0	83 c4 08	 add	 esp, 8
  008f3	89 45 94	 mov	 DWORD PTR _blnFrameDecodedOK$[ebp], eax
$ProcessFrame$5844:

; 1171 : 
; 1172 : ProcessFrame:	
; 1173 : 
; 1174 : 		if (blnFrameDecodedOK)

  008f6	83 7d 94 00	 cmp	 DWORD PTR _blnFrameDecodedOK$[ebp], 0
  008fa	0f 84 bc 01 00
	00		 je	 $LN40@ProcessNew

; 1175 : 		{
; 1176 : 			if (AccumulateStats)

  00900	83 3d 00 00 00
	00 00		 cmp	 DWORD PTR _AccumulateStats, 0
  00907	74 5a		 je	 SHORT $LN35@ProcessNew

; 1177 : 				if (IsDataFrame(intFrameType))

  00909	a0 00 00 00 00	 mov	 al, BYTE PTR _intFrameType
  0090e	50		 push	 eax
  0090f	e8 00 00 00 00	 call	 _IsDataFrame
  00914	83 c4 04	 add	 esp, 4
  00917	85 c0		 test	 eax, eax
  00919	74 48		 je	 SHORT $LN35@ProcessNew

; 1178 : 					if (strstr (strMod, "PSK"))

  0091b	68 00 00 00 00	 push	 OFFSET ??_C@_03GIMBCJGG@PSK?$AA@
  00920	68 00 00 00 00	 push	 OFFSET _strMod
  00925	e8 00 00 00 00	 call	 _strstr
  0092a	83 c4 08	 add	 esp, 8
  0092d	85 c0		 test	 eax, eax
  0092f	74 0f		 je	 SHORT $LN37@ProcessNew

; 1179 : 						intGoodPSKFrameDataDecodes++;

  00931	a1 00 00 00 00	 mov	 eax, DWORD PTR _intGoodPSKFrameDataDecodes
  00936	83 c0 01	 add	 eax, 1
  00939	a3 00 00 00 00	 mov	 DWORD PTR _intGoodPSKFrameDataDecodes, eax
  0093e	eb 23		 jmp	 SHORT $LN35@ProcessNew
$LN37@ProcessNew:

; 1180 : 					else if (strstr (strMod, "QAM"))

  00940	68 00 00 00 00	 push	 OFFSET ??_C@_03JJIFJOJL@QAM?$AA@
  00945	68 00 00 00 00	 push	 OFFSET _strMod
  0094a	e8 00 00 00 00	 call	 _strstr
  0094f	83 c4 08	 add	 esp, 8
  00952	85 c0		 test	 eax, eax
  00954	74 0d		 je	 SHORT $LN35@ProcessNew

; 1181 : 						intGoodQAMFrameDataDecodes++;

  00956	a1 00 00 00 00	 mov	 eax, DWORD PTR _intGoodQAMFrameDataDecodes
  0095b	83 c0 01	 add	 eax, 1
  0095e	a3 00 00 00 00	 mov	 DWORD PTR _intGoodQAMFrameDataDecodes, eax
$LN35@ProcessNew:

; 1182 : 
; 1183 :  			if (ProtocolMode == FEC)

  00963	83 3d 00 00 00
	00 01		 cmp	 DWORD PTR _ProtocolMode, 1
  0096a	75 79		 jne	 SHORT $LN34@ProcessNew

; 1184 : 			{
; 1185 : 				if (IsDataFrame(intFrameType))	// ' check to see if a data frame

  0096c	a0 00 00 00 00	 mov	 al, BYTE PTR _intFrameType
  00971	50		 push	 eax
  00972	e8 00 00 00 00	 call	 _IsDataFrame
  00977	83 c4 04	 add	 esp, 4
  0097a	85 c0		 test	 eax, eax
  0097c	74 1a		 je	 SHORT $LN33@ProcessNew

; 1186 : 					ProcessRcvdFECDataFrame(intFrameType, bytData, blnFrameDecodedOK);

  0097e	8b 45 94	 mov	 eax, DWORD PTR _blnFrameDecodedOK$[ebp]
  00981	50		 push	 eax
  00982	68 00 00 00 00	 push	 OFFSET _bytData
  00987	8b 0d 00 00 00
	00		 mov	 ecx, DWORD PTR _intFrameType
  0098d	51		 push	 ecx
  0098e	e8 00 00 00 00	 call	 _ProcessRcvdFECDataFrame
  00993	83 c4 0c	 add	 esp, 12			; 0000000cH
  00996	eb 48		 jmp	 SHORT $LN29@ProcessNew
$LN33@ProcessNew:

; 1187 : 				else if (intFrameType == 0x30)

  00998	83 3d 00 00 00
	00 30		 cmp	 DWORD PTR _intFrameType, 48 ; 00000030H
  0099f	75 1a		 jne	 SHORT $LN31@ProcessNew

; 1188 : 					AddTagToDataAndSendToHost(bytData, "IDF", frameLen);

  009a1	a1 00 00 00 00	 mov	 eax, DWORD PTR _frameLen
  009a6	50		 push	 eax
  009a7	68 00 00 00 00	 push	 OFFSET ??_C@_03OJBHPKML@IDF?$AA@
  009ac	68 00 00 00 00	 push	 OFFSET _bytData
  009b1	e8 00 00 00 00	 call	 _AddTagToDataAndSendToHost
  009b6	83 c4 0c	 add	 esp, 12			; 0000000cH
  009b9	eb 25		 jmp	 SHORT $LN29@ProcessNew
$LN31@ProcessNew:

; 1189 : 				else if (intFrameType >= 0x31 && intFrameType <= 0x38)

  009bb	83 3d 00 00 00
	00 31		 cmp	 DWORD PTR _intFrameType, 49 ; 00000031H
  009c2	7c 1c		 jl	 SHORT $LN29@ProcessNew
  009c4	83 3d 00 00 00
	00 38		 cmp	 DWORD PTR _intFrameType, 56 ; 00000038H
  009cb	7f 13		 jg	 SHORT $LN29@ProcessNew

; 1190 : 					ProcessUnconnectedConReqFrame(intFrameType, bytData);

  009cd	68 00 00 00 00	 push	 OFFSET _bytData
  009d2	a1 00 00 00 00	 mov	 eax, DWORD PTR _intFrameType
  009d7	50		 push	 eax
  009d8	e8 00 00 00 00	 call	 _ProcessUnconnectedConReqFrame
  009dd	83 c4 08	 add	 esp, 8
$LN29@ProcessNew:

; 1191 : 			}				
; 1192 : 			else if (ProtocolMode == ARQ)

  009e0	e9 d2 00 00 00	 jmp	 $LN19@ProcessNew
$LN34@ProcessNew:
  009e5	83 3d 00 00 00
	00 02		 cmp	 DWORD PTR _ProtocolMode, 2
  009ec	0f 85 a7 00 00
	00		 jne	 $LN27@ProcessNew

; 1193 : 			{
; 1194 : 				if (!blnTimeoutTriggered)

  009f2	83 3d 00 00 00
	00 00		 cmp	 DWORD PTR _blnTimeoutTriggered, 0
  009f9	75 1f		 jne	 SHORT $LN26@ProcessNew

; 1195 : 					ProcessRcvdARQFrame(intFrameType, bytData, frameLen, blnFrameDecodedOK);  // Process connected ARQ frames here 

  009fb	8b 45 94	 mov	 eax, DWORD PTR _blnFrameDecodedOK$[ebp]
  009fe	50		 push	 eax
  009ff	8b 0d 00 00 00
	00		 mov	 ecx, DWORD PTR _frameLen
  00a05	51		 push	 ecx
  00a06	68 00 00 00 00	 push	 OFFSET _bytData
  00a0b	8a 15 00 00 00
	00		 mov	 dl, BYTE PTR _intFrameType
  00a11	52		 push	 edx
  00a12	e8 00 00 00 00	 call	 _ProcessRcvdARQFrame
  00a17	83 c4 10	 add	 esp, 16			; 00000010H
$LN26@ProcessNew:

; 1196 : 
; 1197 : 				if (ProtocolState == DISC)		  // allows ARQ mode to operate like FEC when not connected

  00a1a	83 3d 00 00 00
	00 01		 cmp	 DWORD PTR _ProtocolState, 1
  00a21	75 74		 jne	 SHORT $LN20@ProcessNew

; 1198 : 					if (intFrameType == 0x30)				

  00a23	83 3d 00 00 00
	00 30		 cmp	 DWORD PTR _intFrameType, 48 ; 00000030H
  00a2a	75 1a		 jne	 SHORT $LN24@ProcessNew

; 1199 : 						AddTagToDataAndSendToHost(bytData, "IDF", frameLen);			

  00a2c	a1 00 00 00 00	 mov	 eax, DWORD PTR _frameLen
  00a31	50		 push	 eax
  00a32	68 00 00 00 00	 push	 OFFSET ??_C@_03OJBHPKML@IDF?$AA@
  00a37	68 00 00 00 00	 push	 OFFSET _bytData
  00a3c	e8 00 00 00 00	 call	 _AddTagToDataAndSendToHost
  00a41	83 c4 0c	 add	 esp, 12			; 0000000cH
  00a44	eb 51		 jmp	 SHORT $LN20@ProcessNew
$LN24@ProcessNew:

; 1200 : 					else if (intFrameType >= 0x31 && intFrameType <= 0x38)

  00a46	83 3d 00 00 00
	00 31		 cmp	 DWORD PTR _intFrameType, 49 ; 00000031H
  00a4d	7c 1e		 jl	 SHORT $LN22@ProcessNew
  00a4f	83 3d 00 00 00
	00 38		 cmp	 DWORD PTR _intFrameType, 56 ; 00000038H
  00a56	7f 15		 jg	 SHORT $LN22@ProcessNew

; 1201 : 						ProcessUnconnectedConReqFrame(intFrameType, bytData);			

  00a58	68 00 00 00 00	 push	 OFFSET _bytData
  00a5d	a1 00 00 00 00	 mov	 eax, DWORD PTR _intFrameType
  00a62	50		 push	 eax
  00a63	e8 00 00 00 00	 call	 _ProcessUnconnectedConReqFrame
  00a68	83 c4 08	 add	 esp, 8
  00a6b	eb 2a		 jmp	 SHORT $LN20@ProcessNew
$LN22@ProcessNew:

; 1202 : 					else if (IsDataFrame(intFrameType)) // check to see if a data frame

  00a6d	a0 00 00 00 00	 mov	 al, BYTE PTR _intFrameType
  00a72	50		 push	 eax
  00a73	e8 00 00 00 00	 call	 _IsDataFrame
  00a78	83 c4 04	 add	 esp, 4
  00a7b	85 c0		 test	 eax, eax
  00a7d	74 18		 je	 SHORT $LN20@ProcessNew

; 1203 : 						ProcessRcvdFECDataFrame(intFrameType, bytData, blnFrameDecodedOK);			

  00a7f	8b 45 94	 mov	 eax, DWORD PTR _blnFrameDecodedOK$[ebp]
  00a82	50		 push	 eax
  00a83	68 00 00 00 00	 push	 OFFSET _bytData
  00a88	8b 0d 00 00 00
	00		 mov	 ecx, DWORD PTR _intFrameType
  00a8e	51		 push	 ecx
  00a8f	e8 00 00 00 00	 call	 _ProcessRcvdFECDataFrame
  00a94	83 c4 0c	 add	 esp, 12			; 0000000cH
$LN20@ProcessNew:

; 1204 : 			}
; 1205 : 			else

  00a97	eb 1e		 jmp	 SHORT $LN19@ProcessNew
$LN27@ProcessNew:

; 1206 : 			{
; 1207 : 				// Unknown Mode
; 1208 : 				bytData[frameLen] = 0;

  00a99	a1 00 00 00 00	 mov	 eax, DWORD PTR _frameLen
  00a9e	c6 80 00 00 00
	00 00		 mov	 BYTE PTR _bytData[eax], 0

; 1209 : 				WriteDebugLog("Received Data, No State %s", bytData);

  00aa5	68 00 00 00 00	 push	 OFFSET _bytData
  00aaa	68 00 00 00 00	 push	 OFFSET ??_C@_0BL@EBKFJBEL@Received?5Data?0?5No?5State?5?$CFs?$AA@
  00aaf	e8 00 00 00 00	 call	 _WriteDebugLog
  00ab4	83 c4 08	 add	 esp, 8
$LN19@ProcessNew:

; 1210 : 			}
; 1211 : 		}
; 1212 : 		else

  00ab7	e9 66 01 00 00	 jmp	 $skipDecode$5842
$LN40@ProcessNew:

; 1213 : 		{
; 1214 : 			//	Bad decode
; 1215 : 
; 1216 :             if (AccumulateStats)

  00abc	83 3d 00 00 00
	00 00		 cmp	 DWORD PTR _AccumulateStats, 0
  00ac3	74 5a		 je	 SHORT $LN13@ProcessNew

; 1217 : 				if (IsDataFrame(intFrameType))

  00ac5	a0 00 00 00 00	 mov	 al, BYTE PTR _intFrameType
  00aca	50		 push	 eax
  00acb	e8 00 00 00 00	 call	 _IsDataFrame
  00ad0	83 c4 04	 add	 esp, 4
  00ad3	85 c0		 test	 eax, eax
  00ad5	74 48		 je	 SHORT $LN13@ProcessNew

; 1218 : 					if (strstr (strMod, "PSK"))

  00ad7	68 00 00 00 00	 push	 OFFSET ??_C@_03GIMBCJGG@PSK?$AA@
  00adc	68 00 00 00 00	 push	 OFFSET _strMod
  00ae1	e8 00 00 00 00	 call	 _strstr
  00ae6	83 c4 08	 add	 esp, 8
  00ae9	85 c0		 test	 eax, eax
  00aeb	74 0f		 je	 SHORT $LN15@ProcessNew

; 1219 : 						intFailedPSKFrameDataDecodes++;

  00aed	a1 00 00 00 00	 mov	 eax, DWORD PTR _intFailedPSKFrameDataDecodes
  00af2	83 c0 01	 add	 eax, 1
  00af5	a3 00 00 00 00	 mov	 DWORD PTR _intFailedPSKFrameDataDecodes, eax
  00afa	eb 23		 jmp	 SHORT $LN13@ProcessNew
$LN15@ProcessNew:

; 1220 : 					else if (strstr (strMod, "QAM"))

  00afc	68 00 00 00 00	 push	 OFFSET ??_C@_03JJIFJOJL@QAM?$AA@
  00b01	68 00 00 00 00	 push	 OFFSET _strMod
  00b06	e8 00 00 00 00	 call	 _strstr
  00b0b	83 c4 08	 add	 esp, 8
  00b0e	85 c0		 test	 eax, eax
  00b10	74 0d		 je	 SHORT $LN13@ProcessNew

; 1221 : 						intFailedQAMFrameDataDecodes++;

  00b12	a1 00 00 00 00	 mov	 eax, DWORD PTR _intFailedQAMFrameDataDecodes
  00b17	83 c0 01	 add	 eax, 1
  00b1a	a3 00 00 00 00	 mov	 DWORD PTR _intFailedQAMFrameDataDecodes, eax
$LN13@ProcessNew:

; 1222 : 
; 1223 : 
; 1224 :             // Debug.WriteLine("[DecodePSKData2] bytPass = " & Format(bytPass, "X"))
; 1225 : 			if (ProtocolMode == FEC)

  00b1f	83 3d 00 00 00
	00 01		 cmp	 DWORD PTR _ProtocolMode, 1
  00b26	75 52		 jne	 SHORT $LN12@ProcessNew

; 1226 : 			{
; 1227 : 				if (IsDataFrame(intFrameType))	// ' check to see if a data frame

  00b28	a0 00 00 00 00	 mov	 al, BYTE PTR _intFrameType
  00b2d	50		 push	 eax
  00b2e	e8 00 00 00 00	 call	 _IsDataFrame
  00b33	83 c4 04	 add	 esp, 4
  00b36	85 c0		 test	 eax, eax
  00b38	74 1a		 je	 SHORT $LN11@ProcessNew

; 1228 : 					ProcessRcvdFECDataFrame(intFrameType, bytData, blnFrameDecodedOK);

  00b3a	8b 45 94	 mov	 eax, DWORD PTR _blnFrameDecodedOK$[ebp]
  00b3d	50		 push	 eax
  00b3e	68 00 00 00 00	 push	 OFFSET _bytData
  00b43	8b 0d 00 00 00
	00		 mov	 ecx, DWORD PTR _intFrameType
  00b49	51		 push	 ecx
  00b4a	e8 00 00 00 00	 call	 _ProcessRcvdFECDataFrame
  00b4f	83 c4 0c	 add	 esp, 12			; 0000000cH
  00b52	eb 21		 jmp	 SHORT $LN9@ProcessNew
$LN11@ProcessNew:

; 1229 : 				else if (intFrameType == 0x30)

  00b54	83 3d 00 00 00
	00 30		 cmp	 DWORD PTR _intFrameType, 48 ; 00000030H
  00b5b	75 18		 jne	 SHORT $LN9@ProcessNew

; 1230 : 					AddTagToDataAndSendToHost(bytData, "ERR", frameLen);

  00b5d	a1 00 00 00 00	 mov	 eax, DWORD PTR _frameLen
  00b62	50		 push	 eax
  00b63	68 00 00 00 00	 push	 OFFSET ??_C@_03JFMEENOE@ERR?$AA@
  00b68	68 00 00 00 00	 push	 OFFSET _bytData
  00b6d	e8 00 00 00 00	 call	 _AddTagToDataAndSendToHost
  00b72	83 c4 0c	 add	 esp, 12			; 0000000cH
$LN9@ProcessNew:

; 1231 : 			}				
; 1232 : 			else if (ProtocolMode == ARQ)

  00b75	e9 87 00 00 00	 jmp	 $LN2@ProcessNew
$LN12@ProcessNew:
  00b7a	83 3d 00 00 00
	00 02		 cmp	 DWORD PTR _ProtocolMode, 2
  00b81	75 7e		 jne	 SHORT $LN2@ProcessNew

; 1233 : 			{
; 1234 : 				if (ProtocolState == DISC)		  // allows ARQ mode to operate like FEC when not connected

  00b83	83 3d 00 00 00
	00 01		 cmp	 DWORD PTR _ProtocolState, 1
  00b8a	75 4d		 jne	 SHORT $LN3@ProcessNew

; 1235 : 				{
; 1236 : 					if (intFrameType == 0x30)				

  00b8c	83 3d 00 00 00
	00 30		 cmp	 DWORD PTR _intFrameType, 48 ; 00000030H
  00b93	75 1a		 jne	 SHORT $LN5@ProcessNew

; 1237 : 						AddTagToDataAndSendToHost(bytData, "ERR", frameLen);			

  00b95	a1 00 00 00 00	 mov	 eax, DWORD PTR _frameLen
  00b9a	50		 push	 eax
  00b9b	68 00 00 00 00	 push	 OFFSET ??_C@_03JFMEENOE@ERR?$AA@
  00ba0	68 00 00 00 00	 push	 OFFSET _bytData
  00ba5	e8 00 00 00 00	 call	 _AddTagToDataAndSendToHost
  00baa	83 c4 0c	 add	 esp, 12			; 0000000cH
  00bad	eb 2a		 jmp	 SHORT $LN3@ProcessNew
$LN5@ProcessNew:

; 1238 : 
; 1239 : 					else if (IsDataFrame(intFrameType))		// check to see if a data frame

  00baf	a0 00 00 00 00	 mov	 al, BYTE PTR _intFrameType
  00bb4	50		 push	 eax
  00bb5	e8 00 00 00 00	 call	 _IsDataFrame
  00bba	83 c4 04	 add	 esp, 4
  00bbd	85 c0		 test	 eax, eax
  00bbf	74 18		 je	 SHORT $LN3@ProcessNew

; 1240 : 						ProcessRcvdFECDataFrame(intFrameType, bytData, blnFrameDecodedOK);

  00bc1	8b 45 94	 mov	 eax, DWORD PTR _blnFrameDecodedOK$[ebp]
  00bc4	50		 push	 eax
  00bc5	68 00 00 00 00	 push	 OFFSET _bytData
  00bca	8b 0d 00 00 00
	00		 mov	 ecx, DWORD PTR _intFrameType
  00bd0	51		 push	 ecx
  00bd1	e8 00 00 00 00	 call	 _ProcessRcvdFECDataFrame
  00bd6	83 c4 0c	 add	 esp, 12			; 0000000cH
$LN3@ProcessNew:

; 1241 : 				}
; 1242 : 				if (!blnTimeoutTriggered)

  00bd9	83 3d 00 00 00
	00 00		 cmp	 DWORD PTR _blnTimeoutTriggered, 0
  00be0	75 1f		 jne	 SHORT $LN2@ProcessNew

; 1243 : 					ProcessRcvdARQFrame(intFrameType, bytData, frameLen, blnFrameDecodedOK);  // Process connected ARQ frames here 

  00be2	8b 45 94	 mov	 eax, DWORD PTR _blnFrameDecodedOK$[ebp]
  00be5	50		 push	 eax
  00be6	8b 0d 00 00 00
	00		 mov	 ecx, DWORD PTR _frameLen
  00bec	51		 push	 ecx
  00bed	68 00 00 00 00	 push	 OFFSET _bytData
  00bf2	8a 15 00 00 00
	00		 mov	 dl, BYTE PTR _intFrameType
  00bf8	52		 push	 edx
  00bf9	e8 00 00 00 00	 call	 _ProcessRcvdARQFrame
  00bfe	83 c4 10	 add	 esp, 16			; 00000010H
$LN2@ProcessNew:

; 1244 :  
; 1245 : 			}
; 1246 :   			if (ProtocolMode == FEC && ProtocolState != FECSend)

  00c01	83 3d 00 00 00
	00 01		 cmp	 DWORD PTR _ProtocolMode, 1
  00c08	75 18		 jne	 SHORT $skipDecode$5842
  00c0a	83 3d 00 00 00
	00 06		 cmp	 DWORD PTR _ProtocolState, 6
  00c11	74 0f		 je	 SHORT $skipDecode$5842

; 1247 : 			{
; 1248 : 				SetARDOPProtocolState(DISC);

  00c13	6a 01		 push	 1
  00c15	e8 00 00 00 00	 call	 _SetARDOPProtocolState
  00c1a	83 c4 04	 add	 esp, 4

; 1249 : 				InitializeConnection();

  00c1d	e8 00 00 00 00	 call	 _InitializeConnection
$skipDecode$5842:

; 1250 : 			}
; 1251 : 		}
; 1252 : skipDecode:			
; 1253 : 		State = SearchingForLeader;

  00c22	c7 05 00 00 00
	00 00 00 00 00	 mov	 DWORD PTR _State, 0

; 1254 : 		ClearAllMixedSamples();

  00c2c	e8 00 00 00 00	 call	 _ClearAllMixedSamples

; 1255 : 		DiscardOldSamples();

  00c31	e8 00 00 00 00	 call	 _DiscardOldSamples
$LN54@ProcessNew:

; 1256 : 		return;
; 1257 : 
; 1258 : 	}
; 1259 : }

  00c36	52		 push	 edx
  00c37	8b cd		 mov	 ecx, ebp
  00c39	50		 push	 eax
  00c3a	8d 15 00 00 00
	00		 lea	 edx, DWORD PTR $LN91@ProcessNew
  00c40	e8 00 00 00 00	 call	 @_RTC_CheckStackVars@8
  00c45	58		 pop	 eax
  00c46	5a		 pop	 edx
  00c47	5f		 pop	 edi
  00c48	5e		 pop	 esi
  00c49	5b		 pop	 ebx
  00c4a	81 c4 48 01 00
	00		 add	 esp, 328		; 00000148H
  00c50	3b ec		 cmp	 ebp, esp
  00c52	e8 00 00 00 00	 call	 __RTC_CheckEsp
  00c57	8b e5		 mov	 esp, ebp
  00c59	5d		 pop	 ebp
  00c5a	c3		 ret	 0
  00c5b	90		 npad	 1
$LN91@ProcessNew:
  00c5c	03 00 00 00	 DD	 3
  00c60	00 00 00 00	 DD	 $LN90@ProcessNew
$LN90@ProcessNew:
  00c64	a0 ff ff ff	 DD	 -96			; ffffffa0H
  00c68	50 00 00 00	 DD	 80			; 00000050H
  00c6c	00 00 00 00	 DD	 $LN87@ProcessNew
  00c70	88 ff ff ff	 DD	 -120			; ffffff88H
  00c74	04 00 00 00	 DD	 4
  00c78	00 00 00 00	 DD	 $LN88@ProcessNew
  00c7c	7c ff ff ff	 DD	 -132			; ffffff7cH
  00c80	04 00 00 00	 DD	 4
  00c84	00 00 00 00	 DD	 $LN89@ProcessNew
$LN89@ProcessNew:
  00c88	5f		 DB	 95			; 0000005fH
  00c89	24		 DB	 36			; 00000024H
  00c8a	41		 DB	 65			; 00000041H
  00c8b	72		 DB	 114			; 00000072H
  00c8c	72		 DB	 114			; 00000072H
  00c8d	61		 DB	 97			; 00000061H
  00c8e	79		 DB	 121			; 00000079H
  00c8f	50		 DB	 80			; 00000050H
  00c90	61		 DB	 97			; 00000061H
  00c91	64		 DB	 100			; 00000064H
  00c92	00		 DB	 0
$LN88@ProcessNew:
  00c93	69		 DB	 105			; 00000069H
  00c94	6e		 DB	 110			; 0000006eH
  00c95	74		 DB	 116			; 00000074H
  00c96	53		 DB	 83			; 00000053H
  00c97	4e		 DB	 78			; 0000004eH
  00c98	00		 DB	 0
$LN87@ProcessNew:
  00c99	4d		 DB	 77			; 0000004dH
  00c9a	73		 DB	 115			; 00000073H
  00c9b	67		 DB	 103			; 00000067H
  00c9c	00		 DB	 0
_ProcessNewSamples ENDP
_TEXT	ENDS
PUBLIC	_GoertzelRealImag
EXTRN	_sin:PROC
; Function compile flags: /Odtp /RTCsu /ZI
;	COMDAT _GoertzelRealImag
_TEXT	SEGMENT
tv220 = -256						; size = 4
tv205 = -256						; size = 4
tv192 = -256						; size = 4
tv181 = -256						; size = 4
_i$ = -56						; size = 4
_dblCoeff$ = -44					; size = 4
_dblW$ = -32						; size = 4
_dblZ_2$ = -20						; size = 4
_dblZ_1$ = -8						; size = 4
_intRealIn$ = 8						; size = 4
_intPtr$ = 12						; size = 4
_N$ = 16						; size = 4
_m$ = 20						; size = 4
_dblReal$ = 24						; size = 4
_dblImag$ = 28						; size = 4
_GoertzelRealImag PROC					; COMDAT

; 1263 : {

  00000	55		 push	 ebp
  00001	8b ec		 mov	 ebp, esp
  00003	81 ec 00 01 00
	00		 sub	 esp, 256		; 00000100H
  00009	53		 push	 ebx
  0000a	56		 push	 esi
  0000b	57		 push	 edi
  0000c	8d bd 00 ff ff
	ff		 lea	 edi, DWORD PTR [ebp-256]
  00012	b9 40 00 00 00	 mov	 ecx, 64			; 00000040H
  00017	b8 cc cc cc cc	 mov	 eax, -858993460		; ccccccccH
  0001c	f3 ab		 rep stosd

; 1264 : 	// intRealIn is a buffer at least intPtr + N in length
; 1265 : 	// N need not be a power of 2
; 1266 : 	// m need not be an integer
; 1267 : 	// Computes the Real and Imaginary Freq values for bin m
; 1268 : 	// Verified to = FFT results for at least 10 significant digits
; 1269 : 	// Timings for 1024 Point on Laptop (64 bit Core Duo 2.2 Ghz)
; 1270 : 	//        GoertzelRealImag .015 ms   Normal FFT (.5 ms)
; 1271 : 	//  assuming Goertzel is proportional to N and FFT time proportional to Nlog2N
; 1272 : 	//  FFT:Goertzel time  ratio ~ 3.3 Log2(N)
; 1273 : 
; 1274 : 	//  Sanity check
; 1275 : 
; 1276 : 	//if (intPtr < 0 Or (intRealIn.Length - intPtr) < N Then
; 1277 :     //        dblReal = 0 : dblImag = 0 : Exit Sub
; 1278 :      //   End If
; 1279 : 
; 1280 : 	float dblZ_1 = 0.0f, dblZ_2 = 0.0f, dblW = 0.0f;

  0001e	d9 ee		 fldz
  00020	d9 5d f8	 fstp	 DWORD PTR _dblZ_1$[ebp]
  00023	d9 ee		 fldz
  00025	d9 5d ec	 fstp	 DWORD PTR _dblZ_2$[ebp]
  00028	d9 ee		 fldz
  0002a	d9 5d e0	 fstp	 DWORD PTR _dblW$[ebp]

; 1281 : 	float dblCoeff = 2 * cosf(2 * M_PI * m / N);

  0002d	d9 45 14	 fld	 DWORD PTR _m$[ebp]
  00030	dc 0d 00 00 00
	00		 fmul	 QWORD PTR __real@401921fb00000000
  00036	da 75 10	 fidiv	 DWORD PTR _N$[ebp]
  00039	83 ec 08	 sub	 esp, 8
  0003c	dd 1c 24	 fstp	 QWORD PTR [esp]
  0003f	e8 00 00 00 00	 call	 _cos
  00044	83 c4 08	 add	 esp, 8
  00047	d9 9d 00 ff ff
	ff		 fstp	 DWORD PTR tv181[ebp]
  0004d	d9 85 00 ff ff
	ff		 fld	 DWORD PTR tv181[ebp]
  00053	dc 0d 00 00 00
	00		 fmul	 QWORD PTR __real@4000000000000000
  00059	d9 5d d4	 fstp	 DWORD PTR _dblCoeff$[ebp]

; 1282 : 	int i;
; 1283 : 
; 1284 : 	for (i = 0; i <= N; i++)

  0005c	c7 45 c8 00 00
	00 00		 mov	 DWORD PTR _i$[ebp], 0
  00063	eb 09		 jmp	 SHORT $LN5@GoertzelRe
$LN4@GoertzelRe:
  00065	8b 45 c8	 mov	 eax, DWORD PTR _i$[ebp]
  00068	83 c0 01	 add	 eax, 1
  0006b	89 45 c8	 mov	 DWORD PTR _i$[ebp], eax
$LN5@GoertzelRe:
  0006e	8b 45 c8	 mov	 eax, DWORD PTR _i$[ebp]
  00071	3b 45 10	 cmp	 eax, DWORD PTR _N$[ebp]
  00074	7f 51		 jg	 SHORT $LN3@GoertzelRe

; 1285 : 	{
; 1286 : 		if (i == N)

  00076	8b 45 c8	 mov	 eax, DWORD PTR _i$[ebp]
  00079	3b 45 10	 cmp	 eax, DWORD PTR _N$[ebp]
  0007c	75 0e		 jne	 SHORT $LN2@GoertzelRe

; 1287 : 			dblW = dblZ_1 * dblCoeff - dblZ_2;

  0007e	d9 45 f8	 fld	 DWORD PTR _dblZ_1$[ebp]
  00081	d8 4d d4	 fmul	 DWORD PTR _dblCoeff$[ebp]
  00084	d8 65 ec	 fsub	 DWORD PTR _dblZ_2$[ebp]
  00087	d9 5d e0	 fstp	 DWORD PTR _dblW$[ebp]

; 1288 : 		else

  0008a	eb 24		 jmp	 SHORT $LN1@GoertzelRe
$LN2@GoertzelRe:

; 1289 : 			dblW = intRealIn[intPtr] + dblZ_1 * dblCoeff - dblZ_2;

  0008c	8b 45 0c	 mov	 eax, DWORD PTR _intPtr$[ebp]
  0008f	8b 4d 08	 mov	 ecx, DWORD PTR _intRealIn$[ebp]
  00092	0f bf 14 41	 movsx	 edx, WORD PTR [ecx+eax*2]
  00096	89 95 00 ff ff
	ff		 mov	 DWORD PTR tv192[ebp], edx
  0009c	db 85 00 ff ff
	ff		 fild	 DWORD PTR tv192[ebp]
  000a2	d9 45 f8	 fld	 DWORD PTR _dblZ_1$[ebp]
  000a5	d8 4d d4	 fmul	 DWORD PTR _dblCoeff$[ebp]
  000a8	de c1		 faddp	 ST(1), ST(0)
  000aa	d8 65 ec	 fsub	 DWORD PTR _dblZ_2$[ebp]
  000ad	d9 5d e0	 fstp	 DWORD PTR _dblW$[ebp]
$LN1@GoertzelRe:

; 1290 : 
; 1291 : 		dblZ_2 = dblZ_1;

  000b0	d9 45 f8	 fld	 DWORD PTR _dblZ_1$[ebp]
  000b3	d9 5d ec	 fstp	 DWORD PTR _dblZ_2$[ebp]

; 1292 : 		dblZ_1 = dblW;

  000b6	d9 45 e0	 fld	 DWORD PTR _dblW$[ebp]
  000b9	d9 5d f8	 fstp	 DWORD PTR _dblZ_1$[ebp]

; 1293 : 		intPtr++;

  000bc	8b 45 0c	 mov	 eax, DWORD PTR _intPtr$[ebp]
  000bf	83 c0 01	 add	 eax, 1
  000c2	89 45 0c	 mov	 DWORD PTR _intPtr$[ebp], eax

; 1294 : 	}

  000c5	eb 9e		 jmp	 SHORT $LN4@GoertzelRe
$LN3@GoertzelRe:

; 1295 : 	*dblReal = 2 * (dblW - cosf(2 * M_PI * m / N) * dblZ_2) / N;  // scale results by N/2

  000c7	d9 45 14	 fld	 DWORD PTR _m$[ebp]
  000ca	dc 0d 00 00 00
	00		 fmul	 QWORD PTR __real@401921fb00000000
  000d0	da 75 10	 fidiv	 DWORD PTR _N$[ebp]
  000d3	83 ec 08	 sub	 esp, 8
  000d6	dd 1c 24	 fstp	 QWORD PTR [esp]
  000d9	e8 00 00 00 00	 call	 _cos
  000de	83 c4 08	 add	 esp, 8
  000e1	d9 9d 00 ff ff
	ff		 fstp	 DWORD PTR tv205[ebp]
  000e7	d9 85 00 ff ff
	ff		 fld	 DWORD PTR tv205[ebp]
  000ed	d8 4d ec	 fmul	 DWORD PTR _dblZ_2$[ebp]
  000f0	d8 6d e0	 fsubr	 DWORD PTR _dblW$[ebp]
  000f3	dc 0d 00 00 00
	00		 fmul	 QWORD PTR __real@4000000000000000
  000f9	da 75 10	 fidiv	 DWORD PTR _N$[ebp]
  000fc	8b 45 18	 mov	 eax, DWORD PTR _dblReal$[ebp]
  000ff	d9 18		 fstp	 DWORD PTR [eax]

; 1296 : 	*dblImag = 2 * (sinf(2 * M_PI * m / N) * dblZ_2) / N;  // scale results by N/2   (this sign agrees with Scope DSP phase values) 

  00101	d9 45 14	 fld	 DWORD PTR _m$[ebp]
  00104	dc 0d 00 00 00
	00		 fmul	 QWORD PTR __real@401921fb00000000
  0010a	da 75 10	 fidiv	 DWORD PTR _N$[ebp]
  0010d	83 ec 08	 sub	 esp, 8
  00110	dd 1c 24	 fstp	 QWORD PTR [esp]
  00113	e8 00 00 00 00	 call	 _sin
  00118	83 c4 08	 add	 esp, 8
  0011b	d9 9d 00 ff ff
	ff		 fstp	 DWORD PTR tv220[ebp]
  00121	d9 85 00 ff ff
	ff		 fld	 DWORD PTR tv220[ebp]
  00127	d8 4d ec	 fmul	 DWORD PTR _dblZ_2$[ebp]
  0012a	dc 0d 00 00 00
	00		 fmul	 QWORD PTR __real@4000000000000000
  00130	da 75 10	 fidiv	 DWORD PTR _N$[ebp]
  00133	8b 45 1c	 mov	 eax, DWORD PTR _dblImag$[ebp]
  00136	d9 18		 fstp	 DWORD PTR [eax]

; 1297 : }

  00138	5f		 pop	 edi
  00139	5e		 pop	 esi
  0013a	5b		 pop	 ebx
  0013b	81 c4 00 01 00
	00		 add	 esp, 256		; 00000100H
  00141	3b ec		 cmp	 ebp, esp
  00143	e8 00 00 00 00	 call	 __RTC_CheckEsp
  00148	8b e5		 mov	 esp, ebp
  0014a	5d		 pop	 ebp
  0014b	c3		 ret	 0
_GoertzelRealImag ENDP
_TEXT	ENDS
PUBLIC	__real@3fe0000000000000
PUBLIC	_GoertzelRealImagHanning
;	COMDAT __real@3fe0000000000000
CONST	SEGMENT
__real@3fe0000000000000 DQ 03fe0000000000000r	; 0.5
; Function compile flags: /Odtp /RTCsu /ZI
CONST	ENDS
;	COMDAT _GoertzelRealImagHanning
_TEXT	SEGMENT
tv270 = -256						; size = 4
tv255 = -256						; size = 4
tv241 = -256						; size = 4
tv228 = -256						; size = 4
tv216 = -256						; size = 4
tv208 = -256						; size = 4
_i$ = -56						; size = 4
_dblCoeff$ = -44					; size = 4
_dblW$ = -32						; size = 4
_dblZ_2$ = -20						; size = 4
_dblZ_1$ = -8						; size = 4
_intRealIn$ = 8						; size = 4
_intPtr$ = 12						; size = 4
_N$ = 16						; size = 4
_m$ = 20						; size = 4
_dblReal$ = 24						; size = 4
_dblImag$ = 28						; size = 4
_GoertzelRealImagHanning PROC				; COMDAT

; 1306 : {

  00000	55		 push	 ebp
  00001	8b ec		 mov	 ebp, esp
  00003	81 ec 00 01 00
	00		 sub	 esp, 256		; 00000100H
  00009	53		 push	 ebx
  0000a	56		 push	 esi
  0000b	57		 push	 edi
  0000c	8d bd 00 ff ff
	ff		 lea	 edi, DWORD PTR [ebp-256]
  00012	b9 40 00 00 00	 mov	 ecx, 64			; 00000040H
  00017	b8 cc cc cc cc	 mov	 eax, -858993460		; ccccccccH
  0001c	f3 ab		 rep stosd

; 1307 : 	// intRealIn is a buffer at least intPtr + N in length
; 1308 : 	// N need not be a power of 2
; 1309 : 	// m need not be an integer
; 1310 : 	// Computes the Real and Imaginary Freq values for bin m
; 1311 : 	// Verified to = FFT results for at least 10 significant digits
; 1312 : 	// Timings for 1024 Point on Laptop (64 bit Core Duo 2.2 Ghz)
; 1313 : 	//        GoertzelRealImag .015 ms   Normal FFT (.5 ms)
; 1314 : 	//  assuming Goertzel is proportional to N and FFT time proportional to Nlog2N
; 1315 : 	//  FFT:Goertzel time  ratio ~ 3.3 Log2(N)
; 1316 : 
; 1317 : 	//  Sanity check
; 1318 :  
; 1319 :   	float dblZ_1 = 0.0f, dblZ_2 = 0.0f, dblW = 0.0f;

  0001e	d9 ee		 fldz
  00020	d9 5d f8	 fstp	 DWORD PTR _dblZ_1$[ebp]
  00023	d9 ee		 fldz
  00025	d9 5d ec	 fstp	 DWORD PTR _dblZ_2$[ebp]
  00028	d9 ee		 fldz
  0002a	d9 5d e0	 fstp	 DWORD PTR _dblW$[ebp]

; 1320 : 	float dblCoeff = 2 * cosf(2 * M_PI * m / N);

  0002d	d9 45 14	 fld	 DWORD PTR _m$[ebp]
  00030	dc 0d 00 00 00
	00		 fmul	 QWORD PTR __real@401921fb00000000
  00036	da 75 10	 fidiv	 DWORD PTR _N$[ebp]
  00039	83 ec 08	 sub	 esp, 8
  0003c	dd 1c 24	 fstp	 QWORD PTR [esp]
  0003f	e8 00 00 00 00	 call	 _cos
  00044	83 c4 08	 add	 esp, 8
  00047	d9 9d 00 ff ff
	ff		 fstp	 DWORD PTR tv208[ebp]
  0004d	d9 85 00 ff ff
	ff		 fld	 DWORD PTR tv208[ebp]
  00053	dc 0d 00 00 00
	00		 fmul	 QWORD PTR __real@4000000000000000
  00059	d9 5d d4	 fstp	 DWORD PTR _dblCoeff$[ebp]

; 1321 : 
; 1322 : 	int i;
; 1323 : 
; 1324 : 	if (HanWinLen != N)  //if there is any change in N this is then recalculate the Hanning Window...this mechanism reduces use of Cos

  0005c	a1 00 00 00 00	 mov	 eax, DWORD PTR _HanWinLen
  00061	3b 45 10	 cmp	 eax, DWORD PTR _N$[ebp]
  00064	74 7b		 je	 SHORT $LN6@GoertzelRe@2

; 1325 : 	{
; 1326 : 		HanWinLen = N;

  00066	8b 45 10	 mov	 eax, DWORD PTR _N$[ebp]
  00069	a3 00 00 00 00	 mov	 DWORD PTR _HanWinLen, eax

; 1327 : 
; 1328 : 		dblAng = 2 * M_PI / (N - 1);

  0006e	8b 45 10	 mov	 eax, DWORD PTR _N$[ebp]
  00071	83 e8 01	 sub	 eax, 1
  00074	89 85 00 ff ff
	ff		 mov	 DWORD PTR tv216[ebp], eax
  0007a	db 85 00 ff ff
	ff		 fild	 DWORD PTR tv216[ebp]
  00080	dc 3d 00 00 00
	00		 fdivr	 QWORD PTR __real@401921fb00000000
  00086	d9 1d 00 00 00
	00		 fstp	 DWORD PTR _dblAng

; 1329 : 
; 1330 : 		for (i = 0; i < N; i++)

  0008c	c7 45 c8 00 00
	00 00		 mov	 DWORD PTR _i$[ebp], 0
  00093	eb 09		 jmp	 SHORT $LN8@GoertzelRe@2
$LN7@GoertzelRe@2:
  00095	8b 45 c8	 mov	 eax, DWORD PTR _i$[ebp]
  00098	83 c0 01	 add	 eax, 1
  0009b	89 45 c8	 mov	 DWORD PTR _i$[ebp], eax
$LN8@GoertzelRe@2:
  0009e	8b 45 c8	 mov	 eax, DWORD PTR _i$[ebp]
  000a1	3b 45 10	 cmp	 eax, DWORD PTR _N$[ebp]
  000a4	7d 3b		 jge	 SHORT $LN6@GoertzelRe@2

; 1331 : 		{
; 1332 : 			dblHanWin[i] = 0.5 - 0.5 * cosf(i * dblAng);

  000a6	db 45 c8	 fild	 DWORD PTR _i$[ebp]
  000a9	d8 0d 00 00 00
	00		 fmul	 DWORD PTR _dblAng
  000af	83 ec 08	 sub	 esp, 8
  000b2	dd 1c 24	 fstp	 QWORD PTR [esp]
  000b5	e8 00 00 00 00	 call	 _cos
  000ba	83 c4 08	 add	 esp, 8
  000bd	d9 9d 00 ff ff
	ff		 fstp	 DWORD PTR tv228[ebp]
  000c3	d9 85 00 ff ff
	ff		 fld	 DWORD PTR tv228[ebp]
  000c9	dc 0d 00 00 00
	00		 fmul	 QWORD PTR __real@3fe0000000000000
  000cf	dc 2d 00 00 00
	00		 fsubr	 QWORD PTR __real@3fe0000000000000
  000d5	8b 45 c8	 mov	 eax, DWORD PTR _i$[ebp]
  000d8	d9 1c 85 00 00
	00 00		 fstp	 DWORD PTR _dblHanWin[eax*4]

; 1333 : 		}

  000df	eb b4		 jmp	 SHORT $LN7@GoertzelRe@2
$LN6@GoertzelRe@2:

; 1334 : 	}
; 1335 : 
; 1336 : 	for (i = 0; i <= N; i++)

  000e1	c7 45 c8 00 00
	00 00		 mov	 DWORD PTR _i$[ebp], 0
  000e8	eb 09		 jmp	 SHORT $LN5@GoertzelRe@2
$LN4@GoertzelRe@2:
  000ea	8b 45 c8	 mov	 eax, DWORD PTR _i$[ebp]
  000ed	83 c0 01	 add	 eax, 1
  000f0	89 45 c8	 mov	 DWORD PTR _i$[ebp], eax
$LN5@GoertzelRe@2:
  000f3	8b 45 c8	 mov	 eax, DWORD PTR _i$[ebp]
  000f6	3b 45 10	 cmp	 eax, DWORD PTR _N$[ebp]
  000f9	7f 5b		 jg	 SHORT $LN3@GoertzelRe@2

; 1337 : 	{
; 1338 : 		if (i == N)

  000fb	8b 45 c8	 mov	 eax, DWORD PTR _i$[ebp]
  000fe	3b 45 10	 cmp	 eax, DWORD PTR _N$[ebp]
  00101	75 0e		 jne	 SHORT $LN2@GoertzelRe@2

; 1339 : 			dblW = dblZ_1 * dblCoeff - dblZ_2;

  00103	d9 45 f8	 fld	 DWORD PTR _dblZ_1$[ebp]
  00106	d8 4d d4	 fmul	 DWORD PTR _dblCoeff$[ebp]
  00109	d8 65 ec	 fsub	 DWORD PTR _dblZ_2$[ebp]
  0010c	d9 5d e0	 fstp	 DWORD PTR _dblW$[ebp]

; 1340 : 		else

  0010f	eb 2e		 jmp	 SHORT $LN1@GoertzelRe@2
$LN2@GoertzelRe@2:

; 1341 : 			dblW = intRealIn[intPtr]  * dblHanWin[i] + dblZ_1 * dblCoeff - dblZ_2;

  00111	8b 45 0c	 mov	 eax, DWORD PTR _intPtr$[ebp]
  00114	8b 4d 08	 mov	 ecx, DWORD PTR _intRealIn$[ebp]
  00117	0f bf 14 41	 movsx	 edx, WORD PTR [ecx+eax*2]
  0011b	89 95 00 ff ff
	ff		 mov	 DWORD PTR tv241[ebp], edx
  00121	db 85 00 ff ff
	ff		 fild	 DWORD PTR tv241[ebp]
  00127	8b 45 c8	 mov	 eax, DWORD PTR _i$[ebp]
  0012a	d8 0c 85 00 00
	00 00		 fmul	 DWORD PTR _dblHanWin[eax*4]
  00131	d9 45 f8	 fld	 DWORD PTR _dblZ_1$[ebp]
  00134	d8 4d d4	 fmul	 DWORD PTR _dblCoeff$[ebp]
  00137	de c1		 faddp	 ST(1), ST(0)
  00139	d8 65 ec	 fsub	 DWORD PTR _dblZ_2$[ebp]
  0013c	d9 5d e0	 fstp	 DWORD PTR _dblW$[ebp]
$LN1@GoertzelRe@2:

; 1342 : 
; 1343 : 		dblZ_2 = dblZ_1;

  0013f	d9 45 f8	 fld	 DWORD PTR _dblZ_1$[ebp]
  00142	d9 5d ec	 fstp	 DWORD PTR _dblZ_2$[ebp]

; 1344 : 		dblZ_1 = dblW;

  00145	d9 45 e0	 fld	 DWORD PTR _dblW$[ebp]
  00148	d9 5d f8	 fstp	 DWORD PTR _dblZ_1$[ebp]

; 1345 : 		intPtr++;

  0014b	8b 45 0c	 mov	 eax, DWORD PTR _intPtr$[ebp]
  0014e	83 c0 01	 add	 eax, 1
  00151	89 45 0c	 mov	 DWORD PTR _intPtr$[ebp], eax

; 1346 : 	}

  00154	eb 94		 jmp	 SHORT $LN4@GoertzelRe@2
$LN3@GoertzelRe@2:

; 1347 : 	
; 1348 : 	*dblReal = 2 * (dblW - cosf(2 * M_PI * m / N) * dblZ_2) / N;  // scale results by N/2

  00156	d9 45 14	 fld	 DWORD PTR _m$[ebp]
  00159	dc 0d 00 00 00
	00		 fmul	 QWORD PTR __real@401921fb00000000
  0015f	da 75 10	 fidiv	 DWORD PTR _N$[ebp]
  00162	83 ec 08	 sub	 esp, 8
  00165	dd 1c 24	 fstp	 QWORD PTR [esp]
  00168	e8 00 00 00 00	 call	 _cos
  0016d	83 c4 08	 add	 esp, 8
  00170	d9 9d 00 ff ff
	ff		 fstp	 DWORD PTR tv255[ebp]
  00176	d9 85 00 ff ff
	ff		 fld	 DWORD PTR tv255[ebp]
  0017c	d8 4d ec	 fmul	 DWORD PTR _dblZ_2$[ebp]
  0017f	d8 6d e0	 fsubr	 DWORD PTR _dblW$[ebp]
  00182	dc 0d 00 00 00
	00		 fmul	 QWORD PTR __real@4000000000000000
  00188	da 75 10	 fidiv	 DWORD PTR _N$[ebp]
  0018b	8b 45 18	 mov	 eax, DWORD PTR _dblReal$[ebp]
  0018e	d9 18		 fstp	 DWORD PTR [eax]

; 1349 : 	*dblImag = 2 * (sinf(2 * M_PI * m / N) * dblZ_2) / N;  // scale results by N/2   (this sign agrees with Scope DSP phase values) 

  00190	d9 45 14	 fld	 DWORD PTR _m$[ebp]
  00193	dc 0d 00 00 00
	00		 fmul	 QWORD PTR __real@401921fb00000000
  00199	da 75 10	 fidiv	 DWORD PTR _N$[ebp]
  0019c	83 ec 08	 sub	 esp, 8
  0019f	dd 1c 24	 fstp	 QWORD PTR [esp]
  001a2	e8 00 00 00 00	 call	 _sin
  001a7	83 c4 08	 add	 esp, 8
  001aa	d9 9d 00 ff ff
	ff		 fstp	 DWORD PTR tv270[ebp]
  001b0	d9 85 00 ff ff
	ff		 fld	 DWORD PTR tv270[ebp]
  001b6	d8 4d ec	 fmul	 DWORD PTR _dblZ_2$[ebp]
  001b9	dc 0d 00 00 00
	00		 fmul	 QWORD PTR __real@4000000000000000
  001bf	da 75 10	 fidiv	 DWORD PTR _N$[ebp]
  001c2	8b 45 1c	 mov	 eax, DWORD PTR _dblImag$[ebp]
  001c5	d9 18		 fstp	 DWORD PTR [eax]

; 1350 : }

  001c7	5f		 pop	 edi
  001c8	5e		 pop	 esi
  001c9	5b		 pop	 ebx
  001ca	81 c4 00 01 00
	00		 add	 esp, 256		; 00000100H
  001d0	3b ec		 cmp	 ebp, esp
  001d2	e8 00 00 00 00	 call	 __RTC_CheckEsp
  001d7	8b e5		 mov	 esp, ebp
  001d9	5d		 pop	 ebp
  001da	c3		 ret	 0
_GoertzelRealImagHanning ENDP
_TEXT	ENDS
PUBLIC	__real@3ff0000000000000
PUBLIC	_QuinnSpectralPeakLocator
;	COMDAT __real@3ff0000000000000
CONST	SEGMENT
__real@3ff0000000000000 DQ 03ff0000000000000r	; 1
; Function compile flags: /Odtp /RTCsu /ZI
CONST	ENDS
;	COMDAT _QuinnSpectralPeakLocator
_TEXT	SEGMENT
tv168 = -268						; size = 4
tv195 = -264						; size = 8
tv160 = -256						; size = 4
_dblDelta2$ = -56					; size = 4
_dblDelta1$ = -44					; size = 4
_dblAlpha2$ = -32					; size = 4
_dblAlpha1$ = -20					; size = 4
_dblDenom$ = -8						; size = 4
_XkM1Re$ = 8						; size = 4
_XkM1Im$ = 12						; size = 4
_XkRe$ = 16						; size = 4
_XkIm$ = 20						; size = 4
_XkP1Re$ = 24						; size = 4
_XkP1Im$ = 28						; size = 4
_QuinnSpectralPeakLocator PROC				; COMDAT

; 1355 : {

  00000	55		 push	 ebp
  00001	8b ec		 mov	 ebp, esp
  00003	81 ec 0c 01 00
	00		 sub	 esp, 268		; 0000010cH
  00009	53		 push	 ebx
  0000a	56		 push	 esi
  0000b	57		 push	 edi
  0000c	8d bd f4 fe ff
	ff		 lea	 edi, DWORD PTR [ebp-268]
  00012	b9 43 00 00 00	 mov	 ecx, 67			; 00000043H
  00017	b8 cc cc cc cc	 mov	 eax, -858993460		; ccccccccH
  0001c	f3 ab		 rep stosd

; 1356 : 	// based on the Quinn algorithm in Streamlining Digital Processing page 139
; 1357 : 	// Alpha1 = Re(Xk-1/Xk)
; 1358 : 	// Alpha2 = Re(Xk+1/Xk)
; 1359 : 	//Delta1 = Alpha1/(1 - Alpha1)
; 1360 : 	//'Delta2 = Alpha2/(1 - Alpha2)
; 1361 : 	// if Delta1 > 0 and Delta2 > 0 then Delta = Delta2 else Delta = Delta1
; 1362 : 	// should be within .1 bin for S:N > 2 dB
; 1363 : 
; 1364 : 	float dblDenom = powf(XkRe, 2) + powf(XkIm, 2);

  0001e	83 ec 08	 sub	 esp, 8
  00021	dd 05 00 00 00
	00		 fld	 QWORD PTR __real@4000000000000000
  00027	dd 1c 24	 fstp	 QWORD PTR [esp]
  0002a	d9 45 10	 fld	 DWORD PTR _XkRe$[ebp]
  0002d	83 ec 08	 sub	 esp, 8
  00030	dd 1c 24	 fstp	 QWORD PTR [esp]
  00033	e8 00 00 00 00	 call	 _pow
  00038	83 c4 10	 add	 esp, 16			; 00000010H
  0003b	d9 9d 00 ff ff
	ff		 fstp	 DWORD PTR tv160[ebp]
  00041	d9 85 00 ff ff
	ff		 fld	 DWORD PTR tv160[ebp]
  00047	83 ec 08	 sub	 esp, 8
  0004a	dd 05 00 00 00
	00		 fld	 QWORD PTR __real@4000000000000000
  00050	dd 1c 24	 fstp	 QWORD PTR [esp]
  00053	d9 45 14	 fld	 DWORD PTR _XkIm$[ebp]
  00056	83 ec 08	 sub	 esp, 8
  00059	dd 1c 24	 fstp	 QWORD PTR [esp]
  0005c	dd 9d f8 fe ff
	ff		 fstp	 QWORD PTR tv195[ebp]
  00062	e8 00 00 00 00	 call	 _pow
  00067	83 c4 10	 add	 esp, 16			; 00000010H
  0006a	d9 9d f4 fe ff
	ff		 fstp	 DWORD PTR tv168[ebp]
  00070	d9 85 f4 fe ff
	ff		 fld	 DWORD PTR tv168[ebp]
  00076	dc 85 f8 fe ff
	ff		 fadd	 QWORD PTR tv195[ebp]
  0007c	d9 5d f8	 fstp	 DWORD PTR _dblDenom$[ebp]

; 1365 : 	float dblAlpha1;
; 1366 : 	float dblAlpha2;
; 1367 : 	float dblDelta1;
; 1368 : 	float dblDelta2;
; 1369 : 
; 1370 : 	dblAlpha1 = ((XkM1Re * XkRe) + (XkM1Im * XkIm)) / dblDenom;

  0007f	d9 45 08	 fld	 DWORD PTR _XkM1Re$[ebp]
  00082	d8 4d 10	 fmul	 DWORD PTR _XkRe$[ebp]
  00085	d9 45 0c	 fld	 DWORD PTR _XkM1Im$[ebp]
  00088	d8 4d 14	 fmul	 DWORD PTR _XkIm$[ebp]
  0008b	de c1		 faddp	 ST(1), ST(0)
  0008d	d8 75 f8	 fdiv	 DWORD PTR _dblDenom$[ebp]
  00090	d9 5d ec	 fstp	 DWORD PTR _dblAlpha1$[ebp]

; 1371 : 	dblAlpha2 = ((XkP1Re * XkRe) + (XkP1Im * XkIm)) / dblDenom;

  00093	d9 45 18	 fld	 DWORD PTR _XkP1Re$[ebp]
  00096	d8 4d 10	 fmul	 DWORD PTR _XkRe$[ebp]
  00099	d9 45 1c	 fld	 DWORD PTR _XkP1Im$[ebp]
  0009c	d8 4d 14	 fmul	 DWORD PTR _XkIm$[ebp]
  0009f	de c1		 faddp	 ST(1), ST(0)
  000a1	d8 75 f8	 fdiv	 DWORD PTR _dblDenom$[ebp]
  000a4	d9 5d e0	 fstp	 DWORD PTR _dblAlpha2$[ebp]

; 1372 : 	dblDelta1 = dblAlpha1 / (1 - dblAlpha1);

  000a7	d9 45 ec	 fld	 DWORD PTR _dblAlpha1$[ebp]
  000aa	d9 e8		 fld1
  000ac	de e1		 fsubrp	 ST(1), ST(0)
  000ae	d8 7d ec	 fdivr	 DWORD PTR _dblAlpha1$[ebp]
  000b1	d9 5d d4	 fstp	 DWORD PTR _dblDelta1$[ebp]

; 1373 : 	dblDelta2 = dblAlpha2 / (1 - dblAlpha2);

  000b4	d9 45 e0	 fld	 DWORD PTR _dblAlpha2$[ebp]
  000b7	d9 e8		 fld1
  000b9	de e1		 fsubrp	 ST(1), ST(0)
  000bb	d8 7d e0	 fdivr	 DWORD PTR _dblAlpha2$[ebp]
  000be	d9 5d c8	 fstp	 DWORD PTR _dblDelta2$[ebp]

; 1374 : 
; 1375 : 	if (dblDelta1 > 0 &&  dblDelta2 > 0)

  000c1	d9 45 d4	 fld	 DWORD PTR _dblDelta1$[ebp]
  000c4	dc 1d 00 00 00
	00		 fcomp	 QWORD PTR __real@0000000000000000
  000ca	df e0		 fnstsw	 ax
  000cc	f6 c4 41	 test	 ah, 65			; 00000041H
  000cf	75 17		 jne	 SHORT $LN2@QuinnSpect
  000d1	d9 45 c8	 fld	 DWORD PTR _dblDelta2$[ebp]
  000d4	dc 1d 00 00 00
	00		 fcomp	 QWORD PTR __real@0000000000000000
  000da	df e0		 fnstsw	 ax
  000dc	f6 c4 41	 test	 ah, 65			; 00000041H
  000df	75 07		 jne	 SHORT $LN2@QuinnSpect

; 1376 : 		return dblDelta2;

  000e1	d9 45 c8	 fld	 DWORD PTR _dblDelta2$[ebp]
  000e4	eb 05		 jmp	 SHORT $LN1@QuinnSpect

; 1377 : 	else

  000e6	eb 03		 jmp	 SHORT $LN1@QuinnSpect
$LN2@QuinnSpect:

; 1378 : 		return dblDelta1;

  000e8	d9 45 d4	 fld	 DWORD PTR _dblDelta1$[ebp]
$LN1@QuinnSpect:

; 1379 : }

  000eb	5f		 pop	 edi
  000ec	5e		 pop	 esi
  000ed	5b		 pop	 ebx
  000ee	81 c4 0c 01 00
	00		 add	 esp, 268		; 0000010cH
  000f4	3b ec		 cmp	 ebp, esp
  000f6	e8 00 00 00 00	 call	 __RTC_CheckEsp
  000fb	8b e5		 mov	 esp, ebp
  000fd	5d		 pop	 ebp
  000fe	c3		 ret	 0
_QuinnSpectralPeakLocator ENDP
_TEXT	ENDS
PUBLIC	??_C@_0DM@CHGGENKN@Leader?$DL?5S?3N?$CI3KHz?$CJ?5Early?$DN?5?$CFf?5dB?0?5@ ; `string'
PUBLIC	__real@4034cccccccccccd
PUBLIC	__real@4037cccccccccccd
PUBLIC	__real@c008000000000000
PUBLIC	__real@4008000000000000
PUBLIC	__real@4019000000000000
PUBLIC	??_C@_0BP@FCBHJODI@?5QSPL?5Left?$DN?5?$CFf?5?5QSPL?5Right?$DN?5?$CFf?$AA@ ; `string'
PUBLIC	??_C@_0CG@FHFOAMLN@Fine?5Search?5S?3N?$DN?5?$CFf?5dB?0?5Prior?5S?3@ ; `string'
PUBLIC	__real@404e800000000000
PUBLIC	__real@404d800000000000
PUBLIC	__real@404f800000000000
PUBLIC	__real@404f000000000000
PUBLIC	__real@404d000000000000
PUBLIC	__real@404c800000000000
PUBLIC	__real@4039000000000000
PUBLIC	__real@405f800000000000
PUBLIC	__real@405f000000000000
PUBLIC	__real@405d000000000000
PUBLIC	__real@405c800000000000
PUBLIC	__real@405e800000000000
PUBLIC	__real@405d800000000000
PUBLIC	__real@408f380000000000
PUBLIC	__real@405e000000000000
PUBLIC	__real@4024000000000000
PUBLIC	__real@3fd0000000000000
PUBLIC	__real@4058800000000000
PUBLIC	__real@4029000000000000
PUBLIC	__real@4069000000000000
PUBLIC	__real@3f800000
PUBLIC	__real@3e99999a
EXTRN	_dblLeaderSNAvg:DWORD
EXTRN	_intLeaderDetects:DWORD
EXTRN	_sprintf:PROC
EXTRN	_fabs:PROC
EXTRN	_Squelch:DWORD
EXTRN	_SlowCPU:DWORD
EXTRN	_log10:PROC
EXTRN	_sqrt:PROC
EXTRN	_TuningRange:DWORD
;	COMDAT ??_C@_0DM@CHGGENKN@Leader?$DL?5S?3N?$CI3KHz?$CJ?5Early?$DN?5?$CFf?5dB?0?5@
CONST	SEGMENT
??_C@_0DM@CHGGENKN@Leader?$DL?5S?3N?$CI3KHz?$CJ?5Early?$DN?5?$CFf?5dB?0?5@ DB 'L'
	DB	'eader; S:N(3KHz) Early= %f dB, Full %f dB, Offset= %f Hz: ', 00H ; `string'
CONST	ENDS
;	COMDAT __real@4034cccccccccccd
CONST	SEGMENT
__real@4034cccccccccccd DQ 04034cccccccccccdr	; 20.8
CONST	ENDS
;	COMDAT __real@4037cccccccccccd
CONST	SEGMENT
__real@4037cccccccccccd DQ 04037cccccccccccdr	; 23.8
CONST	ENDS
;	COMDAT __real@c008000000000000
CONST	SEGMENT
__real@c008000000000000 DQ 0c008000000000000r	; -3
CONST	ENDS
;	COMDAT __real@4008000000000000
CONST	SEGMENT
__real@4008000000000000 DQ 04008000000000000r	; 3
CONST	ENDS
;	COMDAT __real@4019000000000000
CONST	SEGMENT
__real@4019000000000000 DQ 04019000000000000r	; 6.25
CONST	ENDS
;	COMDAT ??_C@_0BP@FCBHJODI@?5QSPL?5Left?$DN?5?$CFf?5?5QSPL?5Right?$DN?5?$CFf?$AA@
CONST	SEGMENT
??_C@_0BP@FCBHJODI@?5QSPL?5Left?$DN?5?$CFf?5?5QSPL?5Right?$DN?5?$CFf?$AA@ DB ' '
	DB	'QSPL Left= %f  QSPL Right= %f', 00H		; `string'
CONST	ENDS
;	COMDAT ??_C@_0CG@FHFOAMLN@Fine?5Search?5S?3N?$DN?5?$CFf?5dB?0?5Prior?5S?3@
CONST	SEGMENT
??_C@_0CG@FHFOAMLN@Fine?5Search?5S?3N?$DN?5?$CFf?5dB?0?5Prior?5S?3@ DB 'F'
	DB	'ine Search S:N= %f dB, Prior S:N= %f', 00H	; `string'
CONST	ENDS
;	COMDAT __real@404e800000000000
CONST	SEGMENT
__real@404e800000000000 DQ 0404e800000000000r	; 61
CONST	ENDS
;	COMDAT __real@404d800000000000
CONST	SEGMENT
__real@404d800000000000 DQ 0404d800000000000r	; 59
CONST	ENDS
;	COMDAT __real@404f800000000000
CONST	SEGMENT
__real@404f800000000000 DQ 0404f800000000000r	; 63
CONST	ENDS
;	COMDAT __real@404f000000000000
CONST	SEGMENT
__real@404f000000000000 DQ 0404f000000000000r	; 62
CONST	ENDS
;	COMDAT __real@404d000000000000
CONST	SEGMENT
__real@404d000000000000 DQ 0404d000000000000r	; 58
CONST	ENDS
;	COMDAT __real@404c800000000000
CONST	SEGMENT
__real@404c800000000000 DQ 0404c800000000000r	; 57
CONST	ENDS
;	COMDAT __real@4039000000000000
CONST	SEGMENT
__real@4039000000000000 DQ 04039000000000000r	; 25
CONST	ENDS
;	COMDAT __real@405f800000000000
CONST	SEGMENT
__real@405f800000000000 DQ 0405f800000000000r	; 126
CONST	ENDS
;	COMDAT __real@405f000000000000
CONST	SEGMENT
__real@405f000000000000 DQ 0405f000000000000r	; 124
CONST	ENDS
;	COMDAT __real@405d000000000000
CONST	SEGMENT
__real@405d000000000000 DQ 0405d000000000000r	; 116
CONST	ENDS
;	COMDAT __real@405c800000000000
CONST	SEGMENT
__real@405c800000000000 DQ 0405c800000000000r	; 114
CONST	ENDS
;	COMDAT __real@405e800000000000
CONST	SEGMENT
__real@405e800000000000 DQ 0405e800000000000r	; 122
CONST	ENDS
;	COMDAT __real@405d800000000000
CONST	SEGMENT
__real@405d800000000000 DQ 0405d800000000000r	; 118
CONST	ENDS
;	COMDAT __real@408f380000000000
CONST	SEGMENT
__real@408f380000000000 DQ 0408f380000000000r	; 999
CONST	ENDS
;	COMDAT __real@405e000000000000
CONST	SEGMENT
__real@405e000000000000 DQ 0405e000000000000r	; 120
CONST	ENDS
;	COMDAT __real@4024000000000000
CONST	SEGMENT
__real@4024000000000000 DQ 04024000000000000r	; 10
CONST	ENDS
;	COMDAT __real@3fd0000000000000
CONST	SEGMENT
__real@3fd0000000000000 DQ 03fd0000000000000r	; 0.25
CONST	ENDS
;	COMDAT __real@4058800000000000
CONST	SEGMENT
__real@4058800000000000 DQ 04058800000000000r	; 98
CONST	ENDS
;	COMDAT __real@4029000000000000
CONST	SEGMENT
__real@4029000000000000 DQ 04029000000000000r	; 12.5
CONST	ENDS
;	COMDAT __real@4069000000000000
CONST	SEGMENT
__real@4069000000000000 DQ 04069000000000000r	; 200
CONST	ENDS
;	COMDAT __real@3f800000
CONST	SEGMENT
__real@3f800000 DD 03f800000r			; 1
CONST	ENDS
;	COMDAT __real@3e99999a
CONST	SEGMENT
__real@3e99999a DD 03e99999ar			; 0.3
; Function compile flags: /Odtp /RTCsu /ZI
CONST	ENDS
;	COMDAT _SearchFor2ToneLeader2
_TEXT	SEGMENT
tv1426 = -1224						; size = 4
tv1401 = -1224						; size = 4
tv1369 = -1224						; size = 4
tv1342 = -1224						; size = 4
tv1315 = -1224						; size = 4
tv1288 = -1224						; size = 4
tv1234 = -1224						; size = 4
tv1199 = -1224						; size = 4
tv1168 = -1224						; size = 4
tv1141 = -1224						; size = 4
tv1114 = -1224						; size = 4
tv1087 = -1224						; size = 4
tv942 = -1224						; size = 4
tv1624 = -1220						; size = 8
tv1622 = -1220						; size = 8
tv1620 = -1220						; size = 8
tv1618 = -1220						; size = 8
tv1616 = -1220						; size = 8
tv1614 = -1220						; size = 8
tv1612 = -1220						; size = 8
tv1610 = -1220						; size = 8
tv1608 = -1220						; size = 8
tv1606 = -1220						; size = 8
tv1604 = -1220						; size = 8
tv1602 = -1220						; size = 8
tv1600 = -1220						; size = 8
tv847 = -1216						; size = 8
tv830 = -1216						; size = 8
tv1547 = -1212						; size = 4
tv1506 = -1212						; size = 4
tv1460 = -1212						; size = 4
tv1454 = -1212						; size = 4
tv1448 = -1212						; size = 4
tv1418 = -1212						; size = 4
tv1393 = -1212						; size = 4
tv1361 = -1212						; size = 4
tv1348 = -1212						; size = 4
tv1334 = -1212						; size = 4
tv1321 = -1212						; size = 4
tv1307 = -1212						; size = 4
tv1294 = -1212						; size = 4
tv1280 = -1212						; size = 4
tv1267 = -1212						; size = 4
tv1261 = -1212						; size = 4
tv1239 = -1212						; size = 4
tv1226 = -1212						; size = 4
tv1209 = -1212						; size = 4
tv1204 = -1212						; size = 4
tv1191 = -1212						; size = 4
tv1174 = -1212						; size = 4
tv1160 = -1212						; size = 4
tv1147 = -1212						; size = 4
tv1133 = -1212						; size = 4
tv1120 = -1212						; size = 4
tv1106 = -1212						; size = 4
tv1093 = -1212						; size = 4
tv1079 = -1212						; size = 4
tv1066 = -1212						; size = 4
tv975 = -1212						; size = 4
tv958 = -1212						; size = 4
tv931 = -1212						; size = 4
tv917 = -1212						; size = 4
_dblSNdBPwrEarly$ = -1012				; size = 4
_dblPowerEarly$ = -1000					; size = 4
_dblTrialOffset$ = -988					; size = 4
_dblCoarseOffset$ = -976				; size = 4
_dblBinAdj1525$ = -964					; size = 4
_dblBinAdj1475$ = -952					; size = 4
_dblCoarsePwrSN$ = -940					; size = 4
_dblAvgNoisePerBin$ = -928				; size = 4
_Ptr$ = -916						; size = 4
_i$ = -904						; size = 4
_dblRightI$ = -892					; size = 12
_dblRightR$ = -872					; size = 12
_dblLeftI$ = -852					; size = 12
_dblLeftR$ = -832					; size = 12
_dblRightP$ = -812					; size = 4
_dblLeftP$ = -800					; size = 4
_dblCtrI$ = -776					; size = 4
_dblCtrR$ = -764					; size = 4
_dblBinInterpRight$ = -752				; size = 4
_dblBinInterpLeft$ = -740				; size = 4
_dblRightCar$ = -728					; size = 4
_dblLeftCar$ = -716					; size = 4
_intStopBin$ = -704					; size = 4
_intStartBin$ = -692					; size = 4
_dblFilteredMaxPeak$ = -680				; size = 4
_dblInterpretThreshold$ = -668				; size = 4
_dblAlpha$ = -656					; size = 4
_intIatMaxPeak$ = -644					; size = 4
_intInterpCnt$ = -632					; size = 4
_dblBinAdj$ = -620					; size = 4
_dblMaxPeakSN$ = -596					; size = 4
_dblMaxPeak$ = -584					; size = 4
_dblPower$ = -572					; size = 4
_dblMag$ = -560						; size = 180
_dblGoertzelImag$ = -372				; size = 180
_dblGoertzelReal$ = -184				; size = 180
_intNewSamples$ = 8					; size = 4
_Length$ = 12						; size = 4
_dblOffsetHz$ = 16					; size = 4
_intSN$ = 20						; size = 4
_SearchFor2ToneLeader2 PROC				; COMDAT

; 1655 : {

  00000	55		 push	 ebp
  00001	8b ec		 mov	 ebp, esp
  00003	81 ec c8 04 00
	00		 sub	 esp, 1224		; 000004c8H
  00009	53		 push	 ebx
  0000a	56		 push	 esi
  0000b	57		 push	 edi
  0000c	8d bd 38 fb ff
	ff		 lea	 edi, DWORD PTR [ebp-1224]
  00012	b9 32 01 00 00	 mov	 ecx, 306		; 00000132H
  00017	b8 cc cc cc cc	 mov	 eax, -858993460		; ccccccccH
  0001c	f3 ab		 rep stosd

; 1656 : 	// search through the samples looking for the telltail 50 baud 2 tone pattern (nominal tones 1475, 1525 Hz) 
; 1657 : 	// Find the offset in Hz (due to missmatch in transmitter - receiver tuning
; 1658 : 	// Finds the S:N (power ratio of the tones 1475 and 1525 ratioed to "noise" averaged from bins at 1425, 1450, 1550, and 1575Hz)
; 1659 :  
; 1660 : 	float dblGoertzelReal[45];
; 1661 : 	float dblGoertzelImag[45];
; 1662 : 	float dblMag[45];
; 1663 : 	float dblPower;
; 1664 : 	float dblMaxPeak = 0.0, dblMaxPeakSN = 0.0, dblInterpM, dblBinAdj;

  0001e	d9 ee		 fldz
  00020	d9 9d b8 fd ff
	ff		 fstp	 DWORD PTR _dblMaxPeak$[ebp]
  00026	d9 ee		 fldz
  00028	d9 9d ac fd ff
	ff		 fstp	 DWORD PTR _dblMaxPeakSN$[ebp]

; 1665 : 	int intInterpCnt = 0;  // the count 0 to 3 of the interpolations that were < +/- .5 bin

  0002e	c7 85 88 fd ff
	ff 00 00 00 00	 mov	 DWORD PTR _intInterpCnt$[ebp], 0

; 1666 : 	int  intIatMaxPeak = 0;

  00038	c7 85 7c fd ff
	ff 00 00 00 00	 mov	 DWORD PTR _intIatMaxPeak$[ebp], 0

; 1667 : 	float dblAlpha = 0.3f;  // Works well possibly some room for optimization Changed from .5 to .3 on Rev 0.1.5.3

  00042	d9 05 00 00 00
	00		 fld	 DWORD PTR __real@3e99999a
  00048	d9 9d 70 fd ff
	ff		 fstp	 DWORD PTR _dblAlpha$[ebp]

; 1668 : 	float dblInterpretThreshold= 1.0f; // Good results June 6, 2014 (was .4)  ' Works well possibly some room for optimization

  0004e	d9 e8		 fld1
  00050	d9 9d 64 fd ff
	ff		 fstp	 DWORD PTR _dblInterpretThreshold$[ebp]

; 1669 : 	float dblFilteredMaxPeak = 0;

  00056	d9 ee		 fldz
  00058	d9 9d 58 fd ff
	ff		 fstp	 DWORD PTR _dblFilteredMaxPeak$[ebp]

; 1670 : 	int intStartBin, intStopBin;
; 1671 : 	float dblLeftCar, dblRightCar, dblBinInterpLeft, dblBinInterpRight, dblCtrR, dblCtrI, dblCtrP, dblLeftP, dblRightP;
; 1672 : 	float dblLeftR[3], dblLeftI[3], dblRightR[3], dblRightI[3];
; 1673 : 	int i;
; 1674 : 	int Ptr = 0;

  0005e	c7 85 6c fc ff
	ff 00 00 00 00	 mov	 DWORD PTR _Ptr$[ebp], 0

; 1675 : 	float dblAvgNoisePerBin, dblCoarsePwrSN, dblBinAdj1475, dblBinAdj1525, dblCoarseOffset;
; 1676 : 	float dblTrialOffset, dblPowerEarly, dblSNdBPwrEarly;
; 1677 : 
; 1678 : 	if ((Length) < 960)

  00068	81 7d 0c c0 03
	00 00		 cmp	 DWORD PTR _Length$[ebp], 960 ; 000003c0H
  0006f	7d 07		 jge	 SHORT $LN39@SearchFor2

; 1679 : 		return FALSE;		// ensure there are at least 960 samples (4 symbols of 240 samples)

  00071	33 c0		 xor	 eax, eax
  00073	e9 89 13 00 00	 jmp	 $LN3@SearchFor2
$LN39@SearchFor2:

; 1680 : 
; 1681 : 	// Compute the start and stop bins based on the tuning range Each bin is 12000/960 or 12.5 Hz/bin
; 1682 :      
; 1683 : 	if ((Now - dttLastGoodFrameTypeDecod > 20000) && TuningRange > 0)

  00078	e8 00 00 00 00	 call	 _getTicks
  0007d	2b 05 00 00 00
	00		 sub	 eax, DWORD PTR _dttLastGoodFrameTypeDecod
  00083	3d 20 4e 00 00	 cmp	 eax, 20000		; 00004e20H
  00088	0f 86 c7 04 00
	00		 jbe	 $LN23@SearchFor2
  0008e	83 3d 00 00 00
	00 00		 cmp	 DWORD PTR _TuningRange, 0
  00095	0f 8e ba 04 00
	00		 jle	 $LN23@SearchFor2

; 1684 : 	{
; 1685 : 		// this is the full search over the full tuning range selected.  Uses more CPU time and with possibly larger deviation once connected. 
; 1686 : 		
; 1687 : 		intStartBin = ((200.0f - TuningRange) / 12.5f);

  0009b	db 05 00 00 00
	00		 fild	 DWORD PTR _TuningRange
  000a1	dc 2d 00 00 00
	00		 fsubr	 QWORD PTR __real@4069000000000000
  000a7	dc 35 00 00 00
	00		 fdiv	 QWORD PTR __real@4029000000000000
  000ad	e8 00 00 00 00	 call	 __ftol2_sse
  000b2	89 85 4c fd ff
	ff		 mov	 DWORD PTR _intStartBin$[ebp], eax

; 1688 : 		intStopBin = 44 - intStartBin;

  000b8	b8 2c 00 00 00	 mov	 eax, 44			; 0000002cH
  000bd	2b 85 4c fd ff
	ff		 sub	 eax, DWORD PTR _intStartBin$[ebp]
  000c3	89 85 40 fd ff
	ff		 mov	 DWORD PTR _intStopBin$[ebp], eax

; 1689 : 
; 1690 : 		dblMaxPeak = 0;

  000c9	d9 ee		 fldz
  000cb	d9 9d b8 fd ff
	ff		 fstp	 DWORD PTR _dblMaxPeak$[ebp]

; 1691 : 
; 1692 : 		// Generate the Power magnitudes for up to 45 12.5 Hz bins (a function of MCB.TuningRange) 
; 1693 :   
; 1694 :   
; 1695 : 		for (i = intStartBin; i <= intStopBin; i++)

  000d1	8b 85 4c fd ff
	ff		 mov	 eax, DWORD PTR _intStartBin$[ebp]
  000d7	89 85 78 fc ff
	ff		 mov	 DWORD PTR _i$[ebp], eax
  000dd	eb 0f		 jmp	 SHORT $LN37@SearchFor2
$LN36@SearchFor2:
  000df	8b 85 78 fc ff
	ff		 mov	 eax, DWORD PTR _i$[ebp]
  000e5	83 c0 01	 add	 eax, 1
  000e8	89 85 78 fc ff
	ff		 mov	 DWORD PTR _i$[ebp], eax
$LN37@SearchFor2:
  000ee	8b 85 78 fc ff
	ff		 mov	 eax, DWORD PTR _i$[ebp]
  000f4	3b 85 40 fd ff
	ff		 cmp	 eax, DWORD PTR _intStopBin$[ebp]
  000fa	0f 8f d4 00 00
	00		 jg	 $LN35@SearchFor2

; 1696 : 		{
; 1697 : 			GoertzelRealImag(intNewSamples, Ptr, 960, i + 98.0f, &dblGoertzelReal[i], &dblGoertzelImag[i]);

  00100	8b 85 78 fc ff
	ff		 mov	 eax, DWORD PTR _i$[ebp]
  00106	8d 8c 85 8c fe
	ff ff		 lea	 ecx, DWORD PTR _dblGoertzelImag$[ebp+eax*4]
  0010d	51		 push	 ecx
  0010e	8b 95 78 fc ff
	ff		 mov	 edx, DWORD PTR _i$[ebp]
  00114	8d 84 95 48 ff
	ff ff		 lea	 eax, DWORD PTR _dblGoertzelReal$[ebp+edx*4]
  0011b	50		 push	 eax
  0011c	db 85 78 fc ff
	ff		 fild	 DWORD PTR _i$[ebp]
  00122	dc 05 00 00 00
	00		 fadd	 QWORD PTR __real@4058800000000000
  00128	d9 9d 44 fb ff
	ff		 fstp	 DWORD PTR tv917[ebp]
  0012e	d9 85 44 fb ff
	ff		 fld	 DWORD PTR tv917[ebp]
  00134	51		 push	 ecx
  00135	d9 1c 24	 fstp	 DWORD PTR [esp]
  00138	68 c0 03 00 00	 push	 960			; 000003c0H
  0013d	8b 8d 6c fc ff
	ff		 mov	 ecx, DWORD PTR _Ptr$[ebp]
  00143	51		 push	 ecx
  00144	8b 55 08	 mov	 edx, DWORD PTR _intNewSamples$[ebp]
  00147	52		 push	 edx
  00148	e8 00 00 00 00	 call	 _GoertzelRealImag
  0014d	83 c4 18	 add	 esp, 24			; 00000018H

; 1698 : 				dblMag[i] = powf(dblGoertzelReal[i], 2) + powf(dblGoertzelImag[i], 2); // dblMag(i) in units of power (V^2)

  00150	83 ec 08	 sub	 esp, 8
  00153	dd 05 00 00 00
	00		 fld	 QWORD PTR __real@4000000000000000
  00159	dd 1c 24	 fstp	 QWORD PTR [esp]
  0015c	8b 85 78 fc ff
	ff		 mov	 eax, DWORD PTR _i$[ebp]
  00162	d9 84 85 48 ff
	ff ff		 fld	 DWORD PTR _dblGoertzelReal$[ebp+eax*4]
  00169	83 ec 08	 sub	 esp, 8
  0016c	dd 1c 24	 fstp	 QWORD PTR [esp]
  0016f	e8 00 00 00 00	 call	 _pow
  00174	83 c4 10	 add	 esp, 16			; 00000010H
  00177	d9 9d 44 fb ff
	ff		 fstp	 DWORD PTR tv931[ebp]
  0017d	d9 85 44 fb ff
	ff		 fld	 DWORD PTR tv931[ebp]
  00183	83 ec 08	 sub	 esp, 8
  00186	dd 05 00 00 00
	00		 fld	 QWORD PTR __real@4000000000000000
  0018c	dd 1c 24	 fstp	 QWORD PTR [esp]
  0018f	8b 8d 78 fc ff
	ff		 mov	 ecx, DWORD PTR _i$[ebp]
  00195	d9 84 8d 8c fe
	ff ff		 fld	 DWORD PTR _dblGoertzelImag$[ebp+ecx*4]
  0019c	83 ec 08	 sub	 esp, 8
  0019f	dd 1c 24	 fstp	 QWORD PTR [esp]
  001a2	dd 9d 3c fb ff
	ff		 fstp	 QWORD PTR tv1600[ebp]
  001a8	e8 00 00 00 00	 call	 _pow
  001ad	83 c4 10	 add	 esp, 16			; 00000010H
  001b0	d9 9d 38 fb ff
	ff		 fstp	 DWORD PTR tv942[ebp]
  001b6	d9 85 38 fb ff
	ff		 fld	 DWORD PTR tv942[ebp]
  001bc	dc 85 3c fb ff
	ff		 fadd	 QWORD PTR tv1600[ebp]
  001c2	8b 95 78 fc ff
	ff		 mov	 edx, DWORD PTR _i$[ebp]
  001c8	d9 9c 95 d0 fd
	ff ff		 fstp	 DWORD PTR _dblMag$[ebp+edx*4]

; 1699 : 		}

  001cf	e9 0b ff ff ff	 jmp	 $LN36@SearchFor2
$LN35@SearchFor2:

; 1700 : 
; 1701 : 		// Search the bins to locate the max S:N in the two tone signal/avg noise.  
; 1702 :  
; 1703 : 		for (i = intStartBin + 4; i <= intStopBin - 8; i++)	// ' +/- MCB.TuningRange from nominal 

  001d4	8b 85 4c fd ff
	ff		 mov	 eax, DWORD PTR _intStartBin$[ebp]
  001da	83 c0 04	 add	 eax, 4
  001dd	89 85 78 fc ff
	ff		 mov	 DWORD PTR _i$[ebp], eax
  001e3	eb 0f		 jmp	 SHORT $LN34@SearchFor2
$LN33@SearchFor2:
  001e5	8b 85 78 fc ff
	ff		 mov	 eax, DWORD PTR _i$[ebp]
  001eb	83 c0 01	 add	 eax, 1
  001ee	89 85 78 fc ff
	ff		 mov	 DWORD PTR _i$[ebp], eax
$LN34@SearchFor2:
  001f4	8b 85 40 fd ff
	ff		 mov	 eax, DWORD PTR _intStopBin$[ebp]
  001fa	83 e8 08	 sub	 eax, 8
  001fd	39 85 78 fc ff
	ff		 cmp	 DWORD PTR _i$[ebp], eax
  00203	0f 8f ed 00 00
	00		 jg	 $LN32@SearchFor2

; 1704 : 		{
; 1705 : 			dblPower = sqrtf(dblMag[i + 8] * dblMag[i + 4]); // using the product to minimize sensitivity to one strong carrier vs the two tone

  00209	8b 85 78 fc ff
	ff		 mov	 eax, DWORD PTR _i$[ebp]
  0020f	d9 84 85 f0 fd
	ff ff		 fld	 DWORD PTR _dblMag$[ebp+eax*4+32]
  00216	8b 8d 78 fc ff
	ff		 mov	 ecx, DWORD PTR _i$[ebp]
  0021c	d8 8c 8d e0 fd
	ff ff		 fmul	 DWORD PTR _dblMag$[ebp+ecx*4+16]
  00223	83 ec 08	 sub	 esp, 8
  00226	dd 1c 24	 fstp	 QWORD PTR [esp]
  00229	e8 00 00 00 00	 call	 _sqrt
  0022e	83 c4 08	 add	 esp, 8
  00231	d9 9d 44 fb ff
	ff		 fstp	 DWORD PTR tv958[ebp]
  00237	d9 85 44 fb ff
	ff		 fld	 DWORD PTR tv958[ebp]
  0023d	d9 9d c4 fd ff
	ff		 fstp	 DWORD PTR _dblPower$[ebp]

; 1706 : 			// sqrt converts back to units of power from Power ^2
; 1707 : 			
; 1708 : 			// don't use center noise bin as too easily corrupted by adjacent carriers
; 1709 : 
; 1710 : 			dblAvgNoisePerBin = (dblMag[i - 4] + dblMag[i - 2] + dblMag[i + 6] + dblMag[i + 8]) * 0.25f;  // Simple average

  00243	8b 85 78 fc ff
	ff		 mov	 eax, DWORD PTR _i$[ebp]
  00249	d9 84 85 c0 fd
	ff ff		 fld	 DWORD PTR _dblMag$[ebp+eax*4-16]
  00250	8b 8d 78 fc ff
	ff		 mov	 ecx, DWORD PTR _i$[ebp]
  00256	d8 84 8d c8 fd
	ff ff		 fadd	 DWORD PTR _dblMag$[ebp+ecx*4-8]
  0025d	8b 95 78 fc ff
	ff		 mov	 edx, DWORD PTR _i$[ebp]
  00263	d8 84 95 e8 fd
	ff ff		 fadd	 DWORD PTR _dblMag$[ebp+edx*4+24]
  0026a	8b 85 78 fc ff
	ff		 mov	 eax, DWORD PTR _i$[ebp]
  00270	d8 84 85 f0 fd
	ff ff		 fadd	 DWORD PTR _dblMag$[ebp+eax*4+32]
  00277	dc 0d 00 00 00
	00		 fmul	 QWORD PTR __real@3fd0000000000000
  0027d	d9 9d 60 fc ff
	ff		 fstp	 DWORD PTR _dblAvgNoisePerBin$[ebp]

; 1711 : 			dblMaxPeak = dblPower / dblAvgNoisePerBin;

  00283	d9 85 c4 fd ff
	ff		 fld	 DWORD PTR _dblPower$[ebp]
  00289	d8 b5 60 fc ff
	ff		 fdiv	 DWORD PTR _dblAvgNoisePerBin$[ebp]
  0028f	d9 9d b8 fd ff
	ff		 fstp	 DWORD PTR _dblMaxPeak$[ebp]

; 1712 : 			if (dblMaxPeak > dblMaxPeakSN)

  00295	d9 85 b8 fd ff
	ff		 fld	 DWORD PTR _dblMaxPeak$[ebp]
  0029b	d9 85 ac fd ff
	ff		 fld	 DWORD PTR _dblMaxPeakSN$[ebp]
  002a1	de d9		 fcompp
  002a3	df e0		 fnstsw	 ax
  002a5	f6 c4 05	 test	 ah, 5
  002a8	7a 47		 jp	 SHORT $LN31@SearchFor2

; 1713 : 			{
; 1714 : 				dblMaxPeakSN = dblMaxPeak;

  002aa	d9 85 b8 fd ff
	ff		 fld	 DWORD PTR _dblMaxPeak$[ebp]
  002b0	d9 9d ac fd ff
	ff		 fstp	 DWORD PTR _dblMaxPeakSN$[ebp]

; 1715 : 				dblCoarsePwrSN = 10 * log10f(dblMaxPeak);

  002b6	d9 85 b8 fd ff
	ff		 fld	 DWORD PTR _dblMaxPeak$[ebp]
  002bc	83 ec 08	 sub	 esp, 8
  002bf	dd 1c 24	 fstp	 QWORD PTR [esp]
  002c2	e8 00 00 00 00	 call	 _log10
  002c7	83 c4 08	 add	 esp, 8
  002ca	d9 9d 44 fb ff
	ff		 fstp	 DWORD PTR tv975[ebp]
  002d0	d9 85 44 fb ff
	ff		 fld	 DWORD PTR tv975[ebp]
  002d6	dc 0d 00 00 00
	00		 fmul	 QWORD PTR __real@4024000000000000
  002dc	d9 9d 54 fc ff
	ff		 fstp	 DWORD PTR _dblCoarsePwrSN$[ebp]

; 1716 : 				intIatMaxPeak = i + 100;

  002e2	8b 85 78 fc ff
	ff		 mov	 eax, DWORD PTR _i$[ebp]
  002e8	83 c0 64	 add	 eax, 100		; 00000064H
  002eb	89 85 7c fd ff
	ff		 mov	 DWORD PTR _intIatMaxPeak$[ebp], eax
$LN31@SearchFor2:

; 1717 : 			}
; 1718 : 		}

  002f1	e9 ef fe ff ff	 jmp	 $LN33@SearchFor2
$LN32@SearchFor2:

; 1719 : 			
; 1720 : 		// Do the interpolation based on the two carriers at nominal 1475 and 1525Hz
; 1721 : 
; 1722 : 		if (((intIatMaxPeak - 101) >= intStartBin) && ((intIatMaxPeak - 95) <= intStopBin)) // check to ensure no index errors

  002f6	8b 85 7c fd ff
	ff		 mov	 eax, DWORD PTR _intIatMaxPeak$[ebp]
  002fc	83 e8 65	 sub	 eax, 101		; 00000065H
  002ff	3b 85 4c fd ff
	ff		 cmp	 eax, DWORD PTR _intStartBin$[ebp]
  00305	0f 8c 0c 02 00
	00		 jl	 $LN30@SearchFor2
  0030b	8b 85 7c fd ff
	ff		 mov	 eax, DWORD PTR _intIatMaxPeak$[ebp]
  00311	83 e8 5f	 sub	 eax, 95			; 0000005fH
  00314	3b 85 40 fd ff
	ff		 cmp	 eax, DWORD PTR _intStopBin$[ebp]
  0031a	0f 8f f7 01 00
	00		 jg	 $LN30@SearchFor2

; 1723 : 		{
; 1724 : 			// Interpolate the adjacent bins using QuinnSpectralPeakLocator
; 1725 : 
; 1726 : 			dblBinAdj1475 = QuinnSpectralPeakLocator(
; 1727 : 				dblGoertzelReal[intIatMaxPeak - 101], dblGoertzelImag[intIatMaxPeak - 101],
; 1728 : 				dblGoertzelReal[intIatMaxPeak - 100], dblGoertzelImag[intIatMaxPeak - 100], 
; 1729 : 				dblGoertzelReal[intIatMaxPeak - 99], dblGoertzelImag[intIatMaxPeak - 99]);

  00320	8b 85 7c fd ff
	ff		 mov	 eax, DWORD PTR _intIatMaxPeak$[ebp]
  00326	51		 push	 ecx
  00327	d9 84 85 00 fd
	ff ff		 fld	 DWORD PTR _dblGoertzelImag$[ebp+eax*4-396]
  0032e	d9 1c 24	 fstp	 DWORD PTR [esp]
  00331	8b 8d 7c fd ff
	ff		 mov	 ecx, DWORD PTR _intIatMaxPeak$[ebp]
  00337	51		 push	 ecx
  00338	d9 84 8d bc fd
	ff ff		 fld	 DWORD PTR _dblGoertzelReal$[ebp+ecx*4-396]
  0033f	d9 1c 24	 fstp	 DWORD PTR [esp]
  00342	8b 95 7c fd ff
	ff		 mov	 edx, DWORD PTR _intIatMaxPeak$[ebp]
  00348	51		 push	 ecx
  00349	d9 84 95 fc fc
	ff ff		 fld	 DWORD PTR _dblGoertzelImag$[ebp+edx*4-400]
  00350	d9 1c 24	 fstp	 DWORD PTR [esp]
  00353	8b 85 7c fd ff
	ff		 mov	 eax, DWORD PTR _intIatMaxPeak$[ebp]
  00359	51		 push	 ecx
  0035a	d9 84 85 b8 fd
	ff ff		 fld	 DWORD PTR _dblGoertzelReal$[ebp+eax*4-400]
  00361	d9 1c 24	 fstp	 DWORD PTR [esp]
  00364	8b 8d 7c fd ff
	ff		 mov	 ecx, DWORD PTR _intIatMaxPeak$[ebp]
  0036a	51		 push	 ecx
  0036b	d9 84 8d f8 fc
	ff ff		 fld	 DWORD PTR _dblGoertzelImag$[ebp+ecx*4-404]
  00372	d9 1c 24	 fstp	 DWORD PTR [esp]
  00375	8b 95 7c fd ff
	ff		 mov	 edx, DWORD PTR _intIatMaxPeak$[ebp]
  0037b	51		 push	 ecx
  0037c	d9 84 95 b4 fd
	ff ff		 fld	 DWORD PTR _dblGoertzelReal$[ebp+edx*4-404]
  00383	d9 1c 24	 fstp	 DWORD PTR [esp]
  00386	e8 00 00 00 00	 call	 _QuinnSpectralPeakLocator
  0038b	83 c4 18	 add	 esp, 24			; 00000018H
  0038e	d9 9d 48 fc ff
	ff		 fstp	 DWORD PTR _dblBinAdj1475$[ebp]

; 1730 : 
; 1731 : 			if (dblBinAdj1475 < dblInterpretThreshold && dblBinAdj1475 > -dblInterpretThreshold)

  00394	d9 85 48 fc ff
	ff		 fld	 DWORD PTR _dblBinAdj1475$[ebp]
  0039a	d9 85 64 fd ff
	ff		 fld	 DWORD PTR _dblInterpretThreshold$[ebp]
  003a0	de d9		 fcompp
  003a2	df e0		 fnstsw	 ax
  003a4	f6 c4 41	 test	 ah, 65			; 00000041H
  003a7	75 32		 jne	 SHORT $LN29@SearchFor2
  003a9	d9 85 64 fd ff
	ff		 fld	 DWORD PTR _dblInterpretThreshold$[ebp]
  003af	d9 e0		 fchs
  003b1	d9 85 48 fc ff
	ff		 fld	 DWORD PTR _dblBinAdj1475$[ebp]
  003b7	de d9		 fcompp
  003b9	df e0		 fnstsw	 ax
  003bb	f6 c4 41	 test	 ah, 65			; 00000041H
  003be	75 1b		 jne	 SHORT $LN29@SearchFor2

; 1732 : 			{
; 1733 : 				dblBinAdj = dblBinAdj1475;

  003c0	d9 85 48 fc ff
	ff		 fld	 DWORD PTR _dblBinAdj1475$[ebp]
  003c6	d9 9d 94 fd ff
	ff		 fstp	 DWORD PTR _dblBinAdj$[ebp]

; 1734 : 				intInterpCnt += 1;

  003cc	8b 85 88 fd ff
	ff		 mov	 eax, DWORD PTR _intInterpCnt$[ebp]
  003d2	83 c0 01	 add	 eax, 1
  003d5	89 85 88 fd ff
	ff		 mov	 DWORD PTR _intInterpCnt$[ebp], eax
$LN29@SearchFor2:

; 1735 : 			}
; 1736 : 
; 1737 : 			dblBinAdj1525 = QuinnSpectralPeakLocator(
; 1738 : 				dblGoertzelReal[intIatMaxPeak - 97], dblGoertzelImag[intIatMaxPeak - 97], 
; 1739 : 				dblGoertzelReal[intIatMaxPeak - 96], dblGoertzelImag[intIatMaxPeak - 96], 
; 1740 : 				dblGoertzelReal[intIatMaxPeak - 95], dblGoertzelImag[intIatMaxPeak - 95]);

  003db	8b 85 7c fd ff
	ff		 mov	 eax, DWORD PTR _intIatMaxPeak$[ebp]
  003e1	51		 push	 ecx
  003e2	d9 84 85 10 fd
	ff ff		 fld	 DWORD PTR _dblGoertzelImag$[ebp+eax*4-380]
  003e9	d9 1c 24	 fstp	 DWORD PTR [esp]
  003ec	8b 8d 7c fd ff
	ff		 mov	 ecx, DWORD PTR _intIatMaxPeak$[ebp]
  003f2	51		 push	 ecx
  003f3	d9 84 8d cc fd
	ff ff		 fld	 DWORD PTR _dblGoertzelReal$[ebp+ecx*4-380]
  003fa	d9 1c 24	 fstp	 DWORD PTR [esp]
  003fd	8b 95 7c fd ff
	ff		 mov	 edx, DWORD PTR _intIatMaxPeak$[ebp]
  00403	51		 push	 ecx
  00404	d9 84 95 0c fd
	ff ff		 fld	 DWORD PTR _dblGoertzelImag$[ebp+edx*4-384]
  0040b	d9 1c 24	 fstp	 DWORD PTR [esp]
  0040e	8b 85 7c fd ff
	ff		 mov	 eax, DWORD PTR _intIatMaxPeak$[ebp]
  00414	51		 push	 ecx
  00415	d9 84 85 c8 fd
	ff ff		 fld	 DWORD PTR _dblGoertzelReal$[ebp+eax*4-384]
  0041c	d9 1c 24	 fstp	 DWORD PTR [esp]
  0041f	8b 8d 7c fd ff
	ff		 mov	 ecx, DWORD PTR _intIatMaxPeak$[ebp]
  00425	51		 push	 ecx
  00426	d9 84 8d 08 fd
	ff ff		 fld	 DWORD PTR _dblGoertzelImag$[ebp+ecx*4-388]
  0042d	d9 1c 24	 fstp	 DWORD PTR [esp]
  00430	8b 95 7c fd ff
	ff		 mov	 edx, DWORD PTR _intIatMaxPeak$[ebp]
  00436	51		 push	 ecx
  00437	d9 84 95 c4 fd
	ff ff		 fld	 DWORD PTR _dblGoertzelReal$[ebp+edx*4-388]
  0043e	d9 1c 24	 fstp	 DWORD PTR [esp]
  00441	e8 00 00 00 00	 call	 _QuinnSpectralPeakLocator
  00446	83 c4 18	 add	 esp, 24			; 00000018H
  00449	d9 9d 3c fc ff
	ff		 fstp	 DWORD PTR _dblBinAdj1525$[ebp]

; 1741 : 
; 1742 : 			if (dblBinAdj1525 < dblInterpretThreshold && dblBinAdj1525 > -dblInterpretThreshold)

  0044f	d9 85 3c fc ff
	ff		 fld	 DWORD PTR _dblBinAdj1525$[ebp]
  00455	d9 85 64 fd ff
	ff		 fld	 DWORD PTR _dblInterpretThreshold$[ebp]
  0045b	de d9		 fcompp
  0045d	df e0		 fnstsw	 ax
  0045f	f6 c4 41	 test	 ah, 65			; 00000041H
  00462	75 38		 jne	 SHORT $LN28@SearchFor2
  00464	d9 85 64 fd ff
	ff		 fld	 DWORD PTR _dblInterpretThreshold$[ebp]
  0046a	d9 e0		 fchs
  0046c	d9 85 3c fc ff
	ff		 fld	 DWORD PTR _dblBinAdj1525$[ebp]
  00472	de d9		 fcompp
  00474	df e0		 fnstsw	 ax
  00476	f6 c4 41	 test	 ah, 65			; 00000041H
  00479	75 21		 jne	 SHORT $LN28@SearchFor2

; 1743 : 			{
; 1744 : 				dblBinAdj += dblBinAdj1525;

  0047b	d9 85 94 fd ff
	ff		 fld	 DWORD PTR _dblBinAdj$[ebp]
  00481	d8 85 3c fc ff
	ff		 fadd	 DWORD PTR _dblBinAdj1525$[ebp]
  00487	d9 9d 94 fd ff
	ff		 fstp	 DWORD PTR _dblBinAdj$[ebp]

; 1745 :         		intInterpCnt += 1;

  0048d	8b 85 88 fd ff
	ff		 mov	 eax, DWORD PTR _intInterpCnt$[ebp]
  00493	83 c0 01	 add	 eax, 1
  00496	89 85 88 fd ff
	ff		 mov	 DWORD PTR _intInterpCnt$[ebp], eax
$LN28@SearchFor2:

; 1746 : 			}
; 1747 : 
; 1748 : 			if (intInterpCnt == 0)

  0049c	83 bd 88 fd ff
	ff 00		 cmp	 DWORD PTR _intInterpCnt$[ebp], 0
  004a3	75 40		 jne	 SHORT $LN27@SearchFor2

; 1749 : 			{				
; 1750 : 				if (SlowCPU)

  004a5	83 3d 00 00 00
	00 00		 cmp	 DWORD PTR _SlowCPU, 0
  004ac	74 13		 je	 SHORT $LN26@SearchFor2

; 1751 : 					Ptr += 480; // advance pointer 2 symbols (40 ms) ' reduce CPU loading

  004ae	8b 85 6c fc ff
	ff		 mov	 eax, DWORD PTR _Ptr$[ebp]
  004b4	05 e0 01 00 00	 add	 eax, 480		; 000001e0H
  004b9	89 85 6c fc ff
	ff		 mov	 DWORD PTR _Ptr$[ebp], eax

; 1752 : 				else

  004bf	eb 11		 jmp	 SHORT $LN25@SearchFor2
$LN26@SearchFor2:

; 1753 : 					Ptr += 240; // advance pointer 1 symbol (20 ms)

  004c1	8b 85 6c fc ff
	ff		 mov	 eax, DWORD PTR _Ptr$[ebp]
  004c7	05 f0 00 00 00	 add	 eax, 240		; 000000f0H
  004cc	89 85 6c fc ff
	ff		 mov	 DWORD PTR _Ptr$[ebp], eax
$LN25@SearchFor2:

; 1754 : 		
; 1755 : 				blnLeaderDetected = FALSE;

  004d2	c7 05 00 00 00
	00 00 00 00 00	 mov	 DWORD PTR _blnLeaderDetected, 0

; 1756 : 				return FALSE;

  004dc	33 c0		 xor	 eax, eax
  004de	e9 1e 0f 00 00	 jmp	 $LN3@SearchFor2

; 1757 : 			}
; 1758 : 			else

  004e3	eb 30		 jmp	 SHORT $LN24@SearchFor2
$LN27@SearchFor2:

; 1759 : 			{	
; 1760 : 				dblBinAdj = dblBinAdj / intInterpCnt;	 // average the offsets that are within .5 bin

  004e5	db 85 88 fd ff
	ff		 fild	 DWORD PTR _intInterpCnt$[ebp]
  004eb	d8 bd 94 fd ff
	ff		 fdivr	 DWORD PTR _dblBinAdj$[ebp]
  004f1	d9 9d 94 fd ff
	ff		 fstp	 DWORD PTR _dblBinAdj$[ebp]

; 1761 : 				dblCoarseOffset = 12.5f * (intIatMaxPeak + dblBinAdj - 120); // compute the Coarse tuning offset in Hz

  004f7	db 85 7c fd ff
	ff		 fild	 DWORD PTR _intIatMaxPeak$[ebp]
  004fd	d8 85 94 fd ff
	ff		 fadd	 DWORD PTR _dblBinAdj$[ebp]
  00503	dc 25 00 00 00
	00		 fsub	 QWORD PTR __real@405e000000000000
  00509	dc 0d 00 00 00
	00		 fmul	 QWORD PTR __real@4029000000000000
  0050f	d9 9d 30 fc ff
	ff		 fstp	 DWORD PTR _dblCoarseOffset$[ebp]
$LN24@SearchFor2:

; 1762 : 			}
; 1763 : 		}
; 1764 : 		else

  00515	eb 3e		 jmp	 SHORT $LN23@SearchFor2
$LN30@SearchFor2:

; 1765 : 		{
; 1766 : 			if (SlowCPU)

  00517	83 3d 00 00 00
	00 00		 cmp	 DWORD PTR _SlowCPU, 0
  0051e	74 13		 je	 SHORT $LN22@SearchFor2

; 1767 : 				Ptr += 480; // advance pointer 2 symbols (40 ms) ' reduce CPU loading

  00520	8b 85 6c fc ff
	ff		 mov	 eax, DWORD PTR _Ptr$[ebp]
  00526	05 e0 01 00 00	 add	 eax, 480		; 000001e0H
  0052b	89 85 6c fc ff
	ff		 mov	 DWORD PTR _Ptr$[ebp], eax

; 1768 : 			else

  00531	eb 11		 jmp	 SHORT $LN21@SearchFor2
$LN22@SearchFor2:

; 1769 : 				Ptr += 240; // advance pointer 1 symbol (20 ms) 

  00533	8b 85 6c fc ff
	ff		 mov	 eax, DWORD PTR _Ptr$[ebp]
  00539	05 f0 00 00 00	 add	 eax, 240		; 000000f0H
  0053e	89 85 6c fc ff
	ff		 mov	 DWORD PTR _Ptr$[ebp], eax
$LN21@SearchFor2:

; 1770 : 		
; 1771 : 			blnLeaderDetected = FALSE;

  00544	c7 05 00 00 00
	00 00 00 00 00	 mov	 DWORD PTR _blnLeaderDetected, 0

; 1772 : 			return FALSE;

  0054e	33 c0		 xor	 eax, eax
  00550	e9 ac 0e 00 00	 jmp	 $LN3@SearchFor2
$LN23@SearchFor2:

; 1773 : 		}
; 1774 :             
; 1775 : 		// update the offsetHz and setup the NCO new freq and Phase inc. Note no change to current NCOphase
; 1776 : 
; 1777 : 		// Drop into narrow search
; 1778 : 	}
; 1779 : 
; 1780 : 	//	NarrowSearch:
; 1781 :             
; 1782 : 	if (dblCoarseOffset < 999)

  00555	d9 85 30 fc ff
	ff		 fld	 DWORD PTR _dblCoarseOffset$[ebp]
  0055b	dc 1d 00 00 00
	00		 fcomp	 QWORD PTR __real@408f380000000000
  00561	df e0		 fnstsw	 ax
  00563	f6 c4 05	 test	 ah, 5
  00566	7a 0e		 jp	 SHORT $LN20@SearchFor2

; 1783 : 		dblTrialOffset = dblCoarseOffset;  // use the CoarseOffset calculation from above

  00568	d9 85 30 fc ff
	ff		 fld	 DWORD PTR _dblCoarseOffset$[ebp]
  0056e	d9 9d 24 fc ff
	ff		 fstp	 DWORD PTR _dblTrialOffset$[ebp]

; 1784 : 	else

  00574	eb 0b		 jmp	 SHORT $LN19@SearchFor2
$LN20@SearchFor2:

; 1785 : 		dblTrialOffset = *dblOffsetHz; // use the prior offset value

  00576	8b 45 10	 mov	 eax, DWORD PTR _dblOffsetHz$[ebp]
  00579	d9 00		 fld	 DWORD PTR [eax]
  0057b	d9 9d 24 fc ff
	ff		 fstp	 DWORD PTR _dblTrialOffset$[ebp]
$LN19@SearchFor2:

; 1786 : 
; 1787 : 	dblLeftCar = 120 - 2 + dblTrialOffset / 12.5f;  // the nominal positions of the two tone carriers based on the last computerd dblOffsetHz

  00581	d9 85 24 fc ff
	ff		 fld	 DWORD PTR _dblTrialOffset$[ebp]
  00587	dc 35 00 00 00
	00		 fdiv	 QWORD PTR __real@4029000000000000
  0058d	dc 05 00 00 00
	00		 fadd	 QWORD PTR __real@405d800000000000
  00593	d9 9d 34 fd ff
	ff		 fstp	 DWORD PTR _dblLeftCar$[ebp]

; 1788 : 	dblRightCar = 120 + 2 + dblTrialOffset / 12.5f;

  00599	d9 85 24 fc ff
	ff		 fld	 DWORD PTR _dblTrialOffset$[ebp]
  0059f	dc 35 00 00 00
	00		 fdiv	 QWORD PTR __real@4029000000000000
  005a5	dc 05 00 00 00
	00		 fadd	 QWORD PTR __real@405e800000000000
  005ab	d9 9d 28 fd ff
	ff		 fstp	 DWORD PTR _dblRightCar$[ebp]

; 1789 : 	// Calculate 4 bins total for Noise values in S/N computation (calculate average noise)  ' Simple average of noise bins      
; 1790 : 	GoertzelRealImag(intNewSamples, Ptr, 960, 114 + dblTrialOffset / 12.5f, &dblCtrR, &dblCtrI);  // nominal center -75 Hz

  005b1	8d 85 f8 fc ff
	ff		 lea	 eax, DWORD PTR _dblCtrI$[ebp]
  005b7	50		 push	 eax
  005b8	8d 8d 04 fd ff
	ff		 lea	 ecx, DWORD PTR _dblCtrR$[ebp]
  005be	51		 push	 ecx
  005bf	d9 85 24 fc ff
	ff		 fld	 DWORD PTR _dblTrialOffset$[ebp]
  005c5	dc 35 00 00 00
	00		 fdiv	 QWORD PTR __real@4029000000000000
  005cb	dc 05 00 00 00
	00		 fadd	 QWORD PTR __real@405c800000000000
  005d1	d9 9d 44 fb ff
	ff		 fstp	 DWORD PTR tv1066[ebp]
  005d7	d9 85 44 fb ff
	ff		 fld	 DWORD PTR tv1066[ebp]
  005dd	51		 push	 ecx
  005de	d9 1c 24	 fstp	 DWORD PTR [esp]
  005e1	68 c0 03 00 00	 push	 960			; 000003c0H
  005e6	8b 95 6c fc ff
	ff		 mov	 edx, DWORD PTR _Ptr$[ebp]
  005ec	52		 push	 edx
  005ed	8b 45 08	 mov	 eax, DWORD PTR _intNewSamples$[ebp]
  005f0	50		 push	 eax
  005f1	e8 00 00 00 00	 call	 _GoertzelRealImag
  005f6	83 c4 18	 add	 esp, 24			; 00000018H

; 1791 : 	dblAvgNoisePerBin = powf(dblCtrR, 2) + powf(dblCtrI, 2);

  005f9	83 ec 08	 sub	 esp, 8
  005fc	dd 05 00 00 00
	00		 fld	 QWORD PTR __real@4000000000000000
  00602	dd 1c 24	 fstp	 QWORD PTR [esp]
  00605	d9 85 04 fd ff
	ff		 fld	 DWORD PTR _dblCtrR$[ebp]
  0060b	83 ec 08	 sub	 esp, 8
  0060e	dd 1c 24	 fstp	 QWORD PTR [esp]
  00611	e8 00 00 00 00	 call	 _pow
  00616	83 c4 10	 add	 esp, 16			; 00000010H
  00619	d9 9d 44 fb ff
	ff		 fstp	 DWORD PTR tv1079[ebp]
  0061f	d9 85 44 fb ff
	ff		 fld	 DWORD PTR tv1079[ebp]
  00625	83 ec 08	 sub	 esp, 8
  00628	dd 05 00 00 00
	00		 fld	 QWORD PTR __real@4000000000000000
  0062e	dd 1c 24	 fstp	 QWORD PTR [esp]
  00631	d9 85 f8 fc ff
	ff		 fld	 DWORD PTR _dblCtrI$[ebp]
  00637	83 ec 08	 sub	 esp, 8
  0063a	dd 1c 24	 fstp	 QWORD PTR [esp]
  0063d	dd 9d 3c fb ff
	ff		 fstp	 QWORD PTR tv1602[ebp]
  00643	e8 00 00 00 00	 call	 _pow
  00648	83 c4 10	 add	 esp, 16			; 00000010H
  0064b	d9 9d 38 fb ff
	ff		 fstp	 DWORD PTR tv1087[ebp]
  00651	d9 85 38 fb ff
	ff		 fld	 DWORD PTR tv1087[ebp]
  00657	dc 85 3c fb ff
	ff		 fadd	 QWORD PTR tv1602[ebp]
  0065d	d9 9d 60 fc ff
	ff		 fstp	 DWORD PTR _dblAvgNoisePerBin$[ebp]

; 1792 : 	GoertzelRealImag(intNewSamples, Ptr, 960, 116 + dblTrialOffset / 12.5f, &dblCtrR, &dblCtrI); // center - 50 Hz

  00663	8d 85 f8 fc ff
	ff		 lea	 eax, DWORD PTR _dblCtrI$[ebp]
  00669	50		 push	 eax
  0066a	8d 8d 04 fd ff
	ff		 lea	 ecx, DWORD PTR _dblCtrR$[ebp]
  00670	51		 push	 ecx
  00671	d9 85 24 fc ff
	ff		 fld	 DWORD PTR _dblTrialOffset$[ebp]
  00677	dc 35 00 00 00
	00		 fdiv	 QWORD PTR __real@4029000000000000
  0067d	dc 05 00 00 00
	00		 fadd	 QWORD PTR __real@405d000000000000
  00683	d9 9d 44 fb ff
	ff		 fstp	 DWORD PTR tv1093[ebp]
  00689	d9 85 44 fb ff
	ff		 fld	 DWORD PTR tv1093[ebp]
  0068f	51		 push	 ecx
  00690	d9 1c 24	 fstp	 DWORD PTR [esp]
  00693	68 c0 03 00 00	 push	 960			; 000003c0H
  00698	8b 95 6c fc ff
	ff		 mov	 edx, DWORD PTR _Ptr$[ebp]
  0069e	52		 push	 edx
  0069f	8b 45 08	 mov	 eax, DWORD PTR _intNewSamples$[ebp]
  006a2	50		 push	 eax
  006a3	e8 00 00 00 00	 call	 _GoertzelRealImag
  006a8	83 c4 18	 add	 esp, 24			; 00000018H

; 1793 : 	dblAvgNoisePerBin += powf(dblCtrR, 2) + powf(dblCtrI, 2);

  006ab	83 ec 08	 sub	 esp, 8
  006ae	dd 05 00 00 00
	00		 fld	 QWORD PTR __real@4000000000000000
  006b4	dd 1c 24	 fstp	 QWORD PTR [esp]
  006b7	d9 85 04 fd ff
	ff		 fld	 DWORD PTR _dblCtrR$[ebp]
  006bd	83 ec 08	 sub	 esp, 8
  006c0	dd 1c 24	 fstp	 QWORD PTR [esp]
  006c3	e8 00 00 00 00	 call	 _pow
  006c8	83 c4 10	 add	 esp, 16			; 00000010H
  006cb	d9 9d 44 fb ff
	ff		 fstp	 DWORD PTR tv1106[ebp]
  006d1	d9 85 44 fb ff
	ff		 fld	 DWORD PTR tv1106[ebp]
  006d7	83 ec 08	 sub	 esp, 8
  006da	dd 05 00 00 00
	00		 fld	 QWORD PTR __real@4000000000000000
  006e0	dd 1c 24	 fstp	 QWORD PTR [esp]
  006e3	d9 85 f8 fc ff
	ff		 fld	 DWORD PTR _dblCtrI$[ebp]
  006e9	83 ec 08	 sub	 esp, 8
  006ec	dd 1c 24	 fstp	 QWORD PTR [esp]
  006ef	dd 9d 3c fb ff
	ff		 fstp	 QWORD PTR tv1604[ebp]
  006f5	e8 00 00 00 00	 call	 _pow
  006fa	83 c4 10	 add	 esp, 16			; 00000010H
  006fd	d9 9d 38 fb ff
	ff		 fstp	 DWORD PTR tv1114[ebp]
  00703	d9 85 38 fb ff
	ff		 fld	 DWORD PTR tv1114[ebp]
  00709	dc 85 3c fb ff
	ff		 fadd	 QWORD PTR tv1604[ebp]
  0070f	d8 85 60 fc ff
	ff		 fadd	 DWORD PTR _dblAvgNoisePerBin$[ebp]
  00715	d9 9d 60 fc ff
	ff		 fstp	 DWORD PTR _dblAvgNoisePerBin$[ebp]

; 1794 : 	GoertzelRealImag(intNewSamples, Ptr, 960, 124 + dblTrialOffset / 12.5f, &dblCtrR, &dblCtrI); // center + 50 Hz

  0071b	8d 85 f8 fc ff
	ff		 lea	 eax, DWORD PTR _dblCtrI$[ebp]
  00721	50		 push	 eax
  00722	8d 8d 04 fd ff
	ff		 lea	 ecx, DWORD PTR _dblCtrR$[ebp]
  00728	51		 push	 ecx
  00729	d9 85 24 fc ff
	ff		 fld	 DWORD PTR _dblTrialOffset$[ebp]
  0072f	dc 35 00 00 00
	00		 fdiv	 QWORD PTR __real@4029000000000000
  00735	dc 05 00 00 00
	00		 fadd	 QWORD PTR __real@405f000000000000
  0073b	d9 9d 44 fb ff
	ff		 fstp	 DWORD PTR tv1120[ebp]
  00741	d9 85 44 fb ff
	ff		 fld	 DWORD PTR tv1120[ebp]
  00747	51		 push	 ecx
  00748	d9 1c 24	 fstp	 DWORD PTR [esp]
  0074b	68 c0 03 00 00	 push	 960			; 000003c0H
  00750	8b 95 6c fc ff
	ff		 mov	 edx, DWORD PTR _Ptr$[ebp]
  00756	52		 push	 edx
  00757	8b 45 08	 mov	 eax, DWORD PTR _intNewSamples$[ebp]
  0075a	50		 push	 eax
  0075b	e8 00 00 00 00	 call	 _GoertzelRealImag
  00760	83 c4 18	 add	 esp, 24			; 00000018H

; 1795 : 	dblAvgNoisePerBin += powf(dblCtrR, 2) + powf(dblCtrI, 2);

  00763	83 ec 08	 sub	 esp, 8
  00766	dd 05 00 00 00
	00		 fld	 QWORD PTR __real@4000000000000000
  0076c	dd 1c 24	 fstp	 QWORD PTR [esp]
  0076f	d9 85 04 fd ff
	ff		 fld	 DWORD PTR _dblCtrR$[ebp]
  00775	83 ec 08	 sub	 esp, 8
  00778	dd 1c 24	 fstp	 QWORD PTR [esp]
  0077b	e8 00 00 00 00	 call	 _pow
  00780	83 c4 10	 add	 esp, 16			; 00000010H
  00783	d9 9d 44 fb ff
	ff		 fstp	 DWORD PTR tv1133[ebp]
  00789	d9 85 44 fb ff
	ff		 fld	 DWORD PTR tv1133[ebp]
  0078f	83 ec 08	 sub	 esp, 8
  00792	dd 05 00 00 00
	00		 fld	 QWORD PTR __real@4000000000000000
  00798	dd 1c 24	 fstp	 QWORD PTR [esp]
  0079b	d9 85 f8 fc ff
	ff		 fld	 DWORD PTR _dblCtrI$[ebp]
  007a1	83 ec 08	 sub	 esp, 8
  007a4	dd 1c 24	 fstp	 QWORD PTR [esp]
  007a7	dd 9d 3c fb ff
	ff		 fstp	 QWORD PTR tv1606[ebp]
  007ad	e8 00 00 00 00	 call	 _pow
  007b2	83 c4 10	 add	 esp, 16			; 00000010H
  007b5	d9 9d 38 fb ff
	ff		 fstp	 DWORD PTR tv1141[ebp]
  007bb	d9 85 38 fb ff
	ff		 fld	 DWORD PTR tv1141[ebp]
  007c1	dc 85 3c fb ff
	ff		 fadd	 QWORD PTR tv1606[ebp]
  007c7	d8 85 60 fc ff
	ff		 fadd	 DWORD PTR _dblAvgNoisePerBin$[ebp]
  007cd	d9 9d 60 fc ff
	ff		 fstp	 DWORD PTR _dblAvgNoisePerBin$[ebp]

; 1796 : 	GoertzelRealImag(intNewSamples, Ptr, 960, 126 + dblTrialOffset / 12.5f, &dblCtrR, &dblCtrI);  // center + 75 Hz

  007d3	8d 85 f8 fc ff
	ff		 lea	 eax, DWORD PTR _dblCtrI$[ebp]
  007d9	50		 push	 eax
  007da	8d 8d 04 fd ff
	ff		 lea	 ecx, DWORD PTR _dblCtrR$[ebp]
  007e0	51		 push	 ecx
  007e1	d9 85 24 fc ff
	ff		 fld	 DWORD PTR _dblTrialOffset$[ebp]
  007e7	dc 35 00 00 00
	00		 fdiv	 QWORD PTR __real@4029000000000000
  007ed	dc 05 00 00 00
	00		 fadd	 QWORD PTR __real@405f800000000000
  007f3	d9 9d 44 fb ff
	ff		 fstp	 DWORD PTR tv1147[ebp]
  007f9	d9 85 44 fb ff
	ff		 fld	 DWORD PTR tv1147[ebp]
  007ff	51		 push	 ecx
  00800	d9 1c 24	 fstp	 DWORD PTR [esp]
  00803	68 c0 03 00 00	 push	 960			; 000003c0H
  00808	8b 95 6c fc ff
	ff		 mov	 edx, DWORD PTR _Ptr$[ebp]
  0080e	52		 push	 edx
  0080f	8b 45 08	 mov	 eax, DWORD PTR _intNewSamples$[ebp]
  00812	50		 push	 eax
  00813	e8 00 00 00 00	 call	 _GoertzelRealImag
  00818	83 c4 18	 add	 esp, 24			; 00000018H

; 1797 : 	dblAvgNoisePerBin += powf(dblCtrR, 2) + powf(dblCtrI, 2);

  0081b	83 ec 08	 sub	 esp, 8
  0081e	dd 05 00 00 00
	00		 fld	 QWORD PTR __real@4000000000000000
  00824	dd 1c 24	 fstp	 QWORD PTR [esp]
  00827	d9 85 04 fd ff
	ff		 fld	 DWORD PTR _dblCtrR$[ebp]
  0082d	83 ec 08	 sub	 esp, 8
  00830	dd 1c 24	 fstp	 QWORD PTR [esp]
  00833	e8 00 00 00 00	 call	 _pow
  00838	83 c4 10	 add	 esp, 16			; 00000010H
  0083b	d9 9d 44 fb ff
	ff		 fstp	 DWORD PTR tv1160[ebp]
  00841	d9 85 44 fb ff
	ff		 fld	 DWORD PTR tv1160[ebp]
  00847	83 ec 08	 sub	 esp, 8
  0084a	dd 05 00 00 00
	00		 fld	 QWORD PTR __real@4000000000000000
  00850	dd 1c 24	 fstp	 QWORD PTR [esp]
  00853	d9 85 f8 fc ff
	ff		 fld	 DWORD PTR _dblCtrI$[ebp]
  00859	83 ec 08	 sub	 esp, 8
  0085c	dd 1c 24	 fstp	 QWORD PTR [esp]
  0085f	dd 9d 3c fb ff
	ff		 fstp	 QWORD PTR tv1608[ebp]
  00865	e8 00 00 00 00	 call	 _pow
  0086a	83 c4 10	 add	 esp, 16			; 00000010H
  0086d	d9 9d 38 fb ff
	ff		 fstp	 DWORD PTR tv1168[ebp]
  00873	d9 85 38 fb ff
	ff		 fld	 DWORD PTR tv1168[ebp]
  00879	dc 85 3c fb ff
	ff		 fadd	 QWORD PTR tv1608[ebp]
  0087f	d8 85 60 fc ff
	ff		 fadd	 DWORD PTR _dblAvgNoisePerBin$[ebp]
  00885	d9 9d 60 fc ff
	ff		 fstp	 DWORD PTR _dblAvgNoisePerBin$[ebp]

; 1798 : 	dblAvgNoisePerBin = dblAvgNoisePerBin * 0.25f; // simple average,  now units of power

  0088b	d9 85 60 fc ff
	ff		 fld	 DWORD PTR _dblAvgNoisePerBin$[ebp]
  00891	dc 0d 00 00 00
	00		 fmul	 QWORD PTR __real@3fd0000000000000
  00897	d9 9d 60 fc ff
	ff		 fstp	 DWORD PTR _dblAvgNoisePerBin$[ebp]

; 1799 : 
; 1800 : 	// Calculate one bin above and below the two nominal 2 tone positions for Quinn Spectral Peak locator
; 1801 : 	GoertzelRealImag(intNewSamples, Ptr, 960, dblLeftCar - 1, &dblLeftR[0], &dblLeftI[0]);

  0089d	8d 85 ac fc ff
	ff		 lea	 eax, DWORD PTR _dblLeftI$[ebp]
  008a3	50		 push	 eax
  008a4	8d 8d c0 fc ff
	ff		 lea	 ecx, DWORD PTR _dblLeftR$[ebp]
  008aa	51		 push	 ecx
  008ab	d9 85 34 fd ff
	ff		 fld	 DWORD PTR _dblLeftCar$[ebp]
  008b1	dc 25 00 00 00
	00		 fsub	 QWORD PTR __real@3ff0000000000000
  008b7	d9 9d 44 fb ff
	ff		 fstp	 DWORD PTR tv1174[ebp]
  008bd	d9 85 44 fb ff
	ff		 fld	 DWORD PTR tv1174[ebp]
  008c3	51		 push	 ecx
  008c4	d9 1c 24	 fstp	 DWORD PTR [esp]
  008c7	68 c0 03 00 00	 push	 960			; 000003c0H
  008cc	8b 95 6c fc ff
	ff		 mov	 edx, DWORD PTR _Ptr$[ebp]
  008d2	52		 push	 edx
  008d3	8b 45 08	 mov	 eax, DWORD PTR _intNewSamples$[ebp]
  008d6	50		 push	 eax
  008d7	e8 00 00 00 00	 call	 _GoertzelRealImag
  008dc	83 c4 18	 add	 esp, 24			; 00000018H

; 1802 : 	GoertzelRealImag(intNewSamples, Ptr, 960, dblLeftCar, &dblLeftR[1], &dblLeftI[1]);

  008df	8d 85 b0 fc ff
	ff		 lea	 eax, DWORD PTR _dblLeftI$[ebp+4]
  008e5	50		 push	 eax
  008e6	8d 8d c4 fc ff
	ff		 lea	 ecx, DWORD PTR _dblLeftR$[ebp+4]
  008ec	51		 push	 ecx
  008ed	51		 push	 ecx
  008ee	d9 85 34 fd ff
	ff		 fld	 DWORD PTR _dblLeftCar$[ebp]
  008f4	d9 1c 24	 fstp	 DWORD PTR [esp]
  008f7	68 c0 03 00 00	 push	 960			; 000003c0H
  008fc	8b 95 6c fc ff
	ff		 mov	 edx, DWORD PTR _Ptr$[ebp]
  00902	52		 push	 edx
  00903	8b 45 08	 mov	 eax, DWORD PTR _intNewSamples$[ebp]
  00906	50		 push	 eax
  00907	e8 00 00 00 00	 call	 _GoertzelRealImag
  0090c	83 c4 18	 add	 esp, 24			; 00000018H

; 1803 : 	dblLeftP = powf(dblLeftR[1], 2) + powf(dblLeftI[1],  2);

  0090f	83 ec 08	 sub	 esp, 8
  00912	dd 05 00 00 00
	00		 fld	 QWORD PTR __real@4000000000000000
  00918	dd 1c 24	 fstp	 QWORD PTR [esp]
  0091b	d9 85 c4 fc ff
	ff		 fld	 DWORD PTR _dblLeftR$[ebp+4]
  00921	83 ec 08	 sub	 esp, 8
  00924	dd 1c 24	 fstp	 QWORD PTR [esp]
  00927	e8 00 00 00 00	 call	 _pow
  0092c	83 c4 10	 add	 esp, 16			; 00000010H
  0092f	d9 9d 44 fb ff
	ff		 fstp	 DWORD PTR tv1191[ebp]
  00935	d9 85 44 fb ff
	ff		 fld	 DWORD PTR tv1191[ebp]
  0093b	83 ec 08	 sub	 esp, 8
  0093e	dd 05 00 00 00
	00		 fld	 QWORD PTR __real@4000000000000000
  00944	dd 1c 24	 fstp	 QWORD PTR [esp]
  00947	d9 85 b0 fc ff
	ff		 fld	 DWORD PTR _dblLeftI$[ebp+4]
  0094d	83 ec 08	 sub	 esp, 8
  00950	dd 1c 24	 fstp	 QWORD PTR [esp]
  00953	dd 9d 3c fb ff
	ff		 fstp	 QWORD PTR tv1610[ebp]
  00959	e8 00 00 00 00	 call	 _pow
  0095e	83 c4 10	 add	 esp, 16			; 00000010H
  00961	d9 9d 38 fb ff
	ff		 fstp	 DWORD PTR tv1199[ebp]
  00967	d9 85 38 fb ff
	ff		 fld	 DWORD PTR tv1199[ebp]
  0096d	dc 85 3c fb ff
	ff		 fadd	 QWORD PTR tv1610[ebp]
  00973	d9 9d e0 fc ff
	ff		 fstp	 DWORD PTR _dblLeftP$[ebp]

; 1804 : 	GoertzelRealImag(intNewSamples, Ptr, 960, dblLeftCar + 1, &dblLeftR[2], &dblLeftI[2]);

  00979	8d 85 b4 fc ff
	ff		 lea	 eax, DWORD PTR _dblLeftI$[ebp+8]
  0097f	50		 push	 eax
  00980	8d 8d c8 fc ff
	ff		 lea	 ecx, DWORD PTR _dblLeftR$[ebp+8]
  00986	51		 push	 ecx
  00987	d9 85 34 fd ff
	ff		 fld	 DWORD PTR _dblLeftCar$[ebp]
  0098d	dc 05 00 00 00
	00		 fadd	 QWORD PTR __real@3ff0000000000000
  00993	d9 9d 44 fb ff
	ff		 fstp	 DWORD PTR tv1204[ebp]
  00999	d9 85 44 fb ff
	ff		 fld	 DWORD PTR tv1204[ebp]
  0099f	51		 push	 ecx
  009a0	d9 1c 24	 fstp	 DWORD PTR [esp]
  009a3	68 c0 03 00 00	 push	 960			; 000003c0H
  009a8	8b 95 6c fc ff
	ff		 mov	 edx, DWORD PTR _Ptr$[ebp]
  009ae	52		 push	 edx
  009af	8b 45 08	 mov	 eax, DWORD PTR _intNewSamples$[ebp]
  009b2	50		 push	 eax
  009b3	e8 00 00 00 00	 call	 _GoertzelRealImag
  009b8	83 c4 18	 add	 esp, 24			; 00000018H

; 1805 : 	GoertzelRealImag(intNewSamples, Ptr, 960, dblRightCar - 1, &dblRightR[0], &dblRightI[0]);

  009bb	8d 85 84 fc ff
	ff		 lea	 eax, DWORD PTR _dblRightI$[ebp]
  009c1	50		 push	 eax
  009c2	8d 8d 98 fc ff
	ff		 lea	 ecx, DWORD PTR _dblRightR$[ebp]
  009c8	51		 push	 ecx
  009c9	d9 85 28 fd ff
	ff		 fld	 DWORD PTR _dblRightCar$[ebp]
  009cf	dc 25 00 00 00
	00		 fsub	 QWORD PTR __real@3ff0000000000000
  009d5	d9 9d 44 fb ff
	ff		 fstp	 DWORD PTR tv1209[ebp]
  009db	d9 85 44 fb ff
	ff		 fld	 DWORD PTR tv1209[ebp]
  009e1	51		 push	 ecx
  009e2	d9 1c 24	 fstp	 DWORD PTR [esp]
  009e5	68 c0 03 00 00	 push	 960			; 000003c0H
  009ea	8b 95 6c fc ff
	ff		 mov	 edx, DWORD PTR _Ptr$[ebp]
  009f0	52		 push	 edx
  009f1	8b 45 08	 mov	 eax, DWORD PTR _intNewSamples$[ebp]
  009f4	50		 push	 eax
  009f5	e8 00 00 00 00	 call	 _GoertzelRealImag
  009fa	83 c4 18	 add	 esp, 24			; 00000018H

; 1806 : 	GoertzelRealImag(intNewSamples, Ptr, 960, dblRightCar, &dblRightR[1], &dblRightI[1]);

  009fd	8d 85 88 fc ff
	ff		 lea	 eax, DWORD PTR _dblRightI$[ebp+4]
  00a03	50		 push	 eax
  00a04	8d 8d 9c fc ff
	ff		 lea	 ecx, DWORD PTR _dblRightR$[ebp+4]
  00a0a	51		 push	 ecx
  00a0b	51		 push	 ecx
  00a0c	d9 85 28 fd ff
	ff		 fld	 DWORD PTR _dblRightCar$[ebp]
  00a12	d9 1c 24	 fstp	 DWORD PTR [esp]
  00a15	68 c0 03 00 00	 push	 960			; 000003c0H
  00a1a	8b 95 6c fc ff
	ff		 mov	 edx, DWORD PTR _Ptr$[ebp]
  00a20	52		 push	 edx
  00a21	8b 45 08	 mov	 eax, DWORD PTR _intNewSamples$[ebp]
  00a24	50		 push	 eax
  00a25	e8 00 00 00 00	 call	 _GoertzelRealImag
  00a2a	83 c4 18	 add	 esp, 24			; 00000018H

; 1807 : 	dblRightP = powf(dblRightR[1], 2) + powf(dblRightI[1], 2);

  00a2d	83 ec 08	 sub	 esp, 8
  00a30	dd 05 00 00 00
	00		 fld	 QWORD PTR __real@4000000000000000
  00a36	dd 1c 24	 fstp	 QWORD PTR [esp]
  00a39	d9 85 9c fc ff
	ff		 fld	 DWORD PTR _dblRightR$[ebp+4]
  00a3f	83 ec 08	 sub	 esp, 8
  00a42	dd 1c 24	 fstp	 QWORD PTR [esp]
  00a45	e8 00 00 00 00	 call	 _pow
  00a4a	83 c4 10	 add	 esp, 16			; 00000010H
  00a4d	d9 9d 44 fb ff
	ff		 fstp	 DWORD PTR tv1226[ebp]
  00a53	d9 85 44 fb ff
	ff		 fld	 DWORD PTR tv1226[ebp]
  00a59	83 ec 08	 sub	 esp, 8
  00a5c	dd 05 00 00 00
	00		 fld	 QWORD PTR __real@4000000000000000
  00a62	dd 1c 24	 fstp	 QWORD PTR [esp]
  00a65	d9 85 88 fc ff
	ff		 fld	 DWORD PTR _dblRightI$[ebp+4]
  00a6b	83 ec 08	 sub	 esp, 8
  00a6e	dd 1c 24	 fstp	 QWORD PTR [esp]
  00a71	dd 9d 3c fb ff
	ff		 fstp	 QWORD PTR tv1612[ebp]
  00a77	e8 00 00 00 00	 call	 _pow
  00a7c	83 c4 10	 add	 esp, 16			; 00000010H
  00a7f	d9 9d 38 fb ff
	ff		 fstp	 DWORD PTR tv1234[ebp]
  00a85	d9 85 38 fb ff
	ff		 fld	 DWORD PTR tv1234[ebp]
  00a8b	dc 85 3c fb ff
	ff		 fadd	 QWORD PTR tv1612[ebp]
  00a91	d9 9d d4 fc ff
	ff		 fstp	 DWORD PTR _dblRightP$[ebp]

; 1808 : 	GoertzelRealImag(intNewSamples, Ptr, 960, dblRightCar + 1, &dblRightR[2], &dblRightI[2]);

  00a97	8d 85 8c fc ff
	ff		 lea	 eax, DWORD PTR _dblRightI$[ebp+8]
  00a9d	50		 push	 eax
  00a9e	8d 8d a0 fc ff
	ff		 lea	 ecx, DWORD PTR _dblRightR$[ebp+8]
  00aa4	51		 push	 ecx
  00aa5	d9 85 28 fd ff
	ff		 fld	 DWORD PTR _dblRightCar$[ebp]
  00aab	dc 05 00 00 00
	00		 fadd	 QWORD PTR __real@3ff0000000000000
  00ab1	d9 9d 44 fb ff
	ff		 fstp	 DWORD PTR tv1239[ebp]
  00ab7	d9 85 44 fb ff
	ff		 fld	 DWORD PTR tv1239[ebp]
  00abd	51		 push	 ecx
  00abe	d9 1c 24	 fstp	 DWORD PTR [esp]
  00ac1	68 c0 03 00 00	 push	 960			; 000003c0H
  00ac6	8b 95 6c fc ff
	ff		 mov	 edx, DWORD PTR _Ptr$[ebp]
  00acc	52		 push	 edx
  00acd	8b 45 08	 mov	 eax, DWORD PTR _intNewSamples$[ebp]
  00ad0	50		 push	 eax
  00ad1	e8 00 00 00 00	 call	 _GoertzelRealImag
  00ad6	83 c4 18	 add	 esp, 24			; 00000018H

; 1809 : 
; 1810 : 	// Calculate the total power in the two tones 
; 1811 : 	// This mechanism designed to reject single carrier but average both carriers if ratios is less than 2:1
; 1812 : 
; 1813 : 	if (dblLeftP > 2 * dblRightP)

  00ad9	d9 85 d4 fc ff
	ff		 fld	 DWORD PTR _dblRightP$[ebp]
  00adf	dc 0d 00 00 00
	00		 fmul	 QWORD PTR __real@4000000000000000
  00ae5	d9 85 e0 fc ff
	ff		 fld	 DWORD PTR _dblLeftP$[ebp]
  00aeb	de d9		 fcompp
  00aed	df e0		 fnstsw	 ax
  00aef	f6 c4 41	 test	 ah, 65			; 00000041H
  00af2	75 0e		 jne	 SHORT $LN18@SearchFor2

; 1814 : 		dblPower = dblRightP;

  00af4	d9 85 d4 fc ff
	ff		 fld	 DWORD PTR _dblRightP$[ebp]
  00afa	d9 9d c4 fd ff
	ff		 fstp	 DWORD PTR _dblPower$[ebp]
  00b00	eb 41		 jmp	 SHORT $LN15@SearchFor2
$LN18@SearchFor2:

; 1815 : 	else if (dblRightP > 2 * dblLeftP)

  00b02	d9 85 e0 fc ff
	ff		 fld	 DWORD PTR _dblLeftP$[ebp]
  00b08	dc 0d 00 00 00
	00		 fmul	 QWORD PTR __real@4000000000000000
  00b0e	d9 85 d4 fc ff
	ff		 fld	 DWORD PTR _dblRightP$[ebp]
  00b14	de d9		 fcompp
  00b16	df e0		 fnstsw	 ax
  00b18	f6 c4 41	 test	 ah, 65			; 00000041H
  00b1b	75 0e		 jne	 SHORT $LN16@SearchFor2

; 1816 : 		dblPower = dblLeftP;

  00b1d	d9 85 e0 fc ff
	ff		 fld	 DWORD PTR _dblLeftP$[ebp]
  00b23	d9 9d c4 fd ff
	ff		 fstp	 DWORD PTR _dblPower$[ebp]

; 1817 : 	else

  00b29	eb 18		 jmp	 SHORT $LN15@SearchFor2
$LN16@SearchFor2:

; 1818 : 		dblPower = (dblLeftP + dblRightP) * 0.5f;  // simple average

  00b2b	d9 85 e0 fc ff
	ff		 fld	 DWORD PTR _dblLeftP$[ebp]
  00b31	d8 85 d4 fc ff
	ff		 fadd	 DWORD PTR _dblRightP$[ebp]
  00b37	dc 0d 00 00 00
	00		 fmul	 QWORD PTR __real@3fe0000000000000
  00b3d	d9 9d c4 fd ff
	ff		 fstp	 DWORD PTR _dblPower$[ebp]
$LN15@SearchFor2:

; 1819 : 
; 1820 : 	dblSNdBPwr = 10 * log10f(dblPower / dblAvgNoisePerBin);

  00b43	d9 85 c4 fd ff
	ff		 fld	 DWORD PTR _dblPower$[ebp]
  00b49	d8 b5 60 fc ff
	ff		 fdiv	 DWORD PTR _dblAvgNoisePerBin$[ebp]
  00b4f	83 ec 08	 sub	 esp, 8
  00b52	dd 1c 24	 fstp	 QWORD PTR [esp]
  00b55	e8 00 00 00 00	 call	 _log10
  00b5a	83 c4 08	 add	 esp, 8
  00b5d	d9 9d 44 fb ff
	ff		 fstp	 DWORD PTR tv1261[ebp]
  00b63	d9 85 44 fb ff
	ff		 fld	 DWORD PTR tv1261[ebp]
  00b69	dc 0d 00 00 00
	00		 fmul	 QWORD PTR __real@4024000000000000
  00b6f	d9 1d 00 00 00
	00		 fstp	 DWORD PTR _dblSNdBPwr

; 1821 : 
; 1822 :  
; 1823 : 	// Early leader detect code to calculate S:N on Front half (first 2 symbols)
; 1824 : 	// concept is to allow more accurate framing and sync detection and reduce false leader detects
; 1825 : 
; 1826 : 	GoertzelRealImag(intNewSamples, Ptr, 480, 57 + dblTrialOffset / 25, &dblCtrR, &dblCtrI); //  nominal center -75 Hz

  00b75	8d 85 f8 fc ff
	ff		 lea	 eax, DWORD PTR _dblCtrI$[ebp]
  00b7b	50		 push	 eax
  00b7c	8d 8d 04 fd ff
	ff		 lea	 ecx, DWORD PTR _dblCtrR$[ebp]
  00b82	51		 push	 ecx
  00b83	d9 85 24 fc ff
	ff		 fld	 DWORD PTR _dblTrialOffset$[ebp]
  00b89	dc 35 00 00 00
	00		 fdiv	 QWORD PTR __real@4039000000000000
  00b8f	dc 05 00 00 00
	00		 fadd	 QWORD PTR __real@404c800000000000
  00b95	d9 9d 44 fb ff
	ff		 fstp	 DWORD PTR tv1267[ebp]
  00b9b	d9 85 44 fb ff
	ff		 fld	 DWORD PTR tv1267[ebp]
  00ba1	51		 push	 ecx
  00ba2	d9 1c 24	 fstp	 DWORD PTR [esp]
  00ba5	68 e0 01 00 00	 push	 480			; 000001e0H
  00baa	8b 95 6c fc ff
	ff		 mov	 edx, DWORD PTR _Ptr$[ebp]
  00bb0	52		 push	 edx
  00bb1	8b 45 08	 mov	 eax, DWORD PTR _intNewSamples$[ebp]
  00bb4	50		 push	 eax
  00bb5	e8 00 00 00 00	 call	 _GoertzelRealImag
  00bba	83 c4 18	 add	 esp, 24			; 00000018H

; 1827 : 	dblAvgNoisePerBin = powf(dblCtrR, 2) + powf(dblCtrI, 2);

  00bbd	83 ec 08	 sub	 esp, 8
  00bc0	dd 05 00 00 00
	00		 fld	 QWORD PTR __real@4000000000000000
  00bc6	dd 1c 24	 fstp	 QWORD PTR [esp]
  00bc9	d9 85 04 fd ff
	ff		 fld	 DWORD PTR _dblCtrR$[ebp]
  00bcf	83 ec 08	 sub	 esp, 8
  00bd2	dd 1c 24	 fstp	 QWORD PTR [esp]
  00bd5	e8 00 00 00 00	 call	 _pow
  00bda	83 c4 10	 add	 esp, 16			; 00000010H
  00bdd	d9 9d 44 fb ff
	ff		 fstp	 DWORD PTR tv1280[ebp]
  00be3	d9 85 44 fb ff
	ff		 fld	 DWORD PTR tv1280[ebp]
  00be9	83 ec 08	 sub	 esp, 8
  00bec	dd 05 00 00 00
	00		 fld	 QWORD PTR __real@4000000000000000
  00bf2	dd 1c 24	 fstp	 QWORD PTR [esp]
  00bf5	d9 85 f8 fc ff
	ff		 fld	 DWORD PTR _dblCtrI$[ebp]
  00bfb	83 ec 08	 sub	 esp, 8
  00bfe	dd 1c 24	 fstp	 QWORD PTR [esp]
  00c01	dd 9d 3c fb ff
	ff		 fstp	 QWORD PTR tv1614[ebp]
  00c07	e8 00 00 00 00	 call	 _pow
  00c0c	83 c4 10	 add	 esp, 16			; 00000010H
  00c0f	d9 9d 38 fb ff
	ff		 fstp	 DWORD PTR tv1288[ebp]
  00c15	d9 85 38 fb ff
	ff		 fld	 DWORD PTR tv1288[ebp]
  00c1b	dc 85 3c fb ff
	ff		 fadd	 QWORD PTR tv1614[ebp]
  00c21	d9 9d 60 fc ff
	ff		 fstp	 DWORD PTR _dblAvgNoisePerBin$[ebp]

; 1828 : 	GoertzelRealImag(intNewSamples, Ptr, 480, 58 + dblTrialOffset / 25, &dblCtrR, &dblCtrI); //  nominal center -75 Hz

  00c27	8d 85 f8 fc ff
	ff		 lea	 eax, DWORD PTR _dblCtrI$[ebp]
  00c2d	50		 push	 eax
  00c2e	8d 8d 04 fd ff
	ff		 lea	 ecx, DWORD PTR _dblCtrR$[ebp]
  00c34	51		 push	 ecx
  00c35	d9 85 24 fc ff
	ff		 fld	 DWORD PTR _dblTrialOffset$[ebp]
  00c3b	dc 35 00 00 00
	00		 fdiv	 QWORD PTR __real@4039000000000000
  00c41	dc 05 00 00 00
	00		 fadd	 QWORD PTR __real@404d000000000000
  00c47	d9 9d 44 fb ff
	ff		 fstp	 DWORD PTR tv1294[ebp]
  00c4d	d9 85 44 fb ff
	ff		 fld	 DWORD PTR tv1294[ebp]
  00c53	51		 push	 ecx
  00c54	d9 1c 24	 fstp	 DWORD PTR [esp]
  00c57	68 e0 01 00 00	 push	 480			; 000001e0H
  00c5c	8b 95 6c fc ff
	ff		 mov	 edx, DWORD PTR _Ptr$[ebp]
  00c62	52		 push	 edx
  00c63	8b 45 08	 mov	 eax, DWORD PTR _intNewSamples$[ebp]
  00c66	50		 push	 eax
  00c67	e8 00 00 00 00	 call	 _GoertzelRealImag
  00c6c	83 c4 18	 add	 esp, 24			; 00000018H

; 1829 : 	dblAvgNoisePerBin += powf(dblCtrR, 2) + powf(dblCtrI, 2);

  00c6f	83 ec 08	 sub	 esp, 8
  00c72	dd 05 00 00 00
	00		 fld	 QWORD PTR __real@4000000000000000
  00c78	dd 1c 24	 fstp	 QWORD PTR [esp]
  00c7b	d9 85 04 fd ff
	ff		 fld	 DWORD PTR _dblCtrR$[ebp]
  00c81	83 ec 08	 sub	 esp, 8
  00c84	dd 1c 24	 fstp	 QWORD PTR [esp]
  00c87	e8 00 00 00 00	 call	 _pow
  00c8c	83 c4 10	 add	 esp, 16			; 00000010H
  00c8f	d9 9d 44 fb ff
	ff		 fstp	 DWORD PTR tv1307[ebp]
  00c95	d9 85 44 fb ff
	ff		 fld	 DWORD PTR tv1307[ebp]
  00c9b	83 ec 08	 sub	 esp, 8
  00c9e	dd 05 00 00 00
	00		 fld	 QWORD PTR __real@4000000000000000
  00ca4	dd 1c 24	 fstp	 QWORD PTR [esp]
  00ca7	d9 85 f8 fc ff
	ff		 fld	 DWORD PTR _dblCtrI$[ebp]
  00cad	83 ec 08	 sub	 esp, 8
  00cb0	dd 1c 24	 fstp	 QWORD PTR [esp]
  00cb3	dd 9d 3c fb ff
	ff		 fstp	 QWORD PTR tv1616[ebp]
  00cb9	e8 00 00 00 00	 call	 _pow
  00cbe	83 c4 10	 add	 esp, 16			; 00000010H
  00cc1	d9 9d 38 fb ff
	ff		 fstp	 DWORD PTR tv1315[ebp]
  00cc7	d9 85 38 fb ff
	ff		 fld	 DWORD PTR tv1315[ebp]
  00ccd	dc 85 3c fb ff
	ff		 fadd	 QWORD PTR tv1616[ebp]
  00cd3	d8 85 60 fc ff
	ff		 fadd	 DWORD PTR _dblAvgNoisePerBin$[ebp]
  00cd9	d9 9d 60 fc ff
	ff		 fstp	 DWORD PTR _dblAvgNoisePerBin$[ebp]

; 1830 : 	GoertzelRealImag(intNewSamples, Ptr, 480, 62 + dblTrialOffset / 25, &dblCtrR, &dblCtrI); //  nominal center -75 Hz

  00cdf	8d 85 f8 fc ff
	ff		 lea	 eax, DWORD PTR _dblCtrI$[ebp]
  00ce5	50		 push	 eax
  00ce6	8d 8d 04 fd ff
	ff		 lea	 ecx, DWORD PTR _dblCtrR$[ebp]
  00cec	51		 push	 ecx
  00ced	d9 85 24 fc ff
	ff		 fld	 DWORD PTR _dblTrialOffset$[ebp]
  00cf3	dc 35 00 00 00
	00		 fdiv	 QWORD PTR __real@4039000000000000
  00cf9	dc 05 00 00 00
	00		 fadd	 QWORD PTR __real@404f000000000000
  00cff	d9 9d 44 fb ff
	ff		 fstp	 DWORD PTR tv1321[ebp]
  00d05	d9 85 44 fb ff
	ff		 fld	 DWORD PTR tv1321[ebp]
  00d0b	51		 push	 ecx
  00d0c	d9 1c 24	 fstp	 DWORD PTR [esp]
  00d0f	68 e0 01 00 00	 push	 480			; 000001e0H
  00d14	8b 95 6c fc ff
	ff		 mov	 edx, DWORD PTR _Ptr$[ebp]
  00d1a	52		 push	 edx
  00d1b	8b 45 08	 mov	 eax, DWORD PTR _intNewSamples$[ebp]
  00d1e	50		 push	 eax
  00d1f	e8 00 00 00 00	 call	 _GoertzelRealImag
  00d24	83 c4 18	 add	 esp, 24			; 00000018H

; 1831 : 	dblAvgNoisePerBin += powf(dblCtrR, 2) + powf(dblCtrI, 2);

  00d27	83 ec 08	 sub	 esp, 8
  00d2a	dd 05 00 00 00
	00		 fld	 QWORD PTR __real@4000000000000000
  00d30	dd 1c 24	 fstp	 QWORD PTR [esp]
  00d33	d9 85 04 fd ff
	ff		 fld	 DWORD PTR _dblCtrR$[ebp]
  00d39	83 ec 08	 sub	 esp, 8
  00d3c	dd 1c 24	 fstp	 QWORD PTR [esp]
  00d3f	e8 00 00 00 00	 call	 _pow
  00d44	83 c4 10	 add	 esp, 16			; 00000010H
  00d47	d9 9d 44 fb ff
	ff		 fstp	 DWORD PTR tv1334[ebp]
  00d4d	d9 85 44 fb ff
	ff		 fld	 DWORD PTR tv1334[ebp]
  00d53	83 ec 08	 sub	 esp, 8
  00d56	dd 05 00 00 00
	00		 fld	 QWORD PTR __real@4000000000000000
  00d5c	dd 1c 24	 fstp	 QWORD PTR [esp]
  00d5f	d9 85 f8 fc ff
	ff		 fld	 DWORD PTR _dblCtrI$[ebp]
  00d65	83 ec 08	 sub	 esp, 8
  00d68	dd 1c 24	 fstp	 QWORD PTR [esp]
  00d6b	dd 9d 3c fb ff
	ff		 fstp	 QWORD PTR tv1618[ebp]
  00d71	e8 00 00 00 00	 call	 _pow
  00d76	83 c4 10	 add	 esp, 16			; 00000010H
  00d79	d9 9d 38 fb ff
	ff		 fstp	 DWORD PTR tv1342[ebp]
  00d7f	d9 85 38 fb ff
	ff		 fld	 DWORD PTR tv1342[ebp]
  00d85	dc 85 3c fb ff
	ff		 fadd	 QWORD PTR tv1618[ebp]
  00d8b	d8 85 60 fc ff
	ff		 fadd	 DWORD PTR _dblAvgNoisePerBin$[ebp]
  00d91	d9 9d 60 fc ff
	ff		 fstp	 DWORD PTR _dblAvgNoisePerBin$[ebp]

; 1832 : 	GoertzelRealImag(intNewSamples, Ptr, 480, 63 + dblTrialOffset / 25, &dblCtrR, &dblCtrI); //  nominal center -75 Hz 

  00d97	8d 85 f8 fc ff
	ff		 lea	 eax, DWORD PTR _dblCtrI$[ebp]
  00d9d	50		 push	 eax
  00d9e	8d 8d 04 fd ff
	ff		 lea	 ecx, DWORD PTR _dblCtrR$[ebp]
  00da4	51		 push	 ecx
  00da5	d9 85 24 fc ff
	ff		 fld	 DWORD PTR _dblTrialOffset$[ebp]
  00dab	dc 35 00 00 00
	00		 fdiv	 QWORD PTR __real@4039000000000000
  00db1	dc 05 00 00 00
	00		 fadd	 QWORD PTR __real@404f800000000000
  00db7	d9 9d 44 fb ff
	ff		 fstp	 DWORD PTR tv1348[ebp]
  00dbd	d9 85 44 fb ff
	ff		 fld	 DWORD PTR tv1348[ebp]
  00dc3	51		 push	 ecx
  00dc4	d9 1c 24	 fstp	 DWORD PTR [esp]
  00dc7	68 e0 01 00 00	 push	 480			; 000001e0H
  00dcc	8b 95 6c fc ff
	ff		 mov	 edx, DWORD PTR _Ptr$[ebp]
  00dd2	52		 push	 edx
  00dd3	8b 45 08	 mov	 eax, DWORD PTR _intNewSamples$[ebp]
  00dd6	50		 push	 eax
  00dd7	e8 00 00 00 00	 call	 _GoertzelRealImag
  00ddc	83 c4 18	 add	 esp, 24			; 00000018H

; 1833 : 	dblAvgNoisePerBin = 0.25f * (dblAvgNoisePerBin + (powf(dblCtrR, 2) + powf(dblCtrI, 2))); // average of 4 noise bins

  00ddf	83 ec 08	 sub	 esp, 8
  00de2	dd 05 00 00 00
	00		 fld	 QWORD PTR __real@4000000000000000
  00de8	dd 1c 24	 fstp	 QWORD PTR [esp]
  00deb	d9 85 04 fd ff
	ff		 fld	 DWORD PTR _dblCtrR$[ebp]
  00df1	83 ec 08	 sub	 esp, 8
  00df4	dd 1c 24	 fstp	 QWORD PTR [esp]
  00df7	e8 00 00 00 00	 call	 _pow
  00dfc	83 c4 10	 add	 esp, 16			; 00000010H
  00dff	d9 9d 44 fb ff
	ff		 fstp	 DWORD PTR tv1361[ebp]
  00e05	d9 85 44 fb ff
	ff		 fld	 DWORD PTR tv1361[ebp]
  00e0b	83 ec 08	 sub	 esp, 8
  00e0e	dd 05 00 00 00
	00		 fld	 QWORD PTR __real@4000000000000000
  00e14	dd 1c 24	 fstp	 QWORD PTR [esp]
  00e17	d9 85 f8 fc ff
	ff		 fld	 DWORD PTR _dblCtrI$[ebp]
  00e1d	83 ec 08	 sub	 esp, 8
  00e20	dd 1c 24	 fstp	 QWORD PTR [esp]
  00e23	dd 9d 3c fb ff
	ff		 fstp	 QWORD PTR tv1620[ebp]
  00e29	e8 00 00 00 00	 call	 _pow
  00e2e	83 c4 10	 add	 esp, 16			; 00000010H
  00e31	d9 9d 38 fb ff
	ff		 fstp	 DWORD PTR tv1369[ebp]
  00e37	d9 85 38 fb ff
	ff		 fld	 DWORD PTR tv1369[ebp]
  00e3d	dc 85 3c fb ff
	ff		 fadd	 QWORD PTR tv1620[ebp]
  00e43	d8 85 60 fc ff
	ff		 fadd	 DWORD PTR _dblAvgNoisePerBin$[ebp]
  00e49	dc 0d 00 00 00
	00		 fmul	 QWORD PTR __real@3fd0000000000000
  00e4f	d9 9d 60 fc ff
	ff		 fstp	 DWORD PTR _dblAvgNoisePerBin$[ebp]

; 1834 : 	dblLeftCar = 59 + dblTrialOffset / 25;  // the nominal positions of the two tone carriers based on the last computerd dblOffsetHz

  00e55	d9 85 24 fc ff
	ff		 fld	 DWORD PTR _dblTrialOffset$[ebp]
  00e5b	dc 35 00 00 00
	00		 fdiv	 QWORD PTR __real@4039000000000000
  00e61	dc 05 00 00 00
	00		 fadd	 QWORD PTR __real@404d800000000000
  00e67	d9 9d 34 fd ff
	ff		 fstp	 DWORD PTR _dblLeftCar$[ebp]

; 1835 : 	dblRightCar = 61 + dblTrialOffset / 25;

  00e6d	d9 85 24 fc ff
	ff		 fld	 DWORD PTR _dblTrialOffset$[ebp]
  00e73	dc 35 00 00 00
	00		 fdiv	 QWORD PTR __real@4039000000000000
  00e79	dc 05 00 00 00
	00		 fadd	 QWORD PTR __real@404e800000000000
  00e7f	d9 9d 28 fd ff
	ff		 fstp	 DWORD PTR _dblRightCar$[ebp]

; 1836 : 
; 1837 : 	GoertzelRealImag(intNewSamples, Ptr, 480, dblLeftCar, &dblCtrR, &dblCtrI); // LEFT carrier

  00e85	8d 85 f8 fc ff
	ff		 lea	 eax, DWORD PTR _dblCtrI$[ebp]
  00e8b	50		 push	 eax
  00e8c	8d 8d 04 fd ff
	ff		 lea	 ecx, DWORD PTR _dblCtrR$[ebp]
  00e92	51		 push	 ecx
  00e93	51		 push	 ecx
  00e94	d9 85 34 fd ff
	ff		 fld	 DWORD PTR _dblLeftCar$[ebp]
  00e9a	d9 1c 24	 fstp	 DWORD PTR [esp]
  00e9d	68 e0 01 00 00	 push	 480			; 000001e0H
  00ea2	8b 95 6c fc ff
	ff		 mov	 edx, DWORD PTR _Ptr$[ebp]
  00ea8	52		 push	 edx
  00ea9	8b 45 08	 mov	 eax, DWORD PTR _intNewSamples$[ebp]
  00eac	50		 push	 eax
  00ead	e8 00 00 00 00	 call	 _GoertzelRealImag
  00eb2	83 c4 18	 add	 esp, 24			; 00000018H

; 1838 : 	dblLeftP = powf(dblCtrR, 2) + powf(dblCtrI, 2);

  00eb5	83 ec 08	 sub	 esp, 8
  00eb8	dd 05 00 00 00
	00		 fld	 QWORD PTR __real@4000000000000000
  00ebe	dd 1c 24	 fstp	 QWORD PTR [esp]
  00ec1	d9 85 04 fd ff
	ff		 fld	 DWORD PTR _dblCtrR$[ebp]
  00ec7	83 ec 08	 sub	 esp, 8
  00eca	dd 1c 24	 fstp	 QWORD PTR [esp]
  00ecd	e8 00 00 00 00	 call	 _pow
  00ed2	83 c4 10	 add	 esp, 16			; 00000010H
  00ed5	d9 9d 44 fb ff
	ff		 fstp	 DWORD PTR tv1393[ebp]
  00edb	d9 85 44 fb ff
	ff		 fld	 DWORD PTR tv1393[ebp]
  00ee1	83 ec 08	 sub	 esp, 8
  00ee4	dd 05 00 00 00
	00		 fld	 QWORD PTR __real@4000000000000000
  00eea	dd 1c 24	 fstp	 QWORD PTR [esp]
  00eed	d9 85 f8 fc ff
	ff		 fld	 DWORD PTR _dblCtrI$[ebp]
  00ef3	83 ec 08	 sub	 esp, 8
  00ef6	dd 1c 24	 fstp	 QWORD PTR [esp]
  00ef9	dd 9d 3c fb ff
	ff		 fstp	 QWORD PTR tv1622[ebp]
  00eff	e8 00 00 00 00	 call	 _pow
  00f04	83 c4 10	 add	 esp, 16			; 00000010H
  00f07	d9 9d 38 fb ff
	ff		 fstp	 DWORD PTR tv1401[ebp]
  00f0d	d9 85 38 fb ff
	ff		 fld	 DWORD PTR tv1401[ebp]
  00f13	dc 85 3c fb ff
	ff		 fadd	 QWORD PTR tv1622[ebp]
  00f19	d9 9d e0 fc ff
	ff		 fstp	 DWORD PTR _dblLeftP$[ebp]

; 1839 : 	GoertzelRealImag(intNewSamples, Ptr, 480, dblRightCar, &dblCtrR, &dblCtrI); // Right carrier

  00f1f	8d 85 f8 fc ff
	ff		 lea	 eax, DWORD PTR _dblCtrI$[ebp]
  00f25	50		 push	 eax
  00f26	8d 8d 04 fd ff
	ff		 lea	 ecx, DWORD PTR _dblCtrR$[ebp]
  00f2c	51		 push	 ecx
  00f2d	51		 push	 ecx
  00f2e	d9 85 28 fd ff
	ff		 fld	 DWORD PTR _dblRightCar$[ebp]
  00f34	d9 1c 24	 fstp	 DWORD PTR [esp]
  00f37	68 e0 01 00 00	 push	 480			; 000001e0H
  00f3c	8b 95 6c fc ff
	ff		 mov	 edx, DWORD PTR _Ptr$[ebp]
  00f42	52		 push	 edx
  00f43	8b 45 08	 mov	 eax, DWORD PTR _intNewSamples$[ebp]
  00f46	50		 push	 eax
  00f47	e8 00 00 00 00	 call	 _GoertzelRealImag
  00f4c	83 c4 18	 add	 esp, 24			; 00000018H

; 1840 : 	dblRightP = powf(dblCtrR, 2) + powf(dblCtrI, 2);

  00f4f	83 ec 08	 sub	 esp, 8
  00f52	dd 05 00 00 00
	00		 fld	 QWORD PTR __real@4000000000000000
  00f58	dd 1c 24	 fstp	 QWORD PTR [esp]
  00f5b	d9 85 04 fd ff
	ff		 fld	 DWORD PTR _dblCtrR$[ebp]
  00f61	83 ec 08	 sub	 esp, 8
  00f64	dd 1c 24	 fstp	 QWORD PTR [esp]
  00f67	e8 00 00 00 00	 call	 _pow
  00f6c	83 c4 10	 add	 esp, 16			; 00000010H
  00f6f	d9 9d 44 fb ff
	ff		 fstp	 DWORD PTR tv1418[ebp]
  00f75	d9 85 44 fb ff
	ff		 fld	 DWORD PTR tv1418[ebp]
  00f7b	83 ec 08	 sub	 esp, 8
  00f7e	dd 05 00 00 00
	00		 fld	 QWORD PTR __real@4000000000000000
  00f84	dd 1c 24	 fstp	 QWORD PTR [esp]
  00f87	d9 85 f8 fc ff
	ff		 fld	 DWORD PTR _dblCtrI$[ebp]
  00f8d	83 ec 08	 sub	 esp, 8
  00f90	dd 1c 24	 fstp	 QWORD PTR [esp]
  00f93	dd 9d 3c fb ff
	ff		 fstp	 QWORD PTR tv1624[ebp]
  00f99	e8 00 00 00 00	 call	 _pow
  00f9e	83 c4 10	 add	 esp, 16			; 00000010H
  00fa1	d9 9d 38 fb ff
	ff		 fstp	 DWORD PTR tv1426[ebp]
  00fa7	d9 85 38 fb ff
	ff		 fld	 DWORD PTR tv1426[ebp]
  00fad	dc 85 3c fb ff
	ff		 fadd	 QWORD PTR tv1624[ebp]
  00fb3	d9 9d d4 fc ff
	ff		 fstp	 DWORD PTR _dblRightP$[ebp]

; 1841 : 
; 1842 : 	// the following rejects a single tone carrier but averages the two tones if ratio is < 2:1
; 1843 : 
; 1844 : 	if (dblLeftP > 2 * dblRightP)

  00fb9	d9 85 d4 fc ff
	ff		 fld	 DWORD PTR _dblRightP$[ebp]
  00fbf	dc 0d 00 00 00
	00		 fmul	 QWORD PTR __real@4000000000000000
  00fc5	d9 85 e0 fc ff
	ff		 fld	 DWORD PTR _dblLeftP$[ebp]
  00fcb	de d9		 fcompp
  00fcd	df e0		 fnstsw	 ax
  00fcf	f6 c4 41	 test	 ah, 65			; 00000041H
  00fd2	75 0e		 jne	 SHORT $LN14@SearchFor2

; 1845 : 		dblPowerEarly = dblRightP;

  00fd4	d9 85 d4 fc ff
	ff		 fld	 DWORD PTR _dblRightP$[ebp]
  00fda	d9 9d 18 fc ff
	ff		 fstp	 DWORD PTR _dblPowerEarly$[ebp]
  00fe0	eb 41		 jmp	 SHORT $LN11@SearchFor2
$LN14@SearchFor2:

; 1846 : 	else if (dblRightP > 2 * dblLeftP)

  00fe2	d9 85 e0 fc ff
	ff		 fld	 DWORD PTR _dblLeftP$[ebp]
  00fe8	dc 0d 00 00 00
	00		 fmul	 QWORD PTR __real@4000000000000000
  00fee	d9 85 d4 fc ff
	ff		 fld	 DWORD PTR _dblRightP$[ebp]
  00ff4	de d9		 fcompp
  00ff6	df e0		 fnstsw	 ax
  00ff8	f6 c4 41	 test	 ah, 65			; 00000041H
  00ffb	75 0e		 jne	 SHORT $LN12@SearchFor2

; 1847 : 		dblPowerEarly = dblLeftP;

  00ffd	d9 85 e0 fc ff
	ff		 fld	 DWORD PTR _dblLeftP$[ebp]
  01003	d9 9d 18 fc ff
	ff		 fstp	 DWORD PTR _dblPowerEarly$[ebp]

; 1848 : 	else

  01009	eb 18		 jmp	 SHORT $LN11@SearchFor2
$LN12@SearchFor2:

; 1849 : 		dblPowerEarly = (dblLeftP + dblRightP) * 0.5f; //simple average if radio < 2:1

  0100b	d9 85 e0 fc ff
	ff		 fld	 DWORD PTR _dblLeftP$[ebp]
  01011	d8 85 d4 fc ff
	ff		 fadd	 DWORD PTR _dblRightP$[ebp]
  01017	dc 0d 00 00 00
	00		 fmul	 QWORD PTR __real@3fe0000000000000
  0101d	d9 9d 18 fc ff
	ff		 fstp	 DWORD PTR _dblPowerEarly$[ebp]
$LN11@SearchFor2:

; 1850 : 
; 1851 : 	dblSNdBPwrEarly = 10 * log10f(dblPowerEarly / dblAvgNoisePerBin);

  01023	d9 85 18 fc ff
	ff		 fld	 DWORD PTR _dblPowerEarly$[ebp]
  01029	d8 b5 60 fc ff
	ff		 fdiv	 DWORD PTR _dblAvgNoisePerBin$[ebp]
  0102f	83 ec 08	 sub	 esp, 8
  01032	dd 1c 24	 fstp	 QWORD PTR [esp]
  01035	e8 00 00 00 00	 call	 _log10
  0103a	83 c4 08	 add	 esp, 8
  0103d	d9 9d 44 fb ff
	ff		 fstp	 DWORD PTR tv1448[ebp]
  01043	d9 85 44 fb ff
	ff		 fld	 DWORD PTR tv1448[ebp]
  01049	dc 0d 00 00 00
	00		 fmul	 QWORD PTR __real@4024000000000000
  0104f	d9 9d 0c fc ff
	ff		 fstp	 DWORD PTR _dblSNdBPwrEarly$[ebp]

; 1852 : 
; 1853 : 	// End of Early leader detect test code 
; 1854 : 
; 1855 : 
; 1856 : 	// The following thresholding requires the first half and the entire leader have a minium S:N for detection.
; 1857 : 	// These calibration values yield a sensitivity of ~ - 10 dB S:N (@ 3KHZ noise BW) with a Squelch=5, and 2 dB per squelch change
; 1858 : 	// The threshold for early is 1 dB lower than the threshold for the full 4 symbol leader . (compenseated for the 3 dB bandwidth difference)
; 1859 : 
; 1860 : 	if (dblSNdBPwr > (4 + Squelch) && (dblSNdBPwrEarly > (1 + Squelch))) // The -4 value comes from - (3+1) making early threshold 1 dB lower (after 3 dB compensation for bandwidth)

  01055	a1 00 00 00 00	 mov	 eax, DWORD PTR _Squelch
  0105a	83 c0 04	 add	 eax, 4
  0105d	89 85 44 fb ff
	ff		 mov	 DWORD PTR tv1454[ebp], eax
  01063	db 85 44 fb ff
	ff		 fild	 DWORD PTR tv1454[ebp]
  01069	d9 05 00 00 00
	00		 fld	 DWORD PTR _dblSNdBPwr
  0106f	de d9		 fcompp
  01071	df e0		 fnstsw	 ax
  01073	f6 c4 41	 test	 ah, 65			; 00000041H
  01076	0f 85 4c 03 00
	00		 jne	 $LN10@SearchFor2
  0107c	a1 00 00 00 00	 mov	 eax, DWORD PTR _Squelch
  01081	83 c0 01	 add	 eax, 1
  01084	89 85 44 fb ff
	ff		 mov	 DWORD PTR tv1460[ebp], eax
  0108a	db 85 44 fb ff
	ff		 fild	 DWORD PTR tv1460[ebp]
  01090	d9 85 0c fc ff
	ff		 fld	 DWORD PTR _dblSNdBPwrEarly$[ebp]
  01096	de d9		 fcompp
  01098	df e0		 fnstsw	 ax
  0109a	f6 c4 41	 test	 ah, 65			; 00000041H
  0109d	0f 85 25 03 00
	00		 jne	 $LN10@SearchFor2

; 1861 : 	{
; 1862 : 		WriteDebugLog("Fine Search S:N= %f dB, Prior S:N= %f", dblSNdBPwr,dblSNdBPwr_1);

  010a3	d9 05 00 00 00
	00		 fld	 DWORD PTR _dblSNdBPwr_1
  010a9	83 ec 08	 sub	 esp, 8
  010ac	dd 1c 24	 fstp	 QWORD PTR [esp]
  010af	d9 05 00 00 00
	00		 fld	 DWORD PTR _dblSNdBPwr
  010b5	83 ec 08	 sub	 esp, 8
  010b8	dd 1c 24	 fstp	 QWORD PTR [esp]
  010bb	68 00 00 00 00	 push	 OFFSET ??_C@_0CG@FHFOAMLN@Fine?5Search?5S?3N?$DN?5?$CFf?5dB?0?5Prior?5S?3@
  010c0	e8 00 00 00 00	 call	 _WriteDebugLog
  010c5	83 c4 14	 add	 esp, 20			; 00000014H

; 1863 : 
; 1864 : //		if (dblCoarseOffset < 999)
; 1865 : //			WriteDebugLog("  CourseOffsetHz= %f Coarse Pwr S:N= %f dB", dblCoarseOffset, dblCoarsePwrSN);
; 1866 : 
; 1867 : 		// Calculate the interpolation based on the left of the two tones
; 1868 : 
; 1869 : 		dblBinInterpLeft = QuinnSpectralPeakLocator(dblLeftR[0], dblLeftI[0], dblLeftR[1], dblLeftI[1], dblLeftR[2], dblLeftI[2]);

  010c8	51		 push	 ecx
  010c9	d9 85 b4 fc ff
	ff		 fld	 DWORD PTR _dblLeftI$[ebp+8]
  010cf	d9 1c 24	 fstp	 DWORD PTR [esp]
  010d2	51		 push	 ecx
  010d3	d9 85 c8 fc ff
	ff		 fld	 DWORD PTR _dblLeftR$[ebp+8]
  010d9	d9 1c 24	 fstp	 DWORD PTR [esp]
  010dc	51		 push	 ecx
  010dd	d9 85 b0 fc ff
	ff		 fld	 DWORD PTR _dblLeftI$[ebp+4]
  010e3	d9 1c 24	 fstp	 DWORD PTR [esp]
  010e6	51		 push	 ecx
  010e7	d9 85 c4 fc ff
	ff		 fld	 DWORD PTR _dblLeftR$[ebp+4]
  010ed	d9 1c 24	 fstp	 DWORD PTR [esp]
  010f0	51		 push	 ecx
  010f1	d9 85 ac fc ff
	ff		 fld	 DWORD PTR _dblLeftI$[ebp]
  010f7	d9 1c 24	 fstp	 DWORD PTR [esp]
  010fa	51		 push	 ecx
  010fb	d9 85 c0 fc ff
	ff		 fld	 DWORD PTR _dblLeftR$[ebp]
  01101	d9 1c 24	 fstp	 DWORD PTR [esp]
  01104	e8 00 00 00 00	 call	 _QuinnSpectralPeakLocator
  01109	83 c4 18	 add	 esp, 24			; 00000018H
  0110c	d9 9d 1c fd ff
	ff		 fstp	 DWORD PTR _dblBinInterpLeft$[ebp]

; 1870 : 		
; 1871 : 		// And the right of the two tones
; 1872 : 
; 1873 : 		dblBinInterpRight = QuinnSpectralPeakLocator(dblRightR[0], dblRightI[0], dblRightR[1], dblRightI[1], dblRightR[2], dblRightI[2]);

  01112	51		 push	 ecx
  01113	d9 85 8c fc ff
	ff		 fld	 DWORD PTR _dblRightI$[ebp+8]
  01119	d9 1c 24	 fstp	 DWORD PTR [esp]
  0111c	51		 push	 ecx
  0111d	d9 85 a0 fc ff
	ff		 fld	 DWORD PTR _dblRightR$[ebp+8]
  01123	d9 1c 24	 fstp	 DWORD PTR [esp]
  01126	51		 push	 ecx
  01127	d9 85 88 fc ff
	ff		 fld	 DWORD PTR _dblRightI$[ebp+4]
  0112d	d9 1c 24	 fstp	 DWORD PTR [esp]
  01130	51		 push	 ecx
  01131	d9 85 9c fc ff
	ff		 fld	 DWORD PTR _dblRightR$[ebp+4]
  01137	d9 1c 24	 fstp	 DWORD PTR [esp]
  0113a	51		 push	 ecx
  0113b	d9 85 84 fc ff
	ff		 fld	 DWORD PTR _dblRightI$[ebp]
  01141	d9 1c 24	 fstp	 DWORD PTR [esp]
  01144	51		 push	 ecx
  01145	d9 85 98 fc ff
	ff		 fld	 DWORD PTR _dblRightR$[ebp]
  0114b	d9 1c 24	 fstp	 DWORD PTR [esp]
  0114e	e8 00 00 00 00	 call	 _QuinnSpectralPeakLocator
  01153	83 c4 18	 add	 esp, 24			; 00000018H
  01156	d9 9d 10 fd ff
	ff		 fstp	 DWORD PTR _dblBinInterpRight$[ebp]

; 1874 : 		WriteDebugLog(" QSPL Left= %f  QSPL Right= %f", dblBinInterpLeft, dblBinInterpRight);

  0115c	d9 85 10 fd ff
	ff		 fld	 DWORD PTR _dblBinInterpRight$[ebp]
  01162	83 ec 08	 sub	 esp, 8
  01165	dd 1c 24	 fstp	 QWORD PTR [esp]
  01168	d9 85 1c fd ff
	ff		 fld	 DWORD PTR _dblBinInterpLeft$[ebp]
  0116e	83 ec 08	 sub	 esp, 8
  01171	dd 1c 24	 fstp	 QWORD PTR [esp]
  01174	68 00 00 00 00	 push	 OFFSET ??_C@_0BP@FCBHJODI@?5QSPL?5Left?$DN?5?$CFf?5?5QSPL?5Right?$DN?5?$CFf?$AA@
  01179	e8 00 00 00 00	 call	 _WriteDebugLog
  0117e	83 c4 14	 add	 esp, 20			; 00000014H

; 1875 :         
; 1876 : 		if (fabsf(dblBinInterpLeft + dblBinInterpRight) < 1.0) // sanity check for the interpolators 

  01181	d9 85 1c fd ff
	ff		 fld	 DWORD PTR _dblBinInterpLeft$[ebp]
  01187	d8 85 10 fd ff
	ff		 fadd	 DWORD PTR _dblBinInterpRight$[ebp]
  0118d	83 ec 08	 sub	 esp, 8
  01190	dd 1c 24	 fstp	 QWORD PTR [esp]
  01193	e8 00 00 00 00	 call	 _fabs
  01198	83 c4 08	 add	 esp, 8
  0119b	d9 9d 44 fb ff
	ff		 fstp	 DWORD PTR tv1506[ebp]
  011a1	d9 85 44 fb ff
	ff		 fld	 DWORD PTR tv1506[ebp]
  011a7	dc 1d 00 00 00
	00		 fcomp	 QWORD PTR __real@3ff0000000000000
  011ad	df e0		 fnstsw	 ax
  011af	f6 c4 05	 test	 ah, 5
  011b2	0f 8a d3 01 00
	00		 jp	 $LN9@SearchFor2

; 1877 : 		{
; 1878 : 			if (dblBinInterpLeft + dblBinInterpLeft > 0)  // consider different bounding below

  011b8	d9 85 1c fd ff
	ff		 fld	 DWORD PTR _dblBinInterpLeft$[ebp]
  011be	d8 85 1c fd ff
	ff		 fadd	 DWORD PTR _dblBinInterpLeft$[ebp]
  011c4	dc 1d 00 00 00
	00		 fcomp	 QWORD PTR __real@0000000000000000
  011ca	df e0		 fnstsw	 ax
  011cc	f6 c4 41	 test	 ah, 65			; 00000041H
  011cf	75 58		 jne	 SHORT $LN8@SearchFor2

; 1879 : 				*dblOffsetHz = dblTrialOffset + min((dblBinInterpLeft + dblBinInterpRight) * 6.25f, 3); // average left and right, adjustment bounded to +/- 3Hz max

  011d1	d9 85 1c fd ff
	ff		 fld	 DWORD PTR _dblBinInterpLeft$[ebp]
  011d7	d8 85 10 fd ff
	ff		 fadd	 DWORD PTR _dblBinInterpRight$[ebp]
  011dd	dc 0d 00 00 00
	00		 fmul	 QWORD PTR __real@4019000000000000
  011e3	dc 1d 00 00 00
	00		 fcomp	 QWORD PTR __real@4008000000000000
  011e9	df e0		 fnstsw	 ax
  011eb	f6 c4 05	 test	 ah, 5
  011ee	7a 1a		 jp	 SHORT $LN42@SearchFor2
  011f0	d9 85 1c fd ff
	ff		 fld	 DWORD PTR _dblBinInterpLeft$[ebp]
  011f6	d8 85 10 fd ff
	ff		 fadd	 DWORD PTR _dblBinInterpRight$[ebp]
  011fc	dc 0d 00 00 00
	00		 fmul	 QWORD PTR __real@4019000000000000
  01202	dd 9d 40 fb ff
	ff		 fstp	 QWORD PTR tv830[ebp]
  01208	eb 0c		 jmp	 SHORT $LN43@SearchFor2
$LN42@SearchFor2:
  0120a	dd 05 00 00 00
	00		 fld	 QWORD PTR __real@4008000000000000
  01210	dd 9d 40 fb ff
	ff		 fstp	 QWORD PTR tv830[ebp]
$LN43@SearchFor2:
  01216	d9 85 24 fc ff
	ff		 fld	 DWORD PTR _dblTrialOffset$[ebp]
  0121c	dc 85 40 fb ff
	ff		 fadd	 QWORD PTR tv830[ebp]
  01222	8b 45 10	 mov	 eax, DWORD PTR _dblOffsetHz$[ebp]
  01225	d9 18		 fstp	 DWORD PTR [eax]

; 1880 : 			else

  01227	eb 56		 jmp	 SHORT $LN7@SearchFor2
$LN8@SearchFor2:

; 1881 : 				*dblOffsetHz = dblTrialOffset + max((dblBinInterpLeft + dblBinInterpRight) * 6.25f, -3);

  01229	d9 85 1c fd ff
	ff		 fld	 DWORD PTR _dblBinInterpLeft$[ebp]
  0122f	d8 85 10 fd ff
	ff		 fadd	 DWORD PTR _dblBinInterpRight$[ebp]
  01235	dc 0d 00 00 00
	00		 fmul	 QWORD PTR __real@4019000000000000
  0123b	dc 1d 00 00 00
	00		 fcomp	 QWORD PTR __real@c008000000000000
  01241	df e0		 fnstsw	 ax
  01243	f6 c4 41	 test	 ah, 65			; 00000041H
  01246	75 1a		 jne	 SHORT $LN44@SearchFor2
  01248	d9 85 1c fd ff
	ff		 fld	 DWORD PTR _dblBinInterpLeft$[ebp]
  0124e	d8 85 10 fd ff
	ff		 fadd	 DWORD PTR _dblBinInterpRight$[ebp]
  01254	dc 0d 00 00 00
	00		 fmul	 QWORD PTR __real@4019000000000000
  0125a	dd 9d 40 fb ff
	ff		 fstp	 QWORD PTR tv847[ebp]
  01260	eb 0c		 jmp	 SHORT $LN45@SearchFor2
$LN44@SearchFor2:
  01262	dd 05 00 00 00
	00		 fld	 QWORD PTR __real@c008000000000000
  01268	dd 9d 40 fb ff
	ff		 fstp	 QWORD PTR tv847[ebp]
$LN45@SearchFor2:
  0126e	d9 85 24 fc ff
	ff		 fld	 DWORD PTR _dblTrialOffset$[ebp]
  01274	dc 85 40 fb ff
	ff		 fadd	 QWORD PTR tv847[ebp]
  0127a	8b 45 10	 mov	 eax, DWORD PTR _dblOffsetHz$[ebp]
  0127d	d9 18		 fstp	 DWORD PTR [eax]
$LN7@SearchFor2:

; 1882 : 
; 1883 : 			// Capture power for debugging ...note: convert to 3 KHz noise bandwidth from 25Hz or 12.Hz for reporting consistancy.
; 1884 : 	
; 1885 : 			sprintf(strDecodeCapture, "Leader; S:N(3KHz) Early= %f dB, Full %f dB, Offset= %f Hz: ", dblSNdBPwrEarly - 20.8, dblSNdBPwr  - 23.8, *dblOffsetHz);

  0127f	8b 45 10	 mov	 eax, DWORD PTR _dblOffsetHz$[ebp]
  01282	d9 00		 fld	 DWORD PTR [eax]
  01284	83 ec 08	 sub	 esp, 8
  01287	dd 1c 24	 fstp	 QWORD PTR [esp]
  0128a	d9 05 00 00 00
	00		 fld	 DWORD PTR _dblSNdBPwr
  01290	dc 25 00 00 00
	00		 fsub	 QWORD PTR __real@4037cccccccccccd
  01296	83 ec 08	 sub	 esp, 8
  01299	dd 1c 24	 fstp	 QWORD PTR [esp]
  0129c	d9 85 0c fc ff
	ff		 fld	 DWORD PTR _dblSNdBPwrEarly$[ebp]
  012a2	dc 25 00 00 00
	00		 fsub	 QWORD PTR __real@4034cccccccccccd
  012a8	83 ec 08	 sub	 esp, 8
  012ab	dd 1c 24	 fstp	 QWORD PTR [esp]
  012ae	68 00 00 00 00	 push	 OFFSET ??_C@_0DM@CHGGENKN@Leader?$DL?5S?3N?$CI3KHz?$CJ?5Early?$DN?5?$CFf?5dB?0?5@
  012b3	68 00 00 00 00	 push	 OFFSET _strDecodeCapture
  012b8	e8 00 00 00 00	 call	 _sprintf
  012bd	83 c4 20	 add	 esp, 32			; 00000020H

; 1886 : 
; 1887 : 			dttStartRmtLeaderMeasure = Now;

  012c0	e8 00 00 00 00	 call	 _getTicks
  012c5	a3 00 00 00 00	 mov	 DWORD PTR _dttStartRmtLeaderMeasure, eax

; 1888 : 			blnLeaderDetected = TRUE;

  012ca	c7 05 00 00 00
	00 01 00 00 00	 mov	 DWORD PTR _blnLeaderDetected, 1

; 1889 : 
; 1890 : 			if (AccumulateStats)

  012d4	83 3d 00 00 00
	00 00		 cmp	 DWORD PTR _AccumulateStats, 0
  012db	74 39		 je	 SHORT $LN6@SearchFor2

; 1891 : 			{              
; 1892 : 				dblLeaderSNAvg = ((dblLeaderSNAvg * intLeaderDetects) + dblSNdBPwr) / (1 + intLeaderDetects); 

  012dd	db 05 00 00 00
	00		 fild	 DWORD PTR _intLeaderDetects
  012e3	d8 0d 00 00 00
	00		 fmul	 DWORD PTR _dblLeaderSNAvg
  012e9	d8 05 00 00 00
	00		 fadd	 DWORD PTR _dblSNdBPwr
  012ef	a1 00 00 00 00	 mov	 eax, DWORD PTR _intLeaderDetects
  012f4	83 c0 01	 add	 eax, 1
  012f7	89 85 44 fb ff
	ff		 mov	 DWORD PTR tv1547[ebp], eax
  012fd	da b5 44 fb ff
	ff		 fidiv	 DWORD PTR tv1547[ebp]
  01303	d9 1d 00 00 00
	00		 fstp	 DWORD PTR _dblLeaderSNAvg

; 1893 : 				intLeaderDetects += 1;

  01309	a1 00 00 00 00	 mov	 eax, DWORD PTR _intLeaderDetects
  0130e	83 c0 01	 add	 eax, 1
  01311	a3 00 00 00 00	 mov	 DWORD PTR _intLeaderDetects, eax
$LN6@SearchFor2:

; 1894 : 			}
; 1895 : 			dblNCOFreq = 3000 + *dblOffsetHz; // Set the NCO frequency and phase inc for mixing         

  01316	8b 45 10	 mov	 eax, DWORD PTR _dblOffsetHz$[ebp]
  01319	d9 00		 fld	 DWORD PTR [eax]
  0131b	dc 05 00 00 00
	00		 fadd	 QWORD PTR __real@40a7700000000000
  01321	d9 1d 00 00 00
	00		 fstp	 DWORD PTR _dblNCOFreq

; 1896 : 			dblNCOPhaseInc = dbl2Pi * dblNCOFreq / 12000;

  01327	d9 05 00 00 00
	00		 fld	 DWORD PTR _dbl2Pi
  0132d	d8 0d 00 00 00
	00		 fmul	 DWORD PTR _dblNCOFreq
  01333	dc 35 00 00 00
	00		 fdiv	 QWORD PTR __real@40c7700000000000
  01339	d9 1d 00 00 00
	00		 fstp	 DWORD PTR _dblNCOPhaseInc

; 1897 : 		
; 1898 : 			Ptr = Ptr + 240; // advance 1 symbol to avoid any noise in start ' optimize?

  0133f	8b 85 6c fc ff
	ff		 mov	 eax, DWORD PTR _Ptr$[ebp]
  01345	05 f0 00 00 00	 add	 eax, 240		; 000000f0H
  0134a	89 85 6c fc ff
	ff		 mov	 DWORD PTR _Ptr$[ebp], eax

; 1899 :                     
; 1900 : 			State = AcquireSymbolSync;

  01350	c7 05 00 00 00
	00 01 00 00 00	 mov	 DWORD PTR _State, 1

; 1901 : 			blnLeaderDetected = TRUE;

  0135a	c7 05 00 00 00
	00 01 00 00 00	 mov	 DWORD PTR _blnLeaderDetected, 1

; 1902 :             *intSN = dblSNdBPwr - 23.8; // 23.8dB accomodates ratio of 3Kz BW:12.5 Hz BW (10Log 3000/12.5 = 23.8)

  01364	d9 05 00 00 00
	00		 fld	 DWORD PTR _dblSNdBPwr
  0136a	dc 25 00 00 00
	00		 fsub	 QWORD PTR __real@4037cccccccccccd
  01370	e8 00 00 00 00	 call	 __ftol2_sse
  01375	8b 4d 14	 mov	 ecx, DWORD PTR _intSN$[ebp]
  01378	89 01		 mov	 DWORD PTR [ecx], eax

; 1903 : 			dttStartRmtLeaderMeasure = Now;

  0137a	e8 00 00 00 00	 call	 _getTicks
  0137f	a3 00 00 00 00	 mov	 DWORD PTR _dttStartRmtLeaderMeasure, eax

; 1904 : 			return TRUE;

  01384	b8 01 00 00 00	 mov	 eax, 1
  01389	eb 76		 jmp	 SHORT $LN3@SearchFor2
$LN9@SearchFor2:

; 1905 : 		}
; 1906 : 
; 1907 : 		if (SlowCPU)

  0138b	83 3d 00 00 00
	00 00		 cmp	 DWORD PTR _SlowCPU, 0
  01392	74 13		 je	 SHORT $LN5@SearchFor2

; 1908 : 			Ptr += 480; // advance pointer 2 symbols (40 ms) ' reduced CPU loading

  01394	8b 85 6c fc ff
	ff		 mov	 eax, DWORD PTR _Ptr$[ebp]
  0139a	05 e0 01 00 00	 add	 eax, 480		; 000001e0H
  0139f	89 85 6c fc ff
	ff		 mov	 DWORD PTR _Ptr$[ebp], eax

; 1909 : 		else

  013a5	eb 11		 jmp	 SHORT $LN4@SearchFor2
$LN5@SearchFor2:

; 1910 : 			Ptr += 240; // advance pointer 1 symbol (20 ms)

  013a7	8b 85 6c fc ff
	ff		 mov	 eax, DWORD PTR _Ptr$[ebp]
  013ad	05 f0 00 00 00	 add	 eax, 240		; 000000f0H
  013b2	89 85 6c fc ff
	ff		 mov	 DWORD PTR _Ptr$[ebp], eax
$LN4@SearchFor2:

; 1911 : 
; 1912 : 		blnLeaderDetected = FALSE;   

  013b8	c7 05 00 00 00
	00 00 00 00 00	 mov	 DWORD PTR _blnLeaderDetected, 0

; 1913 : 		return FALSE;

  013c2	33 c0		 xor	 eax, eax
  013c4	eb 3b		 jmp	 SHORT $LN3@SearchFor2

; 1914 : 	}
; 1915 : 	else

  013c6	eb 39		 jmp	 SHORT $LN3@SearchFor2
$LN10@SearchFor2:

; 1916 : 	{
; 1917 : 		if (SlowCPU)

  013c8	83 3d 00 00 00
	00 00		 cmp	 DWORD PTR _SlowCPU, 0
  013cf	74 13		 je	 SHORT $LN2@SearchFor2

; 1918 : 			Ptr += 480; // advance pointer 2 symbols (40 ms) ' reduced CPU loading

  013d1	8b 85 6c fc ff
	ff		 mov	 eax, DWORD PTR _Ptr$[ebp]
  013d7	05 e0 01 00 00	 add	 eax, 480		; 000001e0H
  013dc	89 85 6c fc ff
	ff		 mov	 DWORD PTR _Ptr$[ebp], eax

; 1919 : 		else

  013e2	eb 11		 jmp	 SHORT $LN1@SearchFor2
$LN2@SearchFor2:

; 1920 : 			Ptr += 240; // advance pointer 1 symbol (20 ms)

  013e4	8b 85 6c fc ff
	ff		 mov	 eax, DWORD PTR _Ptr$[ebp]
  013ea	05 f0 00 00 00	 add	 eax, 240		; 000000f0H
  013ef	89 85 6c fc ff
	ff		 mov	 DWORD PTR _Ptr$[ebp], eax
$LN1@SearchFor2:

; 1921 : 
; 1922 : 		blnLeaderDetected = FALSE;

  013f5	c7 05 00 00 00
	00 00 00 00 00	 mov	 DWORD PTR _blnLeaderDetected, 0

; 1923 : 		return FALSE;

  013ff	33 c0		 xor	 eax, eax
$LN3@SearchFor2:

; 1924 : 	}
; 1925 : }	

  01401	52		 push	 edx
  01402	8b cd		 mov	 ecx, ebp
  01404	50		 push	 eax
  01405	8d 15 00 00 00
	00		 lea	 edx, DWORD PTR $LN56@SearchFor2
  0140b	e8 00 00 00 00	 call	 @_RTC_CheckStackVars@8
  01410	58		 pop	 eax
  01411	5a		 pop	 edx
  01412	5f		 pop	 edi
  01413	5e		 pop	 esi
  01414	5b		 pop	 ebx
  01415	81 c4 c8 04 00
	00		 add	 esp, 1224		; 000004c8H
  0141b	3b ec		 cmp	 ebp, esp
  0141d	e8 00 00 00 00	 call	 __RTC_CheckEsp
  01422	8b e5		 mov	 esp, ebp
  01424	5d		 pop	 ebp
  01425	c3		 ret	 0
  01426	8b ff		 npad	 2
$LN56@SearchFor2:
  01428	09 00 00 00	 DD	 9
  0142c	00 00 00 00	 DD	 $LN55@SearchFor2
$LN55@SearchFor2:
  01430	48 ff ff ff	 DD	 -184			; ffffff48H
  01434	b4 00 00 00	 DD	 180			; 000000b4H
  01438	00 00 00 00	 DD	 $LN46@SearchFor2
  0143c	8c fe ff ff	 DD	 -372			; fffffe8cH
  01440	b4 00 00 00	 DD	 180			; 000000b4H
  01444	00 00 00 00	 DD	 $LN47@SearchFor2
  01448	d0 fd ff ff	 DD	 -560			; fffffdd0H
  0144c	b4 00 00 00	 DD	 180			; 000000b4H
  01450	00 00 00 00	 DD	 $LN48@SearchFor2
  01454	04 fd ff ff	 DD	 -764			; fffffd04H
  01458	04 00 00 00	 DD	 4
  0145c	00 00 00 00	 DD	 $LN49@SearchFor2
  01460	f8 fc ff ff	 DD	 -776			; fffffcf8H
  01464	04 00 00 00	 DD	 4
  01468	00 00 00 00	 DD	 $LN50@SearchFor2
  0146c	c0 fc ff ff	 DD	 -832			; fffffcc0H
  01470	0c 00 00 00	 DD	 12			; 0000000cH
  01474	00 00 00 00	 DD	 $LN51@SearchFor2
  01478	ac fc ff ff	 DD	 -852			; fffffcacH
  0147c	0c 00 00 00	 DD	 12			; 0000000cH
  01480	00 00 00 00	 DD	 $LN52@SearchFor2
  01484	98 fc ff ff	 DD	 -872			; fffffc98H
  01488	0c 00 00 00	 DD	 12			; 0000000cH
  0148c	00 00 00 00	 DD	 $LN53@SearchFor2
  01490	84 fc ff ff	 DD	 -892			; fffffc84H
  01494	0c 00 00 00	 DD	 12			; 0000000cH
  01498	00 00 00 00	 DD	 $LN54@SearchFor2
$LN54@SearchFor2:
  0149c	64		 DB	 100			; 00000064H
  0149d	62		 DB	 98			; 00000062H
  0149e	6c		 DB	 108			; 0000006cH
  0149f	52		 DB	 82			; 00000052H
  014a0	69		 DB	 105			; 00000069H
  014a1	67		 DB	 103			; 00000067H
  014a2	68		 DB	 104			; 00000068H
  014a3	74		 DB	 116			; 00000074H
  014a4	49		 DB	 73			; 00000049H
  014a5	00		 DB	 0
$LN53@SearchFor2:
  014a6	64		 DB	 100			; 00000064H
  014a7	62		 DB	 98			; 00000062H
  014a8	6c		 DB	 108			; 0000006cH
  014a9	52		 DB	 82			; 00000052H
  014aa	69		 DB	 105			; 00000069H
  014ab	67		 DB	 103			; 00000067H
  014ac	68		 DB	 104			; 00000068H
  014ad	74		 DB	 116			; 00000074H
  014ae	52		 DB	 82			; 00000052H
  014af	00		 DB	 0
$LN52@SearchFor2:
  014b0	64		 DB	 100			; 00000064H
  014b1	62		 DB	 98			; 00000062H
  014b2	6c		 DB	 108			; 0000006cH
  014b3	4c		 DB	 76			; 0000004cH
  014b4	65		 DB	 101			; 00000065H
  014b5	66		 DB	 102			; 00000066H
  014b6	74		 DB	 116			; 00000074H
  014b7	49		 DB	 73			; 00000049H
  014b8	00		 DB	 0
$LN51@SearchFor2:
  014b9	64		 DB	 100			; 00000064H
  014ba	62		 DB	 98			; 00000062H
  014bb	6c		 DB	 108			; 0000006cH
  014bc	4c		 DB	 76			; 0000004cH
  014bd	65		 DB	 101			; 00000065H
  014be	66		 DB	 102			; 00000066H
  014bf	74		 DB	 116			; 00000074H
  014c0	52		 DB	 82			; 00000052H
  014c1	00		 DB	 0
$LN50@SearchFor2:
  014c2	64		 DB	 100			; 00000064H
  014c3	62		 DB	 98			; 00000062H
  014c4	6c		 DB	 108			; 0000006cH
  014c5	43		 DB	 67			; 00000043H
  014c6	74		 DB	 116			; 00000074H
  014c7	72		 DB	 114			; 00000072H
  014c8	49		 DB	 73			; 00000049H
  014c9	00		 DB	 0
$LN49@SearchFor2:
  014ca	64		 DB	 100			; 00000064H
  014cb	62		 DB	 98			; 00000062H
  014cc	6c		 DB	 108			; 0000006cH
  014cd	43		 DB	 67			; 00000043H
  014ce	74		 DB	 116			; 00000074H
  014cf	72		 DB	 114			; 00000072H
  014d0	52		 DB	 82			; 00000052H
  014d1	00		 DB	 0
$LN48@SearchFor2:
  014d2	64		 DB	 100			; 00000064H
  014d3	62		 DB	 98			; 00000062H
  014d4	6c		 DB	 108			; 0000006cH
  014d5	4d		 DB	 77			; 0000004dH
  014d6	61		 DB	 97			; 00000061H
  014d7	67		 DB	 103			; 00000067H
  014d8	00		 DB	 0
$LN47@SearchFor2:
  014d9	64		 DB	 100			; 00000064H
  014da	62		 DB	 98			; 00000062H
  014db	6c		 DB	 108			; 0000006cH
  014dc	47		 DB	 71			; 00000047H
  014dd	6f		 DB	 111			; 0000006fH
  014de	65		 DB	 101			; 00000065H
  014df	72		 DB	 114			; 00000072H
  014e0	74		 DB	 116			; 00000074H
  014e1	7a		 DB	 122			; 0000007aH
  014e2	65		 DB	 101			; 00000065H
  014e3	6c		 DB	 108			; 0000006cH
  014e4	49		 DB	 73			; 00000049H
  014e5	6d		 DB	 109			; 0000006dH
  014e6	61		 DB	 97			; 00000061H
  014e7	67		 DB	 103			; 00000067H
  014e8	00		 DB	 0
$LN46@SearchFor2:
  014e9	64		 DB	 100			; 00000064H
  014ea	62		 DB	 98			; 00000062H
  014eb	6c		 DB	 108			; 0000006cH
  014ec	47		 DB	 71			; 00000047H
  014ed	6f		 DB	 111			; 0000006fH
  014ee	65		 DB	 101			; 00000065H
  014ef	72		 DB	 114			; 00000072H
  014f0	74		 DB	 116			; 00000074H
  014f1	7a		 DB	 122			; 0000007aH
  014f2	65		 DB	 101			; 00000065H
  014f3	6c		 DB	 108			; 0000006cH
  014f4	52		 DB	 82			; 00000052H
  014f5	65		 DB	 101			; 00000065H
  014f6	61		 DB	 97			; 00000061H
  014f7	6c		 DB	 108			; 0000006cH
  014f8	00		 DB	 0
_SearchFor2ToneLeader2 ENDP
_TEXT	ENDS
PUBLIC	??_C@_0DF@FIAELFIB@?$FLAcquire2ToneLeaderSymbolFraming@ ; `string'
PUBLIC	__real@400921fb00000000
PUBLIC	__real@41f00000
PUBLIC	_EnvelopeCorrelator
PUBLIC	__real@459c4000
EXTRN	_intLeaderSyncs:DWORD
EXTRN	_atan2:PROC
EXTRN	__RTC_UninitUse:PROC
;	COMDAT ??_C@_0DF@FIAELFIB@?$FLAcquire2ToneLeaderSymbolFraming@
CONST	SEGMENT
??_C@_0DF@FIAELFIB@?$FLAcquire2ToneLeaderSymbolFraming@ DB '[Acquire2Tone'
	DB	'LeaderSymbolFraming] intIatMinError= %d', 00H ; `string'
CONST	ENDS
;	COMDAT __real@400921fb00000000
CONST	SEGMENT
__real@400921fb00000000 DQ 0400921fb00000000r	; 3.14159
CONST	ENDS
;	COMDAT __real@41f00000
CONST	SEGMENT
__real@41f00000 DD 041f00000r			; 30
CONST	ENDS
;	COMDAT __real@459c4000
CONST	SEGMENT
__real@459c4000 DD 0459c4000r			; 5000
; Function compile flags: /Odtp /RTCsu /ZI
CONST	ENDS
;	COMDAT _Acquire2ToneLeaderSymbolFraming
_TEXT	SEGMENT
tv170 = -348						; size = 4
tv182 = -344						; size = 8
tv158 = -340						; size = 4
$T7637 = -329						; size = 1
_i$ = -128						; size = 4
_intJatPeak$ = -116					; size = 4
_intAbsPeak$ = -104					; size = 4
_dblPhaseAtMinErr$ = -92				; size = 4
_intIatMinErr$ = -80					; size = 4
_dblMinAbsPhErr$ = -68					; size = 4
_dblAbsPhErr$ = -56					; size = 4
_intLocalPtr$ = -44					; size = 4
_dblImag$ = -32						; size = 4
_dblReal$ = -20						; size = 4
_dblCarPh$ = -8						; size = 4
_Acquire2ToneLeaderSymbolFraming PROC			; COMDAT

; 1932 : {

  00000	55		 push	 ebp
  00001	8b ec		 mov	 ebp, esp
  00003	81 ec 5c 01 00
	00		 sub	 esp, 348		; 0000015cH
  00009	53		 push	 ebx
  0000a	56		 push	 esi
  0000b	57		 push	 edi
  0000c	8d bd a4 fe ff
	ff		 lea	 edi, DWORD PTR [ebp-348]
  00012	b9 57 00 00 00	 mov	 ecx, 87			; 00000057H
  00017	b8 cc cc cc cc	 mov	 eax, -858993460		; ccccccccH
  0001c	f3 ab		 rep stosd
  0001e	c6 85 b7 fe ff
	ff 00		 mov	 BYTE PTR $T7637[ebp], 0

; 1933 : 	float dblCarPh;
; 1934 : 	float dblReal, dblImag;
; 1935 : 	int intLocalPtr = intMFSReadPtr;  // try advancing one symbol to minimize initial startup errors 

  00025	a1 00 00 00 00	 mov	 eax, DWORD PTR _intMFSReadPtr
  0002a	89 45 d4	 mov	 DWORD PTR _intLocalPtr$[ebp], eax

; 1936 : 	float dblAbsPhErr;
; 1937 : 	float dblMinAbsPhErr = 5000;	 // initialize to an excessive value

  0002d	d9 05 00 00 00
	00		 fld	 DWORD PTR __real@459c4000
  00033	d9 5d bc	 fstp	 DWORD PTR _dblMinAbsPhErr$[ebp]

; 1938 : 	int intIatMinErr;
; 1939 : 	float dblPhaseAtMinErr;
; 1940 : 	int intAbsPeak = 0;

  00036	c7 45 98 00 00
	00 00		 mov	 DWORD PTR _intAbsPeak$[ebp], 0

; 1941 : 	int intJatPeak = 0;

  0003d	c7 45 8c 00 00
	00 00		 mov	 DWORD PTR _intJatPeak$[ebp], 0

; 1942 : 	int i;
; 1943 : 
; 1944 : 	// Use Phase of 1500 Hz leader  to establish symbol framing. Nominal phase is 0 or 180 degrees
; 1945 : 
; 1946 : 	if ((intFilteredMixedSamplesLength - intLocalPtr) < 860)

  00044	a1 00 00 00 00	 mov	 eax, DWORD PTR _intFilteredMixedSamplesLength
  00049	2b 45 d4	 sub	 eax, DWORD PTR _intLocalPtr$[ebp]
  0004c	3d 5c 03 00 00	 cmp	 eax, 860		; 0000035cH
  00051	7d 07		 jge	 SHORT $LN6@Acquire2To

; 1947 : 		return FALSE;			// not enough

  00053	33 c0		 xor	 eax, eax
  00055	e9 5e 01 00 00	 jmp	 $LN7@Acquire2To
$LN6@Acquire2To:

; 1948 : 	
; 1949 : 	intLocalPtr = intMFSReadPtr + EnvelopeCorrelator(); // should position the pointer at the symbol boundary

  0005a	e8 00 00 00 00	 call	 _EnvelopeCorrelator
  0005f	03 05 00 00 00
	00		 add	 eax, DWORD PTR _intMFSReadPtr
  00065	89 45 d4	 mov	 DWORD PTR _intLocalPtr$[ebp], eax

; 1950 : 
; 1951 : 	// Check 2 samples either side of the intLocalPtr for minimum phase error.(closest to Pi or -Pi) 
; 1952 : 	// Could be as much as .4 Radians (~70 degrees) depending on sampling positions.
; 1953 :    
; 1954 : 	for (i = -2; i <= 2; i++)	 // 0 To 0 '  -2 To 2 ' for just 5 samples

  00068	c7 45 80 fe ff
	ff ff		 mov	 DWORD PTR _i$[ebp], -2	; fffffffeH
  0006f	eb 09		 jmp	 SHORT $LN5@Acquire2To
$LN4@Acquire2To:
  00071	8b 45 80	 mov	 eax, DWORD PTR _i$[ebp]
  00074	83 c0 01	 add	 eax, 1
  00077	89 45 80	 mov	 DWORD PTR _i$[ebp], eax
$LN5@Acquire2To:
  0007a	83 7d 80 02	 cmp	 DWORD PTR _i$[ebp], 2
  0007e	0f 8f c7 00 00
	00		 jg	 $LN3@Acquire2To

; 1955 : 	{
; 1956 : 		// using the full symbol seemed to work best on weak Signals (0 to -5 dB S/N) June 15, 2015
; 1957 : 	
; 1958 : 		GoertzelRealImag(intFilteredMixedSamples, intLocalPtr + i, 120, 30, &dblReal, &dblImag); // Carrier at 1500 Hz nominal Positioning 

  00084	8d 45 e0	 lea	 eax, DWORD PTR _dblImag$[ebp]
  00087	50		 push	 eax
  00088	8d 4d ec	 lea	 ecx, DWORD PTR _dblReal$[ebp]
  0008b	51		 push	 ecx
  0008c	51		 push	 ecx
  0008d	d9 05 00 00 00
	00		 fld	 DWORD PTR __real@41f00000
  00093	d9 1c 24	 fstp	 DWORD PTR [esp]
  00096	6a 78		 push	 120			; 00000078H
  00098	8b 55 d4	 mov	 edx, DWORD PTR _intLocalPtr$[ebp]
  0009b	03 55 80	 add	 edx, DWORD PTR _i$[ebp]
  0009e	52		 push	 edx
  0009f	68 00 00 00 00	 push	 OFFSET _intFilteredMixedSamples
  000a4	e8 00 00 00 00	 call	 _GoertzelRealImag
  000a9	83 c4 18	 add	 esp, 24			; 00000018H

; 1959 : 		dblCarPh = atan2f(dblImag, dblReal);

  000ac	d9 45 ec	 fld	 DWORD PTR _dblReal$[ebp]
  000af	83 ec 08	 sub	 esp, 8
  000b2	dd 1c 24	 fstp	 QWORD PTR [esp]
  000b5	d9 45 e0	 fld	 DWORD PTR _dblImag$[ebp]
  000b8	83 ec 08	 sub	 esp, 8
  000bb	dd 1c 24	 fstp	 QWORD PTR [esp]
  000be	e8 00 00 00 00	 call	 _atan2
  000c3	83 c4 10	 add	 esp, 16			; 00000010H
  000c6	d9 9d ac fe ff
	ff		 fstp	 DWORD PTR tv158[ebp]
  000cc	d9 85 ac fe ff
	ff		 fld	 DWORD PTR tv158[ebp]
  000d2	d9 5d f8	 fstp	 DWORD PTR _dblCarPh$[ebp]

; 1960 : 		dblAbsPhErr = fabsf(dblCarPh - (ceil(dblCarPh / M_PI) * M_PI));

  000d5	d9 45 f8	 fld	 DWORD PTR _dblCarPh$[ebp]
  000d8	d9 45 f8	 fld	 DWORD PTR _dblCarPh$[ebp]
  000db	dc 35 00 00 00
	00		 fdiv	 QWORD PTR __real@400921fb00000000
  000e1	83 ec 08	 sub	 esp, 8
  000e4	dd 1c 24	 fstp	 QWORD PTR [esp]
  000e7	dd 9d a8 fe ff
	ff		 fstp	 QWORD PTR tv182[ebp]
  000ed	e8 00 00 00 00	 call	 _ceil
  000f2	83 c4 08	 add	 esp, 8
  000f5	dc 0d 00 00 00
	00		 fmul	 QWORD PTR __real@400921fb00000000
  000fb	dc ad a8 fe ff
	ff		 fsubr	 QWORD PTR tv182[ebp]
  00101	83 ec 08	 sub	 esp, 8
  00104	dd 1c 24	 fstp	 QWORD PTR [esp]
  00107	e8 00 00 00 00	 call	 _fabs
  0010c	83 c4 08	 add	 esp, 8
  0010f	d9 9d a4 fe ff
	ff		 fstp	 DWORD PTR tv170[ebp]
  00115	d9 85 a4 fe ff
	ff		 fld	 DWORD PTR tv170[ebp]
  0011b	d9 5d c8	 fstp	 DWORD PTR _dblAbsPhErr$[ebp]

; 1961 : 		if (dblAbsPhErr < dblMinAbsPhErr)

  0011e	d9 45 c8	 fld	 DWORD PTR _dblAbsPhErr$[ebp]
  00121	d9 45 bc	 fld	 DWORD PTR _dblMinAbsPhErr$[ebp]
  00124	de d9		 fcompp
  00126	df e0		 fnstsw	 ax
  00128	f6 c4 41	 test	 ah, 65			; 00000041H
  0012b	75 19		 jne	 SHORT $LN2@Acquire2To

; 1962 : 		{
; 1963 : 			dblMinAbsPhErr = dblAbsPhErr;

  0012d	d9 45 c8	 fld	 DWORD PTR _dblAbsPhErr$[ebp]
  00130	d9 5d bc	 fstp	 DWORD PTR _dblMinAbsPhErr$[ebp]

; 1964 : 			intIatMinErr = i;

  00133	c6 85 b7 fe ff
	ff 01		 mov	 BYTE PTR $T7637[ebp], 1
  0013a	8b 45 80	 mov	 eax, DWORD PTR _i$[ebp]
  0013d	89 45 b0	 mov	 DWORD PTR _intIatMinErr$[ebp], eax

; 1965 : 			dblPhaseAtMinErr = dblCarPh;

  00140	d9 45 f8	 fld	 DWORD PTR _dblCarPh$[ebp]
  00143	d9 5d a4	 fstp	 DWORD PTR _dblPhaseAtMinErr$[ebp]
$LN2@Acquire2To:

; 1966 : 		}     
; 1967 : 	}

  00146	e9 26 ff ff ff	 jmp	 $LN4@Acquire2To
$LN3@Acquire2To:

; 1968 : 
; 1969 : 	intMFSReadPtr = intLocalPtr + intIatMinErr;

  0014b	80 bd b7 fe ff
	ff 00		 cmp	 BYTE PTR $T7637[ebp], 0
  00152	75 0d		 jne	 SHORT $LN9@Acquire2To
  00154	68 00 00 00 00	 push	 OFFSET $LN10@Acquire2To
  00159	e8 00 00 00 00	 call	 __RTC_UninitUse
  0015e	83 c4 04	 add	 esp, 4
$LN9@Acquire2To:
  00161	8b 45 d4	 mov	 eax, DWORD PTR _intLocalPtr$[ebp]
  00164	03 45 b0	 add	 eax, DWORD PTR _intIatMinErr$[ebp]
  00167	a3 00 00 00 00	 mov	 DWORD PTR _intMFSReadPtr, eax

; 1970 : 	WriteDebugLog("[Acquire2ToneLeaderSymbolFraming] intIatMinError= %d", intIatMinErr);

  0016c	80 bd b7 fe ff
	ff 00		 cmp	 BYTE PTR $T7637[ebp], 0
  00173	75 0d		 jne	 SHORT $LN11@Acquire2To
  00175	68 00 00 00 00	 push	 OFFSET $LN10@Acquire2To
  0017a	e8 00 00 00 00	 call	 __RTC_UninitUse
  0017f	83 c4 04	 add	 esp, 4
$LN11@Acquire2To:
  00182	8b 45 b0	 mov	 eax, DWORD PTR _intIatMinErr$[ebp]
  00185	50		 push	 eax
  00186	68 00 00 00 00	 push	 OFFSET ??_C@_0DF@FIAELFIB@?$FLAcquire2ToneLeaderSymbolFraming@
  0018b	e8 00 00 00 00	 call	 _WriteDebugLog
  00190	83 c4 08	 add	 esp, 8

; 1971 : 	State = AcquireFrameSync;

  00193	c7 05 00 00 00
	00 02 00 00 00	 mov	 DWORD PTR _State, 2

; 1972 : 
; 1973 : 	if (AccumulateStats)

  0019d	83 3d 00 00 00
	00 00		 cmp	 DWORD PTR _AccumulateStats, 0
  001a4	74 0d		 je	 SHORT $LN1@Acquire2To

; 1974 : 		intLeaderSyncs++;

  001a6	a1 00 00 00 00	 mov	 eax, DWORD PTR _intLeaderSyncs
  001ab	83 c0 01	 add	 eax, 1
  001ae	a3 00 00 00 00	 mov	 DWORD PTR _intLeaderSyncs, eax
$LN1@Acquire2To:

; 1975 : 
; 1976 : 	//Debug.WriteLine("   [Acquire2ToneLeaderSymbolSync] iAtMinError = " & intIatMinErr.ToString & "   Ptr = " & intMFSReadPtr.ToString & "  MinAbsPhErr = " & Format(dblMinAbsPhErr, "#.00"))
; 1977 : 	//Debug.WriteLine("   [Acquire2ToneLeaderSymbolSync]      Ph1500 @ MinErr = " & Format(dblPhaseAtMinErr, "#.000"))
; 1978 :         
; 1979 : 	//strDecodeCapture &= "Framing; iAtMinErr=" & intIatMinErr.ToString & ", Ptr=" & intMFSReadPtr.ToString & ", MinAbsPhErr=" & Format(dblMinAbsPhErr, "#.00") & ": "
; 1980 : 
; 1981 : 	return TRUE;

  001b3	b8 01 00 00 00	 mov	 eax, 1
$LN7@Acquire2To:

; 1982 : }

  001b8	52		 push	 edx
  001b9	8b cd		 mov	 ecx, ebp
  001bb	50		 push	 eax
  001bc	8d 15 00 00 00
	00		 lea	 edx, DWORD PTR $LN15@Acquire2To
  001c2	e8 00 00 00 00	 call	 @_RTC_CheckStackVars@8
  001c7	58		 pop	 eax
  001c8	5a		 pop	 edx
  001c9	5f		 pop	 edi
  001ca	5e		 pop	 esi
  001cb	5b		 pop	 ebx
  001cc	81 c4 5c 01 00
	00		 add	 esp, 348		; 0000015cH
  001d2	3b ec		 cmp	 ebp, esp
  001d4	e8 00 00 00 00	 call	 __RTC_CheckEsp
  001d9	8b e5		 mov	 esp, ebp
  001db	5d		 pop	 ebp
  001dc	c3		 ret	 0
  001dd	8d 49 00	 npad	 3
$LN15@Acquire2To:
  001e0	02 00 00 00	 DD	 2
  001e4	00 00 00 00	 DD	 $LN14@Acquire2To
$LN14@Acquire2To:
  001e8	ec ff ff ff	 DD	 -20			; ffffffecH
  001ec	04 00 00 00	 DD	 4
  001f0	00 00 00 00	 DD	 $LN12@Acquire2To
  001f4	e0 ff ff ff	 DD	 -32			; ffffffe0H
  001f8	04 00 00 00	 DD	 4
  001fc	00 00 00 00	 DD	 $LN13@Acquire2To
$LN13@Acquire2To:
  00200	64		 DB	 100			; 00000064H
  00201	62		 DB	 98			; 00000062H
  00202	6c		 DB	 108			; 0000006cH
  00203	49		 DB	 73			; 00000049H
  00204	6d		 DB	 109			; 0000006dH
  00205	61		 DB	 97			; 00000061H
  00206	67		 DB	 103			; 00000067H
  00207	00		 DB	 0
$LN12@Acquire2To:
  00208	64		 DB	 100			; 00000064H
  00209	62		 DB	 98			; 00000062H
  0020a	6c		 DB	 108			; 0000006cH
  0020b	52		 DB	 82			; 00000052H
  0020c	65		 DB	 101			; 00000065H
  0020d	61		 DB	 97			; 00000061H
  0020e	6c		 DB	 108			; 0000006cH
  0020f	00		 DB	 0
$LN10@Acquire2To:
  00210	69		 DB	 105			; 00000069H
  00211	6e		 DB	 110			; 0000006eH
  00212	74		 DB	 116			; 00000074H
  00213	49		 DB	 73			; 00000049H
  00214	61		 DB	 97			; 00000061H
  00215	74		 DB	 116			; 00000074H
  00216	4d		 DB	 77			; 0000004dH
  00217	69		 DB	 105			; 00000069H
  00218	6e		 DB	 110			; 0000006eH
  00219	45		 DB	 69			; 00000045H
  0021a	72		 DB	 114			; 00000072H
  0021b	72		 DB	 114			; 00000072H
  0021c	00		 DB	 0
_Acquire2ToneLeaderSymbolFraming ENDP
_TEXT	ENDS
PUBLIC	??_C@_0CN@KELJKAOD@EnvelopeCorrelator?5CorMax?3MaxPro@ ; `string'
PUBLIC	__real@4044000000000000
PUBLIC	__real@49742400
PUBLIC	__real@c9742400
PUBLIC	__$ArrayPad$
EXTRN	_int50BaudTwoToneLeaderTemplate:BYTE
;	COMDAT ??_C@_0CN@KELJKAOD@EnvelopeCorrelator?5CorMax?3MaxPro@
CONST	SEGMENT
??_C@_0CN@KELJKAOD@EnvelopeCorrelator?5CorMax?3MaxPro@ DB 'EnvelopeCorrel'
	DB	'ator CorMax:MaxProd= %f  J= %d', 00H	; `string'
CONST	ENDS
;	COMDAT __real@4044000000000000
CONST	SEGMENT
__real@4044000000000000 DQ 04044000000000000r	; 40
CONST	ENDS
;	COMDAT __real@49742400
CONST	SEGMENT
__real@49742400 DD 049742400r			; 1e+006
CONST	ENDS
;	COMDAT __real@c9742400
CONST	SEGMENT
__real@c9742400 DD 0c9742400r			; -1e+006
; Function compile flags: /Odtp /RTCsu /ZI
CONST	ENDS
;	COMDAT _EnvelopeCorrelator
_TEXT	SEGMENT
tv199 = -1756						; size = 4
tv189 = -1756						; size = 4
tv183 = -1756						; size = 4
tv173 = -1756						; size = 4
tv167 = -1756						; size = 4
_int75HzFiltered$ = -1556				; size = 1440
_j$ = -108						; size = 4
_i$ = -96						; size = 4
_dblCorMaxProduct$ = -84				; size = 4
_dblCorProduct$ = -72					; size = 4
_dblCorSum$ = -60					; size = 4
_intJatMin$ = -48					; size = 4
_intJatMax$ = -36					; size = 4
_dblCorMin$ = -24					; size = 4
_dblCorMax$ = -12					; size = 4
__$ArrayPad$ = -4					; size = 4
_EnvelopeCorrelator PROC				; COMDAT

; 1987 : {

  00000	55		 push	 ebp
  00001	8b ec		 mov	 ebp, esp
  00003	81 ec dc 06 00
	00		 sub	 esp, 1756		; 000006dcH
  00009	53		 push	 ebx
  0000a	56		 push	 esi
  0000b	57		 push	 edi
  0000c	8d bd 24 f9 ff
	ff		 lea	 edi, DWORD PTR [ebp-1756]
  00012	b9 b7 01 00 00	 mov	 ecx, 439		; 000001b7H
  00017	b8 cc cc cc cc	 mov	 eax, -858993460		; ccccccccH
  0001c	f3 ab		 rep stosd
  0001e	a1 00 00 00 00	 mov	 eax, DWORD PTR ___security_cookie
  00023	33 c5		 xor	 eax, ebp
  00025	89 45 fc	 mov	 DWORD PTR __$ArrayPad$[ebp], eax

; 1988 : 	// Compute the two symbol correlation with the Two tone leader template.
; 1989 : 	// slide the correlation one sample and repeat up to 240 steps 
; 1990 : 	// keep the point of maximum or minimum correlation...and use this to identify the the symbol start. 
; 1991 : 
; 1992 : 	float dblCorMax  = -1000000.0f;		//  Preset to excessive values

  00028	d9 05 00 00 00
	00		 fld	 DWORD PTR __real@c9742400
  0002e	d9 5d f4	 fstp	 DWORD PTR _dblCorMax$[ebp]

; 1993 : 	float dblCorMin  = 1000000.0f;

  00031	d9 05 00 00 00
	00		 fld	 DWORD PTR __real@49742400
  00037	d9 5d e8	 fstp	 DWORD PTR _dblCorMin$[ebp]

; 1994 : 	int intJatMax = 0, intJatMin = 0;

  0003a	c7 45 dc 00 00
	00 00		 mov	 DWORD PTR _intJatMax$[ebp], 0
  00041	c7 45 d0 00 00
	00 00		 mov	 DWORD PTR _intJatMin$[ebp], 0

; 1995 : 	float dblCorSum, dblCorProduct, dblCorMaxProduct = 0.0;

  00048	d9 ee		 fldz
  0004a	d9 5d ac	 fstp	 DWORD PTR _dblCorMaxProduct$[ebp]

; 1996 : 	int i,j;
; 1997 : 	short int75HzFiltered[720];
; 1998 : 
; 1999 : 	if (intFilteredMixedSamplesLength < intMFSReadPtr + 720)

  0004d	a1 00 00 00 00	 mov	 eax, DWORD PTR _intMFSReadPtr
  00052	05 d0 02 00 00	 add	 eax, 720		; 000002d0H
  00057	39 05 00 00 00
	00		 cmp	 DWORD PTR _intFilteredMixedSamplesLength, eax
  0005d	7d 08		 jge	 SHORT $LN11@EnvelopeCo

; 2000 : 		return -1;

  0005f	83 c8 ff	 or	 eax, -1
  00062	e9 6f 01 00 00	 jmp	 $LN1@EnvelopeCo
$LN11@EnvelopeCo:

; 2001 : 	
; 2002 : 	Filter75Hz(int75HzFiltered, TRUE, 720); // This filter appears to help reduce avg decode distance (10 frames) by about 14%-19% at WGN-5 May 3, 2015

  00067	68 d0 02 00 00	 push	 720			; 000002d0H
  0006c	6a 01		 push	 1
  0006e	8d 85 ec f9 ff
	ff		 lea	 eax, DWORD PTR _int75HzFiltered$[ebp]
  00074	50		 push	 eax
  00075	e8 00 00 00 00	 call	 _Filter75Hz
  0007a	83 c4 0c	 add	 esp, 12			; 0000000cH

; 2003 : 	
; 2004 : 	for (j = 0; j < 360; j++)		// Over 1.5 symbols

  0007d	c7 45 94 00 00
	00 00		 mov	 DWORD PTR _j$[ebp], 0
  00084	eb 09		 jmp	 SHORT $LN10@EnvelopeCo
$LN9@EnvelopeCo:
  00086	8b 45 94	 mov	 eax, DWORD PTR _j$[ebp]
  00089	83 c0 01	 add	 eax, 1
  0008c	89 45 94	 mov	 DWORD PTR _j$[ebp], eax
$LN10@EnvelopeCo:
  0008f	81 7d 94 68 01
	00 00		 cmp	 DWORD PTR _j$[ebp], 360	; 00000168H
  00096	0f 8d fe 00 00
	00		 jge	 $LN8@EnvelopeCo

; 2005 : 	{
; 2006 : 		dblCorSum = 0;

  0009c	d9 ee		 fldz
  0009e	d9 5d c4	 fstp	 DWORD PTR _dblCorSum$[ebp]

; 2007 : 		for (i = 0; i < 240; i++)	 // over 1 50 baud symbol (may be able to reduce to 1 symbol)

  000a1	c7 45 a0 00 00
	00 00		 mov	 DWORD PTR _i$[ebp], 0
  000a8	eb 09		 jmp	 SHORT $LN7@EnvelopeCo
$LN6@EnvelopeCo:
  000aa	8b 45 a0	 mov	 eax, DWORD PTR _i$[ebp]
  000ad	83 c0 01	 add	 eax, 1
  000b0	89 45 a0	 mov	 DWORD PTR _i$[ebp], eax
$LN7@EnvelopeCo:
  000b3	81 7d a0 f0 00
	00 00		 cmp	 DWORD PTR _i$[ebp], 240	; 000000f0H
  000ba	0f 8d 86 00 00
	00		 jge	 $LN5@EnvelopeCo

; 2008 : 		{
; 2009 : 			dblCorProduct = int50BaudTwoToneLeaderTemplate[i] * int75HzFiltered[120 + i + j]; // note 120 accomdates filter delay of 120 samples

  000c0	8b 45 a0	 mov	 eax, DWORD PTR _i$[ebp]
  000c3	0f bf 0c 45 00
	00 00 00	 movsx	 ecx, WORD PTR _int50BaudTwoToneLeaderTemplate[eax*2]
  000cb	8b 55 94	 mov	 edx, DWORD PTR _j$[ebp]
  000ce	8b 45 a0	 mov	 eax, DWORD PTR _i$[ebp]
  000d1	8d 54 10 78	 lea	 edx, DWORD PTR [eax+edx+120]
  000d5	0f bf 84 55 ec
	f9 ff ff	 movsx	 eax, WORD PTR _int75HzFiltered$[ebp+edx*2]
  000dd	0f af c8	 imul	 ecx, eax
  000e0	89 8d 24 f9 ff
	ff		 mov	 DWORD PTR tv167[ebp], ecx
  000e6	db 85 24 f9 ff
	ff		 fild	 DWORD PTR tv167[ebp]
  000ec	d9 5d b8	 fstp	 DWORD PTR _dblCorProduct$[ebp]

; 2010 : 			dblCorSum += dblCorProduct;

  000ef	d9 45 c4	 fld	 DWORD PTR _dblCorSum$[ebp]
  000f2	d8 45 b8	 fadd	 DWORD PTR _dblCorProduct$[ebp]
  000f5	d9 5d c4	 fstp	 DWORD PTR _dblCorSum$[ebp]

; 2011 :             if (fabsf(dblCorProduct) > dblCorMaxProduct)

  000f8	d9 45 b8	 fld	 DWORD PTR _dblCorProduct$[ebp]
  000fb	83 ec 08	 sub	 esp, 8
  000fe	dd 1c 24	 fstp	 QWORD PTR [esp]
  00101	e8 00 00 00 00	 call	 _fabs
  00106	83 c4 08	 add	 esp, 8
  00109	d9 9d 24 f9 ff
	ff		 fstp	 DWORD PTR tv173[ebp]
  0010f	d9 85 24 f9 ff
	ff		 fld	 DWORD PTR tv173[ebp]
  00115	d9 45 ac	 fld	 DWORD PTR _dblCorMaxProduct$[ebp]
  00118	de d9		 fcompp
  0011a	df e0		 fnstsw	 ax
  0011c	f6 c4 05	 test	 ah, 5
  0011f	7a 20		 jp	 SHORT $LN4@EnvelopeCo

; 2012 : 				dblCorMaxProduct = fabsf(dblCorProduct);

  00121	d9 45 b8	 fld	 DWORD PTR _dblCorProduct$[ebp]
  00124	83 ec 08	 sub	 esp, 8
  00127	dd 1c 24	 fstp	 QWORD PTR [esp]
  0012a	e8 00 00 00 00	 call	 _fabs
  0012f	83 c4 08	 add	 esp, 8
  00132	d9 9d 24 f9 ff
	ff		 fstp	 DWORD PTR tv183[ebp]
  00138	d9 85 24 f9 ff
	ff		 fld	 DWORD PTR tv183[ebp]
  0013e	d9 5d ac	 fstp	 DWORD PTR _dblCorMaxProduct$[ebp]
$LN4@EnvelopeCo:

; 2013 : 		}

  00141	e9 64 ff ff ff	 jmp	 $LN6@EnvelopeCo
$LN5@EnvelopeCo:

; 2014 : 
; 2015 : 		if (fabsf(dblCorSum) > dblCorMax)

  00146	d9 45 c4	 fld	 DWORD PTR _dblCorSum$[ebp]
  00149	83 ec 08	 sub	 esp, 8
  0014c	dd 1c 24	 fstp	 QWORD PTR [esp]
  0014f	e8 00 00 00 00	 call	 _fabs
  00154	83 c4 08	 add	 esp, 8
  00157	d9 9d 24 f9 ff
	ff		 fstp	 DWORD PTR tv189[ebp]
  0015d	d9 85 24 f9 ff
	ff		 fld	 DWORD PTR tv189[ebp]
  00163	d9 45 f4	 fld	 DWORD PTR _dblCorMax$[ebp]
  00166	de d9		 fcompp
  00168	df e0		 fnstsw	 ax
  0016a	f6 c4 05	 test	 ah, 5
  0016d	7a 26		 jp	 SHORT $LN3@EnvelopeCo

; 2016 : 		{
; 2017 : 			dblCorMax = fabsf(dblCorSum);

  0016f	d9 45 c4	 fld	 DWORD PTR _dblCorSum$[ebp]
  00172	83 ec 08	 sub	 esp, 8
  00175	dd 1c 24	 fstp	 QWORD PTR [esp]
  00178	e8 00 00 00 00	 call	 _fabs
  0017d	83 c4 08	 add	 esp, 8
  00180	d9 9d 24 f9 ff
	ff		 fstp	 DWORD PTR tv199[ebp]
  00186	d9 85 24 f9 ff
	ff		 fld	 DWORD PTR tv199[ebp]
  0018c	d9 5d f4	 fstp	 DWORD PTR _dblCorMax$[ebp]

; 2018 : 			intJatMax = j;

  0018f	8b 45 94	 mov	 eax, DWORD PTR _j$[ebp]
  00192	89 45 dc	 mov	 DWORD PTR _intJatMax$[ebp], eax
$LN3@EnvelopeCo:

; 2019 : 		}		
; 2020 : 	}

  00195	e9 ec fe ff ff	 jmp	 $LN9@EnvelopeCo
$LN8@EnvelopeCo:

; 2021 : 
; 2022 : 	if (dblCorMax > 40 * dblCorMaxProduct)

  0019a	d9 45 ac	 fld	 DWORD PTR _dblCorMaxProduct$[ebp]
  0019d	dc 0d 00 00 00
	00		 fmul	 QWORD PTR __real@4044000000000000
  001a3	d9 45 f4	 fld	 DWORD PTR _dblCorMax$[ebp]
  001a6	de d9		 fcompp
  001a8	df e0		 fnstsw	 ax
  001aa	f6 c4 41	 test	 ah, 65			; 00000041H
  001ad	75 24		 jne	 SHORT $LN2@EnvelopeCo

; 2023 : 	{
; 2024 : 		WriteDebugLog("EnvelopeCorrelator CorMax:MaxProd= %f  J= %d", dblCorMax / dblCorMaxProduct, intJatMax);

  001af	8b 45 dc	 mov	 eax, DWORD PTR _intJatMax$[ebp]
  001b2	50		 push	 eax
  001b3	d9 45 f4	 fld	 DWORD PTR _dblCorMax$[ebp]
  001b6	d8 75 ac	 fdiv	 DWORD PTR _dblCorMaxProduct$[ebp]
  001b9	83 ec 08	 sub	 esp, 8
  001bc	dd 1c 24	 fstp	 QWORD PTR [esp]
  001bf	68 00 00 00 00	 push	 OFFSET ??_C@_0CN@KELJKAOD@EnvelopeCorrelator?5CorMax?3MaxPro@
  001c4	e8 00 00 00 00	 call	 _WriteDebugLog
  001c9	83 c4 10	 add	 esp, 16			; 00000010H

; 2025 : 		return intJatMax;

  001cc	8b 45 dc	 mov	 eax, DWORD PTR _intJatMax$[ebp]
  001cf	eb 05		 jmp	 SHORT $LN1@EnvelopeCo

; 2026 : 	}
; 2027 : 	else

  001d1	eb 03		 jmp	 SHORT $LN1@EnvelopeCo
$LN2@EnvelopeCo:

; 2028 : 		return -1;

  001d3	83 c8 ff	 or	 eax, -1
$LN1@EnvelopeCo:

; 2029 : }

  001d6	52		 push	 edx
  001d7	8b cd		 mov	 ecx, ebp
  001d9	50		 push	 eax
  001da	8d 15 00 00 00
	00		 lea	 edx, DWORD PTR $LN16@EnvelopeCo
  001e0	e8 00 00 00 00	 call	 @_RTC_CheckStackVars@8
  001e5	58		 pop	 eax
  001e6	5a		 pop	 edx
  001e7	5f		 pop	 edi
  001e8	5e		 pop	 esi
  001e9	5b		 pop	 ebx
  001ea	8b 4d fc	 mov	 ecx, DWORD PTR __$ArrayPad$[ebp]
  001ed	33 cd		 xor	 ecx, ebp
  001ef	e8 00 00 00 00	 call	 @__security_check_cookie@4
  001f4	81 c4 dc 06 00
	00		 add	 esp, 1756		; 000006dcH
  001fa	3b ec		 cmp	 ebp, esp
  001fc	e8 00 00 00 00	 call	 __RTC_CheckEsp
  00201	8b e5		 mov	 esp, ebp
  00203	5d		 pop	 ebp
  00204	c3		 ret	 0
  00205	8d 49 00	 npad	 3
$LN16@EnvelopeCo:
  00208	01 00 00 00	 DD	 1
  0020c	00 00 00 00	 DD	 $LN15@EnvelopeCo
$LN15@EnvelopeCo:
  00210	ec f9 ff ff	 DD	 -1556			; fffff9ecH
  00214	a0 05 00 00	 DD	 1440			; 000005a0H
  00218	00 00 00 00	 DD	 $LN14@EnvelopeCo
$LN14@EnvelopeCo:
  0021c	69		 DB	 105			; 00000069H
  0021d	6e		 DB	 110			; 0000006eH
  0021e	74		 DB	 116			; 00000074H
  0021f	37		 DB	 55			; 00000037H
  00220	35		 DB	 53			; 00000035H
  00221	48		 DB	 72			; 00000048H
  00222	7a		 DB	 122			; 0000007aH
  00223	46		 DB	 70			; 00000046H
  00224	69		 DB	 105			; 00000069H
  00225	6c		 DB	 108			; 0000006cH
  00226	74		 DB	 116			; 00000074H
  00227	65		 DB	 101			; 00000065H
  00228	72		 DB	 114			; 00000072H
  00229	65		 DB	 101			; 00000065H
  0022a	64		 DB	 100			; 00000064H
  0022b	00		 DB	 0
_EnvelopeCorrelator ENDP
_TEXT	ENDS
PUBLIC	__real@3ff0c0e420000000
PUBLIC	__real@4000c188e0000000
PUBLIC	__real@c00921fb00000000
EXTRN	_intFrameSyncs:DWORD
;	COMDAT __real@3ff0c0e420000000
CONST	SEGMENT
__real@3ff0c0e420000000 DQ 03ff0c0e420000000r	; 1.04709
CONST	ENDS
;	COMDAT __real@4000c188e0000000
CONST	SEGMENT
__real@4000c188e0000000 DQ 04000c188e0000000r	; 2.0945
CONST	ENDS
;	COMDAT __real@c00921fb00000000
CONST	SEGMENT
__real@c00921fb00000000 DQ 0c00921fb00000000r	; -3.14159
; Function compile flags: /Odtp /RTCsu /ZI
CONST	ENDS
;	COMDAT _AcquireFrameSyncRSB
_TEXT	SEGMENT
tv295 = -316						; size = 4
tv283 = -316						; size = 4
tv273 = -316						; size = 4
tv249 = -316						; size = 4
tv233 = -316						; size = 4
tv219 = -316						; size = 4
_i$ = -116						; size = 4
_dblPhaseDiff23$ = -104					; size = 4
_dblPhaseDiff12$ = -92					; size = 4
_dblImag$ = -80						; size = 4
_dblReal$ = -68						; size = 4
_dblPhaseSym3$ = -56					; size = 4
_dblPhaseSym2$ = -44					; size = 4
_dblPhaseSym1$ = -32					; size = 4
_intAvailableSymbols$ = -20				; size = 4
_intLocalPtr$ = -8					; size = 4
_AcquireFrameSyncRSB PROC				; COMDAT

; 2035 : {

  00000	55		 push	 ebp
  00001	8b ec		 mov	 ebp, esp
  00003	81 ec 3c 01 00
	00		 sub	 esp, 316		; 0000013cH
  00009	53		 push	 ebx
  0000a	56		 push	 esi
  0000b	57		 push	 edi
  0000c	8d bd c4 fe ff
	ff		 lea	 edi, DWORD PTR [ebp-316]
  00012	b9 4f 00 00 00	 mov	 ecx, 79			; 0000004fH
  00017	b8 cc cc cc cc	 mov	 eax, -858993460		; ccccccccH
  0001c	f3 ab		 rep stosd

; 2036 : 	// Two improvements could be incorporated into this function:
; 2037 : 	//    1) Provide symbol tracking until the frame sync is found (small corrections should be less than 1 sample per 4 symbols ~2000 ppm)
; 2038 : 	//    2) Ability to more accurately locate the symbol center (could be handled by symbol tracking 1) above. 
; 2039 : 
; 2040 : 	//  This is for acquiring FSKFrameSync After Mixing Tones Mirrored around 1500 Hz. e.g. Reversed Sideband
; 2041 : 	//  Frequency offset should be near 0 (normally within +/- 1 Hz)  
; 2042 : 	//  Locate the sync Symbol which has no phase change from the prior symbol (BPSK leader @ 1500 Hz)   
; 2043 : 
; 2044 : 	int intLocalPtr = intMFSReadPtr;

  0001e	a1 00 00 00 00	 mov	 eax, DWORD PTR _intMFSReadPtr
  00023	89 45 f8	 mov	 DWORD PTR _intLocalPtr$[ebp], eax

; 2045 : 	int intAvailableSymbols = (intFilteredMixedSamplesLength - intMFSReadPtr) / 240;

  00026	a1 00 00 00 00	 mov	 eax, DWORD PTR _intFilteredMixedSamplesLength
  0002b	2b 05 00 00 00
	00		 sub	 eax, DWORD PTR _intMFSReadPtr
  00031	99		 cdq
  00032	b9 f0 00 00 00	 mov	 ecx, 240		; 000000f0H
  00037	f7 f9		 idiv	 ecx
  00039	89 45 ec	 mov	 DWORD PTR _intAvailableSymbols$[ebp], eax

; 2046 : 	float dblPhaseSym1;	//' phase of the first symbol 
; 2047 : 	float dblPhaseSym2;	//' phase of the second symbol 
; 2048 : 	float dblPhaseSym3;	//' phase of the third symbol
; 2049 : 
; 2050 : 	float dblReal, dblImag;
; 2051 : 	float dblPhaseDiff12, dblPhaseDiff23;
; 2052 : 
; 2053 : 	int i;
; 2054 : 
; 2055 : 	if (intAvailableSymbols < 3)

  0003c	83 7d ec 03	 cmp	 DWORD PTR _intAvailableSymbols$[ebp], 3
  00040	7d 07		 jge	 SHORT $LN13@AcquireFra

; 2056 : 		return FALSE;				// must have at least 360 samples to search

  00042	33 c0		 xor	 eax, eax
  00044	e9 91 02 00 00	 jmp	 $LN14@AcquireFra
$LN13@AcquireFra:

; 2057 :  
; 2058 : 	// Calculate the Phase for the First symbol 
; 2059 : 	
; 2060 : 	GoertzelRealImag(intFilteredMixedSamples, intLocalPtr, 240, 30, &dblReal, &dblImag); // Carrier at 1500 Hz nominal Positioning with no cyclic prefix

  00049	8d 45 b0	 lea	 eax, DWORD PTR _dblImag$[ebp]
  0004c	50		 push	 eax
  0004d	8d 4d bc	 lea	 ecx, DWORD PTR _dblReal$[ebp]
  00050	51		 push	 ecx
  00051	51		 push	 ecx
  00052	d9 05 00 00 00
	00		 fld	 DWORD PTR __real@41f00000
  00058	d9 1c 24	 fstp	 DWORD PTR [esp]
  0005b	68 f0 00 00 00	 push	 240			; 000000f0H
  00060	8b 55 f8	 mov	 edx, DWORD PTR _intLocalPtr$[ebp]
  00063	52		 push	 edx
  00064	68 00 00 00 00	 push	 OFFSET _intFilteredMixedSamples
  00069	e8 00 00 00 00	 call	 _GoertzelRealImag
  0006e	83 c4 18	 add	 esp, 24			; 00000018H

; 2061 : 	dblPhaseSym1 = atan2f(dblImag, dblReal);

  00071	d9 45 bc	 fld	 DWORD PTR _dblReal$[ebp]
  00074	83 ec 08	 sub	 esp, 8
  00077	dd 1c 24	 fstp	 QWORD PTR [esp]
  0007a	d9 45 b0	 fld	 DWORD PTR _dblImag$[ebp]
  0007d	83 ec 08	 sub	 esp, 8
  00080	dd 1c 24	 fstp	 QWORD PTR [esp]
  00083	e8 00 00 00 00	 call	 _atan2
  00088	83 c4 10	 add	 esp, 16			; 00000010H
  0008b	d9 9d c4 fe ff
	ff		 fstp	 DWORD PTR tv219[ebp]
  00091	d9 85 c4 fe ff
	ff		 fld	 DWORD PTR tv219[ebp]
  00097	d9 5d e0	 fstp	 DWORD PTR _dblPhaseSym1$[ebp]

; 2062 : 	intLocalPtr += 240;	// advance one symbol

  0009a	8b 45 f8	 mov	 eax, DWORD PTR _intLocalPtr$[ebp]
  0009d	05 f0 00 00 00	 add	 eax, 240		; 000000f0H
  000a2	89 45 f8	 mov	 DWORD PTR _intLocalPtr$[ebp], eax

; 2063 : 	GoertzelRealImag(intFilteredMixedSamples, intLocalPtr, 240, 30, &dblReal, &dblImag); // Carrier at 1500 Hz nominal Positioning with no cyclic prefix

  000a5	8d 45 b0	 lea	 eax, DWORD PTR _dblImag$[ebp]
  000a8	50		 push	 eax
  000a9	8d 4d bc	 lea	 ecx, DWORD PTR _dblReal$[ebp]
  000ac	51		 push	 ecx
  000ad	51		 push	 ecx
  000ae	d9 05 00 00 00
	00		 fld	 DWORD PTR __real@41f00000
  000b4	d9 1c 24	 fstp	 DWORD PTR [esp]
  000b7	68 f0 00 00 00	 push	 240			; 000000f0H
  000bc	8b 55 f8	 mov	 edx, DWORD PTR _intLocalPtr$[ebp]
  000bf	52		 push	 edx
  000c0	68 00 00 00 00	 push	 OFFSET _intFilteredMixedSamples
  000c5	e8 00 00 00 00	 call	 _GoertzelRealImag
  000ca	83 c4 18	 add	 esp, 24			; 00000018H

; 2064 : 	dblPhaseSym2 = atan2f(dblImag, dblReal);

  000cd	d9 45 bc	 fld	 DWORD PTR _dblReal$[ebp]
  000d0	83 ec 08	 sub	 esp, 8
  000d3	dd 1c 24	 fstp	 QWORD PTR [esp]
  000d6	d9 45 b0	 fld	 DWORD PTR _dblImag$[ebp]
  000d9	83 ec 08	 sub	 esp, 8
  000dc	dd 1c 24	 fstp	 QWORD PTR [esp]
  000df	e8 00 00 00 00	 call	 _atan2
  000e4	83 c4 10	 add	 esp, 16			; 00000010H
  000e7	d9 9d c4 fe ff
	ff		 fstp	 DWORD PTR tv233[ebp]
  000ed	d9 85 c4 fe ff
	ff		 fld	 DWORD PTR tv233[ebp]
  000f3	d9 5d d4	 fstp	 DWORD PTR _dblPhaseSym2$[ebp]

; 2065 : 	intLocalPtr += 240;		// advance one symbol

  000f6	8b 45 f8	 mov	 eax, DWORD PTR _intLocalPtr$[ebp]
  000f9	05 f0 00 00 00	 add	 eax, 240		; 000000f0H
  000fe	89 45 f8	 mov	 DWORD PTR _intLocalPtr$[ebp], eax

; 2066 : 
; 2067 : 	for (i = 0; i <=  intAvailableSymbols - 3; i++)

  00101	c7 45 8c 00 00
	00 00		 mov	 DWORD PTR _i$[ebp], 0
  00108	eb 09		 jmp	 SHORT $LN12@AcquireFra
$LN11@AcquireFra:
  0010a	8b 45 8c	 mov	 eax, DWORD PTR _i$[ebp]
  0010d	83 c0 01	 add	 eax, 1
  00110	89 45 8c	 mov	 DWORD PTR _i$[ebp], eax
$LN12@AcquireFra:
  00113	8b 45 ec	 mov	 eax, DWORD PTR _intAvailableSymbols$[ebp]
  00116	83 e8 03	 sub	 eax, 3
  00119	39 45 8c	 cmp	 DWORD PTR _i$[ebp], eax
  0011c	0f 8f a9 01 00
	00		 jg	 $LN10@AcquireFra

; 2068 : 	{
; 2069 : 		// Compute the phase of the next symbol  
; 2070 : 	
; 2071 : 		GoertzelRealImag(intFilteredMixedSamples, intLocalPtr, 240, 30, &dblReal, &dblImag); // Carrier at 1500 Hz nominal Positioning with no cyclic prefix

  00122	8d 45 b0	 lea	 eax, DWORD PTR _dblImag$[ebp]
  00125	50		 push	 eax
  00126	8d 4d bc	 lea	 ecx, DWORD PTR _dblReal$[ebp]
  00129	51		 push	 ecx
  0012a	51		 push	 ecx
  0012b	d9 05 00 00 00
	00		 fld	 DWORD PTR __real@41f00000
  00131	d9 1c 24	 fstp	 DWORD PTR [esp]
  00134	68 f0 00 00 00	 push	 240			; 000000f0H
  00139	8b 55 f8	 mov	 edx, DWORD PTR _intLocalPtr$[ebp]
  0013c	52		 push	 edx
  0013d	68 00 00 00 00	 push	 OFFSET _intFilteredMixedSamples
  00142	e8 00 00 00 00	 call	 _GoertzelRealImag
  00147	83 c4 18	 add	 esp, 24			; 00000018H

; 2072 : 		dblPhaseSym3 = atan2f(dblImag, dblReal);

  0014a	d9 45 bc	 fld	 DWORD PTR _dblReal$[ebp]
  0014d	83 ec 08	 sub	 esp, 8
  00150	dd 1c 24	 fstp	 QWORD PTR [esp]
  00153	d9 45 b0	 fld	 DWORD PTR _dblImag$[ebp]
  00156	83 ec 08	 sub	 esp, 8
  00159	dd 1c 24	 fstp	 QWORD PTR [esp]
  0015c	e8 00 00 00 00	 call	 _atan2
  00161	83 c4 10	 add	 esp, 16			; 00000010H
  00164	d9 9d c4 fe ff
	ff		 fstp	 DWORD PTR tv249[ebp]
  0016a	d9 85 c4 fe ff
	ff		 fld	 DWORD PTR tv249[ebp]
  00170	d9 5d c8	 fstp	 DWORD PTR _dblPhaseSym3$[ebp]

; 2073 : 		// Compute the phase differences between sym1-sym2, sym2-sym3
; 2074 : 		dblPhaseDiff12 = dblPhaseSym1 - dblPhaseSym2;

  00173	d9 45 e0	 fld	 DWORD PTR _dblPhaseSym1$[ebp]
  00176	d8 65 d4	 fsub	 DWORD PTR _dblPhaseSym2$[ebp]
  00179	d9 5d a4	 fstp	 DWORD PTR _dblPhaseDiff12$[ebp]

; 2075 : 		if (dblPhaseDiff12 > M_PI)		// bound phase diff to +/- Pi

  0017c	d9 45 a4	 fld	 DWORD PTR _dblPhaseDiff12$[ebp]
  0017f	dc 1d 00 00 00
	00		 fcomp	 QWORD PTR __real@400921fb00000000
  00185	df e0		 fnstsw	 ax
  00187	f6 c4 41	 test	 ah, 65			; 00000041H
  0018a	75 0e		 jne	 SHORT $LN9@AcquireFra

; 2076 : 			dblPhaseDiff12 -= dbl2Pi;

  0018c	d9 45 a4	 fld	 DWORD PTR _dblPhaseDiff12$[ebp]
  0018f	d8 25 00 00 00
	00		 fsub	 DWORD PTR _dbl2Pi
  00195	d9 5d a4	 fstp	 DWORD PTR _dblPhaseDiff12$[ebp]
  00198	eb 1c		 jmp	 SHORT $LN7@AcquireFra
$LN9@AcquireFra:

; 2077 : 		else if (dblPhaseDiff12 < -M_PI)

  0019a	d9 45 a4	 fld	 DWORD PTR _dblPhaseDiff12$[ebp]
  0019d	dc 1d 00 00 00
	00		 fcomp	 QWORD PTR __real@c00921fb00000000
  001a3	df e0		 fnstsw	 ax
  001a5	f6 c4 05	 test	 ah, 5
  001a8	7a 0c		 jp	 SHORT $LN7@AcquireFra

; 2078 : 			dblPhaseDiff12 += dbl2Pi;

  001aa	d9 45 a4	 fld	 DWORD PTR _dblPhaseDiff12$[ebp]
  001ad	d8 05 00 00 00
	00		 fadd	 DWORD PTR _dbl2Pi
  001b3	d9 5d a4	 fstp	 DWORD PTR _dblPhaseDiff12$[ebp]
$LN7@AcquireFra:

; 2079 : 
; 2080 : 		dblPhaseDiff23 = dblPhaseSym2 - dblPhaseSym3;

  001b6	d9 45 d4	 fld	 DWORD PTR _dblPhaseSym2$[ebp]
  001b9	d8 65 c8	 fsub	 DWORD PTR _dblPhaseSym3$[ebp]
  001bc	d9 5d 98	 fstp	 DWORD PTR _dblPhaseDiff23$[ebp]

; 2081 : 		if (dblPhaseDiff23 > M_PI)		//  bound phase diff to +/- Pi

  001bf	d9 45 98	 fld	 DWORD PTR _dblPhaseDiff23$[ebp]
  001c2	dc 1d 00 00 00
	00		 fcomp	 QWORD PTR __real@400921fb00000000
  001c8	df e0		 fnstsw	 ax
  001ca	f6 c4 41	 test	 ah, 65			; 00000041H
  001cd	75 0e		 jne	 SHORT $LN6@AcquireFra

; 2082 : 			dblPhaseDiff23 -= dbl2Pi;

  001cf	d9 45 98	 fld	 DWORD PTR _dblPhaseDiff23$[ebp]
  001d2	d8 25 00 00 00
	00		 fsub	 DWORD PTR _dbl2Pi
  001d8	d9 5d 98	 fstp	 DWORD PTR _dblPhaseDiff23$[ebp]
  001db	eb 1c		 jmp	 SHORT $LN4@AcquireFra
$LN6@AcquireFra:

; 2083 : 		else if (dblPhaseDiff23 < -M_PI)

  001dd	d9 45 98	 fld	 DWORD PTR _dblPhaseDiff23$[ebp]
  001e0	dc 1d 00 00 00
	00		 fcomp	 QWORD PTR __real@c00921fb00000000
  001e6	df e0		 fnstsw	 ax
  001e8	f6 c4 05	 test	 ah, 5
  001eb	7a 0c		 jp	 SHORT $LN4@AcquireFra

; 2084 : 			dblPhaseDiff23 += dbl2Pi;

  001ed	d9 45 98	 fld	 DWORD PTR _dblPhaseDiff23$[ebp]
  001f0	d8 05 00 00 00
	00		 fadd	 DWORD PTR _dbl2Pi
  001f6	d9 5d 98	 fstp	 DWORD PTR _dblPhaseDiff23$[ebp]
$LN4@AcquireFra:

; 2085 : 
; 2086 : 		if (fabsf(dblPhaseDiff12) > 0.6667f * M_PI && fabsf(dblPhaseDiff23) < 0.3333f * M_PI)  // Tighten the margin to 60 degrees

  001f9	d9 45 a4	 fld	 DWORD PTR _dblPhaseDiff12$[ebp]
  001fc	83 ec 08	 sub	 esp, 8
  001ff	dd 1c 24	 fstp	 QWORD PTR [esp]
  00202	e8 00 00 00 00	 call	 _fabs
  00207	83 c4 08	 add	 esp, 8
  0020a	d9 9d c4 fe ff
	ff		 fstp	 DWORD PTR tv273[ebp]
  00210	d9 85 c4 fe ff
	ff		 fld	 DWORD PTR tv273[ebp]
  00216	dc 1d 00 00 00
	00		 fcomp	 QWORD PTR __real@4000c188e0000000
  0021c	df e0		 fnstsw	 ax
  0021e	f6 c4 41	 test	 ah, 65			; 00000041H
  00221	0f 85 88 00 00
	00		 jne	 $LN3@AcquireFra
  00227	d9 45 98	 fld	 DWORD PTR _dblPhaseDiff23$[ebp]
  0022a	83 ec 08	 sub	 esp, 8
  0022d	dd 1c 24	 fstp	 QWORD PTR [esp]
  00230	e8 00 00 00 00	 call	 _fabs
  00235	83 c4 08	 add	 esp, 8
  00238	d9 9d c4 fe ff
	ff		 fstp	 DWORD PTR tv283[ebp]
  0023e	d9 85 c4 fe ff
	ff		 fld	 DWORD PTR tv283[ebp]
  00244	dc 1d 00 00 00
	00		 fcomp	 QWORD PTR __real@3ff0c0e420000000
  0024a	df e0		 fnstsw	 ax
  0024c	f6 c4 05	 test	 ah, 5
  0024f	7a 5e		 jp	 SHORT $LN3@AcquireFra

; 2087 : 		{
; 2088 : //			intPSKRefPhase = (short)dblPhaseSym3 * 1000;
; 2089 : 
; 2090 : 			intLeaderRcvdMs = (int)ceil((intLocalPtr - 30) / 12);	 // 30 is to accomodate offset of inital pointer for filter length. 

  00251	8b 45 f8	 mov	 eax, DWORD PTR _intLocalPtr$[ebp]
  00254	83 e8 1e	 sub	 eax, 30			; 0000001eH
  00257	99		 cdq
  00258	b9 0c 00 00 00	 mov	 ecx, 12			; 0000000cH
  0025d	f7 f9		 idiv	 ecx
  0025f	89 85 c4 fe ff
	ff		 mov	 DWORD PTR tv295[ebp], eax
  00265	db 85 c4 fe ff
	ff		 fild	 DWORD PTR tv295[ebp]
  0026b	83 ec 08	 sub	 esp, 8
  0026e	dd 1c 24	 fstp	 QWORD PTR [esp]
  00271	e8 00 00 00 00	 call	 _ceil
  00276	83 c4 08	 add	 esp, 8
  00279	e8 00 00 00 00	 call	 __ftol2_sse
  0027e	a3 00 00 00 00	 mov	 DWORD PTR _intLeaderRcvdMs, eax

; 2091 : 			intMFSReadPtr = intLocalPtr + 240;		 // Position read pointer to start of the symbol following reference symbol 

  00283	8b 45 f8	 mov	 eax, DWORD PTR _intLocalPtr$[ebp]
  00286	05 f0 00 00 00	 add	 eax, 240		; 000000f0H
  0028b	a3 00 00 00 00	 mov	 DWORD PTR _intMFSReadPtr, eax

; 2092 : 		
; 2093 : 			if (AccumulateStats)

  00290	83 3d 00 00 00
	00 00		 cmp	 DWORD PTR _AccumulateStats, 0
  00297	74 0d		 je	 SHORT $LN2@AcquireFra

; 2094 : 				intFrameSyncs += 1;		 // accumulate tuning stats

  00299	a1 00 00 00 00	 mov	 eax, DWORD PTR _intFrameSyncs
  0029e	83 c0 01	 add	 eax, 1
  002a1	a3 00 00 00 00	 mov	 DWORD PTR _intFrameSyncs, eax
$LN2@AcquireFra:

; 2095 : 	
; 2096 : 			//strDecodeCapture &= "Sync; Phase1>2=" & Format(dblPhaseDiff12, "0.00") & " Phase2>3=" & Format(dblPhaseDiff23, "0.00") & ": "
; 2097 : 	
; 2098 : 			return TRUE;	 // pointer is pointing to first 4FSK data symbol. (first symbol of frame type)

  002a6	b8 01 00 00 00	 mov	 eax, 1
  002ab	eb 2d		 jmp	 SHORT $LN14@AcquireFra

; 2099 : 		}
; 2100 : 		else

  002ad	eb 17		 jmp	 SHORT $LN1@AcquireFra
$LN3@AcquireFra:

; 2101 : 		{
; 2102 : 			dblPhaseSym1 = dblPhaseSym2;           

  002af	d9 45 d4	 fld	 DWORD PTR _dblPhaseSym2$[ebp]
  002b2	d9 5d e0	 fstp	 DWORD PTR _dblPhaseSym1$[ebp]

; 2103 : 			dblPhaseSym2 = dblPhaseSym3;

  002b5	d9 45 c8	 fld	 DWORD PTR _dblPhaseSym3$[ebp]
  002b8	d9 5d d4	 fstp	 DWORD PTR _dblPhaseSym2$[ebp]

; 2104 : 			intLocalPtr += 240;			// advance one symbol 

  002bb	8b 45 f8	 mov	 eax, DWORD PTR _intLocalPtr$[ebp]
  002be	05 f0 00 00 00	 add	 eax, 240		; 000000f0H
  002c3	89 45 f8	 mov	 DWORD PTR _intLocalPtr$[ebp], eax
$LN1@AcquireFra:

; 2105 : 		}
; 2106 : 	}

  002c6	e9 3f fe ff ff	 jmp	 $LN11@AcquireFra
$LN10@AcquireFra:

; 2107 : 
; 2108 : 	intMFSReadPtr = intLocalPtr - 480;		 // back up 2 symbols for next attempt (Current Sym2 will become new Sym1)

  002cb	8b 45 f8	 mov	 eax, DWORD PTR _intLocalPtr$[ebp]
  002ce	2d e0 01 00 00	 sub	 eax, 480		; 000001e0H
  002d3	a3 00 00 00 00	 mov	 DWORD PTR _intMFSReadPtr, eax

; 2109 : 	return FALSE;	

  002d8	33 c0		 xor	 eax, eax
$LN14@AcquireFra:

; 2110 : }

  002da	52		 push	 edx
  002db	8b cd		 mov	 ecx, ebp
  002dd	50		 push	 eax
  002de	8d 15 00 00 00
	00		 lea	 edx, DWORD PTR $LN19@AcquireFra
  002e4	e8 00 00 00 00	 call	 @_RTC_CheckStackVars@8
  002e9	58		 pop	 eax
  002ea	5a		 pop	 edx
  002eb	5f		 pop	 edi
  002ec	5e		 pop	 esi
  002ed	5b		 pop	 ebx
  002ee	81 c4 3c 01 00
	00		 add	 esp, 316		; 0000013cH
  002f4	3b ec		 cmp	 ebp, esp
  002f6	e8 00 00 00 00	 call	 __RTC_CheckEsp
  002fb	8b e5		 mov	 esp, ebp
  002fd	5d		 pop	 ebp
  002fe	c3		 ret	 0
  002ff	90		 npad	 1
$LN19@AcquireFra:
  00300	02 00 00 00	 DD	 2
  00304	00 00 00 00	 DD	 $LN18@AcquireFra
$LN18@AcquireFra:
  00308	bc ff ff ff	 DD	 -68			; ffffffbcH
  0030c	04 00 00 00	 DD	 4
  00310	00 00 00 00	 DD	 $LN16@AcquireFra
  00314	b0 ff ff ff	 DD	 -80			; ffffffb0H
  00318	04 00 00 00	 DD	 4
  0031c	00 00 00 00	 DD	 $LN17@AcquireFra
$LN17@AcquireFra:
  00320	64		 DB	 100			; 00000064H
  00321	62		 DB	 98			; 00000062H
  00322	6c		 DB	 108			; 0000006cH
  00323	49		 DB	 73			; 00000049H
  00324	6d		 DB	 109			; 0000006dH
  00325	61		 DB	 97			; 00000061H
  00326	67		 DB	 103			; 00000067H
  00327	00		 DB	 0
$LN16@AcquireFra:
  00328	64		 DB	 100			; 00000064H
  00329	62		 DB	 98			; 00000062H
  0032a	6c		 DB	 108			; 0000006cH
  0032b	52		 DB	 82			; 00000052H
  0032c	65		 DB	 101			; 00000065H
  0032d	61		 DB	 97			; 00000061H
  0032e	6c		 DB	 108			; 0000006cH
  0032f	00		 DB	 0
_AcquireFrameSyncRSB ENDP
_TEXT	ENDS
PUBLIC	__real@41e40000
PUBLIC	__real@41ec0000
PUBLIC	__real@41f40000
PUBLIC	__real@41fc0000
PUBLIC	_DemodFrameType4FSK
;	COMDAT __real@41e40000
CONST	SEGMENT
__real@41e40000 DD 041e40000r			; 28.5
CONST	ENDS
;	COMDAT __real@41ec0000
CONST	SEGMENT
__real@41ec0000 DD 041ec0000r			; 29.5
CONST	ENDS
;	COMDAT __real@41f40000
CONST	SEGMENT
__real@41f40000 DD 041f40000r			; 30.5
CONST	ENDS
;	COMDAT __real@41fc0000
CONST	SEGMENT
__real@41fc0000 DD 041fc0000r			; 31.5
; Function compile flags: /Odtp /RTCsu /ZI
CONST	ENDS
;	COMDAT _DemodFrameType4FSK
_TEXT	SEGMENT
tv338 = -248						; size = 4
tv305 = -248						; size = 4
tv272 = -248						; size = 4
tv239 = -248						; size = 4
tv355 = -244						; size = 8
tv353 = -244						; size = 8
tv351 = -244						; size = 8
tv349 = -244						; size = 8
tv331 = -236						; size = 4
tv298 = -236						; size = 4
tv265 = -236						; size = 4
tv232 = -236						; size = 4
tv326 = -232						; size = 4
tv293 = -232						; size = 4
tv260 = -232						; size = 4
tv227 = -232						; size = 4
_i$ = -32						; size = 4
_dblImag$ = -20						; size = 4
_dblReal$ = -8						; size = 4
_intPtr$ = 8						; size = 4
_intSamples$ = 12					; size = 4
_intToneMags$ = 16					; size = 4
_DemodFrameType4FSK PROC				; COMDAT

; 2115 : {

  00000	55		 push	 ebp
  00001	8b ec		 mov	 ebp, esp
  00003	81 ec f8 00 00
	00		 sub	 esp, 248		; 000000f8H
  00009	53		 push	 ebx
  0000a	56		 push	 esi
  0000b	57		 push	 edi
  0000c	8d bd 08 ff ff
	ff		 lea	 edi, DWORD PTR [ebp-248]
  00012	b9 3e 00 00 00	 mov	 ecx, 62			; 0000003eH
  00017	b8 cc cc cc cc	 mov	 eax, -858993460		; ccccccccH
  0001c	f3 ab		 rep stosd

; 2116 : 	float dblReal, dblImag;
; 2117 : 	int i;
; 2118 : 
; 2119 : 	if ((intFilteredMixedSamplesLength - intPtr) < 2400)

  0001e	a1 00 00 00 00	 mov	 eax, DWORD PTR _intFilteredMixedSamplesLength
  00023	2b 45 08	 sub	 eax, DWORD PTR _intPtr$[ebp]
  00026	3d 60 09 00 00	 cmp	 eax, 2400		; 00000960H
  0002b	7d 07		 jge	 SHORT $LN4@DemodFrame

; 2120 : 		return FALSE;

  0002d	33 c0		 xor	 eax, eax
  0002f	e9 da 02 00 00	 jmp	 $LN5@DemodFrame
$LN4@DemodFrame:

; 2121 : 
; 2122 : 	intToneMagsLength = 10;

  00034	c7 05 00 00 00
	00 0a 00 00 00	 mov	 DWORD PTR _intToneMagsLength, 10 ; 0000000aH

; 2123 : 
; 2124 : 	for (i = 0; i < 10; i++)

  0003e	c7 45 e0 00 00
	00 00		 mov	 DWORD PTR _i$[ebp], 0
  00045	eb 09		 jmp	 SHORT $LN3@DemodFrame
$LN2@DemodFrame:
  00047	8b 45 e0	 mov	 eax, DWORD PTR _i$[ebp]
  0004a	83 c0 01	 add	 eax, 1
  0004d	89 45 e0	 mov	 DWORD PTR _i$[ebp], eax
$LN3@DemodFrame:
  00050	83 7d e0 0a	 cmp	 DWORD PTR _i$[ebp], 10	; 0000000aH
  00054	0f 8d af 02 00
	00		 jge	 $LN1@DemodFrame

; 2125 : 	{
; 2126 : 		GoertzelRealImag(intSamples, intPtr, 240, 1575 / 50.0f, &dblReal, &dblImag);

  0005a	8d 45 ec	 lea	 eax, DWORD PTR _dblImag$[ebp]
  0005d	50		 push	 eax
  0005e	8d 4d f8	 lea	 ecx, DWORD PTR _dblReal$[ebp]
  00061	51		 push	 ecx
  00062	51		 push	 ecx
  00063	d9 05 00 00 00
	00		 fld	 DWORD PTR __real@41fc0000
  00069	d9 1c 24	 fstp	 DWORD PTR [esp]
  0006c	68 f0 00 00 00	 push	 240			; 000000f0H
  00071	8b 55 08	 mov	 edx, DWORD PTR _intPtr$[ebp]
  00074	52		 push	 edx
  00075	8b 45 0c	 mov	 eax, DWORD PTR _intSamples$[ebp]
  00078	50		 push	 eax
  00079	e8 00 00 00 00	 call	 _GoertzelRealImag
  0007e	83 c4 18	 add	 esp, 24			; 00000018H

; 2127 : 		intToneMags[4 * i] = (int)powf(dblReal, 2) + powf(dblImag, 2);

  00081	83 ec 08	 sub	 esp, 8
  00084	dd 05 00 00 00
	00		 fld	 QWORD PTR __real@4000000000000000
  0008a	dd 1c 24	 fstp	 QWORD PTR [esp]
  0008d	d9 45 f8	 fld	 DWORD PTR _dblReal$[ebp]
  00090	83 ec 08	 sub	 esp, 8
  00093	dd 1c 24	 fstp	 QWORD PTR [esp]
  00096	e8 00 00 00 00	 call	 _pow
  0009b	83 c4 10	 add	 esp, 16			; 00000010H
  0009e	d9 9d 18 ff ff
	ff		 fstp	 DWORD PTR tv227[ebp]
  000a4	d9 85 18 ff ff
	ff		 fld	 DWORD PTR tv227[ebp]
  000aa	e8 00 00 00 00	 call	 __ftol2_sse
  000af	89 85 14 ff ff
	ff		 mov	 DWORD PTR tv232[ebp], eax
  000b5	db 85 14 ff ff
	ff		 fild	 DWORD PTR tv232[ebp]
  000bb	83 ec 08	 sub	 esp, 8
  000be	dd 05 00 00 00
	00		 fld	 QWORD PTR __real@4000000000000000
  000c4	dd 1c 24	 fstp	 QWORD PTR [esp]
  000c7	d9 45 ec	 fld	 DWORD PTR _dblImag$[ebp]
  000ca	83 ec 08	 sub	 esp, 8
  000cd	dd 1c 24	 fstp	 QWORD PTR [esp]
  000d0	dd 9d 0c ff ff
	ff		 fstp	 QWORD PTR tv349[ebp]
  000d6	e8 00 00 00 00	 call	 _pow
  000db	83 c4 10	 add	 esp, 16			; 00000010H
  000de	d9 9d 08 ff ff
	ff		 fstp	 DWORD PTR tv239[ebp]
  000e4	d9 85 08 ff ff
	ff		 fld	 DWORD PTR tv239[ebp]
  000ea	dc 85 0c ff ff
	ff		 fadd	 QWORD PTR tv349[ebp]
  000f0	8b 75 e0	 mov	 esi, DWORD PTR _i$[ebp]
  000f3	c1 e6 02	 shl	 esi, 2
  000f6	e8 00 00 00 00	 call	 __ftol2_sse
  000fb	8b 4d 10	 mov	 ecx, DWORD PTR _intToneMags$[ebp]
  000fe	89 04 b1	 mov	 DWORD PTR [ecx+esi*4], eax

; 2128 : 		GoertzelRealImag(intSamples, intPtr, 240, 1525 / 50.0f, &dblReal, &dblImag);

  00101	8d 45 ec	 lea	 eax, DWORD PTR _dblImag$[ebp]
  00104	50		 push	 eax
  00105	8d 4d f8	 lea	 ecx, DWORD PTR _dblReal$[ebp]
  00108	51		 push	 ecx
  00109	51		 push	 ecx
  0010a	d9 05 00 00 00
	00		 fld	 DWORD PTR __real@41f40000
  00110	d9 1c 24	 fstp	 DWORD PTR [esp]
  00113	68 f0 00 00 00	 push	 240			; 000000f0H
  00118	8b 55 08	 mov	 edx, DWORD PTR _intPtr$[ebp]
  0011b	52		 push	 edx
  0011c	8b 45 0c	 mov	 eax, DWORD PTR _intSamples$[ebp]
  0011f	50		 push	 eax
  00120	e8 00 00 00 00	 call	 _GoertzelRealImag
  00125	83 c4 18	 add	 esp, 24			; 00000018H

; 2129 : 		intToneMags[1 + 4 * i] = (int)powf(dblReal, 2) + powf(dblImag, 2);

  00128	83 ec 08	 sub	 esp, 8
  0012b	dd 05 00 00 00
	00		 fld	 QWORD PTR __real@4000000000000000
  00131	dd 1c 24	 fstp	 QWORD PTR [esp]
  00134	d9 45 f8	 fld	 DWORD PTR _dblReal$[ebp]
  00137	83 ec 08	 sub	 esp, 8
  0013a	dd 1c 24	 fstp	 QWORD PTR [esp]
  0013d	e8 00 00 00 00	 call	 _pow
  00142	83 c4 10	 add	 esp, 16			; 00000010H
  00145	d9 9d 18 ff ff
	ff		 fstp	 DWORD PTR tv260[ebp]
  0014b	d9 85 18 ff ff
	ff		 fld	 DWORD PTR tv260[ebp]
  00151	e8 00 00 00 00	 call	 __ftol2_sse
  00156	89 85 14 ff ff
	ff		 mov	 DWORD PTR tv265[ebp], eax
  0015c	db 85 14 ff ff
	ff		 fild	 DWORD PTR tv265[ebp]
  00162	83 ec 08	 sub	 esp, 8
  00165	dd 05 00 00 00
	00		 fld	 QWORD PTR __real@4000000000000000
  0016b	dd 1c 24	 fstp	 QWORD PTR [esp]
  0016e	d9 45 ec	 fld	 DWORD PTR _dblImag$[ebp]
  00171	83 ec 08	 sub	 esp, 8
  00174	dd 1c 24	 fstp	 QWORD PTR [esp]
  00177	dd 9d 0c ff ff
	ff		 fstp	 QWORD PTR tv351[ebp]
  0017d	e8 00 00 00 00	 call	 _pow
  00182	83 c4 10	 add	 esp, 16			; 00000010H
  00185	d9 9d 08 ff ff
	ff		 fstp	 DWORD PTR tv272[ebp]
  0018b	d9 85 08 ff ff
	ff		 fld	 DWORD PTR tv272[ebp]
  00191	dc 85 0c ff ff
	ff		 fadd	 QWORD PTR tv351[ebp]
  00197	8b 75 e0	 mov	 esi, DWORD PTR _i$[ebp]
  0019a	c1 e6 02	 shl	 esi, 2
  0019d	e8 00 00 00 00	 call	 __ftol2_sse
  001a2	8b 4d 10	 mov	 ecx, DWORD PTR _intToneMags$[ebp]
  001a5	89 44 b1 04	 mov	 DWORD PTR [ecx+esi*4+4], eax

; 2130 : 		GoertzelRealImag(intSamples, intPtr, 240, 1475 / 50.0f, &dblReal, &dblImag);

  001a9	8d 45 ec	 lea	 eax, DWORD PTR _dblImag$[ebp]
  001ac	50		 push	 eax
  001ad	8d 4d f8	 lea	 ecx, DWORD PTR _dblReal$[ebp]
  001b0	51		 push	 ecx
  001b1	51		 push	 ecx
  001b2	d9 05 00 00 00
	00		 fld	 DWORD PTR __real@41ec0000
  001b8	d9 1c 24	 fstp	 DWORD PTR [esp]
  001bb	68 f0 00 00 00	 push	 240			; 000000f0H
  001c0	8b 55 08	 mov	 edx, DWORD PTR _intPtr$[ebp]
  001c3	52		 push	 edx
  001c4	8b 45 0c	 mov	 eax, DWORD PTR _intSamples$[ebp]
  001c7	50		 push	 eax
  001c8	e8 00 00 00 00	 call	 _GoertzelRealImag
  001cd	83 c4 18	 add	 esp, 24			; 00000018H

; 2131 : 		intToneMags[2 + 4 * i] = (int)powf(dblReal, 2) + powf(dblImag, 2);

  001d0	83 ec 08	 sub	 esp, 8
  001d3	dd 05 00 00 00
	00		 fld	 QWORD PTR __real@4000000000000000
  001d9	dd 1c 24	 fstp	 QWORD PTR [esp]
  001dc	d9 45 f8	 fld	 DWORD PTR _dblReal$[ebp]
  001df	83 ec 08	 sub	 esp, 8
  001e2	dd 1c 24	 fstp	 QWORD PTR [esp]
  001e5	e8 00 00 00 00	 call	 _pow
  001ea	83 c4 10	 add	 esp, 16			; 00000010H
  001ed	d9 9d 18 ff ff
	ff		 fstp	 DWORD PTR tv293[ebp]
  001f3	d9 85 18 ff ff
	ff		 fld	 DWORD PTR tv293[ebp]
  001f9	e8 00 00 00 00	 call	 __ftol2_sse
  001fe	89 85 14 ff ff
	ff		 mov	 DWORD PTR tv298[ebp], eax
  00204	db 85 14 ff ff
	ff		 fild	 DWORD PTR tv298[ebp]
  0020a	83 ec 08	 sub	 esp, 8
  0020d	dd 05 00 00 00
	00		 fld	 QWORD PTR __real@4000000000000000
  00213	dd 1c 24	 fstp	 QWORD PTR [esp]
  00216	d9 45 ec	 fld	 DWORD PTR _dblImag$[ebp]
  00219	83 ec 08	 sub	 esp, 8
  0021c	dd 1c 24	 fstp	 QWORD PTR [esp]
  0021f	dd 9d 0c ff ff
	ff		 fstp	 QWORD PTR tv353[ebp]
  00225	e8 00 00 00 00	 call	 _pow
  0022a	83 c4 10	 add	 esp, 16			; 00000010H
  0022d	d9 9d 08 ff ff
	ff		 fstp	 DWORD PTR tv305[ebp]
  00233	d9 85 08 ff ff
	ff		 fld	 DWORD PTR tv305[ebp]
  00239	dc 85 0c ff ff
	ff		 fadd	 QWORD PTR tv353[ebp]
  0023f	8b 75 e0	 mov	 esi, DWORD PTR _i$[ebp]
  00242	c1 e6 02	 shl	 esi, 2
  00245	e8 00 00 00 00	 call	 __ftol2_sse
  0024a	8b 4d 10	 mov	 ecx, DWORD PTR _intToneMags$[ebp]
  0024d	89 44 b1 08	 mov	 DWORD PTR [ecx+esi*4+8], eax

; 2132 : 		GoertzelRealImag(intSamples, intPtr, 240, 1425 / 50.0f, &dblReal, &dblImag);

  00251	8d 45 ec	 lea	 eax, DWORD PTR _dblImag$[ebp]
  00254	50		 push	 eax
  00255	8d 4d f8	 lea	 ecx, DWORD PTR _dblReal$[ebp]
  00258	51		 push	 ecx
  00259	51		 push	 ecx
  0025a	d9 05 00 00 00
	00		 fld	 DWORD PTR __real@41e40000
  00260	d9 1c 24	 fstp	 DWORD PTR [esp]
  00263	68 f0 00 00 00	 push	 240			; 000000f0H
  00268	8b 55 08	 mov	 edx, DWORD PTR _intPtr$[ebp]
  0026b	52		 push	 edx
  0026c	8b 45 0c	 mov	 eax, DWORD PTR _intSamples$[ebp]
  0026f	50		 push	 eax
  00270	e8 00 00 00 00	 call	 _GoertzelRealImag
  00275	83 c4 18	 add	 esp, 24			; 00000018H

; 2133 : 		intToneMags[3 + 4 * i] = (int)powf(dblReal, 2) + powf(dblImag, 2);

  00278	83 ec 08	 sub	 esp, 8
  0027b	dd 05 00 00 00
	00		 fld	 QWORD PTR __real@4000000000000000
  00281	dd 1c 24	 fstp	 QWORD PTR [esp]
  00284	d9 45 f8	 fld	 DWORD PTR _dblReal$[ebp]
  00287	83 ec 08	 sub	 esp, 8
  0028a	dd 1c 24	 fstp	 QWORD PTR [esp]
  0028d	e8 00 00 00 00	 call	 _pow
  00292	83 c4 10	 add	 esp, 16			; 00000010H
  00295	d9 9d 18 ff ff
	ff		 fstp	 DWORD PTR tv326[ebp]
  0029b	d9 85 18 ff ff
	ff		 fld	 DWORD PTR tv326[ebp]
  002a1	e8 00 00 00 00	 call	 __ftol2_sse
  002a6	89 85 14 ff ff
	ff		 mov	 DWORD PTR tv331[ebp], eax
  002ac	db 85 14 ff ff
	ff		 fild	 DWORD PTR tv331[ebp]
  002b2	83 ec 08	 sub	 esp, 8
  002b5	dd 05 00 00 00
	00		 fld	 QWORD PTR __real@4000000000000000
  002bb	dd 1c 24	 fstp	 QWORD PTR [esp]
  002be	d9 45 ec	 fld	 DWORD PTR _dblImag$[ebp]
  002c1	83 ec 08	 sub	 esp, 8
  002c4	dd 1c 24	 fstp	 QWORD PTR [esp]
  002c7	dd 9d 0c ff ff
	ff		 fstp	 QWORD PTR tv355[ebp]
  002cd	e8 00 00 00 00	 call	 _pow
  002d2	83 c4 10	 add	 esp, 16			; 00000010H
  002d5	d9 9d 08 ff ff
	ff		 fstp	 DWORD PTR tv338[ebp]
  002db	d9 85 08 ff ff
	ff		 fld	 DWORD PTR tv338[ebp]
  002e1	dc 85 0c ff ff
	ff		 fadd	 QWORD PTR tv355[ebp]
  002e7	8b 75 e0	 mov	 esi, DWORD PTR _i$[ebp]
  002ea	c1 e6 02	 shl	 esi, 2
  002ed	e8 00 00 00 00	 call	 __ftol2_sse
  002f2	8b 4d 10	 mov	 ecx, DWORD PTR _intToneMags$[ebp]
  002f5	89 44 b1 0c	 mov	 DWORD PTR [ecx+esi*4+12], eax

; 2134 : 		intPtr += 240;

  002f9	8b 45 08	 mov	 eax, DWORD PTR _intPtr$[ebp]
  002fc	05 f0 00 00 00	 add	 eax, 240		; 000000f0H
  00301	89 45 08	 mov	 DWORD PTR _intPtr$[ebp], eax

; 2135 : 	}

  00304	e9 3e fd ff ff	 jmp	 $LN2@DemodFrame
$LN1@DemodFrame:

; 2136 : 	
; 2137 : 	return TRUE;

  00309	b8 01 00 00 00	 mov	 eax, 1
$LN5@DemodFrame:

; 2138 : }

  0030e	52		 push	 edx
  0030f	8b cd		 mov	 ecx, ebp
  00311	50		 push	 eax
  00312	8d 15 00 00 00
	00		 lea	 edx, DWORD PTR $LN10@DemodFrame
  00318	e8 00 00 00 00	 call	 @_RTC_CheckStackVars@8
  0031d	58		 pop	 eax
  0031e	5a		 pop	 edx
  0031f	5f		 pop	 edi
  00320	5e		 pop	 esi
  00321	5b		 pop	 ebx
  00322	81 c4 f8 00 00
	00		 add	 esp, 248		; 000000f8H
  00328	3b ec		 cmp	 ebp, esp
  0032a	e8 00 00 00 00	 call	 __RTC_CheckEsp
  0032f	8b e5		 mov	 esp, ebp
  00331	5d		 pop	 ebp
  00332	c3		 ret	 0
  00333	90		 npad	 1
$LN10@DemodFrame:
  00334	02 00 00 00	 DD	 2
  00338	00 00 00 00	 DD	 $LN9@DemodFrame
$LN9@DemodFrame:
  0033c	f8 ff ff ff	 DD	 -8			; fffffff8H
  00340	04 00 00 00	 DD	 4
  00344	00 00 00 00	 DD	 $LN7@DemodFrame
  00348	ec ff ff ff	 DD	 -20			; ffffffecH
  0034c	04 00 00 00	 DD	 4
  00350	00 00 00 00	 DD	 $LN8@DemodFrame
$LN8@DemodFrame:
  00354	64		 DB	 100			; 00000064H
  00355	62		 DB	 98			; 00000062H
  00356	6c		 DB	 108			; 0000006cH
  00357	49		 DB	 73			; 00000049H
  00358	6d		 DB	 109			; 0000006dH
  00359	61		 DB	 97			; 00000061H
  0035a	67		 DB	 103			; 00000067H
  0035b	00		 DB	 0
$LN7@DemodFrame:
  0035c	64		 DB	 100			; 00000064H
  0035d	62		 DB	 98			; 00000062H
  0035e	6c		 DB	 108			; 0000006cH
  0035f	52		 DB	 82			; 00000052H
  00360	65		 DB	 101			; 00000065H
  00361	61		 DB	 97			; 00000061H
  00362	6c		 DB	 108			; 0000006cH
  00363	00		 DB	 0
_DemodFrameType4FSK ENDP
_TEXT	ENDS
PUBLIC	__real@4014000000000000
PUBLIC	_ComputeDecodeDistance
EXTRN	_ComputeTypeParity:PROC
;	COMDAT __real@4014000000000000
CONST	SEGMENT
__real@4014000000000000 DQ 04014000000000000r	; 5
; Function compile flags: /Odtp /RTCsu /ZI
CONST	ENDS
;	COMDAT _ComputeDecodeDistance
_TEXT	SEGMENT
_k$ = -68						; size = 4
_j$ = -56						; size = 4
_bytMask$ = -41						; size = 1
_intToneIndex$ = -32					; size = 4
_int4ToneSum$ = -20					; size = 4
_dblDistance$ = -8					; size = 4
_intTonePtr$ = 8					; size = 4
_intToneMags$ = 12					; size = 4
_bytFrameType$ = 16					; size = 1
_bytID$ = 20						; size = 1
_ComputeDecodeDistance PROC				; COMDAT

; 2143 : {

  00000	55		 push	 ebp
  00001	8b ec		 mov	 ebp, esp
  00003	81 ec 08 01 00
	00		 sub	 esp, 264		; 00000108H
  00009	53		 push	 ebx
  0000a	56		 push	 esi
  0000b	57		 push	 edi
  0000c	8d bd f8 fe ff
	ff		 lea	 edi, DWORD PTR [ebp-264]
  00012	b9 42 00 00 00	 mov	 ecx, 66			; 00000042H
  00017	b8 cc cc cc cc	 mov	 eax, -858993460		; ccccccccH
  0001c	f3 ab		 rep stosd

; 2144 : 	// intTonePtr is the offset into the Frame type symbols. 0 for first Frame byte 20 = (5 x 4) for second frame byte 
; 2145 : 
; 2146 : 	float dblDistance = 0;

  0001e	d9 ee		 fldz
  00020	d9 5d f8	 fstp	 DWORD PTR _dblDistance$[ebp]

; 2147 : 	int int4ToneSum;
; 2148 : 	int intToneIndex;
; 2149 : 	UCHAR bytMask = 0xC0;

  00023	c6 45 d7 c0	 mov	 BYTE PTR _bytMask$[ebp], 192 ; 000000c0H

; 2150 : 	int j, k;
; 2151 : 
; 2152 : 	for (j = 0; j <= 4; j++)		//  over 5 symbols

  00027	c7 45 c8 00 00
	00 00		 mov	 DWORD PTR _j$[ebp], 0
  0002e	eb 09		 jmp	 SHORT $LN9@ComputeDec
$LN8@ComputeDec:
  00030	8b 45 c8	 mov	 eax, DWORD PTR _j$[ebp]
  00033	83 c0 01	 add	 eax, 1
  00036	89 45 c8	 mov	 DWORD PTR _j$[ebp], eax
$LN9@ComputeDec:
  00039	83 7d c8 04	 cmp	 DWORD PTR _j$[ebp], 4
  0003d	0f 8f bb 00 00
	00		 jg	 $LN7@ComputeDec

; 2153 : 	{
; 2154 : 		int4ToneSum = 0;

  00043	c7 45 ec 00 00
	00 00		 mov	 DWORD PTR _int4ToneSum$[ebp], 0

; 2155 : 		for (k = 0; k <=3; k++)

  0004a	c7 45 bc 00 00
	00 00		 mov	 DWORD PTR _k$[ebp], 0
  00051	eb 09		 jmp	 SHORT $LN6@ComputeDec
$LN5@ComputeDec:
  00053	8b 45 bc	 mov	 eax, DWORD PTR _k$[ebp]
  00056	83 c0 01	 add	 eax, 1
  00059	89 45 bc	 mov	 DWORD PTR _k$[ebp], eax
$LN6@ComputeDec:
  0005c	83 7d bc 03	 cmp	 DWORD PTR _k$[ebp], 3
  00060	7f 1a		 jg	 SHORT $LN4@ComputeDec

; 2156 : 		{
; 2157 : 			int4ToneSum += intToneMags[intTonePtr + (4 * j) + k];

  00062	8b 45 c8	 mov	 eax, DWORD PTR _j$[ebp]
  00065	8b 4d 08	 mov	 ecx, DWORD PTR _intTonePtr$[ebp]
  00068	8d 14 81	 lea	 edx, DWORD PTR [ecx+eax*4]
  0006b	03 55 bc	 add	 edx, DWORD PTR _k$[ebp]
  0006e	8b 45 0c	 mov	 eax, DWORD PTR _intToneMags$[ebp]
  00071	8b 4d ec	 mov	 ecx, DWORD PTR _int4ToneSum$[ebp]
  00074	03 0c 90	 add	 ecx, DWORD PTR [eax+edx*4]
  00077	89 4d ec	 mov	 DWORD PTR _int4ToneSum$[ebp], ecx

; 2158 : 		}

  0007a	eb d7		 jmp	 SHORT $LN5@ComputeDec
$LN4@ComputeDec:

; 2159 : 		if (int4ToneSum == 0)

  0007c	83 7d ec 00	 cmp	 DWORD PTR _int4ToneSum$[ebp], 0
  00080	75 07		 jne	 SHORT $LN3@ComputeDec

; 2160 : 			int4ToneSum = 1;		//  protects against possible overflow

  00082	c7 45 ec 01 00
	00 00		 mov	 DWORD PTR _int4ToneSum$[ebp], 1
$LN3@ComputeDec:

; 2161 : 		if (j < 4)

  00089	83 7d c8 04	 cmp	 DWORD PTR _j$[ebp], 4
  0008d	7d 25		 jge	 SHORT $LN2@ComputeDec

; 2162 : 		    intToneIndex = ((bytFrameType ^ bytID) & bytMask) >> (6 - 2 * j);

  0008f	0f b6 45 10	 movzx	 eax, BYTE PTR _bytFrameType$[ebp]
  00093	0f b6 4d 14	 movzx	 ecx, BYTE PTR _bytID$[ebp]
  00097	33 c1		 xor	 eax, ecx
  00099	0f b6 55 d7	 movzx	 edx, BYTE PTR _bytMask$[ebp]
  0009d	23 c2		 and	 eax, edx
  0009f	8b 4d c8	 mov	 ecx, DWORD PTR _j$[ebp]
  000a2	d1 e1		 shl	 ecx, 1
  000a4	ba 06 00 00 00	 mov	 edx, 6
  000a9	2b d1		 sub	 edx, ecx
  000ab	8b ca		 mov	 ecx, edx
  000ad	d3 f8		 sar	 eax, cl
  000af	89 45 e0	 mov	 DWORD PTR _intToneIndex$[ebp], eax

; 2163 : 		else

  000b2	eb 12		 jmp	 SHORT $LN1@ComputeDec
$LN2@ComputeDec:

; 2164 : 			intToneIndex = ComputeTypeParity(bytFrameType);

  000b4	8a 45 10	 mov	 al, BYTE PTR _bytFrameType$[ebp]
  000b7	50		 push	 eax
  000b8	e8 00 00 00 00	 call	 _ComputeTypeParity
  000bd	83 c4 04	 add	 esp, 4
  000c0	0f b6 c8	 movzx	 ecx, al
  000c3	89 4d e0	 mov	 DWORD PTR _intToneIndex$[ebp], ecx
$LN1@ComputeDec:

; 2165 : 
; 2166 : 		dblDistance += 1.0f - ((1.0f * intToneMags[intTonePtr + (4 * j) + intToneIndex]) / (1.0f * int4ToneSum));

  000c6	8b 45 c8	 mov	 eax, DWORD PTR _j$[ebp]
  000c9	8b 4d 08	 mov	 ecx, DWORD PTR _intTonePtr$[ebp]
  000cc	8d 14 81	 lea	 edx, DWORD PTR [ecx+eax*4]
  000cf	03 55 e0	 add	 edx, DWORD PTR _intToneIndex$[ebp]
  000d2	8b 45 0c	 mov	 eax, DWORD PTR _intToneMags$[ebp]
  000d5	db 04 90	 fild	 DWORD PTR [eax+edx*4]
  000d8	d9 e8		 fld1
  000da	de c9		 fmulp	 ST(1), ST(0)
  000dc	db 45 ec	 fild	 DWORD PTR _int4ToneSum$[ebp]
  000df	d9 e8		 fld1
  000e1	de c9		 fmulp	 ST(1), ST(0)
  000e3	de f9		 fdivp	 ST(1), ST(0)
  000e5	d9 e8		 fld1
  000e7	de e1		 fsubrp	 ST(1), ST(0)
  000e9	d8 45 f8	 fadd	 DWORD PTR _dblDistance$[ebp]
  000ec	d9 5d f8	 fstp	 DWORD PTR _dblDistance$[ebp]

; 2167 : 		bytMask = bytMask >> 2;

  000ef	0f b6 45 d7	 movzx	 eax, BYTE PTR _bytMask$[ebp]
  000f3	c1 f8 02	 sar	 eax, 2
  000f6	88 45 d7	 mov	 BYTE PTR _bytMask$[ebp], al

; 2168 : 	}

  000f9	e9 32 ff ff ff	 jmp	 $LN8@ComputeDec
$LN7@ComputeDec:

; 2169 : 	
; 2170 : 	dblDistance = dblDistance / 5;		// normalize back to 0 to 1 range 

  000fe	d9 45 f8	 fld	 DWORD PTR _dblDistance$[ebp]
  00101	dc 35 00 00 00
	00		 fdiv	 QWORD PTR __real@4014000000000000
  00107	d9 5d f8	 fstp	 DWORD PTR _dblDistance$[ebp]

; 2171 : 	return dblDistance;

  0010a	d9 45 f8	 fld	 DWORD PTR _dblDistance$[ebp]

; 2172 : }

  0010d	5f		 pop	 edi
  0010e	5e		 pop	 esi
  0010f	5b		 pop	 ebx
  00110	81 c4 08 01 00
	00		 add	 esp, 264		; 00000108H
  00116	3b ec		 cmp	 ebp, esp
  00118	e8 00 00 00 00	 call	 __RTC_CheckEsp
  0011d	8b e5		 mov	 esp, ebp
  0011f	5d		 pop	 ebp
  00120	c3		 ret	 0
_ComputeDecodeDistance ENDP
_TEXT	ENDS
PUBLIC	??_C@_0DM@MMCJPBGI@?$CFs?5MD?5Decode?$DL11?5?5Type1?$DNH?$CFX?3?5Type@ ; `string'
PUBLIC	??_C@_0DM@LDOAGKPL@?$CFs?5MD?5Decode?$DL10?5?5Type1?$DNH?$CFX?3?5Type@ ; `string'
PUBLIC	__real@3fd999999999999a
PUBLIC	??_C@_0DI@BNEJFIPH@?$CFs?5MD?5Decode?$DL9?5ID?$DNH?$CFX?0?5Type?$DNH?$CFX?3@ ; `string'
PUBLIC	__real@3fd3333340000000
PUBLIC	??_C@_0EB@BCOFNDOC@?$CFs?5MD?5Decode?$DL8?5ID?$DNH?$CFX?0?5Critical?5@ ; `string'
PUBLIC	??_C@_0DH@CFIDCPDL@?$CFs?5MD?5Decode?$DL7?5ID?$DNH?$CFX?0?5Type?$DNH?$CFX?3@ ; `string'
PUBLIC	??_C@_0DH@EIBAKLEL@?$CFs?5MD?5Decode?$DL6?5ID?$DNH?$CFX?0?5Type?$DNH?$CFX?3@ ; `string'
PUBLIC	??_C@_0BM@OGGJMBJF@?$FLFrame?5Type?5Decode?5Fail?$FN?5?$CFs?$AA@ ; `string'
PUBLIC	??_C@_0DI@NFNMMBMF@?$CFs?5MD?5Decode?$DL5?5Type1?$DNH?$CFX?0?5Type2?$DN@ ; `string'
PUBLIC	??_C@_0DH@NBBCKENG@?$CFs?5MD?5Decode?$DL4?5ID?$DNH?$CFX?0?5Type?$DNH?$CFX?3@ ; `string'
PUBLIC	??_C@_0DH@FMDGNO@?$CFs?5MD?5Decode?$DL3?5ID?$DNH?$CFX?0?5Type?$DNH?$CFX?3@ ; `string'
PUBLIC	??_C@_0DH@KBGFLCDA@?$CFs?5MD?5Decode?$DL2?5ID?$DNH?$CFX?0?5Type?$DNH?$CFX?3@ ; `string'
PUBLIC	??_C@_0BM@ILHFPDON@?$FLFrame?5Type?5Decode?5OK?5?5?$FN?5?$CFs?$AA@ ; `string'
PUBLIC	??_C@_0DI@KEFMHJKE@?$CFs?5MD?5Decode?$DL1?5ID?$DNH?$CFX?0?5Type?$DNH29?3@ ; `string'
PUBLIC	__real@3fd3333333333333
PUBLIC	__real@40a00000
PUBLIC	_MinimalDistanceFrameType
EXTRN	_dblAvgDecodeDistance:DWORD
EXTRN	_intDecodeDistanceCount:DWORD
EXTRN	_blnARQConnected:DWORD
EXTRN	_bytLastARQSessionID:BYTE
EXTRN	_blnPending:DWORD
EXTRN	_bytValidFrameTypesLengthALL:DWORD
EXTRN	_bytValidFrameTypesALL:BYTE
EXTRN	_bytValidFrameTypesLength:DWORD
EXTRN	_bytValidFrameTypesLengthISS:DWORD
EXTRN	_bytValidFrameTypesISS:BYTE
EXTRN	_bytValidFrameTypes:DWORD
;	COMDAT ??_C@_0DM@MMCJPBGI@?$CFs?5MD?5Decode?$DL11?5?5Type1?$DNH?$CFX?3?5Type@
CONST	SEGMENT
??_C@_0DM@MMCJPBGI@?$CFs?5MD?5Decode?$DL11?5?5Type1?$DNH?$CFX?3?5Type@ DB '%'
	DB	's MD Decode;11  Type1=H%X: Type2=H%X: , D1= %.2f, D2= %.2f', 00H ; `string'
CONST	ENDS
;	COMDAT ??_C@_0DM@LDOAGKPL@?$CFs?5MD?5Decode?$DL10?5?5Type1?$DNH?$CFX?3?5Type@
CONST	SEGMENT
??_C@_0DM@LDOAGKPL@?$CFs?5MD?5Decode?$DL10?5?5Type1?$DNH?$CFX?3?5Type@ DB '%'
	DB	's MD Decode;10  Type1=H%X: Type2=H%X: , D1= %.2f, D2= %.2f', 00H ; `string'
CONST	ENDS
;	COMDAT __real@3fd999999999999a
CONST	SEGMENT
__real@3fd999999999999a DQ 03fd999999999999ar	; 0.4
CONST	ENDS
;	COMDAT ??_C@_0DI@BNEJFIPH@?$CFs?5MD?5Decode?$DL9?5ID?$DNH?$CFX?0?5Type?$DNH?$CFX?3@
CONST	SEGMENT
??_C@_0DI@BNEJFIPH@?$CFs?5MD?5Decode?$DL9?5ID?$DNH?$CFX?0?5Type?$DNH?$CFX?3@ DB '%'
	DB	's MD Decode;9 ID=H%X, Type=H%X: %s, D1= %.2f, D2= %.2f', 00H ; `string'
CONST	ENDS
;	COMDAT __real@3fd3333340000000
CONST	SEGMENT
__real@3fd3333340000000 DQ 03fd3333340000000r	; 0.3
CONST	ENDS
;	COMDAT ??_C@_0EB@BCOFNDOC@?$CFs?5MD?5Decode?$DL8?5ID?$DNH?$CFX?0?5Critical?5@
CONST	SEGMENT
??_C@_0EB@BCOFNDOC@?$CFs?5MD?5Decode?$DL8?5ID?$DNH?$CFX?0?5Critical?5@ DB '%'
	DB	's MD Decode;8 ID=H%X, Critical Type=H%X: %s, D1= %.2f, D2= %.'
	DB	'2f', 00H					; `string'
CONST	ENDS
;	COMDAT ??_C@_0DH@CFIDCPDL@?$CFs?5MD?5Decode?$DL7?5ID?$DNH?$CFX?0?5Type?$DNH?$CFX?3@
CONST	SEGMENT
??_C@_0DH@CFIDCPDL@?$CFs?5MD?5Decode?$DL7?5ID?$DNH?$CFX?0?5Type?$DNH?$CFX?3@ DB '%'
	DB	's MD Decode;7 ID=H%X, Type=H%X:%s, D1= %.2f, D3= %.2f', 00H ; `string'
CONST	ENDS
;	COMDAT ??_C@_0DH@EIBAKLEL@?$CFs?5MD?5Decode?$DL6?5ID?$DNH?$CFX?0?5Type?$DNH?$CFX?3@
CONST	SEGMENT
??_C@_0DH@EIBAKLEL@?$CFs?5MD?5Decode?$DL6?5ID?$DNH?$CFX?0?5Type?$DNH?$CFX?3@ DB '%'
	DB	's MD Decode;6 ID=H%X, Type=H%X:%s, D1= %.2f, D2= %.2f', 00H ; `string'
CONST	ENDS
;	COMDAT ??_C@_0BM@OGGJMBJF@?$FLFrame?5Type?5Decode?5Fail?$FN?5?$CFs?$AA@
CONST	SEGMENT
??_C@_0BM@OGGJMBJF@?$FLFrame?5Type?5Decode?5Fail?$FN?5?$CFs?$AA@ DB '[Fra'
	DB	'me Type Decode Fail] %s', 00H		; `string'
CONST	ENDS
;	COMDAT ??_C@_0DI@NFNMMBMF@?$CFs?5MD?5Decode?$DL5?5Type1?$DNH?$CFX?0?5Type2?$DN@
CONST	SEGMENT
??_C@_0DI@NFNMMBMF@?$CFs?5MD?5Decode?$DL5?5Type1?$DNH?$CFX?0?5Type2?$DN@ DB '%'
	DB	's MD Decode;5 Type1=H%X, Type2=H%X, D1= %.2f, D2= %.2f', 00H ; `string'
CONST	ENDS
;	COMDAT ??_C@_0DH@NBBCKENG@?$CFs?5MD?5Decode?$DL4?5ID?$DNH?$CFX?0?5Type?$DNH?$CFX?3@
CONST	SEGMENT
??_C@_0DH@NBBCKENG@?$CFs?5MD?5Decode?$DL4?5ID?$DNH?$CFX?0?5Type?$DNH?$CFX?3@ DB '%'
	DB	's MD Decode;4 ID=H%X, Type=H%X:%s, D1= %.2f, D2= %.2f', 00H ; `string'
CONST	ENDS
;	COMDAT ??_C@_0DH@FMDGNO@?$CFs?5MD?5Decode?$DL3?5ID?$DNH?$CFX?0?5Type?$DNH?$CFX?3@
CONST	SEGMENT
??_C@_0DH@FMDGNO@?$CFs?5MD?5Decode?$DL3?5ID?$DNH?$CFX?0?5Type?$DNH?$CFX?3@ DB '%'
	DB	's MD Decode;3 ID=H%X, Type=H%X:%s, D1= %.2f, D2= %.2f', 00H ; `string'
CONST	ENDS
;	COMDAT ??_C@_0DH@KBGFLCDA@?$CFs?5MD?5Decode?$DL2?5ID?$DNH?$CFX?0?5Type?$DNH?$CFX?3@
CONST	SEGMENT
??_C@_0DH@KBGFLCDA@?$CFs?5MD?5Decode?$DL2?5ID?$DNH?$CFX?0?5Type?$DNH?$CFX?3@ DB '%'
	DB	's MD Decode;2 ID=H%X, Type=H%X:%s, D1= %.2f, D2= %.2f', 00H ; `string'
CONST	ENDS
;	COMDAT ??_C@_0BM@ILHFPDON@?$FLFrame?5Type?5Decode?5OK?5?5?$FN?5?$CFs?$AA@
CONST	SEGMENT
??_C@_0BM@ILHFPDON@?$FLFrame?5Type?5Decode?5OK?5?5?$FN?5?$CFs?$AA@ DB '[F'
	DB	'rame Type Decode OK  ] %s', 00H		; `string'
CONST	ENDS
;	COMDAT ??_C@_0DI@KEFMHJKE@?$CFs?5MD?5Decode?$DL1?5ID?$DNH?$CFX?0?5Type?$DNH29?3@
CONST	SEGMENT
??_C@_0DI@KEFMHJKE@?$CFs?5MD?5Decode?$DL1?5ID?$DNH?$CFX?0?5Type?$DNH29?3@ DB '%'
	DB	's MD Decode;1 ID=H%X, Type=H29: %s, D1= %.2f, D3= %.2f', 00H ; `string'
CONST	ENDS
;	COMDAT __real@3fd3333333333333
CONST	SEGMENT
__real@3fd3333333333333 DQ 03fd3333333333333r	; 0.3
CONST	ENDS
;	COMDAT __real@40a00000
CONST	SEGMENT
__real@40a00000 DD 040a00000r			; 5
; Function compile flags: /Odtp /RTCsu /ZI
CONST	ENDS
;	COMDAT _MinimalDistanceFrameType
_TEXT	SEGMENT
tv571 = -352						; size = 4
$T7696 = -341						; size = 1
$T7697 = -329						; size = 1
$T7698 = -317						; size = 1
_i$ = -116						; size = 4
_dblDistance3$ = -104					; size = 4
_dblDistance2$ = -92					; size = 4
_dblDistance1$ = -80					; size = 4
_intIatMinDistance3$ = -68				; size = 4
_intIatMinDistance2$ = -56				; size = 4
_intIatMinDistance1$ = -44				; size = 4
_dblMinDistance3$ = -32					; size = 4
_dblMinDistance2$ = -20					; size = 4
_dblMinDistance1$ = -8					; size = 4
_intToneMags$ = 8					; size = 4
_bytSessionID$ = 12					; size = 1
_MinimalDistanceFrameType PROC				; COMDAT

; 2178 : {

  00000	55		 push	 ebp
  00001	8b ec		 mov	 ebp, esp
  00003	81 ec 60 01 00
	00		 sub	 esp, 352		; 00000160H
  00009	53		 push	 ebx
  0000a	56		 push	 esi
  0000b	57		 push	 edi
  0000c	8d bd a0 fe ff
	ff		 lea	 edi, DWORD PTR [ebp-352]
  00012	b9 58 00 00 00	 mov	 ecx, 88			; 00000058H
  00017	b8 cc cc cc cc	 mov	 eax, -858993460		; ccccccccH
  0001c	f3 ab		 rep stosd
  0001e	c6 85 b7 fe ff
	ff 00		 mov	 BYTE PTR $T7697[ebp], 0
  00025	c6 85 ab fe ff
	ff 00		 mov	 BYTE PTR $T7696[ebp], 0
  0002c	c6 85 c3 fe ff
	ff 00		 mov	 BYTE PTR $T7698[ebp], 0

; 2179 : 	float dblMinDistance1 = 5; // minimal distance for the first byte initialize to large value

  00033	d9 05 00 00 00
	00		 fld	 DWORD PTR __real@40a00000
  00039	d9 5d f8	 fstp	 DWORD PTR _dblMinDistance1$[ebp]

; 2180 : 	float dblMinDistance2 = 5; // minimal distance for the second byte initialize to large value

  0003c	d9 05 00 00 00
	00		 fld	 DWORD PTR __real@40a00000
  00042	d9 5d ec	 fstp	 DWORD PTR _dblMinDistance2$[ebp]

; 2181 : 	float dblMinDistance3 = 5; // minimal distance for the second byte under exceptional cases initialize to large value

  00045	d9 05 00 00 00
	00		 fld	 DWORD PTR __real@40a00000
  0004b	d9 5d e0	 fstp	 DWORD PTR _dblMinDistance3$[ebp]

; 2182 : 	int intIatMinDistance1, intIatMinDistance2, intIatMinDistance3;
; 2183 : 	float dblDistance1, dblDistance2, dblDistance3;
; 2184 : 	int i;
; 2185 : 
; 2186 : 	if (ProtocolState == ISS)

  0004e	83 3d 00 00 00
	00 02		 cmp	 DWORD PTR _ProtocolState, 2
  00055	75 16		 jne	 SHORT $LN43@MinimalDis

; 2187 : 	{
; 2188 : 		bytValidFrameTypes = bytValidFrameTypesISS;

  00057	c7 05 00 00 00
	00 00 00 00 00	 mov	 DWORD PTR _bytValidFrameTypes, OFFSET _bytValidFrameTypesISS

; 2189 : 		bytValidFrameTypesLength = bytValidFrameTypesLengthISS;

  00061	a1 00 00 00 00	 mov	 eax, DWORD PTR _bytValidFrameTypesLengthISS
  00066	a3 00 00 00 00	 mov	 DWORD PTR _bytValidFrameTypesLength, eax

; 2190 : 	}
; 2191 : 	else

  0006b	eb 14		 jmp	 SHORT $LN42@MinimalDis
$LN43@MinimalDis:

; 2192 : 	{
; 2193 : 		bytValidFrameTypes = bytValidFrameTypesALL;

  0006d	c7 05 00 00 00
	00 00 00 00 00	 mov	 DWORD PTR _bytValidFrameTypes, OFFSET _bytValidFrameTypesALL

; 2194 : 		bytValidFrameTypesLength = bytValidFrameTypesLengthALL;

  00077	a1 00 00 00 00	 mov	 eax, DWORD PTR _bytValidFrameTypesLengthALL
  0007c	a3 00 00 00 00	 mov	 DWORD PTR _bytValidFrameTypesLength, eax
$LN42@MinimalDis:

; 2195 : 	}
; 2196 : 
; 2197 : 	for (i = 0; i < bytValidFrameTypesLength; i++)

  00081	c7 45 8c 00 00
	00 00		 mov	 DWORD PTR _i$[ebp], 0
  00088	eb 09		 jmp	 SHORT $LN41@MinimalDis
$LN40@MinimalDis:
  0008a	8b 45 8c	 mov	 eax, DWORD PTR _i$[ebp]
  0008d	83 c0 01	 add	 eax, 1
  00090	89 45 8c	 mov	 DWORD PTR _i$[ebp], eax
$LN41@MinimalDis:
  00093	8b 45 8c	 mov	 eax, DWORD PTR _i$[ebp]
  00096	3b 05 00 00 00
	00		 cmp	 eax, DWORD PTR _bytValidFrameTypesLength
  0009c	0f 8d 11 01 00
	00		 jge	 $LN39@MinimalDis

; 2198 : 	{
; 2199 : 		dblDistance1 = ComputeDecodeDistance(0, intToneMags, bytValidFrameTypes[i], 0);

  000a2	6a 00		 push	 0
  000a4	a1 00 00 00 00	 mov	 eax, DWORD PTR _bytValidFrameTypes
  000a9	03 45 8c	 add	 eax, DWORD PTR _i$[ebp]
  000ac	8a 08		 mov	 cl, BYTE PTR [eax]
  000ae	51		 push	 ecx
  000af	8b 55 08	 mov	 edx, DWORD PTR _intToneMags$[ebp]
  000b2	52		 push	 edx
  000b3	6a 00		 push	 0
  000b5	e8 00 00 00 00	 call	 _ComputeDecodeDistance
  000ba	83 c4 10	 add	 esp, 16			; 00000010H
  000bd	d9 5d b0	 fstp	 DWORD PTR _dblDistance1$[ebp]

; 2200 : 		dblDistance2 = ComputeDecodeDistance(20, intToneMags, bytValidFrameTypes[i], bytSessionID);

  000c0	8a 45 0c	 mov	 al, BYTE PTR _bytSessionID$[ebp]
  000c3	50		 push	 eax
  000c4	8b 0d 00 00 00
	00		 mov	 ecx, DWORD PTR _bytValidFrameTypes
  000ca	03 4d 8c	 add	 ecx, DWORD PTR _i$[ebp]
  000cd	8a 11		 mov	 dl, BYTE PTR [ecx]
  000cf	52		 push	 edx
  000d0	8b 45 08	 mov	 eax, DWORD PTR _intToneMags$[ebp]
  000d3	50		 push	 eax
  000d4	6a 14		 push	 20			; 00000014H
  000d6	e8 00 00 00 00	 call	 _ComputeDecodeDistance
  000db	83 c4 10	 add	 esp, 16			; 00000010H
  000de	d9 5d a4	 fstp	 DWORD PTR _dblDistance2$[ebp]

; 2201 : 
; 2202 : 		if (blnPending)

  000e1	83 3d 00 00 00
	00 00		 cmp	 DWORD PTR _blnPending, 0
  000e8	74 23		 je	 SHORT $LN38@MinimalDis

; 2203 : 		    dblDistance3 = ComputeDecodeDistance(20, intToneMags, bytValidFrameTypes[i], 0xFF);

  000ea	68 ff 00 00 00	 push	 255			; 000000ffH
  000ef	a1 00 00 00 00	 mov	 eax, DWORD PTR _bytValidFrameTypes
  000f4	03 45 8c	 add	 eax, DWORD PTR _i$[ebp]
  000f7	8a 08		 mov	 cl, BYTE PTR [eax]
  000f9	51		 push	 ecx
  000fa	8b 55 08	 mov	 edx, DWORD PTR _intToneMags$[ebp]
  000fd	52		 push	 edx
  000fe	6a 14		 push	 20			; 00000014H
  00100	e8 00 00 00 00	 call	 _ComputeDecodeDistance
  00105	83 c4 10	 add	 esp, 16			; 00000010H
  00108	d9 5d 98	 fstp	 DWORD PTR _dblDistance3$[ebp]

; 2204 : 		else

  0010b	eb 23		 jmp	 SHORT $LN37@MinimalDis
$LN38@MinimalDis:

; 2205 : 			dblDistance3 = ComputeDecodeDistance(20, intToneMags, bytValidFrameTypes[i], bytLastARQSessionID);

  0010d	a0 00 00 00 00	 mov	 al, BYTE PTR _bytLastARQSessionID
  00112	50		 push	 eax
  00113	8b 0d 00 00 00
	00		 mov	 ecx, DWORD PTR _bytValidFrameTypes
  00119	03 4d 8c	 add	 ecx, DWORD PTR _i$[ebp]
  0011c	8a 11		 mov	 dl, BYTE PTR [ecx]
  0011e	52		 push	 edx
  0011f	8b 45 08	 mov	 eax, DWORD PTR _intToneMags$[ebp]
  00122	50		 push	 eax
  00123	6a 14		 push	 20			; 00000014H
  00125	e8 00 00 00 00	 call	 _ComputeDecodeDistance
  0012a	83 c4 10	 add	 esp, 16			; 00000010H
  0012d	d9 5d 98	 fstp	 DWORD PTR _dblDistance3$[ebp]
$LN37@MinimalDis:

; 2206 : 
; 2207 : 		if (dblDistance1 < dblMinDistance1)

  00130	d9 45 b0	 fld	 DWORD PTR _dblDistance1$[ebp]
  00133	d9 45 f8	 fld	 DWORD PTR _dblMinDistance1$[ebp]
  00136	de d9		 fcompp
  00138	df e0		 fnstsw	 ax
  0013a	f6 c4 41	 test	 ah, 65			; 00000041H
  0013d	75 1b		 jne	 SHORT $LN36@MinimalDis

; 2208 : 		{
; 2209 : 			dblMinDistance1 = dblDistance1;

  0013f	d9 45 b0	 fld	 DWORD PTR _dblDistance1$[ebp]
  00142	d9 5d f8	 fstp	 DWORD PTR _dblMinDistance1$[ebp]

; 2210 : 			intIatMinDistance1 = bytValidFrameTypes[i];

  00145	a1 00 00 00 00	 mov	 eax, DWORD PTR _bytValidFrameTypes
  0014a	03 45 8c	 add	 eax, DWORD PTR _i$[ebp]
  0014d	0f b6 08	 movzx	 ecx, BYTE PTR [eax]
  00150	c6 85 ab fe ff
	ff 01		 mov	 BYTE PTR $T7696[ebp], 1
  00157	89 4d d4	 mov	 DWORD PTR _intIatMinDistance1$[ebp], ecx
$LN36@MinimalDis:

; 2211 : 		}
; 2212 : 		if (dblDistance2 < dblMinDistance2)

  0015a	d9 45 a4	 fld	 DWORD PTR _dblDistance2$[ebp]
  0015d	d9 45 ec	 fld	 DWORD PTR _dblMinDistance2$[ebp]
  00160	de d9		 fcompp
  00162	df e0		 fnstsw	 ax
  00164	f6 c4 41	 test	 ah, 65			; 00000041H
  00167	75 1b		 jne	 SHORT $LN35@MinimalDis

; 2213 : 		{
; 2214 : 			dblMinDistance2 = dblDistance2;

  00169	d9 45 a4	 fld	 DWORD PTR _dblDistance2$[ebp]
  0016c	d9 5d ec	 fstp	 DWORD PTR _dblMinDistance2$[ebp]

; 2215 : 			intIatMinDistance2 = bytValidFrameTypes[i];

  0016f	a1 00 00 00 00	 mov	 eax, DWORD PTR _bytValidFrameTypes
  00174	03 45 8c	 add	 eax, DWORD PTR _i$[ebp]
  00177	0f b6 08	 movzx	 ecx, BYTE PTR [eax]
  0017a	c6 85 b7 fe ff
	ff 01		 mov	 BYTE PTR $T7697[ebp], 1
  00181	89 4d c8	 mov	 DWORD PTR _intIatMinDistance2$[ebp], ecx
$LN35@MinimalDis:

; 2216 : 		}
; 2217 : 		if (dblDistance3 < dblMinDistance3)

  00184	d9 45 98	 fld	 DWORD PTR _dblDistance3$[ebp]
  00187	d9 45 e0	 fld	 DWORD PTR _dblMinDistance3$[ebp]
  0018a	de d9		 fcompp
  0018c	df e0		 fnstsw	 ax
  0018e	f6 c4 41	 test	 ah, 65			; 00000041H
  00191	75 1b		 jne	 SHORT $LN34@MinimalDis

; 2218 : 		{
; 2219 : 			dblMinDistance3 = dblDistance3;

  00193	d9 45 98	 fld	 DWORD PTR _dblDistance3$[ebp]
  00196	d9 5d e0	 fstp	 DWORD PTR _dblMinDistance3$[ebp]

; 2220 : 			intIatMinDistance3 = bytValidFrameTypes[i];

  00199	a1 00 00 00 00	 mov	 eax, DWORD PTR _bytValidFrameTypes
  0019e	03 45 8c	 add	 eax, DWORD PTR _i$[ebp]
  001a1	0f b6 08	 movzx	 ecx, BYTE PTR [eax]
  001a4	c6 85 c3 fe ff
	ff 01		 mov	 BYTE PTR $T7698[ebp], 1
  001ab	89 4d bc	 mov	 DWORD PTR _intIatMinDistance3$[ebp], ecx
$LN34@MinimalDis:

; 2221 : 		}
; 2222 : 	}

  001ae	e9 d7 fe ff ff	 jmp	 $LN40@MinimalDis
$LN39@MinimalDis:

; 2223 : 
; 2224 : //	WriteDebugLog("%x %x %x Sess %x pend %d conn %d", intIatMinDistance1, intIatMinDistance2,
; 2225 : //		intIatMinDistance3, bytSessionID, blnPending, blnARQConnected); 
; 2226 : 	
; 2227 : 	if (bytSessionID == 0xFF)		// ' we are in a FEC QSO, monitoring an ARQ session or have not yet reached the ARQ Pending or Connected status 

  001b3	0f b6 45 0c	 movzx	 eax, BYTE PTR _bytSessionID$[ebp]
  001b7	3d ff 00 00 00	 cmp	 eax, 255		; 000000ffH
  001bc	0f 85 35 03 00
	00		 jne	 $LN33@MinimalDis

; 2228 : 	{
; 2229 : 		// This handles the special case of a DISC command received from the prior session (where the station sending DISC did not receive an END). 
; 2230 : 
; 2231 : 		if (intIatMinDistance1 == 0x29 && intIatMinDistance3 == 0x29 && ((dblMinDistance1 < 0.3) || (dblMinDistance3 < 0.3)))

  001c2	83 7d d4 29	 cmp	 DWORD PTR _intIatMinDistance1$[ebp], 41 ; 00000029H
  001c6	0f 85 ae 00 00
	00		 jne	 $LN32@MinimalDis
  001cc	80 bd c3 fe ff
	ff 00		 cmp	 BYTE PTR $T7698[ebp], 0
  001d3	75 0d		 jne	 SHORT $LN46@MinimalDis
  001d5	68 00 00 00 00	 push	 OFFSET $LN47@MinimalDis
  001da	e8 00 00 00 00	 call	 __RTC_UninitUse
  001df	83 c4 04	 add	 esp, 4
$LN46@MinimalDis:
  001e2	83 7d bc 29	 cmp	 DWORD PTR _intIatMinDistance3$[ebp], 41 ; 00000029H
  001e6	0f 85 8e 00 00
	00		 jne	 $LN32@MinimalDis
  001ec	d9 45 f8	 fld	 DWORD PTR _dblMinDistance1$[ebp]
  001ef	dc 1d 00 00 00
	00		 fcomp	 QWORD PTR __real@3fd3333333333333
  001f5	df e0		 fnstsw	 ax
  001f7	f6 c4 05	 test	 ah, 5
  001fa	7b 10		 jnp	 SHORT $LN31@MinimalDis
  001fc	d9 45 e0	 fld	 DWORD PTR _dblMinDistance3$[ebp]
  001ff	dc 1d 00 00 00
	00		 fcomp	 QWORD PTR __real@3fd3333333333333
  00205	df e0		 fnstsw	 ax
  00207	f6 c4 05	 test	 ah, 5
  0020a	7a 6e		 jp	 SHORT $LN32@MinimalDis
$LN31@MinimalDis:

; 2232 : 		{
; 2233 : 			sprintf(strDecodeCapture, "%s MD Decode;1 ID=H%X, Type=H29: %s, D1= %.2f, D3= %.2f",
; 2234 : 				 strDecodeCapture, bytLastARQSessionID, Name(intIatMinDistance1), dblMinDistance1, dblMinDistance3);

  0020c	80 bd ab fe ff
	ff 00		 cmp	 BYTE PTR $T7696[ebp], 0
  00213	75 0d		 jne	 SHORT $LN48@MinimalDis
  00215	68 00 00 00 00	 push	 OFFSET $LN49@MinimalDis
  0021a	e8 00 00 00 00	 call	 __RTC_UninitUse
  0021f	83 c4 04	 add	 esp, 4
$LN48@MinimalDis:
  00222	d9 45 e0	 fld	 DWORD PTR _dblMinDistance3$[ebp]
  00225	83 ec 08	 sub	 esp, 8
  00228	dd 1c 24	 fstp	 QWORD PTR [esp]
  0022b	d9 45 f8	 fld	 DWORD PTR _dblMinDistance1$[ebp]
  0022e	83 ec 08	 sub	 esp, 8
  00231	dd 1c 24	 fstp	 QWORD PTR [esp]
  00234	8a 45 d4	 mov	 al, BYTE PTR _intIatMinDistance1$[ebp]
  00237	50		 push	 eax
  00238	e8 00 00 00 00	 call	 _Name
  0023d	83 c4 04	 add	 esp, 4
  00240	50		 push	 eax
  00241	0f b6 0d 00 00
	00 00		 movzx	 ecx, BYTE PTR _bytLastARQSessionID
  00248	51		 push	 ecx
  00249	68 00 00 00 00	 push	 OFFSET _strDecodeCapture
  0024e	68 00 00 00 00	 push	 OFFSET ??_C@_0DI@KEFMHJKE@?$CFs?5MD?5Decode?$DL1?5ID?$DNH?$CFX?0?5Type?$DNH29?3@
  00253	68 00 00 00 00	 push	 OFFSET _strDecodeCapture
  00258	e8 00 00 00 00	 call	 _sprintf
  0025d	83 c4 24	 add	 esp, 36			; 00000024H

; 2235 : 			
; 2236 : 			WriteDebugLog("[Frame Type Decode OK  ] %s", strDecodeCapture);

  00260	68 00 00 00 00	 push	 OFFSET _strDecodeCapture
  00265	68 00 00 00 00	 push	 OFFSET ??_C@_0BM@ILHFPDON@?$FLFrame?5Type?5Decode?5OK?5?5?$FN?5?$CFs?$AA@
  0026a	e8 00 00 00 00	 call	 _WriteDebugLog
  0026f	83 c4 08	 add	 esp, 8

; 2237 : 
; 2238 : 			return intIatMinDistance1;

  00272	8b 45 d4	 mov	 eax, DWORD PTR _intIatMinDistance1$[ebp]
  00275	e9 f2 06 00 00	 jmp	 $LN44@MinimalDis
$LN32@MinimalDis:

; 2239 : 		}
; 2240 : 		
; 2241 : 		// no risk of damage to an existing ARQConnection with END, BREAK, DISC, or ACK frames so loosen decoding threshold 
; 2242 : 
; 2243 : 		if (intIatMinDistance1 == intIatMinDistance2 && ((dblMinDistance1 < 0.3) || (dblMinDistance2 < 0.3)))

  0027a	8b 45 d4	 mov	 eax, DWORD PTR _intIatMinDistance1$[ebp]
  0027d	3b 45 c8	 cmp	 eax, DWORD PTR _intIatMinDistance2$[ebp]
  00280	0f 85 a9 00 00
	00		 jne	 $LN30@MinimalDis
  00286	d9 45 f8	 fld	 DWORD PTR _dblMinDistance1$[ebp]
  00289	dc 1d 00 00 00
	00		 fcomp	 QWORD PTR __real@3fd3333333333333
  0028f	df e0		 fnstsw	 ax
  00291	f6 c4 05	 test	 ah, 5
  00294	7b 14		 jnp	 SHORT $LN29@MinimalDis
  00296	d9 45 ec	 fld	 DWORD PTR _dblMinDistance2$[ebp]
  00299	dc 1d 00 00 00
	00		 fcomp	 QWORD PTR __real@3fd3333333333333
  0029f	df e0		 fnstsw	 ax
  002a1	f6 c4 05	 test	 ah, 5
  002a4	0f 8a 85 00 00
	00		 jp	 $LN30@MinimalDis
$LN29@MinimalDis:

; 2244 : 		{
; 2245 : 			sprintf(strDecodeCapture, "%s MD Decode;2 ID=H%X, Type=H%X:%s, D1= %.2f, D2= %.2f",
; 2246 : 				 strDecodeCapture, bytSessionID, intIatMinDistance1, Name(intIatMinDistance1), dblMinDistance1, dblMinDistance2);

  002aa	80 bd ab fe ff
	ff 00		 cmp	 BYTE PTR $T7696[ebp], 0
  002b1	75 0d		 jne	 SHORT $LN50@MinimalDis
  002b3	68 00 00 00 00	 push	 OFFSET $LN49@MinimalDis
  002b8	e8 00 00 00 00	 call	 __RTC_UninitUse
  002bd	83 c4 04	 add	 esp, 4
$LN50@MinimalDis:
  002c0	d9 45 ec	 fld	 DWORD PTR _dblMinDistance2$[ebp]
  002c3	83 ec 08	 sub	 esp, 8
  002c6	dd 1c 24	 fstp	 QWORD PTR [esp]
  002c9	d9 45 f8	 fld	 DWORD PTR _dblMinDistance1$[ebp]
  002cc	83 ec 08	 sub	 esp, 8
  002cf	dd 1c 24	 fstp	 QWORD PTR [esp]
  002d2	8a 45 d4	 mov	 al, BYTE PTR _intIatMinDistance1$[ebp]
  002d5	50		 push	 eax
  002d6	e8 00 00 00 00	 call	 _Name
  002db	83 c4 04	 add	 esp, 4
  002de	50		 push	 eax
  002df	8b 4d d4	 mov	 ecx, DWORD PTR _intIatMinDistance1$[ebp]
  002e2	51		 push	 ecx
  002e3	0f b6 55 0c	 movzx	 edx, BYTE PTR _bytSessionID$[ebp]
  002e7	52		 push	 edx
  002e8	68 00 00 00 00	 push	 OFFSET _strDecodeCapture
  002ed	68 00 00 00 00	 push	 OFFSET ??_C@_0DH@KBGFLCDA@?$CFs?5MD?5Decode?$DL2?5ID?$DNH?$CFX?0?5Type?$DNH?$CFX?3@
  002f2	68 00 00 00 00	 push	 OFFSET _strDecodeCapture
  002f7	e8 00 00 00 00	 call	 _sprintf
  002fc	83 c4 28	 add	 esp, 40			; 00000028H

; 2247 : 			WriteDebugLog("[Frame Type Decode OK  ] %s", strDecodeCapture);

  002ff	68 00 00 00 00	 push	 OFFSET _strDecodeCapture
  00304	68 00 00 00 00	 push	 OFFSET ??_C@_0BM@ILHFPDON@?$FLFrame?5Type?5Decode?5OK?5?5?$FN?5?$CFs?$AA@
  00309	e8 00 00 00 00	 call	 _WriteDebugLog
  0030e	83 c4 08	 add	 esp, 8

; 2248 : 			dblOffsetLastGoodDecode = dblOffsetHz;

  00311	d9 05 00 00 00
	00		 fld	 DWORD PTR _dblOffsetHz
  00317	d9 1d 00 00 00
	00		 fstp	 DWORD PTR _dblOffsetLastGoodDecode

; 2249 : 			dttLastGoodFrameTypeDecode = Now;

  0031d	e8 00 00 00 00	 call	 _getTicks
  00322	a3 00 00 00 00	 mov	 DWORD PTR _dttLastGoodFrameTypeDecode, eax

; 2250 : 
; 2251 : 			return intIatMinDistance1;

  00327	8b 45 d4	 mov	 eax, DWORD PTR _intIatMinDistance1$[ebp]
  0032a	e9 3d 06 00 00	 jmp	 $LN44@MinimalDis
$LN30@MinimalDis:

; 2252 : 		}
; 2253 : 		if ((dblMinDistance1 < 0.3) && (dblMinDistance1 < dblMinDistance2) && IsDataFrame(intIatMinDistance1) )	//  this would handle the case of monitoring an ARQ connection where the SessionID is not 0xFF

  0032f	d9 45 f8	 fld	 DWORD PTR _dblMinDistance1$[ebp]
  00332	dc 1d 00 00 00
	00		 fcomp	 QWORD PTR __real@3fd3333333333333
  00338	df e0		 fnstsw	 ax
  0033a	f6 c4 05	 test	 ah, 5
  0033d	0f 8a a8 00 00
	00		 jp	 $LN28@MinimalDis
  00343	d9 45 f8	 fld	 DWORD PTR _dblMinDistance1$[ebp]
  00346	d9 45 ec	 fld	 DWORD PTR _dblMinDistance2$[ebp]
  00349	de d9		 fcompp
  0034b	df e0		 fnstsw	 ax
  0034d	f6 c4 41	 test	 ah, 65			; 00000041H
  00350	0f 85 95 00 00
	00		 jne	 $LN28@MinimalDis
  00356	80 bd ab fe ff
	ff 00		 cmp	 BYTE PTR $T7696[ebp], 0
  0035d	75 0d		 jne	 SHORT $LN51@MinimalDis
  0035f	68 00 00 00 00	 push	 OFFSET $LN49@MinimalDis
  00364	e8 00 00 00 00	 call	 __RTC_UninitUse
  00369	83 c4 04	 add	 esp, 4
$LN51@MinimalDis:
  0036c	8a 45 d4	 mov	 al, BYTE PTR _intIatMinDistance1$[ebp]
  0036f	50		 push	 eax
  00370	e8 00 00 00 00	 call	 _IsDataFrame
  00375	83 c4 04	 add	 esp, 4
  00378	85 c0		 test	 eax, eax
  0037a	74 6f		 je	 SHORT $LN28@MinimalDis

; 2254 : 		{
; 2255 : 			sprintf(strDecodeCapture, "%s MD Decode;3 ID=H%X, Type=H%X:%s, D1= %.2f, D2= %.2f",
; 2256 : 				 strDecodeCapture, bytSessionID, intIatMinDistance1, Name(intIatMinDistance1), dblMinDistance1, dblMinDistance2);

  0037c	80 bd ab fe ff
	ff 00		 cmp	 BYTE PTR $T7696[ebp], 0
  00383	75 0d		 jne	 SHORT $LN52@MinimalDis
  00385	68 00 00 00 00	 push	 OFFSET $LN49@MinimalDis
  0038a	e8 00 00 00 00	 call	 __RTC_UninitUse
  0038f	83 c4 04	 add	 esp, 4
$LN52@MinimalDis:
  00392	d9 45 ec	 fld	 DWORD PTR _dblMinDistance2$[ebp]
  00395	83 ec 08	 sub	 esp, 8
  00398	dd 1c 24	 fstp	 QWORD PTR [esp]
  0039b	d9 45 f8	 fld	 DWORD PTR _dblMinDistance1$[ebp]
  0039e	83 ec 08	 sub	 esp, 8
  003a1	dd 1c 24	 fstp	 QWORD PTR [esp]
  003a4	8a 45 d4	 mov	 al, BYTE PTR _intIatMinDistance1$[ebp]
  003a7	50		 push	 eax
  003a8	e8 00 00 00 00	 call	 _Name
  003ad	83 c4 04	 add	 esp, 4
  003b0	50		 push	 eax
  003b1	8b 4d d4	 mov	 ecx, DWORD PTR _intIatMinDistance1$[ebp]
  003b4	51		 push	 ecx
  003b5	0f b6 55 0c	 movzx	 edx, BYTE PTR _bytSessionID$[ebp]
  003b9	52		 push	 edx
  003ba	68 00 00 00 00	 push	 OFFSET _strDecodeCapture
  003bf	68 00 00 00 00	 push	 OFFSET ??_C@_0DH@FMDGNO@?$CFs?5MD?5Decode?$DL3?5ID?$DNH?$CFX?0?5Type?$DNH?$CFX?3@
  003c4	68 00 00 00 00	 push	 OFFSET _strDecodeCapture
  003c9	e8 00 00 00 00	 call	 _sprintf
  003ce	83 c4 28	 add	 esp, 40			; 00000028H

; 2257 : 			WriteDebugLog("[Frame Type Decode OK  ] %s", strDecodeCapture);

  003d1	68 00 00 00 00	 push	 OFFSET _strDecodeCapture
  003d6	68 00 00 00 00	 push	 OFFSET ??_C@_0BM@ILHFPDON@?$FLFrame?5Type?5Decode?5OK?5?5?$FN?5?$CFs?$AA@
  003db	e8 00 00 00 00	 call	 _WriteDebugLog
  003e0	83 c4 08	 add	 esp, 8

; 2258 : 			
; 2259 : 			return intIatMinDistance1;

  003e3	8b 45 d4	 mov	 eax, DWORD PTR _intIatMinDistance1$[ebp]
  003e6	e9 81 05 00 00	 jmp	 $LN44@MinimalDis
$LN28@MinimalDis:

; 2260 : 		}
; 2261 : 
; 2262 : 		if ((dblMinDistance2 < 0.3) && (dblMinDistance2 < dblMinDistance1) && IsDataFrame(intIatMinDistance2))  // this would handle the case of monitoring an FEC transmission that failed above when the session ID is = 0xFF

  003eb	d9 45 ec	 fld	 DWORD PTR _dblMinDistance2$[ebp]
  003ee	dc 1d 00 00 00
	00		 fcomp	 QWORD PTR __real@3fd3333333333333
  003f4	df e0		 fnstsw	 ax
  003f6	f6 c4 05	 test	 ah, 5
  003f9	0f 8a a8 00 00
	00		 jp	 $LN27@MinimalDis
  003ff	d9 45 ec	 fld	 DWORD PTR _dblMinDistance2$[ebp]
  00402	d9 45 f8	 fld	 DWORD PTR _dblMinDistance1$[ebp]
  00405	de d9		 fcompp
  00407	df e0		 fnstsw	 ax
  00409	f6 c4 41	 test	 ah, 65			; 00000041H
  0040c	0f 85 95 00 00
	00		 jne	 $LN27@MinimalDis
  00412	80 bd b7 fe ff
	ff 00		 cmp	 BYTE PTR $T7697[ebp], 0
  00419	75 0d		 jne	 SHORT $LN53@MinimalDis
  0041b	68 00 00 00 00	 push	 OFFSET $LN54@MinimalDis
  00420	e8 00 00 00 00	 call	 __RTC_UninitUse
  00425	83 c4 04	 add	 esp, 4
$LN53@MinimalDis:
  00428	8a 45 c8	 mov	 al, BYTE PTR _intIatMinDistance2$[ebp]
  0042b	50		 push	 eax
  0042c	e8 00 00 00 00	 call	 _IsDataFrame
  00431	83 c4 04	 add	 esp, 4
  00434	85 c0		 test	 eax, eax
  00436	74 6f		 je	 SHORT $LN27@MinimalDis

; 2263 : 		{
; 2264 : 			sprintf(strDecodeCapture, "%s MD Decode;4 ID=H%X, Type=H%X:%s, D1= %.2f, D2= %.2f",
; 2265 : 				 strDecodeCapture, bytSessionID, intIatMinDistance1, Name(intIatMinDistance1), dblMinDistance1, dblMinDistance2);

  00438	80 bd ab fe ff
	ff 00		 cmp	 BYTE PTR $T7696[ebp], 0
  0043f	75 0d		 jne	 SHORT $LN55@MinimalDis
  00441	68 00 00 00 00	 push	 OFFSET $LN49@MinimalDis
  00446	e8 00 00 00 00	 call	 __RTC_UninitUse
  0044b	83 c4 04	 add	 esp, 4
$LN55@MinimalDis:
  0044e	d9 45 ec	 fld	 DWORD PTR _dblMinDistance2$[ebp]
  00451	83 ec 08	 sub	 esp, 8
  00454	dd 1c 24	 fstp	 QWORD PTR [esp]
  00457	d9 45 f8	 fld	 DWORD PTR _dblMinDistance1$[ebp]
  0045a	83 ec 08	 sub	 esp, 8
  0045d	dd 1c 24	 fstp	 QWORD PTR [esp]
  00460	8a 45 d4	 mov	 al, BYTE PTR _intIatMinDistance1$[ebp]
  00463	50		 push	 eax
  00464	e8 00 00 00 00	 call	 _Name
  00469	83 c4 04	 add	 esp, 4
  0046c	50		 push	 eax
  0046d	8b 4d d4	 mov	 ecx, DWORD PTR _intIatMinDistance1$[ebp]
  00470	51		 push	 ecx
  00471	0f b6 55 0c	 movzx	 edx, BYTE PTR _bytSessionID$[ebp]
  00475	52		 push	 edx
  00476	68 00 00 00 00	 push	 OFFSET _strDecodeCapture
  0047b	68 00 00 00 00	 push	 OFFSET ??_C@_0DH@NBBCKENG@?$CFs?5MD?5Decode?$DL4?5ID?$DNH?$CFX?0?5Type?$DNH?$CFX?3@
  00480	68 00 00 00 00	 push	 OFFSET _strDecodeCapture
  00485	e8 00 00 00 00	 call	 _sprintf
  0048a	83 c4 28	 add	 esp, 40			; 00000028H

; 2266 : 			WriteDebugLog("[Frame Type Decode OK  ] %s", strDecodeCapture);

  0048d	68 00 00 00 00	 push	 OFFSET _strDecodeCapture
  00492	68 00 00 00 00	 push	 OFFSET ??_C@_0BM@ILHFPDON@?$FLFrame?5Type?5Decode?5OK?5?5?$FN?5?$CFs?$AA@
  00497	e8 00 00 00 00	 call	 _WriteDebugLog
  0049c	83 c4 08	 add	 esp, 8

; 2267 : 
; 2268 : 			return intIatMinDistance2;

  0049f	8b 45 c8	 mov	 eax, DWORD PTR _intIatMinDistance2$[ebp]
  004a2	e9 c5 04 00 00	 jmp	 $LN44@MinimalDis
$LN27@MinimalDis:

; 2269 : 		}
; 2270 : 
; 2271 : 		sprintf(strDecodeCapture, "%s MD Decode;5 Type1=H%X, Type2=H%X, D1= %.2f, D2= %.2f",
; 2272 : 			 strDecodeCapture, intIatMinDistance1, intIatMinDistance2, dblMinDistance1, dblMinDistance2);

  004a7	d9 45 ec	 fld	 DWORD PTR _dblMinDistance2$[ebp]
  004aa	83 ec 08	 sub	 esp, 8
  004ad	dd 1c 24	 fstp	 QWORD PTR [esp]
  004b0	d9 45 f8	 fld	 DWORD PTR _dblMinDistance1$[ebp]
  004b3	83 ec 08	 sub	 esp, 8
  004b6	dd 1c 24	 fstp	 QWORD PTR [esp]
  004b9	8b 45 c8	 mov	 eax, DWORD PTR _intIatMinDistance2$[ebp]
  004bc	50		 push	 eax
  004bd	8b 4d d4	 mov	 ecx, DWORD PTR _intIatMinDistance1$[ebp]
  004c0	51		 push	 ecx
  004c1	68 00 00 00 00	 push	 OFFSET _strDecodeCapture
  004c6	68 00 00 00 00	 push	 OFFSET ??_C@_0DI@NFNMMBMF@?$CFs?5MD?5Decode?$DL5?5Type1?$DNH?$CFX?0?5Type2?$DN@
  004cb	68 00 00 00 00	 push	 OFFSET _strDecodeCapture
  004d0	e8 00 00 00 00	 call	 _sprintf
  004d5	83 c4 24	 add	 esp, 36			; 00000024H

; 2273 : 		WriteDebugLog("[Frame Type Decode Fail] %s", strDecodeCapture);

  004d8	68 00 00 00 00	 push	 OFFSET _strDecodeCapture
  004dd	68 00 00 00 00	 push	 OFFSET ??_C@_0BM@OGGJMBJF@?$FLFrame?5Type?5Decode?5Fail?$FN?5?$CFs?$AA@
  004e2	e8 00 00 00 00	 call	 _WriteDebugLog
  004e7	83 c4 08	 add	 esp, 8

; 2274 : 		
; 2275 : 		return -1;		// indicates poor quality decode so  don't use

  004ea	83 c8 ff	 or	 eax, -1
  004ed	e9 7a 04 00 00	 jmp	 $LN44@MinimalDis
  004f2	e9 2f 04 00 00	 jmp	 $LN1@MinimalDis
$LN33@MinimalDis:

; 2276 : 
; 2277 : 	}
; 2278 : 
; 2279 : 	else if (blnPending)		 // We have a Pending ARQ connection 

  004f7	83 3d 00 00 00
	00 00		 cmp	 DWORD PTR _blnPending, 0
  004fe	0f 84 c6 01 00
	00		 je	 $LN25@MinimalDis

; 2280 : 	{
; 2281 : 		// this should be a Con Ack from the ISS if we are Pending
; 2282 : 
; 2283 : 		if (intIatMinDistance1 == intIatMinDistance2)  // matching indexes at minimal distances so high probablity of correct decode.

  00504	8b 45 d4	 mov	 eax, DWORD PTR _intIatMinDistance1$[ebp]
  00507	3b 45 c8	 cmp	 eax, DWORD PTR _intIatMinDistance2$[ebp]
  0050a	0f 85 c6 00 00
	00		 jne	 $LN24@MinimalDis

; 2284 : 		{
; 2285 : 			sprintf(strDecodeCapture, "%s MD Decode;6 ID=H%X, Type=H%X:%s, D1= %.2f, D2= %.2f",
; 2286 : 				 strDecodeCapture, bytSessionID, intIatMinDistance1, Name(intIatMinDistance1), dblMinDistance1, dblMinDistance2);

  00510	80 bd ab fe ff
	ff 00		 cmp	 BYTE PTR $T7696[ebp], 0
  00517	75 0d		 jne	 SHORT $LN56@MinimalDis
  00519	68 00 00 00 00	 push	 OFFSET $LN49@MinimalDis
  0051e	e8 00 00 00 00	 call	 __RTC_UninitUse
  00523	83 c4 04	 add	 esp, 4
$LN56@MinimalDis:
  00526	d9 45 ec	 fld	 DWORD PTR _dblMinDistance2$[ebp]
  00529	83 ec 08	 sub	 esp, 8
  0052c	dd 1c 24	 fstp	 QWORD PTR [esp]
  0052f	d9 45 f8	 fld	 DWORD PTR _dblMinDistance1$[ebp]
  00532	83 ec 08	 sub	 esp, 8
  00535	dd 1c 24	 fstp	 QWORD PTR [esp]
  00538	8a 45 d4	 mov	 al, BYTE PTR _intIatMinDistance1$[ebp]
  0053b	50		 push	 eax
  0053c	e8 00 00 00 00	 call	 _Name
  00541	83 c4 04	 add	 esp, 4
  00544	50		 push	 eax
  00545	8b 4d d4	 mov	 ecx, DWORD PTR _intIatMinDistance1$[ebp]
  00548	51		 push	 ecx
  00549	0f b6 55 0c	 movzx	 edx, BYTE PTR _bytSessionID$[ebp]
  0054d	52		 push	 edx
  0054e	68 00 00 00 00	 push	 OFFSET _strDecodeCapture
  00553	68 00 00 00 00	 push	 OFFSET ??_C@_0DH@EIBAKLEL@?$CFs?5MD?5Decode?$DL6?5ID?$DNH?$CFX?0?5Type?$DNH?$CFX?3@
  00558	68 00 00 00 00	 push	 OFFSET _strDecodeCapture
  0055d	e8 00 00 00 00	 call	 _sprintf
  00562	83 c4 28	 add	 esp, 40			; 00000028H

; 2287 : 
; 2288 : 
; 2289 : 			if ((dblMinDistance1 < 0.3) || (dblMinDistance2 < 0.3))

  00565	d9 45 f8	 fld	 DWORD PTR _dblMinDistance1$[ebp]
  00568	dc 1d 00 00 00
	00		 fcomp	 QWORD PTR __real@3fd3333333333333
  0056e	df e0		 fnstsw	 ax
  00570	f6 c4 05	 test	 ah, 5
  00573	7b 10		 jnp	 SHORT $LN22@MinimalDis
  00575	d9 45 ec	 fld	 DWORD PTR _dblMinDistance2$[ebp]
  00578	dc 1d 00 00 00
	00		 fcomp	 QWORD PTR __real@3fd3333333333333
  0057e	df e0		 fnstsw	 ax
  00580	f6 c4 05	 test	 ah, 5
  00583	7a 32		 jp	 SHORT $LN23@MinimalDis
$LN22@MinimalDis:

; 2290 : 			{
; 2291 : 				dblOffsetLastGoodDecode = dblOffsetHz;

  00585	d9 05 00 00 00
	00		 fld	 DWORD PTR _dblOffsetHz
  0058b	d9 1d 00 00 00
	00		 fstp	 DWORD PTR _dblOffsetLastGoodDecode

; 2292 : 				dttLastGoodFrameTypeDecode = Now;		// This allows restricting tuning changes to about +/- 4Hz from last dblOffsetHz

  00591	e8 00 00 00 00	 call	 _getTicks
  00596	a3 00 00 00 00	 mov	 DWORD PTR _dttLastGoodFrameTypeDecode, eax

; 2293 : 				WriteDebugLog("[Frame Type Decode OK  ] %s", strDecodeCapture);

  0059b	68 00 00 00 00	 push	 OFFSET _strDecodeCapture
  005a0	68 00 00 00 00	 push	 OFFSET ??_C@_0BM@ILHFPDON@?$FLFrame?5Type?5Decode?5OK?5?5?$FN?5?$CFs?$AA@
  005a5	e8 00 00 00 00	 call	 _WriteDebugLog
  005aa	83 c4 08	 add	 esp, 8

; 2294 : 				return intIatMinDistance1;

  005ad	8b 45 d4	 mov	 eax, DWORD PTR _intIatMinDistance1$[ebp]
  005b0	e9 b7 03 00 00	 jmp	 $LN44@MinimalDis

; 2295 : 			}
; 2296 : 			else

  005b5	eb 1a		 jmp	 SHORT $LN21@MinimalDis
$LN23@MinimalDis:

; 2297 : 			{
; 2298 : 				WriteDebugLog("[Frame Type Decode Fail] %s", strDecodeCapture);

  005b7	68 00 00 00 00	 push	 OFFSET _strDecodeCapture
  005bc	68 00 00 00 00	 push	 OFFSET ??_C@_0BM@OGGJMBJF@?$FLFrame?5Type?5Decode?5Fail?$FN?5?$CFs?$AA@
  005c1	e8 00 00 00 00	 call	 _WriteDebugLog
  005c6	83 c4 08	 add	 esp, 8

; 2299 : 				return -1;		 // indicates poor quality decode so  don't use

  005c9	83 c8 ff	 or	 eax, -1
  005cc	e9 9b 03 00 00	 jmp	 $LN44@MinimalDis
$LN21@MinimalDis:

; 2300 : 			}

  005d1	e9 ef 00 00 00	 jmp	 $LN16@MinimalDis
$LN24@MinimalDis:

; 2301 : 		}
; 2302 : 
; 2303 : 		//	handles the case of a received ConReq frame based on an ID of &HFF (ISS must have missed ConAck reply from IRS so repeated ConReq)
; 2304 : 
; 2305 : 		else if (intIatMinDistance1 == intIatMinDistance3)	 //matching indexes at minimal distances so high probablity of correct decode.

  005d6	80 bd c3 fe ff
	ff 00		 cmp	 BYTE PTR $T7698[ebp], 0
  005dd	75 0d		 jne	 SHORT $LN57@MinimalDis
  005df	68 00 00 00 00	 push	 OFFSET $LN47@MinimalDis
  005e4	e8 00 00 00 00	 call	 __RTC_UninitUse
  005e9	83 c4 04	 add	 esp, 4
$LN57@MinimalDis:
  005ec	8b 45 d4	 mov	 eax, DWORD PTR _intIatMinDistance1$[ebp]
  005ef	3b 45 bc	 cmp	 eax, DWORD PTR _intIatMinDistance3$[ebp]
  005f2	0f 85 cd 00 00
	00		 jne	 $LN16@MinimalDis

; 2306 : 		{
; 2307 : 			sprintf(strDecodeCapture, "%s MD Decode;7 ID=H%X, Type=H%X:%s, D1= %.2f, D3= %.2f",
; 2308 : 				 strDecodeCapture, bytSessionID, intIatMinDistance1, Name(intIatMinDistance1), dblMinDistance1, dblMinDistance3);

  005f8	80 bd ab fe ff
	ff 00		 cmp	 BYTE PTR $T7696[ebp], 0
  005ff	75 0d		 jne	 SHORT $LN58@MinimalDis
  00601	68 00 00 00 00	 push	 OFFSET $LN49@MinimalDis
  00606	e8 00 00 00 00	 call	 __RTC_UninitUse
  0060b	83 c4 04	 add	 esp, 4
$LN58@MinimalDis:
  0060e	d9 45 e0	 fld	 DWORD PTR _dblMinDistance3$[ebp]
  00611	83 ec 08	 sub	 esp, 8
  00614	dd 1c 24	 fstp	 QWORD PTR [esp]
  00617	d9 45 f8	 fld	 DWORD PTR _dblMinDistance1$[ebp]
  0061a	83 ec 08	 sub	 esp, 8
  0061d	dd 1c 24	 fstp	 QWORD PTR [esp]
  00620	8a 45 d4	 mov	 al, BYTE PTR _intIatMinDistance1$[ebp]
  00623	50		 push	 eax
  00624	e8 00 00 00 00	 call	 _Name
  00629	83 c4 04	 add	 esp, 4
  0062c	50		 push	 eax
  0062d	8b 4d d4	 mov	 ecx, DWORD PTR _intIatMinDistance1$[ebp]
  00630	51		 push	 ecx
  00631	0f b6 55 0c	 movzx	 edx, BYTE PTR _bytSessionID$[ebp]
  00635	52		 push	 edx
  00636	68 00 00 00 00	 push	 OFFSET _strDecodeCapture
  0063b	68 00 00 00 00	 push	 OFFSET ??_C@_0DH@CFIDCPDL@?$CFs?5MD?5Decode?$DL7?5ID?$DNH?$CFX?0?5Type?$DNH?$CFX?3@
  00640	68 00 00 00 00	 push	 OFFSET _strDecodeCapture
  00645	e8 00 00 00 00	 call	 _sprintf
  0064a	83 c4 28	 add	 esp, 40			; 00000028H

; 2309 : 
; 2310 : 			if (intIatMinDistance1 >= 0x31 && intIatMinDistance1 <= 0x38 && ((dblMinDistance1 < 0.3) || (dblMinDistance3 < 0.3)))  // Check for ConReq (ISS must have missed previous ConAck  

  0064d	83 7d d4 31	 cmp	 DWORD PTR _intIatMinDistance1$[ebp], 49 ; 00000031H
  00651	7c 58		 jl	 SHORT $LN18@MinimalDis
  00653	83 7d d4 38	 cmp	 DWORD PTR _intIatMinDistance1$[ebp], 56 ; 00000038H
  00657	7f 52		 jg	 SHORT $LN18@MinimalDis
  00659	d9 45 f8	 fld	 DWORD PTR _dblMinDistance1$[ebp]
  0065c	dc 1d 00 00 00
	00		 fcomp	 QWORD PTR __real@3fd3333333333333
  00662	df e0		 fnstsw	 ax
  00664	f6 c4 05	 test	 ah, 5
  00667	7b 10		 jnp	 SHORT $LN17@MinimalDis
  00669	d9 45 e0	 fld	 DWORD PTR _dblMinDistance3$[ebp]
  0066c	dc 1d 00 00 00
	00		 fcomp	 QWORD PTR __real@3fd3333333333333
  00672	df e0		 fnstsw	 ax
  00674	f6 c4 05	 test	 ah, 5
  00677	7a 32		 jp	 SHORT $LN18@MinimalDis
$LN17@MinimalDis:

; 2311 : 			{
; 2312 : 				dblOffsetLastGoodDecode = dblOffsetHz;

  00679	d9 05 00 00 00
	00		 fld	 DWORD PTR _dblOffsetHz
  0067f	d9 1d 00 00 00
	00		 fstp	 DWORD PTR _dblOffsetLastGoodDecode

; 2313 : 				dttLastGoodFrameTypeDecode = Now;		 // This allows restricting tuning changes to about +/- 4Hz from last dblOffsetHz

  00685	e8 00 00 00 00	 call	 _getTicks
  0068a	a3 00 00 00 00	 mov	 DWORD PTR _dttLastGoodFrameTypeDecode, eax

; 2314 : 				WriteDebugLog("[Frame Type Decode OK  ] %s", strDecodeCapture);

  0068f	68 00 00 00 00	 push	 OFFSET _strDecodeCapture
  00694	68 00 00 00 00	 push	 OFFSET ??_C@_0BM@ILHFPDON@?$FLFrame?5Type?5Decode?5OK?5?5?$FN?5?$CFs?$AA@
  00699	e8 00 00 00 00	 call	 _WriteDebugLog
  0069e	83 c4 08	 add	 esp, 8

; 2315 : 				return intIatMinDistance1;

  006a1	8b 45 d4	 mov	 eax, DWORD PTR _intIatMinDistance1$[ebp]
  006a4	e9 c3 02 00 00	 jmp	 $LN44@MinimalDis

; 2316 : 			}
; 2317 : 			else

  006a9	eb 1a		 jmp	 SHORT $LN16@MinimalDis
$LN18@MinimalDis:

; 2318 : 			{
; 2319 : 				WriteDebugLog("[Frame Type Decode Fail] %s", strDecodeCapture);

  006ab	68 00 00 00 00	 push	 OFFSET _strDecodeCapture
  006b0	68 00 00 00 00	 push	 OFFSET ??_C@_0BM@OGGJMBJF@?$FLFrame?5Type?5Decode?5Fail?$FN?5?$CFs?$AA@
  006b5	e8 00 00 00 00	 call	 _WriteDebugLog
  006ba	83 c4 08	 add	 esp, 8

; 2320 : 
; 2321 : 				return -1;	 // indicates poor quality decode so  don't use

  006bd	83 c8 ff	 or	 eax, -1
  006c0	e9 a7 02 00 00	 jmp	 $LN44@MinimalDis
$LN16@MinimalDis:

; 2322 : 			}
; 2323 : 		}

  006c5	e9 5c 02 00 00	 jmp	 $LN1@MinimalDis
$LN25@MinimalDis:

; 2324 : 	}
; 2325 : 	else if (blnARQConnected)		// ' we have an ARQ connected session.

  006ca	83 3d 00 00 00
	00 00		 cmp	 DWORD PTR _blnARQConnected, 0
  006d1	0f 84 4f 02 00
	00		 je	 $LN1@MinimalDis

; 2326 : 	{
; 2327 : 		if (AccumulateStats)

  006d7	83 3d 00 00 00
	00 00		 cmp	 DWORD PTR _AccumulateStats, 0
  006de	74 41		 je	 SHORT $LN13@MinimalDis

; 2328 : 		{
; 2329 : 			dblAvgDecodeDistance = (dblAvgDecodeDistance * intDecodeDistanceCount + 0.5f * (dblMinDistance1 + dblMinDistance2)) / (intDecodeDistanceCount + 1);

  006e0	db 05 00 00 00
	00		 fild	 DWORD PTR _intDecodeDistanceCount
  006e6	d8 0d 00 00 00
	00		 fmul	 DWORD PTR _dblAvgDecodeDistance
  006ec	d9 45 f8	 fld	 DWORD PTR _dblMinDistance1$[ebp]
  006ef	d8 45 ec	 fadd	 DWORD PTR _dblMinDistance2$[ebp]
  006f2	dc 0d 00 00 00
	00		 fmul	 QWORD PTR __real@3fe0000000000000
  006f8	de c1		 faddp	 ST(1), ST(0)
  006fa	a1 00 00 00 00	 mov	 eax, DWORD PTR _intDecodeDistanceCount
  006ff	83 c0 01	 add	 eax, 1
  00702	89 85 a0 fe ff
	ff		 mov	 DWORD PTR tv571[ebp], eax
  00708	da b5 a0 fe ff
	ff		 fidiv	 DWORD PTR tv571[ebp]
  0070e	d9 1d 00 00 00
	00		 fstp	 DWORD PTR _dblAvgDecodeDistance

; 2330 : 			intDecodeDistanceCount++;

  00714	a1 00 00 00 00	 mov	 eax, DWORD PTR _intDecodeDistanceCount
  00719	83 c0 01	 add	 eax, 1
  0071c	a3 00 00 00 00	 mov	 DWORD PTR _intDecodeDistanceCount, eax
$LN13@MinimalDis:

; 2331 : 		}
; 2332 : 		
; 2333 : 		if (intIatMinDistance1 == intIatMinDistance2) // matching indexes at minimal distances so high probablity of correct decode.

  00721	8b 45 d4	 mov	 eax, DWORD PTR _intIatMinDistance1$[ebp]
  00724	3b 45 c8	 cmp	 eax, DWORD PTR _intIatMinDistance2$[ebp]
  00727	0f 85 b1 01 00
	00		 jne	 $LN12@MinimalDis

; 2334 : 		{
; 2335 : 			if ((intIatMinDistance1 >= 0xE0 && intIatMinDistance1 <=0xFF) || (intIatMinDistance1 == 0x23) || 
; 2336 : 				(intIatMinDistance1 == 0x2C) || (intIatMinDistance1 == 0x29))  // Check for critical ACK, BREAK, END, or DISC frames  

  0072d	81 7d d4 e0 00
	00 00		 cmp	 DWORD PTR _intIatMinDistance1$[ebp], 224 ; 000000e0H
  00734	7c 09		 jl	 SHORT $LN9@MinimalDis
  00736	81 7d d4 ff 00
	00 00		 cmp	 DWORD PTR _intIatMinDistance1$[ebp], 255 ; 000000ffH
  0073d	7e 16		 jle	 SHORT $LN10@MinimalDis
$LN9@MinimalDis:
  0073f	83 7d d4 23	 cmp	 DWORD PTR _intIatMinDistance1$[ebp], 35 ; 00000023H
  00743	74 10		 je	 SHORT $LN10@MinimalDis
  00745	83 7d d4 2c	 cmp	 DWORD PTR _intIatMinDistance1$[ebp], 44 ; 0000002cH
  00749	74 0a		 je	 SHORT $LN10@MinimalDis
  0074b	83 7d d4 29	 cmp	 DWORD PTR _intIatMinDistance1$[ebp], 41 ; 00000029H
  0074f	0f 85 c6 00 00
	00		 jne	 $LN11@MinimalDis
$LN10@MinimalDis:

; 2337 : 			{
; 2338 : 				sprintf(strDecodeCapture, "%s MD Decode;8 ID=H%X, Critical Type=H%X: %s, D1= %.2f, D2= %.2f",
; 2339 : 					 strDecodeCapture, bytSessionID, intIatMinDistance1, Name(intIatMinDistance1), dblMinDistance1, dblMinDistance2);

  00755	80 bd ab fe ff
	ff 00		 cmp	 BYTE PTR $T7696[ebp], 0
  0075c	75 0d		 jne	 SHORT $LN59@MinimalDis
  0075e	68 00 00 00 00	 push	 OFFSET $LN49@MinimalDis
  00763	e8 00 00 00 00	 call	 __RTC_UninitUse
  00768	83 c4 04	 add	 esp, 4
$LN59@MinimalDis:
  0076b	d9 45 ec	 fld	 DWORD PTR _dblMinDistance2$[ebp]
  0076e	83 ec 08	 sub	 esp, 8
  00771	dd 1c 24	 fstp	 QWORD PTR [esp]
  00774	d9 45 f8	 fld	 DWORD PTR _dblMinDistance1$[ebp]
  00777	83 ec 08	 sub	 esp, 8
  0077a	dd 1c 24	 fstp	 QWORD PTR [esp]
  0077d	8a 45 d4	 mov	 al, BYTE PTR _intIatMinDistance1$[ebp]
  00780	50		 push	 eax
  00781	e8 00 00 00 00	 call	 _Name
  00786	83 c4 04	 add	 esp, 4
  00789	50		 push	 eax
  0078a	8b 4d d4	 mov	 ecx, DWORD PTR _intIatMinDistance1$[ebp]
  0078d	51		 push	 ecx
  0078e	0f b6 55 0c	 movzx	 edx, BYTE PTR _bytSessionID$[ebp]
  00792	52		 push	 edx
  00793	68 00 00 00 00	 push	 OFFSET _strDecodeCapture
  00798	68 00 00 00 00	 push	 OFFSET ??_C@_0EB@BCOFNDOC@?$CFs?5MD?5Decode?$DL8?5ID?$DNH?$CFX?0?5Critical?5@
  0079d	68 00 00 00 00	 push	 OFFSET _strDecodeCapture
  007a2	e8 00 00 00 00	 call	 _sprintf
  007a7	83 c4 28	 add	 esp, 40			; 00000028H

; 2340 : 				if ((dblMinDistance1 < 0.3f) || (dblMinDistance2 < 0.3f)) // use tighter limits   here

  007aa	d9 45 f8	 fld	 DWORD PTR _dblMinDistance1$[ebp]
  007ad	dc 1d 00 00 00
	00		 fcomp	 QWORD PTR __real@3fd3333340000000
  007b3	df e0		 fnstsw	 ax
  007b5	f6 c4 05	 test	 ah, 5
  007b8	7b 10		 jnp	 SHORT $LN7@MinimalDis
  007ba	d9 45 ec	 fld	 DWORD PTR _dblMinDistance2$[ebp]
  007bd	dc 1d 00 00 00
	00		 fcomp	 QWORD PTR __real@3fd3333340000000
  007c3	df e0		 fnstsw	 ax
  007c5	f6 c4 05	 test	 ah, 5
  007c8	7a 32		 jp	 SHORT $LN8@MinimalDis
$LN7@MinimalDis:

; 2341 : 				{
; 2342 : 					dblOffsetLastGoodDecode = dblOffsetHz;

  007ca	d9 05 00 00 00
	00		 fld	 DWORD PTR _dblOffsetHz
  007d0	d9 1d 00 00 00
	00		 fstp	 DWORD PTR _dblOffsetLastGoodDecode

; 2343 : 					dttLastGoodFrameTypeDecode = Now;		 // This allows restricting tuning changes to about +/- 4Hz from last dblOffsetHz

  007d6	e8 00 00 00 00	 call	 _getTicks
  007db	a3 00 00 00 00	 mov	 DWORD PTR _dttLastGoodFrameTypeDecode, eax

; 2344 : 					WriteDebugLog("[Frame Type Decode OK  ] %s", strDecodeCapture);

  007e0	68 00 00 00 00	 push	 OFFSET _strDecodeCapture
  007e5	68 00 00 00 00	 push	 OFFSET ??_C@_0BM@ILHFPDON@?$FLFrame?5Type?5Decode?5OK?5?5?$FN?5?$CFs?$AA@
  007ea	e8 00 00 00 00	 call	 _WriteDebugLog
  007ef	83 c4 08	 add	 esp, 8

; 2345 : 					return intIatMinDistance1;

  007f2	8b 45 d4	 mov	 eax, DWORD PTR _intIatMinDistance1$[ebp]
  007f5	e9 72 01 00 00	 jmp	 $LN44@MinimalDis

; 2346 : 				}
; 2347 : 				else

  007fa	eb 1a		 jmp	 SHORT $LN6@MinimalDis
$LN8@MinimalDis:

; 2348 : 				{
; 2349 : 				WriteDebugLog("[Frame Type Decode Fail] %s", strDecodeCapture);

  007fc	68 00 00 00 00	 push	 OFFSET _strDecodeCapture
  00801	68 00 00 00 00	 push	 OFFSET ??_C@_0BM@OGGJMBJF@?$FLFrame?5Type?5Decode?5Fail?$FN?5?$CFs?$AA@
  00806	e8 00 00 00 00	 call	 _WriteDebugLog
  0080b	83 c4 08	 add	 esp, 8

; 2350 : 					return -1;		 // indicates poor quality decode so  don't use

  0080e	83 c8 ff	 or	 eax, -1
  00811	e9 56 01 00 00	 jmp	 $LN44@MinimalDis
$LN6@MinimalDis:

; 2351 : 				}
; 2352 : 			}
; 2353 : 			else	//  non critical frames

  00816	e9 c1 00 00 00	 jmp	 $LN2@MinimalDis
$LN11@MinimalDis:

; 2354 : 			{
; 2355 : 				sprintf(strDecodeCapture, "%s MD Decode;9 ID=H%X, Type=H%X: %s, D1= %.2f, D2= %.2f",
; 2356 : 					 strDecodeCapture, bytSessionID, intIatMinDistance1, Name(intIatMinDistance1), dblMinDistance1, dblMinDistance2);

  0081b	80 bd ab fe ff
	ff 00		 cmp	 BYTE PTR $T7696[ebp], 0
  00822	75 0d		 jne	 SHORT $LN60@MinimalDis
  00824	68 00 00 00 00	 push	 OFFSET $LN49@MinimalDis
  00829	e8 00 00 00 00	 call	 __RTC_UninitUse
  0082e	83 c4 04	 add	 esp, 4
$LN60@MinimalDis:
  00831	d9 45 ec	 fld	 DWORD PTR _dblMinDistance2$[ebp]
  00834	83 ec 08	 sub	 esp, 8
  00837	dd 1c 24	 fstp	 QWORD PTR [esp]
  0083a	d9 45 f8	 fld	 DWORD PTR _dblMinDistance1$[ebp]
  0083d	83 ec 08	 sub	 esp, 8
  00840	dd 1c 24	 fstp	 QWORD PTR [esp]
  00843	8a 45 d4	 mov	 al, BYTE PTR _intIatMinDistance1$[ebp]
  00846	50		 push	 eax
  00847	e8 00 00 00 00	 call	 _Name
  0084c	83 c4 04	 add	 esp, 4
  0084f	50		 push	 eax
  00850	8b 4d d4	 mov	 ecx, DWORD PTR _intIatMinDistance1$[ebp]
  00853	51		 push	 ecx
  00854	0f b6 55 0c	 movzx	 edx, BYTE PTR _bytSessionID$[ebp]
  00858	52		 push	 edx
  00859	68 00 00 00 00	 push	 OFFSET _strDecodeCapture
  0085e	68 00 00 00 00	 push	 OFFSET ??_C@_0DI@BNEJFIPH@?$CFs?5MD?5Decode?$DL9?5ID?$DNH?$CFX?0?5Type?$DNH?$CFX?3@
  00863	68 00 00 00 00	 push	 OFFSET _strDecodeCapture
  00868	e8 00 00 00 00	 call	 _sprintf
  0086d	83 c4 28	 add	 esp, 40			; 00000028H

; 2357 : 				//  use looser limits here, there is no risk of protocol damage from these frames
; 2358 : 				if ((dblMinDistance1 < 0.4) || (dblMinDistance2 < 0.4))

  00870	d9 45 f8	 fld	 DWORD PTR _dblMinDistance1$[ebp]
  00873	dc 1d 00 00 00
	00		 fcomp	 QWORD PTR __real@3fd999999999999a
  00879	df e0		 fnstsw	 ax
  0087b	f6 c4 05	 test	 ah, 5
  0087e	7b 10		 jnp	 SHORT $LN3@MinimalDis
  00880	d9 45 ec	 fld	 DWORD PTR _dblMinDistance2$[ebp]
  00883	dc 1d 00 00 00
	00		 fcomp	 QWORD PTR __real@3fd999999999999a
  00889	df e0		 fnstsw	 ax
  0088b	f6 c4 05	 test	 ah, 5
  0088e	7a 32		 jp	 SHORT $LN4@MinimalDis
$LN3@MinimalDis:

; 2359 : 				{
; 2360 : 					WriteDebugLog("[Frame Type Decode OK  ] %s", strDecodeCapture);

  00890	68 00 00 00 00	 push	 OFFSET _strDecodeCapture
  00895	68 00 00 00 00	 push	 OFFSET ??_C@_0BM@ILHFPDON@?$FLFrame?5Type?5Decode?5OK?5?5?$FN?5?$CFs?$AA@
  0089a	e8 00 00 00 00	 call	 _WriteDebugLog
  0089f	83 c4 08	 add	 esp, 8

; 2361 : 						
; 2362 : 					dblOffsetLastGoodDecode = dblOffsetHz;

  008a2	d9 05 00 00 00
	00		 fld	 DWORD PTR _dblOffsetHz
  008a8	d9 1d 00 00 00
	00		 fstp	 DWORD PTR _dblOffsetLastGoodDecode

; 2363 : 					dttLastGoodFrameTypeDecode = Now;	 // This allows restricting tuning changes to about +/- 4Hz from last dblOffsetHz

  008ae	e8 00 00 00 00	 call	 _getTicks
  008b3	a3 00 00 00 00	 mov	 DWORD PTR _dttLastGoodFrameTypeDecode, eax

; 2364 : 					return intIatMinDistance1;

  008b8	8b 45 d4	 mov	 eax, DWORD PTR _intIatMinDistance1$[ebp]
  008bb	e9 ac 00 00 00	 jmp	 $LN44@MinimalDis

; 2365 : 				}
; 2366 : 				else

  008c0	eb 1a		 jmp	 SHORT $LN2@MinimalDis
$LN4@MinimalDis:

; 2367 : 				{
; 2368 : 					WriteDebugLog("[Frame Type Decode Fail] %s", strDecodeCapture);

  008c2	68 00 00 00 00	 push	 OFFSET _strDecodeCapture
  008c7	68 00 00 00 00	 push	 OFFSET ??_C@_0BM@OGGJMBJF@?$FLFrame?5Type?5Decode?5Fail?$FN?5?$CFs?$AA@
  008cc	e8 00 00 00 00	 call	 _WriteDebugLog
  008d1	83 c4 08	 add	 esp, 8

; 2369 : 					return -1;		// indicates poor quality decode so  don't use

  008d4	83 c8 ff	 or	 eax, -1
  008d7	e9 90 00 00 00	 jmp	 $LN44@MinimalDis
$LN2@MinimalDis:

; 2370 : 				}
; 2371 : 			}
; 2372 : 		}
; 2373 : 		else		//non matching indexes

  008dc	eb 48		 jmp	 SHORT $LN1@MinimalDis
$LN12@MinimalDis:

; 2374 : 		{
; 2375 : 			sprintf(strDecodeCapture, "%s MD Decode;10  Type1=H%X: Type2=H%X: , D1= %.2f, D2= %.2f",
; 2376 : 				 strDecodeCapture, intIatMinDistance1 , intIatMinDistance2, dblMinDistance1, dblMinDistance2);

  008de	d9 45 ec	 fld	 DWORD PTR _dblMinDistance2$[ebp]
  008e1	83 ec 08	 sub	 esp, 8
  008e4	dd 1c 24	 fstp	 QWORD PTR [esp]
  008e7	d9 45 f8	 fld	 DWORD PTR _dblMinDistance1$[ebp]
  008ea	83 ec 08	 sub	 esp, 8
  008ed	dd 1c 24	 fstp	 QWORD PTR [esp]
  008f0	8b 45 c8	 mov	 eax, DWORD PTR _intIatMinDistance2$[ebp]
  008f3	50		 push	 eax
  008f4	8b 4d d4	 mov	 ecx, DWORD PTR _intIatMinDistance1$[ebp]
  008f7	51		 push	 ecx
  008f8	68 00 00 00 00	 push	 OFFSET _strDecodeCapture
  008fd	68 00 00 00 00	 push	 OFFSET ??_C@_0DM@LDOAGKPL@?$CFs?5MD?5Decode?$DL10?5?5Type1?$DNH?$CFX?3?5Type@
  00902	68 00 00 00 00	 push	 OFFSET _strDecodeCapture
  00907	e8 00 00 00 00	 call	 _sprintf
  0090c	83 c4 24	 add	 esp, 36			; 00000024H

; 2377 : 			WriteDebugLog("[Frame Type Decode Fail] %s", strDecodeCapture);

  0090f	68 00 00 00 00	 push	 OFFSET _strDecodeCapture
  00914	68 00 00 00 00	 push	 OFFSET ??_C@_0BM@OGGJMBJF@?$FLFrame?5Type?5Decode?5Fail?$FN?5?$CFs?$AA@
  00919	e8 00 00 00 00	 call	 _WriteDebugLog
  0091e	83 c4 08	 add	 esp, 8

; 2378 : 			return -1; // indicates poor quality decode so  don't use

  00921	83 c8 ff	 or	 eax, -1
  00924	eb 46		 jmp	 SHORT $LN44@MinimalDis
$LN1@MinimalDis:

; 2379 : 		}
; 2380 : 	}
; 2381 : 	sprintf(strDecodeCapture, "%s MD Decode;11  Type1=H%X: Type2=H%X: , D1= %.2f, D2= %.2f",
; 2382 : 		strDecodeCapture, intIatMinDistance1 , intIatMinDistance2, dblMinDistance1, dblMinDistance2);

  00926	d9 45 ec	 fld	 DWORD PTR _dblMinDistance2$[ebp]
  00929	83 ec 08	 sub	 esp, 8
  0092c	dd 1c 24	 fstp	 QWORD PTR [esp]
  0092f	d9 45 f8	 fld	 DWORD PTR _dblMinDistance1$[ebp]
  00932	83 ec 08	 sub	 esp, 8
  00935	dd 1c 24	 fstp	 QWORD PTR [esp]
  00938	8b 45 c8	 mov	 eax, DWORD PTR _intIatMinDistance2$[ebp]
  0093b	50		 push	 eax
  0093c	8b 4d d4	 mov	 ecx, DWORD PTR _intIatMinDistance1$[ebp]
  0093f	51		 push	 ecx
  00940	68 00 00 00 00	 push	 OFFSET _strDecodeCapture
  00945	68 00 00 00 00	 push	 OFFSET ??_C@_0DM@MMCJPBGI@?$CFs?5MD?5Decode?$DL11?5?5Type1?$DNH?$CFX?3?5Type@
  0094a	68 00 00 00 00	 push	 OFFSET _strDecodeCapture
  0094f	e8 00 00 00 00	 call	 _sprintf
  00954	83 c4 24	 add	 esp, 36			; 00000024H

; 2383 : 	WriteDebugLog("[Frame Type Decode Fail] %s", strDecodeCapture);

  00957	68 00 00 00 00	 push	 OFFSET _strDecodeCapture
  0095c	68 00 00 00 00	 push	 OFFSET ??_C@_0BM@OGGJMBJF@?$FLFrame?5Type?5Decode?5Fail?$FN?5?$CFs?$AA@
  00961	e8 00 00 00 00	 call	 _WriteDebugLog
  00966	83 c4 08	 add	 esp, 8

; 2384 : 	return -1; // indicates poor quality decode so  don't use

  00969	83 c8 ff	 or	 eax, -1
$LN44@MinimalDis:

; 2385 : }

  0096c	5f		 pop	 edi
  0096d	5e		 pop	 esi
  0096e	5b		 pop	 ebx
  0096f	81 c4 60 01 00
	00		 add	 esp, 352		; 00000160H
  00975	3b ec		 cmp	 ebp, esp
  00977	e8 00 00 00 00	 call	 __RTC_CheckEsp
  0097c	8b e5		 mov	 esp, ebp
  0097e	5d		 pop	 ebp
  0097f	c3		 ret	 0
$LN61@MinimalDis:
$LN54@MinimalDis:
  00980	69		 DB	 105			; 00000069H
  00981	6e		 DB	 110			; 0000006eH
  00982	74		 DB	 116			; 00000074H
  00983	49		 DB	 73			; 00000049H
  00984	61		 DB	 97			; 00000061H
  00985	74		 DB	 116			; 00000074H
  00986	4d		 DB	 77			; 0000004dH
  00987	69		 DB	 105			; 00000069H
  00988	6e		 DB	 110			; 0000006eH
  00989	44		 DB	 68			; 00000044H
  0098a	69		 DB	 105			; 00000069H
  0098b	73		 DB	 115			; 00000073H
  0098c	74		 DB	 116			; 00000074H
  0098d	61		 DB	 97			; 00000061H
  0098e	6e		 DB	 110			; 0000006eH
  0098f	63		 DB	 99			; 00000063H
  00990	65		 DB	 101			; 00000065H
  00991	32		 DB	 50			; 00000032H
  00992	00		 DB	 0
$LN49@MinimalDis:
  00993	69		 DB	 105			; 00000069H
  00994	6e		 DB	 110			; 0000006eH
  00995	74		 DB	 116			; 00000074H
  00996	49		 DB	 73			; 00000049H
  00997	61		 DB	 97			; 00000061H
  00998	74		 DB	 116			; 00000074H
  00999	4d		 DB	 77			; 0000004dH
  0099a	69		 DB	 105			; 00000069H
  0099b	6e		 DB	 110			; 0000006eH
  0099c	44		 DB	 68			; 00000044H
  0099d	69		 DB	 105			; 00000069H
  0099e	73		 DB	 115			; 00000073H
  0099f	74		 DB	 116			; 00000074H
  009a0	61		 DB	 97			; 00000061H
  009a1	6e		 DB	 110			; 0000006eH
  009a2	63		 DB	 99			; 00000063H
  009a3	65		 DB	 101			; 00000065H
  009a4	31		 DB	 49			; 00000031H
  009a5	00		 DB	 0
$LN47@MinimalDis:
  009a6	69		 DB	 105			; 00000069H
  009a7	6e		 DB	 110			; 0000006eH
  009a8	74		 DB	 116			; 00000074H
  009a9	49		 DB	 73			; 00000049H
  009aa	61		 DB	 97			; 00000061H
  009ab	74		 DB	 116			; 00000074H
  009ac	4d		 DB	 77			; 0000004dH
  009ad	69		 DB	 105			; 00000069H
  009ae	6e		 DB	 110			; 0000006eH
  009af	44		 DB	 68			; 00000044H
  009b0	69		 DB	 105			; 00000069H
  009b1	73		 DB	 115			; 00000073H
  009b2	74		 DB	 116			; 00000074H
  009b3	61		 DB	 97			; 00000061H
  009b4	6e		 DB	 110			; 0000006eH
  009b5	63		 DB	 99			; 00000063H
  009b6	65		 DB	 101			; 00000065H
  009b7	33		 DB	 51			; 00000033H
  009b8	00		 DB	 0
_MinimalDistanceFrameType ENDP
_TEXT	ENDS
PUBLIC	??_C@_07GCMJHCKE@PENDING?$AA@			; `string'
EXTRN	_intFailedFSKFrameTypes:DWORD
EXTRN	_intGoodFSKFrameTypes:DWORD
EXTRN	_QueueCommandToHost:PROC
EXTRN	_bytPendingSessionID:BYTE
EXTRN	_intRmtLeaderMeasure:DWORD
;	COMDAT ??_C@_07GCMJHCKE@PENDING?$AA@
CONST	SEGMENT
??_C@_07GCMJHCKE@PENDING?$AA@ DB 'PENDING', 00H		; `string'
; Function compile flags: /Odtp /RTCsu /ZI
CONST	ENDS
;	COMDAT _Acquire4FSKFrameType
_TEXT	SEGMENT
_NewType$ = -8						; size = 4
_Acquire4FSKFrameType PROC				; COMDAT

; 2391 : {

  00000	55		 push	 ebp
  00001	8b ec		 mov	 ebp, esp
  00003	81 ec cc 00 00
	00		 sub	 esp, 204		; 000000ccH
  00009	53		 push	 ebx
  0000a	56		 push	 esi
  0000b	57		 push	 edi
  0000c	8d bd 34 ff ff
	ff		 lea	 edi, DWORD PTR [ebp-204]
  00012	b9 33 00 00 00	 mov	 ecx, 51			; 00000033H
  00017	b8 cc cc cc cc	 mov	 eax, -858993460		; ccccccccH
  0001c	f3 ab		 rep stosd

; 2392 : 	// intMFSReadPtr is pointing to start of first symbol of Frame Type (total of 10 4FSK symbols in frame type (2 bytes) + 1 parity symbol per byte 
; 2393 : 	// returns -1 if minimal distance decoding is below threshold (low likelyhood of being correct)
; 2394 : 	// returns -2 if insufficient samples 
; 2395 : 	// Else returns frame type 0-255
; 2396 : 
; 2397 : 	int NewType = 0;

  0001e	c7 45 f8 00 00
	00 00		 mov	 DWORD PTR _NewType$[ebp], 0

; 2398 : 
; 2399 : 	if ((intFilteredMixedSamplesLength - intMFSReadPtr) < (240 * 10))

  00025	a1 00 00 00 00	 mov	 eax, DWORD PTR _intFilteredMixedSamplesLength
  0002a	2b 05 00 00 00
	00		 sub	 eax, DWORD PTR _intMFSReadPtr
  00030	3d 60 09 00 00	 cmp	 eax, 2400		; 00000960H
  00035	7d 0a		 jge	 SHORT $LN11@Acquire4FS

; 2400 : 		return -2;		//  Check for 12 available 4FSK Symbols (but only 10 are used)  

  00037	b8 fe ff ff ff	 mov	 eax, -2			; fffffffeH
  0003c	e9 2d 01 00 00	 jmp	 $LN12@Acquire4FS
$LN11@Acquire4FS:

; 2401 : 
; 2402 : 	if (!DemodFrameType4FSK(intMFSReadPtr, intFilteredMixedSamples, &intToneMags[0][0]))

  00041	68 00 00 00 00	 push	 OFFSET _intToneMags
  00046	68 00 00 00 00	 push	 OFFSET _intFilteredMixedSamples
  0004b	a1 00 00 00 00	 mov	 eax, DWORD PTR _intMFSReadPtr
  00050	50		 push	 eax
  00051	e8 00 00 00 00	 call	 _DemodFrameType4FSK
  00056	83 c4 0c	 add	 esp, 12			; 0000000cH
  00059	85 c0		 test	 eax, eax
  0005b	75 29		 jne	 SHORT $LN10@Acquire4FS

; 2403 : 	{
; 2404 : 		Update4FSKConstellation(&intToneMags[0][0], &intLastRcvdFrameQuality);

  0005d	68 00 00 00 00	 push	 OFFSET _intLastRcvdFrameQuality
  00062	68 00 00 00 00	 push	 OFFSET _intToneMags
  00067	e8 00 00 00 00	 call	 _Update4FSKConstellation
  0006c	83 c4 08	 add	 esp, 8

; 2405 : 		intMFSReadPtr += (240 * 10);

  0006f	a1 00 00 00 00	 mov	 eax, DWORD PTR _intMFSReadPtr
  00074	05 60 09 00 00	 add	 eax, 2400		; 00000960H
  00079	a3 00 00 00 00	 mov	 DWORD PTR _intMFSReadPtr, eax

; 2406 : 		return -1;

  0007e	83 c8 ff	 or	 eax, -1
  00081	e9 e8 00 00 00	 jmp	 $LN12@Acquire4FS
$LN10@Acquire4FS:

; 2407 : 	}
; 2408 : 	
; 2409 : 	intRmtLeaderMeasure = (Now - dttStartRmtLeaderMeasure);

  00086	e8 00 00 00 00	 call	 _getTicks
  0008b	2b 05 00 00 00
	00		 sub	 eax, DWORD PTR _dttStartRmtLeaderMeasure
  00091	a3 00 00 00 00	 mov	 DWORD PTR _intRmtLeaderMeasure, eax

; 2410 : 
; 2411 : 	// Now do check received  Tone array for testing minimum distance decoder
; 2412 : 
; 2413 : 	if (blnPending)			// If we have a pending connection (btween the IRS first decode of ConReq until it receives a ConAck from the iSS)  

  00096	83 3d 00 00 00
	00 00		 cmp	 DWORD PTR _blnPending, 0
  0009d	74 18		 je	 SHORT $LN9@Acquire4FS

; 2414 : 		NewType = MinimalDistanceFrameType(&intToneMags[0][0], bytPendingSessionID);		 // The pending session ID will become the session ID once connected) 

  0009f	a0 00 00 00 00	 mov	 al, BYTE PTR _bytPendingSessionID
  000a4	50		 push	 eax
  000a5	68 00 00 00 00	 push	 OFFSET _intToneMags
  000aa	e8 00 00 00 00	 call	 _MinimalDistanceFrameType
  000af	83 c4 08	 add	 esp, 8
  000b2	89 45 f8	 mov	 DWORD PTR _NewType$[ebp], eax
  000b5	eb 36		 jmp	 SHORT $LN8@Acquire4FS
$LN9@Acquire4FS:

; 2415 : 	else if (blnARQConnected)		// If we are connected then just use the stcConnection.bytSessionID

  000b7	83 3d 00 00 00
	00 00		 cmp	 DWORD PTR _blnARQConnected, 0
  000be	74 18		 je	 SHORT $LN7@Acquire4FS

; 2416 : 		NewType = MinimalDistanceFrameType(&intToneMags[0][0], bytSessionID);

  000c0	a0 00 00 00 00	 mov	 al, BYTE PTR _bytSessionID
  000c5	50		 push	 eax
  000c6	68 00 00 00 00	 push	 OFFSET _intToneMags
  000cb	e8 00 00 00 00	 call	 _MinimalDistanceFrameType
  000d0	83 c4 08	 add	 esp, 8
  000d3	89 45 f8	 mov	 DWORD PTR _NewType$[ebp], eax

; 2417 : 	else					// not connected and not pending so use &FF (FEC or ARQ unconnected session ID

  000d6	eb 15		 jmp	 SHORT $LN8@Acquire4FS
$LN7@Acquire4FS:

; 2418 : 		NewType = MinimalDistanceFrameType(&intToneMags[0][0], 0xFF);

  000d8	68 ff 00 00 00	 push	 255			; 000000ffH
  000dd	68 00 00 00 00	 push	 OFFSET _intToneMags
  000e2	e8 00 00 00 00	 call	 _MinimalDistanceFrameType
  000e7	83 c4 08	 add	 esp, 8
  000ea	89 45 f8	 mov	 DWORD PTR _NewType$[ebp], eax
$LN8@Acquire4FS:

; 2419 :   
; 2420 : 	if (NewType > 0x30 && NewType < 0x39)

  000ed	83 7d f8 30	 cmp	 DWORD PTR _NewType$[ebp], 48 ; 00000030H
  000f1	7e 13		 jle	 SHORT $LN5@Acquire4FS
  000f3	83 7d f8 39	 cmp	 DWORD PTR _NewType$[ebp], 57 ; 00000039H
  000f7	7d 0d		 jge	 SHORT $LN5@Acquire4FS

; 2421 : 		QueueCommandToHost("PENDING");			 // early pending notice to stop scanners

  000f9	68 00 00 00 00	 push	 OFFSET ??_C@_07GCMJHCKE@PENDING?$AA@
  000fe	e8 00 00 00 00	 call	 _QueueCommandToHost
  00103	83 c4 04	 add	 esp, 4
$LN5@Acquire4FS:

; 2422 : 
; 2423 : 	if (NewType >= 0 &&  IsShortControlFrame(NewType))		// update the constellation if a short frame (no data to follow)

  00106	83 7d f8 00	 cmp	 DWORD PTR _NewType$[ebp], 0
  0010a	7c 22		 jl	 SHORT $LN4@Acquire4FS
  0010c	8a 45 f8	 mov	 al, BYTE PTR _NewType$[ebp]
  0010f	50		 push	 eax
  00110	e8 00 00 00 00	 call	 _IsShortControlFrame
  00115	83 c4 04	 add	 esp, 4
  00118	85 c0		 test	 eax, eax
  0011a	74 12		 je	 SHORT $LN4@Acquire4FS

; 2424 : 		Update4FSKConstellation(&intToneMags[0][0], &intLastRcvdFrameQuality);

  0011c	68 00 00 00 00	 push	 OFFSET _intLastRcvdFrameQuality
  00121	68 00 00 00 00	 push	 OFFSET _intToneMags
  00126	e8 00 00 00 00	 call	 _Update4FSKConstellation
  0012b	83 c4 08	 add	 esp, 8
$LN4@Acquire4FS:

; 2425 : 
; 2426 : 	if (AccumulateStats)

  0012e	83 3d 00 00 00
	00 00		 cmp	 DWORD PTR _AccumulateStats, 0
  00135	74 25		 je	 SHORT $LN3@Acquire4FS

; 2427 : 		if (Acquire4FSKFrameType > 0)

  00137	b8 00 00 00 00	 mov	 eax, OFFSET _Acquire4FSKFrameType
  0013c	85 c0		 test	 eax, eax
  0013e	76 0f		 jbe	 SHORT $LN2@Acquire4FS

; 2428 : 			intGoodFSKFrameTypes++;

  00140	a1 00 00 00 00	 mov	 eax, DWORD PTR _intGoodFSKFrameTypes
  00145	83 c0 01	 add	 eax, 1
  00148	a3 00 00 00 00	 mov	 DWORD PTR _intGoodFSKFrameTypes, eax

; 2429 : 		else

  0014d	eb 0d		 jmp	 SHORT $LN3@Acquire4FS
$LN2@Acquire4FS:

; 2430 : 			intFailedFSKFrameTypes++;

  0014f	a1 00 00 00 00	 mov	 eax, DWORD PTR _intFailedFSKFrameTypes
  00154	83 c0 01	 add	 eax, 1
  00157	a3 00 00 00 00	 mov	 DWORD PTR _intFailedFSKFrameTypes, eax
$LN3@Acquire4FS:

; 2431 : 	
; 2432 : 	intMFSReadPtr += (240 * 10);			 // advance to read pointer to the next symbol (if there is one)

  0015c	a1 00 00 00 00	 mov	 eax, DWORD PTR _intMFSReadPtr
  00161	05 60 09 00 00	 add	 eax, 2400		; 00000960H
  00166	a3 00 00 00 00	 mov	 DWORD PTR _intMFSReadPtr, eax

; 2433 : 	
; 2434 : 	return NewType;

  0016b	8b 45 f8	 mov	 eax, DWORD PTR _NewType$[ebp]
$LN12@Acquire4FS:

; 2435 : }

  0016e	5f		 pop	 edi
  0016f	5e		 pop	 esi
  00170	5b		 pop	 ebx
  00171	81 c4 cc 00 00
	00		 add	 esp, 204		; 000000ccH
  00177	3b ec		 cmp	 ebp, esp
  00179	e8 00 00 00 00	 call	 __RTC_CheckEsp
  0017e	8b e5		 mov	 esp, ebp
  00180	5d		 pop	 ebp
  00181	c3		 ret	 0
_Acquire4FSKFrameType ENDP
_TEXT	ENDS
PUBLIC	_Demod1Car4FSKChar
PUBLIC	_Demod1Car4FSK
; Function compile flags: /Odtp /RTCsu /ZI
;	COMDAT _Demod1Car4FSK
_TEXT	SEGMENT
tv70 = -208						; size = 4
_Start$ = -8						; size = 4
_Demod1Car4FSK PROC					; COMDAT

; 2447 : {

  00000	55		 push	 ebp
  00001	8b ec		 mov	 ebp, esp
  00003	81 ec d0 00 00
	00		 sub	 esp, 208		; 000000d0H
  00009	53		 push	 ebx
  0000a	56		 push	 esi
  0000b	57		 push	 edi
  0000c	8d bd 30 ff ff
	ff		 lea	 edi, DWORD PTR [ebp-208]
  00012	b9 34 00 00 00	 mov	 ecx, 52			; 00000034H
  00017	b8 cc cc cc cc	 mov	 eax, -858993460		; ccccccccH
  0001c	f3 ab		 rep stosd

; 2448 : 	int Start = 0;

  0001e	c7 45 f8 00 00
	00 00		 mov	 DWORD PTR _Start$[ebp], 0
$LN17@Demod1Car4:

; 2449 : 	
; 2450 : 	// We can't wait for the full frame as we don't have enough ram, so
; 2451 : 	// we do one character at a time, until we run out or end of frame
; 2452 : 
; 2453 : 	// Only continue if we have more than intSampPerSym * 4 chars
; 2454 : 
; 2455 : 	while (State == AcquireFrame)

  00025	83 3d 00 00 00
	00 05		 cmp	 DWORD PTR _State, 5
  0002c	0f 85 0f 02 00
	00		 jne	 $LN16@Demod1Car4

; 2456 : 	{
; 2457 : 		if (intFilteredMixedSamplesLength < ((intSampPerSym * 4) + 20)) // allow for correcrions

  00032	a1 00 00 00 00	 mov	 eax, DWORD PTR _intSampPerSym
  00037	8d 0c 85 14 00
	00 00		 lea	 ecx, DWORD PTR [eax*4+20]
  0003e	39 0d 00 00 00
	00		 cmp	 DWORD PTR _intFilteredMixedSamplesLength, ecx
  00044	7d 4a		 jge	 SHORT $LN15@Demod1Car4

; 2458 : 		{
; 2459 : 			// Move any unprocessessed data down buffer
; 2460 : 
; 2461 : 			//	(while checking process - will use cyclic buffer eventually
; 2462 : 
; 2463 : //			WriteDebugLog("Corrections %d", Corrections);
; 2464 : 
; 2465 : 			// If corrections is non-zero, we have to adjust
; 2466 : 			//	number left
; 2467 : 
; 2468 : 			intFilteredMixedSamplesLength -= Corrections;

  00046	a1 00 00 00 00	 mov	 eax, DWORD PTR _intFilteredMixedSamplesLength
  0004b	2b 05 00 00 00
	00		 sub	 eax, DWORD PTR _Corrections
  00051	a3 00 00 00 00	 mov	 DWORD PTR _intFilteredMixedSamplesLength, eax

; 2469 : 
; 2470 : 			Corrections = 0;

  00056	c7 05 00 00 00
	00 00 00 00 00	 mov	 DWORD PTR _Corrections, 0

; 2471 : 
; 2472 : 			if (intFilteredMixedSamplesLength > 0)

  00060	83 3d 00 00 00
	00 00		 cmp	 DWORD PTR _intFilteredMixedSamplesLength, 0
  00067	7e 20		 jle	 SHORT $LN14@Demod1Car4

; 2473 : 				memmove(intFilteredMixedSamples,
; 2474 : 					&intFilteredMixedSamples[Start], intFilteredMixedSamplesLength * 2); 

  00069	a1 00 00 00 00	 mov	 eax, DWORD PTR _intFilteredMixedSamplesLength
  0006e	d1 e0		 shl	 eax, 1
  00070	50		 push	 eax
  00071	8b 4d f8	 mov	 ecx, DWORD PTR _Start$[ebp]
  00074	8d 14 4d 00 00
	00 00		 lea	 edx, DWORD PTR _intFilteredMixedSamples[ecx*2]
  0007b	52		 push	 edx
  0007c	68 00 00 00 00	 push	 OFFSET _intFilteredMixedSamples
  00081	e8 00 00 00 00	 call	 _memmove
  00086	83 c4 0c	 add	 esp, 12			; 0000000cH
$LN14@Demod1Car4:

; 2475 : 
; 2476 : 			return FALSE;

  00089	33 c0		 xor	 eax, eax
  0008b	e9 b6 01 00 00	 jmp	 $LN18@Demod1Car4
$LN15@Demod1Car4:

; 2477 : 		}
; 2478 : 
; 2479 : 		// If this is a multicarrier mode, we must call the
; 2480 : 		// decode char routing for each carrier
; 2481 : 	
; 2482 : 		switch (intNumCar)

  00090	a1 00 00 00 00	 mov	 eax, DWORD PTR _intNumCar
  00095	89 85 30 ff ff
	ff		 mov	 DWORD PTR tv70[ebp], eax
  0009b	83 bd 30 ff ff
	ff 01		 cmp	 DWORD PTR tv70[ebp], 1
  000a2	74 1b		 je	 SHORT $LN11@Demod1Car4
  000a4	83 bd 30 ff ff
	ff 02		 cmp	 DWORD PTR tv70[ebp], 2
  000ab	74 3f		 je	 SHORT $LN9@Demod1Car4
  000ad	83 bd 30 ff ff
	ff 04		 cmp	 DWORD PTR tv70[ebp], 4
  000b4	0f 84 87 00 00
	00		 je	 $LN6@Demod1Car4
  000ba	e9 22 01 00 00	 jmp	 $LN12@Demod1Car4
$LN11@Demod1Car4:

; 2483 : 		{
; 2484 : 		case 1:
; 2485 : 
; 2486 : 			intCenterFreq = 1500;

  000bf	c7 05 00 00 00
	00 dc 05 00 00	 mov	 DWORD PTR _intCenterFreq, 1500 ; 000005dcH

; 2487 : 			if (CarrierOk[0] == FALSE)		// Don't redo if already decoded

  000c9	0f be 05 00 00
	00 00		 movsx	 eax, BYTE PTR _CarrierOk
  000d0	85 c0		 test	 eax, eax
  000d2	75 13		 jne	 SHORT $LN10@Demod1Car4

; 2488 : 				Demod1Car4FSKChar(Start, bytFrameData1, 0);

  000d4	6a 00		 push	 0
  000d6	68 00 00 00 00	 push	 OFFSET _bytFrameData1
  000db	8b 45 f8	 mov	 eax, DWORD PTR _Start$[ebp]
  000de	50		 push	 eax
  000df	e8 00 00 00 00	 call	 _Demod1Car4FSKChar
  000e4	83 c4 0c	 add	 esp, 12			; 0000000cH
$LN10@Demod1Car4:

; 2489 : 			break;

  000e7	e9 f5 00 00 00	 jmp	 $LN12@Demod1Car4
$LN9@Demod1Car4:

; 2490 : 
; 2491 : 		case 2:
; 2492 : 
; 2493 : 			intCenterFreq = 1750;

  000ec	c7 05 00 00 00
	00 d6 06 00 00	 mov	 DWORD PTR _intCenterFreq, 1750 ; 000006d6H

; 2494 : 			if (CarrierOk[0] == FALSE)

  000f6	0f be 05 00 00
	00 00		 movsx	 eax, BYTE PTR _CarrierOk
  000fd	85 c0		 test	 eax, eax
  000ff	75 13		 jne	 SHORT $LN8@Demod1Car4

; 2495 : 				Demod1Car4FSKChar(Start, bytFrameData1, 0);

  00101	6a 00		 push	 0
  00103	68 00 00 00 00	 push	 OFFSET _bytFrameData1
  00108	8b 45 f8	 mov	 eax, DWORD PTR _Start$[ebp]
  0010b	50		 push	 eax
  0010c	e8 00 00 00 00	 call	 _Demod1Car4FSKChar
  00111	83 c4 0c	 add	 esp, 12			; 0000000cH
$LN8@Demod1Car4:

; 2496 : 			intCenterFreq = 1250;

  00114	c7 05 00 00 00
	00 e2 04 00 00	 mov	 DWORD PTR _intCenterFreq, 1250 ; 000004e2H

; 2497 : 			if (CarrierOk[1] == FALSE)

  0011e	0f be 05 01 00
	00 00		 movsx	 eax, BYTE PTR _CarrierOk+1
  00125	85 c0		 test	 eax, eax
  00127	75 13		 jne	 SHORT $LN7@Demod1Car4

; 2498 : 				Demod1Car4FSKChar(Start, bytFrameData2, 1);

  00129	6a 01		 push	 1
  0012b	68 00 00 00 00	 push	 OFFSET _bytFrameData2
  00130	8b 45 f8	 mov	 eax, DWORD PTR _Start$[ebp]
  00133	50		 push	 eax
  00134	e8 00 00 00 00	 call	 _Demod1Car4FSKChar
  00139	83 c4 0c	 add	 esp, 12			; 0000000cH
$LN7@Demod1Car4:

; 2499 : 			break;

  0013c	e9 a0 00 00 00	 jmp	 $LN12@Demod1Car4
$LN6@Demod1Car4:

; 2500 : 
; 2501 : 		case 4:
; 2502 : 
; 2503 : 			intCenterFreq = 2250;

  00141	c7 05 00 00 00
	00 ca 08 00 00	 mov	 DWORD PTR _intCenterFreq, 2250 ; 000008caH

; 2504 : 			if (CarrierOk[0] == FALSE)

  0014b	0f be 05 00 00
	00 00		 movsx	 eax, BYTE PTR _CarrierOk
  00152	85 c0		 test	 eax, eax
  00154	75 13		 jne	 SHORT $LN5@Demod1Car4

; 2505 : 				Demod1Car4FSKChar(Start, bytFrameData1, 0);

  00156	6a 00		 push	 0
  00158	68 00 00 00 00	 push	 OFFSET _bytFrameData1
  0015d	8b 45 f8	 mov	 eax, DWORD PTR _Start$[ebp]
  00160	50		 push	 eax
  00161	e8 00 00 00 00	 call	 _Demod1Car4FSKChar
  00166	83 c4 0c	 add	 esp, 12			; 0000000cH
$LN5@Demod1Car4:

; 2506 : 			intCenterFreq = 1750;

  00169	c7 05 00 00 00
	00 d6 06 00 00	 mov	 DWORD PTR _intCenterFreq, 1750 ; 000006d6H

; 2507 : 			if (CarrierOk[1] == FALSE)

  00173	0f be 05 01 00
	00 00		 movsx	 eax, BYTE PTR _CarrierOk+1
  0017a	85 c0		 test	 eax, eax
  0017c	75 13		 jne	 SHORT $LN4@Demod1Car4

; 2508 : 				Demod1Car4FSKChar(Start, bytFrameData2, 1);

  0017e	6a 01		 push	 1
  00180	68 00 00 00 00	 push	 OFFSET _bytFrameData2
  00185	8b 45 f8	 mov	 eax, DWORD PTR _Start$[ebp]
  00188	50		 push	 eax
  00189	e8 00 00 00 00	 call	 _Demod1Car4FSKChar
  0018e	83 c4 0c	 add	 esp, 12			; 0000000cH
$LN4@Demod1Car4:

; 2509 : 			intCenterFreq = 1250;

  00191	c7 05 00 00 00
	00 e2 04 00 00	 mov	 DWORD PTR _intCenterFreq, 1250 ; 000004e2H

; 2510 : 			if (CarrierOk[2] == FALSE)

  0019b	0f be 05 02 00
	00 00		 movsx	 eax, BYTE PTR _CarrierOk+2
  001a2	85 c0		 test	 eax, eax
  001a4	75 13		 jne	 SHORT $LN3@Demod1Car4

; 2511 : 				Demod1Car4FSKChar(Start, bytFrameData3, 2);

  001a6	6a 02		 push	 2
  001a8	68 00 00 00 00	 push	 OFFSET _bytFrameData3
  001ad	8b 45 f8	 mov	 eax, DWORD PTR _Start$[ebp]
  001b0	50		 push	 eax
  001b1	e8 00 00 00 00	 call	 _Demod1Car4FSKChar
  001b6	83 c4 0c	 add	 esp, 12			; 0000000cH
$LN3@Demod1Car4:

; 2512 : 			intCenterFreq = 750;

  001b9	c7 05 00 00 00
	00 ee 02 00 00	 mov	 DWORD PTR _intCenterFreq, 750 ; 000002eeH

; 2513 : 			if (CarrierOk[3] == FALSE)

  001c3	0f be 05 03 00
	00 00		 movsx	 eax, BYTE PTR _CarrierOk+3
  001ca	85 c0		 test	 eax, eax
  001cc	75 13		 jne	 SHORT $LN12@Demod1Car4

; 2514 : 				Demod1Car4FSKChar(Start, bytFrameData4, 3);

  001ce	6a 03		 push	 3
  001d0	68 00 00 00 00	 push	 OFFSET _bytFrameData4
  001d5	8b 45 f8	 mov	 eax, DWORD PTR _Start$[ebp]
  001d8	50		 push	 eax
  001d9	e8 00 00 00 00	 call	 _Demod1Car4FSKChar
  001de	83 c4 0c	 add	 esp, 12			; 0000000cH
$LN12@Demod1Car4:

; 2515 : 			break;
; 2516 : 		}
; 2517 : 
; 2518 : 		charIndex++;			// Index into received chars

  001e1	a1 00 00 00 00	 mov	 eax, DWORD PTR _charIndex
  001e6	83 c0 01	 add	 eax, 1
  001e9	a3 00 00 00 00	 mov	 DWORD PTR _charIndex, eax

; 2519 : 		SymbolsLeft--;			// number still to decode

  001ee	a1 00 00 00 00	 mov	 eax, DWORD PTR _SymbolsLeft
  001f3	83 e8 01	 sub	 eax, 1
  001f6	a3 00 00 00 00	 mov	 DWORD PTR _SymbolsLeft, eax

; 2520 : 		Start += intSampPerSym * 4;	// 4 FSK bit pairs per byte

  001fb	a1 00 00 00 00	 mov	 eax, DWORD PTR _intSampPerSym
  00200	8b 4d f8	 mov	 ecx, DWORD PTR _Start$[ebp]
  00203	8d 14 81	 lea	 edx, DWORD PTR [ecx+eax*4]
  00206	89 55 f8	 mov	 DWORD PTR _Start$[ebp], edx

; 2521 : 		intFilteredMixedSamplesLength -= intSampPerSym * 4;

  00209	a1 00 00 00 00	 mov	 eax, DWORD PTR _intSampPerSym
  0020e	c1 e0 02	 shl	 eax, 2
  00211	8b 0d 00 00 00
	00		 mov	 ecx, DWORD PTR _intFilteredMixedSamplesLength
  00217	2b c8		 sub	 ecx, eax
  00219	89 0d 00 00 00
	00		 mov	 DWORD PTR _intFilteredMixedSamplesLength, ecx

; 2522 : 
; 2523 : 		if (SymbolsLeft == 0)	

  0021f	83 3d 00 00 00
	00 00		 cmp	 DWORD PTR _SymbolsLeft, 0
  00226	75 14		 jne	 SHORT $LN1@Demod1Car4

; 2524 : 		{	
; 2525 : 			//- prepare for next
; 2526 : 
; 2527 : 			DiscardOldSamples();

  00228	e8 00 00 00 00	 call	 _DiscardOldSamples

; 2528 : 			ClearAllMixedSamples();

  0022d	e8 00 00 00 00	 call	 _ClearAllMixedSamples

; 2529 : 			State = SearchingForLeader;

  00232	c7 05 00 00 00
	00 00 00 00 00	 mov	 DWORD PTR _State, 0
$LN1@Demod1Car4:

; 2530 : 		}
; 2531 : 	}

  0023c	e9 e4 fd ff ff	 jmp	 $LN17@Demod1Car4
$LN16@Demod1Car4:

; 2532 : 	return TRUE;

  00241	b8 01 00 00 00	 mov	 eax, 1
$LN18@Demod1Car4:

; 2533 : }

  00246	5f		 pop	 edi
  00247	5e		 pop	 esi
  00248	5b		 pop	 ebx
  00249	81 c4 d0 00 00
	00		 add	 esp, 208		; 000000d0H
  0024f	3b ec		 cmp	 ebp, esp
  00251	e8 00 00 00 00	 call	 __RTC_CheckEsp
  00256	8b e5		 mov	 esp, ebp
  00258	5d		 pop	 ebp
  00259	c3		 ret	 0
_Demod1Car4FSK ENDP
_TEXT	ENDS
PUBLIC	__real@3ff8000000000000
EXTRN	_intFSKSymbolCnt:DWORD
_BSS	SEGMENT
?bytSymHistory@?1??Demod1Car4FSKChar@@9@9 DB 03H DUP (?) ; `Demod1Car4FSKChar'::`2'::bytSymHistory
_BSS	ENDS
;	COMDAT __real@3ff8000000000000
CONST	SEGMENT
__real@3ff8000000000000 DQ 03ff8000000000000r	; 1.5
; Function compile flags: /Odtp /RTCsu /ZI
CONST	ENDS
;	COMDAT _Demod1Car4FSKChar
_TEXT	SEGMENT
tv455 = -328						; size = 4
tv423 = -328						; size = 4
tv391 = -328						; size = 4
tv361 = -328						; size = 4
tv529 = -324						; size = 8
tv527 = -324						; size = 8
tv525 = -324						; size = 8
tv523 = -324						; size = 8
tv434 = -320						; size = 4
tv402 = -320						; size = 4
tv447 = -316						; size = 4
tv430 = -316						; size = 4
tv415 = -316						; size = 4
tv398 = -316						; size = 4
tv383 = -316						; size = 4
tv370 = -316						; size = 4
tv353 = -316						; size = 4
tv340 = -316						; size = 4
_intToneMagsptr$ = -116					; size = 4
_bytData$ = -101					; size = 1
_j$ = -92						; size = 4
_bytSym$ = -77						; size = 1
_dblMag$ = -68						; size = 16
_dblMagSum$ = -44					; size = 4
_dblSearchFreq$ = -32					; size = 4
_dblImag$ = -20						; size = 4
_dblReal$ = -8						; size = 4
_Start$ = 8						; size = 4
_Decoded$ = 12						; size = 4
_Carrier$ = 16						; size = 4
_Demod1Car4FSKChar PROC					; COMDAT

; 2538 : {

  00000	55		 push	 ebp
  00001	8b ec		 mov	 ebp, esp
  00003	81 ec 48 01 00
	00		 sub	 esp, 328		; 00000148H
  00009	53		 push	 ebx
  0000a	56		 push	 esi
  0000b	57		 push	 edi
  0000c	8d bd b8 fe ff
	ff		 lea	 edi, DWORD PTR [ebp-328]
  00012	b9 52 00 00 00	 mov	 ecx, 82			; 00000052H
  00017	b8 cc cc cc cc	 mov	 eax, -858993460		; ccccccccH
  0001c	f3 ab		 rep stosd

; 2539 : 	// Converts intSamples to an array of bytes demodulating the 4FSK symbols with center freq intCenterFreq
; 2540 : 	// intPtr should be pointing to the approximate start of the first data symbol  
; 2541 : 	// Updates bytData() with demodulated bytes
; 2542 : 	// Updates bytMinSymQuality with the minimum (range is 25 to 100) symbol making up each byte.
; 2543 : 
; 2544 : 	float dblReal, dblImag;
; 2545 : 	float dblSearchFreq;
; 2546 : 	float dblMagSum = 0;

  0001e	d9 ee		 fldz
  00020	d9 5d d4	 fstp	 DWORD PTR _dblMagSum$[ebp]

; 2547 : 	float  dblMag[4];	// The magnitude for each of the 4FSK frequency bins
; 2548 : 	UCHAR bytSym;
; 2549 : 	static UCHAR bytSymHistory[3];
; 2550 : 	int j;
; 2551 : 	UCHAR bytData = 0;

  00023	c6 45 9b 00	 mov	 BYTE PTR _bytData$[ebp], 0

; 2552 : 
; 2553 : 	int * intToneMagsptr = &intToneMags[Carrier][intToneMagsIndex[Carrier]];

  00027	8b 45 10	 mov	 eax, DWORD PTR _Carrier$[ebp]
  0002a	c1 e0 0e	 shl	 eax, 14			; 0000000eH
  0002d	8b 4d 10	 mov	 ecx, DWORD PTR _Carrier$[ebp]
  00030	8b 14 8d 00 00
	00 00		 mov	 edx, DWORD PTR _intToneMagsIndex[ecx*4]
  00037	8d 84 90 00 00
	00 00		 lea	 eax, DWORD PTR _intToneMags[eax+edx*4]
  0003e	89 45 8c	 mov	 DWORD PTR _intToneMagsptr$[ebp], eax

; 2554 : 	   
; 2555 : 	intToneMagsIndex[Carrier] += 16;

  00041	8b 45 10	 mov	 eax, DWORD PTR _Carrier$[ebp]
  00044	8b 0c 85 00 00
	00 00		 mov	 ecx, DWORD PTR _intToneMagsIndex[eax*4]
  0004b	83 c1 10	 add	 ecx, 16			; 00000010H
  0004e	8b 55 10	 mov	 edx, DWORD PTR _Carrier$[ebp]
  00051	89 0c 95 00 00
	00 00		 mov	 DWORD PTR _intToneMagsIndex[edx*4], ecx

; 2556 : 
; 2557 : 	//	ReDim intToneMags(4 * intNumOfSymbols - 1)
; 2558 :     //    ReDim bytData(intNumOfSymbols \ 4 - 1)
; 2559 : 
; 2560 : 	dblSearchFreq = intCenterFreq + (1.5f * intBaud);	// the highest freq (equiv to lowest sent freq because of sideband reversal)

  00058	db 05 00 00 00
	00		 fild	 DWORD PTR _intCenterFreq
  0005e	db 05 00 00 00
	00		 fild	 DWORD PTR _intBaud
  00064	dc 0d 00 00 00
	00		 fmul	 QWORD PTR __real@3ff8000000000000
  0006a	de c1		 faddp	 ST(1), ST(0)
  0006c	d9 5d e0	 fstp	 DWORD PTR _dblSearchFreq$[ebp]

; 2561 : 
; 2562 : 	// Do one symbol
; 2563 : 
; 2564 : 	for (j = 0; j < 4; j++)		// for each 4FSK symbol (2 bits) in a byte

  0006f	c7 45 a4 00 00
	00 00		 mov	 DWORD PTR _j$[ebp], 0
  00076	eb 09		 jmp	 SHORT $LN10@Demod1Car4@2
$LN9@Demod1Car4@2:
  00078	8b 45 a4	 mov	 eax, DWORD PTR _j$[ebp]
  0007b	83 c0 01	 add	 eax, 1
  0007e	89 45 a4	 mov	 DWORD PTR _j$[ebp], eax
$LN10@Demod1Car4@2:
  00081	83 7d a4 04	 cmp	 DWORD PTR _j$[ebp], 4
  00085	0f 8d ee 03 00
	00		 jge	 $LN8@Demod1Car4@2

; 2565 : 	{
; 2566 : 		dblMagSum = 0;

  0008b	d9 ee		 fldz
  0008d	d9 5d d4	 fstp	 DWORD PTR _dblMagSum$[ebp]

; 2567 : 		GoertzelRealImag(intFilteredMixedSamples, Start, intSampPerSym, dblSearchFreq / intBaud, &dblReal, &dblImag);

  00090	8d 45 ec	 lea	 eax, DWORD PTR _dblImag$[ebp]
  00093	50		 push	 eax
  00094	8d 4d f8	 lea	 ecx, DWORD PTR _dblReal$[ebp]
  00097	51		 push	 ecx
  00098	db 05 00 00 00
	00		 fild	 DWORD PTR _intBaud
  0009e	d8 7d e0	 fdivr	 DWORD PTR _dblSearchFreq$[ebp]
  000a1	d9 9d c4 fe ff
	ff		 fstp	 DWORD PTR tv340[ebp]
  000a7	d9 85 c4 fe ff
	ff		 fld	 DWORD PTR tv340[ebp]
  000ad	51		 push	 ecx
  000ae	d9 1c 24	 fstp	 DWORD PTR [esp]
  000b1	8b 15 00 00 00
	00		 mov	 edx, DWORD PTR _intSampPerSym
  000b7	52		 push	 edx
  000b8	8b 45 08	 mov	 eax, DWORD PTR _Start$[ebp]
  000bb	50		 push	 eax
  000bc	68 00 00 00 00	 push	 OFFSET _intFilteredMixedSamples
  000c1	e8 00 00 00 00	 call	 _GoertzelRealImag
  000c6	83 c4 18	 add	 esp, 24			; 00000018H

; 2568 : 		dblMag[0] = powf(dblReal,2) + powf(dblImag, 2);

  000c9	83 ec 08	 sub	 esp, 8
  000cc	dd 05 00 00 00
	00		 fld	 QWORD PTR __real@4000000000000000
  000d2	dd 1c 24	 fstp	 QWORD PTR [esp]
  000d5	d9 45 f8	 fld	 DWORD PTR _dblReal$[ebp]
  000d8	83 ec 08	 sub	 esp, 8
  000db	dd 1c 24	 fstp	 QWORD PTR [esp]
  000de	e8 00 00 00 00	 call	 _pow
  000e3	83 c4 10	 add	 esp, 16			; 00000010H
  000e6	d9 9d c4 fe ff
	ff		 fstp	 DWORD PTR tv353[ebp]
  000ec	d9 85 c4 fe ff
	ff		 fld	 DWORD PTR tv353[ebp]
  000f2	83 ec 08	 sub	 esp, 8
  000f5	dd 05 00 00 00
	00		 fld	 QWORD PTR __real@4000000000000000
  000fb	dd 1c 24	 fstp	 QWORD PTR [esp]
  000fe	d9 45 ec	 fld	 DWORD PTR _dblImag$[ebp]
  00101	83 ec 08	 sub	 esp, 8
  00104	dd 1c 24	 fstp	 QWORD PTR [esp]
  00107	dd 9d bc fe ff
	ff		 fstp	 QWORD PTR tv523[ebp]
  0010d	e8 00 00 00 00	 call	 _pow
  00112	83 c4 10	 add	 esp, 16			; 00000010H
  00115	d9 9d b8 fe ff
	ff		 fstp	 DWORD PTR tv361[ebp]
  0011b	d9 85 b8 fe ff
	ff		 fld	 DWORD PTR tv361[ebp]
  00121	dc 85 bc fe ff
	ff		 fadd	 QWORD PTR tv523[ebp]
  00127	d9 5d bc	 fstp	 DWORD PTR _dblMag$[ebp]

; 2569 : 		dblMagSum += dblMag[0];

  0012a	d9 45 d4	 fld	 DWORD PTR _dblMagSum$[ebp]
  0012d	d8 45 bc	 fadd	 DWORD PTR _dblMag$[ebp]
  00130	d9 5d d4	 fstp	 DWORD PTR _dblMagSum$[ebp]

; 2570 : 
; 2571 :         GoertzelRealImag(intFilteredMixedSamples, Start, intSampPerSym, (dblSearchFreq - intBaud) / intBaud, &dblReal, &dblImag);

  00133	8d 45 ec	 lea	 eax, DWORD PTR _dblImag$[ebp]
  00136	50		 push	 eax
  00137	8d 4d f8	 lea	 ecx, DWORD PTR _dblReal$[ebp]
  0013a	51		 push	 ecx
  0013b	db 05 00 00 00
	00		 fild	 DWORD PTR _intBaud
  00141	d8 6d e0	 fsubr	 DWORD PTR _dblSearchFreq$[ebp]
  00144	da 35 00 00 00
	00		 fidiv	 DWORD PTR _intBaud
  0014a	d9 9d c4 fe ff
	ff		 fstp	 DWORD PTR tv370[ebp]
  00150	d9 85 c4 fe ff
	ff		 fld	 DWORD PTR tv370[ebp]
  00156	51		 push	 ecx
  00157	d9 1c 24	 fstp	 DWORD PTR [esp]
  0015a	8b 15 00 00 00
	00		 mov	 edx, DWORD PTR _intSampPerSym
  00160	52		 push	 edx
  00161	8b 45 08	 mov	 eax, DWORD PTR _Start$[ebp]
  00164	50		 push	 eax
  00165	68 00 00 00 00	 push	 OFFSET _intFilteredMixedSamples
  0016a	e8 00 00 00 00	 call	 _GoertzelRealImag
  0016f	83 c4 18	 add	 esp, 24			; 00000018H

; 2572 : 		dblMag[1] = powf(dblReal,2) + powf(dblImag, 2);

  00172	83 ec 08	 sub	 esp, 8
  00175	dd 05 00 00 00
	00		 fld	 QWORD PTR __real@4000000000000000
  0017b	dd 1c 24	 fstp	 QWORD PTR [esp]
  0017e	d9 45 f8	 fld	 DWORD PTR _dblReal$[ebp]
  00181	83 ec 08	 sub	 esp, 8
  00184	dd 1c 24	 fstp	 QWORD PTR [esp]
  00187	e8 00 00 00 00	 call	 _pow
  0018c	83 c4 10	 add	 esp, 16			; 00000010H
  0018f	d9 9d c4 fe ff
	ff		 fstp	 DWORD PTR tv383[ebp]
  00195	d9 85 c4 fe ff
	ff		 fld	 DWORD PTR tv383[ebp]
  0019b	83 ec 08	 sub	 esp, 8
  0019e	dd 05 00 00 00
	00		 fld	 QWORD PTR __real@4000000000000000
  001a4	dd 1c 24	 fstp	 QWORD PTR [esp]
  001a7	d9 45 ec	 fld	 DWORD PTR _dblImag$[ebp]
  001aa	83 ec 08	 sub	 esp, 8
  001ad	dd 1c 24	 fstp	 QWORD PTR [esp]
  001b0	dd 9d bc fe ff
	ff		 fstp	 QWORD PTR tv525[ebp]
  001b6	e8 00 00 00 00	 call	 _pow
  001bb	83 c4 10	 add	 esp, 16			; 00000010H
  001be	d9 9d b8 fe ff
	ff		 fstp	 DWORD PTR tv391[ebp]
  001c4	d9 85 b8 fe ff
	ff		 fld	 DWORD PTR tv391[ebp]
  001ca	dc 85 bc fe ff
	ff		 fadd	 QWORD PTR tv525[ebp]
  001d0	d9 5d c0	 fstp	 DWORD PTR _dblMag$[ebp+4]

; 2573 : 		dblMagSum += dblMag[1];

  001d3	d9 45 d4	 fld	 DWORD PTR _dblMagSum$[ebp]
  001d6	d8 45 c0	 fadd	 DWORD PTR _dblMag$[ebp+4]
  001d9	d9 5d d4	 fstp	 DWORD PTR _dblMagSum$[ebp]

; 2574 : 
; 2575 : 		GoertzelRealImag(intFilteredMixedSamples, Start, intSampPerSym, (dblSearchFreq - 2 * intBaud) / intBaud, &dblReal, &dblImag);

  001dc	8d 45 ec	 lea	 eax, DWORD PTR _dblImag$[ebp]
  001df	50		 push	 eax
  001e0	8d 4d f8	 lea	 ecx, DWORD PTR _dblReal$[ebp]
  001e3	51		 push	 ecx
  001e4	8b 15 00 00 00
	00		 mov	 edx, DWORD PTR _intBaud
  001ea	d1 e2		 shl	 edx, 1
  001ec	89 95 c4 fe ff
	ff		 mov	 DWORD PTR tv398[ebp], edx
  001f2	db 85 c4 fe ff
	ff		 fild	 DWORD PTR tv398[ebp]
  001f8	d8 6d e0	 fsubr	 DWORD PTR _dblSearchFreq$[ebp]
  001fb	da 35 00 00 00
	00		 fidiv	 DWORD PTR _intBaud
  00201	d9 9d c0 fe ff
	ff		 fstp	 DWORD PTR tv402[ebp]
  00207	d9 85 c0 fe ff
	ff		 fld	 DWORD PTR tv402[ebp]
  0020d	51		 push	 ecx
  0020e	d9 1c 24	 fstp	 DWORD PTR [esp]
  00211	a1 00 00 00 00	 mov	 eax, DWORD PTR _intSampPerSym
  00216	50		 push	 eax
  00217	8b 4d 08	 mov	 ecx, DWORD PTR _Start$[ebp]
  0021a	51		 push	 ecx
  0021b	68 00 00 00 00	 push	 OFFSET _intFilteredMixedSamples
  00220	e8 00 00 00 00	 call	 _GoertzelRealImag
  00225	83 c4 18	 add	 esp, 24			; 00000018H

; 2576 : 		dblMag[2] = powf(dblReal,2) + powf(dblImag, 2);

  00228	83 ec 08	 sub	 esp, 8
  0022b	dd 05 00 00 00
	00		 fld	 QWORD PTR __real@4000000000000000
  00231	dd 1c 24	 fstp	 QWORD PTR [esp]
  00234	d9 45 f8	 fld	 DWORD PTR _dblReal$[ebp]
  00237	83 ec 08	 sub	 esp, 8
  0023a	dd 1c 24	 fstp	 QWORD PTR [esp]
  0023d	e8 00 00 00 00	 call	 _pow
  00242	83 c4 10	 add	 esp, 16			; 00000010H
  00245	d9 9d c4 fe ff
	ff		 fstp	 DWORD PTR tv415[ebp]
  0024b	d9 85 c4 fe ff
	ff		 fld	 DWORD PTR tv415[ebp]
  00251	83 ec 08	 sub	 esp, 8
  00254	dd 05 00 00 00
	00		 fld	 QWORD PTR __real@4000000000000000
  0025a	dd 1c 24	 fstp	 QWORD PTR [esp]
  0025d	d9 45 ec	 fld	 DWORD PTR _dblImag$[ebp]
  00260	83 ec 08	 sub	 esp, 8
  00263	dd 1c 24	 fstp	 QWORD PTR [esp]
  00266	dd 9d bc fe ff
	ff		 fstp	 QWORD PTR tv527[ebp]
  0026c	e8 00 00 00 00	 call	 _pow
  00271	83 c4 10	 add	 esp, 16			; 00000010H
  00274	d9 9d b8 fe ff
	ff		 fstp	 DWORD PTR tv423[ebp]
  0027a	d9 85 b8 fe ff
	ff		 fld	 DWORD PTR tv423[ebp]
  00280	dc 85 bc fe ff
	ff		 fadd	 QWORD PTR tv527[ebp]
  00286	d9 5d c4	 fstp	 DWORD PTR _dblMag$[ebp+8]

; 2577 : 		dblMagSum += dblMag[2];

  00289	d9 45 d4	 fld	 DWORD PTR _dblMagSum$[ebp]
  0028c	d8 45 c4	 fadd	 DWORD PTR _dblMag$[ebp+8]
  0028f	d9 5d d4	 fstp	 DWORD PTR _dblMagSum$[ebp]

; 2578 : 			
; 2579 : 		GoertzelRealImag(intFilteredMixedSamples, Start, intSampPerSym, (dblSearchFreq - 3 * intBaud) / intBaud, &dblReal,& dblImag);

  00292	8d 45 ec	 lea	 eax, DWORD PTR _dblImag$[ebp]
  00295	50		 push	 eax
  00296	8d 4d f8	 lea	 ecx, DWORD PTR _dblReal$[ebp]
  00299	51		 push	 ecx
  0029a	8b 15 00 00 00
	00		 mov	 edx, DWORD PTR _intBaud
  002a0	6b d2 03	 imul	 edx, 3
  002a3	89 95 c4 fe ff
	ff		 mov	 DWORD PTR tv430[ebp], edx
  002a9	db 85 c4 fe ff
	ff		 fild	 DWORD PTR tv430[ebp]
  002af	d8 6d e0	 fsubr	 DWORD PTR _dblSearchFreq$[ebp]
  002b2	da 35 00 00 00
	00		 fidiv	 DWORD PTR _intBaud
  002b8	d9 9d c0 fe ff
	ff		 fstp	 DWORD PTR tv434[ebp]
  002be	d9 85 c0 fe ff
	ff		 fld	 DWORD PTR tv434[ebp]
  002c4	51		 push	 ecx
  002c5	d9 1c 24	 fstp	 DWORD PTR [esp]
  002c8	a1 00 00 00 00	 mov	 eax, DWORD PTR _intSampPerSym
  002cd	50		 push	 eax
  002ce	8b 4d 08	 mov	 ecx, DWORD PTR _Start$[ebp]
  002d1	51		 push	 ecx
  002d2	68 00 00 00 00	 push	 OFFSET _intFilteredMixedSamples
  002d7	e8 00 00 00 00	 call	 _GoertzelRealImag
  002dc	83 c4 18	 add	 esp, 24			; 00000018H

; 2580 : 		dblMag[3] = powf(dblReal,2) + powf(dblImag, 2);

  002df	83 ec 08	 sub	 esp, 8
  002e2	dd 05 00 00 00
	00		 fld	 QWORD PTR __real@4000000000000000
  002e8	dd 1c 24	 fstp	 QWORD PTR [esp]
  002eb	d9 45 f8	 fld	 DWORD PTR _dblReal$[ebp]
  002ee	83 ec 08	 sub	 esp, 8
  002f1	dd 1c 24	 fstp	 QWORD PTR [esp]
  002f4	e8 00 00 00 00	 call	 _pow
  002f9	83 c4 10	 add	 esp, 16			; 00000010H
  002fc	d9 9d c4 fe ff
	ff		 fstp	 DWORD PTR tv447[ebp]
  00302	d9 85 c4 fe ff
	ff		 fld	 DWORD PTR tv447[ebp]
  00308	83 ec 08	 sub	 esp, 8
  0030b	dd 05 00 00 00
	00		 fld	 QWORD PTR __real@4000000000000000
  00311	dd 1c 24	 fstp	 QWORD PTR [esp]
  00314	d9 45 ec	 fld	 DWORD PTR _dblImag$[ebp]
  00317	83 ec 08	 sub	 esp, 8
  0031a	dd 1c 24	 fstp	 QWORD PTR [esp]
  0031d	dd 9d bc fe ff
	ff		 fstp	 QWORD PTR tv529[ebp]
  00323	e8 00 00 00 00	 call	 _pow
  00328	83 c4 10	 add	 esp, 16			; 00000010H
  0032b	d9 9d b8 fe ff
	ff		 fstp	 DWORD PTR tv455[ebp]
  00331	d9 85 b8 fe ff
	ff		 fld	 DWORD PTR tv455[ebp]
  00337	dc 85 bc fe ff
	ff		 fadd	 QWORD PTR tv529[ebp]
  0033d	d9 5d c8	 fstp	 DWORD PTR _dblMag$[ebp+12]

; 2581 : 		dblMagSum += dblMag[3];

  00340	d9 45 d4	 fld	 DWORD PTR _dblMagSum$[ebp]
  00343	d8 45 c8	 fadd	 DWORD PTR _dblMag$[ebp+12]
  00346	d9 5d d4	 fstp	 DWORD PTR _dblMagSum$[ebp]

; 2582 : 
; 2583 : 		if (dblMag[0] > dblMag[1] && dblMag[0] > dblMag[2] && dblMag[0] > dblMag[3])

  00349	d9 45 bc	 fld	 DWORD PTR _dblMag$[ebp]
  0034c	d9 45 c0	 fld	 DWORD PTR _dblMag$[ebp+4]
  0034f	de d9		 fcompp
  00351	df e0		 fnstsw	 ax
  00353	f6 c4 05	 test	 ah, 5
  00356	7a 24		 jp	 SHORT $LN7@Demod1Car4@2
  00358	d9 45 bc	 fld	 DWORD PTR _dblMag$[ebp]
  0035b	d9 45 c4	 fld	 DWORD PTR _dblMag$[ebp+8]
  0035e	de d9		 fcompp
  00360	df e0		 fnstsw	 ax
  00362	f6 c4 05	 test	 ah, 5
  00365	7a 15		 jp	 SHORT $LN7@Demod1Car4@2
  00367	d9 45 bc	 fld	 DWORD PTR _dblMag$[ebp]
  0036a	d9 45 c8	 fld	 DWORD PTR _dblMag$[ebp+12]
  0036d	de d9		 fcompp
  0036f	df e0		 fnstsw	 ax
  00371	f6 c4 05	 test	 ah, 5
  00374	7a 06		 jp	 SHORT $LN7@Demod1Car4@2

; 2584 : 			bytSym = 0;

  00376	c6 45 b3 00	 mov	 BYTE PTR _bytSym$[ebp], 0
  0037a	eb 6a		 jmp	 SHORT $LN2@Demod1Car4@2
$LN7@Demod1Car4@2:

; 2585 : 		else if (dblMag[1] > dblMag[0] && dblMag[1] > dblMag[2] && dblMag[1] > dblMag[3])

  0037c	d9 45 c0	 fld	 DWORD PTR _dblMag$[ebp+4]
  0037f	d9 45 bc	 fld	 DWORD PTR _dblMag$[ebp]
  00382	de d9		 fcompp
  00384	df e0		 fnstsw	 ax
  00386	f6 c4 05	 test	 ah, 5
  00389	7a 24		 jp	 SHORT $LN5@Demod1Car4@2
  0038b	d9 45 c0	 fld	 DWORD PTR _dblMag$[ebp+4]
  0038e	d9 45 c4	 fld	 DWORD PTR _dblMag$[ebp+8]
  00391	de d9		 fcompp
  00393	df e0		 fnstsw	 ax
  00395	f6 c4 05	 test	 ah, 5
  00398	7a 15		 jp	 SHORT $LN5@Demod1Car4@2
  0039a	d9 45 c0	 fld	 DWORD PTR _dblMag$[ebp+4]
  0039d	d9 45 c8	 fld	 DWORD PTR _dblMag$[ebp+12]
  003a0	de d9		 fcompp
  003a2	df e0		 fnstsw	 ax
  003a4	f6 c4 05	 test	 ah, 5
  003a7	7a 06		 jp	 SHORT $LN5@Demod1Car4@2

; 2586 : 			bytSym = 1;

  003a9	c6 45 b3 01	 mov	 BYTE PTR _bytSym$[ebp], 1
  003ad	eb 37		 jmp	 SHORT $LN2@Demod1Car4@2
$LN5@Demod1Car4@2:

; 2587 : 		else if (dblMag[2] > dblMag[0] && dblMag[2] > dblMag[1] && dblMag[2] > dblMag[3])

  003af	d9 45 c4	 fld	 DWORD PTR _dblMag$[ebp+8]
  003b2	d9 45 bc	 fld	 DWORD PTR _dblMag$[ebp]
  003b5	de d9		 fcompp
  003b7	df e0		 fnstsw	 ax
  003b9	f6 c4 05	 test	 ah, 5
  003bc	7a 24		 jp	 SHORT $LN3@Demod1Car4@2
  003be	d9 45 c4	 fld	 DWORD PTR _dblMag$[ebp+8]
  003c1	d9 45 c0	 fld	 DWORD PTR _dblMag$[ebp+4]
  003c4	de d9		 fcompp
  003c6	df e0		 fnstsw	 ax
  003c8	f6 c4 05	 test	 ah, 5
  003cb	7a 15		 jp	 SHORT $LN3@Demod1Car4@2
  003cd	d9 45 c4	 fld	 DWORD PTR _dblMag$[ebp+8]
  003d0	d9 45 c8	 fld	 DWORD PTR _dblMag$[ebp+12]
  003d3	de d9		 fcompp
  003d5	df e0		 fnstsw	 ax
  003d7	f6 c4 05	 test	 ah, 5
  003da	7a 06		 jp	 SHORT $LN3@Demod1Car4@2

; 2588 : 			bytSym = 2;

  003dc	c6 45 b3 02	 mov	 BYTE PTR _bytSym$[ebp], 2

; 2589 : 		else

  003e0	eb 04		 jmp	 SHORT $LN2@Demod1Car4@2
$LN3@Demod1Car4@2:

; 2590 : 			bytSym = 3;

  003e2	c6 45 b3 03	 mov	 BYTE PTR _bytSym$[ebp], 3
$LN2@Demod1Car4@2:

; 2591 : 
; 2592 : 		bytData = (bytData << 2) + bytSym;

  003e6	0f b6 45 9b	 movzx	 eax, BYTE PTR _bytData$[ebp]
  003ea	0f b6 4d b3	 movzx	 ecx, BYTE PTR _bytSym$[ebp]
  003ee	8d 14 81	 lea	 edx, DWORD PTR [ecx+eax*4]
  003f1	88 55 9b	 mov	 BYTE PTR _bytData$[ebp], dl

; 2593 : 
; 2594 : 		// !!!!!!! this needs attention !!!!!!!!
; 2595 : 
; 2596 : 		*intToneMagsptr++ = dblMag[0];

  003f4	d9 45 bc	 fld	 DWORD PTR _dblMag$[ebp]
  003f7	e8 00 00 00 00	 call	 __ftol2_sse
  003fc	8b 4d 8c	 mov	 ecx, DWORD PTR _intToneMagsptr$[ebp]
  003ff	89 01		 mov	 DWORD PTR [ecx], eax
  00401	8b 55 8c	 mov	 edx, DWORD PTR _intToneMagsptr$[ebp]
  00404	83 c2 04	 add	 edx, 4
  00407	89 55 8c	 mov	 DWORD PTR _intToneMagsptr$[ebp], edx

; 2597 : 		*intToneMagsptr++ = dblMag[1];

  0040a	d9 45 c0	 fld	 DWORD PTR _dblMag$[ebp+4]
  0040d	e8 00 00 00 00	 call	 __ftol2_sse
  00412	8b 4d 8c	 mov	 ecx, DWORD PTR _intToneMagsptr$[ebp]
  00415	89 01		 mov	 DWORD PTR [ecx], eax
  00417	8b 55 8c	 mov	 edx, DWORD PTR _intToneMagsptr$[ebp]
  0041a	83 c2 04	 add	 edx, 4
  0041d	89 55 8c	 mov	 DWORD PTR _intToneMagsptr$[ebp], edx

; 2598 : 		*intToneMagsptr++ = dblMag[2];

  00420	d9 45 c4	 fld	 DWORD PTR _dblMag$[ebp+8]
  00423	e8 00 00 00 00	 call	 __ftol2_sse
  00428	8b 4d 8c	 mov	 ecx, DWORD PTR _intToneMagsptr$[ebp]
  0042b	89 01		 mov	 DWORD PTR [ecx], eax
  0042d	8b 55 8c	 mov	 edx, DWORD PTR _intToneMagsptr$[ebp]
  00430	83 c2 04	 add	 edx, 4
  00433	89 55 8c	 mov	 DWORD PTR _intToneMagsptr$[ebp], edx

; 2599 : 		*intToneMagsptr++ = dblMag[3];

  00436	d9 45 c8	 fld	 DWORD PTR _dblMag$[ebp+12]
  00439	e8 00 00 00 00	 call	 __ftol2_sse
  0043e	8b 4d 8c	 mov	 ecx, DWORD PTR _intToneMagsptr$[ebp]
  00441	89 01		 mov	 DWORD PTR [ecx], eax
  00443	8b 55 8c	 mov	 edx, DWORD PTR _intToneMagsptr$[ebp]
  00446	83 c2 04	 add	 edx, 4
  00449	89 55 8c	 mov	 DWORD PTR _intToneMagsptr$[ebp], edx

; 2600 : 		bytSymHistory[0] = bytSymHistory[1];

  0044c	a0 01 00 00 00	 mov	 al, BYTE PTR ?bytSymHistory@?1??Demod1Car4FSKChar@@9@9+1
  00451	a2 00 00 00 00	 mov	 BYTE PTR ?bytSymHistory@?1??Demod1Car4FSKChar@@9@9, al

; 2601 : 		bytSymHistory[1] = bytSymHistory[2];

  00456	a0 02 00 00 00	 mov	 al, BYTE PTR ?bytSymHistory@?1??Demod1Car4FSKChar@@9@9+2
  0045b	a2 01 00 00 00	 mov	 BYTE PTR ?bytSymHistory@?1??Demod1Car4FSKChar@@9@9+1, al

; 2602 : 		bytSymHistory[2] = bytSym;

  00460	8a 45 b3	 mov	 al, BYTE PTR _bytSym$[ebp]
  00463	a2 02 00 00 00	 mov	 BYTE PTR ?bytSymHistory@?1??Demod1Car4FSKChar@@9@9+2, al

; 2603 : 
; 2604 : //		if ((bytSymHistory[0] != bytSymHistory[1]) && (bytSymHistory[1] != bytSymHistory[2]))
; 2605 : 		{
; 2606 : 			// only track when adjacent symbols are different (statistically about 56% of the time) 
; 2607 : 			// this should allow tracking over 2000 ppm sampling rate error	
; 2608 : //			if (Start > intSampPerSym + 2)
; 2609 : //				Track1Car4FSK(intFilteredMixedSamples, &Start, intSampPerSym, dblSearchFreq, intBaud, bytSymHistory);
; 2610 : 		}
; 2611 : 		Start += intSampPerSym; // advance the pointer one symbol

  00468	8b 45 08	 mov	 eax, DWORD PTR _Start$[ebp]
  0046b	03 05 00 00 00
	00		 add	 eax, DWORD PTR _intSampPerSym
  00471	89 45 08	 mov	 DWORD PTR _Start$[ebp], eax

; 2612 : 	}

  00474	e9 ff fb ff ff	 jmp	 $LN9@Demod1Car4@2
$LN8@Demod1Car4@2:

; 2613 : 
; 2614 : 	if (AccumulateStats)

  00479	83 3d 00 00 00
	00 00		 cmp	 DWORD PTR _AccumulateStats, 0
  00480	74 0d		 je	 SHORT $LN1@Demod1Car4@2

; 2615 : 		intFSKSymbolCnt += 4;

  00482	a1 00 00 00 00	 mov	 eax, DWORD PTR _intFSKSymbolCnt
  00487	83 c0 04	 add	 eax, 4
  0048a	a3 00 00 00 00	 mov	 DWORD PTR _intFSKSymbolCnt, eax
$LN1@Demod1Car4@2:

; 2616 :  
; 2617 : 	Decoded[charIndex] = bytData;	

  0048f	8b 45 0c	 mov	 eax, DWORD PTR _Decoded$[ebp]
  00492	03 05 00 00 00
	00		 add	 eax, DWORD PTR _charIndex
  00498	8a 4d 9b	 mov	 cl, BYTE PTR _bytData$[ebp]
  0049b	88 08		 mov	 BYTE PTR [eax], cl

; 2618 : 	return;
; 2619 : }

  0049d	52		 push	 edx
  0049e	8b cd		 mov	 ecx, ebp
  004a0	50		 push	 eax
  004a1	8d 15 00 00 00
	00		 lea	 edx, DWORD PTR $LN17@Demod1Car4@2
  004a7	e8 00 00 00 00	 call	 @_RTC_CheckStackVars@8
  004ac	58		 pop	 eax
  004ad	5a		 pop	 edx
  004ae	5f		 pop	 edi
  004af	5e		 pop	 esi
  004b0	5b		 pop	 ebx
  004b1	81 c4 48 01 00
	00		 add	 esp, 328		; 00000148H
  004b7	3b ec		 cmp	 ebp, esp
  004b9	e8 00 00 00 00	 call	 __RTC_CheckEsp
  004be	8b e5		 mov	 esp, ebp
  004c0	5d		 pop	 ebp
  004c1	c3		 ret	 0
  004c2	8b ff		 npad	 2
$LN17@Demod1Car4@2:
  004c4	03 00 00 00	 DD	 3
  004c8	00 00 00 00	 DD	 $LN16@Demod1Car4@2
$LN16@Demod1Car4@2:
  004cc	f8 ff ff ff	 DD	 -8			; fffffff8H
  004d0	04 00 00 00	 DD	 4
  004d4	00 00 00 00	 DD	 $LN13@Demod1Car4@2
  004d8	ec ff ff ff	 DD	 -20			; ffffffecH
  004dc	04 00 00 00	 DD	 4
  004e0	00 00 00 00	 DD	 $LN14@Demod1Car4@2
  004e4	bc ff ff ff	 DD	 -68			; ffffffbcH
  004e8	10 00 00 00	 DD	 16			; 00000010H
  004ec	00 00 00 00	 DD	 $LN15@Demod1Car4@2
$LN15@Demod1Car4@2:
  004f0	64		 DB	 100			; 00000064H
  004f1	62		 DB	 98			; 00000062H
  004f2	6c		 DB	 108			; 0000006cH
  004f3	4d		 DB	 77			; 0000004dH
  004f4	61		 DB	 97			; 00000061H
  004f5	67		 DB	 103			; 00000067H
  004f6	00		 DB	 0
$LN14@Demod1Car4@2:
  004f7	64		 DB	 100			; 00000064H
  004f8	62		 DB	 98			; 00000062H
  004f9	6c		 DB	 108			; 0000006cH
  004fa	49		 DB	 73			; 00000049H
  004fb	6d		 DB	 109			; 0000006dH
  004fc	61		 DB	 97			; 00000061H
  004fd	67		 DB	 103			; 00000067H
  004fe	00		 DB	 0
$LN13@Demod1Car4@2:
  004ff	64		 DB	 100			; 00000064H
  00500	62		 DB	 98			; 00000062H
  00501	6c		 DB	 108			; 0000006cH
  00502	52		 DB	 82			; 00000052H
  00503	65		 DB	 101			; 00000065H
  00504	61		 DB	 97			; 00000061H
  00505	6c		 DB	 108			; 0000006cH
  00506	00		 DB	 0
_Demod1Car4FSKChar ENDP
_TEXT	ENDS
PUBLIC	_Demod1Car4FSK600Char
PUBLIC	_Demod1Car4FSK600
; Function compile flags: /Odtp /RTCsu /ZI
;	COMDAT _Demod1Car4FSK600
_TEXT	SEGMENT
_Start$ = -8						; size = 4
_Demod1Car4FSK600 PROC					; COMDAT

; 2628 : {

  00000	55		 push	 ebp
  00001	8b ec		 mov	 ebp, esp
  00003	81 ec cc 00 00
	00		 sub	 esp, 204		; 000000ccH
  00009	53		 push	 ebx
  0000a	56		 push	 esi
  0000b	57		 push	 edi
  0000c	8d bd 34 ff ff
	ff		 lea	 edi, DWORD PTR [ebp-204]
  00012	b9 33 00 00 00	 mov	 ecx, 51			; 00000033H
  00017	b8 cc cc cc cc	 mov	 eax, -858993460		; ccccccccH
  0001c	f3 ab		 rep stosd

; 2629 : 	int Start = 0;

  0001e	c7 45 f8 00 00
	00 00		 mov	 DWORD PTR _Start$[ebp], 0
$LN10@Demod1Car4@3:

; 2630 : 	
; 2631 : 	// We can't wait for the full frame as we don't have enough data, so
; 2632 : 	// we do one character at a time, until we run out or end of frame
; 2633 : 
; 2634 : 	// Only continue if we have more than intSampPerSym * 4 chars
; 2635 : 
; 2636 : 	while (State == AcquireFrame)

  00025	83 3d 00 00 00
	00 05		 cmp	 DWORD PTR _State, 5
  0002c	0f 85 49 01 00
	00		 jne	 $LN9@Demod1Car4@3

; 2637 : 	{
; 2638 : 		if (intFilteredMixedSamplesLength < ((intSampPerSym * 4) + 20)) // allow for correcrions

  00032	a1 00 00 00 00	 mov	 eax, DWORD PTR _intSampPerSym
  00037	8d 0c 85 14 00
	00 00		 lea	 ecx, DWORD PTR [eax*4+20]
  0003e	39 0d 00 00 00
	00		 cmp	 DWORD PTR _intFilteredMixedSamplesLength, ecx
  00044	7d 4a		 jge	 SHORT $LN8@Demod1Car4@3

; 2639 : 		{
; 2640 : 			// Move any unprocessessed data down buffer
; 2641 : 
; 2642 : 			//	(while checking process - will use cyclic buffer eventually
; 2643 : 
; 2644 : //			WriteDebugLog("Corrections %d", Corrections);
; 2645 : 
; 2646 : 			// If corrections is non-zero, we have to adjust
; 2647 : 			//	number left
; 2648 : 
; 2649 : 			intFilteredMixedSamplesLength -= Corrections;

  00046	a1 00 00 00 00	 mov	 eax, DWORD PTR _intFilteredMixedSamplesLength
  0004b	2b 05 00 00 00
	00		 sub	 eax, DWORD PTR _Corrections
  00051	a3 00 00 00 00	 mov	 DWORD PTR _intFilteredMixedSamplesLength, eax

; 2650 : 
; 2651 : 			Corrections = 0;

  00056	c7 05 00 00 00
	00 00 00 00 00	 mov	 DWORD PTR _Corrections, 0

; 2652 : 
; 2653 : 			if (intFilteredMixedSamplesLength > 0)

  00060	83 3d 00 00 00
	00 00		 cmp	 DWORD PTR _intFilteredMixedSamplesLength, 0
  00067	7e 20		 jle	 SHORT $LN7@Demod1Car4@3

; 2654 : 				memmove(intFilteredMixedSamples,
; 2655 : 					&intFilteredMixedSamples[Start], intFilteredMixedSamplesLength * 2); 

  00069	a1 00 00 00 00	 mov	 eax, DWORD PTR _intFilteredMixedSamplesLength
  0006e	d1 e0		 shl	 eax, 1
  00070	50		 push	 eax
  00071	8b 4d f8	 mov	 ecx, DWORD PTR _Start$[ebp]
  00074	8d 14 4d 00 00
	00 00		 lea	 edx, DWORD PTR _intFilteredMixedSamples[ecx*2]
  0007b	52		 push	 edx
  0007c	68 00 00 00 00	 push	 OFFSET _intFilteredMixedSamples
  00081	e8 00 00 00 00	 call	 _memmove
  00086	83 c4 0c	 add	 esp, 12			; 0000000cH
$LN7@Demod1Car4@3:

; 2656 : 
; 2657 : 			return FALSE;

  00089	33 c0		 xor	 eax, eax
  0008b	e9 f0 00 00 00	 jmp	 $LN11@Demod1Car4@3
$LN8@Demod1Car4@3:

; 2658 : 		}
; 2659 : 	
; 2660 : 		intCenterFreq = 1500;

  00090	c7 05 00 00 00
	00 dc 05 00 00	 mov	 DWORD PTR _intCenterFreq, 1500 ; 000005dcH

; 2661 : 		if (CarrierOk[DummyCarrier] == FALSE)

  0009a	a1 00 00 00 00	 mov	 eax, DWORD PTR _DummyCarrier
  0009f	0f be 88 00 00
	00 00		 movsx	 ecx, BYTE PTR _CarrierOk[eax]
  000a6	85 c9		 test	 ecx, ecx
  000a8	75 19		 jne	 SHORT $LN6@Demod1Car4@3

; 2662 : 			Demod1Car4FSK600Char(Start, Decode600Buffer, DummyCarrier);

  000aa	a1 00 00 00 00	 mov	 eax, DWORD PTR _DummyCarrier
  000af	50		 push	 eax
  000b0	8b 0d 00 00 00
	00		 mov	 ecx, DWORD PTR _Decode600Buffer
  000b6	51		 push	 ecx
  000b7	8b 55 f8	 mov	 edx, DWORD PTR _Start$[ebp]
  000ba	52		 push	 edx
  000bb	e8 00 00 00 00	 call	 _Demod1Car4FSK600Char
  000c0	83 c4 0c	 add	 esp, 12			; 0000000cH
$LN6@Demod1Car4@3:

; 2663 : 
; 2664 : 		charIndex++;			// Index into received chars

  000c3	a1 00 00 00 00	 mov	 eax, DWORD PTR _charIndex
  000c8	83 c0 01	 add	 eax, 1
  000cb	a3 00 00 00 00	 mov	 DWORD PTR _charIndex, eax

; 2665 : 
; 2666 : 		SymbolsLeft--;			// number still to decode

  000d0	a1 00 00 00 00	 mov	 eax, DWORD PTR _SymbolsLeft
  000d5	83 e8 01	 sub	 eax, 1
  000d8	a3 00 00 00 00	 mov	 DWORD PTR _SymbolsLeft, eax

; 2667 : 		Start += intSampPerSym * 4;	// 4 FSK bit pairs per byte

  000dd	a1 00 00 00 00	 mov	 eax, DWORD PTR _intSampPerSym
  000e2	8b 4d f8	 mov	 ecx, DWORD PTR _Start$[ebp]
  000e5	8d 14 81	 lea	 edx, DWORD PTR [ecx+eax*4]
  000e8	89 55 f8	 mov	 DWORD PTR _Start$[ebp], edx

; 2668 : 		intFilteredMixedSamplesLength -= intSampPerSym * 4;

  000eb	a1 00 00 00 00	 mov	 eax, DWORD PTR _intSampPerSym
  000f0	c1 e0 02	 shl	 eax, 2
  000f3	8b 0d 00 00 00
	00		 mov	 ecx, DWORD PTR _intFilteredMixedSamplesLength
  000f9	2b c8		 sub	 ecx, eax
  000fb	89 0d 00 00 00
	00		 mov	 DWORD PTR _intFilteredMixedSamplesLength, ecx

; 2669 : 
; 2670 : 		if (SymbolsLeft == 0)	

  00101	83 3d 00 00 00
	00 00		 cmp	 DWORD PTR _SymbolsLeft, 0
  00108	75 2a		 jne	 SHORT $LN5@Demod1Car4@3

; 2671 : 		{	
; 2672 : 			//- prepare for next
; 2673 : 
; 2674 : 			DiscardOldSamples();

  0010a	e8 00 00 00 00	 call	 _DiscardOldSamples

; 2675 : 			ClearAllMixedSamples();

  0010f	e8 00 00 00 00	 call	 _ClearAllMixedSamples

; 2676 : 			State = SearchingForLeader;

  00114	c7 05 00 00 00
	00 00 00 00 00	 mov	 DWORD PTR _State, 0

; 2677 : 			
; 2678 : 			DummyCarrier = 0;	// pseudo carrier used for long 600 baud frames

  0011e	c7 05 00 00 00
	00 00 00 00 00	 mov	 DWORD PTR _DummyCarrier, 0

; 2679 : 			Decode600Buffer = bytFrameData1;

  00128	c7 05 00 00 00
	00 00 00 00 00	 mov	 DWORD PTR _Decode600Buffer, OFFSET _bytFrameData1

; 2680 : 
; 2681 : 		}
; 2682 : 		else

  00132	eb 42		 jmp	 SHORT $LN4@Demod1Car4@3
$LN5@Demod1Car4@3:

; 2683 : 		{
; 2684 : 			if (charIndex == 253)	// End of RS fragment (3 per message) 

  00134	81 3d 00 00 00
	00 fd 00 00 00	 cmp	 DWORD PTR _charIndex, 253 ; 000000fdH
  0013e	75 36		 jne	 SHORT $LN4@Demod1Car4@3

; 2685 : 			{
; 2686 : 				DummyCarrier++;		// pseudo carrier used for long 600 baud frames

  00140	a1 00 00 00 00	 mov	 eax, DWORD PTR _DummyCarrier
  00145	83 c0 01	 add	 eax, 1
  00148	a3 00 00 00 00	 mov	 DWORD PTR _DummyCarrier, eax

; 2687 : 				charIndex = 0;

  0014d	c7 05 00 00 00
	00 00 00 00 00	 mov	 DWORD PTR _charIndex, 0

; 2688 : 				if (DummyCarrier == 1)

  00157	83 3d 00 00 00
	00 01		 cmp	 DWORD PTR _DummyCarrier, 1
  0015e	75 0c		 jne	 SHORT $LN2@Demod1Car4@3

; 2689 : 					Decode600Buffer = bytFrameData2;

  00160	c7 05 00 00 00
	00 00 00 00 00	 mov	 DWORD PTR _Decode600Buffer, OFFSET _bytFrameData2

; 2690 : 				else

  0016a	eb 0a		 jmp	 SHORT $LN4@Demod1Car4@3
$LN2@Demod1Car4@3:

; 2691 : 					Decode600Buffer = bytFrameData3;

  0016c	c7 05 00 00 00
	00 00 00 00 00	 mov	 DWORD PTR _Decode600Buffer, OFFSET _bytFrameData3
$LN4@Demod1Car4@3:

; 2692 : 			}
; 2693 : 		}
; 2694 : 	}

  00176	e9 aa fe ff ff	 jmp	 $LN10@Demod1Car4@3
$LN9@Demod1Car4@3:

; 2695 : 	return TRUE;

  0017b	b8 01 00 00 00	 mov	 eax, 1
$LN11@Demod1Car4@3:

; 2696 : }

  00180	5f		 pop	 edi
  00181	5e		 pop	 esi
  00182	5b		 pop	 ebx
  00183	81 c4 cc 00 00
	00		 add	 esp, 204		; 000000ccH
  00189	3b ec		 cmp	 ebp, esp
  0018b	e8 00 00 00 00	 call	 __RTC_CheckEsp
  00190	8b e5		 mov	 esp, ebp
  00192	5d		 pop	 ebp
  00193	c3		 ret	 0
_Demod1Car4FSK600 ENDP
_TEXT	ENDS
_BSS	SEGMENT
	ALIGN	4

?bytSymHistory@?1??Demod1Car4FSK600Char@@9@9 DB 03H DUP (?) ; `Demod1Car4FSK600Char'::`2'::bytSymHistory
; Function compile flags: /Odtp /RTCsu /ZI
_BSS	ENDS
;	COMDAT _Demod1Car4FSK600Char
_TEXT	SEGMENT
tv215 = -364						; size = 4
tv238 = -360						; size = 8
tv194 = -356						; size = 4
tv207 = -352						; size = 4
tv190 = -352						; size = 4
_intToneMagsptr$ = -152					; size = 4
_intMaxMag$ = -140					; size = 4
_intSampPerSymbol$ = -128				; size = 4
_bytData$ = -113					; size = 1
_k$ = -104						; size = 4
_j$ = -92						; size = 4
_bytSym$ = -77						; size = 1
_dblMagSum$ = -44					; size = 4
_dblSearchFreq$ = -32					; size = 4
_dblImag$ = -20						; size = 4
_dblReal$ = -8						; size = 4
_Start$ = 8						; size = 4
_Decoded$ = 12						; size = 4
_Carrier$ = 16						; size = 4
_Demod1Car4FSK600Char PROC				; COMDAT

; 2699 : {

  00000	55		 push	 ebp
  00001	8b ec		 mov	 ebp, esp
  00003	81 ec 6c 01 00
	00		 sub	 esp, 364		; 0000016cH
  00009	53		 push	 ebx
  0000a	56		 push	 esi
  0000b	57		 push	 edi
  0000c	8d bd 94 fe ff
	ff		 lea	 edi, DWORD PTR [ebp-364]
  00012	b9 5b 00 00 00	 mov	 ecx, 91			; 0000005bH
  00017	b8 cc cc cc cc	 mov	 eax, -858993460		; ccccccccH
  0001c	f3 ab		 rep stosd

; 2700 :   	float dblReal, dblImag;
; 2701 : 	float dblSearchFreq;
; 2702 : 	float dblMagSum = 0;

  0001e	d9 ee		 fldz
  00020	d9 5d d4	 fstp	 DWORD PTR _dblMagSum$[ebp]

; 2703 : 	float  dblMag[4];	// The magnitude for each of the 4FSK frequency bins
; 2704 : 	UCHAR bytSym = 0;

  00023	c6 45 b3 00	 mov	 BYTE PTR _bytSym$[ebp], 0

; 2705 : 	static UCHAR bytSymHistory[3];
; 2706 : 	int j, k;
; 2707 : 	UCHAR bytData = 0;

  00027	c6 45 8f 00	 mov	 BYTE PTR _bytData$[ebp], 0

; 2708 : 	int intSampPerSymbol = 12000 / intBaud;

  0002b	b8 e0 2e 00 00	 mov	 eax, 12000		; 00002ee0H
  00030	99		 cdq
  00031	f7 3d 00 00 00
	00		 idiv	 DWORD PTR _intBaud
  00037	89 45 80	 mov	 DWORD PTR _intSampPerSymbol$[ebp], eax

; 2709 : 	int intMaxMag;
; 2710 : 
; 2711 : 	// I think the best way to handle long 600 frames is to
; 2712 : 	// treak each RS block as a separate frame. This will save
; 2713 : 	// RAM in both Tone Mags and Data buffers
; 2714 : 
; 2715 : 	int * intToneMagsptr = &intToneMags[Carrier][intToneMagsIndex[Carrier]];	// only 1 carrier in 600

  0003a	8b 45 10	 mov	 eax, DWORD PTR _Carrier$[ebp]
  0003d	c1 e0 0e	 shl	 eax, 14			; 0000000eH
  00040	8b 4d 10	 mov	 ecx, DWORD PTR _Carrier$[ebp]
  00043	8b 14 8d 00 00
	00 00		 mov	 edx, DWORD PTR _intToneMagsIndex[ecx*4]
  0004a	8d 84 90 00 00
	00 00		 lea	 eax, DWORD PTR _intToneMags[eax+edx*4]
  00051	89 85 68 ff ff
	ff		 mov	 DWORD PTR _intToneMagsptr$[ebp], eax

; 2716 : 	   
; 2717 : 	intToneMagsIndex[Carrier] += 16;

  00057	8b 45 10	 mov	 eax, DWORD PTR _Carrier$[ebp]
  0005a	8b 0c 85 00 00
	00 00		 mov	 ecx, DWORD PTR _intToneMagsIndex[eax*4]
  00061	83 c1 10	 add	 ecx, 16			; 00000010H
  00064	8b 55 10	 mov	 edx, DWORD PTR _Carrier$[ebp]
  00067	89 0c 95 00 00
	00 00		 mov	 DWORD PTR _intToneMagsIndex[edx*4], ecx

; 2718 : 
; 2719 : 	dblSearchFreq = intCenterFreq + (1.5f * intBaud);	// the highest freq (equiv to lowest sent freq because of sideband reversal)

  0006e	db 05 00 00 00
	00		 fild	 DWORD PTR _intCenterFreq
  00074	db 05 00 00 00
	00		 fild	 DWORD PTR _intBaud
  0007a	dc 0d 00 00 00
	00		 fmul	 QWORD PTR __real@3ff8000000000000
  00080	de c1		 faddp	 ST(1), ST(0)
  00082	d9 5d e0	 fstp	 DWORD PTR _dblSearchFreq$[ebp]

; 2720 : 
; 2721 : 	// Do one symbol
; 2722 : 
; 2723 : 	for (j = 0; j < 4; j++)		// for each 4FSK symbol (2 bits) in a byte

  00085	c7 45 a4 00 00
	00 00		 mov	 DWORD PTR _j$[ebp], 0
  0008c	eb 09		 jmp	 SHORT $LN7@Demod1Car4@4
$LN6@Demod1Car4@4:
  0008e	8b 45 a4	 mov	 eax, DWORD PTR _j$[ebp]
  00091	83 c0 01	 add	 eax, 1
  00094	89 45 a4	 mov	 DWORD PTR _j$[ebp], eax
$LN7@Demod1Car4@4:
  00097	83 7d a4 04	 cmp	 DWORD PTR _j$[ebp], 4
  0009b	0f 8d 63 01 00
	00		 jge	 $LN5@Demod1Car4@4

; 2724 : 	{
; 2725 : 		dblMagSum = 0;	

  000a1	d9 ee		 fldz
  000a3	d9 5d d4	 fstp	 DWORD PTR _dblMagSum$[ebp]

; 2726 : 		intMaxMag = 0;

  000a6	c7 85 74 ff ff
	ff 00 00 00 00	 mov	 DWORD PTR _intMaxMag$[ebp], 0

; 2727 : 
; 2728 : 		for (k = 0; k < 4; k++)

  000b0	c7 45 98 00 00
	00 00		 mov	 DWORD PTR _k$[ebp], 0
  000b7	eb 09		 jmp	 SHORT $LN4@Demod1Car4@4
$LN3@Demod1Car4@4:
  000b9	8b 45 98	 mov	 eax, DWORD PTR _k$[ebp]
  000bc	83 c0 01	 add	 eax, 1
  000bf	89 45 98	 mov	 DWORD PTR _k$[ebp], eax
$LN4@Demod1Car4@4:
  000c2	83 7d 98 04	 cmp	 DWORD PTR _k$[ebp], 4
  000c6	0f 8d fd 00 00
	00		 jge	 $LN2@Demod1Car4@4

; 2729 : 		{
; 2730 : 			GoertzelRealImag(intFilteredMixedSamples, Start, intSampPerSymbol, (dblSearchFreq - k * intBaud) / intBaud, &dblReal, &dblImag);

  000cc	8d 45 ec	 lea	 eax, DWORD PTR _dblImag$[ebp]
  000cf	50		 push	 eax
  000d0	8d 4d f8	 lea	 ecx, DWORD PTR _dblReal$[ebp]
  000d3	51		 push	 ecx
  000d4	8b 55 98	 mov	 edx, DWORD PTR _k$[ebp]
  000d7	0f af 15 00 00
	00 00		 imul	 edx, DWORD PTR _intBaud
  000de	89 95 a0 fe ff
	ff		 mov	 DWORD PTR tv190[ebp], edx
  000e4	db 85 a0 fe ff
	ff		 fild	 DWORD PTR tv190[ebp]
  000ea	d8 6d e0	 fsubr	 DWORD PTR _dblSearchFreq$[ebp]
  000ed	da 35 00 00 00
	00		 fidiv	 DWORD PTR _intBaud
  000f3	d9 9d 9c fe ff
	ff		 fstp	 DWORD PTR tv194[ebp]
  000f9	d9 85 9c fe ff
	ff		 fld	 DWORD PTR tv194[ebp]
  000ff	51		 push	 ecx
  00100	d9 1c 24	 fstp	 DWORD PTR [esp]
  00103	8b 45 80	 mov	 eax, DWORD PTR _intSampPerSymbol$[ebp]
  00106	50		 push	 eax
  00107	8b 4d 08	 mov	 ecx, DWORD PTR _Start$[ebp]
  0010a	51		 push	 ecx
  0010b	68 00 00 00 00	 push	 OFFSET _intFilteredMixedSamples
  00110	e8 00 00 00 00	 call	 _GoertzelRealImag
  00115	83 c4 18	 add	 esp, 24			; 00000018H

; 2731 : 			*intToneMagsptr = powf(dblReal,2) + powf(dblImag, 2);

  00118	83 ec 08	 sub	 esp, 8
  0011b	dd 05 00 00 00
	00		 fld	 QWORD PTR __real@4000000000000000
  00121	dd 1c 24	 fstp	 QWORD PTR [esp]
  00124	d9 45 f8	 fld	 DWORD PTR _dblReal$[ebp]
  00127	83 ec 08	 sub	 esp, 8
  0012a	dd 1c 24	 fstp	 QWORD PTR [esp]
  0012d	e8 00 00 00 00	 call	 _pow
  00132	83 c4 10	 add	 esp, 16			; 00000010H
  00135	d9 9d a0 fe ff
	ff		 fstp	 DWORD PTR tv207[ebp]
  0013b	d9 85 a0 fe ff
	ff		 fld	 DWORD PTR tv207[ebp]
  00141	83 ec 08	 sub	 esp, 8
  00144	dd 05 00 00 00
	00		 fld	 QWORD PTR __real@4000000000000000
  0014a	dd 1c 24	 fstp	 QWORD PTR [esp]
  0014d	d9 45 ec	 fld	 DWORD PTR _dblImag$[ebp]
  00150	83 ec 08	 sub	 esp, 8
  00153	dd 1c 24	 fstp	 QWORD PTR [esp]
  00156	dd 9d 98 fe ff
	ff		 fstp	 QWORD PTR tv238[ebp]
  0015c	e8 00 00 00 00	 call	 _pow
  00161	83 c4 10	 add	 esp, 16			; 00000010H
  00164	d9 9d 94 fe ff
	ff		 fstp	 DWORD PTR tv215[ebp]
  0016a	d9 85 94 fe ff
	ff		 fld	 DWORD PTR tv215[ebp]
  00170	dc 85 98 fe ff
	ff		 fadd	 QWORD PTR tv238[ebp]
  00176	e8 00 00 00 00	 call	 __ftol2_sse
  0017b	8b 8d 68 ff ff
	ff		 mov	 ecx, DWORD PTR _intToneMagsptr$[ebp]
  00181	89 01		 mov	 DWORD PTR [ecx], eax

; 2732 : 			dblMagSum += *intToneMagsptr;

  00183	8b 85 68 ff ff
	ff		 mov	 eax, DWORD PTR _intToneMagsptr$[ebp]
  00189	db 00		 fild	 DWORD PTR [eax]
  0018b	d8 45 d4	 fadd	 DWORD PTR _dblMagSum$[ebp]
  0018e	d9 5d d4	 fstp	 DWORD PTR _dblMagSum$[ebp]

; 2733 : 			if (*intToneMagsptr > intMaxMag)

  00191	8b 85 68 ff ff
	ff		 mov	 eax, DWORD PTR _intToneMagsptr$[ebp]
  00197	8b 08		 mov	 ecx, DWORD PTR [eax]
  00199	3b 8d 74 ff ff
	ff		 cmp	 ecx, DWORD PTR _intMaxMag$[ebp]
  0019f	7e 14		 jle	 SHORT $LN1@Demod1Car4@4

; 2734 : 			{
; 2735 : 				intMaxMag = *intToneMagsptr;

  001a1	8b 85 68 ff ff
	ff		 mov	 eax, DWORD PTR _intToneMagsptr$[ebp]
  001a7	8b 08		 mov	 ecx, DWORD PTR [eax]
  001a9	89 8d 74 ff ff
	ff		 mov	 DWORD PTR _intMaxMag$[ebp], ecx

; 2736 : 				bytSym = k;

  001af	8a 45 98	 mov	 al, BYTE PTR _k$[ebp]
  001b2	88 45 b3	 mov	 BYTE PTR _bytSym$[ebp], al
$LN1@Demod1Car4@4:

; 2737 : 			}
; 2738 : 			intToneMagsptr++;

  001b5	8b 85 68 ff ff
	ff		 mov	 eax, DWORD PTR _intToneMagsptr$[ebp]
  001bb	83 c0 04	 add	 eax, 4
  001be	89 85 68 ff ff
	ff		 mov	 DWORD PTR _intToneMagsptr$[ebp], eax

; 2739 : 		}

  001c4	e9 f0 fe ff ff	 jmp	 $LN3@Demod1Car4@4
$LN2@Demod1Car4@4:

; 2740 : 		
; 2741 : 		bytData = (bytData<< 2) + bytSym;

  001c9	0f b6 45 8f	 movzx	 eax, BYTE PTR _bytData$[ebp]
  001cd	0f b6 4d b3	 movzx	 ecx, BYTE PTR _bytSym$[ebp]
  001d1	8d 14 81	 lea	 edx, DWORD PTR [ecx+eax*4]
  001d4	88 55 8f	 mov	 BYTE PTR _bytData$[ebp], dl

; 2742 : 		bytSymHistory[0] = bytSymHistory[1];

  001d7	a0 01 00 00 00	 mov	 al, BYTE PTR ?bytSymHistory@?1??Demod1Car4FSK600Char@@9@9+1
  001dc	a2 00 00 00 00	 mov	 BYTE PTR ?bytSymHistory@?1??Demod1Car4FSK600Char@@9@9, al

; 2743 : 		bytSymHistory[1] = bytSymHistory[2];

  001e1	a0 02 00 00 00	 mov	 al, BYTE PTR ?bytSymHistory@?1??Demod1Car4FSK600Char@@9@9+2
  001e6	a2 01 00 00 00	 mov	 BYTE PTR ?bytSymHistory@?1??Demod1Car4FSK600Char@@9@9+1, al

; 2744 : 		bytSymHistory[2] = bytSym;

  001eb	8a 45 b3	 mov	 al, BYTE PTR _bytSym$[ebp]
  001ee	a2 02 00 00 00	 mov	 BYTE PTR ?bytSymHistory@?1??Demod1Car4FSK600Char@@9@9+2, al

; 2745 : 
; 2746 :         //If (bytSymHistory(0) <> bytSymHistory(1)) And (bytSymHistory(1) <> bytSymHistory(2)) Then ' only track when adjacent symbols are different (statistically about 56% of the time)
; 2747 :         //            ' this should allow tracking over 2000 ppm sampling rate error
; 2748 :         //            Track1Car4FSK600bd(intSamples, intPtr, intSampPerSymbol, intSearchFreq, intBaud, bytSymHistory)
; 2749 :         //        End If
; 2750 : 
; 2751 : 		Start += intSampPerSym; // advance the pointer one symbol

  001f3	8b 45 08	 mov	 eax, DWORD PTR _Start$[ebp]
  001f6	03 05 00 00 00
	00		 add	 eax, DWORD PTR _intSampPerSym
  001fc	89 45 08	 mov	 DWORD PTR _Start$[ebp], eax

; 2752 : 	}

  001ff	e9 8a fe ff ff	 jmp	 $LN6@Demod1Car4@4
$LN5@Demod1Car4@4:

; 2753 : 
; 2754 : 	Decoded[charIndex] = bytData;	

  00204	8b 45 0c	 mov	 eax, DWORD PTR _Decoded$[ebp]
  00207	03 05 00 00 00
	00		 add	 eax, DWORD PTR _charIndex
  0020d	8a 4d 8f	 mov	 cl, BYTE PTR _bytData$[ebp]
  00210	88 08		 mov	 BYTE PTR [eax], cl

; 2755 : 	return;
; 2756 : }

  00212	52		 push	 edx
  00213	8b cd		 mov	 ecx, ebp
  00215	50		 push	 eax
  00216	8d 15 00 00 00
	00		 lea	 edx, DWORD PTR $LN14@Demod1Car4@4
  0021c	e8 00 00 00 00	 call	 @_RTC_CheckStackVars@8
  00221	58		 pop	 eax
  00222	5a		 pop	 edx
  00223	5f		 pop	 edi
  00224	5e		 pop	 esi
  00225	5b		 pop	 ebx
  00226	81 c4 6c 01 00
	00		 add	 esp, 364		; 0000016cH
  0022c	3b ec		 cmp	 ebp, esp
  0022e	e8 00 00 00 00	 call	 __RTC_CheckEsp
  00233	8b e5		 mov	 esp, ebp
  00235	5d		 pop	 ebp
  00236	c3		 ret	 0
  00237	90		 npad	 1
$LN14@Demod1Car4@4:
  00238	03 00 00 00	 DD	 3
  0023c	00 00 00 00	 DD	 $LN13@Demod1Car4@4
$LN13@Demod1Car4@4:
  00240	f8 ff ff ff	 DD	 -8			; fffffff8H
  00244	04 00 00 00	 DD	 4
  00248	00 00 00 00	 DD	 $LN10@Demod1Car4@4
  0024c	ec ff ff ff	 DD	 -20			; ffffffecH
  00250	04 00 00 00	 DD	 4
  00254	00 00 00 00	 DD	 $LN11@Demod1Car4@4
  00258	bc ff ff ff	 DD	 -68			; ffffffbcH
  0025c	10 00 00 00	 DD	 16			; 00000010H
  00260	00 00 00 00	 DD	 $LN12@Demod1Car4@4
$LN12@Demod1Car4@4:
  00264	64		 DB	 100			; 00000064H
  00265	62		 DB	 98			; 00000062H
  00266	6c		 DB	 108			; 0000006cH
  00267	4d		 DB	 77			; 0000004dH
  00268	61		 DB	 97			; 00000061H
  00269	67		 DB	 103			; 00000067H
  0026a	00		 DB	 0
$LN11@Demod1Car4@4:
  0026b	64		 DB	 100			; 00000064H
  0026c	62		 DB	 98			; 00000062H
  0026d	6c		 DB	 108			; 0000006cH
  0026e	49		 DB	 73			; 00000049H
  0026f	6d		 DB	 109			; 0000006dH
  00270	61		 DB	 97			; 00000061H
  00271	67		 DB	 103			; 00000067H
  00272	00		 DB	 0
$LN10@Demod1Car4@4:
  00273	64		 DB	 100			; 00000064H
  00274	62		 DB	 98			; 00000062H
  00275	6c		 DB	 108			; 0000006cH
  00276	52		 DB	 82			; 00000052H
  00277	65		 DB	 101			; 00000065H
  00278	61		 DB	 97			; 00000061H
  00279	6c		 DB	 108			; 0000006cH
  0027a	00		 DB	 0
_Demod1Car4FSK600Char ENDP
_TEXT	ENDS
PUBLIC	_Demod1Car8FSKChar
PUBLIC	_Demod1Car8FSK
; Function compile flags: /Odtp /RTCsu /ZI
;	COMDAT _Demod1Car8FSK
_TEXT	SEGMENT
tv70 = -208						; size = 4
_Start$ = -8						; size = 4
_Demod1Car8FSK PROC					; COMDAT

; 2761 : {

  00000	55		 push	 ebp
  00001	8b ec		 mov	 ebp, esp
  00003	81 ec d0 00 00
	00		 sub	 esp, 208		; 000000d0H
  00009	53		 push	 ebx
  0000a	56		 push	 esi
  0000b	57		 push	 edi
  0000c	8d bd 30 ff ff
	ff		 lea	 edi, DWORD PTR [ebp-208]
  00012	b9 34 00 00 00	 mov	 ecx, 52			; 00000034H
  00017	b8 cc cc cc cc	 mov	 eax, -858993460		; ccccccccH
  0001c	f3 ab		 rep stosd

; 2762 : 	int Start = 0;

  0001e	c7 45 f8 00 00
	00 00		 mov	 DWORD PTR _Start$[ebp], 0
$LN12@Demod1Car8:

; 2763 : 	
; 2764 : 	// We can't wait for the full frame as we don't have enough data, so
; 2765 : 	// we do one character at a time, until we run out or end of frame
; 2766 : 
; 2767 : 	// Only continue if we have more than intSampPerSym * 8 chars
; 2768 : 
; 2769 : 	while (State == AcquireFrame)

  00025	83 3d 00 00 00
	00 05		 cmp	 DWORD PTR _State, 5
  0002c	0f 85 4a 01 00
	00		 jne	 $LN11@Demod1Car8

; 2770 : 	{
; 2771 : 		if (intFilteredMixedSamplesLength < ((intSampPerSym * 8) + 20)) // allow for correcrions

  00032	a1 00 00 00 00	 mov	 eax, DWORD PTR _intSampPerSym
  00037	8d 0c c5 14 00
	00 00		 lea	 ecx, DWORD PTR [eax*8+20]
  0003e	39 0d 00 00 00
	00		 cmp	 DWORD PTR _intFilteredMixedSamplesLength, ecx
  00044	7d 4a		 jge	 SHORT $LN10@Demod1Car8

; 2772 : 		{
; 2773 : 			// Move any unprocessessed data down buffer
; 2774 : 
; 2775 : 			//	(while checking process - will use cyclic buffer eventually
; 2776 : 
; 2777 : //			WriteDebugLog("Corrections %d", Corrections);
; 2778 : 
; 2779 : 			// If corrections is non-zero, we have to adjust
; 2780 : 			//	number left
; 2781 : 
; 2782 : 			intFilteredMixedSamplesLength -= Corrections;

  00046	a1 00 00 00 00	 mov	 eax, DWORD PTR _intFilteredMixedSamplesLength
  0004b	2b 05 00 00 00
	00		 sub	 eax, DWORD PTR _Corrections
  00051	a3 00 00 00 00	 mov	 DWORD PTR _intFilteredMixedSamplesLength, eax

; 2783 : 
; 2784 : 			Corrections = 0;

  00056	c7 05 00 00 00
	00 00 00 00 00	 mov	 DWORD PTR _Corrections, 0

; 2785 : 
; 2786 : 			if (intFilteredMixedSamplesLength > 0)

  00060	83 3d 00 00 00
	00 00		 cmp	 DWORD PTR _intFilteredMixedSamplesLength, 0
  00067	7e 20		 jle	 SHORT $LN9@Demod1Car8

; 2787 : 				memmove(intFilteredMixedSamples,
; 2788 : 					&intFilteredMixedSamples[Start], intFilteredMixedSamplesLength * 2); 

  00069	a1 00 00 00 00	 mov	 eax, DWORD PTR _intFilteredMixedSamplesLength
  0006e	d1 e0		 shl	 eax, 1
  00070	50		 push	 eax
  00071	8b 4d f8	 mov	 ecx, DWORD PTR _Start$[ebp]
  00074	8d 14 4d 00 00
	00 00		 lea	 edx, DWORD PTR _intFilteredMixedSamples[ecx*2]
  0007b	52		 push	 edx
  0007c	68 00 00 00 00	 push	 OFFSET _intFilteredMixedSamples
  00081	e8 00 00 00 00	 call	 _memmove
  00086	83 c4 0c	 add	 esp, 12			; 0000000cH
$LN9@Demod1Car8:

; 2789 : 
; 2790 : 			return FALSE;

  00089	33 c0		 xor	 eax, eax
  0008b	e9 f1 00 00 00	 jmp	 $LN13@Demod1Car8
$LN10@Demod1Car8:

; 2791 : 		}
; 2792 : 
; 2793 : 		// If this is a multicarrier mode, we must call the
; 2794 : 		// decode char routing for each carrier
; 2795 : 	
; 2796 : 		switch (intNumCar)

  00090	a1 00 00 00 00	 mov	 eax, DWORD PTR _intNumCar
  00095	89 85 30 ff ff
	ff		 mov	 DWORD PTR tv70[ebp], eax
  0009b	83 bd 30 ff ff
	ff 01		 cmp	 DWORD PTR tv70[ebp], 1
  000a2	74 0b		 je	 SHORT $LN6@Demod1Car8
  000a4	83 bd 30 ff ff
	ff 02		 cmp	 DWORD PTR tv70[ebp], 2
  000ab	74 2c		 je	 SHORT $LN4@Demod1Car8
  000ad	eb 7a		 jmp	 SHORT $LN7@Demod1Car8
$LN6@Demod1Car8:

; 2797 : 		{
; 2798 : 		case 1:
; 2799 : 
; 2800 : 			intCenterFreq = 1500;

  000af	c7 05 00 00 00
	00 dc 05 00 00	 mov	 DWORD PTR _intCenterFreq, 1500 ; 000005dcH

; 2801 : 			if (CarrierOk[0] == FALSE)

  000b9	0f be 05 00 00
	00 00		 movsx	 eax, BYTE PTR _CarrierOk
  000c0	85 c0		 test	 eax, eax
  000c2	75 13		 jne	 SHORT $LN5@Demod1Car8

; 2802 : 				Demod1Car8FSKChar(Start, bytFrameData1, 0);

  000c4	6a 00		 push	 0
  000c6	68 00 00 00 00	 push	 OFFSET _bytFrameData1
  000cb	8b 45 f8	 mov	 eax, DWORD PTR _Start$[ebp]
  000ce	50		 push	 eax
  000cf	e8 00 00 00 00	 call	 _Demod1Car8FSKChar
  000d4	83 c4 0c	 add	 esp, 12			; 0000000cH
$LN5@Demod1Car8:

; 2803 : 			break;

  000d7	eb 50		 jmp	 SHORT $LN7@Demod1Car8
$LN4@Demod1Car8:

; 2804 : 
; 2805 : 		case 2:
; 2806 : 
; 2807 : 			intCenterFreq = 1750;

  000d9	c7 05 00 00 00
	00 d6 06 00 00	 mov	 DWORD PTR _intCenterFreq, 1750 ; 000006d6H

; 2808 : 			if (CarrierOk[0] == FALSE)

  000e3	0f be 05 00 00
	00 00		 movsx	 eax, BYTE PTR _CarrierOk
  000ea	85 c0		 test	 eax, eax
  000ec	75 13		 jne	 SHORT $LN3@Demod1Car8

; 2809 : 				Demod1Car8FSKChar(Start, bytFrameData1, 0);

  000ee	6a 00		 push	 0
  000f0	68 00 00 00 00	 push	 OFFSET _bytFrameData1
  000f5	8b 45 f8	 mov	 eax, DWORD PTR _Start$[ebp]
  000f8	50		 push	 eax
  000f9	e8 00 00 00 00	 call	 _Demod1Car8FSKChar
  000fe	83 c4 0c	 add	 esp, 12			; 0000000cH
$LN3@Demod1Car8:

; 2810 : 			intCenterFreq = 1250;

  00101	c7 05 00 00 00
	00 e2 04 00 00	 mov	 DWORD PTR _intCenterFreq, 1250 ; 000004e2H

; 2811 : 			if (CarrierOk[1] == FALSE)

  0010b	0f be 05 01 00
	00 00		 movsx	 eax, BYTE PTR _CarrierOk+1
  00112	85 c0		 test	 eax, eax
  00114	75 13		 jne	 SHORT $LN7@Demod1Car8

; 2812 : 				Demod1Car8FSKChar(Start, bytFrameData2, 1);

  00116	6a 01		 push	 1
  00118	68 00 00 00 00	 push	 OFFSET _bytFrameData2
  0011d	8b 45 f8	 mov	 eax, DWORD PTR _Start$[ebp]
  00120	50		 push	 eax
  00121	e8 00 00 00 00	 call	 _Demod1Car8FSKChar
  00126	83 c4 0c	 add	 esp, 12			; 0000000cH
$LN7@Demod1Car8:

; 2813 : 			break;
; 2814 : 		}
; 2815 : 
; 2816 : 		SymbolsLeft -=3;			// number still to decode

  00129	a1 00 00 00 00	 mov	 eax, DWORD PTR _SymbolsLeft
  0012e	83 e8 03	 sub	 eax, 3
  00131	a3 00 00 00 00	 mov	 DWORD PTR _SymbolsLeft, eax

; 2817 : 		Start += intSampPerSym * 8;	// 8 FSK bit triplea 

  00136	a1 00 00 00 00	 mov	 eax, DWORD PTR _intSampPerSym
  0013b	8b 4d f8	 mov	 ecx, DWORD PTR _Start$[ebp]
  0013e	8d 14 c1	 lea	 edx, DWORD PTR [ecx+eax*8]
  00141	89 55 f8	 mov	 DWORD PTR _Start$[ebp], edx

; 2818 : 		intFilteredMixedSamplesLength -= intSampPerSym * 8;

  00144	a1 00 00 00 00	 mov	 eax, DWORD PTR _intSampPerSym
  00149	c1 e0 03	 shl	 eax, 3
  0014c	8b 0d 00 00 00
	00		 mov	 ecx, DWORD PTR _intFilteredMixedSamplesLength
  00152	2b c8		 sub	 ecx, eax
  00154	89 0d 00 00 00
	00		 mov	 DWORD PTR _intFilteredMixedSamplesLength, ecx

; 2819 : 
; 2820 : 		if (SymbolsLeft <= 0)	

  0015a	83 3d 00 00 00
	00 00		 cmp	 DWORD PTR _SymbolsLeft, 0
  00161	7f 14		 jg	 SHORT $LN1@Demod1Car8

; 2821 : 		{	
; 2822 : 			//- prepare for next
; 2823 : 
; 2824 : 			DiscardOldSamples();

  00163	e8 00 00 00 00	 call	 _DiscardOldSamples

; 2825 : 			ClearAllMixedSamples();

  00168	e8 00 00 00 00	 call	 _ClearAllMixedSamples

; 2826 : 			State = SearchingForLeader;

  0016d	c7 05 00 00 00
	00 00 00 00 00	 mov	 DWORD PTR _State, 0
$LN1@Demod1Car8:

; 2827 : 		}
; 2828 : 	}

  00177	e9 a9 fe ff ff	 jmp	 $LN12@Demod1Car8
$LN11@Demod1Car8:

; 2829 : 	return TRUE;

  0017c	b8 01 00 00 00	 mov	 eax, 1
$LN13@Demod1Car8:

; 2830 : }

  00181	5f		 pop	 edi
  00182	5e		 pop	 esi
  00183	5b		 pop	 ebx
  00184	81 c4 d0 00 00
	00		 add	 esp, 208		; 000000d0H
  0018a	3b ec		 cmp	 ebp, esp
  0018c	e8 00 00 00 00	 call	 __RTC_CheckEsp
  00191	8b e5		 mov	 esp, ebp
  00193	5d		 pop	 ebp
  00194	c3		 ret	 0
_Demod1Car8FSK ENDP
_TEXT	ENDS
PUBLIC	__real@400c000000000000
_BSS	SEGMENT
	ALIGN	4

?bytSymHistory@?1??Demod1Car8FSKChar@@9@9 DB 03H DUP (?) ; `Demod1Car8FSKChar'::`2'::bytSymHistory
_BSS	ENDS
;	COMDAT __real@400c000000000000
CONST	SEGMENT
__real@400c000000000000 DQ 0400c000000000000r	; 3.5
; Function compile flags: /Odtp /RTCsu /ZI
CONST	ENDS
;	COMDAT _Demod1Car8FSKChar
_TEXT	SEGMENT
tv233 = -340						; size = 4
tv265 = -336						; size = 8
tv212 = -332						; size = 4
tv225 = -328						; size = 4
tv208 = -328						; size = 4
$T7749 = -317						; size = 1
_intToneMagsptr$ = -116					; size = 4
_intMaxMag$ = -104					; size = 4
_intThreeBytes$ = -92					; size = 4
_k$ = -80						; size = 4
_j$ = -68						; size = 4
_bytSym$ = -53						; size = 1
_dblMagSum$ = -44					; size = 4
_dblSearchFreq$ = -32					; size = 4
_dblImag$ = -20						; size = 4
_dblReal$ = -8						; size = 4
_Start$ = 8						; size = 4
_Decoded$ = 12						; size = 4
_Carrier$ = 16						; size = 4
_Demod1Car8FSKChar PROC					; COMDAT

; 2835 : {

  00000	55		 push	 ebp
  00001	8b ec		 mov	 ebp, esp
  00003	81 ec 54 01 00
	00		 sub	 esp, 340		; 00000154H
  00009	53		 push	 ebx
  0000a	56		 push	 esi
  0000b	57		 push	 edi
  0000c	8d bd ac fe ff
	ff		 lea	 edi, DWORD PTR [ebp-340]
  00012	b9 55 00 00 00	 mov	 ecx, 85			; 00000055H
  00017	b8 cc cc cc cc	 mov	 eax, -858993460		; ccccccccH
  0001c	f3 ab		 rep stosd
  0001e	c6 85 c3 fe ff
	ff 00		 mov	 BYTE PTR $T7749[ebp], 0

; 2836 : 	// Converts intSamples to an array of bytes demodulating the 4FSK symbols with center freq intCenterFreq
; 2837 : 	// intPtr should be pointing to the approximate start of the first data symbol  
; 2838 : 	// Updates bytData() with demodulated bytes
; 2839 : 	// Updates bytMinSymQuality with the minimum (range is 25 to 100) symbol making up each byte.
; 2840 : 
; 2841 : 	float dblReal, dblImag;
; 2842 : 	float dblSearchFreq;
; 2843 : 	float dblMagSum;
; 2844 : 	UCHAR bytSym;
; 2845 : 	static UCHAR bytSymHistory[3];
; 2846 : 	int j, k;
; 2847 : 	unsigned int intThreeBytes = 0;

  00025	c7 45 a4 00 00
	00 00		 mov	 DWORD PTR _intThreeBytes$[ebp], 0

; 2848 : 	int intMaxMag;
; 2849 : 
; 2850 : 	int * intToneMagsptr = &intToneMags[Carrier][intToneMagsIndex[Carrier]];

  0002c	8b 45 10	 mov	 eax, DWORD PTR _Carrier$[ebp]
  0002f	c1 e0 0e	 shl	 eax, 14			; 0000000eH
  00032	8b 4d 10	 mov	 ecx, DWORD PTR _Carrier$[ebp]
  00035	8b 14 8d 00 00
	00 00		 mov	 edx, DWORD PTR _intToneMagsIndex[ecx*4]
  0003c	8d 84 90 00 00
	00 00		 lea	 eax, DWORD PTR _intToneMags[eax+edx*4]
  00043	89 45 8c	 mov	 DWORD PTR _intToneMagsptr$[ebp], eax

; 2851 : 	   
; 2852 : 	intToneMagsIndex[Carrier] += 64;

  00046	8b 45 10	 mov	 eax, DWORD PTR _Carrier$[ebp]
  00049	8b 0c 85 00 00
	00 00		 mov	 ecx, DWORD PTR _intToneMagsIndex[eax*4]
  00050	83 c1 40	 add	 ecx, 64			; 00000040H
  00053	8b 55 10	 mov	 edx, DWORD PTR _Carrier$[ebp]
  00056	89 0c 95 00 00
	00 00		 mov	 DWORD PTR _intToneMagsIndex[edx*4], ecx

; 2853 : 
; 2854 : 	dblSearchFreq = intCenterFreq + (1.5f * intBaud);	// the highest freq (equiv to lowest sent freq because of sideband reversal)

  0005d	db 05 00 00 00
	00		 fild	 DWORD PTR _intCenterFreq
  00063	db 05 00 00 00
	00		 fild	 DWORD PTR _intBaud
  00069	dc 0d 00 00 00
	00		 fmul	 QWORD PTR __real@3ff8000000000000
  0006f	de c1		 faddp	 ST(1), ST(0)
  00071	d9 5d e0	 fstp	 DWORD PTR _dblSearchFreq$[ebp]

; 2855 : 
; 2856 : 	// Do one symbol
; 2857 : 
; 2858 : 	for (j = 0; j < 8; j++)		// for each group of 8 symbols (24 bits) 

  00074	c7 45 bc 00 00
	00 00		 mov	 DWORD PTR _j$[ebp], 0
  0007b	eb 09		 jmp	 SHORT $LN8@Demod1Car8@2
$LN7@Demod1Car8@2:
  0007d	8b 45 bc	 mov	 eax, DWORD PTR _j$[ebp]
  00080	83 c0 01	 add	 eax, 1
  00083	89 45 bc	 mov	 DWORD PTR _j$[ebp], eax
$LN8@Demod1Car8@2:
  00086	83 7d bc 08	 cmp	 DWORD PTR _j$[ebp], 8
  0008a	0f 8d 93 01 00
	00		 jge	 $LN6@Demod1Car8@2

; 2859 : 	{
; 2860 : 		dblMagSum = 0;

  00090	d9 ee		 fldz
  00092	d9 5d d4	 fstp	 DWORD PTR _dblMagSum$[ebp]

; 2861 : 		intMaxMag = 0;

  00095	c7 45 98 00 00
	00 00		 mov	 DWORD PTR _intMaxMag$[ebp], 0

; 2862 : 
; 2863 : 		dblSearchFreq = intCenterFreq + 3.5f * intBaud; //' the highest freq (equiv to lowest sent freq because of sideband reversal)

  0009c	db 05 00 00 00
	00		 fild	 DWORD PTR _intCenterFreq
  000a2	db 05 00 00 00
	00		 fild	 DWORD PTR _intBaud
  000a8	dc 0d 00 00 00
	00		 fmul	 QWORD PTR __real@400c000000000000
  000ae	de c1		 faddp	 ST(1), ST(0)
  000b0	d9 5d e0	 fstp	 DWORD PTR _dblSearchFreq$[ebp]

; 2864 : 			
; 2865 : 		for (k = 0; k < 8; k++)  // for each of 8 possible tones per symbol

  000b3	c7 45 b0 00 00
	00 00		 mov	 DWORD PTR _k$[ebp], 0
  000ba	eb 09		 jmp	 SHORT $LN5@Demod1Car8@2
$LN4@Demod1Car8@2:
  000bc	8b 45 b0	 mov	 eax, DWORD PTR _k$[ebp]
  000bf	83 c0 01	 add	 eax, 1
  000c2	89 45 b0	 mov	 DWORD PTR _k$[ebp], eax
$LN5@Demod1Car8@2:
  000c5	83 7d b0 08	 cmp	 DWORD PTR _k$[ebp], 8
  000c9	0f 8d ee 00 00
	00		 jge	 $LN3@Demod1Car8@2

; 2866 : 		{
; 2867 : 			GoertzelRealImag(intFilteredMixedSamples, Start, intSampPerSym, (dblSearchFreq - k * intBaud) / intBaud, &dblReal, &dblImag);

  000cf	8d 45 ec	 lea	 eax, DWORD PTR _dblImag$[ebp]
  000d2	50		 push	 eax
  000d3	8d 4d f8	 lea	 ecx, DWORD PTR _dblReal$[ebp]
  000d6	51		 push	 ecx
  000d7	8b 55 b0	 mov	 edx, DWORD PTR _k$[ebp]
  000da	0f af 15 00 00
	00 00		 imul	 edx, DWORD PTR _intBaud
  000e1	89 95 b8 fe ff
	ff		 mov	 DWORD PTR tv208[ebp], edx
  000e7	db 85 b8 fe ff
	ff		 fild	 DWORD PTR tv208[ebp]
  000ed	d8 6d e0	 fsubr	 DWORD PTR _dblSearchFreq$[ebp]
  000f0	da 35 00 00 00
	00		 fidiv	 DWORD PTR _intBaud
  000f6	d9 9d b4 fe ff
	ff		 fstp	 DWORD PTR tv212[ebp]
  000fc	d9 85 b4 fe ff
	ff		 fld	 DWORD PTR tv212[ebp]
  00102	51		 push	 ecx
  00103	d9 1c 24	 fstp	 DWORD PTR [esp]
  00106	a1 00 00 00 00	 mov	 eax, DWORD PTR _intSampPerSym
  0010b	50		 push	 eax
  0010c	8b 4d 08	 mov	 ecx, DWORD PTR _Start$[ebp]
  0010f	51		 push	 ecx
  00110	68 00 00 00 00	 push	 OFFSET _intFilteredMixedSamples
  00115	e8 00 00 00 00	 call	 _GoertzelRealImag
  0011a	83 c4 18	 add	 esp, 24			; 00000018H

; 2868 :  
; 2869 : 			*intToneMagsptr = powf(dblReal, 2) + powf(dblImag, 2);

  0011d	83 ec 08	 sub	 esp, 8
  00120	dd 05 00 00 00
	00		 fld	 QWORD PTR __real@4000000000000000
  00126	dd 1c 24	 fstp	 QWORD PTR [esp]
  00129	d9 45 f8	 fld	 DWORD PTR _dblReal$[ebp]
  0012c	83 ec 08	 sub	 esp, 8
  0012f	dd 1c 24	 fstp	 QWORD PTR [esp]
  00132	e8 00 00 00 00	 call	 _pow
  00137	83 c4 10	 add	 esp, 16			; 00000010H
  0013a	d9 9d b8 fe ff
	ff		 fstp	 DWORD PTR tv225[ebp]
  00140	d9 85 b8 fe ff
	ff		 fld	 DWORD PTR tv225[ebp]
  00146	83 ec 08	 sub	 esp, 8
  00149	dd 05 00 00 00
	00		 fld	 QWORD PTR __real@4000000000000000
  0014f	dd 1c 24	 fstp	 QWORD PTR [esp]
  00152	d9 45 ec	 fld	 DWORD PTR _dblImag$[ebp]
  00155	83 ec 08	 sub	 esp, 8
  00158	dd 1c 24	 fstp	 QWORD PTR [esp]
  0015b	dd 9d b0 fe ff
	ff		 fstp	 QWORD PTR tv265[ebp]
  00161	e8 00 00 00 00	 call	 _pow
  00166	83 c4 10	 add	 esp, 16			; 00000010H
  00169	d9 9d ac fe ff
	ff		 fstp	 DWORD PTR tv233[ebp]
  0016f	d9 85 ac fe ff
	ff		 fld	 DWORD PTR tv233[ebp]
  00175	dc 85 b0 fe ff
	ff		 fadd	 QWORD PTR tv265[ebp]
  0017b	e8 00 00 00 00	 call	 __ftol2_sse
  00180	8b 4d 8c	 mov	 ecx, DWORD PTR _intToneMagsptr$[ebp]
  00183	89 01		 mov	 DWORD PTR [ecx], eax

; 2870 : 			dblMagSum += *intToneMagsptr;

  00185	8b 45 8c	 mov	 eax, DWORD PTR _intToneMagsptr$[ebp]
  00188	db 00		 fild	 DWORD PTR [eax]
  0018a	d8 45 d4	 fadd	 DWORD PTR _dblMagSum$[ebp]
  0018d	d9 5d d4	 fstp	 DWORD PTR _dblMagSum$[ebp]

; 2871 : 
; 2872 : 			if (*intToneMagsptr > intMaxMag)

  00190	8b 45 8c	 mov	 eax, DWORD PTR _intToneMagsptr$[ebp]
  00193	8b 08		 mov	 ecx, DWORD PTR [eax]
  00195	3b 4d 98	 cmp	 ecx, DWORD PTR _intMaxMag$[ebp]
  00198	7e 15		 jle	 SHORT $LN2@Demod1Car8@2

; 2873 : 			{
; 2874 : 				intMaxMag = *intToneMagsptr;

  0019a	8b 45 8c	 mov	 eax, DWORD PTR _intToneMagsptr$[ebp]
  0019d	8b 08		 mov	 ecx, DWORD PTR [eax]
  0019f	89 4d 98	 mov	 DWORD PTR _intMaxMag$[ebp], ecx

; 2875 : 				bytSym = k;

  001a2	c6 85 c3 fe ff
	ff 01		 mov	 BYTE PTR $T7749[ebp], 1
  001a9	8a 45 b0	 mov	 al, BYTE PTR _k$[ebp]
  001ac	88 45 cb	 mov	 BYTE PTR _bytSym$[ebp], al
$LN2@Demod1Car8@2:

; 2876 : 			}
; 2877 : 
; 2878 : 			intToneMagsptr++;

  001af	8b 45 8c	 mov	 eax, DWORD PTR _intToneMagsptr$[ebp]
  001b2	83 c0 04	 add	 eax, 4
  001b5	89 45 8c	 mov	 DWORD PTR _intToneMagsptr$[ebp], eax

; 2879 : 		}

  001b8	e9 ff fe ff ff	 jmp	 $LN4@Demod1Car8@2
$LN3@Demod1Car8@2:

; 2880 : 
; 2881 : 		intThreeBytes = (intThreeBytes << 3) + bytSym;

  001bd	80 bd c3 fe ff
	ff 00		 cmp	 BYTE PTR $T7749[ebp], 0
  001c4	75 0d		 jne	 SHORT $LN11@Demod1Car8@2
  001c6	68 00 00 00 00	 push	 OFFSET $LN12@Demod1Car8@2
  001cb	e8 00 00 00 00	 call	 __RTC_UninitUse
  001d0	83 c4 04	 add	 esp, 4
$LN11@Demod1Car8@2:
  001d3	0f b6 45 cb	 movzx	 eax, BYTE PTR _bytSym$[ebp]
  001d7	8b 4d a4	 mov	 ecx, DWORD PTR _intThreeBytes$[ebp]
  001da	8d 14 c8	 lea	 edx, DWORD PTR [eax+ecx*8]
  001dd	89 55 a4	 mov	 DWORD PTR _intThreeBytes$[ebp], edx

; 2882 : 
; 2883 : 		bytSymHistory[0] = bytSymHistory[1];

  001e0	a0 01 00 00 00	 mov	 al, BYTE PTR ?bytSymHistory@?1??Demod1Car8FSKChar@@9@9+1
  001e5	a2 00 00 00 00	 mov	 BYTE PTR ?bytSymHistory@?1??Demod1Car8FSKChar@@9@9, al

; 2884 : 		bytSymHistory[1] = bytSymHistory[2];

  001ea	a0 02 00 00 00	 mov	 al, BYTE PTR ?bytSymHistory@?1??Demod1Car8FSKChar@@9@9+2
  001ef	a2 01 00 00 00	 mov	 BYTE PTR ?bytSymHistory@?1??Demod1Car8FSKChar@@9@9+1, al

; 2885 : 		bytSymHistory[2] = bytSym;

  001f4	80 bd c3 fe ff
	ff 00		 cmp	 BYTE PTR $T7749[ebp], 0
  001fb	75 0d		 jne	 SHORT $LN13@Demod1Car8@2
  001fd	68 00 00 00 00	 push	 OFFSET $LN12@Demod1Car8@2
  00202	e8 00 00 00 00	 call	 __RTC_UninitUse
  00207	83 c4 04	 add	 esp, 4
$LN13@Demod1Car8@2:
  0020a	8a 45 cb	 mov	 al, BYTE PTR _bytSym$[ebp]
  0020d	a2 02 00 00 00	 mov	 BYTE PTR ?bytSymHistory@?1??Demod1Car8FSKChar@@9@9+2, al

; 2886 : 
; 2887 : //		if ((bytSymHistory[0] != bytSymHistory[1]) && (bytSymHistory[1] != bytSymHistory[2]))
; 2888 : 		{
; 2889 : 			// only track when adjacent symbols are different (statistically about 56% of the time) 
; 2890 : 			// this should allow tracking over 2000 ppm sampling rate error	
; 2891 : //			if (Start > intSampPerSym + 2)
; 2892 : //				Track1Car4FSK(intFilteredMixedSamples, &Start, intSampPerSym, dblSearchFreq, intBaud, bytSymHistory);
; 2893 : 		}
; 2894 : 		Start += intSampPerSym; // advance the pointer one symbol

  00212	8b 45 08	 mov	 eax, DWORD PTR _Start$[ebp]
  00215	03 05 00 00 00
	00		 add	 eax, DWORD PTR _intSampPerSym
  0021b	89 45 08	 mov	 DWORD PTR _Start$[ebp], eax

; 2895 : 	}

  0021e	e9 5a fe ff ff	 jmp	 $LN7@Demod1Car8@2
$LN6@Demod1Car8@2:

; 2896 : 
; 2897 : 	Decoded[charIndex++] = intThreeBytes >> 16;	

  00223	8b 45 a4	 mov	 eax, DWORD PTR _intThreeBytes$[ebp]
  00226	c1 e8 10	 shr	 eax, 16			; 00000010H
  00229	8b 4d 0c	 mov	 ecx, DWORD PTR _Decoded$[ebp]
  0022c	03 0d 00 00 00
	00		 add	 ecx, DWORD PTR _charIndex
  00232	88 01		 mov	 BYTE PTR [ecx], al
  00234	8b 15 00 00 00
	00		 mov	 edx, DWORD PTR _charIndex
  0023a	83 c2 01	 add	 edx, 1
  0023d	89 15 00 00 00
	00		 mov	 DWORD PTR _charIndex, edx

; 2898 : 	Decoded[charIndex++] = intThreeBytes >> 8;	

  00243	8b 45 a4	 mov	 eax, DWORD PTR _intThreeBytes$[ebp]
  00246	c1 e8 08	 shr	 eax, 8
  00249	8b 4d 0c	 mov	 ecx, DWORD PTR _Decoded$[ebp]
  0024c	03 0d 00 00 00
	00		 add	 ecx, DWORD PTR _charIndex
  00252	88 01		 mov	 BYTE PTR [ecx], al
  00254	8b 15 00 00 00
	00		 mov	 edx, DWORD PTR _charIndex
  0025a	83 c2 01	 add	 edx, 1
  0025d	89 15 00 00 00
	00		 mov	 DWORD PTR _charIndex, edx

; 2899 : 	Decoded[charIndex++] = intThreeBytes;	

  00263	8b 45 0c	 mov	 eax, DWORD PTR _Decoded$[ebp]
  00266	03 05 00 00 00
	00		 add	 eax, DWORD PTR _charIndex
  0026c	8a 4d a4	 mov	 cl, BYTE PTR _intThreeBytes$[ebp]
  0026f	88 08		 mov	 BYTE PTR [eax], cl
  00271	8b 15 00 00 00
	00		 mov	 edx, DWORD PTR _charIndex
  00277	83 c2 01	 add	 edx, 1
  0027a	89 15 00 00 00
	00		 mov	 DWORD PTR _charIndex, edx

; 2900 : 
; 2901 : 	if (AccumulateStats)

  00280	83 3d 00 00 00
	00 00		 cmp	 DWORD PTR _AccumulateStats, 0
  00287	74 0d		 je	 SHORT $LN1@Demod1Car8@2

; 2902 : 		intFSKSymbolCnt += 8;;

  00289	a1 00 00 00 00	 mov	 eax, DWORD PTR _intFSKSymbolCnt
  0028e	83 c0 08	 add	 eax, 8
  00291	a3 00 00 00 00	 mov	 DWORD PTR _intFSKSymbolCnt, eax
$LN1@Demod1Car8@2:

; 2903 : 
; 2904 : 	return;
; 2905 : }

  00296	52		 push	 edx
  00297	8b cd		 mov	 ecx, ebp
  00299	50		 push	 eax
  0029a	8d 15 00 00 00
	00		 lea	 edx, DWORD PTR $LN17@Demod1Car8@2
  002a0	e8 00 00 00 00	 call	 @_RTC_CheckStackVars@8
  002a5	58		 pop	 eax
  002a6	5a		 pop	 edx
  002a7	5f		 pop	 edi
  002a8	5e		 pop	 esi
  002a9	5b		 pop	 ebx
  002aa	81 c4 54 01 00
	00		 add	 esp, 340		; 00000154H
  002b0	3b ec		 cmp	 ebp, esp
  002b2	e8 00 00 00 00	 call	 __RTC_CheckEsp
  002b7	8b e5		 mov	 esp, ebp
  002b9	5d		 pop	 ebp
  002ba	c3		 ret	 0
  002bb	90		 npad	 1
$LN17@Demod1Car8@2:
  002bc	02 00 00 00	 DD	 2
  002c0	00 00 00 00	 DD	 $LN16@Demod1Car8@2
$LN16@Demod1Car8@2:
  002c4	f8 ff ff ff	 DD	 -8			; fffffff8H
  002c8	04 00 00 00	 DD	 4
  002cc	00 00 00 00	 DD	 $LN14@Demod1Car8@2
  002d0	ec ff ff ff	 DD	 -20			; ffffffecH
  002d4	04 00 00 00	 DD	 4
  002d8	00 00 00 00	 DD	 $LN15@Demod1Car8@2
$LN15@Demod1Car8@2:
  002dc	64		 DB	 100			; 00000064H
  002dd	62		 DB	 98			; 00000062H
  002de	6c		 DB	 108			; 0000006cH
  002df	49		 DB	 73			; 00000049H
  002e0	6d		 DB	 109			; 0000006dH
  002e1	61		 DB	 97			; 00000061H
  002e2	67		 DB	 103			; 00000067H
  002e3	00		 DB	 0
$LN14@Demod1Car8@2:
  002e4	64		 DB	 100			; 00000064H
  002e5	62		 DB	 98			; 00000062H
  002e6	6c		 DB	 108			; 0000006cH
  002e7	52		 DB	 82			; 00000052H
  002e8	65		 DB	 101			; 00000065H
  002e9	61		 DB	 97			; 00000061H
  002ea	6c		 DB	 108			; 0000006cH
  002eb	00		 DB	 0
$LN12@Demod1Car8@2:
  002ec	62		 DB	 98			; 00000062H
  002ed	79		 DB	 121			; 00000079H
  002ee	74		 DB	 116			; 00000074H
  002ef	53		 DB	 83			; 00000053H
  002f0	79		 DB	 121			; 00000079H
  002f1	6d		 DB	 109			; 0000006dH
  002f2	00		 DB	 0
_Demod1Car8FSKChar ENDP
_TEXT	ENDS
PUBLIC	_Demod1Car16FSKChar
PUBLIC	_Demod1Car16FSK
; Function compile flags: /Odtp /RTCsu /ZI
;	COMDAT _Demod1Car16FSK
_TEXT	SEGMENT
tv70 = -208						; size = 4
_Start$ = -8						; size = 4
_Demod1Car16FSK PROC					; COMDAT

; 2914 : {

  00000	55		 push	 ebp
  00001	8b ec		 mov	 ebp, esp
  00003	81 ec d0 00 00
	00		 sub	 esp, 208		; 000000d0H
  00009	53		 push	 ebx
  0000a	56		 push	 esi
  0000b	57		 push	 edi
  0000c	8d bd 30 ff ff
	ff		 lea	 edi, DWORD PTR [ebp-208]
  00012	b9 34 00 00 00	 mov	 ecx, 52			; 00000034H
  00017	b8 cc cc cc cc	 mov	 eax, -858993460		; ccccccccH
  0001c	f3 ab		 rep stosd

; 2915 : 	int Start = 0;

  0001e	c7 45 f8 00 00
	00 00		 mov	 DWORD PTR _Start$[ebp], 0
$LN12@Demod1Car1:

; 2916 : 	
; 2917 : 	// We can't wait for the full frame as we don't have enough data, so
; 2918 : 	// we do one character at a time, until we run out or end of frame
; 2919 : 
; 2920 : 	// Only continue if we have more than intSampPerSym * 2 chars
; 2921 : 
; 2922 : 	while (State == AcquireFrame)

  00025	83 3d 00 00 00
	00 05		 cmp	 DWORD PTR _State, 5
  0002c	0f 85 46 01 00
	00		 jne	 $LN11@Demod1Car1

; 2923 : 	{
; 2924 : 		if (intFilteredMixedSamplesLength < ((intSampPerSym * 2) + 20)) // allow for correcrions

  00032	a1 00 00 00 00	 mov	 eax, DWORD PTR _intSampPerSym
  00037	8d 4c 00 14	 lea	 ecx, DWORD PTR [eax+eax+20]
  0003b	39 0d 00 00 00
	00		 cmp	 DWORD PTR _intFilteredMixedSamplesLength, ecx
  00041	7d 4a		 jge	 SHORT $LN10@Demod1Car1

; 2925 : 		{
; 2926 : 			// Move any unprocessessed data down buffer
; 2927 : 
; 2928 : 			//	(while checking process - will use cyclic buffer eventually
; 2929 : 
; 2930 : //			WriteDebugLog("Corrections %d", Corrections);
; 2931 : 
; 2932 : 			// If corrections is non-zero, we have to adjust
; 2933 : 			//	number left
; 2934 : 
; 2935 : 			intFilteredMixedSamplesLength -= Corrections;

  00043	a1 00 00 00 00	 mov	 eax, DWORD PTR _intFilteredMixedSamplesLength
  00048	2b 05 00 00 00
	00		 sub	 eax, DWORD PTR _Corrections
  0004e	a3 00 00 00 00	 mov	 DWORD PTR _intFilteredMixedSamplesLength, eax

; 2936 : 
; 2937 : 			Corrections = 0;

  00053	c7 05 00 00 00
	00 00 00 00 00	 mov	 DWORD PTR _Corrections, 0

; 2938 : 
; 2939 : 			if (intFilteredMixedSamplesLength > 0)

  0005d	83 3d 00 00 00
	00 00		 cmp	 DWORD PTR _intFilteredMixedSamplesLength, 0
  00064	7e 20		 jle	 SHORT $LN9@Demod1Car1

; 2940 : 				memmove(intFilteredMixedSamples,
; 2941 : 					&intFilteredMixedSamples[Start], intFilteredMixedSamplesLength * 2); 

  00066	a1 00 00 00 00	 mov	 eax, DWORD PTR _intFilteredMixedSamplesLength
  0006b	d1 e0		 shl	 eax, 1
  0006d	50		 push	 eax
  0006e	8b 4d f8	 mov	 ecx, DWORD PTR _Start$[ebp]
  00071	8d 14 4d 00 00
	00 00		 lea	 edx, DWORD PTR _intFilteredMixedSamples[ecx*2]
  00078	52		 push	 edx
  00079	68 00 00 00 00	 push	 OFFSET _intFilteredMixedSamples
  0007e	e8 00 00 00 00	 call	 _memmove
  00083	83 c4 0c	 add	 esp, 12			; 0000000cH
$LN9@Demod1Car1:

; 2942 : 
; 2943 : 			return FALSE;

  00086	33 c0		 xor	 eax, eax
  00088	e9 f0 00 00 00	 jmp	 $LN13@Demod1Car1
$LN10@Demod1Car1:

; 2944 : 		}
; 2945 : 
; 2946 : 		// If this is a multicarrier mode, we must call the
; 2947 : 		// decode char routing for each carrier
; 2948 : 	
; 2949 : 		switch (intNumCar)

  0008d	a1 00 00 00 00	 mov	 eax, DWORD PTR _intNumCar
  00092	89 85 30 ff ff
	ff		 mov	 DWORD PTR tv70[ebp], eax
  00098	83 bd 30 ff ff
	ff 01		 cmp	 DWORD PTR tv70[ebp], 1
  0009f	74 0b		 je	 SHORT $LN6@Demod1Car1
  000a1	83 bd 30 ff ff
	ff 02		 cmp	 DWORD PTR tv70[ebp], 2
  000a8	74 2c		 je	 SHORT $LN4@Demod1Car1
  000aa	eb 7a		 jmp	 SHORT $LN7@Demod1Car1
$LN6@Demod1Car1:

; 2950 : 		{
; 2951 : 		case 1:
; 2952 : 
; 2953 : 			intCenterFreq = 1500;

  000ac	c7 05 00 00 00
	00 dc 05 00 00	 mov	 DWORD PTR _intCenterFreq, 1500 ; 000005dcH

; 2954 : 			if (CarrierOk[0] == FALSE)

  000b6	0f be 05 00 00
	00 00		 movsx	 eax, BYTE PTR _CarrierOk
  000bd	85 c0		 test	 eax, eax
  000bf	75 13		 jne	 SHORT $LN5@Demod1Car1

; 2955 : 				Demod1Car16FSKChar(Start, bytFrameData1, 0);

  000c1	6a 00		 push	 0
  000c3	68 00 00 00 00	 push	 OFFSET _bytFrameData1
  000c8	8b 45 f8	 mov	 eax, DWORD PTR _Start$[ebp]
  000cb	50		 push	 eax
  000cc	e8 00 00 00 00	 call	 _Demod1Car16FSKChar
  000d1	83 c4 0c	 add	 esp, 12			; 0000000cH
$LN5@Demod1Car1:

; 2956 : 			break;

  000d4	eb 50		 jmp	 SHORT $LN7@Demod1Car1
$LN4@Demod1Car1:

; 2957 : 
; 2958 : 		case 2:
; 2959 : 
; 2960 : 			intCenterFreq = 1750;

  000d6	c7 05 00 00 00
	00 d6 06 00 00	 mov	 DWORD PTR _intCenterFreq, 1750 ; 000006d6H

; 2961 : 			if (CarrierOk[0] == FALSE)

  000e0	0f be 05 00 00
	00 00		 movsx	 eax, BYTE PTR _CarrierOk
  000e7	85 c0		 test	 eax, eax
  000e9	75 13		 jne	 SHORT $LN3@Demod1Car1

; 2962 : 				Demod1Car16FSKChar(Start, bytFrameData1, 0);

  000eb	6a 00		 push	 0
  000ed	68 00 00 00 00	 push	 OFFSET _bytFrameData1
  000f2	8b 45 f8	 mov	 eax, DWORD PTR _Start$[ebp]
  000f5	50		 push	 eax
  000f6	e8 00 00 00 00	 call	 _Demod1Car16FSKChar
  000fb	83 c4 0c	 add	 esp, 12			; 0000000cH
$LN3@Demod1Car1:

; 2963 : 			intCenterFreq = 1250;

  000fe	c7 05 00 00 00
	00 e2 04 00 00	 mov	 DWORD PTR _intCenterFreq, 1250 ; 000004e2H

; 2964 : 			if (CarrierOk[1] == FALSE)

  00108	0f be 05 01 00
	00 00		 movsx	 eax, BYTE PTR _CarrierOk+1
  0010f	85 c0		 test	 eax, eax
  00111	75 13		 jne	 SHORT $LN7@Demod1Car1

; 2965 : 				Demod1Car16FSKChar(Start, bytFrameData2, 1);

  00113	6a 01		 push	 1
  00115	68 00 00 00 00	 push	 OFFSET _bytFrameData2
  0011a	8b 45 f8	 mov	 eax, DWORD PTR _Start$[ebp]
  0011d	50		 push	 eax
  0011e	e8 00 00 00 00	 call	 _Demod1Car16FSKChar
  00123	83 c4 0c	 add	 esp, 12			; 0000000cH
$LN7@Demod1Car1:

; 2966 : 			break;
; 2967 : 		}
; 2968 : 
; 2969 : 		SymbolsLeft--;			// number still to decode

  00126	a1 00 00 00 00	 mov	 eax, DWORD PTR _SymbolsLeft
  0012b	83 e8 01	 sub	 eax, 1
  0012e	a3 00 00 00 00	 mov	 DWORD PTR _SymbolsLeft, eax

; 2970 : 		Start += intSampPerSym * 2;	// 2 FSK nibbles 

  00133	a1 00 00 00 00	 mov	 eax, DWORD PTR _intSampPerSym
  00138	8b 4d f8	 mov	 ecx, DWORD PTR _Start$[ebp]
  0013b	8d 14 41	 lea	 edx, DWORD PTR [ecx+eax*2]
  0013e	89 55 f8	 mov	 DWORD PTR _Start$[ebp], edx

; 2971 : 		intFilteredMixedSamplesLength -= intSampPerSym * 2;

  00141	a1 00 00 00 00	 mov	 eax, DWORD PTR _intSampPerSym
  00146	d1 e0		 shl	 eax, 1
  00148	8b 0d 00 00 00
	00		 mov	 ecx, DWORD PTR _intFilteredMixedSamplesLength
  0014e	2b c8		 sub	 ecx, eax
  00150	89 0d 00 00 00
	00		 mov	 DWORD PTR _intFilteredMixedSamplesLength, ecx

; 2972 : 
; 2973 : 		if (SymbolsLeft <= 0)	

  00156	83 3d 00 00 00
	00 00		 cmp	 DWORD PTR _SymbolsLeft, 0
  0015d	7f 14		 jg	 SHORT $LN1@Demod1Car1

; 2974 : 		{	
; 2975 : 			//- prepare for next
; 2976 : 
; 2977 : 			DiscardOldSamples();

  0015f	e8 00 00 00 00	 call	 _DiscardOldSamples

; 2978 : 			ClearAllMixedSamples();

  00164	e8 00 00 00 00	 call	 _ClearAllMixedSamples

; 2979 : 			State = SearchingForLeader;

  00169	c7 05 00 00 00
	00 00 00 00 00	 mov	 DWORD PTR _State, 0
$LN1@Demod1Car1:

; 2980 : 		}
; 2981 : 	}

  00173	e9 ad fe ff ff	 jmp	 $LN12@Demod1Car1
$LN11@Demod1Car1:

; 2982 : 	return TRUE;

  00178	b8 01 00 00 00	 mov	 eax, 1
$LN13@Demod1Car1:

; 2983 : }

  0017d	5f		 pop	 edi
  0017e	5e		 pop	 esi
  0017f	5b		 pop	 ebx
  00180	81 c4 d0 00 00
	00		 add	 esp, 208		; 000000d0H
  00186	3b ec		 cmp	 ebp, esp
  00188	e8 00 00 00 00	 call	 __RTC_CheckEsp
  0018d	8b e5		 mov	 esp, ebp
  0018f	5d		 pop	 ebp
  00190	c3		 ret	 0
_Demod1Car16FSK ENDP
_TEXT	ENDS
PUBLIC	__real@401e000000000000
_BSS	SEGMENT
	ALIGN	4

?bytSymHistory@?1??Demod1Car16FSKChar@@9@9 DB 03H DUP (?) ; `Demod1Car16FSKChar'::`2'::bytSymHistory
_BSS	ENDS
;	COMDAT __real@401e000000000000
CONST	SEGMENT
__real@401e000000000000 DQ 0401e000000000000r	; 7.5
; Function compile flags: /Odtp /RTCsu /ZI
CONST	ENDS
;	COMDAT _Demod1Car16FSKChar
_TEXT	SEGMENT
tv224 = -328						; size = 4
tv249 = -324						; size = 8
tv203 = -320						; size = 4
tv216 = -316						; size = 4
tv199 = -316						; size = 4
_intToneMagsptr$ = -116					; size = 4
_intMaxMag$ = -104					; size = 4
_bytData$ = -89						; size = 1
_k$ = -80						; size = 4
_j$ = -68						; size = 4
_bytSym$ = -53						; size = 1
_dblMagSum$ = -44					; size = 4
_dblSearchFreq$ = -32					; size = 4
_dblImag$ = -20						; size = 4
_dblReal$ = -8						; size = 4
_Start$ = 8						; size = 4
_Decoded$ = 12						; size = 4
_Carrier$ = 16						; size = 4
_Demod1Car16FSKChar PROC				; COMDAT

; 2988 : {

  00000	55		 push	 ebp
  00001	8b ec		 mov	 ebp, esp
  00003	81 ec 48 01 00
	00		 sub	 esp, 328		; 00000148H
  00009	53		 push	 ebx
  0000a	56		 push	 esi
  0000b	57		 push	 edi
  0000c	8d bd b8 fe ff
	ff		 lea	 edi, DWORD PTR [ebp-328]
  00012	b9 52 00 00 00	 mov	 ecx, 82			; 00000052H
  00017	b8 cc cc cc cc	 mov	 eax, -858993460		; ccccccccH
  0001c	f3 ab		 rep stosd

; 2989 : 	// Converts intSamples to an array of bytes demodulating the 4FSK symbols with center freq intCenterFreq
; 2990 : 	// intPtr should be pointing to the approximate start of the first data symbol  
; 2991 : 	// Updates bytData() with demodulated bytes
; 2992 : 	// Updates bytMinSymQuality with the minimum (range is 25 to 100) symbol making up each byte.
; 2993 : 
; 2994 : 	float dblReal, dblImag;
; 2995 : 	float dblSearchFreq;
; 2996 : 	float dblMagSum = 0;

  0001e	d9 ee		 fldz
  00020	d9 5d d4	 fstp	 DWORD PTR _dblMagSum$[ebp]

; 2997 : 	UCHAR bytSym = 0;

  00023	c6 45 cb 00	 mov	 BYTE PTR _bytSym$[ebp], 0

; 2998 : 	static UCHAR bytSymHistory[3];
; 2999 : 	int j, k;
; 3000 : 	UCHAR bytData = 0;

  00027	c6 45 a7 00	 mov	 BYTE PTR _bytData$[ebp], 0

; 3001 : 	int intMaxMag;
; 3002 : 
; 3003 : 	int * intToneMagsptr = &intToneMags[Carrier][intToneMagsIndex[Carrier]];

  0002b	8b 45 10	 mov	 eax, DWORD PTR _Carrier$[ebp]
  0002e	c1 e0 0e	 shl	 eax, 14			; 0000000eH
  00031	8b 4d 10	 mov	 ecx, DWORD PTR _Carrier$[ebp]
  00034	8b 14 8d 00 00
	00 00		 mov	 edx, DWORD PTR _intToneMagsIndex[ecx*4]
  0003b	8d 84 90 00 00
	00 00		 lea	 eax, DWORD PTR _intToneMags[eax+edx*4]
  00042	89 45 8c	 mov	 DWORD PTR _intToneMagsptr$[ebp], eax

; 3004 : 	   
; 3005 : 	intToneMagsIndex[Carrier] += 32;

  00045	8b 45 10	 mov	 eax, DWORD PTR _Carrier$[ebp]
  00048	8b 0c 85 00 00
	00 00		 mov	 ecx, DWORD PTR _intToneMagsIndex[eax*4]
  0004f	83 c1 20	 add	 ecx, 32			; 00000020H
  00052	8b 55 10	 mov	 edx, DWORD PTR _Carrier$[ebp]
  00055	89 0c 95 00 00
	00 00		 mov	 DWORD PTR _intToneMagsIndex[edx*4], ecx

; 3006 : 	
; 3007 : 	dblSearchFreq = intCenterFreq + (7.5f * intBaud);	// the highest freq (equiv to lowest sent freq because of sideband reversal)

  0005c	db 05 00 00 00
	00		 fild	 DWORD PTR _intCenterFreq
  00062	db 05 00 00 00
	00		 fild	 DWORD PTR _intBaud
  00068	dc 0d 00 00 00
	00		 fmul	 QWORD PTR __real@401e000000000000
  0006e	de c1		 faddp	 ST(1), ST(0)
  00070	d9 5d e0	 fstp	 DWORD PTR _dblSearchFreq$[ebp]

; 3008 : 
; 3009 : 	// Do one symbol
; 3010 :  
; 3011 : 	for (j = 0; j < 2; j++)  // for each 16FSK symbol (4 bits) in a byte

  00073	c7 45 bc 00 00
	00 00		 mov	 DWORD PTR _j$[ebp], 0
  0007a	eb 09		 jmp	 SHORT $LN8@Demod1Car1@2
$LN7@Demod1Car1@2:
  0007c	8b 45 bc	 mov	 eax, DWORD PTR _j$[ebp]
  0007f	83 c0 01	 add	 eax, 1
  00082	89 45 bc	 mov	 DWORD PTR _j$[ebp], eax
$LN8@Demod1Car1@2:
  00085	83 7d bc 02	 cmp	 DWORD PTR _j$[ebp], 2
  00089	0f 8d 63 01 00
	00		 jge	 $LN6@Demod1Car1@2

; 3012 : 	{
; 3013 : 		dblMagSum = 0;

  0008f	d9 ee		 fldz
  00091	d9 5d d4	 fstp	 DWORD PTR _dblMagSum$[ebp]

; 3014 : 		intMaxMag = 0;

  00094	c7 45 98 00 00
	00 00		 mov	 DWORD PTR _intMaxMag$[ebp], 0

; 3015 : 
; 3016 : 		dblSearchFreq = intCenterFreq + 7.5f * intBaud; //' the highest freq (equiv to lowest sent freq because of sideband reversal)

  0009b	db 05 00 00 00
	00		 fild	 DWORD PTR _intCenterFreq
  000a1	db 05 00 00 00
	00		 fild	 DWORD PTR _intBaud
  000a7	dc 0d 00 00 00
	00		 fmul	 QWORD PTR __real@401e000000000000
  000ad	de c1		 faddp	 ST(1), ST(0)
  000af	d9 5d e0	 fstp	 DWORD PTR _dblSearchFreq$[ebp]

; 3017 : 			
; 3018 : 		for (k = 0; k < 16; k++)  // for each of 8 possible tones per symbol

  000b2	c7 45 b0 00 00
	00 00		 mov	 DWORD PTR _k$[ebp], 0
  000b9	eb 09		 jmp	 SHORT $LN5@Demod1Car1@2
$LN4@Demod1Car1@2:
  000bb	8b 45 b0	 mov	 eax, DWORD PTR _k$[ebp]
  000be	83 c0 01	 add	 eax, 1
  000c1	89 45 b0	 mov	 DWORD PTR _k$[ebp], eax
$LN5@Demod1Car1@2:
  000c4	83 7d b0 10	 cmp	 DWORD PTR _k$[ebp], 16	; 00000010H
  000c8	0f 8d e7 00 00
	00		 jge	 $LN3@Demod1Car1@2

; 3019 : 		{
; 3020 : 			GoertzelRealImag(intFilteredMixedSamples, Start, intSampPerSym, (dblSearchFreq - k * intBaud) / intBaud, &dblReal, &dblImag);

  000ce	8d 45 ec	 lea	 eax, DWORD PTR _dblImag$[ebp]
  000d1	50		 push	 eax
  000d2	8d 4d f8	 lea	 ecx, DWORD PTR _dblReal$[ebp]
  000d5	51		 push	 ecx
  000d6	8b 55 b0	 mov	 edx, DWORD PTR _k$[ebp]
  000d9	0f af 15 00 00
	00 00		 imul	 edx, DWORD PTR _intBaud
  000e0	89 95 c4 fe ff
	ff		 mov	 DWORD PTR tv199[ebp], edx
  000e6	db 85 c4 fe ff
	ff		 fild	 DWORD PTR tv199[ebp]
  000ec	d8 6d e0	 fsubr	 DWORD PTR _dblSearchFreq$[ebp]
  000ef	da 35 00 00 00
	00		 fidiv	 DWORD PTR _intBaud
  000f5	d9 9d c0 fe ff
	ff		 fstp	 DWORD PTR tv203[ebp]
  000fb	d9 85 c0 fe ff
	ff		 fld	 DWORD PTR tv203[ebp]
  00101	51		 push	 ecx
  00102	d9 1c 24	 fstp	 DWORD PTR [esp]
  00105	a1 00 00 00 00	 mov	 eax, DWORD PTR _intSampPerSym
  0010a	50		 push	 eax
  0010b	8b 4d 08	 mov	 ecx, DWORD PTR _Start$[ebp]
  0010e	51		 push	 ecx
  0010f	68 00 00 00 00	 push	 OFFSET _intFilteredMixedSamples
  00114	e8 00 00 00 00	 call	 _GoertzelRealImag
  00119	83 c4 18	 add	 esp, 24			; 00000018H

; 3021 :  
; 3022 : 			*intToneMagsptr = powf(dblReal, 2) + powf(dblImag, 2);

  0011c	83 ec 08	 sub	 esp, 8
  0011f	dd 05 00 00 00
	00		 fld	 QWORD PTR __real@4000000000000000
  00125	dd 1c 24	 fstp	 QWORD PTR [esp]
  00128	d9 45 f8	 fld	 DWORD PTR _dblReal$[ebp]
  0012b	83 ec 08	 sub	 esp, 8
  0012e	dd 1c 24	 fstp	 QWORD PTR [esp]
  00131	e8 00 00 00 00	 call	 _pow
  00136	83 c4 10	 add	 esp, 16			; 00000010H
  00139	d9 9d c4 fe ff
	ff		 fstp	 DWORD PTR tv216[ebp]
  0013f	d9 85 c4 fe ff
	ff		 fld	 DWORD PTR tv216[ebp]
  00145	83 ec 08	 sub	 esp, 8
  00148	dd 05 00 00 00
	00		 fld	 QWORD PTR __real@4000000000000000
  0014e	dd 1c 24	 fstp	 QWORD PTR [esp]
  00151	d9 45 ec	 fld	 DWORD PTR _dblImag$[ebp]
  00154	83 ec 08	 sub	 esp, 8
  00157	dd 1c 24	 fstp	 QWORD PTR [esp]
  0015a	dd 9d bc fe ff
	ff		 fstp	 QWORD PTR tv249[ebp]
  00160	e8 00 00 00 00	 call	 _pow
  00165	83 c4 10	 add	 esp, 16			; 00000010H
  00168	d9 9d b8 fe ff
	ff		 fstp	 DWORD PTR tv224[ebp]
  0016e	d9 85 b8 fe ff
	ff		 fld	 DWORD PTR tv224[ebp]
  00174	dc 85 bc fe ff
	ff		 fadd	 QWORD PTR tv249[ebp]
  0017a	e8 00 00 00 00	 call	 __ftol2_sse
  0017f	8b 4d 8c	 mov	 ecx, DWORD PTR _intToneMagsptr$[ebp]
  00182	89 01		 mov	 DWORD PTR [ecx], eax

; 3023 : 			dblMagSum += *intToneMagsptr;

  00184	8b 45 8c	 mov	 eax, DWORD PTR _intToneMagsptr$[ebp]
  00187	db 00		 fild	 DWORD PTR [eax]
  00189	d8 45 d4	 fadd	 DWORD PTR _dblMagSum$[ebp]
  0018c	d9 5d d4	 fstp	 DWORD PTR _dblMagSum$[ebp]

; 3024 : 
; 3025 : 			if (*intToneMagsptr > intMaxMag)

  0018f	8b 45 8c	 mov	 eax, DWORD PTR _intToneMagsptr$[ebp]
  00192	8b 08		 mov	 ecx, DWORD PTR [eax]
  00194	3b 4d 98	 cmp	 ecx, DWORD PTR _intMaxMag$[ebp]
  00197	7e 0e		 jle	 SHORT $LN2@Demod1Car1@2

; 3026 : 			{
; 3027 : 				intMaxMag = *intToneMagsptr;

  00199	8b 45 8c	 mov	 eax, DWORD PTR _intToneMagsptr$[ebp]
  0019c	8b 08		 mov	 ecx, DWORD PTR [eax]
  0019e	89 4d 98	 mov	 DWORD PTR _intMaxMag$[ebp], ecx

; 3028 : 				bytSym = k;

  001a1	8a 45 b0	 mov	 al, BYTE PTR _k$[ebp]
  001a4	88 45 cb	 mov	 BYTE PTR _bytSym$[ebp], al
$LN2@Demod1Car1@2:

; 3029 : 			}
; 3030 : 			intToneMagsptr++;

  001a7	8b 45 8c	 mov	 eax, DWORD PTR _intToneMagsptr$[ebp]
  001aa	83 c0 04	 add	 eax, 4
  001ad	89 45 8c	 mov	 DWORD PTR _intToneMagsptr$[ebp], eax

; 3031 : 		}

  001b0	e9 06 ff ff ff	 jmp	 $LN4@Demod1Car1@2
$LN3@Demod1Car1@2:

; 3032 : 
; 3033 : 		bytData = (bytData << 4) + bytSym;

  001b5	0f b6 45 a7	 movzx	 eax, BYTE PTR _bytData$[ebp]
  001b9	c1 e0 04	 shl	 eax, 4
  001bc	0f b6 4d cb	 movzx	 ecx, BYTE PTR _bytSym$[ebp]
  001c0	03 c1		 add	 eax, ecx
  001c2	88 45 a7	 mov	 BYTE PTR _bytData$[ebp], al

; 3034 : 
; 3035 : 		bytSymHistory[0] = bytSymHistory[1];

  001c5	a0 01 00 00 00	 mov	 al, BYTE PTR ?bytSymHistory@?1??Demod1Car16FSKChar@@9@9+1
  001ca	a2 00 00 00 00	 mov	 BYTE PTR ?bytSymHistory@?1??Demod1Car16FSKChar@@9@9, al

; 3036 : 		bytSymHistory[1] = bytSymHistory[2];

  001cf	a0 02 00 00 00	 mov	 al, BYTE PTR ?bytSymHistory@?1??Demod1Car16FSKChar@@9@9+2
  001d4	a2 01 00 00 00	 mov	 BYTE PTR ?bytSymHistory@?1??Demod1Car16FSKChar@@9@9+1, al

; 3037 : 		bytSymHistory[2] = bytSym;

  001d9	8a 45 cb	 mov	 al, BYTE PTR _bytSym$[ebp]
  001dc	a2 02 00 00 00	 mov	 BYTE PTR ?bytSymHistory@?1??Demod1Car16FSKChar@@9@9+2, al

; 3038 : 
; 3039 : //		if ((bytSymHistory[0] != bytSymHistory[1]) && (bytSymHistory[1] != bytSymHistory[2]))
; 3040 : 		{
; 3041 : 			// only track when adjacent symbols are different (statistically about 56% of the time) 
; 3042 : 			// this should allow tracking over 2000 ppm sampling rate error	
; 3043 : //			if (Start > intSampPerSym + 2)
; 3044 : //				Track1Car4FSK(intFilteredMixedSamples, &Start, intSampPerSym, dblSearchFreq, intBaud, bytSymHistory);
; 3045 : 		}
; 3046 : 		Start += intSampPerSym; // advance the pointer one symbol

  001e1	8b 45 08	 mov	 eax, DWORD PTR _Start$[ebp]
  001e4	03 05 00 00 00
	00		 add	 eax, DWORD PTR _intSampPerSym
  001ea	89 45 08	 mov	 DWORD PTR _Start$[ebp], eax

; 3047 : 	}

  001ed	e9 8a fe ff ff	 jmp	 $LN7@Demod1Car1@2
$LN6@Demod1Car1@2:

; 3048 : 
; 3049 : //	WriteDebugLog("Tone Mags Index %d", charIndex * 32 + 16 * j + k);
; 3050 : 
; 3051 : 	if (AccumulateStats)

  001f2	83 3d 00 00 00
	00 00		 cmp	 DWORD PTR _AccumulateStats, 0
  001f9	74 0d		 je	 SHORT $LN1@Demod1Car1@2

; 3052 : 		intFSKSymbolCnt += 2;

  001fb	a1 00 00 00 00	 mov	 eax, DWORD PTR _intFSKSymbolCnt
  00200	83 c0 02	 add	 eax, 2
  00203	a3 00 00 00 00	 mov	 DWORD PTR _intFSKSymbolCnt, eax
$LN1@Demod1Car1@2:

; 3053 :     
; 3054 : 	Decoded[charIndex++] = bytData;;	

  00208	8b 45 0c	 mov	 eax, DWORD PTR _Decoded$[ebp]
  0020b	03 05 00 00 00
	00		 add	 eax, DWORD PTR _charIndex
  00211	8a 4d a7	 mov	 cl, BYTE PTR _bytData$[ebp]
  00214	88 08		 mov	 BYTE PTR [eax], cl
  00216	8b 15 00 00 00
	00		 mov	 edx, DWORD PTR _charIndex
  0021c	83 c2 01	 add	 edx, 1
  0021f	89 15 00 00 00
	00		 mov	 DWORD PTR _charIndex, edx

; 3055 : 	return;
; 3056 : }

  00225	52		 push	 edx
  00226	8b cd		 mov	 ecx, ebp
  00228	50		 push	 eax
  00229	8d 15 00 00 00
	00		 lea	 edx, DWORD PTR $LN14@Demod1Car1@2
  0022f	e8 00 00 00 00	 call	 @_RTC_CheckStackVars@8
  00234	58		 pop	 eax
  00235	5a		 pop	 edx
  00236	5f		 pop	 edi
  00237	5e		 pop	 esi
  00238	5b		 pop	 ebx
  00239	81 c4 48 01 00
	00		 add	 esp, 328		; 00000148H
  0023f	3b ec		 cmp	 ebp, esp
  00241	e8 00 00 00 00	 call	 __RTC_CheckEsp
  00246	8b e5		 mov	 esp, ebp
  00248	5d		 pop	 ebp
  00249	c3		 ret	 0
  0024a	8b ff		 npad	 2
$LN14@Demod1Car1@2:
  0024c	02 00 00 00	 DD	 2
  00250	00 00 00 00	 DD	 $LN13@Demod1Car1@2
$LN13@Demod1Car1@2:
  00254	f8 ff ff ff	 DD	 -8			; fffffff8H
  00258	04 00 00 00	 DD	 4
  0025c	00 00 00 00	 DD	 $LN11@Demod1Car1@2
  00260	ec ff ff ff	 DD	 -20			; ffffffecH
  00264	04 00 00 00	 DD	 4
  00268	00 00 00 00	 DD	 $LN12@Demod1Car1@2
$LN12@Demod1Car1@2:
  0026c	64		 DB	 100			; 00000064H
  0026d	62		 DB	 98			; 00000062H
  0026e	6c		 DB	 108			; 0000006cH
  0026f	49		 DB	 73			; 00000049H
  00270	6d		 DB	 109			; 0000006dH
  00271	61		 DB	 97			; 00000061H
  00272	67		 DB	 103			; 00000067H
  00273	00		 DB	 0
$LN11@Demod1Car1@2:
  00274	64		 DB	 100			; 00000064H
  00275	62		 DB	 98			; 00000062H
  00276	6c		 DB	 108			; 0000006cH
  00277	52		 DB	 82			; 00000052H
  00278	65		 DB	 101			; 00000065H
  00279	61		 DB	 97			; 00000061H
  0027a	6c		 DB	 108			; 0000006cH
  0027b	00		 DB	 0
_Demod1Car16FSKChar ENDP
_TEXT	ENDS
PUBLIC	??_C@_05DNIIFBMG@?$CFs?5?$CFs?$AA@		; `string'
PUBLIC	??_C@_08FLBAMBKD@_?$CFs?5?$DO?5?$CFs?$AA@	; `string'
PUBLIC	??_C@_0BK@OCIJKDPN@CONREQ?5Still?5bad?5after?5RS?$AA@ ; `string'
PUBLIC	??_C@_0BN@LALLABBI@CONREQ?5Frame?5Corrected?5by?5RS?$AA@ ; `string'
PUBLIC	__$ArrayPad$
PUBLIC	_Decode4FSKConReq
EXTRN	_intBW:DWORD
EXTRN	_DeCompressCallsign:PROC
;	COMDAT ??_C@_05DNIIFBMG@?$CFs?5?$CFs?$AA@
CONST	SEGMENT
??_C@_05DNIIFBMG@?$CFs?5?$CFs?$AA@ DB '%s %s', 00H	; `string'
CONST	ENDS
;	COMDAT ??_C@_08FLBAMBKD@_?$CFs?5?$DO?5?$CFs?$AA@
CONST	SEGMENT
??_C@_08FLBAMBKD@_?$CFs?5?$DO?5?$CFs?$AA@ DB '_%s > %s', 00H ; `string'
CONST	ENDS
;	COMDAT ??_C@_0BK@OCIJKDPN@CONREQ?5Still?5bad?5after?5RS?$AA@
CONST	SEGMENT
??_C@_0BK@OCIJKDPN@CONREQ?5Still?5bad?5after?5RS?$AA@ DB 'CONREQ Still ba'
	DB	'd after RS', 00H				; `string'
CONST	ENDS
;	COMDAT ??_C@_0BN@LALLABBI@CONREQ?5Frame?5Corrected?5by?5RS?$AA@
CONST	SEGMENT
??_C@_0BN@LALLABBI@CONREQ?5Frame?5Corrected?5by?5RS?$AA@ DB 'CONREQ Frame'
	DB	' Corrected by RS', 00H			; `string'
; Function compile flags: /Odtp /RTCsu /ZI
CONST	ENDS
;	COMDAT _Decode4FSKConReq
_TEXT	SEGMENT
_FrameOK$ = -80						; size = 4
_blnRSOK$ = -68						; size = 4
_bytCall$ = -56						; size = 6
_strTarget$ = -40					; size = 10
_strCaller$ = -20					; size = 10
__$ArrayPad$ = -4					; size = 4
_Decode4FSKConReq PROC					; COMDAT

; 3065 : {

  00000	55		 push	 ebp
  00001	8b ec		 mov	 ebp, esp
  00003	81 ec 14 01 00
	00		 sub	 esp, 276		; 00000114H
  00009	53		 push	 ebx
  0000a	56		 push	 esi
  0000b	57		 push	 edi
  0000c	8d bd ec fe ff
	ff		 lea	 edi, DWORD PTR [ebp-276]
  00012	b9 45 00 00 00	 mov	 ecx, 69			; 00000045H
  00017	b8 cc cc cc cc	 mov	 eax, -858993460		; ccccccccH
  0001c	f3 ab		 rep stosd
  0001e	a1 00 00 00 00	 mov	 eax, DWORD PTR ___security_cookie
  00023	33 c5		 xor	 eax, ebp
  00025	89 45 fc	 mov	 DWORD PTR __$ArrayPad$[ebp], eax

; 3066 : 	UCHAR strCaller[10];
; 3067 : 	UCHAR strTarget [10];
; 3068 : 	UCHAR bytCall[6];
; 3069 : 	BOOL blnRSOK;
; 3070 : 	BOOL FrameOK;
; 3071 : 
; 3072 : 	// Modified May 24, 2015 to use RS encoding vs CRC (similar to ID Frame)
; 3073 :  
; 3074 : 	FrameOK = RSDecode(bytFrameData1, 14, 2, &blnRSOK);

  00028	8d 45 bc	 lea	 eax, DWORD PTR _blnRSOK$[ebp]
  0002b	50		 push	 eax
  0002c	6a 02		 push	 2
  0002e	6a 0e		 push	 14			; 0000000eH
  00030	68 00 00 00 00	 push	 OFFSET _bytFrameData1
  00035	e8 00 00 00 00	 call	 _RSDecode
  0003a	83 c4 10	 add	 esp, 16			; 00000010H
  0003d	89 45 b0	 mov	 DWORD PTR _FrameOK$[ebp], eax

; 3075 : 
; 3076 : 	if (FrameOK && blnRSOK == FALSE)

  00040	83 7d b0 00	 cmp	 DWORD PTR _FrameOK$[ebp], 0
  00044	74 45		 je	 SHORT $LN9@Decode4FSK
  00046	83 7d bc 00	 cmp	 DWORD PTR _blnRSOK$[ebp], 0
  0004a	75 3f		 jne	 SHORT $LN9@Decode4FSK

; 3077 : 	{
; 3078 : 		// RS Claims to have corrected it, but check
; 3079 : 
; 3080 : 		WriteDebugLog("CONREQ Frame Corrected by RS");

  0004c	68 00 00 00 00	 push	 OFFSET ??_C@_0BN@LALLABBI@CONREQ?5Frame?5Corrected?5by?5RS?$AA@
  00051	e8 00 00 00 00	 call	 _WriteDebugLog
  00056	83 c4 04	 add	 esp, 4

; 3081 : 
; 3082 : 		FrameOK = RSDecode(bytFrameData1, 14, 2, &blnRSOK);

  00059	8d 45 bc	 lea	 eax, DWORD PTR _blnRSOK$[ebp]
  0005c	50		 push	 eax
  0005d	6a 02		 push	 2
  0005f	6a 0e		 push	 14			; 0000000eH
  00061	68 00 00 00 00	 push	 OFFSET _bytFrameData1
  00066	e8 00 00 00 00	 call	 _RSDecode
  0006b	83 c4 10	 add	 esp, 16			; 00000010H
  0006e	89 45 b0	 mov	 DWORD PTR _FrameOK$[ebp], eax

; 3083 : 
; 3084 : 		// Should now be OK without connections, if not RS didn't fix it
; 3085 : 
; 3086 : 		if (blnRSOK == FALSE)

  00071	83 7d bc 00	 cmp	 DWORD PTR _blnRSOK$[ebp], 0
  00075	75 14		 jne	 SHORT $LN9@Decode4FSK

; 3087 : 		{
; 3088 : 			WriteDebugLog("CONREQ Still bad after RS");

  00077	68 00 00 00 00	 push	 OFFSET ??_C@_0BK@OCIJKDPN@CONREQ?5Still?5bad?5after?5RS?$AA@
  0007c	e8 00 00 00 00	 call	 _WriteDebugLog
  00081	83 c4 04	 add	 esp, 4

; 3089 : 			FrameOK = FALSE;

  00084	c7 45 b0 00 00
	00 00		 mov	 DWORD PTR _FrameOK$[ebp], 0
$LN9@Decode4FSK:

; 3090 : 		}
; 3091 : 	}
; 3092 : 	memcpy(bytCall, bytFrameData1, 6);

  0008b	6a 06		 push	 6
  0008d	68 00 00 00 00	 push	 OFFSET _bytFrameData1
  00092	8d 45 c8	 lea	 eax, DWORD PTR _bytCall$[ebp]
  00095	50		 push	 eax
  00096	e8 00 00 00 00	 call	 _memcpy
  0009b	83 c4 0c	 add	 esp, 12			; 0000000cH

; 3093 : 	DeCompressCallsign(bytCall, strCaller);

  0009e	8d 45 ec	 lea	 eax, DWORD PTR _strCaller$[ebp]
  000a1	50		 push	 eax
  000a2	8d 4d c8	 lea	 ecx, DWORD PTR _bytCall$[ebp]
  000a5	51		 push	 ecx
  000a6	e8 00 00 00 00	 call	 _DeCompressCallsign
  000ab	83 c4 08	 add	 esp, 8

; 3094 : 	memcpy(bytCall, &bytFrameData1[6], 6);

  000ae	6a 06		 push	 6
  000b0	68 06 00 00 00	 push	 OFFSET _bytFrameData1+6
  000b5	8d 45 c8	 lea	 eax, DWORD PTR _bytCall$[ebp]
  000b8	50		 push	 eax
  000b9	e8 00 00 00 00	 call	 _memcpy
  000be	83 c4 0c	 add	 esp, 12			; 0000000cH

; 3095 : 	DeCompressCallsign(bytCall, strTarget);

  000c1	8d 45 d8	 lea	 eax, DWORD PTR _strTarget$[ebp]
  000c4	50		 push	 eax
  000c5	8d 4d c8	 lea	 ecx, DWORD PTR _bytCall$[ebp]
  000c8	51		 push	 ecx
  000c9	e8 00 00 00 00	 call	 _DeCompressCallsign
  000ce	83 c4 08	 add	 esp, 8

; 3096 : 
; 3097 : //	printtick(strCaller);
; 3098 : //	printtick(strTarget);
; 3099 : 	
; 3100 : 	sprintf(strRcvFrameTag, "_%s > %s", strCaller, strTarget);

  000d1	8d 45 d8	 lea	 eax, DWORD PTR _strTarget$[ebp]
  000d4	50		 push	 eax
  000d5	8d 4d ec	 lea	 ecx, DWORD PTR _strCaller$[ebp]
  000d8	51		 push	 ecx
  000d9	68 00 00 00 00	 push	 OFFSET ??_C@_08FLBAMBKD@_?$CFs?5?$DO?5?$CFs?$AA@
  000de	68 00 00 00 00	 push	 OFFSET _strRcvFrameTag
  000e3	e8 00 00 00 00	 call	 _sprintf
  000e8	83 c4 10	 add	 esp, 16			; 00000010H

; 3101 : 	sprintf(bytData, "%s %s", strCaller, strTarget);

  000eb	8d 45 d8	 lea	 eax, DWORD PTR _strTarget$[ebp]
  000ee	50		 push	 eax
  000ef	8d 4d ec	 lea	 ecx, DWORD PTR _strCaller$[ebp]
  000f2	51		 push	 ecx
  000f3	68 00 00 00 00	 push	 OFFSET ??_C@_05DNIIFBMG@?$CFs?5?$CFs?$AA@
  000f8	68 00 00 00 00	 push	 OFFSET _bytData
  000fd	e8 00 00 00 00	 call	 _sprintf
  00102	83 c4 10	 add	 esp, 16			; 00000010H

; 3102 : 
; 3103 : 	// Recheck the returned data by reencoding
; 3104 : 	
; 3105 : 	if (intFrameType == 0x31)

  00105	83 3d 00 00 00
	00 31		 cmp	 DWORD PTR _intFrameType, 49 ; 00000031H
  0010c	75 0c		 jne	 SHORT $LN7@Decode4FSK

; 3106 : 		intBW = 200;

  0010e	c7 05 00 00 00
	00 c8 00 00 00	 mov	 DWORD PTR _intBW, 200	; 000000c8H
  00118	eb 3d		 jmp	 SHORT $LN6@Decode4FSK
$LN7@Decode4FSK:

; 3107 : 	else if (intFrameType == 0x32)

  0011a	83 3d 00 00 00
	00 32		 cmp	 DWORD PTR _intFrameType, 50 ; 00000032H
  00121	75 0c		 jne	 SHORT $LN5@Decode4FSK

; 3108 : 		intBW = 500;

  00123	c7 05 00 00 00
	00 f4 01 00 00	 mov	 DWORD PTR _intBW, 500	; 000001f4H
  0012d	eb 28		 jmp	 SHORT $LN6@Decode4FSK
$LN5@Decode4FSK:

; 3109 : 	else if (intFrameType == 0x33)

  0012f	83 3d 00 00 00
	00 33		 cmp	 DWORD PTR _intFrameType, 51 ; 00000033H
  00136	75 0c		 jne	 SHORT $LN3@Decode4FSK

; 3110 : 		intBW = 1000;

  00138	c7 05 00 00 00
	00 e8 03 00 00	 mov	 DWORD PTR _intBW, 1000	; 000003e8H
  00142	eb 13		 jmp	 SHORT $LN6@Decode4FSK
$LN3@Decode4FSK:

; 3111 : 	else if (intFrameType == 0x34)

  00144	83 3d 00 00 00
	00 34		 cmp	 DWORD PTR _intFrameType, 52 ; 00000034H
  0014b	75 0a		 jne	 SHORT $LN6@Decode4FSK

; 3112 : 		intBW = 2000;

  0014d	c7 05 00 00 00
	00 d0 07 00 00	 mov	 DWORD PTR _intBW, 2000	; 000007d0H
$LN6@Decode4FSK:

; 3113 : 
; 3114 : 	return FrameOK;

  00157	8b 45 b0	 mov	 eax, DWORD PTR _FrameOK$[ebp]

; 3115 : }

  0015a	52		 push	 edx
  0015b	8b cd		 mov	 ecx, ebp
  0015d	50		 push	 eax
  0015e	8d 15 00 00 00
	00		 lea	 edx, DWORD PTR $LN17@Decode4FSK
  00164	e8 00 00 00 00	 call	 @_RTC_CheckStackVars@8
  00169	58		 pop	 eax
  0016a	5a		 pop	 edx
  0016b	5f		 pop	 edi
  0016c	5e		 pop	 esi
  0016d	5b		 pop	 ebx
  0016e	8b 4d fc	 mov	 ecx, DWORD PTR __$ArrayPad$[ebp]
  00171	33 cd		 xor	 ecx, ebp
  00173	e8 00 00 00 00	 call	 @__security_check_cookie@4
  00178	81 c4 14 01 00
	00		 add	 esp, 276		; 00000114H
  0017e	3b ec		 cmp	 ebp, esp
  00180	e8 00 00 00 00	 call	 __RTC_CheckEsp
  00185	8b e5		 mov	 esp, ebp
  00187	5d		 pop	 ebp
  00188	c3		 ret	 0
  00189	8d 49 00	 npad	 3
$LN17@Decode4FSK:
  0018c	04 00 00 00	 DD	 4
  00190	00 00 00 00	 DD	 $LN16@Decode4FSK
$LN16@Decode4FSK:
  00194	ec ff ff ff	 DD	 -20			; ffffffecH
  00198	0a 00 00 00	 DD	 10			; 0000000aH
  0019c	00 00 00 00	 DD	 $LN12@Decode4FSK
  001a0	d8 ff ff ff	 DD	 -40			; ffffffd8H
  001a4	0a 00 00 00	 DD	 10			; 0000000aH
  001a8	00 00 00 00	 DD	 $LN13@Decode4FSK
  001ac	c8 ff ff ff	 DD	 -56			; ffffffc8H
  001b0	06 00 00 00	 DD	 6
  001b4	00 00 00 00	 DD	 $LN14@Decode4FSK
  001b8	bc ff ff ff	 DD	 -68			; ffffffbcH
  001bc	04 00 00 00	 DD	 4
  001c0	00 00 00 00	 DD	 $LN15@Decode4FSK
$LN15@Decode4FSK:
  001c4	62		 DB	 98			; 00000062H
  001c5	6c		 DB	 108			; 0000006cH
  001c6	6e		 DB	 110			; 0000006eH
  001c7	52		 DB	 82			; 00000052H
  001c8	53		 DB	 83			; 00000053H
  001c9	4f		 DB	 79			; 0000004fH
  001ca	4b		 DB	 75			; 0000004bH
  001cb	00		 DB	 0
$LN14@Decode4FSK:
  001cc	62		 DB	 98			; 00000062H
  001cd	79		 DB	 121			; 00000079H
  001ce	74		 DB	 116			; 00000074H
  001cf	43		 DB	 67			; 00000043H
  001d0	61		 DB	 97			; 00000061H
  001d1	6c		 DB	 108			; 0000006cH
  001d2	6c		 DB	 108			; 0000006cH
  001d3	00		 DB	 0
$LN13@Decode4FSK:
  001d4	73		 DB	 115			; 00000073H
  001d5	74		 DB	 116			; 00000074H
  001d6	72		 DB	 114			; 00000072H
  001d7	54		 DB	 84			; 00000054H
  001d8	61		 DB	 97			; 00000061H
  001d9	72		 DB	 114			; 00000072H
  001da	67		 DB	 103			; 00000067H
  001db	65		 DB	 101			; 00000065H
  001dc	74		 DB	 116			; 00000074H
  001dd	00		 DB	 0
$LN12@Decode4FSK:
  001de	73		 DB	 115			; 00000073H
  001df	74		 DB	 116			; 00000074H
  001e0	72		 DB	 114			; 00000072H
  001e1	43		 DB	 67			; 00000043H
  001e2	61		 DB	 97			; 00000061H
  001e3	6c		 DB	 108			; 0000006cH
  001e4	6c		 DB	 108			; 0000006cH
  001e5	65		 DB	 101			; 00000065H
  001e6	72		 DB	 114			; 00000072H
  001e7	00		 DB	 0
_Decode4FSKConReq ENDP
_TEXT	ENDS
PUBLIC	??_C@_0DO@INOJPEDO@?$FLDemodDecode4FSKConACK?$FN?5?5Remote?5@ ; `string'
PUBLIC	_Decode4FSKConACK
EXTRN	_intFailedFSKFrameDataDecodes:DWORD
EXTRN	_bytLastReceivedDataFrameType:BYTE
EXTRN	_intReceivedLeaderLen:DWORD
EXTRN	_intGoodFSKFrameDataDecodes:DWORD
;	COMDAT ??_C@_0DO@INOJPEDO@?$FLDemodDecode4FSKConACK?$FN?5?5Remote?5@
CONST	SEGMENT
??_C@_0DO@INOJPEDO@?$FLDemodDecode4FSKConACK?$FN?5?5Remote?5@ DB '[DemodD'
	DB	'ecode4FSKConACK]  Remote leader timing reported: %d ms', 00H ; `string'
; Function compile flags: /Odtp /RTCsu /ZI
CONST	ENDS
;	COMDAT _Decode4FSKConACK
_TEXT	SEGMENT
_Timing$ = -8						; size = 4
_bytFrameType$ = 8					; size = 1
_intTiming$ = 12					; size = 4
_Decode4FSKConACK PROC					; COMDAT

; 3120 : {

  00000	55		 push	 ebp
  00001	8b ec		 mov	 ebp, esp
  00003	81 ec cc 00 00
	00		 sub	 esp, 204		; 000000ccH
  00009	53		 push	 ebx
  0000a	56		 push	 esi
  0000b	57		 push	 edi
  0000c	8d bd 34 ff ff
	ff		 lea	 edi, DWORD PTR [ebp-204]
  00012	b9 33 00 00 00	 mov	 ecx, 51			; 00000033H
  00017	b8 cc cc cc cc	 mov	 eax, -858993460		; ccccccccH
  0001c	f3 ab		 rep stosd

; 3121 : 	int Timing = 0;

  0001e	c7 45 f8 00 00
	00 00		 mov	 DWORD PTR _Timing$[ebp], 0

; 3122 : 
; 3123 :  //Dim bytCall(5) As Byte
; 3124 : 
; 3125 : 
; 3126 : 	if (bytFrameData1[0] == bytFrameData1[1]) 

  00025	0f b6 05 00 00
	00 00		 movzx	 eax, BYTE PTR _bytFrameData1
  0002c	0f b6 0d 01 00
	00 00		 movzx	 ecx, BYTE PTR _bytFrameData1+1
  00033	3b c1		 cmp	 eax, ecx
  00035	75 0f		 jne	 SHORT $LN8@Decode4FSK@2

; 3127 : 		Timing = 10 * bytFrameData1[0];

  00037	0f b6 05 00 00
	00 00		 movzx	 eax, BYTE PTR _bytFrameData1
  0003e	6b c0 0a	 imul	 eax, 10			; 0000000aH
  00041	89 45 f8	 mov	 DWORD PTR _Timing$[ebp], eax
  00044	eb 40		 jmp	 SHORT $LN7@Decode4FSK@2
$LN8@Decode4FSK@2:

; 3128 : 	else if (bytFrameData1[0] == bytFrameData1[2])

  00046	0f b6 05 00 00
	00 00		 movzx	 eax, BYTE PTR _bytFrameData1
  0004d	0f b6 0d 02 00
	00 00		 movzx	 ecx, BYTE PTR _bytFrameData1+2
  00054	3b c1		 cmp	 eax, ecx
  00056	75 0f		 jne	 SHORT $LN6@Decode4FSK@2

; 3129 : 		Timing = 10 * bytFrameData1[0];

  00058	0f b6 05 00 00
	00 00		 movzx	 eax, BYTE PTR _bytFrameData1
  0005f	6b c0 0a	 imul	 eax, 10			; 0000000aH
  00062	89 45 f8	 mov	 DWORD PTR _Timing$[ebp], eax
  00065	eb 1f		 jmp	 SHORT $LN7@Decode4FSK@2
$LN6@Decode4FSK@2:

; 3130 : 	else if (bytFrameData1[1] == bytFrameData1[2])

  00067	0f b6 05 01 00
	00 00		 movzx	 eax, BYTE PTR _bytFrameData1+1
  0006e	0f b6 0d 02 00
	00 00		 movzx	 ecx, BYTE PTR _bytFrameData1+2
  00075	3b c1		 cmp	 eax, ecx
  00077	75 0d		 jne	 SHORT $LN7@Decode4FSK@2

; 3131 : 		Timing = 10 * bytFrameData1[1];

  00079	0f b6 05 01 00
	00 00		 movzx	 eax, BYTE PTR _bytFrameData1+1
  00080	6b c0 0a	 imul	 eax, 10			; 0000000aH
  00083	89 45 f8	 mov	 DWORD PTR _Timing$[ebp], eax
$LN7@Decode4FSK@2:

; 3132 : 
; 3133 : 	if (Timing >= 0)

  00086	83 7d f8 00	 cmp	 DWORD PTR _Timing$[ebp], 0
  0008a	7c 49		 jl	 SHORT $LN3@Decode4FSK@2

; 3134 : 	{
; 3135 : 		*intTiming = Timing;

  0008c	8b 45 0c	 mov	 eax, DWORD PTR _intTiming$[ebp]
  0008f	8b 4d f8	 mov	 ecx, DWORD PTR _Timing$[ebp]
  00092	89 08		 mov	 DWORD PTR [eax], ecx

; 3136 : 
; 3137 : 		// strRcvFrameTag = "_" & intTiming.ToString & " ms"
; 3138 :   
; 3139 : 		WriteDebugLog("[DemodDecode4FSKConACK]  Remote leader timing reported: %d ms", *intTiming);

  00094	8b 45 0c	 mov	 eax, DWORD PTR _intTiming$[ebp]
  00097	8b 08		 mov	 ecx, DWORD PTR [eax]
  00099	51		 push	 ecx
  0009a	68 00 00 00 00	 push	 OFFSET ??_C@_0DO@INOJPEDO@?$FLDemodDecode4FSKConACK?$FN?5?5Remote?5@
  0009f	e8 00 00 00 00	 call	 _WriteDebugLog
  000a4	83 c4 08	 add	 esp, 8

; 3140 : 
; 3141 : 		if (AccumulateStats)

  000a7	83 3d 00 00 00
	00 00		 cmp	 DWORD PTR _AccumulateStats, 0
  000ae	74 0d		 je	 SHORT $LN2@Decode4FSK@2

; 3142 : 			intGoodFSKFrameDataDecodes++;

  000b0	a1 00 00 00 00	 mov	 eax, DWORD PTR _intGoodFSKFrameDataDecodes
  000b5	83 c0 01	 add	 eax, 1
  000b8	a3 00 00 00 00	 mov	 DWORD PTR _intGoodFSKFrameDataDecodes, eax
$LN2@Decode4FSK@2:

; 3143 :          
; 3144 : 		//intTestFrameCorrectCnt++;
; 3145 : 		intReceivedLeaderLen = intLeaderRcvdMs;

  000bd	a1 00 00 00 00	 mov	 eax, DWORD PTR _intLeaderRcvdMs
  000c2	a3 00 00 00 00	 mov	 DWORD PTR _intReceivedLeaderLen, eax

; 3146 : 		bytLastReceivedDataFrameType = 0;  // initialize the LastFrameType to an illegal Data frame

  000c7	c6 05 00 00 00
	00 00		 mov	 BYTE PTR _bytLastReceivedDataFrameType, 0

; 3147 :         return TRUE;

  000ce	b8 01 00 00 00	 mov	 eax, 1
  000d3	eb 18		 jmp	 SHORT $LN9@Decode4FSK@2
$LN3@Decode4FSK@2:

; 3148 : 	}
; 3149 : 	
; 3150 : 	if (AccumulateStats)

  000d5	83 3d 00 00 00
	00 00		 cmp	 DWORD PTR _AccumulateStats, 0
  000dc	74 0d		 je	 SHORT $LN1@Decode4FSK@2

; 3151 : 		intFailedFSKFrameDataDecodes++;

  000de	a1 00 00 00 00	 mov	 eax, DWORD PTR _intFailedFSKFrameDataDecodes
  000e3	83 c0 01	 add	 eax, 1
  000e6	a3 00 00 00 00	 mov	 DWORD PTR _intFailedFSKFrameDataDecodes, eax
$LN1@Decode4FSK@2:

; 3152 : 
; 3153 : 	return FALSE;

  000eb	33 c0		 xor	 eax, eax
$LN9@Decode4FSK@2:

; 3154 : }

  000ed	5f		 pop	 edi
  000ee	5e		 pop	 esi
  000ef	5b		 pop	 ebx
  000f0	81 c4 cc 00 00
	00		 add	 esp, 204		; 000000ccH
  000f6	3b ec		 cmp	 ebp, esp
  000f8	e8 00 00 00 00	 call	 __RTC_CheckEsp
  000fd	8b e5		 mov	 esp, ebp
  000ff	5d		 pop	 ebp
  00100	c3		 ret	 0
_Decode4FSKConACK ENDP
_TEXT	ENDS
PUBLIC	??_C@_0BG@EFACKBF@ID?5Still?5bad?5after?5RS?$AA@ ; `string'
PUBLIC	??_C@_0BJ@CAEMJJE@ID?5Frame?5Corrected?5by?5RS?$AA@ ; `string'
PUBLIC	__$ArrayPad$
PUBLIC	_Decode4FSKID
EXTRN	_DeCompressGridSquare:PROC
;	COMDAT ??_C@_0BG@EFACKBF@ID?5Still?5bad?5after?5RS?$AA@
CONST	SEGMENT
??_C@_0BG@EFACKBF@ID?5Still?5bad?5after?5RS?$AA@ DB 'ID Still bad after R'
	DB	'S', 00H					; `string'
CONST	ENDS
;	COMDAT ??_C@_0BJ@CAEMJJE@ID?5Frame?5Corrected?5by?5RS?$AA@
CONST	SEGMENT
??_C@_0BJ@CAEMJJE@ID?5Frame?5Corrected?5by?5RS?$AA@ DB 'ID Frame Correcte'
	DB	'd by RS', 00H				; `string'
; Function compile flags: /Odtp /RTCsu /ZI
CONST	ENDS
;	COMDAT _Decode4FSKID
_TEXT	SEGMENT
_FrameOK$ = -40						; size = 4
_blnRSOK$ = -28						; size = 4
_bytCall$ = -16						; size = 6
__$ArrayPad$ = -4					; size = 4
_bytFrameType$ = 8					; size = 1
_strCallID$ = 12					; size = 4
_strGridSquare$ = 16					; size = 4
_Decode4FSKID PROC					; COMDAT

; 3157 : {

  00000	55		 push	 ebp
  00001	8b ec		 mov	 ebp, esp
  00003	81 ec ec 00 00
	00		 sub	 esp, 236		; 000000ecH
  00009	53		 push	 ebx
  0000a	56		 push	 esi
  0000b	57		 push	 edi
  0000c	8d bd 14 ff ff
	ff		 lea	 edi, DWORD PTR [ebp-236]
  00012	b9 3b 00 00 00	 mov	 ecx, 59			; 0000003bH
  00017	b8 cc cc cc cc	 mov	 eax, -858993460		; ccccccccH
  0001c	f3 ab		 rep stosd
  0001e	a1 00 00 00 00	 mov	 eax, DWORD PTR ___security_cookie
  00023	33 c5		 xor	 eax, ebp
  00025	89 45 fc	 mov	 DWORD PTR __$ArrayPad$[ebp], eax

; 3158 : 	UCHAR bytCall[6];
; 3159 : 	BOOL blnRSOK;
; 3160 : 	BOOL FrameOK;
; 3161 : 
; 3162 : 	FrameOK = RSDecode(bytFrameData1, 14, 2, &blnRSOK);

  00028	8d 45 e4	 lea	 eax, DWORD PTR _blnRSOK$[ebp]
  0002b	50		 push	 eax
  0002c	6a 02		 push	 2
  0002e	6a 0e		 push	 14			; 0000000eH
  00030	68 00 00 00 00	 push	 OFFSET _bytFrameData1
  00035	e8 00 00 00 00	 call	 _RSDecode
  0003a	83 c4 10	 add	 esp, 16			; 00000010H
  0003d	89 45 d8	 mov	 DWORD PTR _FrameOK$[ebp], eax

; 3163 : 
; 3164 : 	if (FrameOK && blnRSOK == FALSE)

  00040	83 7d d8 00	 cmp	 DWORD PTR _FrameOK$[ebp], 0
  00044	74 45		 je	 SHORT $LN5@Decode4FSK@3
  00046	83 7d e4 00	 cmp	 DWORD PTR _blnRSOK$[ebp], 0
  0004a	75 3f		 jne	 SHORT $LN5@Decode4FSK@3

; 3165 : 	{
; 3166 : 		// RS Claims to have corrected it, but check
; 3167 : 
; 3168 : 		WriteDebugLog("ID Frame Corrected by RS");

  0004c	68 00 00 00 00	 push	 OFFSET ??_C@_0BJ@CAEMJJE@ID?5Frame?5Corrected?5by?5RS?$AA@
  00051	e8 00 00 00 00	 call	 _WriteDebugLog
  00056	83 c4 04	 add	 esp, 4

; 3169 : 
; 3170 : 		FrameOK = RSDecode(bytFrameData1, 14, 2, &blnRSOK);

  00059	8d 45 e4	 lea	 eax, DWORD PTR _blnRSOK$[ebp]
  0005c	50		 push	 eax
  0005d	6a 02		 push	 2
  0005f	6a 0e		 push	 14			; 0000000eH
  00061	68 00 00 00 00	 push	 OFFSET _bytFrameData1
  00066	e8 00 00 00 00	 call	 _RSDecode
  0006b	83 c4 10	 add	 esp, 16			; 00000010H
  0006e	89 45 d8	 mov	 DWORD PTR _FrameOK$[ebp], eax

; 3171 : 
; 3172 : 		// Should now be OK without connections, if not RS didn't fix it
; 3173 : 
; 3174 : 		if (blnRSOK == FALSE)

  00071	83 7d e4 00	 cmp	 DWORD PTR _blnRSOK$[ebp], 0
  00075	75 14		 jne	 SHORT $LN5@Decode4FSK@3

; 3175 : 		{
; 3176 : 			WriteDebugLog("ID Still bad after RS");

  00077	68 00 00 00 00	 push	 OFFSET ??_C@_0BG@EFACKBF@ID?5Still?5bad?5after?5RS?$AA@
  0007c	e8 00 00 00 00	 call	 _WriteDebugLog
  00081	83 c4 04	 add	 esp, 4

; 3177 : 			FrameOK = FALSE;

  00084	c7 45 d8 00 00
	00 00		 mov	 DWORD PTR _FrameOK$[ebp], 0
$LN5@Decode4FSK@3:

; 3178 : 		}
; 3179 : 	}
; 3180 : 
; 3181 : 	memcpy(bytCall, bytFrameData1, 6);

  0008b	6a 06		 push	 6
  0008d	68 00 00 00 00	 push	 OFFSET _bytFrameData1
  00092	8d 45 f0	 lea	 eax, DWORD PTR _bytCall$[ebp]
  00095	50		 push	 eax
  00096	e8 00 00 00 00	 call	 _memcpy
  0009b	83 c4 0c	 add	 esp, 12			; 0000000cH

; 3182 : 	DeCompressCallsign(bytCall, strCallID);

  0009e	8b 45 0c	 mov	 eax, DWORD PTR _strCallID$[ebp]
  000a1	50		 push	 eax
  000a2	8d 4d f0	 lea	 ecx, DWORD PTR _bytCall$[ebp]
  000a5	51		 push	 ecx
  000a6	e8 00 00 00 00	 call	 _DeCompressCallsign
  000ab	83 c4 08	 add	 esp, 8

; 3183 : 	memcpy(bytCall, &bytFrameData1[6], 6);

  000ae	6a 06		 push	 6
  000b0	68 06 00 00 00	 push	 OFFSET _bytFrameData1+6
  000b5	8d 45 f0	 lea	 eax, DWORD PTR _bytCall$[ebp]
  000b8	50		 push	 eax
  000b9	e8 00 00 00 00	 call	 _memcpy
  000be	83 c4 0c	 add	 esp, 12			; 0000000cH

; 3184 : 	DeCompressGridSquare(bytCall, strGridSquare);

  000c1	8b 45 10	 mov	 eax, DWORD PTR _strGridSquare$[ebp]
  000c4	50		 push	 eax
  000c5	8d 4d f0	 lea	 ecx, DWORD PTR _bytCall$[ebp]
  000c8	51		 push	 ecx
  000c9	e8 00 00 00 00	 call	 _DeCompressGridSquare
  000ce	83 c4 08	 add	 esp, 8

; 3185 : 
; 3186 : //	printtick(strCallID);
; 3187 : //	printtick(strGridSquare);
; 3188 : 
; 3189 : 
; 3190 : 	/*
; 3191 :         If strGridSquare.Length = 6 Then
; 3192 :             strGridSquare = "[" & strGridSquare.Substring(0, 4).ToUpper & strGridSquare.Substring(4, 2).ToLower & "]"
; 3193 :         ElseIf strGridSquare.Length = 8 Then
; 3194 :             strGridSquare = "[" & strGridSquare.Substring(0, 4).ToUpper & strGridSquare.Substring(4, 2).ToLower & strGridSquare.Substring(6, 2) & "]"
; 3195 :         Else
; 3196 :             strGridSquare = "[" & strGridSquare.ToUpper & "]"
; 3197 :         End If
; 3198 : 		*/
; 3199 : 
; 3200 :         ///strRcvFrameTag = "_" & strCallID & " " & strGridSquare
; 3201 : 
; 3202 : 	if (AccumulateStats)

  000d1	83 3d 00 00 00
	00 00		 cmp	 DWORD PTR _AccumulateStats, 0
  000d8	74 22		 je	 SHORT $LN3@Decode4FSK@3

; 3203 : 		if (FrameOK)

  000da	83 7d d8 00	 cmp	 DWORD PTR _FrameOK$[ebp], 0
  000de	74 0f		 je	 SHORT $LN2@Decode4FSK@3

; 3204 : 			intGoodFSKFrameDataDecodes++;

  000e0	a1 00 00 00 00	 mov	 eax, DWORD PTR _intGoodFSKFrameDataDecodes
  000e5	83 c0 01	 add	 eax, 1
  000e8	a3 00 00 00 00	 mov	 DWORD PTR _intGoodFSKFrameDataDecodes, eax

; 3205 : 		else

  000ed	eb 0d		 jmp	 SHORT $LN3@Decode4FSK@3
$LN2@Decode4FSK@3:

; 3206 : 			intFailedFSKFrameDataDecodes++;

  000ef	a1 00 00 00 00	 mov	 eax, DWORD PTR _intFailedFSKFrameDataDecodes
  000f4	83 c0 01	 add	 eax, 1
  000f7	a3 00 00 00 00	 mov	 DWORD PTR _intFailedFSKFrameDataDecodes, eax
$LN3@Decode4FSK@3:

; 3207 : 
; 3208 : 
; 3209 : 	return FrameOK;	// Not correctable

  000fc	8b 45 d8	 mov	 eax, DWORD PTR _FrameOK$[ebp]

; 3210 : }

  000ff	52		 push	 edx
  00100	8b cd		 mov	 ecx, ebp
  00102	50		 push	 eax
  00103	8d 15 00 00 00
	00		 lea	 edx, DWORD PTR $LN11@Decode4FSK@3
  00109	e8 00 00 00 00	 call	 @_RTC_CheckStackVars@8
  0010e	58		 pop	 eax
  0010f	5a		 pop	 edx
  00110	5f		 pop	 edi
  00111	5e		 pop	 esi
  00112	5b		 pop	 ebx
  00113	8b 4d fc	 mov	 ecx, DWORD PTR __$ArrayPad$[ebp]
  00116	33 cd		 xor	 ecx, ebp
  00118	e8 00 00 00 00	 call	 @__security_check_cookie@4
  0011d	81 c4 ec 00 00
	00		 add	 esp, 236		; 000000ecH
  00123	3b ec		 cmp	 ebp, esp
  00125	e8 00 00 00 00	 call	 __RTC_CheckEsp
  0012a	8b e5		 mov	 esp, ebp
  0012c	5d		 pop	 ebp
  0012d	c3		 ret	 0
  0012e	8b ff		 npad	 2
$LN11@Decode4FSK@3:
  00130	02 00 00 00	 DD	 2
  00134	00 00 00 00	 DD	 $LN10@Decode4FSK@3
$LN10@Decode4FSK@3:
  00138	f0 ff ff ff	 DD	 -16			; fffffff0H
  0013c	06 00 00 00	 DD	 6
  00140	00 00 00 00	 DD	 $LN8@Decode4FSK@3
  00144	e4 ff ff ff	 DD	 -28			; ffffffe4H
  00148	04 00 00 00	 DD	 4
  0014c	00 00 00 00	 DD	 $LN9@Decode4FSK@3
$LN9@Decode4FSK@3:
  00150	62		 DB	 98			; 00000062H
  00151	6c		 DB	 108			; 0000006cH
  00152	6e		 DB	 110			; 0000006eH
  00153	52		 DB	 82			; 00000052H
  00154	53		 DB	 83			; 00000053H
  00155	4f		 DB	 79			; 0000004fH
  00156	4b		 DB	 75			; 0000004bH
  00157	00		 DB	 0
$LN8@Decode4FSK@3:
  00158	62		 DB	 98			; 00000062H
  00159	79		 DB	 121			; 00000079H
  0015a	74		 DB	 116			; 00000074H
  0015b	43		 DB	 67			; 00000043H
  0015c	61		 DB	 97			; 00000061H
  0015d	6c		 DB	 108			; 0000006cH
  0015e	6c		 DB	 108			; 0000006cH
  0015f	00		 DB	 0
_Decode4FSKID ENDP
_TEXT	ENDS
PUBLIC	??_C@_0BK@CAIPFAIB@Unsupported?5frame?5type?5?$CFx?$AA@ ; `string'
PUBLIC	_DemodQAM
PUBLIC	_DemodPSK
;	COMDAT ??_C@_0BK@CAIPFAIB@Unsupported?5frame?5type?5?$CFx?$AA@
CONST	SEGMENT
??_C@_0BK@CAIPFAIB@Unsupported?5frame?5type?5?$CFx?$AA@ DB 'Unsupported f'
	DB	'rame type %x', 00H				; `string'
; Function compile flags: /Odtp /RTCsu /ZI
CONST	ENDS
;	COMDAT _DemodulateFrame
_TEXT	SEGMENT
tv69 = -208						; size = 4
_intConstellationQuality$ = -8				; size = 4
_intFrameType$ = 8					; size = 4
_DemodulateFrame PROC					; COMDAT

; 3218 : {

  00000	55		 push	 ebp
  00001	8b ec		 mov	 ebp, esp
  00003	81 ec d0 00 00
	00		 sub	 esp, 208		; 000000d0H
  00009	53		 push	 ebx
  0000a	56		 push	 esi
  0000b	57		 push	 edi
  0000c	8d bd 30 ff ff
	ff		 lea	 edi, DWORD PTR [ebp-208]
  00012	b9 34 00 00 00	 mov	 ecx, 52			; 00000034H
  00017	b8 cc cc cc cc	 mov	 eax, -858993460		; ccccccccH
  0001c	f3 ab		 rep stosd

; 3219 :  //       Dim stcStatus As Status = Nothing
; 3220 : 
; 3221 : 	int intConstellationQuality = 0;

  0001e	c7 45 f8 00 00
	00 00		 mov	 DWORD PTR _intConstellationQuality$[ebp], 0

; 3222 : 
; 3223 :  //       ReDim bytData(-1)
; 3224 : 
; 3225 : 	strRcvFrameTag[0] = 0;

  00025	c6 05 00 00 00
	00 00		 mov	 BYTE PTR _strRcvFrameTag, 0

; 3226 : 
; 3227 : 	//stcStatus.ControlName = "lblRcvFrame"
; 3228 : 
; 3229 : 	//	DataACK/NAK and short control frames
; 3230 : 
; 3231 : 	if ((intFrameType >= 0 && intFrameType <= 0x1f) ||  intFrameType == 0xe0)	 // DataACK/NAK

  0002c	83 7d 08 00	 cmp	 DWORD PTR _intFrameType$[ebp], 0
  00030	7c 06		 jl	 SHORT $LN17@Demodulate
  00032	83 7d 08 1f	 cmp	 DWORD PTR _intFrameType$[ebp], 31 ; 0000001fH
  00036	7e 09		 jle	 SHORT $LN18@Demodulate
$LN17@Demodulate:
  00038	81 7d 08 e0 00
	00 00		 cmp	 DWORD PTR _intFrameType$[ebp], 224 ; 000000e0H
  0003f	75 0a		 jne	 SHORT $LN19@Demodulate
$LN18@Demodulate:

; 3232 : 	{
; 3233 : 		//blnDecodeOK = DecodeACKNAK(intFrameType, intRcvdQuality)
; 3234 :         //    stcStatus.Text = objFrameInfo.Name(intFrameType) & strRcvFrameTag
; 3235 :         //ElseIf (objFrameInfo.IsShortControlFrame(intFrameType)) Then ' Short Control Frames
; 3236 :         //    blnDecodeOK = TRUE
; 3237 :         //    stcStatus.Text = objFrameInfo.Name(intFrameType)
; 3238 :         //End If
; 3239 : 			
; 3240 : 		Demod1Car4FSK();

  00041	e8 00 00 00 00	 call	 _Demod1Car4FSK

; 3241 : 		return;

  00046	e9 d0 00 00 00	 jmp	 $LN20@Demodulate
$LN19@Demodulate:

; 3242 : 	}
; 3243 : 
; 3244 : 	if (intFrameType >= 0x30 && intFrameType <= 0x38)

  0004b	83 7d 08 30	 cmp	 DWORD PTR _intFrameType$[ebp], 48 ; 00000030H
  0004f	7c 10		 jl	 SHORT $LN16@Demodulate
  00051	83 7d 08 38	 cmp	 DWORD PTR _intFrameType$[ebp], 56 ; 00000038H
  00055	7f 0a		 jg	 SHORT $LN16@Demodulate

; 3245 : 	{
; 3246 : 		// ID and CON Req
; 3247 : 
; 3248 : 		Demod1Car4FSK();

  00057	e8 00 00 00 00	 call	 _Demod1Car4FSK

; 3249 : 		return;

  0005c	e9 ba 00 00 00	 jmp	 $LN20@Demodulate
$LN16@Demodulate:

; 3250 : 	}
; 3251 : 
; 3252 : 	switch (intFrameType)

  00061	8b 45 08	 mov	 eax, DWORD PTR _intFrameType$[ebp]
  00064	89 85 30 ff ff
	ff		 mov	 DWORD PTR tv69[ebp], eax
  0006a	8b 8d 30 ff ff
	ff		 mov	 ecx, DWORD PTR tv69[ebp]
  00070	83 e9 39	 sub	 ecx, 57			; 00000039H
  00073	89 8d 30 ff ff
	ff		 mov	 DWORD PTR tv69[ebp], ecx
  00079	83 bd 30 ff ff
	ff 44		 cmp	 DWORD PTR tv69[ebp], 68	; 00000044H
  00080	77 6a		 ja	 SHORT $LN1@Demodulate
  00082	8b 95 30 ff ff
	ff		 mov	 edx, DWORD PTR tv69[ebp]
  00088	0f b6 82 00 00
	00 00		 movzx	 eax, BYTE PTR $LN22@Demodulate[edx]
  0008f	ff 24 85 00 00
	00 00		 jmp	 DWORD PTR $LN23@Demodulate[eax*4]
$LN13@Demodulate:

; 3253 : 	{
; 3254 : 		case 0x39:
; 3255 : 		case 0x3A:
; 3256 : 		case 0x3B:
; 3257 : 		case 0x3C:		 // Connect ACKs with Timing
; 3258 :  
; 3259 : 		Demod1Car4FSK();

  00096	e8 00 00 00 00	 call	 _Demod1Car4FSK

; 3260 : 		return;

  0009b	eb 7e		 jmp	 SHORT $LN20@Demodulate

; 3261 : 
; 3262 : 		break;

  0009d	eb 7c		 jmp	 SHORT $LN20@Demodulate
$LN12@Demodulate:

; 3263 : 		
; 3264 : 	
; 3265 : 		// 1 Carrier Data frames
; 3266 : 		// PSK Data
; 3267 : 
; 3268 : 					
; 3269 : 		case 0x40:
; 3270 : 		case 0x41:
; 3271 : 		case 0x42:
; 3272 : 		case 0x43:
; 3273 : 		case 0x44:
; 3274 : 		case 0x45:
; 3275 : 
; 3276 : 			DemodPSK();

  0009f	e8 00 00 00 00	 call	 _DemodPSK

; 3277 : 			break;

  000a4	eb 75		 jmp	 SHORT $LN20@Demodulate
$LN11@Demodulate:

; 3278 : 
; 3279 : 		case 0x5c:
; 3280 : 		case 0x5d:
; 3281 : 
; 3282 : 		// 1 car 16qam
; 3283 : 
; 3284 : 			DemodQAM();

  000a6	e8 00 00 00 00	 call	 _DemodQAM

; 3285 : 			break;

  000ab	eb 6e		 jmp	 SHORT $LN20@Demodulate
$LN10@Demodulate:

; 3286 : 
; 3287 : 		//4FSK Data
; 3288 : 
; 3289 : 		case 0x46:
; 3290 : 		case 0x47:
; 3291 : 		case 0x48:
; 3292 : 		case 0x49:
; 3293 : 		case 0x4a:
; 3294 : 		case 0x4b:
; 3295 : 		case 0x4c:
; 3296 : 		case 0x4d:
; 3297 : 
; 3298 : 		case 0x68:		// 2 Carrier FSK
; 3299 : 		case 0x69:		// 2 Carrier FSK
; 3300 : 
; 3301 : 			Demod1Car4FSK();

  000ad	e8 00 00 00 00	 call	 _Demod1Car4FSK

; 3302 : 			break;

  000b2	eb 67		 jmp	 SHORT $LN20@Demodulate
$LN9@Demodulate:

; 3303 : 
; 3304 : 		// 8FSK Data
; 3305 : 
; 3306 : 		case 0x4E:
; 3307 : 		case 0x4F:
; 3308 : 
; 3309 : 			Demod1Car8FSK();

  000b4	e8 00 00 00 00	 call	 _Demod1Car8FSK

; 3310 : 			break;

  000b9	eb 60		 jmp	 SHORT $LN20@Demodulate
$LN8@Demodulate:

; 3311 : 
; 3312 :         // 4FSK Data (600 bd)
; 3313 : 
; 3314 : 		case 0x7A:
; 3315 : 		case 0x7B:
; 3316 : 		case 0x7C:
; 3317 : 		case 0x7D:
; 3318 : 
; 3319 : 			Demod1Car4FSK600();

  000bb	e8 00 00 00 00	 call	 _Demod1Car4FSK600

; 3320 : 			break;

  000c0	eb 59		 jmp	 SHORT $LN20@Demodulate
$LN7@Demodulate:

; 3321 :   
; 3322 : 		// 16FSK Data
; 3323 : 
; 3324 : 		case 0x58:
; 3325 : 		case 0x59:
; 3326 : 		case 0x5A:
; 3327 : 		case 0x5B:
; 3328 : 			
; 3329 : 			Demod1Car16FSK();

  000c2	e8 00 00 00 00	 call	 _Demod1Car16FSK

; 3330 : 			break;

  000c7	eb 52		 jmp	 SHORT $LN20@Demodulate
$LN6@Demodulate:

; 3331 : 
; 3332 : 			 //2 Carrier PSK Data frames
; 3333 : 
; 3334 : 		case 0x50:
; 3335 : 		case 0x51:
; 3336 : 		case 0x52:
; 3337 : 		case 0x53:
; 3338 : 
; 3339 : 			DemodPSK();

  000c9	e8 00 00 00 00	 call	 _DemodPSK

; 3340 : 			break;

  000ce	eb 4b		 jmp	 SHORT $LN20@Demodulate
$LN5@Demodulate:

; 3341 : 
; 3342 : 		case 0x54:
; 3343 : 		case 0x55:
; 3344 : 
; 3345 : 			// 2 car 16qam
; 3346 : 
; 3347 : 			DemodQAM();

  000d0	e8 00 00 00 00	 call	 _DemodQAM

; 3348 : 			break;

  000d5	eb 44		 jmp	 SHORT $LN20@Demodulate
$LN4@Demodulate:

; 3349 : 
; 3350 : 			
; 3351 : 		// 1000 Hz  Data frames
; 3352 : 
; 3353 : 		case 0x60:
; 3354 : 		case 0x61:
; 3355 : 		case 0x62:
; 3356 : 		case 0x63:
; 3357 : 		case 0x64:
; 3358 : 		case 0x65:
; 3359 : 		case 0x66:
; 3360 : 		case 0x67:
; 3361 : 
; 3362 : 			DemodPSK();

  000d7	e8 00 00 00 00	 call	 _DemodPSK

; 3363 : 			break;

  000dc	eb 3d		 jmp	 SHORT $LN20@Demodulate
$LN3@Demodulate:

; 3364 : 
; 3365 : 			// 2000 Hz PSK 8 Carr Data frames
; 3366 : 			
; 3367 : 		case 0x70:
; 3368 : 		case 0x71:
; 3369 : 		case 0x72:
; 3370 : 		case 0x73:
; 3371 : 		case 0x74:
; 3372 : 		case 0x75:
; 3373 : 		case 0x76:
; 3374 : 		case 0x77:
; 3375 : 
; 3376 : 			DemodPSK();

  000de	e8 00 00 00 00	 call	 _DemodPSK

; 3377 : 			break;

  000e3	eb 36		 jmp	 SHORT $LN20@Demodulate
$LN2@Demodulate:

; 3378 : 
; 3379 : 		case 0x78:		// 4 Carrier FSK
; 3380 : 		case 0x79:		// 4 Carrier FSK
; 3381 : 
; 3382 : 			Demod1Car4FSK();

  000e5	e8 00 00 00 00	 call	 _Demod1Car4FSK

; 3383 : 			break;

  000ea	eb 2f		 jmp	 SHORT $LN20@Demodulate
$LN1@Demodulate:

; 3384 : 
; 3385 : 
; 3386 :   /*              ' Experimental Sounding frame
; 3387 :             Case 0xD0
; 3388 :                 DemodSounder(intMFSReadPtr, intFilteredMixedSamples)
; 3389 :                 blnDecodeOK = TRUE
; 3390 :   */
; 3391 : 		default:
; 3392 : 
; 3393 : 			WriteDebugLog("Unsupported frame type %x", intFrameType);

  000ec	8b 45 08	 mov	 eax, DWORD PTR _intFrameType$[ebp]
  000ef	50		 push	 eax
  000f0	68 00 00 00 00	 push	 OFFSET ??_C@_0BK@CAIPFAIB@Unsupported?5frame?5type?5?$CFx?$AA@
  000f5	e8 00 00 00 00	 call	 _WriteDebugLog
  000fa	83 c4 08	 add	 esp, 8

; 3394 : 			DiscardOldSamples();

  000fd	e8 00 00 00 00	 call	 _DiscardOldSamples

; 3395 : 			ClearAllMixedSamples();

  00102	e8 00 00 00 00	 call	 _ClearAllMixedSamples

; 3396 : 			State = SearchingForLeader;

  00107	c7 05 00 00 00
	00 00 00 00 00	 mov	 DWORD PTR _State, 0

; 3397 : 
; 3398 : 
; 3399 : 			intFilteredMixedSamplesLength = 0;	// Testing

  00111	c7 05 00 00 00
	00 00 00 00 00	 mov	 DWORD PTR _intFilteredMixedSamplesLength, 0
$LN20@Demodulate:

; 3400 : 	}
; 3401 : 	
; 3402 : //	if (blnDecodeOK)
; 3403 : //		stcStatus.BackColor = Color.LightGreen;
; 3404 : //	else
; 3405 : //		stcStatus.BackColor = Color.LightSalmon;
; 3406 :    
; 3407 : //	queTNCStatus.Enqueue(stcStatus);
; 3408 : 
; 3409 : }

  0011b	5f		 pop	 edi
  0011c	5e		 pop	 esi
  0011d	5b		 pop	 ebx
  0011e	81 c4 d0 00 00
	00		 add	 esp, 208		; 000000d0H
  00124	3b ec		 cmp	 ebp, esp
  00126	e8 00 00 00 00	 call	 __RTC_CheckEsp
  0012b	8b e5		 mov	 esp, ebp
  0012d	5d		 pop	 ebp
  0012e	c3		 ret	 0
  0012f	90		 npad	 1
$LN23@Demodulate:
  00130	00 00 00 00	 DD	 $LN13@Demodulate
  00134	00 00 00 00	 DD	 $LN12@Demodulate
  00138	00 00 00 00	 DD	 $LN10@Demodulate
  0013c	00 00 00 00	 DD	 $LN9@Demodulate
  00140	00 00 00 00	 DD	 $LN6@Demodulate
  00144	00 00 00 00	 DD	 $LN5@Demodulate
  00148	00 00 00 00	 DD	 $LN7@Demodulate
  0014c	00 00 00 00	 DD	 $LN11@Demodulate
  00150	00 00 00 00	 DD	 $LN4@Demodulate
  00154	00 00 00 00	 DD	 $LN3@Demodulate
  00158	00 00 00 00	 DD	 $LN2@Demodulate
  0015c	00 00 00 00	 DD	 $LN8@Demodulate
  00160	00 00 00 00	 DD	 $LN1@Demodulate
$LN22@Demodulate:
  00164	00		 DB	 0
  00165	00		 DB	 0
  00166	00		 DB	 0
  00167	00		 DB	 0
  00168	0c		 DB	 12			; 0000000cH
  00169	0c		 DB	 12			; 0000000cH
  0016a	0c		 DB	 12			; 0000000cH
  0016b	01		 DB	 1
  0016c	01		 DB	 1
  0016d	01		 DB	 1
  0016e	01		 DB	 1
  0016f	01		 DB	 1
  00170	01		 DB	 1
  00171	02		 DB	 2
  00172	02		 DB	 2
  00173	02		 DB	 2
  00174	02		 DB	 2
  00175	02		 DB	 2
  00176	02		 DB	 2
  00177	02		 DB	 2
  00178	02		 DB	 2
  00179	03		 DB	 3
  0017a	03		 DB	 3
  0017b	04		 DB	 4
  0017c	04		 DB	 4
  0017d	04		 DB	 4
  0017e	04		 DB	 4
  0017f	05		 DB	 5
  00180	05		 DB	 5
  00181	0c		 DB	 12			; 0000000cH
  00182	0c		 DB	 12			; 0000000cH
  00183	06		 DB	 6
  00184	06		 DB	 6
  00185	06		 DB	 6
  00186	06		 DB	 6
  00187	07		 DB	 7
  00188	07		 DB	 7
  00189	0c		 DB	 12			; 0000000cH
  0018a	0c		 DB	 12			; 0000000cH
  0018b	08		 DB	 8
  0018c	08		 DB	 8
  0018d	08		 DB	 8
  0018e	08		 DB	 8
  0018f	08		 DB	 8
  00190	08		 DB	 8
  00191	08		 DB	 8
  00192	08		 DB	 8
  00193	02		 DB	 2
  00194	02		 DB	 2
  00195	0c		 DB	 12			; 0000000cH
  00196	0c		 DB	 12			; 0000000cH
  00197	0c		 DB	 12			; 0000000cH
  00198	0c		 DB	 12			; 0000000cH
  00199	0c		 DB	 12			; 0000000cH
  0019a	0c		 DB	 12			; 0000000cH
  0019b	09		 DB	 9
  0019c	09		 DB	 9
  0019d	09		 DB	 9
  0019e	09		 DB	 9
  0019f	09		 DB	 9
  001a0	09		 DB	 9
  001a1	09		 DB	 9
  001a2	09		 DB	 9
  001a3	0a		 DB	 10			; 0000000aH
  001a4	0a		 DB	 10			; 0000000aH
  001a5	0b		 DB	 11			; 0000000bH
  001a6	0b		 DB	 11			; 0000000bH
  001a7	0b		 DB	 11			; 0000000bH
  001a8	0b		 DB	 11			; 0000000bH
_DemodulateFrame ENDP
_TEXT	ENDS
PUBLIC	_DecodeACKNAK
; Function compile flags: /Odtp /RTCsu /ZI
;	COMDAT _DecodeACKNAK
_TEXT	SEGMENT
_intFrameType$ = 8					; size = 4
_intQuality$ = 12					; size = 4
_DecodeACKNAK PROC					; COMDAT

; 3415 : {

  00000	55		 push	 ebp
  00001	8b ec		 mov	 ebp, esp
  00003	81 ec c0 00 00
	00		 sub	 esp, 192		; 000000c0H
  00009	53		 push	 ebx
  0000a	56		 push	 esi
  0000b	57		 push	 edi
  0000c	8d bd 40 ff ff
	ff		 lea	 edi, DWORD PTR [ebp-192]
  00012	b9 30 00 00 00	 mov	 ecx, 48			; 00000030H
  00017	b8 cc cc cc cc	 mov	 eax, -858993460		; ccccccccH
  0001c	f3 ab		 rep stosd

; 3416 : 	*intQuality = 38 + (2 * (intFrameType & 0x1F));  //mask off lower 5 bits ' Range of 38 to 100 in steps of 2

  0001e	8b 45 08	 mov	 eax, DWORD PTR _intFrameType$[ebp]
  00021	83 e0 1f	 and	 eax, 31			; 0000001fH
  00024	8d 4c 00 26	 lea	 ecx, DWORD PTR [eax+eax+38]
  00028	8b 55 0c	 mov	 edx, DWORD PTR _intQuality$[ebp]
  0002b	89 0a		 mov	 DWORD PTR [edx], ecx

; 3417 :      // strRcvFrameTag = "_Q" & intQuality.ToString
; 3418 : 	return TRUE;

  0002d	b8 01 00 00 00	 mov	 eax, 1

; 3419 : }

  00032	5f		 pop	 edi
  00033	5e		 pop	 esi
  00034	5b		 pop	 ebx
  00035	8b e5		 mov	 esp, ebp
  00037	5d		 pop	 ebp
  00038	c3		 ret	 0
_DecodeACKNAK ENDP
_TEXT	ENDS
PUBLIC	??_C@_0DK@LEPKHBN@RS?5Errors?5?$CFd?5Carriers?5?$CFd?5RLen?5?$CFd@ ; `string'
PUBLIC	??_C@_0EB@KDLDFJG@?$FLDecodeFrame?$FN?5Frame?3?5?$CFs?5Decode?5F@ ; `string'
PUBLIC	??_C@_0EB@IDPOMMIG@?$FLDecodeFrame?$FN?5Frame?3?5?$CFs?5Decode?5P@ ; `string'
PUBLIC	??_C@_0M@OAPNEBCO@ID?3?$CFs?5?$CFs?5?3?5?$AA@	; `string'
PUBLIC	??_C@_0DB@JMALNDCO@DecodeFrame?5MEMARQ?5Flags?5?$CFd?5?$CFd?5?$CF@ ; `string'
PUBLIC	__$ArrayPad$
;	COMDAT ??_C@_0DK@LEPKHBN@RS?5Errors?5?$CFd?5Carriers?5?$CFd?5RLen?5?$CFd@
CONST	SEGMENT
??_C@_0DK@LEPKHBN@RS?5Errors?5?$CFd?5Carriers?5?$CFd?5RLen?5?$CFd@ DB 'RS'
	DB	' Errors %d Carriers %d RLen %d Qual %d - adjusting Qual', 00H ; `string'
CONST	ENDS
;	COMDAT ??_C@_0EB@KDLDFJG@?$FLDecodeFrame?$FN?5Frame?3?5?$CFs?5Decode?5F@
CONST	SEGMENT
??_C@_0EB@KDLDFJG@?$FLDecodeFrame?$FN?5Frame?3?5?$CFs?5Decode?5F@ DB '[De'
	DB	'codeFrame] Frame: %s Decode FAIL,   Constellation Quality= %d'
	DB	00H						; `string'
CONST	ENDS
;	COMDAT ??_C@_0EB@IDPOMMIG@?$FLDecodeFrame?$FN?5Frame?3?5?$CFs?5Decode?5P@
CONST	SEGMENT
??_C@_0EB@IDPOMMIG@?$FLDecodeFrame?$FN?5Frame?3?5?$CFs?5Decode?5P@ DB '[D'
	DB	'ecodeFrame] Frame: %s Decode PASS,   Constellation Quality= %'
	DB	'd', 00H					; `string'
CONST	ENDS
;	COMDAT ??_C@_0M@OAPNEBCO@ID?3?$CFs?5?$CFs?5?3?5?$AA@
CONST	SEGMENT
??_C@_0M@OAPNEBCO@ID?3?$CFs?5?$CFs?5?3?5?$AA@ DB 'ID:%s %s : ', 00H ; `string'
CONST	ENDS
;	COMDAT ??_C@_0DB@JMALNDCO@DecodeFrame?5MEMARQ?5Flags?5?$CFd?5?$CFd?5?$CF@
CONST	SEGMENT
??_C@_0DB@JMALNDCO@DecodeFrame?5MEMARQ?5Flags?5?$CFd?5?$CFd?5?$CF@ DB 'De'
	DB	'codeFrame MEMARQ Flags %d %d %d %d %d %d %d %d', 00H ; `string'
; Function compile flags: /Odtp /RTCsu /ZI
CONST	ENDS
;	COMDAT _DecodeFrame
_TEXT	SEGMENT
tv161 = -328						; size = 4
_intRcvdQuality$ = -128					; size = 4
_intTiming$ = -116					; size = 4
_strGridSQ$ = -92					; size = 10
_strIDCallSign$ = -72					; size = 10
_strTargetCallsign$ = -52				; size = 10
_strCallerCallsign$ = -32				; size = 10
_blnDecodeOK$ = -12					; size = 4
__$ArrayPad$ = -4					; size = 4
_intFrameType$ = 8					; size = 4
_bytData$ = 12						; size = 4
_DecodeFrame PROC					; COMDAT

; 3426 : {

  00000	55		 push	 ebp
  00001	8b ec		 mov	 ebp, esp
  00003	81 ec 48 01 00
	00		 sub	 esp, 328		; 00000148H
  00009	53		 push	 ebx
  0000a	56		 push	 esi
  0000b	57		 push	 edi
  0000c	8d bd b8 fe ff
	ff		 lea	 edi, DWORD PTR [ebp-328]
  00012	b9 52 00 00 00	 mov	 ecx, 82			; 00000052H
  00017	b8 cc cc cc cc	 mov	 eax, -858993460		; ccccccccH
  0001c	f3 ab		 rep stosd
  0001e	a1 00 00 00 00	 mov	 eax, DWORD PTR ___security_cookie
  00023	33 c5		 xor	 eax, ebp
  00025	89 45 fc	 mov	 DWORD PTR __$ArrayPad$[ebp], eax

; 3427 : 	BOOL blnDecodeOK = FALSE;

  00028	c7 45 f4 00 00
	00 00		 mov	 DWORD PTR _blnDecodeOK$[ebp], 0

; 3428 :  //       Dim stcStatus As Status = Nothing
; 3429 : 	char strCallerCallsign[10] = "";

  0002f	a0 00 00 00 00	 mov	 al, BYTE PTR ??_C@_00CNPNBAHC@?$AA@
  00034	88 45 e0	 mov	 BYTE PTR _strCallerCallsign$[ebp], al
  00037	33 c0		 xor	 eax, eax
  00039	89 45 e1	 mov	 DWORD PTR _strCallerCallsign$[ebp+1], eax
  0003c	89 45 e5	 mov	 DWORD PTR _strCallerCallsign$[ebp+5], eax
  0003f	88 45 e9	 mov	 BYTE PTR _strCallerCallsign$[ebp+9], al

; 3430 : 	char strTargetCallsign[10] = "";

  00042	a0 00 00 00 00	 mov	 al, BYTE PTR ??_C@_00CNPNBAHC@?$AA@
  00047	88 45 cc	 mov	 BYTE PTR _strTargetCallsign$[ebp], al
  0004a	33 c0		 xor	 eax, eax
  0004c	89 45 cd	 mov	 DWORD PTR _strTargetCallsign$[ebp+1], eax
  0004f	89 45 d1	 mov	 DWORD PTR _strTargetCallsign$[ebp+5], eax
  00052	88 45 d5	 mov	 BYTE PTR _strTargetCallsign$[ebp+9], al

; 3431 : 	char strIDCallSign[10] = "";

  00055	a0 00 00 00 00	 mov	 al, BYTE PTR ??_C@_00CNPNBAHC@?$AA@
  0005a	88 45 b8	 mov	 BYTE PTR _strIDCallSign$[ebp], al
  0005d	33 c0		 xor	 eax, eax
  0005f	89 45 b9	 mov	 DWORD PTR _strIDCallSign$[ebp+1], eax
  00062	89 45 bd	 mov	 DWORD PTR _strIDCallSign$[ebp+5], eax
  00065	88 45 c1	 mov	 BYTE PTR _strIDCallSign$[ebp+9], al

; 3432 : 	char strGridSQ[10] = "";

  00068	a0 00 00 00 00	 mov	 al, BYTE PTR ??_C@_00CNPNBAHC@?$AA@
  0006d	88 45 a4	 mov	 BYTE PTR _strGridSQ$[ebp], al
  00070	33 c0		 xor	 eax, eax
  00072	89 45 a5	 mov	 DWORD PTR _strGridSQ$[ebp+1], eax
  00075	89 45 a9	 mov	 DWORD PTR _strGridSQ$[ebp+5], eax
  00078	88 45 ad	 mov	 BYTE PTR _strGridSQ$[ebp+9], al

; 3433 : 	int CarrierLen;
; 3434 : 	int intTiming;
; 3435 : 	int intRcvdQuality;
; 3436 : 
; 3437 : 	strRcvFrameTag[0] = 0;

  0007b	c6 05 00 00 00
	00 00		 mov	 BYTE PTR _strRcvFrameTag, 0

; 3438 : 	//stcStatus.ControlName = "lblRcvFrame"
; 3439 : 
; 3440 : 	//DataACK/NAK and short control frames 
; 3441 : 
; 3442 : 
; 3443 : 	if ((intFrameType >= 0 && intFrameType <= 0x1F) || intFrameType >= 0xE0) // DataACK/NAK

  00082	83 7d 08 00	 cmp	 DWORD PTR _intFrameType$[ebp], 0
  00086	7c 06		 jl	 SHORT $LN23@DecodeFram
  00088	83 7d 08 1f	 cmp	 DWORD PTR _intFrameType$[ebp], 31 ; 0000001fH
  0008c	7e 09		 jle	 SHORT $LN24@DecodeFram
$LN23@DecodeFram:
  0008e	81 7d 08 e0 00
	00 00		 cmp	 DWORD PTR _intFrameType$[ebp], 224 ; 000000e0H
  00095	7c 1a		 jl	 SHORT $LN25@DecodeFram
$LN24@DecodeFram:

; 3444 : 	{
; 3445 : 		blnDecodeOK = DecodeACKNAK(intFrameType, &intRcvdQuality);

  00097	8d 45 80	 lea	 eax, DWORD PTR _intRcvdQuality$[ebp]
  0009a	50		 push	 eax
  0009b	8b 4d 08	 mov	 ecx, DWORD PTR _intFrameType$[ebp]
  0009e	51		 push	 ecx
  0009f	e8 00 00 00 00	 call	 _DecodeACKNAK
  000a4	83 c4 08	 add	 esp, 8
  000a7	89 45 f4	 mov	 DWORD PTR _blnDecodeOK$[ebp], eax
  000aa	e9 af 06 00 00	 jmp	 $returnframe$6793

; 3446 :         //stcStatus.Text = objFrameInfo.Name(intFrameType) & strRcvFrameTag
; 3447 : 
; 3448 : 		goto returnframe;

  000af	eb 1c		 jmp	 SHORT $LN22@DecodeFram
$LN25@DecodeFram:

; 3449 : 	}
; 3450 : 	else if (IsShortControlFrame(intFrameType)) // Short Control Frames

  000b1	8a 45 08	 mov	 al, BYTE PTR _intFrameType$[ebp]
  000b4	50		 push	 eax
  000b5	e8 00 00 00 00	 call	 _IsShortControlFrame
  000ba	83 c4 04	 add	 esp, 4
  000bd	85 c0		 test	 eax, eax
  000bf	74 0c		 je	 SHORT $LN22@DecodeFram

; 3451 : 	{
; 3452 : 		blnDecodeOK = TRUE;

  000c1	c7 45 f4 01 00
	00 00		 mov	 DWORD PTR _blnDecodeOK$[ebp], 1

; 3453 :         //    stcStatus.Text = objFrameInfo.Name(intFrameType)
; 3454 : 		goto returnframe;

  000c8	e9 91 06 00 00	 jmp	 $returnframe$6793
$LN22@DecodeFram:

; 3455 : 	}
; 3456 : 
; 3457 : 	totalRSErrors = 0;

  000cd	c7 05 00 00 00
	00 00 00 00 00	 mov	 DWORD PTR _totalRSErrors, 0

; 3458 : 
; 3459 : 	WriteDebugLog("DecodeFrame MEMARQ Flags %d %d %d %d %d %d %d %d",
; 3460 : 		CarrierOk[0], CarrierOk[1], CarrierOk[2], CarrierOk[3],
; 3461 : 		CarrierOk[4], CarrierOk[5], CarrierOk[6], CarrierOk[7]);

  000d7	0f be 05 07 00
	00 00		 movsx	 eax, BYTE PTR _CarrierOk+7
  000de	50		 push	 eax
  000df	0f be 0d 06 00
	00 00		 movsx	 ecx, BYTE PTR _CarrierOk+6
  000e6	51		 push	 ecx
  000e7	0f be 15 05 00
	00 00		 movsx	 edx, BYTE PTR _CarrierOk+5
  000ee	52		 push	 edx
  000ef	0f be 05 04 00
	00 00		 movsx	 eax, BYTE PTR _CarrierOk+4
  000f6	50		 push	 eax
  000f7	0f be 0d 03 00
	00 00		 movsx	 ecx, BYTE PTR _CarrierOk+3
  000fe	51		 push	 ecx
  000ff	0f be 15 02 00
	00 00		 movsx	 edx, BYTE PTR _CarrierOk+2
  00106	52		 push	 edx
  00107	0f be 05 01 00
	00 00		 movsx	 eax, BYTE PTR _CarrierOk+1
  0010e	50		 push	 eax
  0010f	0f be 0d 00 00
	00 00		 movsx	 ecx, BYTE PTR _CarrierOk
  00116	51		 push	 ecx
  00117	68 00 00 00 00	 push	 OFFSET ??_C@_0DB@JMALNDCO@DecodeFrame?5MEMARQ?5Flags?5?$CFd?5?$CFd?5?$CF@
  0011c	e8 00 00 00 00	 call	 _WriteDebugLog
  00121	83 c4 24	 add	 esp, 36			; 00000024H

; 3462 : 
; 3463 : 	switch (intFrameType)

  00124	8b 45 08	 mov	 eax, DWORD PTR _intFrameType$[ebp]
  00127	89 85 b8 fe ff
	ff		 mov	 DWORD PTR tv161[ebp], eax
  0012d	8b 8d b8 fe ff
	ff		 mov	 ecx, DWORD PTR tv161[ebp]
  00133	83 e9 30	 sub	 ecx, 48			; 00000030H
  00136	89 8d b8 fe ff
	ff		 mov	 DWORD PTR tv161[ebp], ecx
  0013c	83 bd b8 fe ff
	ff 4d		 cmp	 DWORD PTR tv161[ebp], 77 ; 0000004dH
  00143	0f 87 6d 05 00
	00		 ja	 $LN19@DecodeFram
  00149	8b 95 b8 fe ff
	ff		 mov	 edx, DWORD PTR tv161[ebp]
  0014f	0f b6 82 00 00
	00 00		 movzx	 eax, BYTE PTR $LN28@DecodeFram[edx]
  00156	ff 24 85 00 00
	00 00		 jmp	 DWORD PTR $LN37@DecodeFram[eax*4]
$LN18@DecodeFram:

; 3464 : 	{
; 3465 : 		case 0x39:
; 3466 : 		case 0x3A:
; 3467 : 		case 0x3B:
; 3468 : 		case 0x3C:		 // Connect ACKs with Timing
; 3469 :  
; 3470 : 			blnDecodeOK = Decode4FSKConACK(intFrameType, &intTiming);

  0015d	8d 45 8c	 lea	 eax, DWORD PTR _intTiming$[ebp]
  00160	50		 push	 eax
  00161	8a 4d 08	 mov	 cl, BYTE PTR _intFrameType$[ebp]
  00164	51		 push	 ecx
  00165	e8 00 00 00 00	 call	 _Decode4FSKConACK
  0016a	83 c4 08	 add	 esp, 8
  0016d	89 45 f4	 mov	 DWORD PTR _blnDecodeOK$[ebp], eax

; 3471 : 
; 3472 : 			if (blnDecodeOK)

  00170	83 7d f4 00	 cmp	 DWORD PTR _blnDecodeOK$[ebp], 0
  00174	74 10		 je	 SHORT $LN17@DecodeFram

; 3473 : 				bytData[0] = intTiming / 10;

  00176	8b 45 8c	 mov	 eax, DWORD PTR _intTiming$[ebp]
  00179	99		 cdq
  0017a	b9 0a 00 00 00	 mov	 ecx, 10			; 0000000aH
  0017f	f7 f9		 idiv	 ecx
  00181	8b 55 0c	 mov	 edx, DWORD PTR _bytData$[ebp]
  00184	88 02		 mov	 BYTE PTR [edx], al
$LN17@DecodeFram:

; 3474 : //                stcStatus.Text = objFrameInfo.Name(intFrameType) & strRcvFrameTag
; 3475 : 
; 3476 : 		break;

  00186	e9 2b 05 00 00	 jmp	 $LN19@DecodeFram
$LN16@DecodeFram:

; 3477 : 		
; 3478 : 		case 0x30:		 // ID Frame
; 3479 : 						
; 3480 : 			blnDecodeOK = Decode4FSKID(0x30, strIDCallSign, strGridSQ);

  0018b	8d 45 a4	 lea	 eax, DWORD PTR _strGridSQ$[ebp]
  0018e	50		 push	 eax
  0018f	8d 4d b8	 lea	 ecx, DWORD PTR _strIDCallSign$[ebp]
  00192	51		 push	 ecx
  00193	6a 30		 push	 48			; 00000030H
  00195	e8 00 00 00 00	 call	 _Decode4FSKID
  0019a	83 c4 0c	 add	 esp, 12			; 0000000cH
  0019d	89 45 f4	 mov	 DWORD PTR _blnDecodeOK$[ebp], eax

; 3481 : 			
; 3482 : 			frameLen = sprintf(bytData, "ID:%s %s : " , strIDCallSign, strGridSQ);

  001a0	8d 45 a4	 lea	 eax, DWORD PTR _strGridSQ$[ebp]
  001a3	50		 push	 eax
  001a4	8d 4d b8	 lea	 ecx, DWORD PTR _strIDCallSign$[ebp]
  001a7	51		 push	 ecx
  001a8	68 00 00 00 00	 push	 OFFSET ??_C@_0M@OAPNEBCO@ID?3?$CFs?5?$CFs?5?3?5?$AA@
  001ad	8b 55 0c	 mov	 edx, DWORD PTR _bytData$[ebp]
  001b0	52		 push	 edx
  001b1	e8 00 00 00 00	 call	 _sprintf
  001b6	83 c4 10	 add	 esp, 16			; 00000010H
  001b9	a3 00 00 00 00	 mov	 DWORD PTR _frameLen, eax

; 3483 : 
; 3484 : 			//stcStatus.Text = objFrameInfo.Name(intFrameType) & strRcvFrameTag
; 3485 : 
; 3486 : 			break;

  001be	e9 f3 04 00 00	 jmp	 $LN19@DecodeFram
$LN15@DecodeFram:

; 3487 : 
; 3488 : 		case 0x31:
; 3489 : 		case 0x32:
; 3490 : 		case 0x33:
; 3491 : 		case 0x34:
; 3492 : 		case 0x35:
; 3493 : 		case 0x36:
; 3494 : 		case 0x37:
; 3495 : 		case 0x38:
; 3496 : 
; 3497 : 			blnDecodeOK = Decode4FSKConReq();

  001c3	e8 00 00 00 00	 call	 _Decode4FSKConReq
  001c8	89 45 f4	 mov	 DWORD PTR _blnDecodeOK$[ebp], eax

; 3498 : 			break;

  001cb	e9 e6 04 00 00	 jmp	 $LN19@DecodeFram
$LN14@DecodeFram:

; 3499 : 
; 3500 : 			
; 3501 : 		//   PSK 1 Carrier Data
; 3502 : 	
; 3503 : 		case 0x40:
; 3504 : 		case 0x41:
; 3505 : 		case 0x42:
; 3506 : 		case 0x43:
; 3507 : 		case 0x44:
; 3508 : 		case 0x45:
; 3509 : 
; 3510 : 		// FSK 1 Carrier Modes
; 3511 : 
; 3512 : 		case 0x46:
; 3513 : 		case 0x47:
; 3514 : 		case 0x48:
; 3515 : 		case 0x49:
; 3516 : 		case 0x4a:
; 3517 : 		case 0x4b:
; 3518 : 		case 0x4c:
; 3519 : 		case 0x4d:
; 3520 : 		case 0x4e:
; 3521 : 		case 0x4f:
; 3522 : 		case 0x58:
; 3523 : 		case 0x59:
; 3524 : 		case 0x5A:
; 3525 : 		case 0x5B:
; 3526 : 
; 3527 : 			frameLen = CorrectRawDataWithRS(bytFrameData1, bytData, intDataLen, intRSLen, intFrameType, 0);

  001d0	6a 00		 push	 0
  001d2	8b 45 08	 mov	 eax, DWORD PTR _intFrameType$[ebp]
  001d5	50		 push	 eax
  001d6	8b 0d 00 00 00
	00		 mov	 ecx, DWORD PTR _intRSLen
  001dc	51		 push	 ecx
  001dd	8b 15 00 00 00
	00		 mov	 edx, DWORD PTR _intDataLen
  001e3	52		 push	 edx
  001e4	8b 45 0c	 mov	 eax, DWORD PTR _bytData$[ebp]
  001e7	50		 push	 eax
  001e8	68 00 00 00 00	 push	 OFFSET _bytFrameData1
  001ed	e8 00 00 00 00	 call	 _CorrectRawDataWithRS
  001f2	83 c4 18	 add	 esp, 24			; 00000018H
  001f5	a3 00 00 00 00	 mov	 DWORD PTR _frameLen, eax

; 3528 : 			blnDecodeOK = CarrierOk[0];

  001fa	0f be 05 00 00
	00 00		 movsx	 eax, BYTE PTR _CarrierOk
  00201	89 45 f4	 mov	 DWORD PTR _blnDecodeOK$[ebp], eax

; 3529 : 
; 3530 : 			// Memory ARQ goes here
; 3531 : 
; 3532 : 			break;

  00204	e9 ad 04 00 00	 jmp	 $LN19@DecodeFram
$LN13@DecodeFram:

; 3533 : 
; 3534 : 		// 16 QAM
; 3535 : 
; 3536 : 		case 0x5C:
; 3537 : 		case 0x5D:
; 3538 : 		
; 3539 : 			frameLen = CorrectRawDataWithRS(bytFrameData1, bytData, intDataLen, intRSLen, intFrameType, 0);

  00209	6a 00		 push	 0
  0020b	8b 45 08	 mov	 eax, DWORD PTR _intFrameType$[ebp]
  0020e	50		 push	 eax
  0020f	8b 0d 00 00 00
	00		 mov	 ecx, DWORD PTR _intRSLen
  00215	51		 push	 ecx
  00216	8b 15 00 00 00
	00		 mov	 edx, DWORD PTR _intDataLen
  0021c	52		 push	 edx
  0021d	8b 45 0c	 mov	 eax, DWORD PTR _bytData$[ebp]
  00220	50		 push	 eax
  00221	68 00 00 00 00	 push	 OFFSET _bytFrameData1
  00226	e8 00 00 00 00	 call	 _CorrectRawDataWithRS
  0022b	83 c4 18	 add	 esp, 24			; 00000018H
  0022e	a3 00 00 00 00	 mov	 DWORD PTR _frameLen, eax

; 3540 : 			blnDecodeOK = CarrierOk[0];

  00233	0f be 05 00 00
	00 00		 movsx	 eax, BYTE PTR _CarrierOk
  0023a	89 45 f4	 mov	 DWORD PTR _blnDecodeOK$[ebp], eax

; 3541 : 			break;

  0023d	e9 74 04 00 00	 jmp	 $LN19@DecodeFram
$LN12@DecodeFram:

; 3542 : 
; 3543 : 
; 3544 : 			// 2 Carrier Data frames
; 3545 : 			
; 3546 : 		case 0x50:
; 3547 : 		case 0x51:
; 3548 : 		case 0x52:
; 3549 : 		case 0x53:
; 3550 : 		case 0x54:
; 3551 : 		case 0x55:
; 3552 : 		case 0x68:
; 3553 : 		case 0x69:
; 3554 : 
; 3555 : 			// 2 Carrier Modes
; 3556 : 			
; 3557 : 			frameLen = CorrectRawDataWithRS(bytFrameData1, bytData, intDataLen, intRSLen, intFrameType, 0);

  00242	6a 00		 push	 0
  00244	8b 45 08	 mov	 eax, DWORD PTR _intFrameType$[ebp]
  00247	50		 push	 eax
  00248	8b 0d 00 00 00
	00		 mov	 ecx, DWORD PTR _intRSLen
  0024e	51		 push	 ecx
  0024f	8b 15 00 00 00
	00		 mov	 edx, DWORD PTR _intDataLen
  00255	52		 push	 edx
  00256	8b 45 0c	 mov	 eax, DWORD PTR _bytData$[ebp]
  00259	50		 push	 eax
  0025a	68 00 00 00 00	 push	 OFFSET _bytFrameData1
  0025f	e8 00 00 00 00	 call	 _CorrectRawDataWithRS
  00264	83 c4 18	 add	 esp, 24			; 00000018H
  00267	a3 00 00 00 00	 mov	 DWORD PTR _frameLen, eax

; 3558 : 			frameLen +=  CorrectRawDataWithRS(bytFrameData2, &bytData[frameLen], intDataLen, intRSLen, intFrameType, 1);

  0026c	6a 01		 push	 1
  0026e	8b 45 08	 mov	 eax, DWORD PTR _intFrameType$[ebp]
  00271	50		 push	 eax
  00272	8b 0d 00 00 00
	00		 mov	 ecx, DWORD PTR _intRSLen
  00278	51		 push	 ecx
  00279	8b 15 00 00 00
	00		 mov	 edx, DWORD PTR _intDataLen
  0027f	52		 push	 edx
  00280	8b 45 0c	 mov	 eax, DWORD PTR _bytData$[ebp]
  00283	03 05 00 00 00
	00		 add	 eax, DWORD PTR _frameLen
  00289	50		 push	 eax
  0028a	68 00 00 00 00	 push	 OFFSET _bytFrameData2
  0028f	e8 00 00 00 00	 call	 _CorrectRawDataWithRS
  00294	83 c4 18	 add	 esp, 24			; 00000018H
  00297	03 05 00 00 00
	00		 add	 eax, DWORD PTR _frameLen
  0029d	a3 00 00 00 00	 mov	 DWORD PTR _frameLen, eax

; 3559 : 
; 3560 : 			if (CarrierOk[0] && CarrierOk[1])

  002a2	0f be 05 00 00
	00 00		 movsx	 eax, BYTE PTR _CarrierOk
  002a9	85 c0		 test	 eax, eax
  002ab	74 12		 je	 SHORT $LN11@DecodeFram
  002ad	0f be 05 01 00
	00 00		 movsx	 eax, BYTE PTR _CarrierOk+1
  002b4	85 c0		 test	 eax, eax
  002b6	74 07		 je	 SHORT $LN11@DecodeFram

; 3561 : 				blnDecodeOK = TRUE;

  002b8	c7 45 f4 01 00
	00 00		 mov	 DWORD PTR _blnDecodeOK$[ebp], 1
$LN11@DecodeFram:

; 3562 : 
; 3563 : 			break;

  002bf	e9 f2 03 00 00	 jmp	 $LN19@DecodeFram
$LN10@DecodeFram:

; 3564 : 
; 3565 : 
; 3566 : 		// 2000 Hz Data frames 8 Carrier
; 3567 : 
; 3568 : 		case 0x70:
; 3569 : 		case 0x71:
; 3570 : 		case 0x72:
; 3571 : 		case 0x73:
; 3572 : 		case 0x74:
; 3573 : 		case 0x75:
; 3574 : 		case 0x76:
; 3575 : 		case 0x77:
; 3576 : 
; 3577 : 			// 8 Carrier Modes
; 3578 :  
; 3579 : 			frameLen = CorrectRawDataWithRS(bytFrameData1, bytData, intDataLen, intRSLen, intFrameType, 0);

  002c4	6a 00		 push	 0
  002c6	8b 45 08	 mov	 eax, DWORD PTR _intFrameType$[ebp]
  002c9	50		 push	 eax
  002ca	8b 0d 00 00 00
	00		 mov	 ecx, DWORD PTR _intRSLen
  002d0	51		 push	 ecx
  002d1	8b 15 00 00 00
	00		 mov	 edx, DWORD PTR _intDataLen
  002d7	52		 push	 edx
  002d8	8b 45 0c	 mov	 eax, DWORD PTR _bytData$[ebp]
  002db	50		 push	 eax
  002dc	68 00 00 00 00	 push	 OFFSET _bytFrameData1
  002e1	e8 00 00 00 00	 call	 _CorrectRawDataWithRS
  002e6	83 c4 18	 add	 esp, 24			; 00000018H
  002e9	a3 00 00 00 00	 mov	 DWORD PTR _frameLen, eax

; 3580 : 			frameLen +=  CorrectRawDataWithRS(bytFrameData2, &bytData[frameLen], intDataLen, intRSLen, intFrameType, 1);

  002ee	6a 01		 push	 1
  002f0	8b 45 08	 mov	 eax, DWORD PTR _intFrameType$[ebp]
  002f3	50		 push	 eax
  002f4	8b 0d 00 00 00
	00		 mov	 ecx, DWORD PTR _intRSLen
  002fa	51		 push	 ecx
  002fb	8b 15 00 00 00
	00		 mov	 edx, DWORD PTR _intDataLen
  00301	52		 push	 edx
  00302	8b 45 0c	 mov	 eax, DWORD PTR _bytData$[ebp]
  00305	03 05 00 00 00
	00		 add	 eax, DWORD PTR _frameLen
  0030b	50		 push	 eax
  0030c	68 00 00 00 00	 push	 OFFSET _bytFrameData2
  00311	e8 00 00 00 00	 call	 _CorrectRawDataWithRS
  00316	83 c4 18	 add	 esp, 24			; 00000018H
  00319	03 05 00 00 00
	00		 add	 eax, DWORD PTR _frameLen
  0031f	a3 00 00 00 00	 mov	 DWORD PTR _frameLen, eax

; 3581 : 			frameLen +=  CorrectRawDataWithRS(bytFrameData3, &bytData[frameLen], intDataLen, intRSLen, intFrameType, 2);

  00324	6a 02		 push	 2
  00326	8b 45 08	 mov	 eax, DWORD PTR _intFrameType$[ebp]
  00329	50		 push	 eax
  0032a	8b 0d 00 00 00
	00		 mov	 ecx, DWORD PTR _intRSLen
  00330	51		 push	 ecx
  00331	8b 15 00 00 00
	00		 mov	 edx, DWORD PTR _intDataLen
  00337	52		 push	 edx
  00338	8b 45 0c	 mov	 eax, DWORD PTR _bytData$[ebp]
  0033b	03 05 00 00 00
	00		 add	 eax, DWORD PTR _frameLen
  00341	50		 push	 eax
  00342	68 00 00 00 00	 push	 OFFSET _bytFrameData3
  00347	e8 00 00 00 00	 call	 _CorrectRawDataWithRS
  0034c	83 c4 18	 add	 esp, 24			; 00000018H
  0034f	03 05 00 00 00
	00		 add	 eax, DWORD PTR _frameLen
  00355	a3 00 00 00 00	 mov	 DWORD PTR _frameLen, eax

; 3582 : 			frameLen +=  CorrectRawDataWithRS(bytFrameData4, &bytData[frameLen], intDataLen, intRSLen, intFrameType, 3);

  0035a	6a 03		 push	 3
  0035c	8b 45 08	 mov	 eax, DWORD PTR _intFrameType$[ebp]
  0035f	50		 push	 eax
  00360	8b 0d 00 00 00
	00		 mov	 ecx, DWORD PTR _intRSLen
  00366	51		 push	 ecx
  00367	8b 15 00 00 00
	00		 mov	 edx, DWORD PTR _intDataLen
  0036d	52		 push	 edx
  0036e	8b 45 0c	 mov	 eax, DWORD PTR _bytData$[ebp]
  00371	03 05 00 00 00
	00		 add	 eax, DWORD PTR _frameLen
  00377	50		 push	 eax
  00378	68 00 00 00 00	 push	 OFFSET _bytFrameData4
  0037d	e8 00 00 00 00	 call	 _CorrectRawDataWithRS
  00382	83 c4 18	 add	 esp, 24			; 00000018H
  00385	03 05 00 00 00
	00		 add	 eax, DWORD PTR _frameLen
  0038b	a3 00 00 00 00	 mov	 DWORD PTR _frameLen, eax

; 3583 : 			frameLen +=  CorrectRawDataWithRS(bytFrameData5, &bytData[frameLen], intDataLen, intRSLen, intFrameType, 4);

  00390	6a 04		 push	 4
  00392	8b 45 08	 mov	 eax, DWORD PTR _intFrameType$[ebp]
  00395	50		 push	 eax
  00396	8b 0d 00 00 00
	00		 mov	 ecx, DWORD PTR _intRSLen
  0039c	51		 push	 ecx
  0039d	8b 15 00 00 00
	00		 mov	 edx, DWORD PTR _intDataLen
  003a3	52		 push	 edx
  003a4	8b 45 0c	 mov	 eax, DWORD PTR _bytData$[ebp]
  003a7	03 05 00 00 00
	00		 add	 eax, DWORD PTR _frameLen
  003ad	50		 push	 eax
  003ae	68 00 00 00 00	 push	 OFFSET _bytFrameData5
  003b3	e8 00 00 00 00	 call	 _CorrectRawDataWithRS
  003b8	83 c4 18	 add	 esp, 24			; 00000018H
  003bb	03 05 00 00 00
	00		 add	 eax, DWORD PTR _frameLen
  003c1	a3 00 00 00 00	 mov	 DWORD PTR _frameLen, eax

; 3584 : 			frameLen +=  CorrectRawDataWithRS(bytFrameData6, &bytData[frameLen], intDataLen, intRSLen, intFrameType, 5);

  003c6	6a 05		 push	 5
  003c8	8b 45 08	 mov	 eax, DWORD PTR _intFrameType$[ebp]
  003cb	50		 push	 eax
  003cc	8b 0d 00 00 00
	00		 mov	 ecx, DWORD PTR _intRSLen
  003d2	51		 push	 ecx
  003d3	8b 15 00 00 00
	00		 mov	 edx, DWORD PTR _intDataLen
  003d9	52		 push	 edx
  003da	8b 45 0c	 mov	 eax, DWORD PTR _bytData$[ebp]
  003dd	03 05 00 00 00
	00		 add	 eax, DWORD PTR _frameLen
  003e3	50		 push	 eax
  003e4	68 00 00 00 00	 push	 OFFSET _bytFrameData6
  003e9	e8 00 00 00 00	 call	 _CorrectRawDataWithRS
  003ee	83 c4 18	 add	 esp, 24			; 00000018H
  003f1	03 05 00 00 00
	00		 add	 eax, DWORD PTR _frameLen
  003f7	a3 00 00 00 00	 mov	 DWORD PTR _frameLen, eax

; 3585 : 			frameLen +=  CorrectRawDataWithRS(bytFrameData7, &bytData[frameLen], intDataLen, intRSLen, intFrameType, 6);

  003fc	6a 06		 push	 6
  003fe	8b 45 08	 mov	 eax, DWORD PTR _intFrameType$[ebp]
  00401	50		 push	 eax
  00402	8b 0d 00 00 00
	00		 mov	 ecx, DWORD PTR _intRSLen
  00408	51		 push	 ecx
  00409	8b 15 00 00 00
	00		 mov	 edx, DWORD PTR _intDataLen
  0040f	52		 push	 edx
  00410	8b 45 0c	 mov	 eax, DWORD PTR _bytData$[ebp]
  00413	03 05 00 00 00
	00		 add	 eax, DWORD PTR _frameLen
  00419	50		 push	 eax
  0041a	68 00 00 00 00	 push	 OFFSET _bytFrameData7
  0041f	e8 00 00 00 00	 call	 _CorrectRawDataWithRS
  00424	83 c4 18	 add	 esp, 24			; 00000018H
  00427	03 05 00 00 00
	00		 add	 eax, DWORD PTR _frameLen
  0042d	a3 00 00 00 00	 mov	 DWORD PTR _frameLen, eax

; 3586 : 			frameLen +=  CorrectRawDataWithRS(bytFrameData8, &bytData[frameLen], intDataLen, intRSLen, intFrameType, 7);

  00432	6a 07		 push	 7
  00434	8b 45 08	 mov	 eax, DWORD PTR _intFrameType$[ebp]
  00437	50		 push	 eax
  00438	8b 0d 00 00 00
	00		 mov	 ecx, DWORD PTR _intRSLen
  0043e	51		 push	 ecx
  0043f	8b 15 00 00 00
	00		 mov	 edx, DWORD PTR _intDataLen
  00445	52		 push	 edx
  00446	8b 45 0c	 mov	 eax, DWORD PTR _bytData$[ebp]
  00449	03 05 00 00 00
	00		 add	 eax, DWORD PTR _frameLen
  0044f	50		 push	 eax
  00450	68 00 00 00 00	 push	 OFFSET _bytFrameData8
  00455	e8 00 00 00 00	 call	 _CorrectRawDataWithRS
  0045a	83 c4 18	 add	 esp, 24			; 00000018H
  0045d	03 05 00 00 00
	00		 add	 eax, DWORD PTR _frameLen
  00463	a3 00 00 00 00	 mov	 DWORD PTR _frameLen, eax

; 3587 : 
; 3588 : 			if (CarrierOk[0] && CarrierOk[1] && CarrierOk[2] && CarrierOk[3] 
; 3589 : 				&& CarrierOk[4] && CarrierOk[6] && CarrierOk[6] && CarrierOk[7])

  00468	0f be 05 00 00
	00 00		 movsx	 eax, BYTE PTR _CarrierOk
  0046f	85 c0		 test	 eax, eax
  00471	74 54		 je	 SHORT $LN9@DecodeFram
  00473	0f be 05 01 00
	00 00		 movsx	 eax, BYTE PTR _CarrierOk+1
  0047a	85 c0		 test	 eax, eax
  0047c	74 49		 je	 SHORT $LN9@DecodeFram
  0047e	0f be 05 02 00
	00 00		 movsx	 eax, BYTE PTR _CarrierOk+2
  00485	85 c0		 test	 eax, eax
  00487	74 3e		 je	 SHORT $LN9@DecodeFram
  00489	0f be 05 03 00
	00 00		 movsx	 eax, BYTE PTR _CarrierOk+3
  00490	85 c0		 test	 eax, eax
  00492	74 33		 je	 SHORT $LN9@DecodeFram
  00494	0f be 05 04 00
	00 00		 movsx	 eax, BYTE PTR _CarrierOk+4
  0049b	85 c0		 test	 eax, eax
  0049d	74 28		 je	 SHORT $LN9@DecodeFram
  0049f	0f be 05 06 00
	00 00		 movsx	 eax, BYTE PTR _CarrierOk+6
  004a6	85 c0		 test	 eax, eax
  004a8	74 1d		 je	 SHORT $LN9@DecodeFram
  004aa	0f be 05 06 00
	00 00		 movsx	 eax, BYTE PTR _CarrierOk+6
  004b1	85 c0		 test	 eax, eax
  004b3	74 12		 je	 SHORT $LN9@DecodeFram
  004b5	0f be 05 07 00
	00 00		 movsx	 eax, BYTE PTR _CarrierOk+7
  004bc	85 c0		 test	 eax, eax
  004be	74 07		 je	 SHORT $LN9@DecodeFram

; 3590 : 				blnDecodeOK = TRUE;

  004c0	c7 45 f4 01 00
	00 00		 mov	 DWORD PTR _blnDecodeOK$[ebp], 1
$LN9@DecodeFram:

; 3591 : 
; 3592 : 			break;

  004c7	e9 ea 01 00 00	 jmp	 $LN19@DecodeFram
$LN8@DecodeFram:

; 3593 : 	
; 3594 : 		case 0x78:
; 3595 : 		case 0x79:
; 3596 : 
; 3597 : 			// 4 Carrier FSK Modes
; 3598 : 
; 3599 : 		case 0x60:
; 3600 : 		case 0x61:
; 3601 : 		case 0x62:
; 3602 : 		case 0x63:
; 3603 : 		case 0x64:
; 3604 : 		case 0x65:
; 3605 : 		case 0x66:
; 3606 : 		case 0x67:
; 3607 : 
; 3608 : 			//	4 carrrier PSK 1000 Hz  Data frames
; 3609 :  
; 3610 :  
; 3611 : 			frameLen = CorrectRawDataWithRS(bytFrameData1, bytData, intDataLen, intRSLen, intFrameType, 0);

  004cc	6a 00		 push	 0
  004ce	8b 45 08	 mov	 eax, DWORD PTR _intFrameType$[ebp]
  004d1	50		 push	 eax
  004d2	8b 0d 00 00 00
	00		 mov	 ecx, DWORD PTR _intRSLen
  004d8	51		 push	 ecx
  004d9	8b 15 00 00 00
	00		 mov	 edx, DWORD PTR _intDataLen
  004df	52		 push	 edx
  004e0	8b 45 0c	 mov	 eax, DWORD PTR _bytData$[ebp]
  004e3	50		 push	 eax
  004e4	68 00 00 00 00	 push	 OFFSET _bytFrameData1
  004e9	e8 00 00 00 00	 call	 _CorrectRawDataWithRS
  004ee	83 c4 18	 add	 esp, 24			; 00000018H
  004f1	a3 00 00 00 00	 mov	 DWORD PTR _frameLen, eax

; 3612 : 			frameLen +=  CorrectRawDataWithRS(bytFrameData2, &bytData[frameLen], intDataLen, intRSLen, intFrameType, 1);

  004f6	6a 01		 push	 1
  004f8	8b 45 08	 mov	 eax, DWORD PTR _intFrameType$[ebp]
  004fb	50		 push	 eax
  004fc	8b 0d 00 00 00
	00		 mov	 ecx, DWORD PTR _intRSLen
  00502	51		 push	 ecx
  00503	8b 15 00 00 00
	00		 mov	 edx, DWORD PTR _intDataLen
  00509	52		 push	 edx
  0050a	8b 45 0c	 mov	 eax, DWORD PTR _bytData$[ebp]
  0050d	03 05 00 00 00
	00		 add	 eax, DWORD PTR _frameLen
  00513	50		 push	 eax
  00514	68 00 00 00 00	 push	 OFFSET _bytFrameData2
  00519	e8 00 00 00 00	 call	 _CorrectRawDataWithRS
  0051e	83 c4 18	 add	 esp, 24			; 00000018H
  00521	03 05 00 00 00
	00		 add	 eax, DWORD PTR _frameLen
  00527	a3 00 00 00 00	 mov	 DWORD PTR _frameLen, eax

; 3613 : 			frameLen +=  CorrectRawDataWithRS(bytFrameData3, &bytData[frameLen], intDataLen, intRSLen, intFrameType, 2);

  0052c	6a 02		 push	 2
  0052e	8b 45 08	 mov	 eax, DWORD PTR _intFrameType$[ebp]
  00531	50		 push	 eax
  00532	8b 0d 00 00 00
	00		 mov	 ecx, DWORD PTR _intRSLen
  00538	51		 push	 ecx
  00539	8b 15 00 00 00
	00		 mov	 edx, DWORD PTR _intDataLen
  0053f	52		 push	 edx
  00540	8b 45 0c	 mov	 eax, DWORD PTR _bytData$[ebp]
  00543	03 05 00 00 00
	00		 add	 eax, DWORD PTR _frameLen
  00549	50		 push	 eax
  0054a	68 00 00 00 00	 push	 OFFSET _bytFrameData3
  0054f	e8 00 00 00 00	 call	 _CorrectRawDataWithRS
  00554	83 c4 18	 add	 esp, 24			; 00000018H
  00557	03 05 00 00 00
	00		 add	 eax, DWORD PTR _frameLen
  0055d	a3 00 00 00 00	 mov	 DWORD PTR _frameLen, eax

; 3614 : 			frameLen +=  CorrectRawDataWithRS(bytFrameData4, &bytData[frameLen], intDataLen, intRSLen, intFrameType, 3);

  00562	6a 03		 push	 3
  00564	8b 45 08	 mov	 eax, DWORD PTR _intFrameType$[ebp]
  00567	50		 push	 eax
  00568	8b 0d 00 00 00
	00		 mov	 ecx, DWORD PTR _intRSLen
  0056e	51		 push	 ecx
  0056f	8b 15 00 00 00
	00		 mov	 edx, DWORD PTR _intDataLen
  00575	52		 push	 edx
  00576	8b 45 0c	 mov	 eax, DWORD PTR _bytData$[ebp]
  00579	03 05 00 00 00
	00		 add	 eax, DWORD PTR _frameLen
  0057f	50		 push	 eax
  00580	68 00 00 00 00	 push	 OFFSET _bytFrameData4
  00585	e8 00 00 00 00	 call	 _CorrectRawDataWithRS
  0058a	83 c4 18	 add	 esp, 24			; 00000018H
  0058d	03 05 00 00 00
	00		 add	 eax, DWORD PTR _frameLen
  00593	a3 00 00 00 00	 mov	 DWORD PTR _frameLen, eax

; 3615 : 
; 3616 : 			if (CarrierOk[0] && CarrierOk[1] && CarrierOk[2] && CarrierOk[3]) 

  00598	0f be 05 00 00
	00 00		 movsx	 eax, BYTE PTR _CarrierOk
  0059f	85 c0		 test	 eax, eax
  005a1	74 28		 je	 SHORT $LN7@DecodeFram
  005a3	0f be 05 01 00
	00 00		 movsx	 eax, BYTE PTR _CarrierOk+1
  005aa	85 c0		 test	 eax, eax
  005ac	74 1d		 je	 SHORT $LN7@DecodeFram
  005ae	0f be 05 02 00
	00 00		 movsx	 eax, BYTE PTR _CarrierOk+2
  005b5	85 c0		 test	 eax, eax
  005b7	74 12		 je	 SHORT $LN7@DecodeFram
  005b9	0f be 05 03 00
	00 00		 movsx	 eax, BYTE PTR _CarrierOk+3
  005c0	85 c0		 test	 eax, eax
  005c2	74 07		 je	 SHORT $LN7@DecodeFram

; 3617 : 				blnDecodeOK = TRUE;

  005c4	c7 45 f4 01 00
	00 00		 mov	 DWORD PTR _blnDecodeOK$[ebp], 1
$LN7@DecodeFram:

; 3618 : 
; 3619 : 			break;

  005cb	e9 e6 00 00 00	 jmp	 $LN19@DecodeFram
$LN6@DecodeFram:

; 3620 : 		
; 3621 : 		case 0x7A:
; 3622 : 		case 0x7B:
; 3623 : 		case 0x7C:
; 3624 : 		case 0x7D:
; 3625 : 
; 3626 : 			// 600 Baud Data. Frame has 3 * 200 RS Blocks
; 3627 : 
; 3628 : 			intDataLen = 200;

  005d0	c7 05 00 00 00
	00 c8 00 00 00	 mov	 DWORD PTR _intDataLen, 200 ; 000000c8H

; 3629 : 			intRSLen = 50;

  005da	c7 05 00 00 00
	00 32 00 00 00	 mov	 DWORD PTR _intRSLen, 50	; 00000032H

; 3630 : 
; 3631 : 			frameLen = CorrectRawDataWithRS(bytFrameData1, bytData, intDataLen, intRSLen, intFrameType, 0);

  005e4	6a 00		 push	 0
  005e6	8b 45 08	 mov	 eax, DWORD PTR _intFrameType$[ebp]
  005e9	50		 push	 eax
  005ea	8b 0d 00 00 00
	00		 mov	 ecx, DWORD PTR _intRSLen
  005f0	51		 push	 ecx
  005f1	8b 15 00 00 00
	00		 mov	 edx, DWORD PTR _intDataLen
  005f7	52		 push	 edx
  005f8	8b 45 0c	 mov	 eax, DWORD PTR _bytData$[ebp]
  005fb	50		 push	 eax
  005fc	68 00 00 00 00	 push	 OFFSET _bytFrameData1
  00601	e8 00 00 00 00	 call	 _CorrectRawDataWithRS
  00606	83 c4 18	 add	 esp, 24			; 00000018H
  00609	a3 00 00 00 00	 mov	 DWORD PTR _frameLen, eax

; 3632 : 			frameLen +=  CorrectRawDataWithRS(bytFrameData2, &bytData[frameLen], intDataLen, intRSLen, intFrameType, 1);

  0060e	6a 01		 push	 1
  00610	8b 45 08	 mov	 eax, DWORD PTR _intFrameType$[ebp]
  00613	50		 push	 eax
  00614	8b 0d 00 00 00
	00		 mov	 ecx, DWORD PTR _intRSLen
  0061a	51		 push	 ecx
  0061b	8b 15 00 00 00
	00		 mov	 edx, DWORD PTR _intDataLen
  00621	52		 push	 edx
  00622	8b 45 0c	 mov	 eax, DWORD PTR _bytData$[ebp]
  00625	03 05 00 00 00
	00		 add	 eax, DWORD PTR _frameLen
  0062b	50		 push	 eax
  0062c	68 00 00 00 00	 push	 OFFSET _bytFrameData2
  00631	e8 00 00 00 00	 call	 _CorrectRawDataWithRS
  00636	83 c4 18	 add	 esp, 24			; 00000018H
  00639	03 05 00 00 00
	00		 add	 eax, DWORD PTR _frameLen
  0063f	a3 00 00 00 00	 mov	 DWORD PTR _frameLen, eax

; 3633 : 			frameLen +=  CorrectRawDataWithRS(bytFrameData3, &bytData[frameLen], intDataLen, intRSLen, intFrameType, 2);

  00644	6a 02		 push	 2
  00646	8b 45 08	 mov	 eax, DWORD PTR _intFrameType$[ebp]
  00649	50		 push	 eax
  0064a	8b 0d 00 00 00
	00		 mov	 ecx, DWORD PTR _intRSLen
  00650	51		 push	 ecx
  00651	8b 15 00 00 00
	00		 mov	 edx, DWORD PTR _intDataLen
  00657	52		 push	 edx
  00658	8b 45 0c	 mov	 eax, DWORD PTR _bytData$[ebp]
  0065b	03 05 00 00 00
	00		 add	 eax, DWORD PTR _frameLen
  00661	50		 push	 eax
  00662	68 00 00 00 00	 push	 OFFSET _bytFrameData3
  00667	e8 00 00 00 00	 call	 _CorrectRawDataWithRS
  0066c	83 c4 18	 add	 esp, 24			; 00000018H
  0066f	03 05 00 00 00
	00		 add	 eax, DWORD PTR _frameLen
  00675	a3 00 00 00 00	 mov	 DWORD PTR _frameLen, eax

; 3634 : 
; 3635 : 			intDataLen = 600;

  0067a	c7 05 00 00 00
	00 58 02 00 00	 mov	 DWORD PTR _intDataLen, 600 ; 00000258H

; 3636 : 			intRSLen = 150;

  00684	c7 05 00 00 00
	00 96 00 00 00	 mov	 DWORD PTR _intRSLen, 150 ; 00000096H

; 3637 : 
; 3638 : 			if (CarrierOk[0] && CarrierOk[1] && CarrierOk[2]) 

  0068e	0f be 05 00 00
	00 00		 movsx	 eax, BYTE PTR _CarrierOk
  00695	85 c0		 test	 eax, eax
  00697	74 1d		 je	 SHORT $LN19@DecodeFram
  00699	0f be 05 01 00
	00 00		 movsx	 eax, BYTE PTR _CarrierOk+1
  006a0	85 c0		 test	 eax, eax
  006a2	74 12		 je	 SHORT $LN19@DecodeFram
  006a4	0f be 05 02 00
	00 00		 movsx	 eax, BYTE PTR _CarrierOk+2
  006ab	85 c0		 test	 eax, eax
  006ad	74 07		 je	 SHORT $LN19@DecodeFram

; 3639 : 				blnDecodeOK = TRUE;

  006af	c7 45 f4 01 00
	00 00		 mov	 DWORD PTR _blnDecodeOK$[ebp], 1
$LN19@DecodeFram:

; 3640 : 
; 3641 : 			break;
; 3642 : 
; 3643 : //                ' Experimental Sounding frame
; 3644 : //            Case 0xD0
; 3645 : //                DemodSounder(intMFSReadPtr, intFilteredMixedSamples)
; 3646 : //                blnDecodeOK = TRUE
; 3647 : 
; 3648 : 	}
; 3649 : 
; 3650 : 	if (blnDecodeOK)

  006b6	83 7d f4 00	 cmp	 DWORD PTR _blnDecodeOK$[ebp], 0
  006ba	74 22		 je	 SHORT $LN4@DecodeFram

; 3651 : 		WriteDebugLog("[DecodeFrame] Frame: %s Decode PASS,   Constellation Quality= %d", Name(intFrameType),  intLastRcvdFrameQuality);

  006bc	a1 00 00 00 00	 mov	 eax, DWORD PTR _intLastRcvdFrameQuality
  006c1	50		 push	 eax
  006c2	8a 4d 08	 mov	 cl, BYTE PTR _intFrameType$[ebp]
  006c5	51		 push	 ecx
  006c6	e8 00 00 00 00	 call	 _Name
  006cb	83 c4 04	 add	 esp, 4
  006ce	50		 push	 eax
  006cf	68 00 00 00 00	 push	 OFFSET ??_C@_0EB@IDPOMMIG@?$FLDecodeFrame?$FN?5Frame?3?5?$CFs?5Decode?5P@
  006d4	e8 00 00 00 00	 call	 _WriteDebugLog
  006d9	83 c4 0c	 add	 esp, 12			; 0000000cH

; 3652 : 	else

  006dc	eb 20		 jmp	 SHORT $LN3@DecodeFram
$LN4@DecodeFram:

; 3653 : 		WriteDebugLog("[DecodeFrame] Frame: %s Decode FAIL,   Constellation Quality= %d", Name(intFrameType),  intLastRcvdFrameQuality);

  006de	a1 00 00 00 00	 mov	 eax, DWORD PTR _intLastRcvdFrameQuality
  006e3	50		 push	 eax
  006e4	8a 4d 08	 mov	 cl, BYTE PTR _intFrameType$[ebp]
  006e7	51		 push	 ecx
  006e8	e8 00 00 00 00	 call	 _Name
  006ed	83 c4 04	 add	 esp, 4
  006f0	50		 push	 eax
  006f1	68 00 00 00 00	 push	 OFFSET ??_C@_0EB@KDLDFJG@?$FLDecodeFrame?$FN?5Frame?3?5?$CFs?5Decode?5F@
  006f6	e8 00 00 00 00	 call	 _WriteDebugLog
  006fb	83 c4 0c	 add	 esp, 12			; 0000000cH
$LN3@DecodeFram:

; 3654 : 
; 3655 : 	//	if a data frame with few error and quality very low, adjust
; 3656 : 
; 3657 : 	if (blnDecodeOK && (totalRSErrors / intNumCar) < (intRSLen / 4) && intLastRcvdFrameQuality < 80)

  006fe	83 7d f4 00	 cmp	 DWORD PTR _blnDecodeOK$[ebp], 0
  00702	74 5a		 je	 SHORT $returnframe$6793
  00704	a1 00 00 00 00	 mov	 eax, DWORD PTR _totalRSErrors
  00709	99		 cdq
  0070a	f7 3d 00 00 00
	00		 idiv	 DWORD PTR _intNumCar
  00710	8b c8		 mov	 ecx, eax
  00712	a1 00 00 00 00	 mov	 eax, DWORD PTR _intRSLen
  00717	99		 cdq
  00718	83 e2 03	 and	 edx, 3
  0071b	03 c2		 add	 eax, edx
  0071d	c1 f8 02	 sar	 eax, 2
  00720	3b c8		 cmp	 ecx, eax
  00722	7d 3a		 jge	 SHORT $returnframe$6793
  00724	83 3d 00 00 00
	00 50		 cmp	 DWORD PTR _intLastRcvdFrameQuality, 80 ; 00000050H
  0072b	7d 31		 jge	 SHORT $returnframe$6793

; 3658 : 	{
; 3659 : 		WriteDebugLog("RS Errors %d Carriers %d RLen %d Qual %d - adjusting Qual",
; 3660 : 			totalRSErrors, intNumCar, intRSLen, intLastRcvdFrameQuality);

  0072d	a1 00 00 00 00	 mov	 eax, DWORD PTR _intLastRcvdFrameQuality
  00732	50		 push	 eax
  00733	8b 0d 00 00 00
	00		 mov	 ecx, DWORD PTR _intRSLen
  00739	51		 push	 ecx
  0073a	8b 15 00 00 00
	00		 mov	 edx, DWORD PTR _intNumCar
  00740	52		 push	 edx
  00741	a1 00 00 00 00	 mov	 eax, DWORD PTR _totalRSErrors
  00746	50		 push	 eax
  00747	68 00 00 00 00	 push	 OFFSET ??_C@_0DK@LEPKHBN@RS?5Errors?5?$CFd?5Carriers?5?$CFd?5RLen?5?$CFd@
  0074c	e8 00 00 00 00	 call	 _WriteDebugLog
  00751	83 c4 14	 add	 esp, 20			; 00000014H

; 3661 : 		
; 3662 : 		intLastRcvdFrameQuality = 80;

  00754	c7 05 00 00 00
	00 50 00 00 00	 mov	 DWORD PTR _intLastRcvdFrameQuality, 80 ; 00000050H
$returnframe$6793:

; 3663 : 	}
; 3664 : 
; 3665 : 
; 3666 : returnframe:
; 3667 : 
; 3668 : 	if (blnDecodeOK && intFrameType >= 0x40 && intFrameType <= 0x7F)

  0075e	83 7d f4 00	 cmp	 DWORD PTR _blnDecodeOK$[ebp], 0
  00762	74 14		 je	 SHORT $LN1@DecodeFram
  00764	83 7d 08 40	 cmp	 DWORD PTR _intFrameType$[ebp], 64 ; 00000040H
  00768	7c 0e		 jl	 SHORT $LN1@DecodeFram
  0076a	83 7d 08 7f	 cmp	 DWORD PTR _intFrameType$[ebp], 127 ; 0000007fH
  0076e	7f 08		 jg	 SHORT $LN1@DecodeFram

; 3669 : 		bytLastReceivedDataFrameType = intFrameType;

  00770	8a 45 08	 mov	 al, BYTE PTR _intFrameType$[ebp]
  00773	a2 00 00 00 00	 mov	 BYTE PTR _bytLastReceivedDataFrameType, al
$LN1@DecodeFram:

; 3670 : 	
; 3671 : //	if (blnDecodeOK)
; 3672 : //		stcStatus.BackColor = Color.LightGreen;
; 3673 : //	else
; 3674 : //		stcStatus.BackColor = Color.LightSalmon;
; 3675 :    
; 3676 : //	queTNCStatus.Enqueue(stcStatus);
; 3677 : 
; 3678 : //	if (DebugLog)
; 3679 : //		if (blnDecodeOK)
; 3680 : //			WriteDebugLog("[DecodeFrame] Frame: %s Decode PASS, Constellation Quality= %d", Name(intFrameType), intLastRcvdFrameQuality);
; 3681 : //		else
; 3682 : //			WriteDebugLog("[DecodeFrame] Frame: %s Decode FAIL, Constellation Quality= %d", Name(intFrameType), intLastRcvdFrameQuality);
; 3683 : 
; 3684 : 	return blnDecodeOK;

  00778	8b 45 f4	 mov	 eax, DWORD PTR _blnDecodeOK$[ebp]

; 3685 : }

  0077b	52		 push	 edx
  0077c	8b cd		 mov	 ecx, ebp
  0077e	50		 push	 eax
  0077f	8d 15 00 00 00
	00		 lea	 edx, DWORD PTR $LN36@DecodeFram
  00785	e8 00 00 00 00	 call	 @_RTC_CheckStackVars@8
  0078a	58		 pop	 eax
  0078b	5a		 pop	 edx
  0078c	5f		 pop	 edi
  0078d	5e		 pop	 esi
  0078e	5b		 pop	 ebx
  0078f	8b 4d fc	 mov	 ecx, DWORD PTR __$ArrayPad$[ebp]
  00792	33 cd		 xor	 ecx, ebp
  00794	e8 00 00 00 00	 call	 @__security_check_cookie@4
  00799	81 c4 48 01 00
	00		 add	 esp, 328		; 00000148H
  0079f	3b ec		 cmp	 ebp, esp
  007a1	e8 00 00 00 00	 call	 __RTC_CheckEsp
  007a6	8b e5		 mov	 esp, ebp
  007a8	5d		 pop	 ebp
  007a9	c3		 ret	 0
  007aa	8b ff		 npad	 2
$LN36@DecodeFram:
  007ac	06 00 00 00	 DD	 6
  007b0	00 00 00 00	 DD	 $LN35@DecodeFram
$LN35@DecodeFram:
  007b4	e0 ff ff ff	 DD	 -32			; ffffffe0H
  007b8	0a 00 00 00	 DD	 10			; 0000000aH
  007bc	00 00 00 00	 DD	 $LN29@DecodeFram
  007c0	cc ff ff ff	 DD	 -52			; ffffffccH
  007c4	0a 00 00 00	 DD	 10			; 0000000aH
  007c8	00 00 00 00	 DD	 $LN30@DecodeFram
  007cc	b8 ff ff ff	 DD	 -72			; ffffffb8H
  007d0	0a 00 00 00	 DD	 10			; 0000000aH
  007d4	00 00 00 00	 DD	 $LN31@DecodeFram
  007d8	a4 ff ff ff	 DD	 -92			; ffffffa4H
  007dc	0a 00 00 00	 DD	 10			; 0000000aH
  007e0	00 00 00 00	 DD	 $LN32@DecodeFram
  007e4	8c ff ff ff	 DD	 -116			; ffffff8cH
  007e8	04 00 00 00	 DD	 4
  007ec	00 00 00 00	 DD	 $LN33@DecodeFram
  007f0	80 ff ff ff	 DD	 -128			; ffffff80H
  007f4	04 00 00 00	 DD	 4
  007f8	00 00 00 00	 DD	 $LN34@DecodeFram
$LN34@DecodeFram:
  007fc	69		 DB	 105			; 00000069H
  007fd	6e		 DB	 110			; 0000006eH
  007fe	74		 DB	 116			; 00000074H
  007ff	52		 DB	 82			; 00000052H
  00800	63		 DB	 99			; 00000063H
  00801	76		 DB	 118			; 00000076H
  00802	64		 DB	 100			; 00000064H
  00803	51		 DB	 81			; 00000051H
  00804	75		 DB	 117			; 00000075H
  00805	61		 DB	 97			; 00000061H
  00806	6c		 DB	 108			; 0000006cH
  00807	69		 DB	 105			; 00000069H
  00808	74		 DB	 116			; 00000074H
  00809	79		 DB	 121			; 00000079H
  0080a	00		 DB	 0
$LN33@DecodeFram:
  0080b	69		 DB	 105			; 00000069H
  0080c	6e		 DB	 110			; 0000006eH
  0080d	74		 DB	 116			; 00000074H
  0080e	54		 DB	 84			; 00000054H
  0080f	69		 DB	 105			; 00000069H
  00810	6d		 DB	 109			; 0000006dH
  00811	69		 DB	 105			; 00000069H
  00812	6e		 DB	 110			; 0000006eH
  00813	67		 DB	 103			; 00000067H
  00814	00		 DB	 0
$LN32@DecodeFram:
  00815	73		 DB	 115			; 00000073H
  00816	74		 DB	 116			; 00000074H
  00817	72		 DB	 114			; 00000072H
  00818	47		 DB	 71			; 00000047H
  00819	72		 DB	 114			; 00000072H
  0081a	69		 DB	 105			; 00000069H
  0081b	64		 DB	 100			; 00000064H
  0081c	53		 DB	 83			; 00000053H
  0081d	51		 DB	 81			; 00000051H
  0081e	00		 DB	 0
$LN31@DecodeFram:
  0081f	73		 DB	 115			; 00000073H
  00820	74		 DB	 116			; 00000074H
  00821	72		 DB	 114			; 00000072H
  00822	49		 DB	 73			; 00000049H
  00823	44		 DB	 68			; 00000044H
  00824	43		 DB	 67			; 00000043H
  00825	61		 DB	 97			; 00000061H
  00826	6c		 DB	 108			; 0000006cH
  00827	6c		 DB	 108			; 0000006cH
  00828	53		 DB	 83			; 00000053H
  00829	69		 DB	 105			; 00000069H
  0082a	67		 DB	 103			; 00000067H
  0082b	6e		 DB	 110			; 0000006eH
  0082c	00		 DB	 0
$LN30@DecodeFram:
  0082d	73		 DB	 115			; 00000073H
  0082e	74		 DB	 116			; 00000074H
  0082f	72		 DB	 114			; 00000072H
  00830	54		 DB	 84			; 00000054H
  00831	61		 DB	 97			; 00000061H
  00832	72		 DB	 114			; 00000072H
  00833	67		 DB	 103			; 00000067H
  00834	65		 DB	 101			; 00000065H
  00835	74		 DB	 116			; 00000074H
  00836	43		 DB	 67			; 00000043H
  00837	61		 DB	 97			; 00000061H
  00838	6c		 DB	 108			; 0000006cH
  00839	6c		 DB	 108			; 0000006cH
  0083a	73		 DB	 115			; 00000073H
  0083b	69		 DB	 105			; 00000069H
  0083c	67		 DB	 103			; 00000067H
  0083d	6e		 DB	 110			; 0000006eH
  0083e	00		 DB	 0
$LN29@DecodeFram:
  0083f	73		 DB	 115			; 00000073H
  00840	74		 DB	 116			; 00000074H
  00841	72		 DB	 114			; 00000072H
  00842	43		 DB	 67			; 00000043H
  00843	61		 DB	 97			; 00000061H
  00844	6c		 DB	 108			; 0000006cH
  00845	6c		 DB	 108			; 0000006cH
  00846	65		 DB	 101			; 00000065H
  00847	72		 DB	 114			; 00000072H
  00848	43		 DB	 67			; 00000043H
  00849	61		 DB	 97			; 00000061H
  0084a	6c		 DB	 108			; 0000006cH
  0084b	6c		 DB	 108			; 0000006cH
  0084c	73		 DB	 115			; 00000073H
  0084d	69		 DB	 105			; 00000069H
  0084e	67		 DB	 103			; 00000067H
  0084f	6e		 DB	 110			; 0000006eH
  00850	00		 DB	 0
  00851	8d 49 00	 npad	 3
$LN37@DecodeFram:
  00854	00 00 00 00	 DD	 $LN16@DecodeFram
  00858	00 00 00 00	 DD	 $LN15@DecodeFram
  0085c	00 00 00 00	 DD	 $LN18@DecodeFram
  00860	00 00 00 00	 DD	 $LN14@DecodeFram
  00864	00 00 00 00	 DD	 $LN12@DecodeFram
  00868	00 00 00 00	 DD	 $LN13@DecodeFram
  0086c	00 00 00 00	 DD	 $LN8@DecodeFram
  00870	00 00 00 00	 DD	 $LN10@DecodeFram
  00874	00 00 00 00	 DD	 $LN6@DecodeFram
  00878	00 00 00 00	 DD	 $LN19@DecodeFram
$LN28@DecodeFram:
  0087c	00		 DB	 0
  0087d	01		 DB	 1
  0087e	01		 DB	 1
  0087f	01		 DB	 1
  00880	01		 DB	 1
  00881	01		 DB	 1
  00882	01		 DB	 1
  00883	01		 DB	 1
  00884	01		 DB	 1
  00885	02		 DB	 2
  00886	02		 DB	 2
  00887	02		 DB	 2
  00888	02		 DB	 2
  00889	09		 DB	 9
  0088a	09		 DB	 9
  0088b	09		 DB	 9
  0088c	03		 DB	 3
  0088d	03		 DB	 3
  0088e	03		 DB	 3
  0088f	03		 DB	 3
  00890	03		 DB	 3
  00891	03		 DB	 3
  00892	03		 DB	 3
  00893	03		 DB	 3
  00894	03		 DB	 3
  00895	03		 DB	 3
  00896	03		 DB	 3
  00897	03		 DB	 3
  00898	03		 DB	 3
  00899	03		 DB	 3
  0089a	03		 DB	 3
  0089b	03		 DB	 3
  0089c	04		 DB	 4
  0089d	04		 DB	 4
  0089e	04		 DB	 4
  0089f	04		 DB	 4
  008a0	04		 DB	 4
  008a1	04		 DB	 4
  008a2	09		 DB	 9
  008a3	09		 DB	 9
  008a4	03		 DB	 3
  008a5	03		 DB	 3
  008a6	03		 DB	 3
  008a7	03		 DB	 3
  008a8	05		 DB	 5
  008a9	05		 DB	 5
  008aa	09		 DB	 9
  008ab	09		 DB	 9
  008ac	06		 DB	 6
  008ad	06		 DB	 6
  008ae	06		 DB	 6
  008af	06		 DB	 6
  008b0	06		 DB	 6
  008b1	06		 DB	 6
  008b2	06		 DB	 6
  008b3	06		 DB	 6
  008b4	04		 DB	 4
  008b5	04		 DB	 4
  008b6	09		 DB	 9
  008b7	09		 DB	 9
  008b8	09		 DB	 9
  008b9	09		 DB	 9
  008ba	09		 DB	 9
  008bb	09		 DB	 9
  008bc	07		 DB	 7
  008bd	07		 DB	 7
  008be	07		 DB	 7
  008bf	07		 DB	 7
  008c0	07		 DB	 7
  008c1	07		 DB	 7
  008c2	07		 DB	 7
  008c3	07		 DB	 7
  008c4	06		 DB	 6
  008c5	06		 DB	 6
  008c6	08		 DB	 8
  008c7	08		 DB	 8
  008c8	08		 DB	 8
  008c9	08		 DB	 8
_DecodeFrame ENDP
_TEXT	ENDS
PUBLIC	__real@4059000000000000
PUBLIC	__real@40059999a0000000
PUBLIC	__real@4045000000000000
PUBLIC	__real@3f490fd8
EXTRN	_int4FSKQuality:DWORD
EXTRN	_int4FSKQualityCnts:DWORD
;	COMDAT __real@4059000000000000
CONST	SEGMENT
__real@4059000000000000 DQ 04059000000000000r	; 100
CONST	ENDS
;	COMDAT __real@40059999a0000000
CONST	SEGMENT
__real@40059999a0000000 DQ 040059999a0000000r	; 2.7
CONST	ENDS
;	COMDAT __real@4045000000000000
CONST	SEGMENT
__real@4045000000000000 DQ 04045000000000000r	; 42
CONST	ENDS
;	COMDAT __real@3f490fd8
CONST	SEGMENT
__real@3f490fd8 DD 03f490fd8r			; 0.785398
; Function compile flags: /Odtp /RTCsu /ZI
CONST	ENDS
;	COMDAT _Update4FSKConstellation
_TEXT	SEGMENT
tv560 = -292						; size = 4
tv524 = -292						; size = 4
tv473 = -292						; size = 4
tv422 = -292						; size = 4
tv314 = -288						; size = 8
tv278 = -288						; size = 8
tv222 = -288						; size = 8
tv166 = -288						; size = 8
tv578 = -280						; size = 4
tv569 = -280						; size = 4
tv542 = -280						; size = 4
tv506 = -280						; size = 4
tv455 = -280						; size = 4
tv404 = -280						; size = 4
_i$ = -80						; size = 4
_intRad$ = -68						; size = 4
_dblDistanceSum$ = -56					; size = 4
_dblPi4$ = -44						; size = 4
_intMagMax$ = -32					; size = 4
_intToneSum$ = -20					; size = 4
_dblRad$ = -8						; size = 4
_intToneMags$ = 8					; size = 4
_intQuality$ = 12					; size = 4
_Update4FSKConstellation PROC				; COMDAT

; 3690 : {

  00000	55		 push	 ebp
  00001	8b ec		 mov	 ebp, esp
  00003	81 ec 24 01 00
	00		 sub	 esp, 292		; 00000124H
  00009	53		 push	 ebx
  0000a	56		 push	 esi
  0000b	57		 push	 edi
  0000c	8d bd dc fe ff
	ff		 lea	 edi, DWORD PTR [ebp-292]
  00012	b9 49 00 00 00	 mov	 ecx, 73			; 00000049H
  00017	b8 cc cc cc cc	 mov	 eax, -858993460		; ccccccccH
  0001c	f3 ab		 rep stosd

; 3691 : 	// Subroutine to update bmpConstellation plot for 4FSK modes...
; 3692 :         
; 3693 : 	float dblRad = 0;

  0001e	d9 ee		 fldz
  00020	d9 5d f8	 fstp	 DWORD PTR _dblRad$[ebp]

; 3694 : 	int  intToneSum = 0;

  00023	c7 45 ec 00 00
	00 00		 mov	 DWORD PTR _intToneSum$[ebp], 0

; 3695 : 	float intMagMax = 0;

  0002a	d9 ee		 fldz
  0002c	d9 5d e0	 fstp	 DWORD PTR _intMagMax$[ebp]

; 3696 : 	float dblPi4  = 0.25 * M_PI;

  0002f	d9 05 00 00 00
	00		 fld	 DWORD PTR __real@3f490fd8
  00035	d9 5d d4	 fstp	 DWORD PTR _dblPi4$[ebp]

; 3697 : 	float dblDistanceSum = 0;

  00038	d9 ee		 fldz
  0003a	d9 5d c8	 fstp	 DWORD PTR _dblDistanceSum$[ebp]

; 3698 : 	//float dblPlotRotation;
; 3699 : 	// Dim stcStatus As Status
; 3700 : 
; 3701 : 	//int yCenter, xCenter;
; 3702 : 	int intRad = 0;

  0003d	c7 45 bc 00 00
	00 00		 mov	 DWORD PTR _intRad$[ebp], 0

; 3703 : 	// Dim clrPixel As System.Drawing.Color
; 3704 : 	// bmpConstellation = New Bitmap(89, 89)
; 3705 : 	int i;
; 3706 : 
; 3707 : 	for (i = 0; i < intToneMagsLength; i += 4)  // for the number of symbols represented by intToneMags

  00044	c7 45 b0 00 00
	00 00		 mov	 DWORD PTR _i$[ebp], 0
  0004b	eb 09		 jmp	 SHORT $LN15@Update4FSK
$LN14@Update4FSK:
  0004d	8b 45 b0	 mov	 eax, DWORD PTR _i$[ebp]
  00050	83 c0 04	 add	 eax, 4
  00053	89 45 b0	 mov	 DWORD PTR _i$[ebp], eax
$LN15@Update4FSK:
  00056	8b 45 b0	 mov	 eax, DWORD PTR _i$[ebp]
  00059	3b 05 00 00 00
	00		 cmp	 eax, DWORD PTR _intToneMagsLength
  0005f	0f 8d d3 03 00
	00		 jge	 $LN13@Update4FSK

; 3708 : 	{
; 3709 : 		intToneSum = intToneMags[i] + intToneMags[i + 1] + intToneMags[i + 2] + intToneMags[i + 3];

  00065	8b 45 b0	 mov	 eax, DWORD PTR _i$[ebp]
  00068	8b 4d 08	 mov	 ecx, DWORD PTR _intToneMags$[ebp]
  0006b	8b 14 81	 mov	 edx, DWORD PTR [ecx+eax*4]
  0006e	8b 45 b0	 mov	 eax, DWORD PTR _i$[ebp]
  00071	8b 4d 08	 mov	 ecx, DWORD PTR _intToneMags$[ebp]
  00074	03 54 81 04	 add	 edx, DWORD PTR [ecx+eax*4+4]
  00078	8b 45 b0	 mov	 eax, DWORD PTR _i$[ebp]
  0007b	8b 4d 08	 mov	 ecx, DWORD PTR _intToneMags$[ebp]
  0007e	03 54 81 08	 add	 edx, DWORD PTR [ecx+eax*4+8]
  00082	8b 45 b0	 mov	 eax, DWORD PTR _i$[ebp]
  00085	8b 4d 08	 mov	 ecx, DWORD PTR _intToneMags$[ebp]
  00088	03 54 81 0c	 add	 edx, DWORD PTR [ecx+eax*4+12]
  0008c	89 55 ec	 mov	 DWORD PTR _intToneSum$[ebp], edx

; 3710 :         
; 3711 : 		if (intToneMags[i] > intToneMags[i + 1] && intToneMags[i] > intToneMags[i + 2] && intToneMags[i] > intToneMags[i + 3])

  0008f	8b 45 b0	 mov	 eax, DWORD PTR _i$[ebp]
  00092	8b 4d 08	 mov	 ecx, DWORD PTR _intToneMags$[ebp]
  00095	8b 55 b0	 mov	 edx, DWORD PTR _i$[ebp]
  00098	8b 75 08	 mov	 esi, DWORD PTR _intToneMags$[ebp]
  0009b	8b 04 81	 mov	 eax, DWORD PTR [ecx+eax*4]
  0009e	3b 44 96 04	 cmp	 eax, DWORD PTR [esi+edx*4+4]
  000a2	0f 8e de 00 00
	00		 jle	 $LN12@Update4FSK
  000a8	8b 45 b0	 mov	 eax, DWORD PTR _i$[ebp]
  000ab	8b 4d 08	 mov	 ecx, DWORD PTR _intToneMags$[ebp]
  000ae	8b 55 b0	 mov	 edx, DWORD PTR _i$[ebp]
  000b1	8b 75 08	 mov	 esi, DWORD PTR _intToneMags$[ebp]
  000b4	8b 04 81	 mov	 eax, DWORD PTR [ecx+eax*4]
  000b7	3b 44 96 08	 cmp	 eax, DWORD PTR [esi+edx*4+8]
  000bb	0f 8e c5 00 00
	00		 jle	 $LN12@Update4FSK
  000c1	8b 45 b0	 mov	 eax, DWORD PTR _i$[ebp]
  000c4	8b 4d 08	 mov	 ecx, DWORD PTR _intToneMags$[ebp]
  000c7	8b 55 b0	 mov	 edx, DWORD PTR _i$[ebp]
  000ca	8b 75 08	 mov	 esi, DWORD PTR _intToneMags$[ebp]
  000cd	8b 04 81	 mov	 eax, DWORD PTR [ecx+eax*4]
  000d0	3b 44 96 0c	 cmp	 eax, DWORD PTR [esi+edx*4+12]
  000d4	0f 8e ac 00 00
	00		 jle	 $LN12@Update4FSK

; 3712 : 		{
; 3713 : 			if (intToneSum > 0)

  000da	83 7d ec 00	 cmp	 DWORD PTR _intToneSum$[ebp], 0
  000de	0f 8e 9d 00 00
	00		 jle	 $LN11@Update4FSK

; 3714 : 				intRad = max(5.0f, 42.0f - 80 * (intToneMags[i + 1] + intToneMags[i + 2] + intToneMags[i + 3]) / intToneSum);

  000e4	8b 45 b0	 mov	 eax, DWORD PTR _i$[ebp]
  000e7	8b 4d 08	 mov	 ecx, DWORD PTR _intToneMags$[ebp]
  000ea	8b 44 81 04	 mov	 eax, DWORD PTR [ecx+eax*4+4]
  000ee	8b 55 b0	 mov	 edx, DWORD PTR _i$[ebp]
  000f1	8b 4d 08	 mov	 ecx, DWORD PTR _intToneMags$[ebp]
  000f4	03 44 91 08	 add	 eax, DWORD PTR [ecx+edx*4+8]
  000f8	8b 55 b0	 mov	 edx, DWORD PTR _i$[ebp]
  000fb	8b 4d 08	 mov	 ecx, DWORD PTR _intToneMags$[ebp]
  000fe	03 44 91 0c	 add	 eax, DWORD PTR [ecx+edx*4+12]
  00102	6b c0 50	 imul	 eax, 80			; 00000050H
  00105	99		 cdq
  00106	f7 7d ec	 idiv	 DWORD PTR _intToneSum$[ebp]
  00109	89 85 e8 fe ff
	ff		 mov	 DWORD PTR tv404[ebp], eax
  0010f	db 85 e8 fe ff
	ff		 fild	 DWORD PTR tv404[ebp]
  00115	dc 2d 00 00 00
	00		 fsubr	 QWORD PTR __real@4045000000000000
  0011b	dc 1d 00 00 00
	00		 fcomp	 QWORD PTR __real@4014000000000000
  00121	df e0		 fnstsw	 ax
  00123	f6 c4 05	 test	 ah, 5
  00126	7a 0e		 jp	 SHORT $LN18@Update4FSK
  00128	dd 05 00 00 00
	00		 fld	 QWORD PTR __real@4014000000000000
  0012e	dd 9d e0 fe ff
	ff		 fstp	 QWORD PTR tv166[ebp]
  00134	eb 3d		 jmp	 SHORT $LN19@Update4FSK
$LN18@Update4FSK:
  00136	8b 55 b0	 mov	 edx, DWORD PTR _i$[ebp]
  00139	8b 45 08	 mov	 eax, DWORD PTR _intToneMags$[ebp]
  0013c	8b 44 90 04	 mov	 eax, DWORD PTR [eax+edx*4+4]
  00140	8b 4d b0	 mov	 ecx, DWORD PTR _i$[ebp]
  00143	8b 55 08	 mov	 edx, DWORD PTR _intToneMags$[ebp]
  00146	03 44 8a 08	 add	 eax, DWORD PTR [edx+ecx*4+8]
  0014a	8b 4d b0	 mov	 ecx, DWORD PTR _i$[ebp]
  0014d	8b 55 08	 mov	 edx, DWORD PTR _intToneMags$[ebp]
  00150	03 44 8a 0c	 add	 eax, DWORD PTR [edx+ecx*4+12]
  00154	6b c0 50	 imul	 eax, 80			; 00000050H
  00157	99		 cdq
  00158	f7 7d ec	 idiv	 DWORD PTR _intToneSum$[ebp]
  0015b	89 85 dc fe ff
	ff		 mov	 DWORD PTR tv422[ebp], eax
  00161	db 85 dc fe ff
	ff		 fild	 DWORD PTR tv422[ebp]
  00167	dc 2d 00 00 00
	00		 fsubr	 QWORD PTR __real@4045000000000000
  0016d	dd 9d e0 fe ff
	ff		 fstp	 QWORD PTR tv166[ebp]
$LN19@Update4FSK:
  00173	dd 85 e0 fe ff
	ff		 fld	 QWORD PTR tv166[ebp]
  00179	e8 00 00 00 00	 call	 __ftol2_sse
  0017e	89 45 bc	 mov	 DWORD PTR _intRad$[ebp], eax
$LN11@Update4FSK:

; 3715 : 		}
; 3716 : 		else if (intToneMags[i + 1] > intToneMags[i] && intToneMags[i + 1] > intToneMags[i + 2] && intToneMags[i + 1] > intToneMags[i + 3])

  00181	e9 93 02 00 00	 jmp	 $LN3@Update4FSK
$LN12@Update4FSK:
  00186	8b 45 b0	 mov	 eax, DWORD PTR _i$[ebp]
  00189	8b 4d 08	 mov	 ecx, DWORD PTR _intToneMags$[ebp]
  0018c	8b 55 b0	 mov	 edx, DWORD PTR _i$[ebp]
  0018f	8b 75 08	 mov	 esi, DWORD PTR _intToneMags$[ebp]
  00192	8b 44 81 04	 mov	 eax, DWORD PTR [ecx+eax*4+4]
  00196	3b 04 96	 cmp	 eax, DWORD PTR [esi+edx*4]
  00199	0f 8e de 00 00
	00		 jle	 $LN9@Update4FSK
  0019f	8b 45 b0	 mov	 eax, DWORD PTR _i$[ebp]
  001a2	8b 4d 08	 mov	 ecx, DWORD PTR _intToneMags$[ebp]
  001a5	8b 55 b0	 mov	 edx, DWORD PTR _i$[ebp]
  001a8	8b 75 08	 mov	 esi, DWORD PTR _intToneMags$[ebp]
  001ab	8b 44 81 04	 mov	 eax, DWORD PTR [ecx+eax*4+4]
  001af	3b 44 96 08	 cmp	 eax, DWORD PTR [esi+edx*4+8]
  001b3	0f 8e c4 00 00
	00		 jle	 $LN9@Update4FSK
  001b9	8b 45 b0	 mov	 eax, DWORD PTR _i$[ebp]
  001bc	8b 4d 08	 mov	 ecx, DWORD PTR _intToneMags$[ebp]
  001bf	8b 55 b0	 mov	 edx, DWORD PTR _i$[ebp]
  001c2	8b 75 08	 mov	 esi, DWORD PTR _intToneMags$[ebp]
  001c5	8b 44 81 04	 mov	 eax, DWORD PTR [ecx+eax*4+4]
  001c9	3b 44 96 0c	 cmp	 eax, DWORD PTR [esi+edx*4+12]
  001cd	0f 8e aa 00 00
	00		 jle	 $LN9@Update4FSK

; 3717 : 		{
; 3718 : 			if (intToneSum > 0)

  001d3	83 7d ec 00	 cmp	 DWORD PTR _intToneSum$[ebp], 0
  001d7	0f 8e 9b 00 00
	00		 jle	 $LN8@Update4FSK

; 3719 : 				intRad = max(5.0f, 42.0f - 80 * (intToneMags[i] + intToneMags[i + 2] + intToneMags[i + 3]) / intToneSum);

  001dd	8b 45 b0	 mov	 eax, DWORD PTR _i$[ebp]
  001e0	8b 4d 08	 mov	 ecx, DWORD PTR _intToneMags$[ebp]
  001e3	8b 04 81	 mov	 eax, DWORD PTR [ecx+eax*4]
  001e6	8b 55 b0	 mov	 edx, DWORD PTR _i$[ebp]
  001e9	8b 4d 08	 mov	 ecx, DWORD PTR _intToneMags$[ebp]
  001ec	03 44 91 08	 add	 eax, DWORD PTR [ecx+edx*4+8]
  001f0	8b 55 b0	 mov	 edx, DWORD PTR _i$[ebp]
  001f3	8b 4d 08	 mov	 ecx, DWORD PTR _intToneMags$[ebp]
  001f6	03 44 91 0c	 add	 eax, DWORD PTR [ecx+edx*4+12]
  001fa	6b c0 50	 imul	 eax, 80			; 00000050H
  001fd	99		 cdq
  001fe	f7 7d ec	 idiv	 DWORD PTR _intToneSum$[ebp]
  00201	89 85 e8 fe ff
	ff		 mov	 DWORD PTR tv455[ebp], eax
  00207	db 85 e8 fe ff
	ff		 fild	 DWORD PTR tv455[ebp]
  0020d	dc 2d 00 00 00
	00		 fsubr	 QWORD PTR __real@4045000000000000
  00213	dc 1d 00 00 00
	00		 fcomp	 QWORD PTR __real@4014000000000000
  00219	df e0		 fnstsw	 ax
  0021b	f6 c4 05	 test	 ah, 5
  0021e	7a 0e		 jp	 SHORT $LN20@Update4FSK
  00220	dd 05 00 00 00
	00		 fld	 QWORD PTR __real@4014000000000000
  00226	dd 9d e0 fe ff
	ff		 fstp	 QWORD PTR tv222[ebp]
  0022c	eb 3c		 jmp	 SHORT $LN21@Update4FSK
$LN20@Update4FSK:
  0022e	8b 55 b0	 mov	 edx, DWORD PTR _i$[ebp]
  00231	8b 45 08	 mov	 eax, DWORD PTR _intToneMags$[ebp]
  00234	8b 04 90	 mov	 eax, DWORD PTR [eax+edx*4]
  00237	8b 4d b0	 mov	 ecx, DWORD PTR _i$[ebp]
  0023a	8b 55 08	 mov	 edx, DWORD PTR _intToneMags$[ebp]
  0023d	03 44 8a 08	 add	 eax, DWORD PTR [edx+ecx*4+8]
  00241	8b 4d b0	 mov	 ecx, DWORD PTR _i$[ebp]
  00244	8b 55 08	 mov	 edx, DWORD PTR _intToneMags$[ebp]
  00247	03 44 8a 0c	 add	 eax, DWORD PTR [edx+ecx*4+12]
  0024b	6b c0 50	 imul	 eax, 80			; 00000050H
  0024e	99		 cdq
  0024f	f7 7d ec	 idiv	 DWORD PTR _intToneSum$[ebp]
  00252	89 85 dc fe ff
	ff		 mov	 DWORD PTR tv473[ebp], eax
  00258	db 85 dc fe ff
	ff		 fild	 DWORD PTR tv473[ebp]
  0025e	dc 2d 00 00 00
	00		 fsubr	 QWORD PTR __real@4045000000000000
  00264	dd 9d e0 fe ff
	ff		 fstp	 QWORD PTR tv222[ebp]
$LN21@Update4FSK:
  0026a	dd 85 e0 fe ff
	ff		 fld	 QWORD PTR tv222[ebp]
  00270	e8 00 00 00 00	 call	 __ftol2_sse
  00275	89 45 bc	 mov	 DWORD PTR _intRad$[ebp], eax
$LN8@Update4FSK:

; 3720 : 		}
; 3721 : 		else if (intToneMags[i + 2] > intToneMags[i] && intToneMags[i + 2] > intToneMags[i + 1] && intToneMags[i + 2] > intToneMags[i + 3]) 

  00278	e9 9c 01 00 00	 jmp	 $LN3@Update4FSK
$LN9@Update4FSK:
  0027d	8b 45 b0	 mov	 eax, DWORD PTR _i$[ebp]
  00280	8b 4d 08	 mov	 ecx, DWORD PTR _intToneMags$[ebp]
  00283	8b 55 b0	 mov	 edx, DWORD PTR _i$[ebp]
  00286	8b 75 08	 mov	 esi, DWORD PTR _intToneMags$[ebp]
  00289	8b 44 81 08	 mov	 eax, DWORD PTR [ecx+eax*4+8]
  0028d	3b 04 96	 cmp	 eax, DWORD PTR [esi+edx*4]
  00290	0f 8e de 00 00
	00		 jle	 $LN6@Update4FSK
  00296	8b 45 b0	 mov	 eax, DWORD PTR _i$[ebp]
  00299	8b 4d 08	 mov	 ecx, DWORD PTR _intToneMags$[ebp]
  0029c	8b 55 b0	 mov	 edx, DWORD PTR _i$[ebp]
  0029f	8b 75 08	 mov	 esi, DWORD PTR _intToneMags$[ebp]
  002a2	8b 44 81 08	 mov	 eax, DWORD PTR [ecx+eax*4+8]
  002a6	3b 44 96 04	 cmp	 eax, DWORD PTR [esi+edx*4+4]
  002aa	0f 8e c4 00 00
	00		 jle	 $LN6@Update4FSK
  002b0	8b 45 b0	 mov	 eax, DWORD PTR _i$[ebp]
  002b3	8b 4d 08	 mov	 ecx, DWORD PTR _intToneMags$[ebp]
  002b6	8b 55 b0	 mov	 edx, DWORD PTR _i$[ebp]
  002b9	8b 75 08	 mov	 esi, DWORD PTR _intToneMags$[ebp]
  002bc	8b 44 81 08	 mov	 eax, DWORD PTR [ecx+eax*4+8]
  002c0	3b 44 96 0c	 cmp	 eax, DWORD PTR [esi+edx*4+12]
  002c4	0f 8e aa 00 00
	00		 jle	 $LN6@Update4FSK

; 3722 : 		{
; 3723 :             if (intToneSum > 0)

  002ca	83 7d ec 00	 cmp	 DWORD PTR _intToneSum$[ebp], 0
  002ce	0f 8e 9b 00 00
	00		 jle	 $LN5@Update4FSK

; 3724 : 				intRad = max(5.0f, 42.0f - 80 * (intToneMags[i + 1] + intToneMags[i] + intToneMags[i + 3]) / intToneSum);

  002d4	8b 45 b0	 mov	 eax, DWORD PTR _i$[ebp]
  002d7	8b 4d 08	 mov	 ecx, DWORD PTR _intToneMags$[ebp]
  002da	8b 44 81 04	 mov	 eax, DWORD PTR [ecx+eax*4+4]
  002de	8b 55 b0	 mov	 edx, DWORD PTR _i$[ebp]
  002e1	8b 4d 08	 mov	 ecx, DWORD PTR _intToneMags$[ebp]
  002e4	03 04 91	 add	 eax, DWORD PTR [ecx+edx*4]
  002e7	8b 55 b0	 mov	 edx, DWORD PTR _i$[ebp]
  002ea	8b 4d 08	 mov	 ecx, DWORD PTR _intToneMags$[ebp]
  002ed	03 44 91 0c	 add	 eax, DWORD PTR [ecx+edx*4+12]
  002f1	6b c0 50	 imul	 eax, 80			; 00000050H
  002f4	99		 cdq
  002f5	f7 7d ec	 idiv	 DWORD PTR _intToneSum$[ebp]
  002f8	89 85 e8 fe ff
	ff		 mov	 DWORD PTR tv506[ebp], eax
  002fe	db 85 e8 fe ff
	ff		 fild	 DWORD PTR tv506[ebp]
  00304	dc 2d 00 00 00
	00		 fsubr	 QWORD PTR __real@4045000000000000
  0030a	dc 1d 00 00 00
	00		 fcomp	 QWORD PTR __real@4014000000000000
  00310	df e0		 fnstsw	 ax
  00312	f6 c4 05	 test	 ah, 5
  00315	7a 0e		 jp	 SHORT $LN22@Update4FSK
  00317	dd 05 00 00 00
	00		 fld	 QWORD PTR __real@4014000000000000
  0031d	dd 9d e0 fe ff
	ff		 fstp	 QWORD PTR tv278[ebp]
  00323	eb 3c		 jmp	 SHORT $LN23@Update4FSK
$LN22@Update4FSK:
  00325	8b 55 b0	 mov	 edx, DWORD PTR _i$[ebp]
  00328	8b 45 08	 mov	 eax, DWORD PTR _intToneMags$[ebp]
  0032b	8b 44 90 04	 mov	 eax, DWORD PTR [eax+edx*4+4]
  0032f	8b 4d b0	 mov	 ecx, DWORD PTR _i$[ebp]
  00332	8b 55 08	 mov	 edx, DWORD PTR _intToneMags$[ebp]
  00335	03 04 8a	 add	 eax, DWORD PTR [edx+ecx*4]
  00338	8b 4d b0	 mov	 ecx, DWORD PTR _i$[ebp]
  0033b	8b 55 08	 mov	 edx, DWORD PTR _intToneMags$[ebp]
  0033e	03 44 8a 0c	 add	 eax, DWORD PTR [edx+ecx*4+12]
  00342	6b c0 50	 imul	 eax, 80			; 00000050H
  00345	99		 cdq
  00346	f7 7d ec	 idiv	 DWORD PTR _intToneSum$[ebp]
  00349	89 85 dc fe ff
	ff		 mov	 DWORD PTR tv524[ebp], eax
  0034f	db 85 dc fe ff
	ff		 fild	 DWORD PTR tv524[ebp]
  00355	dc 2d 00 00 00
	00		 fsubr	 QWORD PTR __real@4045000000000000
  0035b	dd 9d e0 fe ff
	ff		 fstp	 QWORD PTR tv278[ebp]
$LN23@Update4FSK:
  00361	dd 85 e0 fe ff
	ff		 fld	 QWORD PTR tv278[ebp]
  00367	e8 00 00 00 00	 call	 __ftol2_sse
  0036c	89 45 bc	 mov	 DWORD PTR _intRad$[ebp], eax
$LN5@Update4FSK:

; 3725 : 		}
; 3726 : 		else if (intToneSum > 0)

  0036f	e9 a5 00 00 00	 jmp	 $LN3@Update4FSK
$LN6@Update4FSK:
  00374	83 7d ec 00	 cmp	 DWORD PTR _intToneSum$[ebp], 0
  00378	0f 8e 9b 00 00
	00		 jle	 $LN3@Update4FSK

; 3727 : 			intRad = max(5.0f, 42.0f - 80 * (intToneMags[i + 1] + intToneMags[i + 2] + intToneMags[i]) / intToneSum);	

  0037e	8b 45 b0	 mov	 eax, DWORD PTR _i$[ebp]
  00381	8b 4d 08	 mov	 ecx, DWORD PTR _intToneMags$[ebp]
  00384	8b 44 81 04	 mov	 eax, DWORD PTR [ecx+eax*4+4]
  00388	8b 55 b0	 mov	 edx, DWORD PTR _i$[ebp]
  0038b	8b 4d 08	 mov	 ecx, DWORD PTR _intToneMags$[ebp]
  0038e	03 44 91 08	 add	 eax, DWORD PTR [ecx+edx*4+8]
  00392	8b 55 b0	 mov	 edx, DWORD PTR _i$[ebp]
  00395	8b 4d 08	 mov	 ecx, DWORD PTR _intToneMags$[ebp]
  00398	03 04 91	 add	 eax, DWORD PTR [ecx+edx*4]
  0039b	6b c0 50	 imul	 eax, 80			; 00000050H
  0039e	99		 cdq
  0039f	f7 7d ec	 idiv	 DWORD PTR _intToneSum$[ebp]
  003a2	89 85 e8 fe ff
	ff		 mov	 DWORD PTR tv542[ebp], eax
  003a8	db 85 e8 fe ff
	ff		 fild	 DWORD PTR tv542[ebp]
  003ae	dc 2d 00 00 00
	00		 fsubr	 QWORD PTR __real@4045000000000000
  003b4	dc 1d 00 00 00
	00		 fcomp	 QWORD PTR __real@4014000000000000
  003ba	df e0		 fnstsw	 ax
  003bc	f6 c4 05	 test	 ah, 5
  003bf	7a 0e		 jp	 SHORT $LN24@Update4FSK
  003c1	dd 05 00 00 00
	00		 fld	 QWORD PTR __real@4014000000000000
  003c7	dd 9d e0 fe ff
	ff		 fstp	 QWORD PTR tv314[ebp]
  003cd	eb 3c		 jmp	 SHORT $LN25@Update4FSK
$LN24@Update4FSK:
  003cf	8b 55 b0	 mov	 edx, DWORD PTR _i$[ebp]
  003d2	8b 45 08	 mov	 eax, DWORD PTR _intToneMags$[ebp]
  003d5	8b 44 90 04	 mov	 eax, DWORD PTR [eax+edx*4+4]
  003d9	8b 4d b0	 mov	 ecx, DWORD PTR _i$[ebp]
  003dc	8b 55 08	 mov	 edx, DWORD PTR _intToneMags$[ebp]
  003df	03 44 8a 08	 add	 eax, DWORD PTR [edx+ecx*4+8]
  003e3	8b 4d b0	 mov	 ecx, DWORD PTR _i$[ebp]
  003e6	8b 55 08	 mov	 edx, DWORD PTR _intToneMags$[ebp]
  003e9	03 04 8a	 add	 eax, DWORD PTR [edx+ecx*4]
  003ec	6b c0 50	 imul	 eax, 80			; 00000050H
  003ef	99		 cdq
  003f0	f7 7d ec	 idiv	 DWORD PTR _intToneSum$[ebp]
  003f3	89 85 dc fe ff
	ff		 mov	 DWORD PTR tv560[ebp], eax
  003f9	db 85 dc fe ff
	ff		 fild	 DWORD PTR tv560[ebp]
  003ff	dc 2d 00 00 00
	00		 fsubr	 QWORD PTR __real@4045000000000000
  00405	dd 9d e0 fe ff
	ff		 fstp	 QWORD PTR tv314[ebp]
$LN25@Update4FSK:
  0040b	dd 85 e0 fe ff
	ff		 fld	 QWORD PTR tv314[ebp]
  00411	e8 00 00 00 00	 call	 __ftol2_sse
  00416	89 45 bc	 mov	 DWORD PTR _intRad$[ebp], eax
$LN3@Update4FSK:

; 3728 : 
; 3729 : 		dblDistanceSum += (43 - intRad);

  00419	b8 2b 00 00 00	 mov	 eax, 43			; 0000002bH
  0041e	2b 45 bc	 sub	 eax, DWORD PTR _intRad$[ebp]
  00421	89 85 e8 fe ff
	ff		 mov	 DWORD PTR tv569[ebp], eax
  00427	db 85 e8 fe ff
	ff		 fild	 DWORD PTR tv569[ebp]
  0042d	d8 45 c8	 fadd	 DWORD PTR _dblDistanceSum$[ebp]
  00430	d9 5d c8	 fstp	 DWORD PTR _dblDistanceSum$[ebp]

; 3730 : 	}

  00433	e9 15 fc ff ff	 jmp	 $LN14@Update4FSK
$LN13@Update4FSK:

; 3731 : 
; 3732 : 	*intQuality = 100 - (2.7f * (dblDistanceSum / (intToneMagsLength / 4))); // ' factor 2.7 emperically chosen for calibration (Qual range 25 to 100)

  00438	a1 00 00 00 00	 mov	 eax, DWORD PTR _intToneMagsLength
  0043d	99		 cdq
  0043e	83 e2 03	 and	 edx, 3
  00441	03 c2		 add	 eax, edx
  00443	c1 f8 02	 sar	 eax, 2
  00446	89 85 e8 fe ff
	ff		 mov	 DWORD PTR tv578[ebp], eax
  0044c	db 85 e8 fe ff
	ff		 fild	 DWORD PTR tv578[ebp]
  00452	d8 7d c8	 fdivr	 DWORD PTR _dblDistanceSum$[ebp]
  00455	dc 0d 00 00 00
	00		 fmul	 QWORD PTR __real@40059999a0000000
  0045b	dc 2d 00 00 00
	00		 fsubr	 QWORD PTR __real@4059000000000000
  00461	e8 00 00 00 00	 call	 __ftol2_sse
  00466	8b 4d 0c	 mov	 ecx, DWORD PTR _intQuality$[ebp]
  00469	89 01		 mov	 DWORD PTR [ecx], eax

; 3733 : 
; 3734 : 	if (*intQuality < 0)

  0046b	8b 45 0c	 mov	 eax, DWORD PTR _intQuality$[ebp]
  0046e	83 38 00	 cmp	 DWORD PTR [eax], 0
  00471	7d 09		 jge	 SHORT $LN2@Update4FSK

; 3735 : 		*intQuality = 0;

  00473	8b 45 0c	 mov	 eax, DWORD PTR _intQuality$[ebp]
  00476	c7 00 00 00 00
	00		 mov	 DWORD PTR [eax], 0
$LN2@Update4FSK:

; 3736 : 
; 3737 : 	if (AccumulateStats)

  0047c	83 3d 00 00 00
	00 00		 cmp	 DWORD PTR _AccumulateStats, 0
  00483	74 1e		 je	 SHORT $LN1@Update4FSK

; 3738 : 	{
; 3739 : 		int4FSKQualityCnts += 1;

  00485	a1 00 00 00 00	 mov	 eax, DWORD PTR _int4FSKQualityCnts
  0048a	83 c0 01	 add	 eax, 1
  0048d	a3 00 00 00 00	 mov	 DWORD PTR _int4FSKQualityCnts, eax

; 3740 : 		int4FSKQuality += *intQuality;

  00492	8b 45 0c	 mov	 eax, DWORD PTR _intQuality$[ebp]
  00495	8b 0d 00 00 00
	00		 mov	 ecx, DWORD PTR _int4FSKQuality
  0049b	03 08		 add	 ecx, DWORD PTR [eax]
  0049d	89 0d 00 00 00
	00		 mov	 DWORD PTR _int4FSKQuality, ecx
$LN1@Update4FSK:

; 3741 : 	}
; 3742 : 
; 3743 : 	return *intQuality;

  004a3	8b 45 0c	 mov	 eax, DWORD PTR _intQuality$[ebp]
  004a6	8b 00		 mov	 eax, DWORD PTR [eax]

; 3744 : }

  004a8	5f		 pop	 edi
  004a9	5e		 pop	 esi
  004aa	5b		 pop	 ebx
  004ab	81 c4 24 01 00
	00		 add	 esp, 292		; 00000124H
  004b1	3b ec		 cmp	 ebp, esp
  004b3	e8 00 00 00 00	 call	 __RTC_CheckEsp
  004b8	8b e5		 mov	 esp, ebp
  004ba	5d		 pop	 ebp
  004bb	c3		 ret	 0
_Update4FSKConstellation ENDP
_TEXT	ENDS
PUBLIC	__real@400199999999999a
EXTRN	_int16FSKQuality:DWORD
EXTRN	_int16FSKQualityCnts:DWORD
;	COMDAT __real@400199999999999a
CONST	SEGMENT
__real@400199999999999a DQ 0400199999999999ar	; 2.2
; Function compile flags: /Odtp /RTCsu /ZI
CONST	ENDS
;	COMDAT _Update16FSKConstellation
_TEXT	SEGMENT
tv240 = -352						; size = 4
tv167 = -348						; size = 8
tv138 = -344						; size = 8
tv223 = -340						; size = 4
tv214 = -340						; size = 4
_j$ = -140						; size = 4
_i$ = -128						; size = 4
_intJatMaxMag$ = -116					; size = 4
_intRad$ = -104						; size = 4
_dblPlotRotation$ = -68					; size = 4
_dblDistanceSum$ = -56					; size = 4
_intMagMax$ = -32					; size = 4
_intToneSum$ = -20					; size = 4
_intToneMags$ = 8					; size = 4
_intQuality$ = 12					; size = 4
_Update16FSKConstellation PROC				; COMDAT

; 3749 : {

  00000	55		 push	 ebp
  00001	8b ec		 mov	 ebp, esp
  00003	81 ec 60 01 00
	00		 sub	 esp, 352		; 00000160H
  00009	53		 push	 ebx
  0000a	56		 push	 esi
  0000b	57		 push	 edi
  0000c	8d bd a0 fe ff
	ff		 lea	 edi, DWORD PTR [ebp-352]
  00012	b9 58 00 00 00	 mov	 ecx, 88			; 00000058H
  00017	b8 cc cc cc cc	 mov	 eax, -858993460		; ccccccccH
  0001c	f3 ab		 rep stosd

; 3750 : 	//	Subroutine to update bmpConstellation plot for 16FSK modes...
; 3751 : 
; 3752 : 	float dblRad;
; 3753 : 	int	intToneSum = 0;

  0001e	c7 45 ec 00 00
	00 00		 mov	 DWORD PTR _intToneSum$[ebp], 0

; 3754 : 	float intMagMax = 0;

  00025	d9 ee		 fldz
  00027	d9 5d e0	 fstp	 DWORD PTR _intMagMax$[ebp]

; 3755 : 	float dblAng;
; 3756 : 	float dblDistanceSum = 0;

  0002a	d9 ee		 fldz
  0002c	d9 5d c8	 fstp	 DWORD PTR _dblDistanceSum$[ebp]

; 3757 : 	float dblPlotRotation = 0;

  0002f	d9 ee		 fldz
  00031	d9 5d bc	 fstp	 DWORD PTR _dblPlotRotation$[ebp]

; 3758 : //            Dim stcStatus As Status
; 3759 : 	int	yCenter, xCenter;
; 3760 : 	int	intRad;
; 3761 : //            Dim clrPixel As System.Drawing.Color
; 3762 : 	int	intJatMaxMag;
; 3763 : 	int i, j;
; 3764 : 
; 3765 : 	for (i = 0; i< intToneMagsLength; i += 16)  // for the number of symbols represented by intToneMags

  00034	c7 45 80 00 00
	00 00		 mov	 DWORD PTR _i$[ebp], 0
  0003b	eb 09		 jmp	 SHORT $LN8@Update16FS
$LN7@Update16FS:
  0003d	8b 45 80	 mov	 eax, DWORD PTR _i$[ebp]
  00040	83 c0 10	 add	 eax, 16			; 00000010H
  00043	89 45 80	 mov	 DWORD PTR _i$[ebp], eax
$LN8@Update16FS:
  00046	8b 45 80	 mov	 eax, DWORD PTR _i$[ebp]
  00049	3b 05 00 00 00
	00		 cmp	 eax, DWORD PTR _intToneMagsLength
  0004f	0f 8d f5 00 00
	00		 jge	 $LN6@Update16FS

; 3766 : 	{
; 3767 : 		intToneSum = 0;

  00055	c7 45 ec 00 00
	00 00		 mov	 DWORD PTR _intToneSum$[ebp], 0

; 3768 : 		intMagMax = 0;

  0005c	d9 ee		 fldz
  0005e	d9 5d e0	 fstp	 DWORD PTR _intMagMax$[ebp]

; 3769 : 
; 3770 : 		for (j = 0; j < 16; j++)

  00061	c7 85 74 ff ff
	ff 00 00 00 00	 mov	 DWORD PTR _j$[ebp], 0
  0006b	eb 0f		 jmp	 SHORT $LN5@Update16FS
$LN4@Update16FS:
  0006d	8b 85 74 ff ff
	ff		 mov	 eax, DWORD PTR _j$[ebp]
  00073	83 c0 01	 add	 eax, 1
  00076	89 85 74 ff ff
	ff		 mov	 DWORD PTR _j$[ebp], eax
$LN5@Update16FS:
  0007c	83 bd 74 ff ff
	ff 10		 cmp	 DWORD PTR _j$[ebp], 16	; 00000010H
  00083	7d 4d		 jge	 SHORT $LN3@Update16FS

; 3771 : 		{
; 3772 : 			if (intToneMags[i + j] > intMagMax)

  00085	8b 45 80	 mov	 eax, DWORD PTR _i$[ebp]
  00088	03 85 74 ff ff
	ff		 add	 eax, DWORD PTR _j$[ebp]
  0008e	8b 4d 08	 mov	 ecx, DWORD PTR _intToneMags$[ebp]
  00091	db 04 81	 fild	 DWORD PTR [ecx+eax*4]
  00094	d9 45 e0	 fld	 DWORD PTR _intMagMax$[ebp]
  00097	de d9		 fcompp
  00099	df e0		 fnstsw	 ax
  0009b	f6 c4 05	 test	 ah, 5
  0009e	7a 1b		 jp	 SHORT $LN2@Update16FS

; 3773 : 			{
; 3774 : 				intMagMax = intToneMags[i + j];

  000a0	8b 45 80	 mov	 eax, DWORD PTR _i$[ebp]
  000a3	03 85 74 ff ff
	ff		 add	 eax, DWORD PTR _j$[ebp]
  000a9	8b 4d 08	 mov	 ecx, DWORD PTR _intToneMags$[ebp]
  000ac	db 04 81	 fild	 DWORD PTR [ecx+eax*4]
  000af	d9 5d e0	 fstp	 DWORD PTR _intMagMax$[ebp]

; 3775 : 				intJatMaxMag = j;

  000b2	8b 85 74 ff ff
	ff		 mov	 eax, DWORD PTR _j$[ebp]
  000b8	89 45 8c	 mov	 DWORD PTR _intJatMaxMag$[ebp], eax
$LN2@Update16FS:

; 3776 : 			}
; 3777 : 			intToneSum += intToneMags[i + j];

  000bb	8b 45 80	 mov	 eax, DWORD PTR _i$[ebp]
  000be	03 85 74 ff ff
	ff		 add	 eax, DWORD PTR _j$[ebp]
  000c4	8b 4d 08	 mov	 ecx, DWORD PTR _intToneMags$[ebp]
  000c7	8b 55 ec	 mov	 edx, DWORD PTR _intToneSum$[ebp]
  000ca	03 14 81	 add	 edx, DWORD PTR [ecx+eax*4]
  000cd	89 55 ec	 mov	 DWORD PTR _intToneSum$[ebp], edx

; 3778 : 		}

  000d0	eb 9b		 jmp	 SHORT $LN4@Update16FS
$LN3@Update16FS:

; 3779 : 		intRad = max(5, 42 - 40 * (intToneSum - intMagMax) / intToneSum);

  000d2	db 45 ec	 fild	 DWORD PTR _intToneSum$[ebp]
  000d5	d8 65 e0	 fsub	 DWORD PTR _intMagMax$[ebp]
  000d8	dc 0d 00 00 00
	00		 fmul	 QWORD PTR __real@4044000000000000
  000de	da 75 ec	 fidiv	 DWORD PTR _intToneSum$[ebp]
  000e1	dc 2d 00 00 00
	00		 fsubr	 QWORD PTR __real@4045000000000000
  000e7	dc 1d 00 00 00
	00		 fcomp	 QWORD PTR __real@4014000000000000
  000ed	df e0		 fnstsw	 ax
  000ef	f6 c4 05	 test	 ah, 5
  000f2	7a 0e		 jp	 SHORT $LN11@Update16FS
  000f4	dd 05 00 00 00
	00		 fld	 QWORD PTR __real@4014000000000000
  000fa	dd 9d a8 fe ff
	ff		 fstp	 QWORD PTR tv138[ebp]
  00100	eb 1b		 jmp	 SHORT $LN12@Update16FS
$LN11@Update16FS:
  00102	db 45 ec	 fild	 DWORD PTR _intToneSum$[ebp]
  00105	d8 65 e0	 fsub	 DWORD PTR _intMagMax$[ebp]
  00108	dc 0d 00 00 00
	00		 fmul	 QWORD PTR __real@4044000000000000
  0010e	da 75 ec	 fidiv	 DWORD PTR _intToneSum$[ebp]
  00111	dc 2d 00 00 00
	00		 fsubr	 QWORD PTR __real@4045000000000000
  00117	dd 9d a8 fe ff
	ff		 fstp	 QWORD PTR tv138[ebp]
$LN12@Update16FS:
  0011d	dd 85 a8 fe ff
	ff		 fld	 QWORD PTR tv138[ebp]
  00123	e8 00 00 00 00	 call	 __ftol2_sse
  00128	89 45 98	 mov	 DWORD PTR _intRad$[ebp], eax

; 3780 : 		dblDistanceSum += (43 - intRad);

  0012b	b8 2b 00 00 00	 mov	 eax, 43			; 0000002bH
  00130	2b 45 98	 sub	 eax, DWORD PTR _intRad$[ebp]
  00133	89 85 ac fe ff
	ff		 mov	 DWORD PTR tv214[ebp], eax
  00139	db 85 ac fe ff
	ff		 fild	 DWORD PTR tv214[ebp]
  0013f	d8 45 c8	 fadd	 DWORD PTR _dblDistanceSum$[ebp]
  00142	d9 5d c8	 fstp	 DWORD PTR _dblDistanceSum$[ebp]

; 3781 : 	}

  00145	e9 f3 fe ff ff	 jmp	 $LN7@Update16FS
$LN6@Update16FS:

; 3782 : 		
; 3783 : 	*intQuality = max(0, (100 - 2.2 * (dblDistanceSum / (intToneMagsLength / 16))));	 // factor 2.2 emperically chosen for calibration (Qual range 25 to 100)

  0014a	a1 00 00 00 00	 mov	 eax, DWORD PTR _intToneMagsLength
  0014f	99		 cdq
  00150	83 e2 0f	 and	 edx, 15			; 0000000fH
  00153	03 c2		 add	 eax, edx
  00155	c1 f8 04	 sar	 eax, 4
  00158	89 85 ac fe ff
	ff		 mov	 DWORD PTR tv223[ebp], eax
  0015e	db 85 ac fe ff
	ff		 fild	 DWORD PTR tv223[ebp]
  00164	d8 7d c8	 fdivr	 DWORD PTR _dblDistanceSum$[ebp]
  00167	dc 0d 00 00 00
	00		 fmul	 QWORD PTR __real@400199999999999a
  0016d	dc 2d 00 00 00
	00		 fsubr	 QWORD PTR __real@4059000000000000
  00173	dc 1d 00 00 00
	00		 fcomp	 QWORD PTR __real@0000000000000000
  00179	df e0		 fnstsw	 ax
  0017b	f6 c4 05	 test	 ah, 5
  0017e	7a 0a		 jp	 SHORT $LN13@Update16FS
  00180	d9 ee		 fldz
  00182	dd 9d a4 fe ff
	ff		 fstp	 QWORD PTR tv167[ebp]
  00188	eb 2f		 jmp	 SHORT $LN14@Update16FS
$LN13@Update16FS:
  0018a	a1 00 00 00 00	 mov	 eax, DWORD PTR _intToneMagsLength
  0018f	99		 cdq
  00190	83 e2 0f	 and	 edx, 15			; 0000000fH
  00193	03 c2		 add	 eax, edx
  00195	c1 f8 04	 sar	 eax, 4
  00198	89 85 a0 fe ff
	ff		 mov	 DWORD PTR tv240[ebp], eax
  0019e	db 85 a0 fe ff
	ff		 fild	 DWORD PTR tv240[ebp]
  001a4	d8 7d c8	 fdivr	 DWORD PTR _dblDistanceSum$[ebp]
  001a7	dc 0d 00 00 00
	00		 fmul	 QWORD PTR __real@400199999999999a
  001ad	dc 2d 00 00 00
	00		 fsubr	 QWORD PTR __real@4059000000000000
  001b3	dd 9d a4 fe ff
	ff		 fstp	 QWORD PTR tv167[ebp]
$LN14@Update16FS:
  001b9	dd 85 a4 fe ff
	ff		 fld	 QWORD PTR tv167[ebp]
  001bf	e8 00 00 00 00	 call	 __ftol2_sse
  001c4	8b 4d 0c	 mov	 ecx, DWORD PTR _intQuality$[ebp]
  001c7	89 01		 mov	 DWORD PTR [ecx], eax

; 3784 : //	*intQuality = max(0, (100 - 1.0 * (dblDistanceSum / (intToneMagsLength / 16))));	 // factor 2.2 emperically chosen for calibration (Qual range 25 to 100)
; 3785 : 
; 3786 : 	if(AccumulateStats)

  001c9	83 3d 00 00 00
	00 00		 cmp	 DWORD PTR _AccumulateStats, 0
  001d0	74 1e		 je	 SHORT $LN1@Update16FS

; 3787 : 	{
; 3788 : 		int16FSKQualityCnts++;

  001d2	a1 00 00 00 00	 mov	 eax, DWORD PTR _int16FSKQualityCnts
  001d7	83 c0 01	 add	 eax, 1
  001da	a3 00 00 00 00	 mov	 DWORD PTR _int16FSKQualityCnts, eax

; 3789 : 		int16FSKQuality += *intQuality;

  001df	8b 45 0c	 mov	 eax, DWORD PTR _intQuality$[ebp]
  001e2	8b 0d 00 00 00
	00		 mov	 ecx, DWORD PTR _int16FSKQuality
  001e8	03 08		 add	 ecx, DWORD PTR [eax]
  001ea	89 0d 00 00 00
	00		 mov	 DWORD PTR _int16FSKQuality, ecx
$LN1@Update16FS:

; 3790 : 	}
; 3791 : }

  001f0	5f		 pop	 edi
  001f1	5e		 pop	 esi
  001f2	5b		 pop	 ebx
  001f3	81 c4 60 01 00
	00		 add	 esp, 352		; 00000160H
  001f9	3b ec		 cmp	 ebp, esp
  001fb	e8 00 00 00 00	 call	 __RTC_CheckEsp
  00200	8b e5		 mov	 esp, ebp
  00202	5d		 pop	 ebp
  00203	c3		 ret	 0
_Update16FSKConstellation ENDP
; Function compile flags: /Odtp /RTCsu /ZI
_TEXT	ENDS
;	COMDAT _Update8FSKConstellation
_TEXT	SEGMENT
_intToneMags$ = 8					; size = 4
_intQuality$ = 12					; size = 4
_Update8FSKConstellation PROC				; COMDAT

; 3796 : {

  00000	55		 push	 ebp
  00001	8b ec		 mov	 ebp, esp
  00003	81 ec c0 00 00
	00		 sub	 esp, 192		; 000000c0H
  00009	53		 push	 ebx
  0000a	56		 push	 esi
  0000b	57		 push	 edi
  0000c	8d bd 40 ff ff
	ff		 lea	 edi, DWORD PTR [ebp-192]
  00012	b9 30 00 00 00	 mov	 ecx, 48			; 00000030H
  00017	b8 cc cc cc cc	 mov	 eax, -858993460		; ccccccccH
  0001c	f3 ab		 rep stosd

; 3797 : 	//	Subroutine to update bmpConstellation plot for 8FSK modes...
; 3798 : /*
; 3799 :             Dim dblRad As Double = 0
; 3800 :             Dim intToneSum As Int32 = 0
; 3801 :             Dim intMagMax As Double = 0
; 3802 :             Dim dblAng As Double
; 3803 :             Dim dblDistanceSum As Double
; 3804 :             Dim dblPlotRotation As Double = 0
; 3805 :             Dim stcStatus As Status
; 3806 :             Dim yCenter, xCenter As Integer
; 3807 :             Dim intRad As Int32
; 3808 :             Dim clrPixel As System.Drawing.Color
; 3809 :             Dim intJatMaxMag As Int32
; 3810 :             bmpConstellation = New Bitmap(89, 89)
; 3811 :             ' Draw the axis and paint the black background area
; 3812 :             yCenter = (bmpConstellation.Height - 2) \ 2
; 3813 :             xCenter = (bmpConstellation.Width - 2) \ 2
; 3814 :             For x As Integer = 0 To bmpConstellation.Width - 1
; 3815 :                 For y As Integer = 0 To bmpConstellation.Height - 1
; 3816 :                     If y = yCenter Or x = xCenter Then
; 3817 :                         bmpConstellation.SetPixel(x, y, Color.DeepSkyBlue)
; 3818 :                     End If
; 3819 :                 Next y
; 3820 :             Next x
; 3821 :             For i As Integer = 0 To (intToneMags.Length - 1) Step 8  ' for the number of symbols represented by intToneMags
; 3822 :                 intToneSum = 0
; 3823 :                 intMagMax = 0
; 3824 :                 For j As Integer = 0 To 7
; 3825 :                     If intToneMags(i + j) > intMagMax Then
; 3826 :                         intMagMax = intToneMags(i + j)
; 3827 :                         intJatMaxMag = j
; 3828 :                     End If
; 3829 :                     intToneSum += intToneMags(i + j)
; 3830 :                 Next j
; 3831 :                 intRad = Max(5, 42 - 40 * (intToneSum - intMagMax) / intToneSum)
; 3832 :                 If intRad < 15 Then
; 3833 :                     clrPixel = Color.Tomato
; 3834 :                 ElseIf intRad < 30 Then
; 3835 :                     clrPixel = Color.Gold
; 3836 :                 Else
; 3837 :                     clrPixel = Color.Lime
; 3838 :                 End If
; 3839 :                 ' plot the symbols rotated to avoid the axis
; 3840 :                 dblAng = PI / 9 + (intJatMaxMag * PI / 4)
; 3841 :                 bmpConstellation.SetPixel(CInt(xCenter + intRad * Cos(dblAng)), CInt(yCenter + intRad * Sin(dblAng)), clrPixel)
; 3842 :                 dblDistanceSum += (43 - intRad)
; 3843 :             Next i
; 3844 :             intQuality = Math.Max(0, CInt(100 - 2.0 * (dblDistanceSum / (intToneMags.Length \ 8)))) ' factor 2.0 emperically chosen for calibration (Qual range 25 to 100)
; 3845 :             stcStatus.ControlName = "lblQuality"
; 3846 :             stcStatus.Text = "8FSK Quality: " & intQuality.ToString
; 3847 :             queTNCStatus.Enqueue(stcStatus)
; 3848 :             If MCB.AccumulateStats Then
; 3849 :                 stcQualityStats.int8FSKQualityCnts += 1
; 3850 :                 stcQualityStats.int8FSKQuality += intQuality
; 3851 :             End If
; 3852 :             stcStatus.ControlName = "ConstellationPlot"
; 3853 :             queTNCStatus.Enqueue(stcStatus)
; 3854 :         Catch ex As Exception
; 3855 :             Logs.Exception("[Main.Update8FSKConstellation] Err: " & ex.ToString)
; 3856 :         End Try
; 3857 :     End Sub ' Update8FSKConstellation
; 3858 : 	*/
; 3859 : 	return;
; 3860 : 
; 3861 : }

  0001e	5f		 pop	 edi
  0001f	5e		 pop	 esi
  00020	5b		 pop	 ebx
  00021	8b e5		 mov	 esp, ebp
  00023	5d		 pop	 ebp
  00024	c3		 ret	 0
_Update8FSKConstellation ENDP
_TEXT	ENDS
PUBLIC	__real@3f50624dd2f1a9fc
EXTRN	_intPSKSymbolsDecoded:DWORD
EXTRN	_intPSKQuality:QWORD
EXTRN	_intPSKQualityCnts:QWORD
EXTRN	_intQAMSymbolsDecoded:DWORD
EXTRN	_intQAMQuality:DWORD
EXTRN	_intQAMQualityCnts:DWORD
;	COMDAT __real@3f50624dd2f1a9fc
CONST	SEGMENT
__real@3f50624dd2f1a9fc DQ 03f50624dd2f1a9fcr	; 0.001
; Function compile flags: /Odtp /RTCsu /ZI
CONST	ENDS
;	COMDAT _UpdatePhaseConstellation
_TEXT	SEGMENT
tv351 = -436						; size = 4
tv458 = -432						; size = 8
tv321 = -432						; size = 4
tv392 = -428						; size = 4
tv376 = -428						; size = 4
tv291 = -428						; size = 8
tv247 = -428						; size = 8
tv85 = -428						; size = 4
tv401 = -424						; size = 4
tv382 = -424						; size = 4
tv367 = -424						; size = 4
tv360 = -424						; size = 4
tv344 = -424						; size = 4
tv334 = -424						; size = 4
tv325 = -424						; size = 4
tv313 = -424						; size = 4
_intQuality$ = -224					; size = 4
_j$ = -212						; size = 4
_i$ = -200						; size = 4
_xCenter$ = -188					; size = 4
_yCenter$ = -176					; size = 4
_dblPlotRotation$ = -164				; size = 4
_dblRadError$ = -152					; size = 4
_dbPhaseStep$ = -140					; size = 4
_dblPi4$ = -128						; size = 4
_intMagMax$ = -116					; size = 4
_dblAvgRad$ = -104					; size = 4
_dblRad$ = -92						; size = 4
_intP$ = -80						; size = 4
_intY$ = -68						; size = 4
_intPSKIndex$ = -44					; size = 4
_dblPhaseErrorSum$ = -32				; size = 4
_dblPhaseError$ = -20					; size = 4
_intPSKPhase$ = -8					; size = 4
_intPhases$ = 8						; size = 4
_intMags$ = 12						; size = 4
_strMod$ = 16						; size = 4
_blnQAM$ = 20						; size = 4
_UpdatePhaseConstellation PROC				; COMDAT

; 3871 : {

  00000	55		 push	 ebp
  00001	8b ec		 mov	 ebp, esp
  00003	81 ec b4 01 00
	00		 sub	 esp, 436		; 000001b4H
  00009	53		 push	 ebx
  0000a	56		 push	 esi
  0000b	57		 push	 edi
  0000c	8d bd 4c fe ff
	ff		 lea	 edi, DWORD PTR [ebp-436]
  00012	b9 6d 00 00 00	 mov	 ecx, 109		; 0000006dH
  00017	b8 cc cc cc cc	 mov	 eax, -858993460		; ccccccccH
  0001c	f3 ab		 rep stosd

; 3872 : 	// Subroutine to update bmpConstellation plot for PSK modes...
; 3873 : 	// Skip plotting and calculations of intPSKPhase(0) as this is a reference phase (9/30/2014)
; 3874 : 
; 3875 : 	int intPSKPhase = strMod[0] - '0';

  0001e	8b 45 10	 mov	 eax, DWORD PTR _strMod$[ebp]
  00021	0f be 08	 movsx	 ecx, BYTE PTR [eax]
  00024	83 e9 30	 sub	 ecx, 48			; 00000030H
  00027	89 4d f8	 mov	 DWORD PTR _intPSKPhase$[ebp], ecx

; 3876 : 	float dblPhaseError; 
; 3877 : 	float dblPhaseErrorSum = 0;

  0002a	d9 ee		 fldz
  0002c	d9 5d e0	 fstp	 DWORD PTR _dblPhaseErrorSum$[ebp]

; 3878 : 	int intPSKIndex;
; 3879 : 	int intX, intY, intP = 0;

  0002f	c7 45 b0 00 00
	00 00		 mov	 DWORD PTR _intP$[ebp], 0

; 3880 : 	float dblRad = 0;

  00036	d9 ee		 fldz
  00038	d9 5d a4	 fstp	 DWORD PTR _dblRad$[ebp]

; 3881 : 	float dblAvgRad = 0;

  0003b	d9 ee		 fldz
  0003d	d9 5d 98	 fstp	 DWORD PTR _dblAvgRad$[ebp]

; 3882 : 	float intMagMax = 0;

  00040	d9 ee		 fldz
  00042	d9 5d 8c	 fstp	 DWORD PTR _intMagMax$[ebp]

; 3883 : 	float dblPi4 = 0.25 * M_PI;

  00045	d9 05 00 00 00
	00		 fld	 DWORD PTR __real@3f490fd8
  0004b	d9 5d 80	 fstp	 DWORD PTR _dblPi4$[ebp]

; 3884 : 	float dbPhaseStep  = 2 * M_PI / intPSKPhase;

  0004e	db 45 f8	 fild	 DWORD PTR _intPSKPhase$[ebp]
  00051	dc 3d 00 00 00
	00		 fdivr	 QWORD PTR __real@401921fb00000000
  00057	d9 9d 74 ff ff
	ff		 fstp	 DWORD PTR _dbPhaseStep$[ebp]

; 3885 : 	float dblRadError = 0;

  0005d	d9 ee		 fldz
  0005f	d9 9d 68 ff ff
	ff		 fstp	 DWORD PTR _dblRadError$[ebp]

; 3886 : 	float  dblPlotRotation = 0;

  00065	d9 ee		 fldz
  00067	d9 9d 5c ff ff
	ff		 fstp	 DWORD PTR _dblPlotRotation$[ebp]

; 3887 : 	// stcStatus As Status
; 3888 : 	int yCenter = 0, xCenter = 0;

  0006d	c7 85 50 ff ff
	ff 00 00 00 00	 mov	 DWORD PTR _yCenter$[ebp], 0
  00077	c7 85 44 ff ff
	ff 00 00 00 00	 mov	 DWORD PTR _xCenter$[ebp], 0

; 3889 : 	int i,j, intQuality;
; 3890 : 
; 3891 : 	if (blnQAM)

  00081	83 7d 14 00	 cmp	 DWORD PTR _blnQAM$[ebp], 0
  00085	74 16		 je	 SHORT $LN14@UpdatePhas

; 3892 : 		intMagLength = intPhasesLength = 8;

  00087	c7 05 00 00 00
	00 08 00 00 00	 mov	 DWORD PTR _intPhasesLength, 8
  00091	a1 00 00 00 00	 mov	 eax, DWORD PTR _intPhasesLength
  00096	a3 00 00 00 00	 mov	 DWORD PTR _intMagLength, eax

; 3893 : 	else

  0009b	eb 16		 jmp	 SHORT $LN13@UpdatePhas
$LN14@UpdatePhas:

; 3894 : 		intMagLength = intPhasesLength = intPSKMode;

  0009d	a1 00 00 00 00	 mov	 eax, DWORD PTR _intPSKMode
  000a2	a3 00 00 00 00	 mov	 DWORD PTR _intPhasesLength, eax
  000a7	8b 0d 00 00 00
	00		 mov	 ecx, DWORD PTR _intPhasesLength
  000ad	89 0d 00 00 00
	00		 mov	 DWORD PTR _intMagLength, ecx
$LN13@UpdatePhas:

; 3895 : 
; 3896 : 	if (intPSKPhase == 4)

  000b3	83 7d f8 04	 cmp	 DWORD PTR _intPSKPhase$[ebp], 4
  000b7	75 09		 jne	 SHORT $LN12@UpdatePhas

; 3897 : 		intPSKIndex = 0;

  000b9	c7 45 d4 00 00
	00 00		 mov	 DWORD PTR _intPSKIndex$[ebp], 0

; 3898 : 	else

  000c0	eb 07		 jmp	 SHORT $LN11@UpdatePhas
$LN12@UpdatePhas:

; 3899 : 		intPSKIndex = 1;

  000c2	c7 45 d4 01 00
	00 00		 mov	 DWORD PTR _intPSKIndex$[ebp], 1
$LN11@UpdatePhas:

; 3900 :  
; 3901 :            // bmpConstellation = New Bitmap(89, 89)
; 3902 :            // ' Draw the axis and paint the black background area
; 3903 :             //yCenter = (bmpConstellation.Height - 1) \ 2
; 3904 :            // xCenter = (bmpConstellation.Width - 1) \ 2
; 3905 :             //For x As Integer = 0 To bmpConstellation.Width - 1
; 3906 :              //   For y As Integer = 0 To bmpConstellation.Height - 1
; 3907 :              //       If y = yCenter Or x = xCenter Then
; 3908 :              //           bmpConstellation.SetPixel(x, y, Color.Tomato)
; 3909 :              //       End If
; 3910 :              //   Next y
; 3911 :             //Next x
; 3912 : 
; 3913 : 	for (j = 1; j < intMagLength; j++)   // skip the magnitude of the reference in calculation

  000c9	c7 85 2c ff ff
	ff 01 00 00 00	 mov	 DWORD PTR _j$[ebp], 1
  000d3	eb 0f		 jmp	 SHORT $LN10@UpdatePhas
$LN9@UpdatePhas:
  000d5	8b 85 2c ff ff
	ff		 mov	 eax, DWORD PTR _j$[ebp]
  000db	83 c0 01	 add	 eax, 1
  000de	89 85 2c ff ff
	ff		 mov	 DWORD PTR _j$[ebp], eax
$LN10@UpdatePhas:
  000e4	8b 85 2c ff ff
	ff		 mov	 eax, DWORD PTR _j$[ebp]
  000ea	3b 05 00 00 00
	00		 cmp	 eax, DWORD PTR _intMagLength
  000f0	7d 7c		 jge	 SHORT $LN8@UpdatePhas

; 3914 : 	{
; 3915 : 		intMagMax = max(intMagMax, intMags[j]); // find the max magnitude to auto scale

  000f2	8b 85 2c ff ff
	ff		 mov	 eax, DWORD PTR _j$[ebp]
  000f8	8b 4d 0c	 mov	 ecx, DWORD PTR _intMags$[ebp]
  000fb	0f bf 14 41	 movsx	 edx, WORD PTR [ecx+eax*2]
  000ff	89 95 58 fe ff
	ff		 mov	 DWORD PTR tv313[ebp], edx
  00105	db 85 58 fe ff
	ff		 fild	 DWORD PTR tv313[ebp]
  0010b	d9 45 8c	 fld	 DWORD PTR _intMagMax$[ebp]
  0010e	de d9		 fcompp
  00110	df e0		 fnstsw	 ax
  00112	f6 c4 41	 test	 ah, 65			; 00000041H
  00115	75 0b		 jne	 SHORT $LN17@UpdatePhas
  00117	d9 45 8c	 fld	 DWORD PTR _intMagMax$[ebp]
  0011a	d9 9d 54 fe ff
	ff		 fstp	 DWORD PTR tv85[ebp]
  00120	eb 1f		 jmp	 SHORT $LN18@UpdatePhas
$LN17@UpdatePhas:
  00122	8b 85 2c ff ff
	ff		 mov	 eax, DWORD PTR _j$[ebp]
  00128	8b 4d 0c	 mov	 ecx, DWORD PTR _intMags$[ebp]
  0012b	0f bf 14 41	 movsx	 edx, WORD PTR [ecx+eax*2]
  0012f	89 95 50 fe ff
	ff		 mov	 DWORD PTR tv321[ebp], edx
  00135	db 85 50 fe ff
	ff		 fild	 DWORD PTR tv321[ebp]
  0013b	d9 9d 54 fe ff
	ff		 fstp	 DWORD PTR tv85[ebp]
$LN18@UpdatePhas:
  00141	d9 85 54 fe ff
	ff		 fld	 DWORD PTR tv85[ebp]
  00147	d9 5d 8c	 fstp	 DWORD PTR _intMagMax$[ebp]

; 3916 : 		dblAvgRad += intMags[j];

  0014a	8b 85 2c ff ff
	ff		 mov	 eax, DWORD PTR _j$[ebp]
  00150	8b 4d 0c	 mov	 ecx, DWORD PTR _intMags$[ebp]
  00153	0f bf 14 41	 movsx	 edx, WORD PTR [ecx+eax*2]
  00157	89 95 58 fe ff
	ff		 mov	 DWORD PTR tv325[ebp], edx
  0015d	db 85 58 fe ff
	ff		 fild	 DWORD PTR tv325[ebp]
  00163	d8 45 98	 fadd	 DWORD PTR _dblAvgRad$[ebp]
  00166	d9 5d 98	 fstp	 DWORD PTR _dblAvgRad$[ebp]

; 3917 : 	}

  00169	e9 67 ff ff ff	 jmp	 $LN9@UpdatePhas
$LN8@UpdatePhas:

; 3918 : 	dblAvgRad = dblAvgRad / (intMagLength);  // the average radius

  0016e	db 05 00 00 00
	00		 fild	 DWORD PTR _intMagLength
  00174	d8 7d 98	 fdivr	 DWORD PTR _dblAvgRad$[ebp]
  00177	d9 5d 98	 fstp	 DWORD PTR _dblAvgRad$[ebp]

; 3919 :   
; 3920 : 	for (i = 1; i <  intPhasesLength; i++)  // Don't plot the first phase (reference)

  0017a	c7 85 38 ff ff
	ff 01 00 00 00	 mov	 DWORD PTR _i$[ebp], 1
  00184	eb 0f		 jmp	 SHORT $LN7@UpdatePhas
$LN6@UpdatePhas:
  00186	8b 85 38 ff ff
	ff		 mov	 eax, DWORD PTR _i$[ebp]
  0018c	83 c0 01	 add	 eax, 1
  0018f	89 85 38 ff ff
	ff		 mov	 DWORD PTR _i$[ebp], eax
$LN7@UpdatePhas:
  00195	8b 85 38 ff ff
	ff		 mov	 eax, DWORD PTR _i$[ebp]
  0019b	3b 05 00 00 00
	00		 cmp	 eax, DWORD PTR _intPhasesLength
  001a1	0f 8d 50 01 00
	00		 jge	 $LN5@UpdatePhas

; 3921 : 	{
; 3922 : 		dblRad = 40 * intMags[i] / intMagMax; // scale the radius dblRad based on intMagMax

  001a7	8b 85 38 ff ff
	ff		 mov	 eax, DWORD PTR _i$[ebp]
  001ad	8b 4d 0c	 mov	 ecx, DWORD PTR _intMags$[ebp]
  001b0	0f bf 14 41	 movsx	 edx, WORD PTR [ecx+eax*2]
  001b4	6b d2 28	 imul	 edx, 40			; 00000028H
  001b7	89 95 58 fe ff
	ff		 mov	 DWORD PTR tv334[ebp], edx
  001bd	db 85 58 fe ff
	ff		 fild	 DWORD PTR tv334[ebp]
  001c3	d8 75 8c	 fdiv	 DWORD PTR _intMagMax$[ebp]
  001c6	d9 5d a4	 fstp	 DWORD PTR _dblRad$[ebp]

; 3923 :         //        intX = CInt(xCenter + dblRad * Math.Cos(dblPlotRotation + intPhases(i) / 1000))
; 3924 : 		intY = (yCenter + dblRad * sinf(dblPlotRotation + intPhases[i] / 1000));

  001c9	db 85 50 ff ff
	ff		 fild	 DWORD PTR _yCenter$[ebp]
  001cf	8b 85 38 ff ff
	ff		 mov	 eax, DWORD PTR _i$[ebp]
  001d5	8b 4d 08	 mov	 ecx, DWORD PTR _intPhases$[ebp]
  001d8	0f bf 04 41	 movsx	 eax, WORD PTR [ecx+eax*2]
  001dc	99		 cdq
  001dd	b9 e8 03 00 00	 mov	 ecx, 1000		; 000003e8H
  001e2	f7 f9		 idiv	 ecx
  001e4	89 85 58 fe ff
	ff		 mov	 DWORD PTR tv344[ebp], eax
  001ea	db 85 58 fe ff
	ff		 fild	 DWORD PTR tv344[ebp]
  001f0	d8 85 5c ff ff
	ff		 fadd	 DWORD PTR _dblPlotRotation$[ebp]
  001f6	83 ec 08	 sub	 esp, 8
  001f9	dd 1c 24	 fstp	 QWORD PTR [esp]
  001fc	dd 9d 50 fe ff
	ff		 fstp	 QWORD PTR tv458[ebp]
  00202	e8 00 00 00 00	 call	 _sin
  00207	83 c4 08	 add	 esp, 8
  0020a	d9 9d 4c fe ff
	ff		 fstp	 DWORD PTR tv351[ebp]
  00210	d9 85 4c fe ff
	ff		 fld	 DWORD PTR tv351[ebp]
  00216	d8 4d a4	 fmul	 DWORD PTR _dblRad$[ebp]
  00219	dc 85 50 fe ff
	ff		 fadd	 QWORD PTR tv458[ebp]
  0021f	e8 00 00 00 00	 call	 __ftol2_sse
  00224	89 45 bc	 mov	 DWORD PTR _intY$[ebp], eax

; 3925 :         intP = 0.001 * intPhases[i] / dbPhaseStep;

  00227	8b 85 38 ff ff
	ff		 mov	 eax, DWORD PTR _i$[ebp]
  0022d	8b 4d 08	 mov	 ecx, DWORD PTR _intPhases$[ebp]
  00230	0f bf 14 41	 movsx	 edx, WORD PTR [ecx+eax*2]
  00234	89 95 58 fe ff
	ff		 mov	 DWORD PTR tv360[ebp], edx
  0023a	db 85 58 fe ff
	ff		 fild	 DWORD PTR tv360[ebp]
  00240	dc 0d 00 00 00
	00		 fmul	 QWORD PTR __real@3f50624dd2f1a9fc
  00246	d8 b5 74 ff ff
	ff		 fdiv	 DWORD PTR _dbPhaseStep$[ebp]
  0024c	e8 00 00 00 00	 call	 __ftol2_sse
  00251	89 45 b0	 mov	 DWORD PTR _intP$[ebp], eax

; 3926 : 
; 3927 : 		//' compute the Phase and Raduius errors
; 3928 : 
; 3929 : 		dblRadError += powf(dblAvgRad - intMags[i], 2); 

  00254	83 ec 08	 sub	 esp, 8
  00257	dd 05 00 00 00
	00		 fld	 QWORD PTR __real@4000000000000000
  0025d	dd 1c 24	 fstp	 QWORD PTR [esp]
  00260	8b 85 38 ff ff
	ff		 mov	 eax, DWORD PTR _i$[ebp]
  00266	8b 4d 0c	 mov	 ecx, DWORD PTR _intMags$[ebp]
  00269	0f bf 14 41	 movsx	 edx, WORD PTR [ecx+eax*2]
  0026d	89 95 58 fe ff
	ff		 mov	 DWORD PTR tv367[ebp], edx
  00273	db 85 58 fe ff
	ff		 fild	 DWORD PTR tv367[ebp]
  00279	d8 6d 98	 fsubr	 DWORD PTR _dblAvgRad$[ebp]
  0027c	83 ec 08	 sub	 esp, 8
  0027f	dd 1c 24	 fstp	 QWORD PTR [esp]
  00282	e8 00 00 00 00	 call	 _pow
  00287	83 c4 10	 add	 esp, 16			; 00000010H
  0028a	d9 9d 54 fe ff
	ff		 fstp	 DWORD PTR tv376[ebp]
  00290	d9 85 54 fe ff
	ff		 fld	 DWORD PTR tv376[ebp]
  00296	d8 85 68 ff ff
	ff		 fadd	 DWORD PTR _dblRadError$[ebp]
  0029c	d9 9d 68 ff ff
	ff		 fstp	 DWORD PTR _dblRadError$[ebp]

; 3930 : 		dblPhaseError = fabsf(((0.001 * intPhases[i]) - intP * dbPhaseStep)); // always positive and < .5 *  dblPhaseStep

  002a2	8b 85 38 ff ff
	ff		 mov	 eax, DWORD PTR _i$[ebp]
  002a8	8b 4d 08	 mov	 ecx, DWORD PTR _intPhases$[ebp]
  002ab	0f bf 14 41	 movsx	 edx, WORD PTR [ecx+eax*2]
  002af	89 95 58 fe ff
	ff		 mov	 DWORD PTR tv382[ebp], edx
  002b5	db 85 58 fe ff
	ff		 fild	 DWORD PTR tv382[ebp]
  002bb	dc 0d 00 00 00
	00		 fmul	 QWORD PTR __real@3f50624dd2f1a9fc
  002c1	db 45 b0	 fild	 DWORD PTR _intP$[ebp]
  002c4	d8 8d 74 ff ff
	ff		 fmul	 DWORD PTR _dbPhaseStep$[ebp]
  002ca	de e9		 fsubp	 ST(1), ST(0)
  002cc	83 ec 08	 sub	 esp, 8
  002cf	dd 1c 24	 fstp	 QWORD PTR [esp]
  002d2	e8 00 00 00 00	 call	 _fabs
  002d7	83 c4 08	 add	 esp, 8
  002da	d9 9d 54 fe ff
	ff		 fstp	 DWORD PTR tv392[ebp]
  002e0	d9 85 54 fe ff
	ff		 fld	 DWORD PTR tv392[ebp]
  002e6	d9 5d ec	 fstp	 DWORD PTR _dblPhaseError$[ebp]

; 3931 : 		dblPhaseErrorSum += dblPhaseError;

  002e9	d9 45 e0	 fld	 DWORD PTR _dblPhaseErrorSum$[ebp]
  002ec	d8 45 ec	 fadd	 DWORD PTR _dblPhaseError$[ebp]
  002ef	d9 5d e0	 fstp	 DWORD PTR _dblPhaseErrorSum$[ebp]

; 3932 : 
; 3933 :         // If intX <> xCenter And intY <> yCenter Then bmpConstellation.SetPixel(intX, intY, Color.Yellow) ' don't plot on top of axis
; 3934 : 	}

  002f2	e9 8f fe ff ff	 jmp	 $LN6@UpdatePhas
$LN5@UpdatePhas:

; 3935 : 
; 3936 : 	dblRadError = sqrtf(dblRadError / (intPhasesLength)) / dblAvgRad;

  002f7	db 05 00 00 00
	00		 fild	 DWORD PTR _intPhasesLength
  002fd	d8 bd 68 ff ff
	ff		 fdivr	 DWORD PTR _dblRadError$[ebp]
  00303	83 ec 08	 sub	 esp, 8
  00306	dd 1c 24	 fstp	 QWORD PTR [esp]
  00309	e8 00 00 00 00	 call	 _sqrt
  0030e	83 c4 08	 add	 esp, 8
  00311	d9 9d 58 fe ff
	ff		 fstp	 DWORD PTR tv401[ebp]
  00317	d9 85 58 fe ff
	ff		 fld	 DWORD PTR tv401[ebp]
  0031d	d8 75 98	 fdiv	 DWORD PTR _dblAvgRad$[ebp]
  00320	d9 9d 68 ff ff
	ff		 fstp	 DWORD PTR _dblRadError$[ebp]

; 3937 : 
; 3938 : 	intQuality =  max(0, ((100 - 200 * (dblPhaseErrorSum / (intPhasesLength)) / dbPhaseStep))); // ignore radius error for (PSK) but include for QAM

  00326	db 05 00 00 00
	00		 fild	 DWORD PTR _intPhasesLength
  0032c	d8 7d e0	 fdivr	 DWORD PTR _dblPhaseErrorSum$[ebp]
  0032f	dc 0d 00 00 00
	00		 fmul	 QWORD PTR __real@4069000000000000
  00335	d8 b5 74 ff ff
	ff		 fdiv	 DWORD PTR _dbPhaseStep$[ebp]
  0033b	dc 2d 00 00 00
	00		 fsubr	 QWORD PTR __real@4059000000000000
  00341	dc 1d 00 00 00
	00		 fcomp	 QWORD PTR __real@0000000000000000
  00347	df e0		 fnstsw	 ax
  00349	f6 c4 05	 test	 ah, 5
  0034c	7a 0a		 jp	 SHORT $LN19@UpdatePhas
  0034e	d9 ee		 fldz
  00350	dd 9d 54 fe ff
	ff		 fstp	 QWORD PTR tv247[ebp]
  00356	eb 21		 jmp	 SHORT $LN20@UpdatePhas
$LN19@UpdatePhas:
  00358	db 05 00 00 00
	00		 fild	 DWORD PTR _intPhasesLength
  0035e	d8 7d e0	 fdivr	 DWORD PTR _dblPhaseErrorSum$[ebp]
  00361	dc 0d 00 00 00
	00		 fmul	 QWORD PTR __real@4069000000000000
  00367	d8 b5 74 ff ff
	ff		 fdiv	 DWORD PTR _dbPhaseStep$[ebp]
  0036d	dc 2d 00 00 00
	00		 fsubr	 QWORD PTR __real@4059000000000000
  00373	dd 9d 54 fe ff
	ff		 fstp	 QWORD PTR tv247[ebp]
$LN20@UpdatePhas:
  00379	dd 85 54 fe ff
	ff		 fld	 QWORD PTR tv247[ebp]
  0037f	e8 00 00 00 00	 call	 __ftol2_sse
  00384	89 85 20 ff ff
	ff		 mov	 DWORD PTR _intQuality$[ebp], eax

; 3939 :     
; 3940 : 	if (blnQAM) 

  0038a	83 7d 14 00	 cmp	 DWORD PTR _blnQAM$[ebp], 0
  0038e	74 38		 je	 SHORT $LN4@UpdatePhas

; 3941 : 	{
; 3942 : 		if (AccumulateStats)

  00390	83 3d 00 00 00
	00 00		 cmp	 DWORD PTR _AccumulateStats, 0
  00397	74 2d		 je	 SHORT $LN3@UpdatePhas

; 3943 : 		{
; 3944 : 			intQAMQualityCnts += 1;

  00399	a1 00 00 00 00	 mov	 eax, DWORD PTR _intQAMQualityCnts
  0039e	83 c0 01	 add	 eax, 1
  003a1	a3 00 00 00 00	 mov	 DWORD PTR _intQAMQualityCnts, eax

; 3945 : 			intQAMQuality += intQuality;

  003a6	a1 00 00 00 00	 mov	 eax, DWORD PTR _intQAMQuality
  003ab	03 85 20 ff ff
	ff		 add	 eax, DWORD PTR _intQuality$[ebp]
  003b1	a3 00 00 00 00	 mov	 DWORD PTR _intQAMQuality, eax

; 3946 : 			intQAMSymbolsDecoded += intPhasesLength;

  003b6	a1 00 00 00 00	 mov	 eax, DWORD PTR _intQAMSymbolsDecoded
  003bb	03 05 00 00 00
	00		 add	 eax, DWORD PTR _intPhasesLength
  003c1	a3 00 00 00 00	 mov	 DWORD PTR _intQAMSymbolsDecoded, eax
$LN3@UpdatePhas:

; 3947 : 		}
; 3948 : 	}
; 3949 : 	else

  003c6	eb 4a		 jmp	 SHORT $LN1@UpdatePhas
$LN4@UpdatePhas:

; 3950 : 	{
; 3951 : 		if (AccumulateStats)

  003c8	83 3d 00 00 00
	00 00		 cmp	 DWORD PTR _AccumulateStats, 0
  003cf	74 41		 je	 SHORT $LN1@UpdatePhas

; 3952 : 		{
; 3953 : 			intPSKQualityCnts[intPSKIndex] += 1;

  003d1	8b 45 d4	 mov	 eax, DWORD PTR _intPSKIndex$[ebp]
  003d4	8b 0c 85 00 00
	00 00		 mov	 ecx, DWORD PTR _intPSKQualityCnts[eax*4]
  003db	83 c1 01	 add	 ecx, 1
  003de	8b 55 d4	 mov	 edx, DWORD PTR _intPSKIndex$[ebp]
  003e1	89 0c 95 00 00
	00 00		 mov	 DWORD PTR _intPSKQualityCnts[edx*4], ecx

; 3954 : 			intPSKQuality[intPSKIndex] += intQuality;

  003e8	8b 45 d4	 mov	 eax, DWORD PTR _intPSKIndex$[ebp]
  003eb	8b 0c 85 00 00
	00 00		 mov	 ecx, DWORD PTR _intPSKQuality[eax*4]
  003f2	03 8d 20 ff ff
	ff		 add	 ecx, DWORD PTR _intQuality$[ebp]
  003f8	8b 55 d4	 mov	 edx, DWORD PTR _intPSKIndex$[ebp]
  003fb	89 0c 95 00 00
	00 00		 mov	 DWORD PTR _intPSKQuality[edx*4], ecx

; 3955 : 			intPSKSymbolsDecoded += intPhasesLength;

  00402	a1 00 00 00 00	 mov	 eax, DWORD PTR _intPSKSymbolsDecoded
  00407	03 05 00 00 00
	00		 add	 eax, DWORD PTR _intPhasesLength
  0040d	a3 00 00 00 00	 mov	 DWORD PTR _intPSKSymbolsDecoded, eax
$LN1@UpdatePhas:

; 3956 : 		}
; 3957 : 	}		//include Radius error for QAM ...Lifted from WINMOR....may need work
; 3958 :         //        return = CInt(Math.Max(0, (1 - dblRadError) * (100 - 200 * (dblPhaseErrorSum / (intPhases.Length - 1)) / dbPhaseStep)))
; 3959 : 	//       ' This gives good quality with probable seccessful decoding threshold around quality value of 60 to 70
; 3960 : 
; 3961 : 	return  max(0, ((100 - 200 * (dblPhaseErrorSum / (intPhasesLength)) / dbPhaseStep))); // ignore radius error for (PSK) but include for QAM

  00412	db 05 00 00 00
	00		 fild	 DWORD PTR _intPhasesLength
  00418	d8 7d e0	 fdivr	 DWORD PTR _dblPhaseErrorSum$[ebp]
  0041b	dc 0d 00 00 00
	00		 fmul	 QWORD PTR __real@4069000000000000
  00421	d8 b5 74 ff ff
	ff		 fdiv	 DWORD PTR _dbPhaseStep$[ebp]
  00427	dc 2d 00 00 00
	00		 fsubr	 QWORD PTR __real@4059000000000000
  0042d	dc 1d 00 00 00
	00		 fcomp	 QWORD PTR __real@0000000000000000
  00433	df e0		 fnstsw	 ax
  00435	f6 c4 05	 test	 ah, 5
  00438	7a 0a		 jp	 SHORT $LN21@UpdatePhas
  0043a	d9 ee		 fldz
  0043c	dd 9d 54 fe ff
	ff		 fstp	 QWORD PTR tv291[ebp]
  00442	eb 21		 jmp	 SHORT $LN22@UpdatePhas
$LN21@UpdatePhas:
  00444	db 05 00 00 00
	00		 fild	 DWORD PTR _intPhasesLength
  0044a	d8 7d e0	 fdivr	 DWORD PTR _dblPhaseErrorSum$[ebp]
  0044d	dc 0d 00 00 00
	00		 fmul	 QWORD PTR __real@4069000000000000
  00453	d8 b5 74 ff ff
	ff		 fdiv	 DWORD PTR _dbPhaseStep$[ebp]
  00459	dc 2d 00 00 00
	00		 fsubr	 QWORD PTR __real@4059000000000000
  0045f	dd 9d 54 fe ff
	ff		 fstp	 QWORD PTR tv291[ebp]
$LN22@UpdatePhas:
  00465	dd 85 54 fe ff
	ff		 fld	 QWORD PTR tv291[ebp]
  0046b	e8 00 00 00 00	 call	 __ftol2_sse

; 3962 : 	//        'Debug.WriteLine("  Avg Radius Error: " & Format(dblRadError, "0.0"))
; 3963 : 
; 3964 :          // stcStatus.ControlName = "lblQuality"
; 3965 :            // stcStatus.Text = strMod & " Quality: " & intQuality.ToString
; 3966 :            // queTNCStatus.Enqueue(stcStatus)
; 3967 :            // stcStatus.ControlName = "ConstellationPlot"
; 3968 :            // queTNCStatus.Enqueue(stcStatus)
; 3969 : }

  00470	5f		 pop	 edi
  00471	5e		 pop	 esi
  00472	5b		 pop	 ebx
  00473	81 c4 b4 01 00
	00		 add	 esp, 436		; 000001b4H
  00479	3b ec		 cmp	 ebp, esp
  0047b	e8 00 00 00 00	 call	 __RTC_CheckEsp
  00480	8b e5		 mov	 esp, ebp
  00482	5d		 pop	 ebp
  00483	c3		 ret	 0
_UpdatePhaseConstellation ENDP
_TEXT	ENDS
PUBLIC	_Track1Car4FSK
EXTRN	_intAccumFSKTracking:DWORD
; Function compile flags: /Odtp /RTCsu /ZI
;	COMDAT _Track1Car4FSK
_TEXT	SEGMENT
tv282 = -280						; size = 4
tv255 = -280						; size = 4
tv228 = -280						; size = 4
tv309 = -276						; size = 8
tv307 = -276						; size = 8
tv305 = -276						; size = 8
tv274 = -268						; size = 4
tv247 = -268						; size = 4
tv220 = -268						; size = 4
tv201 = -268						; size = 4
_dblBinToSearch$ = -68					; size = 4
_dblMagLate$ = -56					; size = 4
_dblMag$ = -44						; size = 4
_dblMagEarly$ = -32					; size = 4
_dblImag$ = -20						; size = 4
_dblReal$ = -8						; size = 4
_intSamples$ = 8					; size = 4
_intPtr$ = 12						; size = 4
_intSampPerSymbol$ = 16					; size = 4
_dblSearchFreq$ = 20					; size = 4
_intBaud$ = 24						; size = 4
_bytSymHistory$ = 28					; size = 4
_Track1Car4FSK PROC					; COMDAT

; 3976 : {

  00000	55		 push	 ebp
  00001	8b ec		 mov	 ebp, esp
  00003	81 ec 18 01 00
	00		 sub	 esp, 280		; 00000118H
  00009	53		 push	 ebx
  0000a	56		 push	 esi
  0000b	57		 push	 edi
  0000c	8d bd e8 fe ff
	ff		 lea	 edi, DWORD PTR [ebp-280]
  00012	b9 46 00 00 00	 mov	 ecx, 70			; 00000046H
  00017	b8 cc cc cc cc	 mov	 eax, -858993460		; ccccccccH
  0001c	f3 ab		 rep stosd

; 3977 : 	// look at magnitude of the tone for bytHistory(1)  2 sample2 earlier and 2 samples later.  and pick the maximum adjusting intPtr + or - 1
; 3978 : 	// this seems to work fine on test Mar 16, 2015. This should handle sample rate offsets (sender to receiver) up to about 2000 ppm
; 3979 : 
; 3980 : 	float dblReal, dblImag, dblMagEarly, dblMag, dblMagLate;
; 3981 : 	float dblBinToSearch = (dblSearchFreq - (intBaud * bytSymHistory[1])) / intBaud; //  select the 2nd last symbol for magnitude comparison

  0001e	8b 45 1c	 mov	 eax, DWORD PTR _bytSymHistory$[ebp]
  00021	0f b6 48 01	 movzx	 ecx, BYTE PTR [eax+1]
  00025	0f af 4d 18	 imul	 ecx, DWORD PTR _intBaud$[ebp]
  00029	89 8d f4 fe ff
	ff		 mov	 DWORD PTR tv201[ebp], ecx
  0002f	db 85 f4 fe ff
	ff		 fild	 DWORD PTR tv201[ebp]
  00035	d8 6d 14	 fsubr	 DWORD PTR _dblSearchFreq$[ebp]
  00038	da 75 18	 fidiv	 DWORD PTR _intBaud$[ebp]
  0003b	d9 5d bc	 fstp	 DWORD PTR _dblBinToSearch$[ebp]

; 3982 : 
; 3983 : 
; 3984 : 	GoertzelRealImag(intSamples, (*intPtr - intSampPerSymbol - 2), intSampPerSymbol, dblBinToSearch, &dblReal, &dblImag);

  0003e	8d 45 ec	 lea	 eax, DWORD PTR _dblImag$[ebp]
  00041	50		 push	 eax
  00042	8d 4d f8	 lea	 ecx, DWORD PTR _dblReal$[ebp]
  00045	51		 push	 ecx
  00046	51		 push	 ecx
  00047	d9 45 bc	 fld	 DWORD PTR _dblBinToSearch$[ebp]
  0004a	d9 1c 24	 fstp	 DWORD PTR [esp]
  0004d	8b 55 10	 mov	 edx, DWORD PTR _intSampPerSymbol$[ebp]
  00050	52		 push	 edx
  00051	8b 45 0c	 mov	 eax, DWORD PTR _intPtr$[ebp]
  00054	8b 08		 mov	 ecx, DWORD PTR [eax]
  00056	2b 4d 10	 sub	 ecx, DWORD PTR _intSampPerSymbol$[ebp]
  00059	83 e9 02	 sub	 ecx, 2
  0005c	51		 push	 ecx
  0005d	8b 55 08	 mov	 edx, DWORD PTR _intSamples$[ebp]
  00060	52		 push	 edx
  00061	e8 00 00 00 00	 call	 _GoertzelRealImag
  00066	83 c4 18	 add	 esp, 24			; 00000018H

; 3985 : 	dblMagEarly = powf(dblReal, 2) + powf(dblImag, 2);

  00069	83 ec 08	 sub	 esp, 8
  0006c	dd 05 00 00 00
	00		 fld	 QWORD PTR __real@4000000000000000
  00072	dd 1c 24	 fstp	 QWORD PTR [esp]
  00075	d9 45 f8	 fld	 DWORD PTR _dblReal$[ebp]
  00078	83 ec 08	 sub	 esp, 8
  0007b	dd 1c 24	 fstp	 QWORD PTR [esp]
  0007e	e8 00 00 00 00	 call	 _pow
  00083	83 c4 10	 add	 esp, 16			; 00000010H
  00086	d9 9d f4 fe ff
	ff		 fstp	 DWORD PTR tv220[ebp]
  0008c	d9 85 f4 fe ff
	ff		 fld	 DWORD PTR tv220[ebp]
  00092	83 ec 08	 sub	 esp, 8
  00095	dd 05 00 00 00
	00		 fld	 QWORD PTR __real@4000000000000000
  0009b	dd 1c 24	 fstp	 QWORD PTR [esp]
  0009e	d9 45 ec	 fld	 DWORD PTR _dblImag$[ebp]
  000a1	83 ec 08	 sub	 esp, 8
  000a4	dd 1c 24	 fstp	 QWORD PTR [esp]
  000a7	dd 9d ec fe ff
	ff		 fstp	 QWORD PTR tv305[ebp]
  000ad	e8 00 00 00 00	 call	 _pow
  000b2	83 c4 10	 add	 esp, 16			; 00000010H
  000b5	d9 9d e8 fe ff
	ff		 fstp	 DWORD PTR tv228[ebp]
  000bb	d9 85 e8 fe ff
	ff		 fld	 DWORD PTR tv228[ebp]
  000c1	dc 85 ec fe ff
	ff		 fadd	 QWORD PTR tv305[ebp]
  000c7	d9 5d e0	 fstp	 DWORD PTR _dblMagEarly$[ebp]

; 3986 : 	GoertzelRealImag(intSamples, (*intPtr - intSampPerSymbol), intSampPerSymbol, dblBinToSearch, &dblReal, &dblImag);

  000ca	8d 45 ec	 lea	 eax, DWORD PTR _dblImag$[ebp]
  000cd	50		 push	 eax
  000ce	8d 4d f8	 lea	 ecx, DWORD PTR _dblReal$[ebp]
  000d1	51		 push	 ecx
  000d2	51		 push	 ecx
  000d3	d9 45 bc	 fld	 DWORD PTR _dblBinToSearch$[ebp]
  000d6	d9 1c 24	 fstp	 DWORD PTR [esp]
  000d9	8b 55 10	 mov	 edx, DWORD PTR _intSampPerSymbol$[ebp]
  000dc	52		 push	 edx
  000dd	8b 45 0c	 mov	 eax, DWORD PTR _intPtr$[ebp]
  000e0	8b 08		 mov	 ecx, DWORD PTR [eax]
  000e2	2b 4d 10	 sub	 ecx, DWORD PTR _intSampPerSymbol$[ebp]
  000e5	51		 push	 ecx
  000e6	8b 55 08	 mov	 edx, DWORD PTR _intSamples$[ebp]
  000e9	52		 push	 edx
  000ea	e8 00 00 00 00	 call	 _GoertzelRealImag
  000ef	83 c4 18	 add	 esp, 24			; 00000018H

; 3987 : 	dblMag = powf(dblReal, 2) + powf(dblImag, 2);

  000f2	83 ec 08	 sub	 esp, 8
  000f5	dd 05 00 00 00
	00		 fld	 QWORD PTR __real@4000000000000000
  000fb	dd 1c 24	 fstp	 QWORD PTR [esp]
  000fe	d9 45 f8	 fld	 DWORD PTR _dblReal$[ebp]
  00101	83 ec 08	 sub	 esp, 8
  00104	dd 1c 24	 fstp	 QWORD PTR [esp]
  00107	e8 00 00 00 00	 call	 _pow
  0010c	83 c4 10	 add	 esp, 16			; 00000010H
  0010f	d9 9d f4 fe ff
	ff		 fstp	 DWORD PTR tv247[ebp]
  00115	d9 85 f4 fe ff
	ff		 fld	 DWORD PTR tv247[ebp]
  0011b	83 ec 08	 sub	 esp, 8
  0011e	dd 05 00 00 00
	00		 fld	 QWORD PTR __real@4000000000000000
  00124	dd 1c 24	 fstp	 QWORD PTR [esp]
  00127	d9 45 ec	 fld	 DWORD PTR _dblImag$[ebp]
  0012a	83 ec 08	 sub	 esp, 8
  0012d	dd 1c 24	 fstp	 QWORD PTR [esp]
  00130	dd 9d ec fe ff
	ff		 fstp	 QWORD PTR tv307[ebp]
  00136	e8 00 00 00 00	 call	 _pow
  0013b	83 c4 10	 add	 esp, 16			; 00000010H
  0013e	d9 9d e8 fe ff
	ff		 fstp	 DWORD PTR tv255[ebp]
  00144	d9 85 e8 fe ff
	ff		 fld	 DWORD PTR tv255[ebp]
  0014a	dc 85 ec fe ff
	ff		 fadd	 QWORD PTR tv307[ebp]
  00150	d9 5d d4	 fstp	 DWORD PTR _dblMag$[ebp]

; 3988 : 	GoertzelRealImag(intSamples, (*intPtr - intSampPerSymbol + 2), intSampPerSymbol, dblBinToSearch, &dblReal, &dblImag);

  00153	8d 45 ec	 lea	 eax, DWORD PTR _dblImag$[ebp]
  00156	50		 push	 eax
  00157	8d 4d f8	 lea	 ecx, DWORD PTR _dblReal$[ebp]
  0015a	51		 push	 ecx
  0015b	51		 push	 ecx
  0015c	d9 45 bc	 fld	 DWORD PTR _dblBinToSearch$[ebp]
  0015f	d9 1c 24	 fstp	 DWORD PTR [esp]
  00162	8b 55 10	 mov	 edx, DWORD PTR _intSampPerSymbol$[ebp]
  00165	52		 push	 edx
  00166	8b 45 0c	 mov	 eax, DWORD PTR _intPtr$[ebp]
  00169	8b 08		 mov	 ecx, DWORD PTR [eax]
  0016b	2b 4d 10	 sub	 ecx, DWORD PTR _intSampPerSymbol$[ebp]
  0016e	83 c1 02	 add	 ecx, 2
  00171	51		 push	 ecx
  00172	8b 55 08	 mov	 edx, DWORD PTR _intSamples$[ebp]
  00175	52		 push	 edx
  00176	e8 00 00 00 00	 call	 _GoertzelRealImag
  0017b	83 c4 18	 add	 esp, 24			; 00000018H

; 3989 : 	dblMagLate = powf(dblReal, 2) + powf(dblImag, 2);

  0017e	83 ec 08	 sub	 esp, 8
  00181	dd 05 00 00 00
	00		 fld	 QWORD PTR __real@4000000000000000
  00187	dd 1c 24	 fstp	 QWORD PTR [esp]
  0018a	d9 45 f8	 fld	 DWORD PTR _dblReal$[ebp]
  0018d	83 ec 08	 sub	 esp, 8
  00190	dd 1c 24	 fstp	 QWORD PTR [esp]
  00193	e8 00 00 00 00	 call	 _pow
  00198	83 c4 10	 add	 esp, 16			; 00000010H
  0019b	d9 9d f4 fe ff
	ff		 fstp	 DWORD PTR tv274[ebp]
  001a1	d9 85 f4 fe ff
	ff		 fld	 DWORD PTR tv274[ebp]
  001a7	83 ec 08	 sub	 esp, 8
  001aa	dd 05 00 00 00
	00		 fld	 QWORD PTR __real@4000000000000000
  001b0	dd 1c 24	 fstp	 QWORD PTR [esp]
  001b3	d9 45 ec	 fld	 DWORD PTR _dblImag$[ebp]
  001b6	83 ec 08	 sub	 esp, 8
  001b9	dd 1c 24	 fstp	 QWORD PTR [esp]
  001bc	dd 9d ec fe ff
	ff		 fstp	 QWORD PTR tv309[ebp]
  001c2	e8 00 00 00 00	 call	 _pow
  001c7	83 c4 10	 add	 esp, 16			; 00000010H
  001ca	d9 9d e8 fe ff
	ff		 fstp	 DWORD PTR tv282[ebp]
  001d0	d9 85 e8 fe ff
	ff		 fld	 DWORD PTR tv282[ebp]
  001d6	dc 85 ec fe ff
	ff		 fadd	 QWORD PTR tv309[ebp]
  001dc	d9 5d c8	 fstp	 DWORD PTR _dblMagLate$[ebp]

; 3990 : 
; 3991 : 	if (dblMagEarly > dblMag && dblMagEarly > dblMagLate)

  001df	d9 45 e0	 fld	 DWORD PTR _dblMagEarly$[ebp]
  001e2	d9 45 d4	 fld	 DWORD PTR _dblMag$[ebp]
  001e5	de d9		 fcompp
  001e7	df e0		 fnstsw	 ax
  001e9	f6 c4 05	 test	 ah, 5
  001ec	7a 3d		 jp	 SHORT $LN5@Track1Car4
  001ee	d9 45 e0	 fld	 DWORD PTR _dblMagEarly$[ebp]
  001f1	d9 45 c8	 fld	 DWORD PTR _dblMagLate$[ebp]
  001f4	de d9		 fcompp
  001f6	df e0		 fnstsw	 ax
  001f8	f6 c4 05	 test	 ah, 5
  001fb	7a 2e		 jp	 SHORT $LN5@Track1Car4

; 3992 : 	{
; 3993 : 		*intPtr --;

  001fd	8b 45 0c	 mov	 eax, DWORD PTR _intPtr$[ebp]
  00200	83 e8 04	 sub	 eax, 4
  00203	89 45 0c	 mov	 DWORD PTR _intPtr$[ebp], eax

; 3994 : 		Corrections--;

  00206	a1 00 00 00 00	 mov	 eax, DWORD PTR _Corrections
  0020b	83 e8 01	 sub	 eax, 1
  0020e	a3 00 00 00 00	 mov	 DWORD PTR _Corrections, eax

; 3995 : 		if (AccumulateStats)

  00213	83 3d 00 00 00
	00 00		 cmp	 DWORD PTR _AccumulateStats, 0
  0021a	74 0d		 je	 SHORT $LN4@Track1Car4

; 3996 : 			intAccumFSKTracking--;

  0021c	a1 00 00 00 00	 mov	 eax, DWORD PTR _intAccumFSKTracking
  00221	83 e8 01	 sub	 eax, 1
  00224	a3 00 00 00 00	 mov	 DWORD PTR _intAccumFSKTracking, eax
$LN4@Track1Car4:

; 3997 : 	}
; 3998 : 	else if (dblMagLate > dblMag && dblMagLate > dblMagEarly)

  00229	eb 4a		 jmp	 SHORT $LN1@Track1Car4
$LN5@Track1Car4:
  0022b	d9 45 c8	 fld	 DWORD PTR _dblMagLate$[ebp]
  0022e	d9 45 d4	 fld	 DWORD PTR _dblMag$[ebp]
  00231	de d9		 fcompp
  00233	df e0		 fnstsw	 ax
  00235	f6 c4 05	 test	 ah, 5
  00238	7a 3b		 jp	 SHORT $LN1@Track1Car4
  0023a	d9 45 c8	 fld	 DWORD PTR _dblMagLate$[ebp]
  0023d	d9 45 e0	 fld	 DWORD PTR _dblMagEarly$[ebp]
  00240	de d9		 fcompp
  00242	df e0		 fnstsw	 ax
  00244	f6 c4 05	 test	 ah, 5
  00247	7a 2c		 jp	 SHORT $LN1@Track1Car4

; 3999 : 	{
; 4000 : 		*intPtr ++;

  00249	8b 45 0c	 mov	 eax, DWORD PTR _intPtr$[ebp]
  0024c	83 c0 04	 add	 eax, 4
  0024f	89 45 0c	 mov	 DWORD PTR _intPtr$[ebp], eax

; 4001 : 		Corrections++;

  00252	a1 00 00 00 00	 mov	 eax, DWORD PTR _Corrections
  00257	83 c0 01	 add	 eax, 1
  0025a	a3 00 00 00 00	 mov	 DWORD PTR _Corrections, eax

; 4002 : 		if (AccumulateStats)

  0025f	83 3d 00 00 00
	00 00		 cmp	 DWORD PTR _AccumulateStats, 0
  00266	74 0d		 je	 SHORT $LN1@Track1Car4

; 4003 : 			intAccumFSKTracking++;

  00268	a1 00 00 00 00	 mov	 eax, DWORD PTR _intAccumFSKTracking
  0026d	83 c0 01	 add	 eax, 1
  00270	a3 00 00 00 00	 mov	 DWORD PTR _intAccumFSKTracking, eax
$LN1@Track1Car4:

; 4004 : 	}
; 4005 : }

  00275	52		 push	 edx
  00276	8b cd		 mov	 ecx, ebp
  00278	50		 push	 eax
  00279	8d 15 00 00 00
	00		 lea	 edx, DWORD PTR $LN11@Track1Car4
  0027f	e8 00 00 00 00	 call	 @_RTC_CheckStackVars@8
  00284	58		 pop	 eax
  00285	5a		 pop	 edx
  00286	5f		 pop	 edi
  00287	5e		 pop	 esi
  00288	5b		 pop	 ebx
  00289	81 c4 18 01 00
	00		 add	 esp, 280		; 00000118H
  0028f	3b ec		 cmp	 ebp, esp
  00291	e8 00 00 00 00	 call	 __RTC_CheckEsp
  00296	8b e5		 mov	 esp, ebp
  00298	5d		 pop	 ebp
  00299	c3		 ret	 0
  0029a	8b ff		 npad	 2
$LN11@Track1Car4:
  0029c	02 00 00 00	 DD	 2
  002a0	00 00 00 00	 DD	 $LN10@Track1Car4
$LN10@Track1Car4:
  002a4	f8 ff ff ff	 DD	 -8			; fffffff8H
  002a8	04 00 00 00	 DD	 4
  002ac	00 00 00 00	 DD	 $LN8@Track1Car4
  002b0	ec ff ff ff	 DD	 -20			; ffffffecH
  002b4	04 00 00 00	 DD	 4
  002b8	00 00 00 00	 DD	 $LN9@Track1Car4
$LN9@Track1Car4:
  002bc	64		 DB	 100			; 00000064H
  002bd	62		 DB	 98			; 00000062H
  002be	6c		 DB	 108			; 0000006cH
  002bf	49		 DB	 73			; 00000049H
  002c0	6d		 DB	 109			; 0000006dH
  002c1	61		 DB	 97			; 00000061H
  002c2	67		 DB	 103			; 00000067H
  002c3	00		 DB	 0
$LN8@Track1Car4:
  002c4	64		 DB	 100			; 00000064H
  002c5	62		 DB	 98			; 00000062H
  002c6	6c		 DB	 108			; 0000006cH
  002c7	52		 DB	 82			; 00000052H
  002c8	65		 DB	 101			; 00000065H
  002c9	61		 DB	 97			; 00000061H
  002ca	6c		 DB	 108			; 0000006cH
  002cb	00		 DB	 0
_Track1Car4FSK ENDP
_TEXT	ENDS
PUBLIC	_Decode1CarPSKChar
; Function compile flags: /Odtp /RTCsu /ZI
;	COMDAT _Decode1CarPSKChar
_TEXT	SEGMENT
tv67 = -256						; size = 4
$T7852 = -245						; size = 1
_Start$ = -44						; size = 4
_k$ = -32						; size = 4
_bytRawData$ = -17					; size = 1
_int24Bits$ = -8					; size = 4
_Decoded$ = 8						; size = 4
_Carrier$ = 12						; size = 4
_Decode1CarPSKChar PROC					; COMDAT

; 4015 : {

  00000	55		 push	 ebp
  00001	8b ec		 mov	 ebp, esp
  00003	81 ec 00 01 00
	00		 sub	 esp, 256		; 00000100H
  00009	53		 push	 ebx
  0000a	56		 push	 esi
  0000b	57		 push	 edi
  0000c	8d bd 00 ff ff
	ff		 lea	 edi, DWORD PTR [ebp-256]
  00012	b9 40 00 00 00	 mov	 ecx, 64			; 00000040H
  00017	b8 cc cc cc cc	 mov	 eax, -858993460		; ccccccccH
  0001c	f3 ab		 rep stosd
  0001e	c6 85 0b ff ff
	ff 00		 mov	 BYTE PTR $T7852[ebp], 0

; 4016 : 	unsigned int int24Bits;
; 4017 : 	UCHAR bytRawData;
; 4018 : 	int k;
; 4019 : 	int Start = 0;

  00025	c7 45 d4 00 00
	00 00		 mov	 DWORD PTR _Start$[ebp], 0

; 4020 : 
; 4021 : 	if (CarrierOk[Carrier])	// Already decoded this carrier?

  0002c	8b 45 0c	 mov	 eax, DWORD PTR _Carrier$[ebp]
  0002f	0f be 88 00 00
	00 00		 movsx	 ecx, BYTE PTR _CarrierOk[eax]
  00036	85 c9		 test	 ecx, ecx
  00038	74 05		 je	 SHORT $LN35@Decode1Car

; 4022 : 		return;							// don't do it again

  0003a	e9 2b 04 00 00	 jmp	 $LN36@Decode1Car
$LN35@Decode1Car:

; 4023 : 
; 4024 : 	// Phase Samples are in intPhases
; 4025 : 
; 4026 : 	switch (intPSKMode)

  0003f	a1 00 00 00 00	 mov	 eax, DWORD PTR _intPSKMode
  00044	89 85 00 ff ff
	ff		 mov	 DWORD PTR tv67[ebp], eax
  0004a	83 bd 00 ff ff
	ff 04		 cmp	 DWORD PTR tv67[ebp], 4
  00051	74 12		 je	 SHORT $LN32@Decode1Car
  00053	83 bd 00 ff ff
	ff 08		 cmp	 DWORD PTR tv67[ebp], 8
  0005a	0f 84 ba 01 00
	00		 je	 $LN19@Decode1Car
  00060	e9 05 04 00 00	 jmp	 $LN36@Decode1Car
$LN32@Decode1Car:

; 4027 : 	{
; 4028 : 	case 4:		// process 4 sequential phases per byte (2 bits per phase)
; 4029 : 
; 4030 : 		for (k = 0; k < 4; k++)

  00065	c7 45 e0 00 00
	00 00		 mov	 DWORD PTR _k$[ebp], 0
  0006c	eb 09		 jmp	 SHORT $LN31@Decode1Car
$LN30@Decode1Car:
  0006e	8b 45 e0	 mov	 eax, DWORD PTR _k$[ebp]
  00071	83 c0 01	 add	 eax, 1
  00074	89 45 e0	 mov	 DWORD PTR _k$[ebp], eax
$LN31@Decode1Car:
  00077	83 7d e0 04	 cmp	 DWORD PTR _k$[ebp], 4
  0007b	0f 8d 70 01 00
	00		 jge	 $LN29@Decode1Car

; 4031 : 		{
; 4032 : 			if (k == 0)

  00081	83 7d e0 00	 cmp	 DWORD PTR _k$[ebp], 0
  00085	75 0d		 jne	 SHORT $LN28@Decode1Car

; 4033 : 				bytRawData = 0;

  00087	c6 85 0b ff ff
	ff 01		 mov	 BYTE PTR $T7852[ebp], 1
  0008e	c6 45 ef 00	 mov	 BYTE PTR _bytRawData$[ebp], 0

; 4034 : 			else

  00092	eb 26		 jmp	 SHORT $LN27@Decode1Car
$LN28@Decode1Car:

; 4035 : 				bytRawData <<= 2;

  00094	80 bd 0b ff ff
	ff 00		 cmp	 BYTE PTR $T7852[ebp], 0
  0009b	75 0d		 jne	 SHORT $LN38@Decode1Car
  0009d	68 00 00 00 00	 push	 OFFSET $LN39@Decode1Car
  000a2	e8 00 00 00 00	 call	 __RTC_UninitUse
  000a7	83 c4 04	 add	 esp, 4
$LN38@Decode1Car:
  000aa	8a 45 ef	 mov	 al, BYTE PTR _bytRawData$[ebp]
  000ad	c0 e0 02	 shl	 al, 2
  000b0	c6 85 0b ff ff
	ff 01		 mov	 BYTE PTR $T7852[ebp], 1
  000b7	88 45 ef	 mov	 BYTE PTR _bytRawData$[ebp], al
$LN27@Decode1Car:

; 4036 : 			
; 4037 : 			if (intPhases[Carrier][Start] < 786 && intPhases[Carrier][Start] > -786)

  000ba	8b 45 0c	 mov	 eax, DWORD PTR _Carrier$[ebp]
  000bd	69 c0 18 05 00
	00		 imul	 eax, 1304		; 00000518H
  000c3	8b 4d d4	 mov	 ecx, DWORD PTR _Start$[ebp]
  000c6	0f bf 94 48 00
	00 00 00	 movsx	 edx, WORD PTR _intPhases[eax+ecx*2]
  000ce	81 fa 12 03 00
	00		 cmp	 edx, 786		; 00000312H
  000d4	7d 21		 jge	 SHORT $LN26@Decode1Car
  000d6	8b 45 0c	 mov	 eax, DWORD PTR _Carrier$[ebp]
  000d9	69 c0 18 05 00
	00		 imul	 eax, 1304		; 00000518H
  000df	8b 4d d4	 mov	 ecx, DWORD PTR _Start$[ebp]
  000e2	0f bf 94 48 00
	00 00 00	 movsx	 edx, WORD PTR _intPhases[eax+ecx*2]
  000ea	81 fa ee fc ff
	ff		 cmp	 edx, -786		; fffffceeH
  000f0	7e 05		 jle	 SHORT $LN26@Decode1Car
  000f2	e9 ec 00 00 00	 jmp	 $LN25@Decode1Car
$LN26@Decode1Car:

; 4038 : 			{
; 4039 : 			}		// Zero so no need to do anything
; 4040 : 			else if (intPhases[Carrier][Start] >= 786 && intPhases[Carrier][Start] < 2356)

  000f7	8b 45 0c	 mov	 eax, DWORD PTR _Carrier$[ebp]
  000fa	69 c0 18 05 00
	00		 imul	 eax, 1304		; 00000518H
  00100	8b 4d d4	 mov	 ecx, DWORD PTR _Start$[ebp]
  00103	0f bf 94 48 00
	00 00 00	 movsx	 edx, WORD PTR _intPhases[eax+ecx*2]
  0010b	81 fa 12 03 00
	00		 cmp	 edx, 786		; 00000312H
  00111	7c 48		 jl	 SHORT $LN24@Decode1Car
  00113	8b 45 0c	 mov	 eax, DWORD PTR _Carrier$[ebp]
  00116	69 c0 18 05 00
	00		 imul	 eax, 1304		; 00000518H
  0011c	8b 4d d4	 mov	 ecx, DWORD PTR _Start$[ebp]
  0011f	0f bf 94 48 00
	00 00 00	 movsx	 edx, WORD PTR _intPhases[eax+ecx*2]
  00127	81 fa 34 09 00
	00		 cmp	 edx, 2356		; 00000934H
  0012d	7d 2c		 jge	 SHORT $LN24@Decode1Car

; 4041 : 				bytRawData += 1;

  0012f	80 bd 0b ff ff
	ff 00		 cmp	 BYTE PTR $T7852[ebp], 0
  00136	75 0d		 jne	 SHORT $LN40@Decode1Car
  00138	68 00 00 00 00	 push	 OFFSET $LN39@Decode1Car
  0013d	e8 00 00 00 00	 call	 __RTC_UninitUse
  00142	83 c4 04	 add	 esp, 4
$LN40@Decode1Car:
  00145	0f b6 45 ef	 movzx	 eax, BYTE PTR _bytRawData$[ebp]
  00149	83 c0 01	 add	 eax, 1
  0014c	c6 85 0b ff ff
	ff 01		 mov	 BYTE PTR $T7852[ebp], 1
  00153	88 45 ef	 mov	 BYTE PTR _bytRawData$[ebp], al
  00156	e9 88 00 00 00	 jmp	 $LN25@Decode1Car
$LN24@Decode1Car:

; 4042 : 			else if (intPhases[Carrier][Start] >= 2356 || intPhases[Carrier][Start] <= -2356)

  0015b	8b 45 0c	 mov	 eax, DWORD PTR _Carrier$[ebp]
  0015e	69 c0 18 05 00
	00		 imul	 eax, 1304		; 00000518H
  00164	8b 4d d4	 mov	 ecx, DWORD PTR _Start$[ebp]
  00167	0f bf 94 48 00
	00 00 00	 movsx	 edx, WORD PTR _intPhases[eax+ecx*2]
  0016f	81 fa 34 09 00
	00		 cmp	 edx, 2356		; 00000934H
  00175	7d 1c		 jge	 SHORT $LN21@Decode1Car
  00177	8b 45 0c	 mov	 eax, DWORD PTR _Carrier$[ebp]
  0017a	69 c0 18 05 00
	00		 imul	 eax, 1304		; 00000518H
  00180	8b 4d d4	 mov	 ecx, DWORD PTR _Start$[ebp]
  00183	0f bf 94 48 00
	00 00 00	 movsx	 edx, WORD PTR _intPhases[eax+ecx*2]
  0018b	81 fa cc f6 ff
	ff		 cmp	 edx, -2356		; fffff6ccH
  00191	7f 29		 jg	 SHORT $LN22@Decode1Car
$LN21@Decode1Car:

; 4043 : 				bytRawData += 2;

  00193	80 bd 0b ff ff
	ff 00		 cmp	 BYTE PTR $T7852[ebp], 0
  0019a	75 0d		 jne	 SHORT $LN41@Decode1Car
  0019c	68 00 00 00 00	 push	 OFFSET $LN39@Decode1Car
  001a1	e8 00 00 00 00	 call	 __RTC_UninitUse
  001a6	83 c4 04	 add	 esp, 4
$LN41@Decode1Car:
  001a9	0f b6 45 ef	 movzx	 eax, BYTE PTR _bytRawData$[ebp]
  001ad	83 c0 02	 add	 eax, 2
  001b0	c6 85 0b ff ff
	ff 01		 mov	 BYTE PTR $T7852[ebp], 1
  001b7	88 45 ef	 mov	 BYTE PTR _bytRawData$[ebp], al

; 4044 : 			else

  001ba	eb 27		 jmp	 SHORT $LN25@Decode1Car
$LN22@Decode1Car:

; 4045 : 				bytRawData += 3;

  001bc	80 bd 0b ff ff
	ff 00		 cmp	 BYTE PTR $T7852[ebp], 0
  001c3	75 0d		 jne	 SHORT $LN42@Decode1Car
  001c5	68 00 00 00 00	 push	 OFFSET $LN39@Decode1Car
  001ca	e8 00 00 00 00	 call	 __RTC_UninitUse
  001cf	83 c4 04	 add	 esp, 4
$LN42@Decode1Car:
  001d2	0f b6 45 ef	 movzx	 eax, BYTE PTR _bytRawData$[ebp]
  001d6	83 c0 03	 add	 eax, 3
  001d9	c6 85 0b ff ff
	ff 01		 mov	 BYTE PTR $T7852[ebp], 1
  001e0	88 45 ef	 mov	 BYTE PTR _bytRawData$[ebp], al
$LN25@Decode1Car:

; 4046 : 
; 4047 : 			Start++;

  001e3	8b 45 d4	 mov	 eax, DWORD PTR _Start$[ebp]
  001e6	83 c0 01	 add	 eax, 1
  001e9	89 45 d4	 mov	 DWORD PTR _Start$[ebp], eax

; 4048 : 		}

  001ec	e9 7d fe ff ff	 jmp	 $LN30@Decode1Car
$LN29@Decode1Car:

; 4049 : 
; 4050 : 		Decoded[charIndex] = bytRawData;

  001f1	80 bd 0b ff ff
	ff 00		 cmp	 BYTE PTR $T7852[ebp], 0
  001f8	75 0d		 jne	 SHORT $LN43@Decode1Car
  001fa	68 00 00 00 00	 push	 OFFSET $LN39@Decode1Car
  001ff	e8 00 00 00 00	 call	 __RTC_UninitUse
  00204	83 c4 04	 add	 esp, 4
$LN43@Decode1Car:
  00207	8b 45 08	 mov	 eax, DWORD PTR _Decoded$[ebp]
  0020a	03 05 00 00 00
	00		 add	 eax, DWORD PTR _charIndex
  00210	8a 4d ef	 mov	 cl, BYTE PTR _bytRawData$[ebp]
  00213	88 08		 mov	 BYTE PTR [eax], cl

; 4051 : 
; 4052 : 		break;

  00215	e9 50 02 00 00	 jmp	 $LN36@Decode1Car
$LN19@Decode1Car:

; 4053 : 
; 4054 : 	case 8: // Process 8 sequential phases (3 bits per phase)  for 24 bits or 3 bytes  
; 4055 : 
; 4056 : 		//	Status verified on 1 Carrier 8PSK with no RS needed for High S/N
; 4057 : 
; 4058 : 		//	Assume we check for 8 available phase samples before being called
; 4059 : 
; 4060 : 		int24Bits = 0;

  0021a	c7 45 f8 00 00
	00 00		 mov	 DWORD PTR _int24Bits$[ebp], 0

; 4061 : 
; 4062 : 		for (k = 0; k < 8; k++)

  00221	c7 45 e0 00 00
	00 00		 mov	 DWORD PTR _k$[ebp], 0
  00228	eb 09		 jmp	 SHORT $LN18@Decode1Car
$LN17@Decode1Car:
  0022a	8b 45 e0	 mov	 eax, DWORD PTR _k$[ebp]
  0022d	83 c0 01	 add	 eax, 1
  00230	89 45 e0	 mov	 DWORD PTR _k$[ebp], eax
$LN18@Decode1Car:
  00233	83 7d e0 08	 cmp	 DWORD PTR _k$[ebp], 8
  00237	0f 8d fb 01 00
	00		 jge	 $LN16@Decode1Car

; 4063 : 		{
; 4064 : 			int24Bits <<= 3;

  0023d	8b 45 f8	 mov	 eax, DWORD PTR _int24Bits$[ebp]
  00240	c1 e0 03	 shl	 eax, 3
  00243	89 45 f8	 mov	 DWORD PTR _int24Bits$[ebp], eax

; 4065 : 
; 4066 : 			if (intPhases[Carrier][Start] < 393 && intPhases[Carrier][Start] > -393)

  00246	8b 45 0c	 mov	 eax, DWORD PTR _Carrier$[ebp]
  00249	69 c0 18 05 00
	00		 imul	 eax, 1304		; 00000518H
  0024f	8b 4d d4	 mov	 ecx, DWORD PTR _Start$[ebp]
  00252	0f bf 94 48 00
	00 00 00	 movsx	 edx, WORD PTR _intPhases[eax+ecx*2]
  0025a	81 fa 89 01 00
	00		 cmp	 edx, 393		; 00000189H
  00260	7d 21		 jge	 SHORT $LN15@Decode1Car
  00262	8b 45 0c	 mov	 eax, DWORD PTR _Carrier$[ebp]
  00265	69 c0 18 05 00
	00		 imul	 eax, 1304		; 00000518H
  0026b	8b 4d d4	 mov	 ecx, DWORD PTR _Start$[ebp]
  0026e	0f bf 94 48 00
	00 00 00	 movsx	 edx, WORD PTR _intPhases[eax+ecx*2]
  00276	81 fa 77 fe ff
	ff		 cmp	 edx, -393		; fffffe77H
  0027c	7e 05		 jle	 SHORT $LN15@Decode1Car
  0027e	e9 a7 01 00 00	 jmp	 $LN14@Decode1Car
$LN15@Decode1Car:

; 4067 : 			{
; 4068 : 			}		// Zero so no need to do anything
; 4069 : 			else if (intPhases[Carrier][Start] >= 393 && intPhases[Carrier][Start] < 1179)

  00283	8b 45 0c	 mov	 eax, DWORD PTR _Carrier$[ebp]
  00286	69 c0 18 05 00
	00		 imul	 eax, 1304		; 00000518H
  0028c	8b 4d d4	 mov	 ecx, DWORD PTR _Start$[ebp]
  0028f	0f bf 94 48 00
	00 00 00	 movsx	 edx, WORD PTR _intPhases[eax+ecx*2]
  00297	81 fa 89 01 00
	00		 cmp	 edx, 393		; 00000189H
  0029d	7c 2a		 jl	 SHORT $LN13@Decode1Car
  0029f	8b 45 0c	 mov	 eax, DWORD PTR _Carrier$[ebp]
  002a2	69 c0 18 05 00
	00		 imul	 eax, 1304		; 00000518H
  002a8	8b 4d d4	 mov	 ecx, DWORD PTR _Start$[ebp]
  002ab	0f bf 94 48 00
	00 00 00	 movsx	 edx, WORD PTR _intPhases[eax+ecx*2]
  002b3	81 fa 9b 04 00
	00		 cmp	 edx, 1179		; 0000049bH
  002b9	7d 0e		 jge	 SHORT $LN13@Decode1Car

; 4070 : 				int24Bits += 1;

  002bb	8b 45 f8	 mov	 eax, DWORD PTR _int24Bits$[ebp]
  002be	83 c0 01	 add	 eax, 1
  002c1	89 45 f8	 mov	 DWORD PTR _int24Bits$[ebp], eax
  002c4	e9 61 01 00 00	 jmp	 $LN14@Decode1Car
$LN13@Decode1Car:

; 4071 : 			else if (intPhases[Carrier][Start] >= 1179 && intPhases[Carrier][Start] < 1965)

  002c9	8b 45 0c	 mov	 eax, DWORD PTR _Carrier$[ebp]
  002cc	69 c0 18 05 00
	00		 imul	 eax, 1304		; 00000518H
  002d2	8b 4d d4	 mov	 ecx, DWORD PTR _Start$[ebp]
  002d5	0f bf 94 48 00
	00 00 00	 movsx	 edx, WORD PTR _intPhases[eax+ecx*2]
  002dd	81 fa 9b 04 00
	00		 cmp	 edx, 1179		; 0000049bH
  002e3	7c 2a		 jl	 SHORT $LN11@Decode1Car
  002e5	8b 45 0c	 mov	 eax, DWORD PTR _Carrier$[ebp]
  002e8	69 c0 18 05 00
	00		 imul	 eax, 1304		; 00000518H
  002ee	8b 4d d4	 mov	 ecx, DWORD PTR _Start$[ebp]
  002f1	0f bf 94 48 00
	00 00 00	 movsx	 edx, WORD PTR _intPhases[eax+ecx*2]
  002f9	81 fa ad 07 00
	00		 cmp	 edx, 1965		; 000007adH
  002ff	7d 0e		 jge	 SHORT $LN11@Decode1Car

; 4072 : 				int24Bits += 2;

  00301	8b 45 f8	 mov	 eax, DWORD PTR _int24Bits$[ebp]
  00304	83 c0 02	 add	 eax, 2
  00307	89 45 f8	 mov	 DWORD PTR _int24Bits$[ebp], eax
  0030a	e9 1b 01 00 00	 jmp	 $LN14@Decode1Car
$LN11@Decode1Car:

; 4073 : 			else if (intPhases[Carrier][Start] >= 1965 && intPhases[Carrier][Start] < 2751)

  0030f	8b 45 0c	 mov	 eax, DWORD PTR _Carrier$[ebp]
  00312	69 c0 18 05 00
	00		 imul	 eax, 1304		; 00000518H
  00318	8b 4d d4	 mov	 ecx, DWORD PTR _Start$[ebp]
  0031b	0f bf 94 48 00
	00 00 00	 movsx	 edx, WORD PTR _intPhases[eax+ecx*2]
  00323	81 fa ad 07 00
	00		 cmp	 edx, 1965		; 000007adH
  00329	7c 2a		 jl	 SHORT $LN9@Decode1Car
  0032b	8b 45 0c	 mov	 eax, DWORD PTR _Carrier$[ebp]
  0032e	69 c0 18 05 00
	00		 imul	 eax, 1304		; 00000518H
  00334	8b 4d d4	 mov	 ecx, DWORD PTR _Start$[ebp]
  00337	0f bf 94 48 00
	00 00 00	 movsx	 edx, WORD PTR _intPhases[eax+ecx*2]
  0033f	81 fa bf 0a 00
	00		 cmp	 edx, 2751		; 00000abfH
  00345	7d 0e		 jge	 SHORT $LN9@Decode1Car

; 4074 : 				int24Bits += 3;

  00347	8b 45 f8	 mov	 eax, DWORD PTR _int24Bits$[ebp]
  0034a	83 c0 03	 add	 eax, 3
  0034d	89 45 f8	 mov	 DWORD PTR _int24Bits$[ebp], eax
  00350	e9 d5 00 00 00	 jmp	 $LN14@Decode1Car
$LN9@Decode1Car:

; 4075 : 			else if (intPhases[Carrier][Start] >= 2751 || intPhases[Carrier][Start] < -2751)

  00355	8b 45 0c	 mov	 eax, DWORD PTR _Carrier$[ebp]
  00358	69 c0 18 05 00
	00		 imul	 eax, 1304		; 00000518H
  0035e	8b 4d d4	 mov	 ecx, DWORD PTR _Start$[ebp]
  00361	0f bf 94 48 00
	00 00 00	 movsx	 edx, WORD PTR _intPhases[eax+ecx*2]
  00369	81 fa bf 0a 00
	00		 cmp	 edx, 2751		; 00000abfH
  0036f	7d 1c		 jge	 SHORT $LN6@Decode1Car
  00371	8b 45 0c	 mov	 eax, DWORD PTR _Carrier$[ebp]
  00374	69 c0 18 05 00
	00		 imul	 eax, 1304		; 00000518H
  0037a	8b 4d d4	 mov	 ecx, DWORD PTR _Start$[ebp]
  0037d	0f bf 94 48 00
	00 00 00	 movsx	 edx, WORD PTR _intPhases[eax+ecx*2]
  00385	81 fa 41 f5 ff
	ff		 cmp	 edx, -2751		; fffff541H
  0038b	7d 0e		 jge	 SHORT $LN7@Decode1Car
$LN6@Decode1Car:

; 4076 : 				int24Bits += 4;

  0038d	8b 45 f8	 mov	 eax, DWORD PTR _int24Bits$[ebp]
  00390	83 c0 04	 add	 eax, 4
  00393	89 45 f8	 mov	 DWORD PTR _int24Bits$[ebp], eax
  00396	e9 8f 00 00 00	 jmp	 $LN14@Decode1Car
$LN7@Decode1Car:

; 4077 : 			else if (intPhases[Carrier][Start] >= -2751 && intPhases[Carrier][Start] < -1965)

  0039b	8b 45 0c	 mov	 eax, DWORD PTR _Carrier$[ebp]
  0039e	69 c0 18 05 00
	00		 imul	 eax, 1304		; 00000518H
  003a4	8b 4d d4	 mov	 ecx, DWORD PTR _Start$[ebp]
  003a7	0f bf 94 48 00
	00 00 00	 movsx	 edx, WORD PTR _intPhases[eax+ecx*2]
  003af	81 fa 41 f5 ff
	ff		 cmp	 edx, -2751		; fffff541H
  003b5	7c 27		 jl	 SHORT $LN4@Decode1Car
  003b7	8b 45 0c	 mov	 eax, DWORD PTR _Carrier$[ebp]
  003ba	69 c0 18 05 00
	00		 imul	 eax, 1304		; 00000518H
  003c0	8b 4d d4	 mov	 ecx, DWORD PTR _Start$[ebp]
  003c3	0f bf 94 48 00
	00 00 00	 movsx	 edx, WORD PTR _intPhases[eax+ecx*2]
  003cb	81 fa 53 f8 ff
	ff		 cmp	 edx, -1965		; fffff853H
  003d1	7d 0b		 jge	 SHORT $LN4@Decode1Car

; 4078 : 				int24Bits += 5;

  003d3	8b 45 f8	 mov	 eax, DWORD PTR _int24Bits$[ebp]
  003d6	83 c0 05	 add	 eax, 5
  003d9	89 45 f8	 mov	 DWORD PTR _int24Bits$[ebp], eax
  003dc	eb 4c		 jmp	 SHORT $LN14@Decode1Car
$LN4@Decode1Car:

; 4079 : 			else if (intPhases[Carrier][Start] >= -1965 && intPhases[Carrier][Start] <= -1179)

  003de	8b 45 0c	 mov	 eax, DWORD PTR _Carrier$[ebp]
  003e1	69 c0 18 05 00
	00		 imul	 eax, 1304		; 00000518H
  003e7	8b 4d d4	 mov	 ecx, DWORD PTR _Start$[ebp]
  003ea	0f bf 94 48 00
	00 00 00	 movsx	 edx, WORD PTR _intPhases[eax+ecx*2]
  003f2	81 fa 53 f8 ff
	ff		 cmp	 edx, -1965		; fffff853H
  003f8	7c 27		 jl	 SHORT $LN2@Decode1Car
  003fa	8b 45 0c	 mov	 eax, DWORD PTR _Carrier$[ebp]
  003fd	69 c0 18 05 00
	00		 imul	 eax, 1304		; 00000518H
  00403	8b 4d d4	 mov	 ecx, DWORD PTR _Start$[ebp]
  00406	0f bf 94 48 00
	00 00 00	 movsx	 edx, WORD PTR _intPhases[eax+ecx*2]
  0040e	81 fa 65 fb ff
	ff		 cmp	 edx, -1179		; fffffb65H
  00414	7f 0b		 jg	 SHORT $LN2@Decode1Car

; 4080 : 				int24Bits += 6;

  00416	8b 45 f8	 mov	 eax, DWORD PTR _int24Bits$[ebp]
  00419	83 c0 06	 add	 eax, 6
  0041c	89 45 f8	 mov	 DWORD PTR _int24Bits$[ebp], eax

; 4081 : 			else 

  0041f	eb 09		 jmp	 SHORT $LN14@Decode1Car
$LN2@Decode1Car:

; 4082 : 				int24Bits += 7;

  00421	8b 45 f8	 mov	 eax, DWORD PTR _int24Bits$[ebp]
  00424	83 c0 07	 add	 eax, 7
  00427	89 45 f8	 mov	 DWORD PTR _int24Bits$[ebp], eax
$LN14@Decode1Car:

; 4083 : 
; 4084 : 			Start ++;

  0042a	8b 45 d4	 mov	 eax, DWORD PTR _Start$[ebp]
  0042d	83 c0 01	 add	 eax, 1
  00430	89 45 d4	 mov	 DWORD PTR _Start$[ebp], eax

; 4085 : 	
; 4086 : 		}

  00433	e9 f2 fd ff ff	 jmp	 $LN17@Decode1Car
$LN16@Decode1Car:

; 4087 : 		Decoded[charIndex] = int24Bits >> 16;

  00438	8b 45 f8	 mov	 eax, DWORD PTR _int24Bits$[ebp]
  0043b	c1 e8 10	 shr	 eax, 16			; 00000010H
  0043e	8b 4d 08	 mov	 ecx, DWORD PTR _Decoded$[ebp]
  00441	03 0d 00 00 00
	00		 add	 ecx, DWORD PTR _charIndex
  00447	88 01		 mov	 BYTE PTR [ecx], al

; 4088 : 		Decoded[charIndex + 1] = int24Bits >> 8;

  00449	8b 45 f8	 mov	 eax, DWORD PTR _int24Bits$[ebp]
  0044c	c1 e8 08	 shr	 eax, 8
  0044f	8b 4d 08	 mov	 ecx, DWORD PTR _Decoded$[ebp]
  00452	03 0d 00 00 00
	00		 add	 ecx, DWORD PTR _charIndex
  00458	88 41 01	 mov	 BYTE PTR [ecx+1], al

; 4089 : 		Decoded[charIndex + 2] = int24Bits ;

  0045b	8b 45 08	 mov	 eax, DWORD PTR _Decoded$[ebp]
  0045e	03 05 00 00 00
	00		 add	 eax, DWORD PTR _charIndex
  00464	8a 4d f8	 mov	 cl, BYTE PTR _int24Bits$[ebp]
  00467	88 48 02	 mov	 BYTE PTR [eax+2], cl
$LN36@Decode1Car:

; 4090 : 
; 4091 : 		break;
; 4092 : 	}
; 4093 : 
; 4094 : 
; 4095 : 	return;
; 4096 : }

  0046a	5f		 pop	 edi
  0046b	5e		 pop	 esi
  0046c	5b		 pop	 ebx
  0046d	81 c4 00 01 00
	00		 add	 esp, 256		; 00000100H
  00473	3b ec		 cmp	 ebp, esp
  00475	e8 00 00 00 00	 call	 __RTC_CheckEsp
  0047a	8b e5		 mov	 esp, ebp
  0047c	5d		 pop	 ebp
  0047d	c3		 ret	 0
$LN44@Decode1Car:
$LN39@Decode1Car:
  0047e	62		 DB	 98			; 00000062H
  0047f	79		 DB	 121			; 00000079H
  00480	74		 DB	 116			; 00000074H
  00481	52		 DB	 82			; 00000052H
  00482	61		 DB	 97			; 00000061H
  00483	77		 DB	 119			; 00000077H
  00484	44		 DB	 68			; 00000044H
  00485	61		 DB	 97			; 00000061H
  00486	74		 DB	 116			; 00000074H
  00487	61		 DB	 97			; 00000061H
  00488	00		 DB	 0
_Decode1CarPSKChar ENDP
_TEXT	ENDS
PUBLIC	__real@3fc90fd8
PUBLIC	_Track1CarPSK
EXTRN	_intAccumPSKTracking:DWORD
EXTRN	_intPSKTrackAttempts:DWORD
EXTRN	_round:PROC
_BSS	SEGMENT
	ALIGN	4

?intCountAtLastTrack@?1??Track1CarPSK@@9@9 DD 01H DUP (?) ; `Track1CarPSK'::`2'::intCountAtLastTrack
?dblFilteredPhaseOffset@?1??Track1CarPSK@@9@9 DD 01H DUP (?) ; `Track1CarPSK'::`2'::dblFilteredPhaseOffset
?dblPhaseAtLastTrack@?1??Track1CarPSK@@9@9 DD 01H DUP (?) ; `Track1CarPSK'::`2'::dblPhaseAtLastTrack
?dblRadiansPerSample@?1??Track1CarPSK@@9@9 DD 01H DUP (?) ; `Track1CarPSK'::`2'::dblRadiansPerSample
?dblModFactor@?1??Track1CarPSK@@9@9 DD 01H DUP (?)	; `Track1CarPSK'::`2'::dblModFactor
_BSS	ENDS
;	COMDAT __real@3fc90fd8
CONST	SEGMENT
__real@3fc90fd8 DD 03fc90fd8r			; 1.5708
; Function compile flags: /Odtp /RTCsu /ZI
CONST	ENDS
;	COMDAT _Track1CarPSK
_TEXT	SEGMENT
tv187 = -220						; size = 4
tv176 = -220						; size = 4
_dblPhaseOffset$ = -20					; size = 4
_dblAlpha$ = -8						; size = 4
_intCarFreq$ = 8					; size = 4
_strPSKMod$ = 12					; size = 4
_dblUnfilteredPhase$ = 16				; size = 4
_blnInit$ = 20						; size = 4
_Track1CarPSK PROC					; COMDAT

; 4101 : {

  00000	55		 push	 ebp
  00001	8b ec		 mov	 ebp, esp
  00003	81 ec dc 00 00
	00		 sub	 esp, 220		; 000000dcH
  00009	53		 push	 ebx
  0000a	56		 push	 esi
  0000b	57		 push	 edi
  0000c	8d bd 24 ff ff
	ff		 lea	 edi, DWORD PTR [ebp-220]
  00012	b9 37 00 00 00	 mov	 ecx, 55			; 00000037H
  00017	b8 cc cc cc cc	 mov	 eax, -858993460		; ccccccccH
  0001c	f3 ab		 rep stosd

; 4102 : 	// This routine initializes and tracks the phase offset per symbol and adjust intPtr +/-1 when the offset creeps to a threshold value.
; 4103 : 	// adjusts (by Ref) intPtr 0, -1 or +1 based on a filtering of phase offset. 
; 4104 : 	// this seems to work fine on test Mar 21, 2015. May need optimization after testing with higher sample rate errors. This should handle sample rate offsets (sender to receiver) up to about 2000 ppm
; 4105 : 
; 4106 : 	float dblAlpha = 0.3f; // low pass filter constant  may want to optimize value after testing with large sample rate error. 

  0001e	d9 05 00 00 00
	00		 fld	 DWORD PTR __real@3e99999a
  00024	d9 5d f8	 fstp	 DWORD PTR _dblAlpha$[ebp]

; 4107 : 		// (Affects how much averaging is done) lower values of dblAlpha will minimize adjustments but track more slugishly.
; 4108 : 
; 4109 : 	float dblPhaseOffset;
; 4110 : 
; 4111 : 	static float dblTrackingPhase = 0;
; 4112 : 	static float dblModFactor;
; 4113 : 	static float dblRadiansPerSample;  // range is .4188 @ car freq = 800 to 1.1195 @ car freq 2200
; 4114 : 	static float dblPhaseAtLastTrack;
; 4115 : 	static int intCountAtLastTrack;
; 4116 : 	static float dblFilteredPhaseOffset;
; 4117 : 
; 4118 : 	if (blnInit)

  00027	83 7d 14 00	 cmp	 DWORD PTR _blnInit$[ebp], 0
  0002b	0f 84 9e 00 00
	00		 je	 $LN8@Track1CarP

; 4119 : 	{
; 4120 : 		// dblFilterredPhase = dblUnfilteredPhase;
; 4121 : 		dblTrackingPhase = dblUnfilteredPhase;

  00031	d9 45 10	 fld	 DWORD PTR _dblUnfilteredPhase$[ebp]
  00034	d9 1d 00 00 00
	00		 fstp	 DWORD PTR ?dblTrackingPhase@?1??Track1CarPSK@@9@9

; 4122 : 		
; 4123 : 		if (strPSKMod[0] == '8')

  0003a	8b 45 0c	 mov	 eax, DWORD PTR _strPSKMod$[ebp]
  0003d	0f be 08	 movsx	 ecx, BYTE PTR [eax]
  00040	83 f9 38	 cmp	 ecx, 56			; 00000038H
  00043	75 0e		 jne	 SHORT $LN7@Track1CarP

; 4124 : 			dblModFactor = M_PI / 4;

  00045	d9 05 00 00 00
	00		 fld	 DWORD PTR __real@3f490fd8
  0004b	d9 1d 00 00 00
	00		 fstp	 DWORD PTR ?dblModFactor@?1??Track1CarPSK@@9@9
  00051	eb 17		 jmp	 SHORT $LN5@Track1CarP
$LN7@Track1CarP:

; 4125 : 		else if (strPSKMod[0] == '4')

  00053	8b 45 0c	 mov	 eax, DWORD PTR _strPSKMod$[ebp]
  00056	0f be 08	 movsx	 ecx, BYTE PTR [eax]
  00059	83 f9 34	 cmp	 ecx, 52			; 00000034H
  0005c	75 0c		 jne	 SHORT $LN5@Track1CarP

; 4126 : 			dblModFactor = M_PI / 2;

  0005e	d9 05 00 00 00
	00		 fld	 DWORD PTR __real@3fc90fd8
  00064	d9 1d 00 00 00
	00		 fstp	 DWORD PTR ?dblModFactor@?1??Track1CarPSK@@9@9
$LN5@Track1CarP:

; 4127 : 
; 4128 : 		dblRadiansPerSample = intCarFreq * dbl2Pi / 12000;

  0006a	db 45 08	 fild	 DWORD PTR _intCarFreq$[ebp]
  0006d	d8 0d 00 00 00
	00		 fmul	 DWORD PTR _dbl2Pi
  00073	dc 35 00 00 00
	00		 fdiv	 QWORD PTR __real@40c7700000000000
  00079	d9 1d 00 00 00
	00		 fstp	 DWORD PTR ?dblRadiansPerSample@?1??Track1CarPSK@@9@9

; 4129 : 		dblPhaseOffset = dblUnfilteredPhase - dblModFactor * round(dblUnfilteredPhase / dblModFactor);

  0007f	d9 45 10	 fld	 DWORD PTR _dblUnfilteredPhase$[ebp]
  00082	d8 35 00 00 00
	00		 fdiv	 DWORD PTR ?dblModFactor@?1??Track1CarPSK@@9@9
  00088	d9 9d 24 ff ff
	ff		 fstp	 DWORD PTR tv176[ebp]
  0008e	d9 85 24 ff ff
	ff		 fld	 DWORD PTR tv176[ebp]
  00094	51		 push	 ecx
  00095	d9 1c 24	 fstp	 DWORD PTR [esp]
  00098	e8 00 00 00 00	 call	 _round
  0009d	83 c4 04	 add	 esp, 4
  000a0	d8 0d 00 00 00
	00		 fmul	 DWORD PTR ?dblModFactor@?1??Track1CarPSK@@9@9
  000a6	d8 6d 10	 fsubr	 DWORD PTR _dblUnfilteredPhase$[ebp]
  000a9	d9 5d ec	 fstp	 DWORD PTR _dblPhaseOffset$[ebp]

; 4130 : 		dblPhaseAtLastTrack = dblPhaseOffset;

  000ac	d9 45 ec	 fld	 DWORD PTR _dblPhaseOffset$[ebp]
  000af	d9 1d 00 00 00
	00		 fstp	 DWORD PTR ?dblPhaseAtLastTrack@?1??Track1CarPSK@@9@9

; 4131 : 		dblFilteredPhaseOffset = dblPhaseOffset;

  000b5	d9 45 ec	 fld	 DWORD PTR _dblPhaseOffset$[ebp]
  000b8	d9 1d 00 00 00
	00		 fstp	 DWORD PTR ?dblFilteredPhaseOffset@?1??Track1CarPSK@@9@9

; 4132 : 		intCountAtLastTrack = 0;

  000be	c7 05 00 00 00
	00 00 00 00 00	 mov	 DWORD PTR ?intCountAtLastTrack@?1??Track1CarPSK@@9@9, 0

; 4133 : 		return 0;

  000c8	33 c0		 xor	 eax, eax
  000ca	e9 15 01 00 00	 jmp	 $LN9@Track1CarP
$LN8@Track1CarP:

; 4134 : 	}
; 4135 : 
; 4136 : 	intCountAtLastTrack += 1;

  000cf	a1 00 00 00 00	 mov	 eax, DWORD PTR ?intCountAtLastTrack@?1??Track1CarPSK@@9@9
  000d4	83 c0 01	 add	 eax, 1
  000d7	a3 00 00 00 00	 mov	 DWORD PTR ?intCountAtLastTrack@?1??Track1CarPSK@@9@9, eax

; 4137 : 	dblPhaseOffset = dblUnfilteredPhase - dblModFactor * round(dblUnfilteredPhase / dblModFactor);

  000dc	d9 45 10	 fld	 DWORD PTR _dblUnfilteredPhase$[ebp]
  000df	d8 35 00 00 00
	00		 fdiv	 DWORD PTR ?dblModFactor@?1??Track1CarPSK@@9@9
  000e5	d9 9d 24 ff ff
	ff		 fstp	 DWORD PTR tv187[ebp]
  000eb	d9 85 24 ff ff
	ff		 fld	 DWORD PTR tv187[ebp]
  000f1	51		 push	 ecx
  000f2	d9 1c 24	 fstp	 DWORD PTR [esp]
  000f5	e8 00 00 00 00	 call	 _round
  000fa	83 c4 04	 add	 esp, 4
  000fd	d8 0d 00 00 00
	00		 fmul	 DWORD PTR ?dblModFactor@?1??Track1CarPSK@@9@9
  00103	d8 6d 10	 fsubr	 DWORD PTR _dblUnfilteredPhase$[ebp]
  00106	d9 5d ec	 fstp	 DWORD PTR _dblPhaseOffset$[ebp]

; 4138 : 	dblFilteredPhaseOffset = (1 - dblAlpha) * dblFilteredPhaseOffset + dblAlpha * dblPhaseOffset;

  00109	d9 45 f8	 fld	 DWORD PTR _dblAlpha$[ebp]
  0010c	d9 e8		 fld1
  0010e	de e1		 fsubrp	 ST(1), ST(0)
  00110	d8 0d 00 00 00
	00		 fmul	 DWORD PTR ?dblFilteredPhaseOffset@?1??Track1CarPSK@@9@9
  00116	d9 45 f8	 fld	 DWORD PTR _dblAlpha$[ebp]
  00119	d8 4d ec	 fmul	 DWORD PTR _dblPhaseOffset$[ebp]
  0011c	de c1		 faddp	 ST(1), ST(0)
  0011e	d9 1d 00 00 00
	00		 fstp	 DWORD PTR ?dblFilteredPhaseOffset@?1??Track1CarPSK@@9@9

; 4139 : 
; 4140 : 	if ((dblFilteredPhaseOffset - dblPhaseAtLastTrack) > dblRadiansPerSample)

  00124	d9 05 00 00 00
	00		 fld	 DWORD PTR ?dblFilteredPhaseOffset@?1??Track1CarPSK@@9@9
  0012a	d8 25 00 00 00
	00		 fsub	 DWORD PTR ?dblPhaseAtLastTrack@?1??Track1CarPSK@@9@9
  00130	d9 05 00 00 00
	00		 fld	 DWORD PTR ?dblRadiansPerSample@?1??Track1CarPSK@@9@9
  00136	de d9		 fcompp
  00138	df e0		 fnstsw	 ax
  0013a	f6 c4 05	 test	 ah, 5
  0013d	7a 43		 jp	 SHORT $LN4@Track1CarP

; 4141 : 	{
; 4142 : 		//Debug.WriteLine("Filtered>LastTrack: Cnt=" & intCountAtLastTrack.ToString & "  Filtered = " & Format(dblFilteredPhaseOffset, "00.000") & "  Offset = " & Format(dblPhaseOffset, "00.000") & "  Unfiltered = " & Format(dblUnfilteredPhase, "00.000"))
; 4143 : 		dblFilteredPhaseOffset = dblPhaseOffset - dblRadiansPerSample;

  0013f	d9 45 ec	 fld	 DWORD PTR _dblPhaseOffset$[ebp]
  00142	d8 25 00 00 00
	00		 fsub	 DWORD PTR ?dblRadiansPerSample@?1??Track1CarPSK@@9@9
  00148	d9 1d 00 00 00
	00		 fstp	 DWORD PTR ?dblFilteredPhaseOffset@?1??Track1CarPSK@@9@9

; 4144 : 		dblPhaseAtLastTrack = dblFilteredPhaseOffset;

  0014e	d9 05 00 00 00
	00		 fld	 DWORD PTR ?dblFilteredPhaseOffset@?1??Track1CarPSK@@9@9
  00154	d9 1d 00 00 00
	00		 fstp	 DWORD PTR ?dblPhaseAtLastTrack@?1??Track1CarPSK@@9@9

; 4145 : 	
; 4146 : 		if (AccumulateStats)

  0015a	83 3d 00 00 00
	00 00		 cmp	 DWORD PTR _AccumulateStats, 0
  00161	74 1a		 je	 SHORT $LN3@Track1CarP

; 4147 : 		{
; 4148 : 			intPSKTrackAttempts++;

  00163	a1 00 00 00 00	 mov	 eax, DWORD PTR _intPSKTrackAttempts
  00168	83 c0 01	 add	 eax, 1
  0016b	a3 00 00 00 00	 mov	 DWORD PTR _intPSKTrackAttempts, eax

; 4149 : 			intAccumPSKTracking--;

  00170	a1 00 00 00 00	 mov	 eax, DWORD PTR _intAccumPSKTracking
  00175	83 e8 01	 sub	 eax, 1
  00178	a3 00 00 00 00	 mov	 DWORD PTR _intAccumPSKTracking, eax
$LN3@Track1CarP:

; 4150 : 		}
; 4151 : 		return -1;

  0017d	83 c8 ff	 or	 eax, -1
  00180	eb 62		 jmp	 SHORT $LN9@Track1CarP
$LN4@Track1CarP:

; 4152 : 	}
; 4153 : 
; 4154 : 	if ((dblPhaseAtLastTrack - dblFilteredPhaseOffset) > dblRadiansPerSample)

  00182	d9 05 00 00 00
	00		 fld	 DWORD PTR ?dblPhaseAtLastTrack@?1??Track1CarPSK@@9@9
  00188	d8 25 00 00 00
	00		 fsub	 DWORD PTR ?dblFilteredPhaseOffset@?1??Track1CarPSK@@9@9
  0018e	d9 05 00 00 00
	00		 fld	 DWORD PTR ?dblRadiansPerSample@?1??Track1CarPSK@@9@9
  00194	de d9		 fcompp
  00196	df e0		 fnstsw	 ax
  00198	f6 c4 05	 test	 ah, 5
  0019b	7a 45		 jp	 SHORT $LN2@Track1CarP

; 4155 : 	{
; 4156 : 		//'Debug.WriteLine("Filtered<LastTrack: Cnt=" & intCountAtLastTrack.ToString & "  Filtered = " & Format(dblFilteredPhaseOffset, "00.000") & "  Offset = " & Format(dblPhaseOffset, "00.000") & "  Unfiltered = " & Format(dblUnfilteredPhase, "00.000"))
; 4157 : 		dblFilteredPhaseOffset = dblPhaseOffset + dblRadiansPerSample;

  0019d	d9 45 ec	 fld	 DWORD PTR _dblPhaseOffset$[ebp]
  001a0	d8 05 00 00 00
	00		 fadd	 DWORD PTR ?dblRadiansPerSample@?1??Track1CarPSK@@9@9
  001a6	d9 1d 00 00 00
	00		 fstp	 DWORD PTR ?dblFilteredPhaseOffset@?1??Track1CarPSK@@9@9

; 4158 : 		dblPhaseAtLastTrack = dblFilteredPhaseOffset;

  001ac	d9 05 00 00 00
	00		 fld	 DWORD PTR ?dblFilteredPhaseOffset@?1??Track1CarPSK@@9@9
  001b2	d9 1d 00 00 00
	00		 fstp	 DWORD PTR ?dblPhaseAtLastTrack@?1??Track1CarPSK@@9@9

; 4159 : 
; 4160 : 		if (AccumulateStats)

  001b8	83 3d 00 00 00
	00 00		 cmp	 DWORD PTR _AccumulateStats, 0
  001bf	74 1a		 je	 SHORT $LN1@Track1CarP

; 4161 : 		{
; 4162 : 			intPSKTrackAttempts++;

  001c1	a1 00 00 00 00	 mov	 eax, DWORD PTR _intPSKTrackAttempts
  001c6	83 c0 01	 add	 eax, 1
  001c9	a3 00 00 00 00	 mov	 DWORD PTR _intPSKTrackAttempts, eax

; 4163 : 			intAccumPSKTracking++;

  001ce	a1 00 00 00 00	 mov	 eax, DWORD PTR _intAccumPSKTracking
  001d3	83 c0 01	 add	 eax, 1
  001d6	a3 00 00 00 00	 mov	 DWORD PTR _intAccumPSKTracking, eax
$LN1@Track1CarP:

; 4164 : 		}
; 4165 : 		return 1;

  001db	b8 01 00 00 00	 mov	 eax, 1
  001e0	eb 02		 jmp	 SHORT $LN9@Track1CarP
$LN2@Track1CarP:

; 4166 : 	}
; 4167 : 	// 'Debug.WriteLine("Filtered Phase = " & Format(dblFilteredPhaseOffset, "00.000") & "  Offset = " & Format(dblPhaseOffset, "00.000") & "  Unfiltered = " & Format(dblUnfilteredPhase, "00.000"))
; 4168 : 
; 4169 : 	return 0;

  001e2	33 c0		 xor	 eax, eax
$LN9@Track1CarP:

; 4170 : }

  001e4	5f		 pop	 edi
  001e5	5e		 pop	 esi
  001e6	5b		 pop	 ebx
  001e7	81 c4 dc 00 00
	00		 add	 esp, 220		; 000000dcH
  001ed	3b ec		 cmp	 ebp, esp
  001ef	e8 00 00 00 00	 call	 __RTC_CheckEsp
  001f4	8b e5		 mov	 esp, ebp
  001f6	5d		 pop	 ebp
  001f7	c3		 ret	 0
_Track1CarPSK ENDP
_TEXT	ENDS
PUBLIC	_ComputeAng1_Ang2
; Function compile flags: /Odtp /RTCsu /ZI
;	COMDAT _ComputeAng1_Ang2
_TEXT	SEGMENT
_intDiff$ = -8						; size = 4
_intAng1$ = 8						; size = 4
_intAng2$ = 12						; size = 4
_ComputeAng1_Ang2 PROC					; COMDAT

; 4175 : {

  00000	55		 push	 ebp
  00001	8b ec		 mov	 ebp, esp
  00003	81 ec cc 00 00
	00		 sub	 esp, 204		; 000000ccH
  00009	53		 push	 ebx
  0000a	56		 push	 esi
  0000b	57		 push	 edi
  0000c	8d bd 34 ff ff
	ff		 lea	 edi, DWORD PTR [ebp-204]
  00012	b9 33 00 00 00	 mov	 ecx, 51			; 00000033H
  00017	b8 cc cc cc cc	 mov	 eax, -858993460		; ccccccccH
  0001c	f3 ab		 rep stosd

; 4176 : 	// do an angle subtraction intAng1 minus intAng2 (in milliradians) 
; 4177 : 	// Results always between -3142 and 3142 (+/- Pi)
; 4178 : 
; 4179 : 	int intDiff;
; 4180 : 
; 4181 : 	intDiff = intAng1 - intAng2;

  0001e	8b 45 08	 mov	 eax, DWORD PTR _intAng1$[ebp]
  00021	2b 45 0c	 sub	 eax, DWORD PTR _intAng2$[ebp]
  00024	89 45 f8	 mov	 DWORD PTR _intDiff$[ebp], eax

; 4182 : 
; 4183 : 	if (intDiff < -3142)

  00027	81 7d f8 ba f3
	ff ff		 cmp	 DWORD PTR _intDiff$[ebp], -3142 ; fffff3baH
  0002e	7d 0d		 jge	 SHORT $LN3@ComputeAng

; 4184 : 		intDiff += 6284;

  00030	8b 45 f8	 mov	 eax, DWORD PTR _intDiff$[ebp]
  00033	05 8c 18 00 00	 add	 eax, 6284		; 0000188cH
  00038	89 45 f8	 mov	 DWORD PTR _intDiff$[ebp], eax
  0003b	eb 14		 jmp	 SHORT $LN2@ComputeAng
$LN3@ComputeAng:

; 4185 : 	else if (intDiff > 3142 )

  0003d	81 7d f8 46 0c
	00 00		 cmp	 DWORD PTR _intDiff$[ebp], 3142 ; 00000c46H
  00044	7e 0b		 jle	 SHORT $LN2@ComputeAng

; 4186 : 		intDiff -= 6284;

  00046	8b 45 f8	 mov	 eax, DWORD PTR _intDiff$[ebp]
  00049	2d 8c 18 00 00	 sub	 eax, 6284		; 0000188cH
  0004e	89 45 f8	 mov	 DWORD PTR _intDiff$[ebp], eax
$LN2@ComputeAng:

; 4187 : 
; 4188 : 	return intDiff;

  00051	8b 45 f8	 mov	 eax, DWORD PTR _intDiff$[ebp]

; 4189 : }

  00054	5f		 pop	 edi
  00055	5e		 pop	 esi
  00056	5b		 pop	 ebx
  00057	8b e5		 mov	 esp, ebp
  00059	5d		 pop	 ebp
  0005a	c3		 ret	 0
_ComputeAng1_Ang2 ENDP
_TEXT	ENDS
PUBLIC	??_C@_0DO@MBDBNJIB@?$FLCorrectPhaseForTuningOffset?$FN?5Av@ ; `string'
PUBLIC	??_C@_0FH@MJJGCBNJ@?$FLCorrectPhaseForTuningOffset?$FN?5Av@ ; `string'
PUBLIC	??_C@_04BOPGPCCA@8PSK?$AA@			; `string'
PUBLIC	_CorrectPhaseForTuningOffset
;	COMDAT ??_C@_0DO@MBDBNJIB@?$FLCorrectPhaseForTuningOffset?$FN?5Av@
CONST	SEGMENT
??_C@_0DO@MBDBNJIB@?$FLCorrectPhaseForTuningOffset?$FN?5Av@ DB '[CorrectP'
	DB	'haseForTuningOffset] AvgOffset=%d AccOffsetCnt=%d/%d', 00H ; `string'
CONST	ENDS
;	COMDAT ??_C@_0FH@MJJGCBNJ@?$FLCorrectPhaseForTuningOffset?$FN?5Av@
CONST	SEGMENT
??_C@_0FH@MJJGCBNJ@?$FLCorrectPhaseForTuningOffset?$FN?5Av@ DB '[CorrectP'
	DB	'haseForTuningOffset] AvgOffsetBeginning=%d AvgOffsetEnd=%d Ac'
	DB	'cOffsetCnt=%d/%d', 00H			; `string'
CONST	ENDS
;	COMDAT ??_C@_04BOPGPCCA@8PSK?$AA@
CONST	SEGMENT
??_C@_04BOPGPCCA@8PSK?$AA@ DB '8PSK', 00H		; `string'
; Function compile flags: /Odtp /RTCsu /ZI
CONST	ENDS
;	COMDAT _CorrectPhaseForTuningOffset
_TEXT	SEGMENT
$T7868 = -401						; size = 1
$T7869 = -389						; size = 1
$T7870 = -377						; size = 1
_intPSKMode$ = -176					; size = 4
_intAccOffset$ = -164					; size = 4
_intAccOffsetEnd$ = -152				; size = 4
_intAccOffsetBeginning$ = -140				; size = 4
_intAccOffsetCntEnd$ = -128				; size = 4
_intAccOffsetCntBeginning$ = -116			; size = 4
_intAccOffsetCnt$ = -104				; size = 4
_intAvgOffsetEnd$ = -92					; size = 4
_intAvgOffsetBeginning$ = -80				; size = 4
_intAvgOffset$ = -68					; size = 4
_intOffset$ = -56					; size = 4
_i$ = -44						; size = 4
_intTest$ = -32						; size = 4
_intPhaseInc$ = -20					; size = 2
_intPhaseMargin$ = -8					; size = 2
_intPhase$ = 8						; size = 4
_intPhaseLength$ = 12					; size = 4
_strMod$ = 16						; size = 4
_CorrectPhaseForTuningOffset PROC			; COMDAT

; 4194 : {

  00000	55		 push	 ebp
  00001	8b ec		 mov	 ebp, esp
  00003	81 ec 98 01 00
	00		 sub	 esp, 408		; 00000198H
  00009	53		 push	 ebx
  0000a	56		 push	 esi
  0000b	57		 push	 edi
  0000c	8d bd 68 fe ff
	ff		 lea	 edi, DWORD PTR [ebp-408]
  00012	b9 66 00 00 00	 mov	 ecx, 102		; 00000066H
  00017	b8 cc cc cc cc	 mov	 eax, -858993460		; ccccccccH
  0001c	f3 ab		 rep stosd
  0001e	c6 85 87 fe ff
	ff 00		 mov	 BYTE PTR $T7870[ebp], 0
  00025	c6 85 7b fe ff
	ff 00		 mov	 BYTE PTR $T7869[ebp], 0
  0002c	c6 85 6f fe ff
	ff 00		 mov	 BYTE PTR $T7868[ebp], 0

; 4195 : 	// A tunning error of -1 Hz will rotate the phase calculation Clockwise ~ 64 milliradians (~4 degrees)
; 4196 : 	//   This corrects for:
; 4197 : 	// 1) Small tuning errors which result in a phase bias (rotation) of then entire constellation
; 4198 : 	// 2) Small Transmitter/receiver drift during the frame by averaging and adjusting to constellation to the average. 
; 4199 : 	//   It only processes phase values close to the nominal to avoid generating too large of a correction from outliers: +/- 30 deg for 4PSK, +/- 15 deg for 8PSK
; 4200 : 	//  Is very affective in handling initial tuning error.  
; 4201 : 
; 4202 : 	// This only works if you collect all samples before decoding them. 
; 4203 : 	// Can I do something similar????
; 4204 : 
; 4205 : 	short intPhaseMargin  = 2095 / intPSKMode; // Compute the acceptable phase correction range (+/-30 degrees for 4 PSK)

  00033	b8 2f 08 00 00	 mov	 eax, 2095		; 0000082fH
  00038	99		 cdq
  00039	f7 3d 00 00 00
	00		 idiv	 DWORD PTR _intPSKMode
  0003f	66 89 45 f8	 mov	 WORD PTR _intPhaseMargin$[ebp], ax

; 4206 : 	short intPhaseInc = 6284 / intPSKMode;

  00043	b8 8c 18 00 00	 mov	 eax, 6284		; 0000188cH
  00048	99		 cdq
  00049	f7 3d 00 00 00
	00		 idiv	 DWORD PTR _intPSKMode
  0004f	66 89 45 ec	 mov	 WORD PTR _intPhaseInc$[ebp], ax

; 4207 : 	int intTest;
; 4208 : 	int i;
; 4209 : 	int intOffset, intAvgOffset, intAvgOffsetBeginning, intAvgOffsetEnd;
; 4210 : 	int intAccOffsetCnt = 0, intAccOffsetCntBeginning = 0, intAccOffsetCntEnd = 0;

  00053	c7 45 98 00 00
	00 00		 mov	 DWORD PTR _intAccOffsetCnt$[ebp], 0
  0005a	c7 45 8c 00 00
	00 00		 mov	 DWORD PTR _intAccOffsetCntBeginning$[ebp], 0
  00061	c7 45 80 00 00
	00 00		 mov	 DWORD PTR _intAccOffsetCntEnd$[ebp], 0

; 4211 : 	int	intAccOffsetBeginning = 0, intAccOffsetEnd = 0, intAccOffset = 0;

  00068	c7 85 74 ff ff
	ff 00 00 00 00	 mov	 DWORD PTR _intAccOffsetBeginning$[ebp], 0
  00072	c7 85 68 ff ff
	ff 00 00 00 00	 mov	 DWORD PTR _intAccOffsetEnd$[ebp], 0
  0007c	c7 85 5c ff ff
	ff 00 00 00 00	 mov	 DWORD PTR _intAccOffset$[ebp], 0

; 4212 :     int intPSKMode;
; 4213 : 	
; 4214 : 	if (strcmp(strMod, "8PSK") == 0 || strcmp(strMod, "16QAM") == 0)

  00086	68 00 00 00 00	 push	 OFFSET ??_C@_04BOPGPCCA@8PSK?$AA@
  0008b	8b 45 10	 mov	 eax, DWORD PTR _strMod$[ebp]
  0008e	50		 push	 eax
  0008f	e8 00 00 00 00	 call	 _strcmp
  00094	83 c4 08	 add	 esp, 8
  00097	85 c0		 test	 eax, eax
  00099	74 15		 je	 SHORT $LN29@CorrectPha
  0009b	68 00 00 00 00	 push	 OFFSET ??_C@_05OIEEHJAK@16QAM?$AA@
  000a0	8b 45 10	 mov	 eax, DWORD PTR _strMod$[ebp]
  000a3	50		 push	 eax
  000a4	e8 00 00 00 00	 call	 _strcmp
  000a9	83 c4 08	 add	 esp, 8
  000ac	85 c0		 test	 eax, eax
  000ae	75 0c		 jne	 SHORT $LN30@CorrectPha
$LN29@CorrectPha:

; 4215 : 		intPSKMode = 8;

  000b0	c7 85 50 ff ff
	ff 08 00 00 00	 mov	 DWORD PTR _intPSKMode$[ebp], 8

; 4216 : 	else

  000ba	eb 0a		 jmp	 SHORT $LN28@CorrectPha
$LN30@CorrectPha:

; 4217 : 		intPSKMode = 4;

  000bc	c7 85 50 ff ff
	ff 04 00 00 00	 mov	 DWORD PTR _intPSKMode$[ebp], 4
$LN28@CorrectPha:

; 4218 :        
; 4219 : 	// Note Rev 0.6.2.4 The following phase margin value increased from 2095 (120 deg) to 2793 (160 deg) yielded an improvement in decode at low S:N
; 4220 : 
; 4221 : 	intPhaseMargin  = 2793 / intPSKMode; // Compute the acceptable phase correction range (+/-30 degrees for 4 PSK)

  000c6	b8 e9 0a 00 00	 mov	 eax, 2793		; 00000ae9H
  000cb	99		 cdq
  000cc	f7 bd 50 ff ff
	ff		 idiv	 DWORD PTR _intPSKMode$[ebp]
  000d2	66 89 45 f8	 mov	 WORD PTR _intPhaseMargin$[ebp], ax

; 4222 : 	intPhaseInc = 6284 / intPSKMode;

  000d6	b8 8c 18 00 00	 mov	 eax, 6284		; 0000188cH
  000db	99		 cdq
  000dc	f7 bd 50 ff ff
	ff		 idiv	 DWORD PTR _intPSKMode$[ebp]
  000e2	66 89 45 ec	 mov	 WORD PTR _intPhaseInc$[ebp], ax

; 4223 : 
; 4224 : 	// Compute the average offset (rotation) for all symbols within +/- intPhaseMargin of nominal
; 4225 :             
; 4226 : 	for (i = 0; i <  intPhaseLength; i++)

  000e6	c7 45 d4 00 00
	00 00		 mov	 DWORD PTR _i$[ebp], 0
  000ed	eb 09		 jmp	 SHORT $LN27@CorrectPha
$LN26@CorrectPha:
  000ef	8b 45 d4	 mov	 eax, DWORD PTR _i$[ebp]
  000f2	83 c0 01	 add	 eax, 1
  000f5	89 45 d4	 mov	 DWORD PTR _i$[ebp], eax
$LN27@CorrectPha:
  000f8	8b 45 d4	 mov	 eax, DWORD PTR _i$[ebp]
  000fb	3b 45 0c	 cmp	 eax, DWORD PTR _intPhaseLength$[ebp]
  000fe	0f 8d bb 00 00
	00		 jge	 $LN25@CorrectPha

; 4227 : 	{
; 4228 : 		intTest = (intPhase[i] / intPhaseInc);

  00104	8b 45 d4	 mov	 eax, DWORD PTR _i$[ebp]
  00107	8b 4d 08	 mov	 ecx, DWORD PTR _intPhase$[ebp]
  0010a	0f bf 04 41	 movsx	 eax, WORD PTR [ecx+eax*2]
  0010e	0f bf 4d ec	 movsx	 ecx, WORD PTR _intPhaseInc$[ebp]
  00112	99		 cdq
  00113	f7 f9		 idiv	 ecx
  00115	89 45 e0	 mov	 DWORD PTR _intTest$[ebp], eax

; 4229 : 		intOffset = intPhase[i] - intTest * intPhaseInc;

  00118	8b 45 d4	 mov	 eax, DWORD PTR _i$[ebp]
  0011b	8b 4d 08	 mov	 ecx, DWORD PTR _intPhase$[ebp]
  0011e	0f bf 14 41	 movsx	 edx, WORD PTR [ecx+eax*2]
  00122	0f bf 45 ec	 movsx	 eax, WORD PTR _intPhaseInc$[ebp]
  00126	0f af 45 e0	 imul	 eax, DWORD PTR _intTest$[ebp]
  0012a	2b d0		 sub	 edx, eax
  0012c	89 55 c8	 mov	 DWORD PTR _intOffset$[ebp], edx

; 4230 : 
; 4231 : 		if ((intOffset >= 0 && intOffset <= intPhaseMargin) || (intOffset < 0 && intOffset >= -intPhaseMargin))

  0012f	78 09		 js	 SHORT $LN22@CorrectPha
  00131	0f bf 45 f8	 movsx	 eax, WORD PTR _intPhaseMargin$[ebp]
  00135	39 45 c8	 cmp	 DWORD PTR _intOffset$[ebp], eax
  00138	7e 11		 jle	 SHORT $LN23@CorrectPha
$LN22@CorrectPha:
  0013a	83 7d c8 00	 cmp	 DWORD PTR _intOffset$[ebp], 0
  0013e	7d 7a		 jge	 SHORT $LN24@CorrectPha
  00140	0f bf 45 f8	 movsx	 eax, WORD PTR _intPhaseMargin$[ebp]
  00144	f7 d8		 neg	 eax
  00146	39 45 c8	 cmp	 DWORD PTR _intOffset$[ebp], eax
  00149	7c 6f		 jl	 SHORT $LN24@CorrectPha
$LN23@CorrectPha:

; 4232 : 		{
; 4233 : 			intAccOffsetCnt += 1;

  0014b	8b 45 98	 mov	 eax, DWORD PTR _intAccOffsetCnt$[ebp]
  0014e	83 c0 01	 add	 eax, 1
  00151	89 45 98	 mov	 DWORD PTR _intAccOffsetCnt$[ebp], eax

; 4234 : 			intAccOffset += intOffset;

  00154	8b 85 5c ff ff
	ff		 mov	 eax, DWORD PTR _intAccOffset$[ebp]
  0015a	03 45 c8	 add	 eax, DWORD PTR _intOffset$[ebp]
  0015d	89 85 5c ff ff
	ff		 mov	 DWORD PTR _intAccOffset$[ebp], eax

; 4235 : 			
; 4236 : 			if (i <= intPhaseLength / 4)

  00163	8b 45 0c	 mov	 eax, DWORD PTR _intPhaseLength$[ebp]
  00166	99		 cdq
  00167	83 e2 03	 and	 edx, 3
  0016a	03 c2		 add	 eax, edx
  0016c	c1 f8 02	 sar	 eax, 2
  0016f	39 45 d4	 cmp	 DWORD PTR _i$[ebp], eax
  00172	7f 1a		 jg	 SHORT $LN21@CorrectPha

; 4237 : 			{
; 4238 : 				intAccOffsetCntBeginning += 1;

  00174	8b 45 8c	 mov	 eax, DWORD PTR _intAccOffsetCntBeginning$[ebp]
  00177	83 c0 01	 add	 eax, 1
  0017a	89 45 8c	 mov	 DWORD PTR _intAccOffsetCntBeginning$[ebp], eax

; 4239 : 				intAccOffsetBeginning += intOffset;

  0017d	8b 85 74 ff ff
	ff		 mov	 eax, DWORD PTR _intAccOffsetBeginning$[ebp]
  00183	03 45 c8	 add	 eax, DWORD PTR _intOffset$[ebp]
  00186	89 85 74 ff ff
	ff		 mov	 DWORD PTR _intAccOffsetBeginning$[ebp], eax
  0018c	eb 2c		 jmp	 SHORT $LN24@CorrectPha
$LN21@CorrectPha:

; 4240 : 			}
; 4241 : 			else if (i >= (3 * intPhaseLength) / 4)

  0018e	8b 45 0c	 mov	 eax, DWORD PTR _intPhaseLength$[ebp]
  00191	6b c0 03	 imul	 eax, 3
  00194	99		 cdq
  00195	83 e2 03	 and	 edx, 3
  00198	03 c2		 add	 eax, edx
  0019a	c1 f8 02	 sar	 eax, 2
  0019d	39 45 d4	 cmp	 DWORD PTR _i$[ebp], eax
  001a0	7c 18		 jl	 SHORT $LN24@CorrectPha

; 4242 : 			{
; 4243 : 				intAccOffsetCntEnd += 1;

  001a2	8b 45 80	 mov	 eax, DWORD PTR _intAccOffsetCntEnd$[ebp]
  001a5	83 c0 01	 add	 eax, 1
  001a8	89 45 80	 mov	 DWORD PTR _intAccOffsetCntEnd$[ebp], eax

; 4244 : 				intAccOffsetEnd += intOffset;

  001ab	8b 85 68 ff ff
	ff		 mov	 eax, DWORD PTR _intAccOffsetEnd$[ebp]
  001b1	03 45 c8	 add	 eax, DWORD PTR _intOffset$[ebp]
  001b4	89 85 68 ff ff
	ff		 mov	 DWORD PTR _intAccOffsetEnd$[ebp], eax
$LN24@CorrectPha:

; 4245 : 			}
; 4246 : 		}
; 4247 : 	}

  001ba	e9 30 ff ff ff	 jmp	 $LN26@CorrectPha
$LN25@CorrectPha:

; 4248 : 	
; 4249 : 	if (intAccOffsetCnt > 0)

  001bf	83 7d 98 00	 cmp	 DWORD PTR _intAccOffsetCnt$[ebp], 0
  001c3	7e 14		 jle	 SHORT $LN18@CorrectPha

; 4250 : 		intAvgOffset = (intAccOffset / intAccOffsetCnt);

  001c5	8b 85 5c ff ff
	ff		 mov	 eax, DWORD PTR _intAccOffset$[ebp]
  001cb	99		 cdq
  001cc	f7 7d 98	 idiv	 DWORD PTR _intAccOffsetCnt$[ebp]
  001cf	c6 85 6f fe ff
	ff 01		 mov	 BYTE PTR $T7868[ebp], 1
  001d6	89 45 bc	 mov	 DWORD PTR _intAvgOffset$[ebp], eax
$LN18@CorrectPha:

; 4251 : 	if (intAccOffsetCntBeginning > 0)

  001d9	83 7d 8c 00	 cmp	 DWORD PTR _intAccOffsetCntBeginning$[ebp], 0
  001dd	7e 14		 jle	 SHORT $LN17@CorrectPha

; 4252 : 		intAvgOffsetBeginning = (intAccOffsetBeginning / intAccOffsetCntBeginning);

  001df	8b 85 74 ff ff
	ff		 mov	 eax, DWORD PTR _intAccOffsetBeginning$[ebp]
  001e5	99		 cdq
  001e6	f7 7d 8c	 idiv	 DWORD PTR _intAccOffsetCntBeginning$[ebp]
  001e9	c6 85 7b fe ff
	ff 01		 mov	 BYTE PTR $T7869[ebp], 1
  001f0	89 45 b0	 mov	 DWORD PTR _intAvgOffsetBeginning$[ebp], eax
$LN17@CorrectPha:

; 4253 : 	if (intAccOffsetCntEnd > 0)

  001f3	83 7d 80 00	 cmp	 DWORD PTR _intAccOffsetCntEnd$[ebp], 0
  001f7	7e 14		 jle	 SHORT $LN16@CorrectPha

; 4254 : 		intAvgOffsetEnd = (intAccOffsetEnd / intAccOffsetCntEnd);

  001f9	8b 85 68 ff ff
	ff		 mov	 eax, DWORD PTR _intAccOffsetEnd$[ebp]
  001ff	99		 cdq
  00200	f7 7d 80	 idiv	 DWORD PTR _intAccOffsetCntEnd$[ebp]
  00203	c6 85 87 fe ff
	ff 01		 mov	 BYTE PTR $T7870[ebp], 1
  0020a	89 45 a4	 mov	 DWORD PTR _intAvgOffsetEnd$[ebp], eax
$LN16@CorrectPha:

; 4255 :      
; 4256 : 	//WriteDebugLog("[CorrectPhaseForOffset] Beginning: %d End: %d Total: %d",
; 4257 : 		//intAvgOffsetBeginning, intAvgOffsetEnd, intAvgOffset);
; 4258 : 
; 4259 : 	if ((intAccOffsetCntBeginning > intPhaseLength / 8) && (intAccOffsetCntEnd > intPhaseLength / 8))

  0020d	8b 45 0c	 mov	 eax, DWORD PTR _intPhaseLength$[ebp]
  00210	99		 cdq
  00211	83 e2 07	 and	 edx, 7
  00214	03 c2		 add	 eax, edx
  00216	c1 f8 03	 sar	 eax, 3
  00219	39 45 8c	 cmp	 DWORD PTR _intAccOffsetCntBeginning$[ebp], eax
  0021c	0f 8e 41 01 00
	00		 jle	 $LN15@CorrectPha
  00222	8b 45 0c	 mov	 eax, DWORD PTR _intPhaseLength$[ebp]
  00225	99		 cdq
  00226	83 e2 07	 and	 edx, 7
  00229	03 c2		 add	 eax, edx
  0022b	c1 f8 03	 sar	 eax, 3
  0022e	39 45 80	 cmp	 DWORD PTR _intAccOffsetCntEnd$[ebp], eax
  00231	0f 8e 2c 01 00
	00		 jle	 $LN15@CorrectPha

; 4260 : 	{
; 4261 : 		for (i = 0; i < intPhaseLength; i++)

  00237	c7 45 d4 00 00
	00 00		 mov	 DWORD PTR _i$[ebp], 0
  0023e	eb 09		 jmp	 SHORT $LN14@CorrectPha
$LN13@CorrectPha:
  00240	8b 45 d4	 mov	 eax, DWORD PTR _i$[ebp]
  00243	83 c0 01	 add	 eax, 1
  00246	89 45 d4	 mov	 DWORD PTR _i$[ebp], eax
$LN14@CorrectPha:
  00249	8b 45 d4	 mov	 eax, DWORD PTR _i$[ebp]
  0024c	3b 45 0c	 cmp	 eax, DWORD PTR _intPhaseLength$[ebp]
  0024f	0f 8d c0 00 00
	00		 jge	 $LN12@CorrectPha

; 4262 : 		{
; 4263 : 			intPhase[i] = intPhase[i] - ((intAvgOffsetBeginning * (intPhaseLength - i) / intPhaseLength) + (intAvgOffsetEnd * i / intPhaseLength));

  00255	80 bd 7b fe ff
	ff 00		 cmp	 BYTE PTR $T7869[ebp], 0
  0025c	75 0d		 jne	 SHORT $LN33@CorrectPha
  0025e	68 00 00 00 00	 push	 OFFSET $LN34@CorrectPha
  00263	e8 00 00 00 00	 call	 __RTC_UninitUse
  00268	83 c4 04	 add	 esp, 4
$LN33@CorrectPha:
  0026b	80 bd 87 fe ff
	ff 00		 cmp	 BYTE PTR $T7870[ebp], 0
  00272	75 0d		 jne	 SHORT $LN35@CorrectPha
  00274	68 00 00 00 00	 push	 OFFSET $LN36@CorrectPha
  00279	e8 00 00 00 00	 call	 __RTC_UninitUse
  0027e	83 c4 04	 add	 esp, 4
$LN35@CorrectPha:
  00281	8b 45 d4	 mov	 eax, DWORD PTR _i$[ebp]
  00284	8b 4d 08	 mov	 ecx, DWORD PTR _intPhase$[ebp]
  00287	0f bf 0c 41	 movsx	 ecx, WORD PTR [ecx+eax*2]
  0028b	8b 55 0c	 mov	 edx, DWORD PTR _intPhaseLength$[ebp]
  0028e	2b 55 d4	 sub	 edx, DWORD PTR _i$[ebp]
  00291	8b c2		 mov	 eax, edx
  00293	0f af 45 b0	 imul	 eax, DWORD PTR _intAvgOffsetBeginning$[ebp]
  00297	99		 cdq
  00298	f7 7d 0c	 idiv	 DWORD PTR _intPhaseLength$[ebp]
  0029b	8b f0		 mov	 esi, eax
  0029d	8b 45 a4	 mov	 eax, DWORD PTR _intAvgOffsetEnd$[ebp]
  002a0	0f af 45 d4	 imul	 eax, DWORD PTR _i$[ebp]
  002a4	99		 cdq
  002a5	f7 7d 0c	 idiv	 DWORD PTR _intPhaseLength$[ebp]
  002a8	03 f0		 add	 esi, eax
  002aa	2b ce		 sub	 ecx, esi
  002ac	8b 45 d4	 mov	 eax, DWORD PTR _i$[ebp]
  002af	8b 55 08	 mov	 edx, DWORD PTR _intPhase$[ebp]
  002b2	66 89 0c 42	 mov	 WORD PTR [edx+eax*2], cx

; 4264 : 			if (intPhase[i] > 3142)

  002b6	8b 45 d4	 mov	 eax, DWORD PTR _i$[ebp]
  002b9	8b 4d 08	 mov	 ecx, DWORD PTR _intPhase$[ebp]
  002bc	0f bf 14 41	 movsx	 edx, WORD PTR [ecx+eax*2]
  002c0	81 fa 46 0c 00
	00		 cmp	 edx, 3142		; 00000c46H
  002c6	7e 1c		 jle	 SHORT $LN11@CorrectPha

; 4265 : 				intPhase[i] -= 6284;

  002c8	8b 45 d4	 mov	 eax, DWORD PTR _i$[ebp]
  002cb	8b 4d 08	 mov	 ecx, DWORD PTR _intPhase$[ebp]
  002ce	0f bf 14 41	 movsx	 edx, WORD PTR [ecx+eax*2]
  002d2	81 ea 8c 18 00
	00		 sub	 edx, 6284		; 0000188cH
  002d8	8b 45 d4	 mov	 eax, DWORD PTR _i$[ebp]
  002db	8b 4d 08	 mov	 ecx, DWORD PTR _intPhase$[ebp]
  002de	66 89 14 41	 mov	 WORD PTR [ecx+eax*2], dx
  002e2	eb 2c		 jmp	 SHORT $LN10@CorrectPha
$LN11@CorrectPha:

; 4266 : 			else if (intPhase[i] < -3142)

  002e4	8b 45 d4	 mov	 eax, DWORD PTR _i$[ebp]
  002e7	8b 4d 08	 mov	 ecx, DWORD PTR _intPhase$[ebp]
  002ea	0f bf 14 41	 movsx	 edx, WORD PTR [ecx+eax*2]
  002ee	81 fa ba f3 ff
	ff		 cmp	 edx, -3142		; fffff3baH
  002f4	7d 1a		 jge	 SHORT $LN10@CorrectPha

; 4267 : 				intPhase[i] += 6284;

  002f6	8b 45 d4	 mov	 eax, DWORD PTR _i$[ebp]
  002f9	8b 4d 08	 mov	 ecx, DWORD PTR _intPhase$[ebp]
  002fc	0f bf 14 41	 movsx	 edx, WORD PTR [ecx+eax*2]
  00300	81 c2 8c 18 00
	00		 add	 edx, 6284		; 0000188cH
  00306	8b 45 d4	 mov	 eax, DWORD PTR _i$[ebp]
  00309	8b 4d 08	 mov	 ecx, DWORD PTR _intPhase$[ebp]
  0030c	66 89 14 41	 mov	 WORD PTR [ecx+eax*2], dx
$LN10@CorrectPha:

; 4268 : 		}

  00310	e9 2b ff ff ff	 jmp	 $LN13@CorrectPha
$LN12@CorrectPha:

; 4269 : 		WriteDebugLog("[CorrectPhaseForTuningOffset] AvgOffsetBeginning=%d AvgOffsetEnd=%d AccOffsetCnt=%d/%d",
; 4270 : 				intAvgOffsetBeginning, intAvgOffsetEnd, intAccOffsetCnt, intPhaseLength);

  00315	80 bd 87 fe ff
	ff 00		 cmp	 BYTE PTR $T7870[ebp], 0
  0031c	75 0d		 jne	 SHORT $LN37@CorrectPha
  0031e	68 00 00 00 00	 push	 OFFSET $LN36@CorrectPha
  00323	e8 00 00 00 00	 call	 __RTC_UninitUse
  00328	83 c4 04	 add	 esp, 4
$LN37@CorrectPha:
  0032b	80 bd 7b fe ff
	ff 00		 cmp	 BYTE PTR $T7869[ebp], 0
  00332	75 0d		 jne	 SHORT $LN38@CorrectPha
  00334	68 00 00 00 00	 push	 OFFSET $LN34@CorrectPha
  00339	e8 00 00 00 00	 call	 __RTC_UninitUse
  0033e	83 c4 04	 add	 esp, 4
$LN38@CorrectPha:
  00341	8b 45 0c	 mov	 eax, DWORD PTR _intPhaseLength$[ebp]
  00344	50		 push	 eax
  00345	8b 4d 98	 mov	 ecx, DWORD PTR _intAccOffsetCnt$[ebp]
  00348	51		 push	 ecx
  00349	8b 55 a4	 mov	 edx, DWORD PTR _intAvgOffsetEnd$[ebp]
  0034c	52		 push	 edx
  0034d	8b 45 b0	 mov	 eax, DWORD PTR _intAvgOffsetBeginning$[ebp]
  00350	50		 push	 eax
  00351	68 00 00 00 00	 push	 OFFSET ??_C@_0FH@MJJGCBNJ@?$FLCorrectPhaseForTuningOffset?$FN?5Av@
  00356	e8 00 00 00 00	 call	 _WriteDebugLog
  0035b	83 c4 14	 add	 esp, 20			; 00000014H
  0035e	e9 ea 00 00 00	 jmp	 $LN31@CorrectPha
$LN15@CorrectPha:

; 4271 : 	}
; 4272 : 	else if (intAccOffsetCnt > intPhaseLength / 2)

  00363	8b 45 0c	 mov	 eax, DWORD PTR _intPhaseLength$[ebp]
  00366	99		 cdq
  00367	2b c2		 sub	 eax, edx
  00369	d1 f8		 sar	 eax, 1
  0036b	39 45 98	 cmp	 DWORD PTR _intAccOffsetCnt$[ebp], eax
  0036e	0f 8e d9 00 00
	00		 jle	 $LN31@CorrectPha

; 4273 : 	{
; 4274 : 		for (i = 0; i < intPhaseLength; i++)

  00374	c7 45 d4 00 00
	00 00		 mov	 DWORD PTR _i$[ebp], 0
  0037b	eb 09		 jmp	 SHORT $LN6@CorrectPha
$LN5@CorrectPha:
  0037d	8b 45 d4	 mov	 eax, DWORD PTR _i$[ebp]
  00380	83 c0 01	 add	 eax, 1
  00383	89 45 d4	 mov	 DWORD PTR _i$[ebp], eax
$LN6@CorrectPha:
  00386	8b 45 d4	 mov	 eax, DWORD PTR _i$[ebp]
  00389	3b 45 0c	 cmp	 eax, DWORD PTR _intPhaseLength$[ebp]
  0038c	0f 8d 8c 00 00
	00		 jge	 $LN4@CorrectPha

; 4275 : 		{
; 4276 : 			intPhase[i] -= intAvgOffset;

  00392	80 bd 6f fe ff
	ff 00		 cmp	 BYTE PTR $T7868[ebp], 0
  00399	75 0d		 jne	 SHORT $LN39@CorrectPha
  0039b	68 00 00 00 00	 push	 OFFSET $LN40@CorrectPha
  003a0	e8 00 00 00 00	 call	 __RTC_UninitUse
  003a5	83 c4 04	 add	 esp, 4
$LN39@CorrectPha:
  003a8	8b 45 d4	 mov	 eax, DWORD PTR _i$[ebp]
  003ab	8b 4d 08	 mov	 ecx, DWORD PTR _intPhase$[ebp]
  003ae	0f bf 14 41	 movsx	 edx, WORD PTR [ecx+eax*2]
  003b2	2b 55 bc	 sub	 edx, DWORD PTR _intAvgOffset$[ebp]
  003b5	8b 45 d4	 mov	 eax, DWORD PTR _i$[ebp]
  003b8	8b 4d 08	 mov	 ecx, DWORD PTR _intPhase$[ebp]
  003bb	66 89 14 41	 mov	 WORD PTR [ecx+eax*2], dx

; 4277 : 			if (intPhase[i] > 3142)

  003bf	8b 45 d4	 mov	 eax, DWORD PTR _i$[ebp]
  003c2	8b 4d 08	 mov	 ecx, DWORD PTR _intPhase$[ebp]
  003c5	0f bf 14 41	 movsx	 edx, WORD PTR [ecx+eax*2]
  003c9	81 fa 46 0c 00
	00		 cmp	 edx, 3142		; 00000c46H
  003cf	7e 1c		 jle	 SHORT $LN3@CorrectPha

; 4278 : 				intPhase[i] -= 6284;

  003d1	8b 45 d4	 mov	 eax, DWORD PTR _i$[ebp]
  003d4	8b 4d 08	 mov	 ecx, DWORD PTR _intPhase$[ebp]
  003d7	0f bf 14 41	 movsx	 edx, WORD PTR [ecx+eax*2]
  003db	81 ea 8c 18 00
	00		 sub	 edx, 6284		; 0000188cH
  003e1	8b 45 d4	 mov	 eax, DWORD PTR _i$[ebp]
  003e4	8b 4d 08	 mov	 ecx, DWORD PTR _intPhase$[ebp]
  003e7	66 89 14 41	 mov	 WORD PTR [ecx+eax*2], dx
  003eb	eb 2c		 jmp	 SHORT $LN2@CorrectPha
$LN3@CorrectPha:

; 4279 : 			else if (intPhase[i] < -3142)

  003ed	8b 45 d4	 mov	 eax, DWORD PTR _i$[ebp]
  003f0	8b 4d 08	 mov	 ecx, DWORD PTR _intPhase$[ebp]
  003f3	0f bf 14 41	 movsx	 edx, WORD PTR [ecx+eax*2]
  003f7	81 fa ba f3 ff
	ff		 cmp	 edx, -3142		; fffff3baH
  003fd	7d 1a		 jge	 SHORT $LN2@CorrectPha

; 4280 : 				intPhase[i] += 6284;

  003ff	8b 45 d4	 mov	 eax, DWORD PTR _i$[ebp]
  00402	8b 4d 08	 mov	 ecx, DWORD PTR _intPhase$[ebp]
  00405	0f bf 14 41	 movsx	 edx, WORD PTR [ecx+eax*2]
  00409	81 c2 8c 18 00
	00		 add	 edx, 6284		; 0000188cH
  0040f	8b 45 d4	 mov	 eax, DWORD PTR _i$[ebp]
  00412	8b 4d 08	 mov	 ecx, DWORD PTR _intPhase$[ebp]
  00415	66 89 14 41	 mov	 WORD PTR [ecx+eax*2], dx
$LN2@CorrectPha:

; 4281 : 		}

  00419	e9 5f ff ff ff	 jmp	 $LN5@CorrectPha
$LN4@CorrectPha:

; 4282 : 		WriteDebugLog("[CorrectPhaseForTuningOffset] AvgOffset=%d AccOffsetCnt=%d/%d",
; 4283 : 				intAvgOffset, intAccOffsetCnt, intPhaseLength);

  0041e	80 bd 6f fe ff
	ff 00		 cmp	 BYTE PTR $T7868[ebp], 0
  00425	75 0d		 jne	 SHORT $LN41@CorrectPha
  00427	68 00 00 00 00	 push	 OFFSET $LN40@CorrectPha
  0042c	e8 00 00 00 00	 call	 __RTC_UninitUse
  00431	83 c4 04	 add	 esp, 4
$LN41@CorrectPha:
  00434	8b 45 0c	 mov	 eax, DWORD PTR _intPhaseLength$[ebp]
  00437	50		 push	 eax
  00438	8b 4d 98	 mov	 ecx, DWORD PTR _intAccOffsetCnt$[ebp]
  0043b	51		 push	 ecx
  0043c	8b 55 bc	 mov	 edx, DWORD PTR _intAvgOffset$[ebp]
  0043f	52		 push	 edx
  00440	68 00 00 00 00	 push	 OFFSET ??_C@_0DO@MBDBNJIB@?$FLCorrectPhaseForTuningOffset?$FN?5Av@
  00445	e8 00 00 00 00	 call	 _WriteDebugLog
  0044a	83 c4 10	 add	 esp, 16			; 00000010H
$LN31@CorrectPha:

; 4284 : 
; 4285 : 	}
; 4286 : }

  0044d	5f		 pop	 edi
  0044e	5e		 pop	 esi
  0044f	5b		 pop	 ebx
  00450	81 c4 98 01 00
	00		 add	 esp, 408		; 00000198H
  00456	3b ec		 cmp	 ebp, esp
  00458	e8 00 00 00 00	 call	 __RTC_CheckEsp
  0045d	8b e5		 mov	 esp, ebp
  0045f	5d		 pop	 ebp
  00460	c3		 ret	 0
$LN42@CorrectPha:
$LN40@CorrectPha:
  00461	69		 DB	 105			; 00000069H
  00462	6e		 DB	 110			; 0000006eH
  00463	74		 DB	 116			; 00000074H
  00464	41		 DB	 65			; 00000041H
  00465	76		 DB	 118			; 00000076H
  00466	67		 DB	 103			; 00000067H
  00467	4f		 DB	 79			; 0000004fH
  00468	66		 DB	 102			; 00000066H
  00469	66		 DB	 102			; 00000066H
  0046a	73		 DB	 115			; 00000073H
  0046b	65		 DB	 101			; 00000065H
  0046c	74		 DB	 116			; 00000074H
  0046d	00		 DB	 0
$LN36@CorrectPha:
  0046e	69		 DB	 105			; 00000069H
  0046f	6e		 DB	 110			; 0000006eH
  00470	74		 DB	 116			; 00000074H
  00471	41		 DB	 65			; 00000041H
  00472	76		 DB	 118			; 00000076H
  00473	67		 DB	 103			; 00000067H
  00474	4f		 DB	 79			; 0000004fH
  00475	66		 DB	 102			; 00000066H
  00476	66		 DB	 102			; 00000066H
  00477	73		 DB	 115			; 00000073H
  00478	65		 DB	 101			; 00000065H
  00479	74		 DB	 116			; 00000074H
  0047a	45		 DB	 69			; 00000045H
  0047b	6e		 DB	 110			; 0000006eH
  0047c	64		 DB	 100			; 00000064H
  0047d	00		 DB	 0
$LN34@CorrectPha:
  0047e	69		 DB	 105			; 00000069H
  0047f	6e		 DB	 110			; 0000006eH
  00480	74		 DB	 116			; 00000074H
  00481	41		 DB	 65			; 00000041H
  00482	76		 DB	 118			; 00000076H
  00483	67		 DB	 103			; 00000067H
  00484	4f		 DB	 79			; 0000004fH
  00485	66		 DB	 102			; 00000066H
  00486	66		 DB	 102			; 00000066H
  00487	73		 DB	 115			; 00000073H
  00488	65		 DB	 101			; 00000065H
  00489	74		 DB	 116			; 00000074H
  0048a	42		 DB	 66			; 00000042H
  0048b	65		 DB	 101			; 00000065H
  0048c	67		 DB	 103			; 00000067H
  0048d	69		 DB	 105			; 00000069H
  0048e	6e		 DB	 110			; 0000006eH
  0048f	6e		 DB	 110			; 0000006eH
  00490	69		 DB	 105			; 00000069H
  00491	6e		 DB	 110			; 0000006eH
  00492	67		 DB	 103			; 00000067H
  00493	00		 DB	 0
_CorrectPhaseForTuningOffset ENDP
_TEXT	ENDS
PUBLIC	__real@3dcccccd
PUBLIC	_Decode1CarQAMChar
;	COMDAT __real@3dcccccd
CONST	SEGMENT
__real@3dcccccd DD 03dcccccdr			; 0.1
; Function compile flags: /Odtp /RTCsu /ZI
CONST	ENDS
;	COMDAT _Decode1CarQAMChar
_TEXT	SEGMENT
_Threshold$ = -80					; size = 4
_dblAlpha$ = -56					; size = 4
_Start$ = -44						; size = 4
_k$ = -32						; size = 4
_i$ = -20						; size = 4
_intData$ = -8						; size = 4
_Decoded$ = 8						; size = 4
_Carrier$ = 12						; size = 4
_Decode1CarQAMChar PROC					; COMDAT

; 4296 : {

  00000	55		 push	 ebp
  00001	8b ec		 mov	 ebp, esp
  00003	81 ec 14 01 00
	00		 sub	 esp, 276		; 00000114H
  00009	53		 push	 ebx
  0000a	56		 push	 esi
  0000b	57		 push	 edi
  0000c	8d bd ec fe ff
	ff		 lea	 edi, DWORD PTR [ebp-276]
  00012	b9 45 00 00 00	 mov	 ecx, 69			; 00000045H
  00017	b8 cc cc cc cc	 mov	 eax, -858993460		; ccccccccH
  0001c	f3 ab		 rep stosd

; 4297 : 	unsigned int intData;
; 4298 : 	int i, k;
; 4299 : 	int Start = 0;

  0001e	c7 45 d4 00 00
	00 00		 mov	 DWORD PTR _Start$[ebp], 0

; 4300 : 
; 4301 : 	float dblAlpha = 0.1; // this determins how quickly the rolling average dblTrackingThreshold responds.

  00025	d9 05 00 00 00
	00		 fld	 DWORD PTR __real@3dcccccd
  0002b	d9 5d c8	 fstp	 DWORD PTR _dblAlpha$[ebp]

; 4302 : 
; 4303 : 	// !!! this needs optimising !!!!
; 4304 : 
; 4305 : 	// dblAlpha value of .1 seems to work well...needs to be tested on fading channel (e.g. Multipath)
; 4306 : 
; 4307 : 	int intPhasePtr;
; 4308 : 	
; 4309 : 	int Threshold = intCarMagThreshold[Carrier];

  0002e	8b 45 0c	 mov	 eax, DWORD PTR _Carrier$[ebp]
  00031	0f bf 0c 45 00
	00 00 00	 movsx	 ecx, WORD PTR _intCarMagThreshold[eax*2]
  00039	89 4d b0	 mov	 DWORD PTR _Threshold$[ebp], ecx

; 4310 : 
; 4311 : 	if (CarrierOk[Carrier])

  0003c	8b 45 0c	 mov	 eax, DWORD PTR _Carrier$[ebp]
  0003f	0f be 88 00 00
	00 00		 movsx	 ecx, BYTE PTR _CarrierOk[eax]
  00046	85 c9		 test	 ecx, ecx
  00048	74 05		 je	 SHORT $LN24@Decode1Car@2

; 4312 : 		return;							// don't do it again

  0004a	e9 e0 02 00 00	 jmp	 $LN21@Decode1Car@2
$LN24@Decode1Car@2:

; 4313 : 
; 4314 : 	// We calculated initial mag from reference symbol
; 4315 : 
; 4316 : 	// use filtered tracking of refernce phase amplitude
; 4317 : 	// (should be full amplitude value)
; 4318 :      
; 4319 : 	// On WGN this appears to improve decoding threshold about 1 dB 9/3/2016
; 4320 :     	
; 4321 : //	intCarMagThreshold[Carrier]= 750;
; 4322 : 
; 4323 : //	printf("%d\n", intCarMag=Threshold);
; 4324 : 
; 4325 : 	// Phase Samples are in intPhases
; 4326 : 
; 4327 : 	for (i = 0; i < 4; i++)

  0004f	c7 45 ec 00 00
	00 00		 mov	 DWORD PTR _i$[ebp], 0
  00056	eb 09		 jmp	 SHORT $LN23@Decode1Car@2
$LN22@Decode1Car@2:
  00058	8b 45 ec	 mov	 eax, DWORD PTR _i$[ebp]
  0005b	83 c0 01	 add	 eax, 1
  0005e	89 45 ec	 mov	 DWORD PTR _i$[ebp], eax
$LN23@Decode1Car@2:
  00061	83 7d ec 04	 cmp	 DWORD PTR _i$[ebp], 4
  00065	0f 8d c4 02 00
	00		 jge	 $LN21@Decode1Car@2

; 4328 : 	{
; 4329 : 
; 4330 : 	intData = 0;

  0006b	c7 45 f8 00 00
	00 00		 mov	 DWORD PTR _intData$[ebp], 0

; 4331 : 
; 4332 : 	for (k = 0; k < 2; k++)

  00072	c7 45 e0 00 00
	00 00		 mov	 DWORD PTR _k$[ebp], 0
  00079	eb 09		 jmp	 SHORT $LN20@Decode1Car@2
$LN19@Decode1Car@2:
  0007b	8b 45 e0	 mov	 eax, DWORD PTR _k$[ebp]
  0007e	83 c0 01	 add	 eax, 1
  00081	89 45 e0	 mov	 DWORD PTR _k$[ebp], eax
$LN20@Decode1Car@2:
  00084	83 7d e0 02	 cmp	 DWORD PTR _k$[ebp], 2
  00088	0f 8d 8b 02 00
	00		 jge	 $LN18@Decode1Car@2

; 4333 : 	{
; 4334 : 		intData <<= 4;

  0008e	8b 45 f8	 mov	 eax, DWORD PTR _intData$[ebp]
  00091	c1 e0 04	 shl	 eax, 4
  00094	89 45 f8	 mov	 DWORD PTR _intData$[ebp], eax

; 4335 : 
; 4336 : 		if (intPhases[Carrier][Start] < 393 && intPhases[Carrier][Start] > -393)

  00097	8b 45 0c	 mov	 eax, DWORD PTR _Carrier$[ebp]
  0009a	69 c0 18 05 00
	00		 imul	 eax, 1304		; 00000518H
  000a0	8b 4d d4	 mov	 ecx, DWORD PTR _Start$[ebp]
  000a3	0f bf 94 48 00
	00 00 00	 movsx	 edx, WORD PTR _intPhases[eax+ecx*2]
  000ab	81 fa 89 01 00
	00		 cmp	 edx, 393		; 00000189H
  000b1	7d 21		 jge	 SHORT $LN17@Decode1Car@2
  000b3	8b 45 0c	 mov	 eax, DWORD PTR _Carrier$[ebp]
  000b6	69 c0 18 05 00
	00		 imul	 eax, 1304		; 00000518H
  000bc	8b 4d d4	 mov	 ecx, DWORD PTR _Start$[ebp]
  000bf	0f bf 94 48 00
	00 00 00	 movsx	 edx, WORD PTR _intPhases[eax+ecx*2]
  000c7	81 fa 77 fe ff
	ff		 cmp	 edx, -393		; fffffe77H
  000cd	7e 05		 jle	 SHORT $LN17@Decode1Car@2
  000cf	e9 a7 01 00 00	 jmp	 $LN3@Decode1Car@2
$LN17@Decode1Car@2:

; 4337 : 		{
; 4338 : 		}		// Zero so no need to do anything
; 4339 : 		else if (intPhases[Carrier][Start] >= 393 && intPhases[Carrier][Start] < 1179)

  000d4	8b 45 0c	 mov	 eax, DWORD PTR _Carrier$[ebp]
  000d7	69 c0 18 05 00
	00		 imul	 eax, 1304		; 00000518H
  000dd	8b 4d d4	 mov	 ecx, DWORD PTR _Start$[ebp]
  000e0	0f bf 94 48 00
	00 00 00	 movsx	 edx, WORD PTR _intPhases[eax+ecx*2]
  000e8	81 fa 89 01 00
	00		 cmp	 edx, 393		; 00000189H
  000ee	7c 2a		 jl	 SHORT $LN15@Decode1Car@2
  000f0	8b 45 0c	 mov	 eax, DWORD PTR _Carrier$[ebp]
  000f3	69 c0 18 05 00
	00		 imul	 eax, 1304		; 00000518H
  000f9	8b 4d d4	 mov	 ecx, DWORD PTR _Start$[ebp]
  000fc	0f bf 94 48 00
	00 00 00	 movsx	 edx, WORD PTR _intPhases[eax+ecx*2]
  00104	81 fa 9b 04 00
	00		 cmp	 edx, 1179		; 0000049bH
  0010a	7d 0e		 jge	 SHORT $LN15@Decode1Car@2

; 4340 : 			intData += 1;

  0010c	8b 45 f8	 mov	 eax, DWORD PTR _intData$[ebp]
  0010f	83 c0 01	 add	 eax, 1
  00112	89 45 f8	 mov	 DWORD PTR _intData$[ebp], eax
  00115	e9 61 01 00 00	 jmp	 $LN3@Decode1Car@2
$LN15@Decode1Car@2:

; 4341 : 		else if (intPhases[Carrier][Start] >= 1179 && intPhases[Carrier][Start] < 1965)

  0011a	8b 45 0c	 mov	 eax, DWORD PTR _Carrier$[ebp]
  0011d	69 c0 18 05 00
	00		 imul	 eax, 1304		; 00000518H
  00123	8b 4d d4	 mov	 ecx, DWORD PTR _Start$[ebp]
  00126	0f bf 94 48 00
	00 00 00	 movsx	 edx, WORD PTR _intPhases[eax+ecx*2]
  0012e	81 fa 9b 04 00
	00		 cmp	 edx, 1179		; 0000049bH
  00134	7c 2a		 jl	 SHORT $LN13@Decode1Car@2
  00136	8b 45 0c	 mov	 eax, DWORD PTR _Carrier$[ebp]
  00139	69 c0 18 05 00
	00		 imul	 eax, 1304		; 00000518H
  0013f	8b 4d d4	 mov	 ecx, DWORD PTR _Start$[ebp]
  00142	0f bf 94 48 00
	00 00 00	 movsx	 edx, WORD PTR _intPhases[eax+ecx*2]
  0014a	81 fa ad 07 00
	00		 cmp	 edx, 1965		; 000007adH
  00150	7d 0e		 jge	 SHORT $LN13@Decode1Car@2

; 4342 : 			intData += 2;

  00152	8b 45 f8	 mov	 eax, DWORD PTR _intData$[ebp]
  00155	83 c0 02	 add	 eax, 2
  00158	89 45 f8	 mov	 DWORD PTR _intData$[ebp], eax
  0015b	e9 1b 01 00 00	 jmp	 $LN3@Decode1Car@2
$LN13@Decode1Car@2:

; 4343 : 		else if (intPhases[Carrier][Start] >= 1965 && intPhases[Carrier][Start] < 2751)

  00160	8b 45 0c	 mov	 eax, DWORD PTR _Carrier$[ebp]
  00163	69 c0 18 05 00
	00		 imul	 eax, 1304		; 00000518H
  00169	8b 4d d4	 mov	 ecx, DWORD PTR _Start$[ebp]
  0016c	0f bf 94 48 00
	00 00 00	 movsx	 edx, WORD PTR _intPhases[eax+ecx*2]
  00174	81 fa ad 07 00
	00		 cmp	 edx, 1965		; 000007adH
  0017a	7c 2a		 jl	 SHORT $LN11@Decode1Car@2
  0017c	8b 45 0c	 mov	 eax, DWORD PTR _Carrier$[ebp]
  0017f	69 c0 18 05 00
	00		 imul	 eax, 1304		; 00000518H
  00185	8b 4d d4	 mov	 ecx, DWORD PTR _Start$[ebp]
  00188	0f bf 94 48 00
	00 00 00	 movsx	 edx, WORD PTR _intPhases[eax+ecx*2]
  00190	81 fa bf 0a 00
	00		 cmp	 edx, 2751		; 00000abfH
  00196	7d 0e		 jge	 SHORT $LN11@Decode1Car@2

; 4344 : 			intData += 3;

  00198	8b 45 f8	 mov	 eax, DWORD PTR _intData$[ebp]
  0019b	83 c0 03	 add	 eax, 3
  0019e	89 45 f8	 mov	 DWORD PTR _intData$[ebp], eax
  001a1	e9 d5 00 00 00	 jmp	 $LN3@Decode1Car@2
$LN11@Decode1Car@2:

; 4345 : 		else if (intPhases[Carrier][Start] >= 2751 || intPhases[Carrier][Start] < -2751)

  001a6	8b 45 0c	 mov	 eax, DWORD PTR _Carrier$[ebp]
  001a9	69 c0 18 05 00
	00		 imul	 eax, 1304		; 00000518H
  001af	8b 4d d4	 mov	 ecx, DWORD PTR _Start$[ebp]
  001b2	0f bf 94 48 00
	00 00 00	 movsx	 edx, WORD PTR _intPhases[eax+ecx*2]
  001ba	81 fa bf 0a 00
	00		 cmp	 edx, 2751		; 00000abfH
  001c0	7d 1c		 jge	 SHORT $LN8@Decode1Car@2
  001c2	8b 45 0c	 mov	 eax, DWORD PTR _Carrier$[ebp]
  001c5	69 c0 18 05 00
	00		 imul	 eax, 1304		; 00000518H
  001cb	8b 4d d4	 mov	 ecx, DWORD PTR _Start$[ebp]
  001ce	0f bf 94 48 00
	00 00 00	 movsx	 edx, WORD PTR _intPhases[eax+ecx*2]
  001d6	81 fa 41 f5 ff
	ff		 cmp	 edx, -2751		; fffff541H
  001dc	7d 0e		 jge	 SHORT $LN9@Decode1Car@2
$LN8@Decode1Car@2:

; 4346 : 			intData += 4;

  001de	8b 45 f8	 mov	 eax, DWORD PTR _intData$[ebp]
  001e1	83 c0 04	 add	 eax, 4
  001e4	89 45 f8	 mov	 DWORD PTR _intData$[ebp], eax
  001e7	e9 8f 00 00 00	 jmp	 $LN3@Decode1Car@2
$LN9@Decode1Car@2:

; 4347 : 		else if (intPhases[Carrier][Start] >= -2751 && intPhases[Carrier][Start] < -1965)

  001ec	8b 45 0c	 mov	 eax, DWORD PTR _Carrier$[ebp]
  001ef	69 c0 18 05 00
	00		 imul	 eax, 1304		; 00000518H
  001f5	8b 4d d4	 mov	 ecx, DWORD PTR _Start$[ebp]
  001f8	0f bf 94 48 00
	00 00 00	 movsx	 edx, WORD PTR _intPhases[eax+ecx*2]
  00200	81 fa 41 f5 ff
	ff		 cmp	 edx, -2751		; fffff541H
  00206	7c 27		 jl	 SHORT $LN6@Decode1Car@2
  00208	8b 45 0c	 mov	 eax, DWORD PTR _Carrier$[ebp]
  0020b	69 c0 18 05 00
	00		 imul	 eax, 1304		; 00000518H
  00211	8b 4d d4	 mov	 ecx, DWORD PTR _Start$[ebp]
  00214	0f bf 94 48 00
	00 00 00	 movsx	 edx, WORD PTR _intPhases[eax+ecx*2]
  0021c	81 fa 53 f8 ff
	ff		 cmp	 edx, -1965		; fffff853H
  00222	7d 0b		 jge	 SHORT $LN6@Decode1Car@2

; 4348 : 			intData += 5;

  00224	8b 45 f8	 mov	 eax, DWORD PTR _intData$[ebp]
  00227	83 c0 05	 add	 eax, 5
  0022a	89 45 f8	 mov	 DWORD PTR _intData$[ebp], eax
  0022d	eb 4c		 jmp	 SHORT $LN3@Decode1Car@2
$LN6@Decode1Car@2:

; 4349 : 		else if (intPhases[Carrier][Start] >= -1965 && intPhases[Carrier][Start] <= -1179)

  0022f	8b 45 0c	 mov	 eax, DWORD PTR _Carrier$[ebp]
  00232	69 c0 18 05 00
	00		 imul	 eax, 1304		; 00000518H
  00238	8b 4d d4	 mov	 ecx, DWORD PTR _Start$[ebp]
  0023b	0f bf 94 48 00
	00 00 00	 movsx	 edx, WORD PTR _intPhases[eax+ecx*2]
  00243	81 fa 53 f8 ff
	ff		 cmp	 edx, -1965		; fffff853H
  00249	7c 27		 jl	 SHORT $LN4@Decode1Car@2
  0024b	8b 45 0c	 mov	 eax, DWORD PTR _Carrier$[ebp]
  0024e	69 c0 18 05 00
	00		 imul	 eax, 1304		; 00000518H
  00254	8b 4d d4	 mov	 ecx, DWORD PTR _Start$[ebp]
  00257	0f bf 94 48 00
	00 00 00	 movsx	 edx, WORD PTR _intPhases[eax+ecx*2]
  0025f	81 fa 65 fb ff
	ff		 cmp	 edx, -1179		; fffffb65H
  00265	7f 0b		 jg	 SHORT $LN4@Decode1Car@2

; 4350 : 			intData += 6;

  00267	8b 45 f8	 mov	 eax, DWORD PTR _intData$[ebp]
  0026a	83 c0 06	 add	 eax, 6
  0026d	89 45 f8	 mov	 DWORD PTR _intData$[ebp], eax

; 4351 : 		else 

  00270	eb 09		 jmp	 SHORT $LN3@Decode1Car@2
$LN4@Decode1Car@2:

; 4352 : 			intData += 7;

  00272	8b 45 f8	 mov	 eax, DWORD PTR _intData$[ebp]
  00275	83 c0 07	 add	 eax, 7
  00278	89 45 f8	 mov	 DWORD PTR _intData$[ebp], eax
$LN3@Decode1Car@2:

; 4353 : 
; 4354 : 		if (intMags[Carrier][Start] < Threshold)

  0027b	8b 45 0c	 mov	 eax, DWORD PTR _Carrier$[ebp]
  0027e	69 c0 18 05 00
	00		 imul	 eax, 1304		; 00000518H
  00284	8b 4d d4	 mov	 ecx, DWORD PTR _Start$[ebp]
  00287	0f bf 94 48 00
	00 00 00	 movsx	 edx, WORD PTR _intMags[eax+ecx*2]
  0028f	3b 55 b0	 cmp	 edx, DWORD PTR _Threshold$[ebp]
  00292	7d 3b		 jge	 SHORT $LN2@Decode1Car@2

; 4355 : 		{
; 4356 : 			intData += 8;		//  add 8 to "inner circle" symbols. 

  00294	8b 45 f8	 mov	 eax, DWORD PTR _intData$[ebp]
  00297	83 c0 08	 add	 eax, 8
  0029a	89 45 f8	 mov	 DWORD PTR _intData$[ebp], eax

; 4357 : 			Threshold = (Threshold * 900 + intMags[Carrier][Start] * 150) / 1000;

  0029d	8b 45 b0	 mov	 eax, DWORD PTR _Threshold$[ebp]
  002a0	69 c0 84 03 00
	00		 imul	 eax, 900		; 00000384H
  002a6	8b 4d 0c	 mov	 ecx, DWORD PTR _Carrier$[ebp]
  002a9	69 c9 18 05 00
	00		 imul	 ecx, 1304		; 00000518H
  002af	8b 55 d4	 mov	 edx, DWORD PTR _Start$[ebp]
  002b2	0f bf 8c 51 00
	00 00 00	 movsx	 ecx, WORD PTR _intMags[ecx+edx*2]
  002ba	69 c9 96 00 00
	00		 imul	 ecx, 150		; 00000096H
  002c0	03 c1		 add	 eax, ecx
  002c2	99		 cdq
  002c3	b9 e8 03 00 00	 mov	 ecx, 1000		; 000003e8H
  002c8	f7 f9		 idiv	 ecx
  002ca	89 45 b0	 mov	 DWORD PTR _Threshold$[ebp], eax

; 4358 : 		}
; 4359 : 		else

  002cd	eb 2d		 jmp	 SHORT $LN1@Decode1Car@2
$LN2@Decode1Car@2:

; 4360 : 		{
; 4361 : 			Threshold = ( Threshold * 900 + intMags[Carrier][Start] * 75) / 1000;

  002cf	8b 45 b0	 mov	 eax, DWORD PTR _Threshold$[ebp]
  002d2	69 c0 84 03 00
	00		 imul	 eax, 900		; 00000384H
  002d8	8b 4d 0c	 mov	 ecx, DWORD PTR _Carrier$[ebp]
  002db	69 c9 18 05 00
	00		 imul	 ecx, 1304		; 00000518H
  002e1	8b 55 d4	 mov	 edx, DWORD PTR _Start$[ebp]
  002e4	0f bf 8c 51 00
	00 00 00	 movsx	 ecx, WORD PTR _intMags[ecx+edx*2]
  002ec	6b c9 4b	 imul	 ecx, 75			; 0000004bH
  002ef	03 c1		 add	 eax, ecx
  002f1	99		 cdq
  002f2	b9 e8 03 00 00	 mov	 ecx, 1000		; 000003e8H
  002f7	f7 f9		 idiv	 ecx
  002f9	89 45 b0	 mov	 DWORD PTR _Threshold$[ebp], eax
$LN1@Decode1Car@2:

; 4362 : 		}
; 4363 : 		
; 4364 : 		intCarMagThreshold[Carrier] = Threshold;

  002fc	8b 45 0c	 mov	 eax, DWORD PTR _Carrier$[ebp]
  002ff	66 8b 4d b0	 mov	 cx, WORD PTR _Threshold$[ebp]
  00303	66 89 0c 45 00
	00 00 00	 mov	 WORD PTR _intCarMagThreshold[eax*2], cx

; 4365 : 		Start ++;

  0030b	8b 45 d4	 mov	 eax, DWORD PTR _Start$[ebp]
  0030e	83 c0 01	 add	 eax, 1
  00311	89 45 d4	 mov	 DWORD PTR _Start$[ebp], eax

; 4366 : 
; 4367 : 	}

  00314	e9 62 fd ff ff	 jmp	 $LN19@Decode1Car@2
$LN18@Decode1Car@2:

; 4368 : 	Decoded[charIndex + i] = intData;

  00319	a1 00 00 00 00	 mov	 eax, DWORD PTR _charIndex
  0031e	03 45 ec	 add	 eax, DWORD PTR _i$[ebp]
  00321	8b 4d 08	 mov	 ecx, DWORD PTR _Decoded$[ebp]
  00324	8a 55 f8	 mov	 dl, BYTE PTR _intData$[ebp]
  00327	88 14 01	 mov	 BYTE PTR [ecx+eax], dl

; 4369 : 	}

  0032a	e9 29 fd ff ff	 jmp	 $LN22@Decode1Car@2
$LN21@Decode1Car@2:

; 4370 : }

  0032f	5f		 pop	 edi
  00330	5e		 pop	 esi
  00331	5b		 pop	 ebx
  00332	8b e5		 mov	 esp, ebp
  00334	5d		 pop	 ebp
  00335	c3		 ret	 0
_Decode1CarQAMChar ENDP
_TEXT	ENDS
PUBLIC	__real@408f400000000000
PUBLIC	__real@44bb8000
PUBLIC	__real@40988b2f20000000
PUBLIC	__real@40888b2f20000000
PUBLIC	_InitDemodPSK
;	COMDAT __real@408f400000000000
CONST	SEGMENT
__real@408f400000000000 DQ 0408f400000000000r	; 1000
CONST	ENDS
;	COMDAT __real@44bb8000
CONST	SEGMENT
__real@44bb8000 DD 044bb8000r			; 1500
CONST	ENDS
;	COMDAT __real@40988b2f20000000
CONST	SEGMENT
__real@40988b2f20000000 DQ 040988b2f20000000r	; 1570.8
CONST	ENDS
;	COMDAT __real@40888b2f20000000
CONST	SEGMENT
__real@40888b2f20000000 DQ 040888b2f20000000r	; 785.398
; Function compile flags: /Odtp /RTCsu /ZI
CONST	ENDS
;	COMDAT _InitDemodPSK
_TEXT	SEGMENT
tv215 = -244						; size = 4
tv184 = -244						; size = 4
_dblImag$ = -44						; size = 4
_dblReal$ = -32						; size = 4
_dblPhase$ = -20					; size = 4
_i$ = -8						; size = 4
_InitDemodPSK PROC					; COMDAT

; 4381 : {

  00000	55		 push	 ebp
  00001	8b ec		 mov	 ebp, esp
  00003	81 ec f4 00 00
	00		 sub	 esp, 244		; 000000f4H
  00009	53		 push	 ebx
  0000a	56		 push	 esi
  0000b	57		 push	 edi
  0000c	8d bd 0c ff ff
	ff		 lea	 edi, DWORD PTR [ebp-244]
  00012	b9 3d 00 00 00	 mov	 ecx, 61			; 0000003dH
  00017	b8 cc cc cc cc	 mov	 eax, -858993460		; ccccccccH
  0001c	f3 ab		 rep stosd

; 4382 : 	// Called at start of frame
; 4383 : 
; 4384 : 	int i;
; 4385 : 	float dblPhase, dblReal, dblImag;
; 4386 : 
; 4387 : 	intPSKMode = strMod[0] - '0';

  0001e	0f be 05 00 00
	00 00		 movsx	 eax, BYTE PTR _strMod
  00025	83 e8 30	 sub	 eax, 48			; 00000030H
  00028	a3 00 00 00 00	 mov	 DWORD PTR _intPSKMode, eax

; 4388 : 	PSKInitDone = TRUE;

  0002d	c7 05 00 00 00
	00 01 00 00 00	 mov	 DWORD PTR _PSKInitDone, 1

; 4389 : 
; 4390 : 	if (intPSKMode == 8)

  00037	83 3d 00 00 00
	00 08		 cmp	 DWORD PTR _intPSKMode, 8
  0003e	75 0e		 jne	 SHORT $LN14@InitDemodP

; 4391 : 		dblPhaseInc = 2 * M_PI * 1000 / 8;

  00040	dd 05 00 00 00
	00		 fld	 QWORD PTR __real@40888b2f20000000
  00046	dd 1d 00 00 00
	00		 fstp	 QWORD PTR _dblPhaseInc

; 4392 : 	else

  0004c	eb 0c		 jmp	 SHORT $LN13@InitDemodP
$LN14@InitDemodP:

; 4393 : 		dblPhaseInc = 2 * M_PI * 1000 / 4;

  0004e	dd 05 00 00 00
	00		 fld	 QWORD PTR __real@40988b2f20000000
  00054	dd 1d 00 00 00
	00		 fstp	 QWORD PTR _dblPhaseInc
$LN13@InitDemodP:

; 4394 : 
; 4395 : 	if (intBaud == 167)

  0005a	81 3d 00 00 00
	00 a7 00 00 00	 cmp	 DWORD PTR _intBaud, 167	; 000000a7H
  00064	75 0c		 jne	 SHORT $LN12@InitDemodP

; 4396 : 		intSampPerSym = 72;

  00066	c7 05 00 00 00
	00 48 00 00 00	 mov	 DWORD PTR _intSampPerSym, 72 ; 00000048H

; 4397 : 	else

  00070	eb 0a		 jmp	 SHORT $LN11@InitDemodP
$LN12@InitDemodP:

; 4398 : 		intSampPerSym = 120;

  00072	c7 05 00 00 00
	00 78 00 00 00	 mov	 DWORD PTR _intSampPerSym, 120 ; 00000078H
$LN11@InitDemodP:

; 4399 : 
; 4400 : 	if (intNumCar == 1)

  0007c	83 3d 00 00 00
	00 01		 cmp	 DWORD PTR _intNumCar, 1
  00083	75 0e		 jne	 SHORT $LN10@InitDemodP

; 4401 : 		intCarFreq = 1500;

  00085	d9 05 00 00 00
	00		 fld	 DWORD PTR __real@44bb8000
  0008b	d9 1d 00 00 00
	00		 fstp	 DWORD PTR _intCarFreq

; 4402 : 	else

  00091	eb 27		 jmp	 SHORT $LN9@InitDemodP
$LN10@InitDemodP:

; 4403 : 		intCarFreq = 1400 + (intNumCar / 2) * 200; // start at the highest carrier freq which is actually the lowest transmitted carrier due to Reverse sideband mixing

  00093	a1 00 00 00 00	 mov	 eax, DWORD PTR _intNumCar
  00098	99		 cdq
  00099	2b c2		 sub	 eax, edx
  0009b	d1 f8		 sar	 eax, 1
  0009d	69 c0 c8 00 00
	00		 imul	 eax, 200		; 000000c8H
  000a3	05 78 05 00 00	 add	 eax, 1400		; 00000578H
  000a8	89 85 0c ff ff
	ff		 mov	 DWORD PTR tv184[ebp], eax
  000ae	db 85 0c ff ff
	ff		 fild	 DWORD PTR tv184[ebp]
  000b4	d9 1d 00 00 00
	00		 fstp	 DWORD PTR _intCarFreq
$LN9@InitDemodP:

; 4404 :   
; 4405 : 	for (i= 0; i < intNumCar; i++)

  000ba	c7 45 f8 00 00
	00 00		 mov	 DWORD PTR _i$[ebp], 0
  000c1	eb 09		 jmp	 SHORT $LN8@InitDemodP
$LN7@InitDemodP:
  000c3	8b 45 f8	 mov	 eax, DWORD PTR _i$[ebp]
  000c6	83 c0 01	 add	 eax, 1
  000c9	89 45 f8	 mov	 DWORD PTR _i$[ebp], eax
$LN8@InitDemodP:
  000cc	8b 45 f8	 mov	 eax, DWORD PTR _i$[ebp]
  000cf	3b 05 00 00 00
	00		 cmp	 eax, DWORD PTR _intNumCar
  000d5	0f 8d 6f 01 00
	00		 jge	 $LN6@InitDemodP

; 4406 : 	{
; 4407 : 		if (intBaud == 100)

  000db	83 3d 00 00 00
	00 64		 cmp	 DWORD PTR _intBaud, 100	; 00000064H
  000e2	75 32		 jne	 SHORT $LN5@InitDemodP

; 4408 : 		{
; 4409 : 			//Experimental use of Hanning Windowing
; 4410 : 				
; 4411 :             intNforGoertzel[i] = 120;

  000e4	8b 45 f8	 mov	 eax, DWORD PTR _i$[ebp]
  000e7	66 c7 04 45 00
	00 00 00 78 00	 mov	 WORD PTR _intNforGoertzel[eax*2], 120 ; 00000078H

; 4412 :             dblFreqBin[i] = intCarFreq / 100;

  000f1	d9 05 00 00 00
	00		 fld	 DWORD PTR _intCarFreq
  000f7	dc 35 00 00 00
	00		 fdiv	 QWORD PTR __real@4059000000000000
  000fd	8b 45 f8	 mov	 eax, DWORD PTR _i$[ebp]
  00100	d9 1c 85 00 00
	00 00		 fstp	 DWORD PTR _dblFreqBin[eax*4]

; 4413 :             intCP[i] = 0;

  00107	8b 45 f8	 mov	 eax, DWORD PTR _i$[ebp]
  0010a	66 c7 04 45 00
	00 00 00 00 00	 mov	 WORD PTR _intCP[eax*2], 0
  00114	eb 3c		 jmp	 SHORT $LN3@InitDemodP
$LN5@InitDemodP:

; 4414 : 		}
; 4415 : 		else if (intBaud == 167)

  00116	81 3d 00 00 00
	00 a7 00 00 00	 cmp	 DWORD PTR _intBaud, 167	; 000000a7H
  00120	75 30		 jne	 SHORT $LN3@InitDemodP

; 4416 : 		{
; 4417 : 			intCP[i] = 6;  // Need to optimize wwith multi path channels (little difference between 6 and 12 @ wgn10, 4 Car 1000 Hz)

  00122	8b 45 f8	 mov	 eax, DWORD PTR _i$[ebp]
  00125	66 c7 04 45 00
	00 00 00 06 00	 mov	 WORD PTR _intCP[eax*2], 6

; 4418 :   
; 4419 :             intNforGoertzel[i] = 60;

  0012f	8b 45 f8	 mov	 eax, DWORD PTR _i$[ebp]
  00132	66 c7 04 45 00
	00 00 00 3c 00	 mov	 WORD PTR _intNforGoertzel[eax*2], 60 ; 0000003cH

; 4420 :             dblFreqBin[i] = intCarFreq / 200;

  0013c	d9 05 00 00 00
	00		 fld	 DWORD PTR _intCarFreq
  00142	dc 35 00 00 00
	00		 fdiv	 QWORD PTR __real@4069000000000000
  00148	8b 45 f8	 mov	 eax, DWORD PTR _i$[ebp]
  0014b	d9 1c 85 00 00
	00 00		 fstp	 DWORD PTR _dblFreqBin[eax*4]
$LN3@InitDemodP:

; 4421 : 		}
; 4422 :  
; 4423 : /*		if (intBaud == 100 && intCarFreq == 1500) 
; 4424 : 		{
; 4425 : 		intCP[i] = 20;  //  These values selected for best decode percentage (92%) and best average 4PSK Quality (82) on MPP0dB channel
; 4426 : 		dblFreqBin[i] = intCarFreq / 150;
; 4427 : 		intNforGoertzel[i] = 80;
; 4428 : 		}
; 4429 : 		else if (intBaud == 100)
; 4430 : 		{
; 4431 : 			intCP[i] = 28; // This value selected for best decoding percentage (56%) and best Averag 4PSK Quality (77) on mpg +5 dB
; 4432 : 			intNforGoertzel[i] = 60;
; 4433 : 			dblFreqBin[i] = intCarFreq / 200;
; 4434 : 		}
; 4435 : 		else if (intBaud == 167)
; 4436 : 		{
; 4437 : 			intCP[i] = 6;  // Need to optimize (little difference between 6 and 12 @ wgn5, 2 Car 500 Hz)
; 4438 : 			intNforGoertzel[i] = 60;
; 4439 : 			dblFreqBin[i] = intCarFreq / 200;
; 4440 : 		}
; 4441 : */	
; 4442 : 		// Get initial Reference Phase		
; 4443 : 
; 4444 : 		if (intCP[i] == 0)

  00152	8b 45 f8	 mov	 eax, DWORD PTR _i$[ebp]
  00155	0f bf 0c 45 00
	00 00 00	 movsx	 ecx, WORD PTR _intCP[eax*2]
  0015d	85 c9		 test	 ecx, ecx
  0015f	75 33		 jne	 SHORT $LN2@InitDemodP

; 4445 : 			GoertzelRealImagHanning(intFilteredMixedSamples, 0, intNforGoertzel[i], dblFreqBin[i], &dblReal, &dblImag);

  00161	8d 45 d4	 lea	 eax, DWORD PTR _dblImag$[ebp]
  00164	50		 push	 eax
  00165	8d 4d e0	 lea	 ecx, DWORD PTR _dblReal$[ebp]
  00168	51		 push	 ecx
  00169	8b 55 f8	 mov	 edx, DWORD PTR _i$[ebp]
  0016c	51		 push	 ecx
  0016d	d9 04 95 00 00
	00 00		 fld	 DWORD PTR _dblFreqBin[edx*4]
  00174	d9 1c 24	 fstp	 DWORD PTR [esp]
  00177	8b 45 f8	 mov	 eax, DWORD PTR _i$[ebp]
  0017a	0f bf 0c 45 00
	00 00 00	 movsx	 ecx, WORD PTR _intNforGoertzel[eax*2]
  00182	51		 push	 ecx
  00183	6a 00		 push	 0
  00185	68 00 00 00 00	 push	 OFFSET _intFilteredMixedSamples
  0018a	e8 00 00 00 00	 call	 _GoertzelRealImagHanning
  0018f	83 c4 18	 add	 esp, 24			; 00000018H

; 4446 : 		else

  00192	eb 3b		 jmp	 SHORT $LN1@InitDemodP
$LN2@InitDemodP:

; 4447 : 			GoertzelRealImag(intFilteredMixedSamples, intCP[i], intNforGoertzel[i], dblFreqBin[i], &dblReal, &dblImag);

  00194	8d 45 d4	 lea	 eax, DWORD PTR _dblImag$[ebp]
  00197	50		 push	 eax
  00198	8d 4d e0	 lea	 ecx, DWORD PTR _dblReal$[ebp]
  0019b	51		 push	 ecx
  0019c	8b 55 f8	 mov	 edx, DWORD PTR _i$[ebp]
  0019f	51		 push	 ecx
  001a0	d9 04 95 00 00
	00 00		 fld	 DWORD PTR _dblFreqBin[edx*4]
  001a7	d9 1c 24	 fstp	 DWORD PTR [esp]
  001aa	8b 45 f8	 mov	 eax, DWORD PTR _i$[ebp]
  001ad	0f bf 0c 45 00
	00 00 00	 movsx	 ecx, WORD PTR _intNforGoertzel[eax*2]
  001b5	51		 push	 ecx
  001b6	8b 55 f8	 mov	 edx, DWORD PTR _i$[ebp]
  001b9	0f bf 04 55 00
	00 00 00	 movsx	 eax, WORD PTR _intCP[edx*2]
  001c1	50		 push	 eax
  001c2	68 00 00 00 00	 push	 OFFSET _intFilteredMixedSamples
  001c7	e8 00 00 00 00	 call	 _GoertzelRealImag
  001cc	83 c4 18	 add	 esp, 24			; 00000018H
$LN1@InitDemodP:

; 4448 :             
; 4449 : 		dblPhase = atan2f(dblImag, dblReal);

  001cf	d9 45 e0	 fld	 DWORD PTR _dblReal$[ebp]
  001d2	83 ec 08	 sub	 esp, 8
  001d5	dd 1c 24	 fstp	 QWORD PTR [esp]
  001d8	d9 45 d4	 fld	 DWORD PTR _dblImag$[ebp]
  001db	83 ec 08	 sub	 esp, 8
  001de	dd 1c 24	 fstp	 QWORD PTR [esp]
  001e1	e8 00 00 00 00	 call	 _atan2
  001e6	83 c4 10	 add	 esp, 16			; 00000010H
  001e9	d9 9d 0c ff ff
	ff		 fstp	 DWORD PTR tv215[ebp]
  001ef	d9 85 0c ff ff
	ff		 fld	 DWORD PTR tv215[ebp]
  001f5	d9 5d ec	 fstp	 DWORD PTR _dblPhase$[ebp]

; 4450 : 		Track1CarPSK(intCarFreq, strMod, dblPhase, TRUE);

  001f8	6a 01		 push	 1
  001fa	51		 push	 ecx
  001fb	d9 45 ec	 fld	 DWORD PTR _dblPhase$[ebp]
  001fe	d9 1c 24	 fstp	 DWORD PTR [esp]
  00201	68 00 00 00 00	 push	 OFFSET _strMod
  00206	d9 05 00 00 00
	00		 fld	 DWORD PTR _intCarFreq
  0020c	e8 00 00 00 00	 call	 __ftol2_sse
  00211	50		 push	 eax
  00212	e8 00 00 00 00	 call	 _Track1CarPSK
  00217	83 c4 10	 add	 esp, 16			; 00000010H

; 4451 : 		intPSKPhase_1[i] = 1000 * dblPhase;

  0021a	d9 45 ec	 fld	 DWORD PTR _dblPhase$[ebp]
  0021d	dc 0d 00 00 00
	00		 fmul	 QWORD PTR __real@408f400000000000
  00223	e8 00 00 00 00	 call	 __ftol2_sse
  00228	8b 4d f8	 mov	 ecx, DWORD PTR _i$[ebp]
  0022b	66 89 04 4d 00
	00 00 00	 mov	 WORD PTR _intPSKPhase_1[ecx*2], ax

; 4452 : 		intCarFreq -= 200;  // Step through each carrier Highest to lowest which is equivalent to lowest to highest before RSB mixing. 

  00233	d9 05 00 00 00
	00		 fld	 DWORD PTR _intCarFreq
  00239	dc 25 00 00 00
	00		 fsub	 QWORD PTR __real@4069000000000000
  0023f	d9 1d 00 00 00
	00		 fstp	 DWORD PTR _intCarFreq

; 4453 : 	}

  00245	e9 79 fe ff ff	 jmp	 $LN7@InitDemodP
$LN6@InitDemodP:

; 4454 : }

  0024a	52		 push	 edx
  0024b	8b cd		 mov	 ecx, ebp
  0024d	50		 push	 eax
  0024e	8d 15 00 00 00
	00		 lea	 edx, DWORD PTR $LN20@InitDemodP
  00254	e8 00 00 00 00	 call	 @_RTC_CheckStackVars@8
  00259	58		 pop	 eax
  0025a	5a		 pop	 edx
  0025b	5f		 pop	 edi
  0025c	5e		 pop	 esi
  0025d	5b		 pop	 ebx
  0025e	81 c4 f4 00 00
	00		 add	 esp, 244		; 000000f4H
  00264	3b ec		 cmp	 ebp, esp
  00266	e8 00 00 00 00	 call	 __RTC_CheckEsp
  0026b	8b e5		 mov	 esp, ebp
  0026d	5d		 pop	 ebp
  0026e	c3		 ret	 0
  0026f	90		 npad	 1
$LN20@InitDemodP:
  00270	02 00 00 00	 DD	 2
  00274	00 00 00 00	 DD	 $LN19@InitDemodP
$LN19@InitDemodP:
  00278	e0 ff ff ff	 DD	 -32			; ffffffe0H
  0027c	04 00 00 00	 DD	 4
  00280	00 00 00 00	 DD	 $LN17@InitDemodP
  00284	d4 ff ff ff	 DD	 -44			; ffffffd4H
  00288	04 00 00 00	 DD	 4
  0028c	00 00 00 00	 DD	 $LN18@InitDemodP
$LN18@InitDemodP:
  00290	64		 DB	 100			; 00000064H
  00291	62		 DB	 98			; 00000062H
  00292	6c		 DB	 108			; 0000006cH
  00293	49		 DB	 73			; 00000049H
  00294	6d		 DB	 109			; 0000006dH
  00295	61		 DB	 97			; 00000061H
  00296	67		 DB	 103			; 00000067H
  00297	00		 DB	 0
$LN17@InitDemodP:
  00298	64		 DB	 100			; 00000064H
  00299	62		 DB	 98			; 00000062H
  0029a	6c		 DB	 108			; 0000006cH
  0029b	52		 DB	 82			; 00000052H
  0029c	65		 DB	 101			; 00000065H
  0029d	61		 DB	 97			; 00000061H
  0029e	6c		 DB	 108			; 0000006cH
  0029f	00		 DB	 0
_InitDemodPSK ENDP
_TEXT	ENDS
PUBLIC	_Demod1CarPSKChar
; Function compile flags: /Odtp /RTCsu /ZI
;	COMDAT _DemodPSK
_TEXT	SEGMENT
tv246 = -232						; size = 4
tv86 = -232						; size = 4
$T7901 = -221						; size = 1
_Start$ = -20						; size = 4
_Used$ = -8						; size = 4
_DemodPSK PROC						; COMDAT

; 4459 : {

  00000	55		 push	 ebp
  00001	8b ec		 mov	 ebp, esp
  00003	81 ec e8 00 00
	00		 sub	 esp, 232		; 000000e8H
  00009	53		 push	 ebx
  0000a	56		 push	 esi
  0000b	57		 push	 edi
  0000c	8d bd 18 ff ff
	ff		 lea	 edi, DWORD PTR [ebp-232]
  00012	b9 3a 00 00 00	 mov	 ecx, 58			; 0000003aH
  00017	b8 cc cc cc cc	 mov	 eax, -858993460		; ccccccccH
  0001c	f3 ab		 rep stosd
  0001e	c6 85 23 ff ff
	ff 00		 mov	 BYTE PTR $T7901[ebp], 0

; 4460 : 	int Used;
; 4461 : 	int Start = 0;

  00025	c7 45 ec 00 00
	00 00		 mov	 DWORD PTR _Start$[ebp], 0
$LN21@DemodPSK:

; 4462 : 
; 4463 : 	// We can't wait for the full frame as we don't have enough RAM, so
; 4464 : 	// we do one DMA Buffer at a time, until we run out or end of frame
; 4465 : 
; 4466 : 	// Only continue if we have enough samples
; 4467 : 
; 4468 : 	
; 4469 : 	while (State == AcquireFrame)

  0002c	83 3d 00 00 00
	00 05		 cmp	 DWORD PTR _State, 5
  00033	0f 85 b0 04 00
	00		 jne	 $LN20@DemodPSK

; 4470 : 	{
; 4471 : 		if (intFilteredMixedSamplesLength < 4 * intSampPerSym + 10) // allow for a few phase corrections

  00039	a1 00 00 00 00	 mov	 eax, DWORD PTR _intSampPerSym
  0003e	8d 0c 85 0a 00
	00 00		 lea	 ecx, DWORD PTR [eax*4+10]
  00045	39 0d 00 00 00
	00		 cmp	 DWORD PTR _intFilteredMixedSamplesLength, ecx
  0004b	7d 30		 jge	 SHORT $LN19@DemodPSK

; 4472 : 		{
; 4473 : 			// Move any unprocessessed data down buffer
; 4474 : 
; 4475 : 			//	(while checking process - will use cyclic buffer eventually
; 4476 : 
; 4477 : 			if (intFilteredMixedSamplesLength > 0)

  0004d	83 3d 00 00 00
	00 00		 cmp	 DWORD PTR _intFilteredMixedSamplesLength, 0
  00054	7e 20		 jle	 SHORT $LN18@DemodPSK

; 4478 : 				memmove(intFilteredMixedSamples,
; 4479 : 					&intFilteredMixedSamples[Start], intFilteredMixedSamplesLength * 2); 

  00056	a1 00 00 00 00	 mov	 eax, DWORD PTR _intFilteredMixedSamplesLength
  0005b	d1 e0		 shl	 eax, 1
  0005d	50		 push	 eax
  0005e	8b 4d ec	 mov	 ecx, DWORD PTR _Start$[ebp]
  00061	8d 14 4d 00 00
	00 00		 lea	 edx, DWORD PTR _intFilteredMixedSamples[ecx*2]
  00068	52		 push	 edx
  00069	68 00 00 00 00	 push	 OFFSET _intFilteredMixedSamples
  0006e	e8 00 00 00 00	 call	 _memmove
  00073	83 c4 0c	 add	 esp, 12			; 0000000cH
$LN18@DemodPSK:

; 4480 : 
; 4481 : 			return FALSE;

  00076	33 c0		 xor	 eax, eax
  00078	e9 71 04 00 00	 jmp	 $LN22@DemodPSK
$LN19@DemodPSK:

; 4482 : 		}
; 4483 : 		
; 4484 : 
; 4485 : 		if (PSKInitDone == 0)		// First time through

  0007d	83 3d 00 00 00
	00 00		 cmp	 DWORD PTR _PSKInitDone, 0
  00084	75 3c		 jne	 SHORT $LN17@DemodPSK

; 4486 : 		{	
; 4487 : 			if (intFilteredMixedSamplesLength < 8 * intSampPerSym + 10) 

  00086	a1 00 00 00 00	 mov	 eax, DWORD PTR _intSampPerSym
  0008b	8d 0c c5 0a 00
	00 00		 lea	 ecx, DWORD PTR [eax*8+10]
  00092	39 0d 00 00 00
	00		 cmp	 DWORD PTR _intFilteredMixedSamplesLength, ecx
  00098	7d 07		 jge	 SHORT $LN16@DemodPSK

; 4488 : 				return FALSE;				// Wait for at least 2 chars worth

  0009a	33 c0		 xor	 eax, eax
  0009c	e9 4d 04 00 00	 jmp	 $LN22@DemodPSK
$LN16@DemodPSK:

; 4489 : 
; 4490 : 			InitDemodPSK();

  000a1	e8 00 00 00 00	 call	 _InitDemodPSK

; 4491 : 			intFilteredMixedSamplesLength -= intSampPerSym;

  000a6	a1 00 00 00 00	 mov	 eax, DWORD PTR _intFilteredMixedSamplesLength
  000ab	2b 05 00 00 00
	00		 sub	 eax, DWORD PTR _intSampPerSym
  000b1	a3 00 00 00 00	 mov	 DWORD PTR _intFilteredMixedSamplesLength, eax

; 4492 : 			Start += intSampPerSym;	

  000b6	8b 45 ec	 mov	 eax, DWORD PTR _Start$[ebp]
  000b9	03 05 00 00 00
	00		 add	 eax, DWORD PTR _intSampPerSym
  000bf	89 45 ec	 mov	 DWORD PTR _Start$[ebp], eax
$LN17@DemodPSK:

; 4493 : 		}
; 4494 : 
; 4495 : 		// If this is a multicarrier mode, we must call the
; 4496 : 		// decode char routing for each carrier
; 4497 : 
; 4498 : 		if (intNumCar == 1)

  000c2	83 3d 00 00 00
	00 01		 cmp	 DWORD PTR _intNumCar, 1
  000c9	75 0e		 jne	 SHORT $LN15@DemodPSK

; 4499 : 			intCarFreq = 1500;

  000cb	d9 05 00 00 00
	00		 fld	 DWORD PTR __real@44bb8000
  000d1	d9 1d 00 00 00
	00		 fstp	 DWORD PTR _intCarFreq

; 4500 : 		else

  000d7	eb 27		 jmp	 SHORT $LN14@DemodPSK
$LN15@DemodPSK:

; 4501 : 			intCarFreq = 1400 + (intNumCar / 2) * 200; // start at the highest carrier freq which is actually the lowest transmitted carrier due to Reverse sideband mixing

  000d9	a1 00 00 00 00	 mov	 eax, DWORD PTR _intNumCar
  000de	99		 cdq
  000df	2b c2		 sub	 eax, edx
  000e1	d1 f8		 sar	 eax, 1
  000e3	69 c0 c8 00 00
	00		 imul	 eax, 200		; 000000c8H
  000e9	05 78 05 00 00	 add	 eax, 1400		; 00000578H
  000ee	89 85 18 ff ff
	ff		 mov	 DWORD PTR tv246[ebp], eax
  000f4	db 85 18 ff ff
	ff		 fild	 DWORD PTR tv246[ebp]
  000fa	d9 1d 00 00 00
	00		 fstp	 DWORD PTR _intCarFreq
$LN14@DemodPSK:

; 4502 : 
; 4503 : 	
; 4504 : 		switch (intNumCar)

  00100	a1 00 00 00 00	 mov	 eax, DWORD PTR _intNumCar
  00105	89 85 18 ff ff
	ff		 mov	 DWORD PTR tv86[ebp], eax
  0010b	8b 8d 18 ff ff
	ff		 mov	 ecx, DWORD PTR tv86[ebp]
  00111	83 e9 01	 sub	 ecx, 1
  00114	89 8d 18 ff ff
	ff		 mov	 DWORD PTR tv86[ebp], ecx
  0011a	83 bd 18 ff ff
	ff 07		 cmp	 DWORD PTR tv86[ebp], 7
  00121	0f 87 6b 02 00
	00		 ja	 $LN12@DemodPSK
  00127	8b 95 18 ff ff
	ff		 mov	 edx, DWORD PTR tv86[ebp]
  0012d	ff 24 95 00 00
	00 00		 jmp	 DWORD PTR $LN28@DemodPSK[edx*4]
$LN11@DemodPSK:

; 4505 : 		{
; 4506 : 		case 1:
; 4507 : 
; 4508 : 			Used = Demod1CarPSKChar(Start, 0);

  00134	6a 00		 push	 0
  00136	8b 45 ec	 mov	 eax, DWORD PTR _Start$[ebp]
  00139	50		 push	 eax
  0013a	e8 00 00 00 00	 call	 _Demod1CarPSKChar
  0013f	83 c4 08	 add	 esp, 8
  00142	c6 85 23 ff ff
	ff 01		 mov	 BYTE PTR $T7901[ebp], 1
  00149	89 45 f8	 mov	 DWORD PTR _Used$[ebp], eax

; 4509 : 			break;

  0014c	e9 41 02 00 00	 jmp	 $LN12@DemodPSK
$LN10@DemodPSK:

; 4510 : 
; 4511 : 		case 2:
; 4512 : 
; 4513 : 			Demod1CarPSKChar(Start, 0);

  00151	6a 00		 push	 0
  00153	8b 45 ec	 mov	 eax, DWORD PTR _Start$[ebp]
  00156	50		 push	 eax
  00157	e8 00 00 00 00	 call	 _Demod1CarPSKChar
  0015c	83 c4 08	 add	 esp, 8

; 4514 : 			intPhasesLen -= 4; //intPSKMode;

  0015f	a1 00 00 00 00	 mov	 eax, DWORD PTR _intPhasesLen
  00164	83 e8 04	 sub	 eax, 4
  00167	a3 00 00 00 00	 mov	 DWORD PTR _intPhasesLen, eax

; 4515 : 			intCarFreq -= 200;  // Step through each carrier Highest to lowest which is equivalent to lowest to highest before RSB mixing. 

  0016c	d9 05 00 00 00
	00		 fld	 DWORD PTR _intCarFreq
  00172	dc 25 00 00 00
	00		 fsub	 QWORD PTR __real@4069000000000000
  00178	d9 1d 00 00 00
	00		 fstp	 DWORD PTR _intCarFreq

; 4516 : 
; 4517 : 			Used = Demod1CarPSKChar(Start, 1);

  0017e	6a 01		 push	 1
  00180	8b 45 ec	 mov	 eax, DWORD PTR _Start$[ebp]
  00183	50		 push	 eax
  00184	e8 00 00 00 00	 call	 _Demod1CarPSKChar
  00189	83 c4 08	 add	 esp, 8
  0018c	c6 85 23 ff ff
	ff 01		 mov	 BYTE PTR $T7901[ebp], 1
  00193	89 45 f8	 mov	 DWORD PTR _Used$[ebp], eax

; 4518 : 			break;

  00196	e9 f7 01 00 00	 jmp	 $LN12@DemodPSK
$LN9@DemodPSK:

; 4519 : 
; 4520 : 		case 4:
; 4521 : 
; 4522 : 			Demod1CarPSKChar(Start, 0);

  0019b	6a 00		 push	 0
  0019d	8b 45 ec	 mov	 eax, DWORD PTR _Start$[ebp]
  001a0	50		 push	 eax
  001a1	e8 00 00 00 00	 call	 _Demod1CarPSKChar
  001a6	83 c4 08	 add	 esp, 8

; 4523 : 			intPhasesLen -= 4; //intPSKMode;

  001a9	a1 00 00 00 00	 mov	 eax, DWORD PTR _intPhasesLen
  001ae	83 e8 04	 sub	 eax, 4
  001b1	a3 00 00 00 00	 mov	 DWORD PTR _intPhasesLen, eax

; 4524 : 			intCarFreq -= 200;  // Step through each carrier Highest to lowest which is equivalent to lowest to highest before RSB mixing. 

  001b6	d9 05 00 00 00
	00		 fld	 DWORD PTR _intCarFreq
  001bc	dc 25 00 00 00
	00		 fsub	 QWORD PTR __real@4069000000000000
  001c2	d9 1d 00 00 00
	00		 fstp	 DWORD PTR _intCarFreq

; 4525 : 	
; 4526 : 			Demod1CarPSKChar(Start, 1);

  001c8	6a 01		 push	 1
  001ca	8b 45 ec	 mov	 eax, DWORD PTR _Start$[ebp]
  001cd	50		 push	 eax
  001ce	e8 00 00 00 00	 call	 _Demod1CarPSKChar
  001d3	83 c4 08	 add	 esp, 8

; 4527 : 			intPhasesLen -= 4; //intPSKMode;

  001d6	a1 00 00 00 00	 mov	 eax, DWORD PTR _intPhasesLen
  001db	83 e8 04	 sub	 eax, 4
  001de	a3 00 00 00 00	 mov	 DWORD PTR _intPhasesLen, eax

; 4528 : 			intCarFreq -= 200;  // Step through each carrier Highest to lowest which is equivalent to lowest to highest before RSB mixing. 

  001e3	d9 05 00 00 00
	00		 fld	 DWORD PTR _intCarFreq
  001e9	dc 25 00 00 00
	00		 fsub	 QWORD PTR __real@4069000000000000
  001ef	d9 1d 00 00 00
	00		 fstp	 DWORD PTR _intCarFreq

; 4529 : 
; 4530 : 			Demod1CarPSKChar(Start, 2);

  001f5	6a 02		 push	 2
  001f7	8b 45 ec	 mov	 eax, DWORD PTR _Start$[ebp]
  001fa	50		 push	 eax
  001fb	e8 00 00 00 00	 call	 _Demod1CarPSKChar
  00200	83 c4 08	 add	 esp, 8

; 4531 : 			intPhasesLen -= 4; //intPSKMode;

  00203	a1 00 00 00 00	 mov	 eax, DWORD PTR _intPhasesLen
  00208	83 e8 04	 sub	 eax, 4
  0020b	a3 00 00 00 00	 mov	 DWORD PTR _intPhasesLen, eax

; 4532 : 			intCarFreq -= 200;  // Step through each carrier Highest to lowest which is equivalent to lowest to highest before RSB mixing. 

  00210	d9 05 00 00 00
	00		 fld	 DWORD PTR _intCarFreq
  00216	dc 25 00 00 00
	00		 fsub	 QWORD PTR __real@4069000000000000
  0021c	d9 1d 00 00 00
	00		 fstp	 DWORD PTR _intCarFreq

; 4533 : 
; 4534 : 			Used = Demod1CarPSKChar(Start, 3);

  00222	6a 03		 push	 3
  00224	8b 45 ec	 mov	 eax, DWORD PTR _Start$[ebp]
  00227	50		 push	 eax
  00228	e8 00 00 00 00	 call	 _Demod1CarPSKChar
  0022d	83 c4 08	 add	 esp, 8
  00230	c6 85 23 ff ff
	ff 01		 mov	 BYTE PTR $T7901[ebp], 1
  00237	89 45 f8	 mov	 DWORD PTR _Used$[ebp], eax

; 4535 : 			break;

  0023a	e9 53 01 00 00	 jmp	 $LN12@DemodPSK
$LN8@DemodPSK:

; 4536 : 
; 4537 : 		case 8:
; 4538 : 
; 4539 : 			Demod1CarPSKChar(Start, 0);

  0023f	6a 00		 push	 0
  00241	8b 45 ec	 mov	 eax, DWORD PTR _Start$[ebp]
  00244	50		 push	 eax
  00245	e8 00 00 00 00	 call	 _Demod1CarPSKChar
  0024a	83 c4 08	 add	 esp, 8

; 4540 : 			intPhasesLen -= 4; //intPSKMode;

  0024d	a1 00 00 00 00	 mov	 eax, DWORD PTR _intPhasesLen
  00252	83 e8 04	 sub	 eax, 4
  00255	a3 00 00 00 00	 mov	 DWORD PTR _intPhasesLen, eax

; 4541 : 			intCarFreq -= 200;  // Step through each carrier Highest to lowest which is equivalent to lowest to highest before RSB mixing. 

  0025a	d9 05 00 00 00
	00		 fld	 DWORD PTR _intCarFreq
  00260	dc 25 00 00 00
	00		 fsub	 QWORD PTR __real@4069000000000000
  00266	d9 1d 00 00 00
	00		 fstp	 DWORD PTR _intCarFreq

; 4542 : 
; 4543 : 			Demod1CarPSKChar(Start, 1);

  0026c	6a 01		 push	 1
  0026e	8b 45 ec	 mov	 eax, DWORD PTR _Start$[ebp]
  00271	50		 push	 eax
  00272	e8 00 00 00 00	 call	 _Demod1CarPSKChar
  00277	83 c4 08	 add	 esp, 8

; 4544 : 			intPhasesLen -= 4; //intPSKMode;

  0027a	a1 00 00 00 00	 mov	 eax, DWORD PTR _intPhasesLen
  0027f	83 e8 04	 sub	 eax, 4
  00282	a3 00 00 00 00	 mov	 DWORD PTR _intPhasesLen, eax

; 4545 : 			intCarFreq -= 200;  // Step through each carrier Highest to lowest which is equivalent to lowest to highest before RSB mixing. 

  00287	d9 05 00 00 00
	00		 fld	 DWORD PTR _intCarFreq
  0028d	dc 25 00 00 00
	00		 fsub	 QWORD PTR __real@4069000000000000
  00293	d9 1d 00 00 00
	00		 fstp	 DWORD PTR _intCarFreq

; 4546 : 
; 4547 : 			Demod1CarPSKChar(Start, 2);

  00299	6a 02		 push	 2
  0029b	8b 45 ec	 mov	 eax, DWORD PTR _Start$[ebp]
  0029e	50		 push	 eax
  0029f	e8 00 00 00 00	 call	 _Demod1CarPSKChar
  002a4	83 c4 08	 add	 esp, 8

; 4548 : 			intPhasesLen -= 4; //intPSKMode;

  002a7	a1 00 00 00 00	 mov	 eax, DWORD PTR _intPhasesLen
  002ac	83 e8 04	 sub	 eax, 4
  002af	a3 00 00 00 00	 mov	 DWORD PTR _intPhasesLen, eax

; 4549 : 			intCarFreq -= 200;  // Step through each carrier Highest to lowest which is equivalent to lowest to highest before RSB mixing. 

  002b4	d9 05 00 00 00
	00		 fld	 DWORD PTR _intCarFreq
  002ba	dc 25 00 00 00
	00		 fsub	 QWORD PTR __real@4069000000000000
  002c0	d9 1d 00 00 00
	00		 fstp	 DWORD PTR _intCarFreq

; 4550 : 
; 4551 : 			Demod1CarPSKChar(Start, 3);

  002c6	6a 03		 push	 3
  002c8	8b 45 ec	 mov	 eax, DWORD PTR _Start$[ebp]
  002cb	50		 push	 eax
  002cc	e8 00 00 00 00	 call	 _Demod1CarPSKChar
  002d1	83 c4 08	 add	 esp, 8

; 4552 : 			intPhasesLen -= 4; //intPSKMode;

  002d4	a1 00 00 00 00	 mov	 eax, DWORD PTR _intPhasesLen
  002d9	83 e8 04	 sub	 eax, 4
  002dc	a3 00 00 00 00	 mov	 DWORD PTR _intPhasesLen, eax

; 4553 : 			intCarFreq -= 200;  // Step through each carrier Highest to lowest which is equivalent to lowest to highest before RSB mixing. 

  002e1	d9 05 00 00 00
	00		 fld	 DWORD PTR _intCarFreq
  002e7	dc 25 00 00 00
	00		 fsub	 QWORD PTR __real@4069000000000000
  002ed	d9 1d 00 00 00
	00		 fstp	 DWORD PTR _intCarFreq

; 4554 : 
; 4555 : 			Demod1CarPSKChar(Start, 4);

  002f3	6a 04		 push	 4
  002f5	8b 45 ec	 mov	 eax, DWORD PTR _Start$[ebp]
  002f8	50		 push	 eax
  002f9	e8 00 00 00 00	 call	 _Demod1CarPSKChar
  002fe	83 c4 08	 add	 esp, 8

; 4556 : 			intPhasesLen -= 4; //intPSKMode;

  00301	a1 00 00 00 00	 mov	 eax, DWORD PTR _intPhasesLen
  00306	83 e8 04	 sub	 eax, 4
  00309	a3 00 00 00 00	 mov	 DWORD PTR _intPhasesLen, eax

; 4557 : 			intCarFreq -= 200;  // Step through each carrier Highest to lowest which is equivalent to lowest to highest before RSB mixing. 

  0030e	d9 05 00 00 00
	00		 fld	 DWORD PTR _intCarFreq
  00314	dc 25 00 00 00
	00		 fsub	 QWORD PTR __real@4069000000000000
  0031a	d9 1d 00 00 00
	00		 fstp	 DWORD PTR _intCarFreq

; 4558 : 
; 4559 : 			Demod1CarPSKChar(Start, 5);

  00320	6a 05		 push	 5
  00322	8b 45 ec	 mov	 eax, DWORD PTR _Start$[ebp]
  00325	50		 push	 eax
  00326	e8 00 00 00 00	 call	 _Demod1CarPSKChar
  0032b	83 c4 08	 add	 esp, 8

; 4560 : 			intPhasesLen -= 4; //intPSKMode;

  0032e	a1 00 00 00 00	 mov	 eax, DWORD PTR _intPhasesLen
  00333	83 e8 04	 sub	 eax, 4
  00336	a3 00 00 00 00	 mov	 DWORD PTR _intPhasesLen, eax

; 4561 : 			intCarFreq -= 200;  // Step through each carrier Highest to lowest which is equivalent to lowest to highest before RSB mixing. 

  0033b	d9 05 00 00 00
	00		 fld	 DWORD PTR _intCarFreq
  00341	dc 25 00 00 00
	00		 fsub	 QWORD PTR __real@4069000000000000
  00347	d9 1d 00 00 00
	00		 fstp	 DWORD PTR _intCarFreq

; 4562 : 
; 4563 : 			Demod1CarPSKChar(Start, 6);

  0034d	6a 06		 push	 6
  0034f	8b 45 ec	 mov	 eax, DWORD PTR _Start$[ebp]
  00352	50		 push	 eax
  00353	e8 00 00 00 00	 call	 _Demod1CarPSKChar
  00358	83 c4 08	 add	 esp, 8

; 4564 : 			intPhasesLen -= 4; //intPSKMode;

  0035b	a1 00 00 00 00	 mov	 eax, DWORD PTR _intPhasesLen
  00360	83 e8 04	 sub	 eax, 4
  00363	a3 00 00 00 00	 mov	 DWORD PTR _intPhasesLen, eax

; 4565 : 			intCarFreq -= 200;  // Step through each carrier Highest to lowest which is equivalent to lowest to highest before RSB mixing. 

  00368	d9 05 00 00 00
	00		 fld	 DWORD PTR _intCarFreq
  0036e	dc 25 00 00 00
	00		 fsub	 QWORD PTR __real@4069000000000000
  00374	d9 1d 00 00 00
	00		 fstp	 DWORD PTR _intCarFreq

; 4566 : 
; 4567 : 			Used = Demod1CarPSKChar(Start, 7);	

  0037a	6a 07		 push	 7
  0037c	8b 45 ec	 mov	 eax, DWORD PTR _Start$[ebp]
  0037f	50		 push	 eax
  00380	e8 00 00 00 00	 call	 _Demod1CarPSKChar
  00385	83 c4 08	 add	 esp, 8
  00388	c6 85 23 ff ff
	ff 01		 mov	 BYTE PTR $T7901[ebp], 1
  0038f	89 45 f8	 mov	 DWORD PTR _Used$[ebp], eax
$LN12@DemodPSK:

; 4568 : 		}
; 4569 : 
; 4570 : 		//	if we have 4 or 8 Phase samples, decode them 
; 4571 : 		
; 4572 : 		// (or each carrier)
; 4573 : 
; 4574 : 		if (intPhasesLen >= intPSKMode)

  00392	a1 00 00 00 00	 mov	 eax, DWORD PTR _intPhasesLen
  00397	3b 05 00 00 00
	00		 cmp	 eax, DWORD PTR _intPSKMode
  0039d	0f 8c e2 00 00
	00		 jl	 $LN2@DemodPSK

; 4575 : 		{
; 4576 : 	//		CorrectPhaseForTuningOffset(intPhases, intPhasesLen, strMod);
; 4577 : 
; 4578 : 			Decode1CarPSKChar(bytFrameData1, 0);

  003a3	6a 00		 push	 0
  003a5	68 00 00 00 00	 push	 OFFSET _bytFrameData1
  003aa	e8 00 00 00 00	 call	 _Decode1CarPSKChar
  003af	83 c4 08	 add	 esp, 8

; 4579 : 			if (intNumCar > 1)

  003b2	83 3d 00 00 00
	00 01		 cmp	 DWORD PTR _intNumCar, 1
  003b9	7e 0f		 jle	 SHORT $LN6@DemodPSK

; 4580 : 				Decode1CarPSKChar(bytFrameData2, 1);

  003bb	6a 01		 push	 1
  003bd	68 00 00 00 00	 push	 OFFSET _bytFrameData2
  003c2	e8 00 00 00 00	 call	 _Decode1CarPSKChar
  003c7	83 c4 08	 add	 esp, 8
$LN6@DemodPSK:

; 4581 : 			if (intNumCar > 2)

  003ca	83 3d 00 00 00
	00 02		 cmp	 DWORD PTR _intNumCar, 2
  003d1	7e 1e		 jle	 SHORT $LN5@DemodPSK

; 4582 : 			{
; 4583 : 				Decode1CarPSKChar(bytFrameData3, 2);

  003d3	6a 02		 push	 2
  003d5	68 00 00 00 00	 push	 OFFSET _bytFrameData3
  003da	e8 00 00 00 00	 call	 _Decode1CarPSKChar
  003df	83 c4 08	 add	 esp, 8

; 4584 : 				Decode1CarPSKChar(bytFrameData4, 3);

  003e2	6a 03		 push	 3
  003e4	68 00 00 00 00	 push	 OFFSET _bytFrameData4
  003e9	e8 00 00 00 00	 call	 _Decode1CarPSKChar
  003ee	83 c4 08	 add	 esp, 8
$LN5@DemodPSK:

; 4585 : 			}
; 4586 : 			if (intNumCar > 4)

  003f1	83 3d 00 00 00
	00 04		 cmp	 DWORD PTR _intNumCar, 4
  003f8	7e 3c		 jle	 SHORT $LN4@DemodPSK

; 4587 : 			{
; 4588 : 				Decode1CarPSKChar(bytFrameData5, 4);

  003fa	6a 04		 push	 4
  003fc	68 00 00 00 00	 push	 OFFSET _bytFrameData5
  00401	e8 00 00 00 00	 call	 _Decode1CarPSKChar
  00406	83 c4 08	 add	 esp, 8

; 4589 : 				Decode1CarPSKChar(bytFrameData6, 5);

  00409	6a 05		 push	 5
  0040b	68 00 00 00 00	 push	 OFFSET _bytFrameData6
  00410	e8 00 00 00 00	 call	 _Decode1CarPSKChar
  00415	83 c4 08	 add	 esp, 8

; 4590 : 				Decode1CarPSKChar(bytFrameData7, 6);

  00418	6a 06		 push	 6
  0041a	68 00 00 00 00	 push	 OFFSET _bytFrameData7
  0041f	e8 00 00 00 00	 call	 _Decode1CarPSKChar
  00424	83 c4 08	 add	 esp, 8

; 4591 : 				Decode1CarPSKChar(bytFrameData8, 7);

  00427	6a 07		 push	 7
  00429	68 00 00 00 00	 push	 OFFSET _bytFrameData8
  0042e	e8 00 00 00 00	 call	 _Decode1CarPSKChar
  00433	83 c4 08	 add	 esp, 8
$LN4@DemodPSK:

; 4592 : 			}
; 4593 : 			intPhasesLen -= intPSKMode;

  00436	a1 00 00 00 00	 mov	 eax, DWORD PTR _intPhasesLen
  0043b	2b 05 00 00 00
	00		 sub	 eax, DWORD PTR _intPSKMode
  00441	a3 00 00 00 00	 mov	 DWORD PTR _intPhasesLen, eax

; 4594 : 
; 4595 : 			if (intPSKMode == 4)

  00446	83 3d 00 00 00
	00 04		 cmp	 DWORD PTR _intPSKMode, 4
  0044d	75 1c		 jne	 SHORT $LN3@DemodPSK

; 4596 : 			{
; 4597 : 				SymbolsLeft--;		// number still to decode

  0044f	a1 00 00 00 00	 mov	 eax, DWORD PTR _SymbolsLeft
  00454	83 e8 01	 sub	 eax, 1
  00457	a3 00 00 00 00	 mov	 DWORD PTR _SymbolsLeft, eax

; 4598 : 				charIndex++;

  0045c	a1 00 00 00 00	 mov	 eax, DWORD PTR _charIndex
  00461	83 c0 01	 add	 eax, 1
  00464	a3 00 00 00 00	 mov	 DWORD PTR _charIndex, eax

; 4599 : 			}
; 4600 : 			else

  00469	eb 1a		 jmp	 SHORT $LN2@DemodPSK
$LN3@DemodPSK:

; 4601 : 			{
; 4602 : 				SymbolsLeft -=3;

  0046b	a1 00 00 00 00	 mov	 eax, DWORD PTR _SymbolsLeft
  00470	83 e8 03	 sub	 eax, 3
  00473	a3 00 00 00 00	 mov	 DWORD PTR _SymbolsLeft, eax

; 4603 : 				charIndex += 3;

  00478	a1 00 00 00 00	 mov	 eax, DWORD PTR _charIndex
  0047d	83 c0 03	 add	 eax, 3
  00480	a3 00 00 00 00	 mov	 DWORD PTR _charIndex, eax
$LN2@DemodPSK:

; 4604 : 			}		
; 4605 : 		}
; 4606 : 
; 4607 : 		Start += Used; //intSampPerSym * 4;	

  00485	80 bd 23 ff ff
	ff 00		 cmp	 BYTE PTR $T7901[ebp], 0
  0048c	75 0d		 jne	 SHORT $LN24@DemodPSK
  0048e	68 00 00 00 00	 push	 OFFSET $LN25@DemodPSK
  00493	e8 00 00 00 00	 call	 __RTC_UninitUse
  00498	83 c4 04	 add	 esp, 4
$LN24@DemodPSK:
  0049b	8b 45 ec	 mov	 eax, DWORD PTR _Start$[ebp]
  0049e	03 45 f8	 add	 eax, DWORD PTR _Used$[ebp]
  004a1	89 45 ec	 mov	 DWORD PTR _Start$[ebp], eax

; 4608 : 		intFilteredMixedSamplesLength -= Used; //intSampPerSym * 4;

  004a4	80 bd 23 ff ff
	ff 00		 cmp	 BYTE PTR $T7901[ebp], 0
  004ab	75 0d		 jne	 SHORT $LN26@DemodPSK
  004ad	68 00 00 00 00	 push	 OFFSET $LN25@DemodPSK
  004b2	e8 00 00 00 00	 call	 __RTC_UninitUse
  004b7	83 c4 04	 add	 esp, 4
$LN26@DemodPSK:
  004ba	a1 00 00 00 00	 mov	 eax, DWORD PTR _intFilteredMixedSamplesLength
  004bf	2b 45 f8	 sub	 eax, DWORD PTR _Used$[ebp]
  004c2	a3 00 00 00 00	 mov	 DWORD PTR _intFilteredMixedSamplesLength, eax

; 4609 : 
; 4610 : 		if (SymbolsLeft <= 0)	

  004c7	83 3d 00 00 00
	00 00		 cmp	 DWORD PTR _SymbolsLeft, 0
  004ce	7f 14		 jg	 SHORT $LN1@DemodPSK

; 4611 : 		{	
; 4612 : 			// prepare for next
; 4613 : 
; 4614 : 			DiscardOldSamples();

  004d0	e8 00 00 00 00	 call	 _DiscardOldSamples

; 4615 : 			ClearAllMixedSamples();

  004d5	e8 00 00 00 00	 call	 _ClearAllMixedSamples

; 4616 : 			State = SearchingForLeader;

  004da	c7 05 00 00 00
	00 00 00 00 00	 mov	 DWORD PTR _State, 0
$LN1@DemodPSK:

; 4617 : 		}
; 4618 : 	}

  004e4	e9 43 fb ff ff	 jmp	 $LN21@DemodPSK
$LN20@DemodPSK:

; 4619 : 	return TRUE;

  004e9	b8 01 00 00 00	 mov	 eax, 1
$LN22@DemodPSK:

; 4620 : }

  004ee	5f		 pop	 edi
  004ef	5e		 pop	 esi
  004f0	5b		 pop	 ebx
  004f1	81 c4 e8 00 00
	00		 add	 esp, 232		; 000000e8H
  004f7	3b ec		 cmp	 ebp, esp
  004f9	e8 00 00 00 00	 call	 __RTC_CheckEsp
  004fe	8b e5		 mov	 esp, ebp
  00500	5d		 pop	 ebp
  00501	c3		 ret	 0
$LN27@DemodPSK:
$LN25@DemodPSK:
  00502	55		 DB	 85			; 00000055H
  00503	73		 DB	 115			; 00000073H
  00504	65		 DB	 101			; 00000065H
  00505	64		 DB	 100			; 00000064H
  00506	00		 DB	 0
  00507	90		 npad	 1
$LN28@DemodPSK:
  00508	00 00 00 00	 DD	 $LN11@DemodPSK
  0050c	00 00 00 00	 DD	 $LN10@DemodPSK
  00510	00 00 00 00	 DD	 $LN12@DemodPSK
  00514	00 00 00 00	 DD	 $LN9@DemodPSK
  00518	00 00 00 00	 DD	 $LN12@DemodPSK
  0051c	00 00 00 00	 DD	 $LN12@DemodPSK
  00520	00 00 00 00	 DD	 $LN12@DemodPSK
  00524	00 00 00 00	 DD	 $LN8@DemodPSK
_DemodPSK ENDP
_TEXT	ENDS
PUBLIC	__real@4018000000000000
EXTRN	_intPSKSymbolCnt:DWORD
;	COMDAT __real@4018000000000000
CONST	SEGMENT
__real@4018000000000000 DQ 04018000000000000r	; 6
; Function compile flags: /Odtp /RTCsu /ZI
CONST	ENDS
;	COMDAT _Demod1CarPSKChar
_TEXT	SEGMENT
tv303 = -284						; size = 4
tv294 = -280						; size = 4
tv383 = -276						; size = 8
tv367 = -268						; size = 4
tv335 = -268						; size = 4
tv316 = -268						; size = 4
tv286 = -268						; size = 4
_origStart$ = -68					; size = 4
_intNumOfSymbols$ = -56					; size = 4
_i$ = -44						; size = 4
_intMiliRadPerSample$ = -32				; size = 4
_dblImag$ = -20						; size = 4
_dblReal$ = -8						; size = 4
_Start$ = 8						; size = 4
_Carrier$ = 12						; size = 4
_Demod1CarPSKChar PROC					; COMDAT

; 4624 : {

  00000	55		 push	 ebp
  00001	8b ec		 mov	 ebp, esp
  00003	81 ec 1c 01 00
	00		 sub	 esp, 284		; 0000011cH
  00009	53		 push	 ebx
  0000a	56		 push	 esi
  0000b	57		 push	 edi
  0000c	8d bd e4 fe ff
	ff		 lea	 edi, DWORD PTR [ebp-284]
  00012	b9 47 00 00 00	 mov	 ecx, 71			; 00000047H
  00017	b8 cc cc cc cc	 mov	 eax, -858993460		; ccccccccH
  0001c	f3 ab		 rep stosd

; 4625 : 	// Converts intSample to an array of differential phase and magnitude values for the Specific Carrier Freq
; 4626 : 	// intPtr should be pointing to the approximate start of the first reference/training symbol (1 of 3) 
; 4627 : 	// intPhase() is an array of phase values (in milliradians range of 0 to 6283) for each symbol 
; 4628 : 	// intMag() is an array of Magnitude values (not used in PSK decoding but for constellation plotting or QAM decoding)
; 4629 : 	// Objective is to use Minimum Phase Error Tracking to maintain optimum pointer position
; 4630 : 
; 4631 : 	//	This is called for one DMA buffer of samples (normally 1200)
; 4632 : 
; 4633 : 	float dblReal, dblImag;
; 4634 : 	int intMiliRadPerSample = intCarFreq * M_PI / 6;

  0001e	d9 05 00 00 00
	00		 fld	 DWORD PTR _intCarFreq
  00024	dc 0d 00 00 00
	00		 fmul	 QWORD PTR __real@400921fb00000000
  0002a	dc 35 00 00 00
	00		 fdiv	 QWORD PTR __real@4018000000000000
  00030	e8 00 00 00 00	 call	 __ftol2_sse
  00035	89 45 e0	 mov	 DWORD PTR _intMiliRadPerSample$[ebp], eax

; 4635 : 	int i;
; 4636 : 	int intNumOfSymbols = 4;

  00038	c7 45 c8 04 00
	00 00		 mov	 DWORD PTR _intNumOfSymbols$[ebp], 4

; 4637 : 	int origStart = Start;;

  0003f	8b 45 08	 mov	 eax, DWORD PTR _Start$[ebp]
  00042	89 45 bc	 mov	 DWORD PTR _origStart$[ebp], eax

; 4638 : 
; 4639 : 	if (CarrierOk[Carrier])		// Already decoded this carrier?

  00045	8b 45 0c	 mov	 eax, DWORD PTR _Carrier$[ebp]
  00048	0f be 88 00 00
	00 00		 movsx	 ecx, BYTE PTR _CarrierOk[eax]
  0004f	85 c9		 test	 ecx, ecx
  00051	74 1b		 je	 SHORT $LN10@Demod1CarP

; 4640 : 	{
; 4641 : 		intPhasesLen += intNumOfSymbols;

  00053	a1 00 00 00 00	 mov	 eax, DWORD PTR _intPhasesLen
  00058	03 45 c8	 add	 eax, DWORD PTR _intNumOfSymbols$[ebp]
  0005b	a3 00 00 00 00	 mov	 DWORD PTR _intPhasesLen, eax

; 4642 : 		return intSampPerSym * intNumOfSymbols;

  00060	a1 00 00 00 00	 mov	 eax, DWORD PTR _intSampPerSym
  00065	0f af 45 c8	 imul	 eax, DWORD PTR _intNumOfSymbols$[ebp]
  00069	e9 1a 03 00 00	 jmp	 $LN11@Demod1CarP
$LN10@Demod1CarP:

; 4643 : 	}
; 4644 : 
; 4645 : 	for (i = 0; i <  intNumOfSymbols; i++)

  0006e	c7 45 d4 00 00
	00 00		 mov	 DWORD PTR _i$[ebp], 0
  00075	eb 09		 jmp	 SHORT $LN9@Demod1CarP
$LN8@Demod1CarP:
  00077	8b 45 d4	 mov	 eax, DWORD PTR _i$[ebp]
  0007a	83 c0 01	 add	 eax, 1
  0007d	89 45 d4	 mov	 DWORD PTR _i$[ebp], eax
$LN9@Demod1CarP:
  00080	8b 45 d4	 mov	 eax, DWORD PTR _i$[ebp]
  00083	3b 45 c8	 cmp	 eax, DWORD PTR _intNumOfSymbols$[ebp]
  00086	0f 8d e0 02 00
	00		 jge	 $LN7@Demod1CarP

; 4646 : 	{
; 4647 : 		if (intCP[i] == 0)

  0008c	8b 45 d4	 mov	 eax, DWORD PTR _i$[ebp]
  0008f	0f bf 0c 45 00
	00 00 00	 movsx	 ecx, WORD PTR _intCP[eax*2]
  00097	85 c9		 test	 ecx, ecx
  00099	75 35		 jne	 SHORT $LN6@Demod1CarP

; 4648 : 			GoertzelRealImagHanning(intFilteredMixedSamples, Start, intNforGoertzel[Carrier], dblFreqBin[Carrier], &dblReal, &dblImag);

  0009b	8d 45 ec	 lea	 eax, DWORD PTR _dblImag$[ebp]
  0009e	50		 push	 eax
  0009f	8d 4d f8	 lea	 ecx, DWORD PTR _dblReal$[ebp]
  000a2	51		 push	 ecx
  000a3	8b 55 0c	 mov	 edx, DWORD PTR _Carrier$[ebp]
  000a6	51		 push	 ecx
  000a7	d9 04 95 00 00
	00 00		 fld	 DWORD PTR _dblFreqBin[edx*4]
  000ae	d9 1c 24	 fstp	 DWORD PTR [esp]
  000b1	8b 45 0c	 mov	 eax, DWORD PTR _Carrier$[ebp]
  000b4	0f bf 0c 45 00
	00 00 00	 movsx	 ecx, WORD PTR _intNforGoertzel[eax*2]
  000bc	51		 push	 ecx
  000bd	8b 55 08	 mov	 edx, DWORD PTR _Start$[ebp]
  000c0	52		 push	 edx
  000c1	68 00 00 00 00	 push	 OFFSET _intFilteredMixedSamples
  000c6	e8 00 00 00 00	 call	 _GoertzelRealImagHanning
  000cb	83 c4 18	 add	 esp, 24			; 00000018H

; 4649 : 		else

  000ce	eb 3e		 jmp	 SHORT $LN5@Demod1CarP
$LN6@Demod1CarP:

; 4650 : 			GoertzelRealImag(intFilteredMixedSamples, Start + intCP[Carrier], intNforGoertzel[Carrier], dblFreqBin[Carrier], &dblReal, &dblImag);

  000d0	8d 45 ec	 lea	 eax, DWORD PTR _dblImag$[ebp]
  000d3	50		 push	 eax
  000d4	8d 4d f8	 lea	 ecx, DWORD PTR _dblReal$[ebp]
  000d7	51		 push	 ecx
  000d8	8b 55 0c	 mov	 edx, DWORD PTR _Carrier$[ebp]
  000db	51		 push	 ecx
  000dc	d9 04 95 00 00
	00 00		 fld	 DWORD PTR _dblFreqBin[edx*4]
  000e3	d9 1c 24	 fstp	 DWORD PTR [esp]
  000e6	8b 45 0c	 mov	 eax, DWORD PTR _Carrier$[ebp]
  000e9	0f bf 0c 45 00
	00 00 00	 movsx	 ecx, WORD PTR _intNforGoertzel[eax*2]
  000f1	51		 push	 ecx
  000f2	8b 55 0c	 mov	 edx, DWORD PTR _Carrier$[ebp]
  000f5	0f bf 04 55 00
	00 00 00	 movsx	 eax, WORD PTR _intCP[edx*2]
  000fd	03 45 08	 add	 eax, DWORD PTR _Start$[ebp]
  00100	50		 push	 eax
  00101	68 00 00 00 00	 push	 OFFSET _intFilteredMixedSamples
  00106	e8 00 00 00 00	 call	 _GoertzelRealImag
  0010b	83 c4 18	 add	 esp, 24			; 00000018H
$LN5@Demod1CarP:

; 4651 : 	
; 4652 : 		intMags[Carrier][intPhasesLen] = sqrtf(powf(dblReal, 2) + powf(dblImag, 2));

  0010e	83 ec 08	 sub	 esp, 8
  00111	dd 05 00 00 00
	00		 fld	 QWORD PTR __real@4000000000000000
  00117	dd 1c 24	 fstp	 QWORD PTR [esp]
  0011a	d9 45 f8	 fld	 DWORD PTR _dblReal$[ebp]
  0011d	83 ec 08	 sub	 esp, 8
  00120	dd 1c 24	 fstp	 QWORD PTR [esp]
  00123	e8 00 00 00 00	 call	 _pow
  00128	83 c4 10	 add	 esp, 16			; 00000010H
  0012b	d9 9d f4 fe ff
	ff		 fstp	 DWORD PTR tv286[ebp]
  00131	d9 85 f4 fe ff
	ff		 fld	 DWORD PTR tv286[ebp]
  00137	83 ec 08	 sub	 esp, 8
  0013a	dd 05 00 00 00
	00		 fld	 QWORD PTR __real@4000000000000000
  00140	dd 1c 24	 fstp	 QWORD PTR [esp]
  00143	d9 45 ec	 fld	 DWORD PTR _dblImag$[ebp]
  00146	83 ec 08	 sub	 esp, 8
  00149	dd 1c 24	 fstp	 QWORD PTR [esp]
  0014c	dd 9d ec fe ff
	ff		 fstp	 QWORD PTR tv383[ebp]
  00152	e8 00 00 00 00	 call	 _pow
  00157	83 c4 10	 add	 esp, 16			; 00000010H
  0015a	d9 9d e8 fe ff
	ff		 fstp	 DWORD PTR tv294[ebp]
  00160	d9 85 e8 fe ff
	ff		 fld	 DWORD PTR tv294[ebp]
  00166	dc 85 ec fe ff
	ff		 fadd	 QWORD PTR tv383[ebp]
  0016c	83 ec 08	 sub	 esp, 8
  0016f	dd 1c 24	 fstp	 QWORD PTR [esp]
  00172	e8 00 00 00 00	 call	 _sqrt
  00177	83 c4 08	 add	 esp, 8
  0017a	d9 9d e4 fe ff
	ff		 fstp	 DWORD PTR tv303[ebp]
  00180	d9 85 e4 fe ff
	ff		 fld	 DWORD PTR tv303[ebp]
  00186	8b 75 0c	 mov	 esi, DWORD PTR _Carrier$[ebp]
  00189	69 f6 18 05 00
	00		 imul	 esi, 1304		; 00000518H
  0018f	e8 00 00 00 00	 call	 __ftol2_sse
  00194	8b 0d 00 00 00
	00		 mov	 ecx, DWORD PTR _intPhasesLen
  0019a	66 89 84 4e 00
	00 00 00	 mov	 WORD PTR _intMags[esi+ecx*2], ax

; 4653 : 		intPSKPhase_0[Carrier] = 1000 * atan2f(dblImag, dblReal);

  001a2	d9 45 f8	 fld	 DWORD PTR _dblReal$[ebp]
  001a5	83 ec 08	 sub	 esp, 8
  001a8	dd 1c 24	 fstp	 QWORD PTR [esp]
  001ab	d9 45 ec	 fld	 DWORD PTR _dblImag$[ebp]
  001ae	83 ec 08	 sub	 esp, 8
  001b1	dd 1c 24	 fstp	 QWORD PTR [esp]
  001b4	e8 00 00 00 00	 call	 _atan2
  001b9	83 c4 10	 add	 esp, 16			; 00000010H
  001bc	d9 9d f4 fe ff
	ff		 fstp	 DWORD PTR tv316[ebp]
  001c2	d9 85 f4 fe ff
	ff		 fld	 DWORD PTR tv316[ebp]
  001c8	dc 0d 00 00 00
	00		 fmul	 QWORD PTR __real@408f400000000000
  001ce	e8 00 00 00 00	 call	 __ftol2_sse
  001d3	8b 4d 0c	 mov	 ecx, DWORD PTR _Carrier$[ebp]
  001d6	66 89 04 4d 00
	00 00 00	 mov	 WORD PTR _intPSKPhase_0[ecx*2], ax

; 4654 : 		intPhases[Carrier][intPhasesLen] = -(ComputeAng1_Ang2(intPSKPhase_0[Carrier], intPSKPhase_1[Carrier]));

  001de	8b 45 0c	 mov	 eax, DWORD PTR _Carrier$[ebp]
  001e1	0f bf 0c 45 00
	00 00 00	 movsx	 ecx, WORD PTR _intPSKPhase_1[eax*2]
  001e9	51		 push	 ecx
  001ea	8b 55 0c	 mov	 edx, DWORD PTR _Carrier$[ebp]
  001ed	0f bf 04 55 00
	00 00 00	 movsx	 eax, WORD PTR _intPSKPhase_0[edx*2]
  001f5	50		 push	 eax
  001f6	e8 00 00 00 00	 call	 _ComputeAng1_Ang2
  001fb	83 c4 08	 add	 esp, 8
  001fe	f7 d8		 neg	 eax
  00200	8b 4d 0c	 mov	 ecx, DWORD PTR _Carrier$[ebp]
  00203	69 c9 18 05 00
	00		 imul	 ecx, 1304		; 00000518H
  00209	8b 15 00 00 00
	00		 mov	 edx, DWORD PTR _intPhasesLen
  0020f	66 89 84 51 00
	00 00 00	 mov	 WORD PTR _intPhases[ecx+edx*2], ax

; 4655 : 
; 4656 : 		Corrections = Track1CarPSK(intCarFreq, strMod, atan2f(dblImag, dblReal), FALSE);

  00217	6a 00		 push	 0
  00219	d9 45 f8	 fld	 DWORD PTR _dblReal$[ebp]
  0021c	83 ec 08	 sub	 esp, 8
  0021f	dd 1c 24	 fstp	 QWORD PTR [esp]
  00222	d9 45 ec	 fld	 DWORD PTR _dblImag$[ebp]
  00225	83 ec 08	 sub	 esp, 8
  00228	dd 1c 24	 fstp	 QWORD PTR [esp]
  0022b	e8 00 00 00 00	 call	 _atan2
  00230	83 c4 10	 add	 esp, 16			; 00000010H
  00233	d9 9d f4 fe ff
	ff		 fstp	 DWORD PTR tv335[ebp]
  00239	d9 85 f4 fe ff
	ff		 fld	 DWORD PTR tv335[ebp]
  0023f	51		 push	 ecx
  00240	d9 1c 24	 fstp	 DWORD PTR [esp]
  00243	68 00 00 00 00	 push	 OFFSET _strMod
  00248	d9 05 00 00 00
	00		 fld	 DWORD PTR _intCarFreq
  0024e	e8 00 00 00 00	 call	 __ftol2_sse
  00253	50		 push	 eax
  00254	e8 00 00 00 00	 call	 _Track1CarPSK
  00259	83 c4 10	 add	 esp, 16			; 00000010H
  0025c	a3 00 00 00 00	 mov	 DWORD PTR _Corrections, eax

; 4657 : 
; 4658 : 		if (Corrections != 0)

  00261	83 3d 00 00 00
	00 00		 cmp	 DWORD PTR _Corrections, 0
  00268	0f 84 ca 00 00
	00		 je	 $LN4@Demod1CarP

; 4659 : 		{
; 4660 : 			Start += Corrections;

  0026e	8b 45 08	 mov	 eax, DWORD PTR _Start$[ebp]
  00271	03 05 00 00 00
	00		 add	 eax, DWORD PTR _Corrections
  00277	89 45 08	 mov	 DWORD PTR _Start$[ebp], eax

; 4661 : 
; 4662 : 			if (intCP[i] == 0)

  0027a	8b 45 d4	 mov	 eax, DWORD PTR _i$[ebp]
  0027d	0f bf 0c 45 00
	00 00 00	 movsx	 ecx, WORD PTR _intCP[eax*2]
  00285	85 c9		 test	 ecx, ecx
  00287	75 35		 jne	 SHORT $LN3@Demod1CarP

; 4663 : 				GoertzelRealImagHanning(intFilteredMixedSamples, Start, intNforGoertzel[Carrier], dblFreqBin[Carrier], &dblReal, &dblImag);

  00289	8d 45 ec	 lea	 eax, DWORD PTR _dblImag$[ebp]
  0028c	50		 push	 eax
  0028d	8d 4d f8	 lea	 ecx, DWORD PTR _dblReal$[ebp]
  00290	51		 push	 ecx
  00291	8b 55 0c	 mov	 edx, DWORD PTR _Carrier$[ebp]
  00294	51		 push	 ecx
  00295	d9 04 95 00 00
	00 00		 fld	 DWORD PTR _dblFreqBin[edx*4]
  0029c	d9 1c 24	 fstp	 DWORD PTR [esp]
  0029f	8b 45 0c	 mov	 eax, DWORD PTR _Carrier$[ebp]
  002a2	0f bf 0c 45 00
	00 00 00	 movsx	 ecx, WORD PTR _intNforGoertzel[eax*2]
  002aa	51		 push	 ecx
  002ab	8b 55 08	 mov	 edx, DWORD PTR _Start$[ebp]
  002ae	52		 push	 edx
  002af	68 00 00 00 00	 push	 OFFSET _intFilteredMixedSamples
  002b4	e8 00 00 00 00	 call	 _GoertzelRealImagHanning
  002b9	83 c4 18	 add	 esp, 24			; 00000018H

; 4664 : 			else

  002bc	eb 3e		 jmp	 SHORT $LN2@Demod1CarP
$LN3@Demod1CarP:

; 4665 : 				GoertzelRealImag(intFilteredMixedSamples, Start + intCP[Carrier], intNforGoertzel[Carrier], dblFreqBin[Carrier], &dblReal, &dblImag);

  002be	8d 45 ec	 lea	 eax, DWORD PTR _dblImag$[ebp]
  002c1	50		 push	 eax
  002c2	8d 4d f8	 lea	 ecx, DWORD PTR _dblReal$[ebp]
  002c5	51		 push	 ecx
  002c6	8b 55 0c	 mov	 edx, DWORD PTR _Carrier$[ebp]
  002c9	51		 push	 ecx
  002ca	d9 04 95 00 00
	00 00		 fld	 DWORD PTR _dblFreqBin[edx*4]
  002d1	d9 1c 24	 fstp	 DWORD PTR [esp]
  002d4	8b 45 0c	 mov	 eax, DWORD PTR _Carrier$[ebp]
  002d7	0f bf 0c 45 00
	00 00 00	 movsx	 ecx, WORD PTR _intNforGoertzel[eax*2]
  002df	51		 push	 ecx
  002e0	8b 55 0c	 mov	 edx, DWORD PTR _Carrier$[ebp]
  002e3	0f bf 04 55 00
	00 00 00	 movsx	 eax, WORD PTR _intCP[edx*2]
  002eb	03 45 08	 add	 eax, DWORD PTR _Start$[ebp]
  002ee	50		 push	 eax
  002ef	68 00 00 00 00	 push	 OFFSET _intFilteredMixedSamples
  002f4	e8 00 00 00 00	 call	 _GoertzelRealImag
  002f9	83 c4 18	 add	 esp, 24			; 00000018H
$LN2@Demod1CarP:

; 4666 : 
; 4667 : 			intPSKPhase_0[Carrier] = 1000 * atan2f(dblImag, dblReal);

  002fc	d9 45 f8	 fld	 DWORD PTR _dblReal$[ebp]
  002ff	83 ec 08	 sub	 esp, 8
  00302	dd 1c 24	 fstp	 QWORD PTR [esp]
  00305	d9 45 ec	 fld	 DWORD PTR _dblImag$[ebp]
  00308	83 ec 08	 sub	 esp, 8
  0030b	dd 1c 24	 fstp	 QWORD PTR [esp]
  0030e	e8 00 00 00 00	 call	 _atan2
  00313	83 c4 10	 add	 esp, 16			; 00000010H
  00316	d9 9d f4 fe ff
	ff		 fstp	 DWORD PTR tv367[ebp]
  0031c	d9 85 f4 fe ff
	ff		 fld	 DWORD PTR tv367[ebp]
  00322	dc 0d 00 00 00
	00		 fmul	 QWORD PTR __real@408f400000000000
  00328	e8 00 00 00 00	 call	 __ftol2_sse
  0032d	8b 4d 0c	 mov	 ecx, DWORD PTR _Carrier$[ebp]
  00330	66 89 04 4d 00
	00 00 00	 mov	 WORD PTR _intPSKPhase_0[ecx*2], ax
$LN4@Demod1CarP:

; 4668 : 		}
; 4669 : 		intPSKPhase_1[Carrier] = intPSKPhase_0[Carrier];

  00338	8b 45 0c	 mov	 eax, DWORD PTR _Carrier$[ebp]
  0033b	8b 4d 0c	 mov	 ecx, DWORD PTR _Carrier$[ebp]
  0033e	66 8b 14 4d 00
	00 00 00	 mov	 dx, WORD PTR _intPSKPhase_0[ecx*2]
  00346	66 89 14 45 00
	00 00 00	 mov	 WORD PTR _intPSKPhase_1[eax*2], dx

; 4670 : 		intPhasesLen++;

  0034e	a1 00 00 00 00	 mov	 eax, DWORD PTR _intPhasesLen
  00353	83 c0 01	 add	 eax, 1
  00356	a3 00 00 00 00	 mov	 DWORD PTR _intPhasesLen, eax

; 4671 : 		Start += intSampPerSym;

  0035b	8b 45 08	 mov	 eax, DWORD PTR _Start$[ebp]
  0035e	03 05 00 00 00
	00		 add	 eax, DWORD PTR _intSampPerSym
  00364	89 45 08	 mov	 DWORD PTR _Start$[ebp], eax

; 4672 : 	}

  00367	e9 0b fd ff ff	 jmp	 $LN8@Demod1CarP
$LN7@Demod1CarP:

; 4673 :  
; 4674 : 	if (AccumulateStats)

  0036c	83 3d 00 00 00
	00 00		 cmp	 DWORD PTR _AccumulateStats, 0
  00373	74 0d		 je	 SHORT $LN1@Demod1CarP

; 4675 : 		intPSKSymbolCnt += intNumOfSymbols;

  00375	a1 00 00 00 00	 mov	 eax, DWORD PTR _intPSKSymbolCnt
  0037a	03 45 c8	 add	 eax, DWORD PTR _intNumOfSymbols$[ebp]
  0037d	a3 00 00 00 00	 mov	 DWORD PTR _intPSKSymbolCnt, eax
$LN1@Demod1CarP:

; 4676 : 
; 4677 : 	return (Start - origStart);	// Symbols we've consumed

  00382	8b 45 08	 mov	 eax, DWORD PTR _Start$[ebp]
  00385	2b 45 bc	 sub	 eax, DWORD PTR _origStart$[ebp]
$LN11@Demod1CarP:

; 4678 : }

  00388	52		 push	 edx
  00389	8b cd		 mov	 ecx, ebp
  0038b	50		 push	 eax
  0038c	8d 15 00 00 00
	00		 lea	 edx, DWORD PTR $LN16@Demod1CarP
  00392	e8 00 00 00 00	 call	 @_RTC_CheckStackVars@8
  00397	58		 pop	 eax
  00398	5a		 pop	 edx
  00399	5f		 pop	 edi
  0039a	5e		 pop	 esi
  0039b	5b		 pop	 ebx
  0039c	81 c4 1c 01 00
	00		 add	 esp, 284		; 0000011cH
  003a2	3b ec		 cmp	 ebp, esp
  003a4	e8 00 00 00 00	 call	 __RTC_CheckEsp
  003a9	8b e5		 mov	 esp, ebp
  003ab	5d		 pop	 ebp
  003ac	c3		 ret	 0
  003ad	8d 49 00	 npad	 3
$LN16@Demod1CarP:
  003b0	02 00 00 00	 DD	 2
  003b4	00 00 00 00	 DD	 $LN15@Demod1CarP
$LN15@Demod1CarP:
  003b8	f8 ff ff ff	 DD	 -8			; fffffff8H
  003bc	04 00 00 00	 DD	 4
  003c0	00 00 00 00	 DD	 $LN13@Demod1CarP
  003c4	ec ff ff ff	 DD	 -20			; ffffffecH
  003c8	04 00 00 00	 DD	 4
  003cc	00 00 00 00	 DD	 $LN14@Demod1CarP
$LN14@Demod1CarP:
  003d0	64		 DB	 100			; 00000064H
  003d1	62		 DB	 98			; 00000062H
  003d2	6c		 DB	 108			; 0000006cH
  003d3	49		 DB	 73			; 00000049H
  003d4	6d		 DB	 109			; 0000006dH
  003d5	61		 DB	 97			; 00000061H
  003d6	67		 DB	 103			; 00000067H
  003d7	00		 DB	 0
$LN13@Demod1CarP:
  003d8	64		 DB	 100			; 00000064H
  003d9	62		 DB	 98			; 00000062H
  003da	6c		 DB	 108			; 0000006cH
  003db	52		 DB	 82			; 00000052H
  003dc	65		 DB	 101			; 00000065H
  003dd	61		 DB	 97			; 00000061H
  003de	6c		 DB	 108			; 0000006cH
  003df	00		 DB	 0
_Demod1CarPSKChar ENDP
_TEXT	ENDS
PUBLIC	__real@3fe8000000000000
PUBLIC	_InitDemodQAM
;	COMDAT __real@3fe8000000000000
CONST	SEGMENT
__real@3fe8000000000000 DQ 03fe8000000000000r	; 0.75
; Function compile flags: /Odtp /RTCsu /ZI
CONST	ENDS
;	COMDAT _InitDemodQAM
_TEXT	SEGMENT
tv229 = -260						; size = 4
tv220 = -256						; size = 4
tv254 = -252						; size = 8
tv236 = -244						; size = 4
tv212 = -244						; size = 4
tv204 = -244						; size = 4
tv184 = -244						; size = 4
_dblImag$ = -44						; size = 4
_dblReal$ = -32						; size = 4
_dblPhase$ = -20					; size = 4
_i$ = -8						; size = 4
_InitDemodQAM PROC					; COMDAT

; 4681 : {

  00000	55		 push	 ebp
  00001	8b ec		 mov	 ebp, esp
  00003	81 ec 04 01 00
	00		 sub	 esp, 260		; 00000104H
  00009	53		 push	 ebx
  0000a	56		 push	 esi
  0000b	57		 push	 edi
  0000c	8d bd fc fe ff
	ff		 lea	 edi, DWORD PTR [ebp-260]
  00012	b9 41 00 00 00	 mov	 ecx, 65			; 00000041H
  00017	b8 cc cc cc cc	 mov	 eax, -858993460		; ccccccccH
  0001c	f3 ab		 rep stosd

; 4682 : 	// Called at start of frame
; 4683 : 
; 4684 : 	int i;
; 4685 : 	float dblPhase, dblReal, dblImag;
; 4686 : 
; 4687 : 	intPSKMode = 8;				// 16QAM uses 8 PSK

  0001e	c7 05 00 00 00
	00 08 00 00 00	 mov	 DWORD PTR _intPSKMode, 8

; 4688 : 	dblPhaseInc = 2 * M_PI * 1000 / 8;

  00028	dd 05 00 00 00
	00		 fld	 QWORD PTR __real@40888b2f20000000
  0002e	dd 1d 00 00 00
	00		 fstp	 QWORD PTR _dblPhaseInc

; 4689 : 
; 4690 : 	PSKInitDone = TRUE;

  00034	c7 05 00 00 00
	00 01 00 00 00	 mov	 DWORD PTR _PSKInitDone, 1

; 4691 : 
; 4692 : 	intSampPerSym = 120;

  0003e	c7 05 00 00 00
	00 78 00 00 00	 mov	 DWORD PTR _intSampPerSym, 120 ; 00000078H

; 4693 : 
; 4694 : 	if (intNumCar == 1)

  00048	83 3d 00 00 00
	00 01		 cmp	 DWORD PTR _intNumCar, 1
  0004f	75 0e		 jne	 SHORT $LN5@InitDemodQ

; 4695 : 		intCarFreq = 1500;

  00051	d9 05 00 00 00
	00		 fld	 DWORD PTR __real@44bb8000
  00057	d9 1d 00 00 00
	00		 fstp	 DWORD PTR _intCarFreq

; 4696 : 	else

  0005d	eb 27		 jmp	 SHORT $LN4@InitDemodQ
$LN5@InitDemodQ:

; 4697 : 		intCarFreq = 1400 + (intNumCar / 2) * 200; // start at the highest carrier freq which is actually the lowest transmitted carrier due to Reverse sideband mixing

  0005f	a1 00 00 00 00	 mov	 eax, DWORD PTR _intNumCar
  00064	99		 cdq
  00065	2b c2		 sub	 eax, edx
  00067	d1 f8		 sar	 eax, 1
  00069	69 c0 c8 00 00
	00		 imul	 eax, 200		; 000000c8H
  0006f	05 78 05 00 00	 add	 eax, 1400		; 00000578H
  00074	89 85 0c ff ff
	ff		 mov	 DWORD PTR tv184[ebp], eax
  0007a	db 85 0c ff ff
	ff		 fild	 DWORD PTR tv184[ebp]
  00080	d9 1d 00 00 00
	00		 fstp	 DWORD PTR _intCarFreq
$LN4@InitDemodQ:

; 4698 :   
; 4699 : 	for (i= 0; i < intNumCar; i++)

  00086	c7 45 f8 00 00
	00 00		 mov	 DWORD PTR _i$[ebp], 0
  0008d	eb 09		 jmp	 SHORT $LN3@InitDemodQ
$LN2@InitDemodQ:
  0008f	8b 45 f8	 mov	 eax, DWORD PTR _i$[ebp]
  00092	83 c0 01	 add	 eax, 1
  00095	89 45 f8	 mov	 DWORD PTR _i$[ebp], eax
$LN3@InitDemodQ:
  00098	8b 45 f8	 mov	 eax, DWORD PTR _i$[ebp]
  0009b	3b 05 00 00 00
	00		 cmp	 eax, DWORD PTR _intNumCar
  000a1	0f 8d 9b 01 00
	00		 jge	 $LN1@InitDemodQ

; 4700 : 	{
; 4701 : 		// Only 100 Hz for QAM
; 4702 : 						
; 4703 : 		intCP[i] = 0;

  000a7	8b 45 f8	 mov	 eax, DWORD PTR _i$[ebp]
  000aa	66 c7 04 45 00
	00 00 00 00 00	 mov	 WORD PTR _intCP[eax*2], 0

; 4704 : 		intNforGoertzel[i] = 120;

  000b4	8b 45 f8	 mov	 eax, DWORD PTR _i$[ebp]
  000b7	66 c7 04 45 00
	00 00 00 78 00	 mov	 WORD PTR _intNforGoertzel[eax*2], 120 ; 00000078H

; 4705 : 		dblFreqBin[i] = intCarFreq / 100;

  000c1	d9 05 00 00 00
	00		 fld	 DWORD PTR _intCarFreq
  000c7	dc 35 00 00 00
	00		 fdiv	 QWORD PTR __real@4059000000000000
  000cd	8b 45 f8	 mov	 eax, DWORD PTR _i$[ebp]
  000d0	d9 1c 85 00 00
	00 00		 fstp	 DWORD PTR _dblFreqBin[eax*4]

; 4706 : 	
; 4707 : 		// Get initial Reference Phase
; 4708 : 		
; 4709 : 		GoertzelRealImagHanning(intFilteredMixedSamples, intCP[i], intNforGoertzel[i], dblFreqBin[i], &dblReal, &dblImag);

  000d7	8d 45 d4	 lea	 eax, DWORD PTR _dblImag$[ebp]
  000da	50		 push	 eax
  000db	8d 4d e0	 lea	 ecx, DWORD PTR _dblReal$[ebp]
  000de	51		 push	 ecx
  000df	8b 55 f8	 mov	 edx, DWORD PTR _i$[ebp]
  000e2	51		 push	 ecx
  000e3	d9 04 95 00 00
	00 00		 fld	 DWORD PTR _dblFreqBin[edx*4]
  000ea	d9 1c 24	 fstp	 DWORD PTR [esp]
  000ed	8b 45 f8	 mov	 eax, DWORD PTR _i$[ebp]
  000f0	0f bf 0c 45 00
	00 00 00	 movsx	 ecx, WORD PTR _intNforGoertzel[eax*2]
  000f8	51		 push	 ecx
  000f9	8b 55 f8	 mov	 edx, DWORD PTR _i$[ebp]
  000fc	0f bf 04 55 00
	00 00 00	 movsx	 eax, WORD PTR _intCP[edx*2]
  00104	50		 push	 eax
  00105	68 00 00 00 00	 push	 OFFSET _intFilteredMixedSamples
  0010a	e8 00 00 00 00	 call	 _GoertzelRealImagHanning
  0010f	83 c4 18	 add	 esp, 24			; 00000018H

; 4710 : 		dblPhase = atan2f(dblImag, dblReal);

  00112	d9 45 e0	 fld	 DWORD PTR _dblReal$[ebp]
  00115	83 ec 08	 sub	 esp, 8
  00118	dd 1c 24	 fstp	 QWORD PTR [esp]
  0011b	d9 45 d4	 fld	 DWORD PTR _dblImag$[ebp]
  0011e	83 ec 08	 sub	 esp, 8
  00121	dd 1c 24	 fstp	 QWORD PTR [esp]
  00124	e8 00 00 00 00	 call	 _atan2
  00129	83 c4 10	 add	 esp, 16			; 00000010H
  0012c	d9 9d 0c ff ff
	ff		 fstp	 DWORD PTR tv204[ebp]
  00132	d9 85 0c ff ff
	ff		 fld	 DWORD PTR tv204[ebp]
  00138	d9 5d ec	 fstp	 DWORD PTR _dblPhase$[ebp]

; 4711 : 
; 4712 : 		// Set initial mag from REeference Phase (which should be full power)
; 4713 : 
; 4714 : 		intCarMagThreshold[i] = sqrtf(powf(dblReal, 2) + powf(dblImag, 2));

  0013b	83 ec 08	 sub	 esp, 8
  0013e	dd 05 00 00 00
	00		 fld	 QWORD PTR __real@4000000000000000
  00144	dd 1c 24	 fstp	 QWORD PTR [esp]
  00147	d9 45 e0	 fld	 DWORD PTR _dblReal$[ebp]
  0014a	83 ec 08	 sub	 esp, 8
  0014d	dd 1c 24	 fstp	 QWORD PTR [esp]
  00150	e8 00 00 00 00	 call	 _pow
  00155	83 c4 10	 add	 esp, 16			; 00000010H
  00158	d9 9d 0c ff ff
	ff		 fstp	 DWORD PTR tv212[ebp]
  0015e	d9 85 0c ff ff
	ff		 fld	 DWORD PTR tv212[ebp]
  00164	83 ec 08	 sub	 esp, 8
  00167	dd 05 00 00 00
	00		 fld	 QWORD PTR __real@4000000000000000
  0016d	dd 1c 24	 fstp	 QWORD PTR [esp]
  00170	d9 45 d4	 fld	 DWORD PTR _dblImag$[ebp]
  00173	83 ec 08	 sub	 esp, 8
  00176	dd 1c 24	 fstp	 QWORD PTR [esp]
  00179	dd 9d 04 ff ff
	ff		 fstp	 QWORD PTR tv254[ebp]
  0017f	e8 00 00 00 00	 call	 _pow
  00184	83 c4 10	 add	 esp, 16			; 00000010H
  00187	d9 9d 00 ff ff
	ff		 fstp	 DWORD PTR tv220[ebp]
  0018d	d9 85 00 ff ff
	ff		 fld	 DWORD PTR tv220[ebp]
  00193	dc 85 04 ff ff
	ff		 fadd	 QWORD PTR tv254[ebp]
  00199	83 ec 08	 sub	 esp, 8
  0019c	dd 1c 24	 fstp	 QWORD PTR [esp]
  0019f	e8 00 00 00 00	 call	 _sqrt
  001a4	83 c4 08	 add	 esp, 8
  001a7	d9 9d fc fe ff
	ff		 fstp	 DWORD PTR tv229[ebp]
  001ad	d9 85 fc fe ff
	ff		 fld	 DWORD PTR tv229[ebp]
  001b3	e8 00 00 00 00	 call	 __ftol2_sse
  001b8	8b 4d f8	 mov	 ecx, DWORD PTR _i$[ebp]
  001bb	66 89 04 4d 00
	00 00 00	 mov	 WORD PTR _intCarMagThreshold[ecx*2], ax

; 4715 : 		intCarMagThreshold[i] *= 0.75;

  001c3	8b 45 f8	 mov	 eax, DWORD PTR _i$[ebp]
  001c6	0f bf 0c 45 00
	00 00 00	 movsx	 ecx, WORD PTR _intCarMagThreshold[eax*2]
  001ce	89 8d 0c ff ff
	ff		 mov	 DWORD PTR tv236[ebp], ecx
  001d4	db 85 0c ff ff
	ff		 fild	 DWORD PTR tv236[ebp]
  001da	dc 0d 00 00 00
	00		 fmul	 QWORD PTR __real@3fe8000000000000
  001e0	e8 00 00 00 00	 call	 __ftol2_sse
  001e5	8b 55 f8	 mov	 edx, DWORD PTR _i$[ebp]
  001e8	66 89 04 55 00
	00 00 00	 mov	 WORD PTR _intCarMagThreshold[edx*2], ax

; 4716 : 
; 4717 : 		Track1CarPSK(intCarFreq, strMod, dblPhase, TRUE);

  001f0	6a 01		 push	 1
  001f2	51		 push	 ecx
  001f3	d9 45 ec	 fld	 DWORD PTR _dblPhase$[ebp]
  001f6	d9 1c 24	 fstp	 DWORD PTR [esp]
  001f9	68 00 00 00 00	 push	 OFFSET _strMod
  001fe	d9 05 00 00 00
	00		 fld	 DWORD PTR _intCarFreq
  00204	e8 00 00 00 00	 call	 __ftol2_sse
  00209	50		 push	 eax
  0020a	e8 00 00 00 00	 call	 _Track1CarPSK
  0020f	83 c4 10	 add	 esp, 16			; 00000010H

; 4718 : 		intPSKPhase_1[i] = 1000 * dblPhase;

  00212	d9 45 ec	 fld	 DWORD PTR _dblPhase$[ebp]
  00215	dc 0d 00 00 00
	00		 fmul	 QWORD PTR __real@408f400000000000
  0021b	e8 00 00 00 00	 call	 __ftol2_sse
  00220	8b 4d f8	 mov	 ecx, DWORD PTR _i$[ebp]
  00223	66 89 04 4d 00
	00 00 00	 mov	 WORD PTR _intPSKPhase_1[ecx*2], ax

; 4719 : 		intCarFreq -= 200;  // Step through each carrier Highest to lowest which is equivalent to lowest to highest before RSB mixing. 

  0022b	d9 05 00 00 00
	00		 fld	 DWORD PTR _intCarFreq
  00231	dc 25 00 00 00
	00		 fsub	 QWORD PTR __real@4069000000000000
  00237	d9 1d 00 00 00
	00		 fstp	 DWORD PTR _intCarFreq

; 4720 : 	}

  0023d	e9 4d fe ff ff	 jmp	 $LN2@InitDemodQ
$LN1@InitDemodQ:

; 4721 : }

  00242	52		 push	 edx
  00243	8b cd		 mov	 ecx, ebp
  00245	50		 push	 eax
  00246	8d 15 00 00 00
	00		 lea	 edx, DWORD PTR $LN11@InitDemodQ
  0024c	e8 00 00 00 00	 call	 @_RTC_CheckStackVars@8
  00251	58		 pop	 eax
  00252	5a		 pop	 edx
  00253	5f		 pop	 edi
  00254	5e		 pop	 esi
  00255	5b		 pop	 ebx
  00256	81 c4 04 01 00
	00		 add	 esp, 260		; 00000104H
  0025c	3b ec		 cmp	 ebp, esp
  0025e	e8 00 00 00 00	 call	 __RTC_CheckEsp
  00263	8b e5		 mov	 esp, ebp
  00265	5d		 pop	 ebp
  00266	c3		 ret	 0
  00267	90		 npad	 1
$LN11@InitDemodQ:
  00268	02 00 00 00	 DD	 2
  0026c	00 00 00 00	 DD	 $LN10@InitDemodQ
$LN10@InitDemodQ:
  00270	e0 ff ff ff	 DD	 -32			; ffffffe0H
  00274	04 00 00 00	 DD	 4
  00278	00 00 00 00	 DD	 $LN8@InitDemodQ
  0027c	d4 ff ff ff	 DD	 -44			; ffffffd4H
  00280	04 00 00 00	 DD	 4
  00284	00 00 00 00	 DD	 $LN9@InitDemodQ
$LN9@InitDemodQ:
  00288	64		 DB	 100			; 00000064H
  00289	62		 DB	 98			; 00000062H
  0028a	6c		 DB	 108			; 0000006cH
  0028b	49		 DB	 73			; 00000049H
  0028c	6d		 DB	 109			; 0000006dH
  0028d	61		 DB	 97			; 00000061H
  0028e	67		 DB	 103			; 00000067H
  0028f	00		 DB	 0
$LN8@InitDemodQ:
  00290	64		 DB	 100			; 00000064H
  00291	62		 DB	 98			; 00000062H
  00292	6c		 DB	 108			; 0000006cH
  00293	52		 DB	 82			; 00000052H
  00294	65		 DB	 101			; 00000065H
  00295	61		 DB	 97			; 00000061H
  00296	6c		 DB	 108			; 0000006cH
  00297	00		 DB	 0
_InitDemodQAM ENDP
_TEXT	ENDS
PUBLIC	_Demod1CarQAMChar
; Function compile flags: /Odtp /RTCsu /ZI
;	COMDAT _DemodQAM
_TEXT	SEGMENT
tv163 = -232						; size = 4
tv86 = -232						; size = 4
$T7925 = -221						; size = 1
_Start$ = -20						; size = 4
_Used$ = -8						; size = 4
_DemodQAM PROC						; COMDAT

; 4726 : {

  00000	55		 push	 ebp
  00001	8b ec		 mov	 ebp, esp
  00003	81 ec e8 00 00
	00		 sub	 esp, 232		; 000000e8H
  00009	53		 push	 ebx
  0000a	56		 push	 esi
  0000b	57		 push	 edi
  0000c	8d bd 18 ff ff
	ff		 lea	 edi, DWORD PTR [ebp-232]
  00012	b9 3a 00 00 00	 mov	 ecx, 58			; 0000003aH
  00017	b8 cc cc cc cc	 mov	 eax, -858993460		; ccccccccH
  0001c	f3 ab		 rep stosd
  0001e	c6 85 23 ff ff
	ff 00		 mov	 BYTE PTR $T7925[ebp], 0

; 4727 : 	int Used;
; 4728 : 	int Start = 0;

  00025	c7 45 ec 00 00
	00 00		 mov	 DWORD PTR _Start$[ebp], 0
$LN15@DemodQAM:

; 4729 : 
; 4730 : 	// We can't wait for the full frame as we don't have enough RAM, so
; 4731 : 	// we do one DMA Buffer at a time, until we run out or end of frame
; 4732 : 
; 4733 : 	// Only continue if we have enough samples
; 4734 : 
; 4735 : 	while (State == AcquireFrame)

  0002c	83 3d 00 00 00
	00 05		 cmp	 DWORD PTR _State, 5
  00033	0f 85 06 02 00
	00		 jne	 $LN14@DemodQAM

; 4736 : 	{
; 4737 : 		if (intFilteredMixedSamplesLength < 8 * intSampPerSym + 10) // allow for a few phase corrections

  00039	a1 00 00 00 00	 mov	 eax, DWORD PTR _intSampPerSym
  0003e	8d 0c c5 0a 00
	00 00		 lea	 ecx, DWORD PTR [eax*8+10]
  00045	39 0d 00 00 00
	00		 cmp	 DWORD PTR _intFilteredMixedSamplesLength, ecx
  0004b	7d 30		 jge	 SHORT $LN13@DemodQAM

; 4738 : 		{
; 4739 : 			// Move any unprocessessed data down buffer
; 4740 : 
; 4741 : 			//	(while checking process - will use cyclic buffer eventually
; 4742 : 
; 4743 : 			if (intFilteredMixedSamplesLength > 0)

  0004d	83 3d 00 00 00
	00 00		 cmp	 DWORD PTR _intFilteredMixedSamplesLength, 0
  00054	7e 20		 jle	 SHORT $LN12@DemodQAM

; 4744 : 				memmove(intFilteredMixedSamples,
; 4745 : 					&intFilteredMixedSamples[Start], intFilteredMixedSamplesLength * 2); 

  00056	a1 00 00 00 00	 mov	 eax, DWORD PTR _intFilteredMixedSamplesLength
  0005b	d1 e0		 shl	 eax, 1
  0005d	50		 push	 eax
  0005e	8b 4d ec	 mov	 ecx, DWORD PTR _Start$[ebp]
  00061	8d 14 4d 00 00
	00 00		 lea	 edx, DWORD PTR _intFilteredMixedSamples[ecx*2]
  00068	52		 push	 edx
  00069	68 00 00 00 00	 push	 OFFSET _intFilteredMixedSamples
  0006e	e8 00 00 00 00	 call	 _memmove
  00073	83 c4 0c	 add	 esp, 12			; 0000000cH
$LN12@DemodQAM:

; 4746 : 
; 4747 : 			return FALSE;

  00076	33 c0		 xor	 eax, eax
  00078	e9 c7 01 00 00	 jmp	 $LN16@DemodQAM
$LN13@DemodQAM:

; 4748 : 		}
; 4749 : 		
; 4750 : 
; 4751 : 		if (PSKInitDone == 0)		// First time through

  0007d	83 3d 00 00 00
	00 00		 cmp	 DWORD PTR _PSKInitDone, 0
  00084	75 3b		 jne	 SHORT $LN11@DemodQAM

; 4752 : 		{	
; 4753 : 			if (intFilteredMixedSamplesLength < 9 * intSampPerSym + 10) 

  00086	a1 00 00 00 00	 mov	 eax, DWORD PTR _intSampPerSym
  0008b	6b c0 09	 imul	 eax, 9
  0008e	83 c0 0a	 add	 eax, 10			; 0000000aH
  00091	39 05 00 00 00
	00		 cmp	 DWORD PTR _intFilteredMixedSamplesLength, eax
  00097	7d 07		 jge	 SHORT $LN10@DemodQAM

; 4754 : 				return FALSE;				// Wait for at least 2 chars worth

  00099	33 c0		 xor	 eax, eax
  0009b	e9 a4 01 00 00	 jmp	 $LN16@DemodQAM
$LN10@DemodQAM:

; 4755 : 
; 4756 : 			InitDemodQAM();

  000a0	e8 00 00 00 00	 call	 _InitDemodQAM

; 4757 : 			intFilteredMixedSamplesLength -= intSampPerSym;

  000a5	a1 00 00 00 00	 mov	 eax, DWORD PTR _intFilteredMixedSamplesLength
  000aa	2b 05 00 00 00
	00		 sub	 eax, DWORD PTR _intSampPerSym
  000b0	a3 00 00 00 00	 mov	 DWORD PTR _intFilteredMixedSamplesLength, eax

; 4758 : 			Start += intSampPerSym;	

  000b5	8b 45 ec	 mov	 eax, DWORD PTR _Start$[ebp]
  000b8	03 05 00 00 00
	00		 add	 eax, DWORD PTR _intSampPerSym
  000be	89 45 ec	 mov	 DWORD PTR _Start$[ebp], eax
$LN11@DemodQAM:

; 4759 : 		}
; 4760 : 
; 4761 : 		// If this is a multicarrier mode, we must call the
; 4762 : 		// decode char routine for each carrier
; 4763 : 
; 4764 : 		if (intNumCar == 1)

  000c1	83 3d 00 00 00
	00 01		 cmp	 DWORD PTR _intNumCar, 1
  000c8	75 0e		 jne	 SHORT $LN9@DemodQAM

; 4765 : 			intCarFreq = 1500;

  000ca	d9 05 00 00 00
	00		 fld	 DWORD PTR __real@44bb8000
  000d0	d9 1d 00 00 00
	00		 fstp	 DWORD PTR _intCarFreq

; 4766 : 		else

  000d6	eb 27		 jmp	 SHORT $LN8@DemodQAM
$LN9@DemodQAM:

; 4767 : 			intCarFreq = 1400 + (intNumCar / 2) * 200; // start at the highest carrier freq which is actually the lowest transmitted carrier due to Reverse sideband mixing

  000d8	a1 00 00 00 00	 mov	 eax, DWORD PTR _intNumCar
  000dd	99		 cdq
  000de	2b c2		 sub	 eax, edx
  000e0	d1 f8		 sar	 eax, 1
  000e2	69 c0 c8 00 00
	00		 imul	 eax, 200		; 000000c8H
  000e8	05 78 05 00 00	 add	 eax, 1400		; 00000578H
  000ed	89 85 18 ff ff
	ff		 mov	 DWORD PTR tv163[ebp], eax
  000f3	db 85 18 ff ff
	ff		 fild	 DWORD PTR tv163[ebp]
  000f9	d9 1d 00 00 00
	00		 fstp	 DWORD PTR _intCarFreq
$LN8@DemodQAM:

; 4768 : 
; 4769 : 	
; 4770 : 		switch (intNumCar)

  000ff	a1 00 00 00 00	 mov	 eax, DWORD PTR _intNumCar
  00104	89 85 18 ff ff
	ff		 mov	 DWORD PTR tv86[ebp], eax
  0010a	83 bd 18 ff ff
	ff 01		 cmp	 DWORD PTR tv86[ebp], 1
  00111	74 0b		 je	 SHORT $LN5@DemodQAM
  00113	83 bd 18 ff ff
	ff 02		 cmp	 DWORD PTR tv86[ebp], 2
  0011a	74 1c		 je	 SHORT $LN4@DemodQAM
  0011c	eb 5f		 jmp	 SHORT $LN6@DemodQAM
$LN5@DemodQAM:

; 4771 : 		{
; 4772 : 		case 1:
; 4773 : 
; 4774 : 			Used = Demod1CarQAMChar(Start, 0);

  0011e	6a 00		 push	 0
  00120	8b 45 ec	 mov	 eax, DWORD PTR _Start$[ebp]
  00123	50		 push	 eax
  00124	e8 00 00 00 00	 call	 _Demod1CarQAMChar
  00129	83 c4 08	 add	 esp, 8
  0012c	c6 85 23 ff ff
	ff 01		 mov	 BYTE PTR $T7925[ebp], 1
  00133	89 45 f8	 mov	 DWORD PTR _Used$[ebp], eax

; 4775 : 			break;

  00136	eb 45		 jmp	 SHORT $LN6@DemodQAM
$LN4@DemodQAM:

; 4776 : 
; 4777 : 		case 2:
; 4778 : 
; 4779 : 			Demod1CarQAMChar(Start, 0);

  00138	6a 00		 push	 0
  0013a	8b 45 ec	 mov	 eax, DWORD PTR _Start$[ebp]
  0013d	50		 push	 eax
  0013e	e8 00 00 00 00	 call	 _Demod1CarQAMChar
  00143	83 c4 08	 add	 esp, 8

; 4780 : 			intPhasesLen -= 4; //intPSKMode;

  00146	a1 00 00 00 00	 mov	 eax, DWORD PTR _intPhasesLen
  0014b	83 e8 04	 sub	 eax, 4
  0014e	a3 00 00 00 00	 mov	 DWORD PTR _intPhasesLen, eax

; 4781 : 			intCarFreq -= 200;  // Step through each carrier Highest to lowest which is equivalent to lowest to highest before RSB mixing. 

  00153	d9 05 00 00 00
	00		 fld	 DWORD PTR _intCarFreq
  00159	dc 25 00 00 00
	00		 fsub	 QWORD PTR __real@4069000000000000
  0015f	d9 1d 00 00 00
	00		 fstp	 DWORD PTR _intCarFreq

; 4782 : 
; 4783 : 			Used = Demod1CarQAMChar(Start, 1);

  00165	6a 01		 push	 1
  00167	8b 45 ec	 mov	 eax, DWORD PTR _Start$[ebp]
  0016a	50		 push	 eax
  0016b	e8 00 00 00 00	 call	 _Demod1CarQAMChar
  00170	83 c4 08	 add	 esp, 8
  00173	c6 85 23 ff ff
	ff 01		 mov	 BYTE PTR $T7925[ebp], 1
  0017a	89 45 f8	 mov	 DWORD PTR _Used$[ebp], eax
$LN6@DemodQAM:

; 4784 : 			break;
; 4785 : /*
; 4786 : 		case 4:
; 4787 : 
; 4788 : 			Demod1CarPSKChar(Start, 0);
; 4789 : 			intPhasesLen -= 4; //intPSKMode;
; 4790 : 			intCarFreq -= 200;  // Step through each carrier Highest to lowest which is equivalent to lowest to highest before RSB mixing. 
; 4791 : 	
; 4792 : 			Demod1CarPSKChar(Start, 1);
; 4793 : 			intPhasesLen -= 4; //intPSKMode;
; 4794 : 			intCarFreq -= 200;  // Step through each carrier Highest to lowest which is equivalent to lowest to highest before RSB mixing. 
; 4795 : 
; 4796 : 			Demod1CarPSKChar(Start, 2);
; 4797 : 			intPhasesLen -= 4; //intPSKMode;
; 4798 : 			intCarFreq -= 200;  // Step through each carrier Highest to lowest which is equivalent to lowest to highest before RSB mixing. 
; 4799 : 
; 4800 : 			Used = Demod1CarPSKChar(Start, 3);
; 4801 : 			break;
; 4802 : 
; 4803 : 		case 8:
; 4804 : 
; 4805 : 			Demod1CarPSKChar(Start, 0);
; 4806 : 			intPhasesLen -= 4; //intPSKMode;
; 4807 : 			intCarFreq -= 200;  // Step through each carrier Highest to lowest which is equivalent to lowest to highest before RSB mixing. 
; 4808 : 
; 4809 : 			Demod1CarPSKChar(Start, 1);
; 4810 : 			intPhasesLen -= 4; //intPSKMode;
; 4811 : 			intCarFreq -= 200;  // Step through each carrier Highest to lowest which is equivalent to lowest to highest before RSB mixing. 
; 4812 : 
; 4813 : 			Demod1CarPSKChar(Start, 2);
; 4814 : 			intPhasesLen -= 4; //intPSKMode;
; 4815 : 			intCarFreq -= 200;  // Step through each carrier Highest to lowest which is equivalent to lowest to highest before RSB mixing. 
; 4816 : 
; 4817 : 			Demod1CarPSKChar(Start, 3);
; 4818 : 			intPhasesLen -= 4; //intPSKMode;
; 4819 : 			intCarFreq -= 200;  // Step through each carrier Highest to lowest which is equivalent to lowest to highest before RSB mixing. 
; 4820 : 
; 4821 : 			Demod1CarPSKChar(Start, 4);
; 4822 : 			intPhasesLen -= 4; //intPSKMode;
; 4823 : 			intCarFreq -= 200;  // Step through each carrier Highest to lowest which is equivalent to lowest to highest before RSB mixing. 
; 4824 : 
; 4825 : 			Demod1CarPSKChar(Start, 5);
; 4826 : 			intPhasesLen -= 4; //intPSKMode;
; 4827 : 			intCarFreq -= 200;  // Step through each carrier Highest to lowest which is equivalent to lowest to highest before RSB mixing. 
; 4828 : 
; 4829 : 			Demod1CarPSKChar(Start, 6);
; 4830 : 			intPhasesLen -= 4; //intPSKMode;
; 4831 : 			intCarFreq -= 200;  // Step through each carrier Highest to lowest which is equivalent to lowest to highest before RSB mixing. 
; 4832 : 
; 4833 : 			Used = Demod1CarPSKChar(Start, 7);	
; 4834 : */	
; 4835 : 		}
; 4836 : 
; 4837 : 		//	if we have 4 or 8 Phase samples, decode them 
; 4838 : 		
; 4839 : 		// (or each carrier)
; 4840 : 
; 4841 : 		if (intPhasesLen >= intPSKMode)

  0017d	a1 00 00 00 00	 mov	 eax, DWORD PTR _intPhasesLen
  00182	3b 05 00 00 00
	00		 cmp	 eax, DWORD PTR _intPSKMode
  00188	7c 51		 jl	 SHORT $LN3@DemodQAM

; 4842 : 		{
; 4843 : 	//		CorrectPhaseForTuningOffset(intPhases, intPhasesLen, strMod);
; 4844 : 
; 4845 : 			Decode1CarQAMChar(bytFrameData1, 0);

  0018a	6a 00		 push	 0
  0018c	68 00 00 00 00	 push	 OFFSET _bytFrameData1
  00191	e8 00 00 00 00	 call	 _Decode1CarQAMChar
  00196	83 c4 08	 add	 esp, 8

; 4846 : 
; 4847 : 			if (intNumCar > 1)

  00199	83 3d 00 00 00
	00 01		 cmp	 DWORD PTR _intNumCar, 1
  001a0	7e 0f		 jle	 SHORT $LN2@DemodQAM

; 4848 : 				Decode1CarQAMChar(bytFrameData2, 1);

  001a2	6a 01		 push	 1
  001a4	68 00 00 00 00	 push	 OFFSET _bytFrameData2
  001a9	e8 00 00 00 00	 call	 _Decode1CarQAMChar
  001ae	83 c4 08	 add	 esp, 8
$LN2@DemodQAM:

; 4849 : /*
; 4850 : 			if (intNumCar > 2)
; 4851 : 			{
; 4852 : 				Decode1CarPSKChar(bytFrameData3, 2);
; 4853 : 				Decode1CarPSKChar(bytFrameData4, 3);
; 4854 : 			}
; 4855 : 			if (intNumCar > 4)
; 4856 : 			{
; 4857 : 				Decode1CarPSKChar(bytFrameData5, 4);
; 4858 : 				Decode1CarPSKChar(bytFrameData6, 5);
; 4859 : 				Decode1CarPSKChar(bytFrameData7, 6);
; 4860 : 				Decode1CarPSKChar(bytFrameData8, 7);
; 4861 : 			}
; 4862 : */
; 4863 : 			intPhasesLen -= intPSKMode;

  001b1	a1 00 00 00 00	 mov	 eax, DWORD PTR _intPhasesLen
  001b6	2b 05 00 00 00
	00		 sub	 eax, DWORD PTR _intPSKMode
  001bc	a3 00 00 00 00	 mov	 DWORD PTR _intPhasesLen, eax

; 4864 : 			charIndex += 4;

  001c1	a1 00 00 00 00	 mov	 eax, DWORD PTR _charIndex
  001c6	83 c0 04	 add	 eax, 4
  001c9	a3 00 00 00 00	 mov	 DWORD PTR _charIndex, eax

; 4865 : 			SymbolsLeft-=4;		// number still to decode

  001ce	a1 00 00 00 00	 mov	 eax, DWORD PTR _SymbolsLeft
  001d3	83 e8 04	 sub	 eax, 4
  001d6	a3 00 00 00 00	 mov	 DWORD PTR _SymbolsLeft, eax
$LN3@DemodQAM:

; 4866 : 		}
; 4867 : 
; 4868 : 		Start += Used; //intSampPerSym * 4;	

  001db	80 bd 23 ff ff
	ff 00		 cmp	 BYTE PTR $T7925[ebp], 0
  001e2	75 0d		 jne	 SHORT $LN18@DemodQAM
  001e4	68 00 00 00 00	 push	 OFFSET $LN19@DemodQAM
  001e9	e8 00 00 00 00	 call	 __RTC_UninitUse
  001ee	83 c4 04	 add	 esp, 4
$LN18@DemodQAM:
  001f1	8b 45 ec	 mov	 eax, DWORD PTR _Start$[ebp]
  001f4	03 45 f8	 add	 eax, DWORD PTR _Used$[ebp]
  001f7	89 45 ec	 mov	 DWORD PTR _Start$[ebp], eax

; 4869 : 		intFilteredMixedSamplesLength -= Used; //intSampPerSym * 4;

  001fa	80 bd 23 ff ff
	ff 00		 cmp	 BYTE PTR $T7925[ebp], 0
  00201	75 0d		 jne	 SHORT $LN20@DemodQAM
  00203	68 00 00 00 00	 push	 OFFSET $LN19@DemodQAM
  00208	e8 00 00 00 00	 call	 __RTC_UninitUse
  0020d	83 c4 04	 add	 esp, 4
$LN20@DemodQAM:
  00210	a1 00 00 00 00	 mov	 eax, DWORD PTR _intFilteredMixedSamplesLength
  00215	2b 45 f8	 sub	 eax, DWORD PTR _Used$[ebp]
  00218	a3 00 00 00 00	 mov	 DWORD PTR _intFilteredMixedSamplesLength, eax

; 4870 : 
; 4871 : 		if (SymbolsLeft <= 0)	

  0021d	83 3d 00 00 00
	00 00		 cmp	 DWORD PTR _SymbolsLeft, 0
  00224	7f 14		 jg	 SHORT $LN1@DemodQAM

; 4872 : 		{	
; 4873 : 			// prepare for next
; 4874 : 
; 4875 : 			DiscardOldSamples();

  00226	e8 00 00 00 00	 call	 _DiscardOldSamples

; 4876 : 			ClearAllMixedSamples();

  0022b	e8 00 00 00 00	 call	 _ClearAllMixedSamples

; 4877 : 			State = SearchingForLeader;

  00230	c7 05 00 00 00
	00 00 00 00 00	 mov	 DWORD PTR _State, 0
$LN1@DemodQAM:

; 4878 : 		}
; 4879 : 	}

  0023a	e9 ed fd ff ff	 jmp	 $LN15@DemodQAM
$LN14@DemodQAM:

; 4880 : 	return TRUE;

  0023f	b8 01 00 00 00	 mov	 eax, 1
$LN16@DemodQAM:

; 4881 : }

  00244	5f		 pop	 edi
  00245	5e		 pop	 esi
  00246	5b		 pop	 ebx
  00247	81 c4 e8 00 00
	00		 add	 esp, 232		; 000000e8H
  0024d	3b ec		 cmp	 ebp, esp
  0024f	e8 00 00 00 00	 call	 __RTC_CheckEsp
  00254	8b e5		 mov	 esp, ebp
  00256	5d		 pop	 ebp
  00257	c3		 ret	 0
$LN21@DemodQAM:
$LN19@DemodQAM:
  00258	55		 DB	 85			; 00000055H
  00259	73		 DB	 115			; 00000073H
  0025a	65		 DB	 101			; 00000065H
  0025b	64		 DB	 100			; 00000064H
  0025c	00		 DB	 0
_DemodQAM ENDP
_TEXT	ENDS
EXTRN	_intQAMSymbolCnt:DWORD
; Function compile flags: /Odtp /RTCsu /ZI
;	COMDAT _Demod1CarQAMChar
_TEXT	SEGMENT
tv265 = -284						; size = 4
tv256 = -280						; size = 4
tv337 = -276						; size = 8
tv321 = -268						; size = 4
tv297 = -268						; size = 4
tv278 = -268						; size = 4
tv248 = -268						; size = 4
_origStart$ = -68					; size = 4
_intNumOfSymbols$ = -56					; size = 4
_i$ = -44						; size = 4
_intMiliRadPerSample$ = -32				; size = 4
_dblImag$ = -20						; size = 4
_dblReal$ = -8						; size = 4
_Start$ = 8						; size = 4
_Carrier$ = 12						; size = 4
_Demod1CarQAMChar PROC					; COMDAT

; 4885 : {

  00000	55		 push	 ebp
  00001	8b ec		 mov	 ebp, esp
  00003	81 ec 1c 01 00
	00		 sub	 esp, 284		; 0000011cH
  00009	53		 push	 ebx
  0000a	56		 push	 esi
  0000b	57		 push	 edi
  0000c	8d bd e4 fe ff
	ff		 lea	 edi, DWORD PTR [ebp-284]
  00012	b9 47 00 00 00	 mov	 ecx, 71			; 00000047H
  00017	b8 cc cc cc cc	 mov	 eax, -858993460		; ccccccccH
  0001c	f3 ab		 rep stosd

; 4886 : 	// Converts intSample to an array of differential phase and magnitude values for the Specific Carrier Freq
; 4887 : 	// intPtr should be pointing to the approximate start of the first reference/training symbol (1 of 3) 
; 4888 : 	// intPhase() is an array of phase values (in milliradians range of 0 to 6283) for each symbol 
; 4889 : 	// intMag() is an array of Magnitude values (not used in PSK decoding but for constellation plotting or QAM decoding)
; 4890 : 	// Objective is to use Minimum Phase Error Tracking to maintain optimum pointer position
; 4891 : 
; 4892 : 	//	This is called for one DMA buffer of samples (normally 1200)
; 4893 : 
; 4894 : 	float dblReal, dblImag;
; 4895 : 	int intMiliRadPerSample = intCarFreq * M_PI / 6;

  0001e	d9 05 00 00 00
	00		 fld	 DWORD PTR _intCarFreq
  00024	dc 0d 00 00 00
	00		 fmul	 QWORD PTR __real@400921fb00000000
  0002a	dc 35 00 00 00
	00		 fdiv	 QWORD PTR __real@4018000000000000
  00030	e8 00 00 00 00	 call	 __ftol2_sse
  00035	89 45 e0	 mov	 DWORD PTR _intMiliRadPerSample$[ebp], eax

; 4896 : 	int i;
; 4897 : 	int intNumOfSymbols = 4;

  00038	c7 45 c8 04 00
	00 00		 mov	 DWORD PTR _intNumOfSymbols$[ebp], 4

; 4898 : 	int origStart = Start;;

  0003f	8b 45 08	 mov	 eax, DWORD PTR _Start$[ebp]
  00042	89 45 bc	 mov	 DWORD PTR _origStart$[ebp], eax

; 4899 : 
; 4900 : 	if (CarrierOk[Carrier])		// Already decoded this carrier?

  00045	8b 45 0c	 mov	 eax, DWORD PTR _Carrier$[ebp]
  00048	0f be 88 00 00
	00 00		 movsx	 ecx, BYTE PTR _CarrierOk[eax]
  0004f	85 c9		 test	 ecx, ecx
  00051	74 1b		 je	 SHORT $LN6@Demod1CarQ

; 4901 : 	{
; 4902 : 		intPhasesLen += intNumOfSymbols;

  00053	a1 00 00 00 00	 mov	 eax, DWORD PTR _intPhasesLen
  00058	03 45 c8	 add	 eax, DWORD PTR _intNumOfSymbols$[ebp]
  0005b	a3 00 00 00 00	 mov	 DWORD PTR _intPhasesLen, eax

; 4903 : 		return intSampPerSym * intNumOfSymbols;

  00060	a1 00 00 00 00	 mov	 eax, DWORD PTR _intSampPerSym
  00065	0f af 45 c8	 imul	 eax, DWORD PTR _intNumOfSymbols$[ebp]
  00069	e9 92 02 00 00	 jmp	 $LN7@Demod1CarQ
$LN6@Demod1CarQ:

; 4904 : 	}
; 4905 : 
; 4906 : 	for (i = 0; i <  intNumOfSymbols; i++)

  0006e	c7 45 d4 00 00
	00 00		 mov	 DWORD PTR _i$[ebp], 0
  00075	eb 09		 jmp	 SHORT $LN5@Demod1CarQ
$LN4@Demod1CarQ:
  00077	8b 45 d4	 mov	 eax, DWORD PTR _i$[ebp]
  0007a	83 c0 01	 add	 eax, 1
  0007d	89 45 d4	 mov	 DWORD PTR _i$[ebp], eax
$LN5@Demod1CarQ:
  00080	8b 45 d4	 mov	 eax, DWORD PTR _i$[ebp]
  00083	3b 45 c8	 cmp	 eax, DWORD PTR _intNumOfSymbols$[ebp]
  00086	0f 8d 58 02 00
	00		 jge	 $LN3@Demod1CarQ

; 4907 : 	{
; 4908 : //		GoertzelRealImag(intFilteredMixedSamples, Start + intCP[Carrier], intNforGoertzel[Carrier], dblFreqBin[Carrier], &dblReal, &dblImag);
; 4909 : 		GoertzelRealImagHanning(intFilteredMixedSamples, Start + intCP[Carrier], intNforGoertzel[Carrier], dblFreqBin[Carrier], &dblReal, &dblImag);

  0008c	8d 45 ec	 lea	 eax, DWORD PTR _dblImag$[ebp]
  0008f	50		 push	 eax
  00090	8d 4d f8	 lea	 ecx, DWORD PTR _dblReal$[ebp]
  00093	51		 push	 ecx
  00094	8b 55 0c	 mov	 edx, DWORD PTR _Carrier$[ebp]
  00097	51		 push	 ecx
  00098	d9 04 95 00 00
	00 00		 fld	 DWORD PTR _dblFreqBin[edx*4]
  0009f	d9 1c 24	 fstp	 DWORD PTR [esp]
  000a2	8b 45 0c	 mov	 eax, DWORD PTR _Carrier$[ebp]
  000a5	0f bf 0c 45 00
	00 00 00	 movsx	 ecx, WORD PTR _intNforGoertzel[eax*2]
  000ad	51		 push	 ecx
  000ae	8b 55 0c	 mov	 edx, DWORD PTR _Carrier$[ebp]
  000b1	0f bf 04 55 00
	00 00 00	 movsx	 eax, WORD PTR _intCP[edx*2]
  000b9	03 45 08	 add	 eax, DWORD PTR _Start$[ebp]
  000bc	50		 push	 eax
  000bd	68 00 00 00 00	 push	 OFFSET _intFilteredMixedSamples
  000c2	e8 00 00 00 00	 call	 _GoertzelRealImagHanning
  000c7	83 c4 18	 add	 esp, 24			; 00000018H

; 4910 : 		intMags[Carrier][intPhasesLen] = sqrtf(powf(dblReal, 2) + powf(dblImag, 2));

  000ca	83 ec 08	 sub	 esp, 8
  000cd	dd 05 00 00 00
	00		 fld	 QWORD PTR __real@4000000000000000
  000d3	dd 1c 24	 fstp	 QWORD PTR [esp]
  000d6	d9 45 f8	 fld	 DWORD PTR _dblReal$[ebp]
  000d9	83 ec 08	 sub	 esp, 8
  000dc	dd 1c 24	 fstp	 QWORD PTR [esp]
  000df	e8 00 00 00 00	 call	 _pow
  000e4	83 c4 10	 add	 esp, 16			; 00000010H
  000e7	d9 9d f4 fe ff
	ff		 fstp	 DWORD PTR tv248[ebp]
  000ed	d9 85 f4 fe ff
	ff		 fld	 DWORD PTR tv248[ebp]
  000f3	83 ec 08	 sub	 esp, 8
  000f6	dd 05 00 00 00
	00		 fld	 QWORD PTR __real@4000000000000000
  000fc	dd 1c 24	 fstp	 QWORD PTR [esp]
  000ff	d9 45 ec	 fld	 DWORD PTR _dblImag$[ebp]
  00102	83 ec 08	 sub	 esp, 8
  00105	dd 1c 24	 fstp	 QWORD PTR [esp]
  00108	dd 9d ec fe ff
	ff		 fstp	 QWORD PTR tv337[ebp]
  0010e	e8 00 00 00 00	 call	 _pow
  00113	83 c4 10	 add	 esp, 16			; 00000010H
  00116	d9 9d e8 fe ff
	ff		 fstp	 DWORD PTR tv256[ebp]
  0011c	d9 85 e8 fe ff
	ff		 fld	 DWORD PTR tv256[ebp]
  00122	dc 85 ec fe ff
	ff		 fadd	 QWORD PTR tv337[ebp]
  00128	83 ec 08	 sub	 esp, 8
  0012b	dd 1c 24	 fstp	 QWORD PTR [esp]
  0012e	e8 00 00 00 00	 call	 _sqrt
  00133	83 c4 08	 add	 esp, 8
  00136	d9 9d e4 fe ff
	ff		 fstp	 DWORD PTR tv265[ebp]
  0013c	d9 85 e4 fe ff
	ff		 fld	 DWORD PTR tv265[ebp]
  00142	8b 75 0c	 mov	 esi, DWORD PTR _Carrier$[ebp]
  00145	69 f6 18 05 00
	00		 imul	 esi, 1304		; 00000518H
  0014b	e8 00 00 00 00	 call	 __ftol2_sse
  00150	8b 0d 00 00 00
	00		 mov	 ecx, DWORD PTR _intPhasesLen
  00156	66 89 84 4e 00
	00 00 00	 mov	 WORD PTR _intMags[esi+ecx*2], ax

; 4911 : 		intPSKPhase_0[Carrier] = 1000 * atan2f(dblImag, dblReal);

  0015e	d9 45 f8	 fld	 DWORD PTR _dblReal$[ebp]
  00161	83 ec 08	 sub	 esp, 8
  00164	dd 1c 24	 fstp	 QWORD PTR [esp]
  00167	d9 45 ec	 fld	 DWORD PTR _dblImag$[ebp]
  0016a	83 ec 08	 sub	 esp, 8
  0016d	dd 1c 24	 fstp	 QWORD PTR [esp]
  00170	e8 00 00 00 00	 call	 _atan2
  00175	83 c4 10	 add	 esp, 16			; 00000010H
  00178	d9 9d f4 fe ff
	ff		 fstp	 DWORD PTR tv278[ebp]
  0017e	d9 85 f4 fe ff
	ff		 fld	 DWORD PTR tv278[ebp]
  00184	dc 0d 00 00 00
	00		 fmul	 QWORD PTR __real@408f400000000000
  0018a	e8 00 00 00 00	 call	 __ftol2_sse
  0018f	8b 4d 0c	 mov	 ecx, DWORD PTR _Carrier$[ebp]
  00192	66 89 04 4d 00
	00 00 00	 mov	 WORD PTR _intPSKPhase_0[ecx*2], ax

; 4912 : 		intPhases[Carrier][intPhasesLen] = -(ComputeAng1_Ang2(intPSKPhase_0[Carrier], intPSKPhase_1[Carrier]));

  0019a	8b 45 0c	 mov	 eax, DWORD PTR _Carrier$[ebp]
  0019d	0f bf 0c 45 00
	00 00 00	 movsx	 ecx, WORD PTR _intPSKPhase_1[eax*2]
  001a5	51		 push	 ecx
  001a6	8b 55 0c	 mov	 edx, DWORD PTR _Carrier$[ebp]
  001a9	0f bf 04 55 00
	00 00 00	 movsx	 eax, WORD PTR _intPSKPhase_0[edx*2]
  001b1	50		 push	 eax
  001b2	e8 00 00 00 00	 call	 _ComputeAng1_Ang2
  001b7	83 c4 08	 add	 esp, 8
  001ba	f7 d8		 neg	 eax
  001bc	8b 4d 0c	 mov	 ecx, DWORD PTR _Carrier$[ebp]
  001bf	69 c9 18 05 00
	00		 imul	 ecx, 1304		; 00000518H
  001c5	8b 15 00 00 00
	00		 mov	 edx, DWORD PTR _intPhasesLen
  001cb	66 89 84 51 00
	00 00 00	 mov	 WORD PTR _intPhases[ecx+edx*2], ax

; 4913 : 
; 4914 : 		Corrections = Track1CarPSK(intCarFreq, strMod, atan2f(dblImag, dblReal), FALSE);

  001d3	6a 00		 push	 0
  001d5	d9 45 f8	 fld	 DWORD PTR _dblReal$[ebp]
  001d8	83 ec 08	 sub	 esp, 8
  001db	dd 1c 24	 fstp	 QWORD PTR [esp]
  001de	d9 45 ec	 fld	 DWORD PTR _dblImag$[ebp]
  001e1	83 ec 08	 sub	 esp, 8
  001e4	dd 1c 24	 fstp	 QWORD PTR [esp]
  001e7	e8 00 00 00 00	 call	 _atan2
  001ec	83 c4 10	 add	 esp, 16			; 00000010H
  001ef	d9 9d f4 fe ff
	ff		 fstp	 DWORD PTR tv297[ebp]
  001f5	d9 85 f4 fe ff
	ff		 fld	 DWORD PTR tv297[ebp]
  001fb	51		 push	 ecx
  001fc	d9 1c 24	 fstp	 DWORD PTR [esp]
  001ff	68 00 00 00 00	 push	 OFFSET _strMod
  00204	d9 05 00 00 00
	00		 fld	 DWORD PTR _intCarFreq
  0020a	e8 00 00 00 00	 call	 __ftol2_sse
  0020f	50		 push	 eax
  00210	e8 00 00 00 00	 call	 _Track1CarPSK
  00215	83 c4 10	 add	 esp, 16			; 00000010H
  00218	a3 00 00 00 00	 mov	 DWORD PTR _Corrections, eax

; 4915 : 
; 4916 : 		if (Corrections != 0)

  0021d	83 3d 00 00 00
	00 00		 cmp	 DWORD PTR _Corrections, 0
  00224	0f 84 86 00 00
	00		 je	 $LN2@Demod1CarQ

; 4917 : 		{
; 4918 : 			Start += Corrections;

  0022a	8b 45 08	 mov	 eax, DWORD PTR _Start$[ebp]
  0022d	03 05 00 00 00
	00		 add	 eax, DWORD PTR _Corrections
  00233	89 45 08	 mov	 DWORD PTR _Start$[ebp], eax

; 4919 : 
; 4920 : 			GoertzelRealImagHanning(intFilteredMixedSamples, Start + intCP[Carrier], intNforGoertzel[Carrier], dblFreqBin[Carrier], &dblReal, &dblImag);

  00236	8d 45 ec	 lea	 eax, DWORD PTR _dblImag$[ebp]
  00239	50		 push	 eax
  0023a	8d 4d f8	 lea	 ecx, DWORD PTR _dblReal$[ebp]
  0023d	51		 push	 ecx
  0023e	8b 55 0c	 mov	 edx, DWORD PTR _Carrier$[ebp]
  00241	51		 push	 ecx
  00242	d9 04 95 00 00
	00 00		 fld	 DWORD PTR _dblFreqBin[edx*4]
  00249	d9 1c 24	 fstp	 DWORD PTR [esp]
  0024c	8b 45 0c	 mov	 eax, DWORD PTR _Carrier$[ebp]
  0024f	0f bf 0c 45 00
	00 00 00	 movsx	 ecx, WORD PTR _intNforGoertzel[eax*2]
  00257	51		 push	 ecx
  00258	8b 55 0c	 mov	 edx, DWORD PTR _Carrier$[ebp]
  0025b	0f bf 04 55 00
	00 00 00	 movsx	 eax, WORD PTR _intCP[edx*2]
  00263	03 45 08	 add	 eax, DWORD PTR _Start$[ebp]
  00266	50		 push	 eax
  00267	68 00 00 00 00	 push	 OFFSET _intFilteredMixedSamples
  0026c	e8 00 00 00 00	 call	 _GoertzelRealImagHanning
  00271	83 c4 18	 add	 esp, 24			; 00000018H

; 4921 : 			intPSKPhase_0[Carrier] = 1000 * atan2f(dblImag, dblReal);

  00274	d9 45 f8	 fld	 DWORD PTR _dblReal$[ebp]
  00277	83 ec 08	 sub	 esp, 8
  0027a	dd 1c 24	 fstp	 QWORD PTR [esp]
  0027d	d9 45 ec	 fld	 DWORD PTR _dblImag$[ebp]
  00280	83 ec 08	 sub	 esp, 8
  00283	dd 1c 24	 fstp	 QWORD PTR [esp]
  00286	e8 00 00 00 00	 call	 _atan2
  0028b	83 c4 10	 add	 esp, 16			; 00000010H
  0028e	d9 9d f4 fe ff
	ff		 fstp	 DWORD PTR tv321[ebp]
  00294	d9 85 f4 fe ff
	ff		 fld	 DWORD PTR tv321[ebp]
  0029a	dc 0d 00 00 00
	00		 fmul	 QWORD PTR __real@408f400000000000
  002a0	e8 00 00 00 00	 call	 __ftol2_sse
  002a5	8b 4d 0c	 mov	 ecx, DWORD PTR _Carrier$[ebp]
  002a8	66 89 04 4d 00
	00 00 00	 mov	 WORD PTR _intPSKPhase_0[ecx*2], ax
$LN2@Demod1CarQ:

; 4922 : 		}
; 4923 : 		intPSKPhase_1[Carrier] = intPSKPhase_0[Carrier];

  002b0	8b 45 0c	 mov	 eax, DWORD PTR _Carrier$[ebp]
  002b3	8b 4d 0c	 mov	 ecx, DWORD PTR _Carrier$[ebp]
  002b6	66 8b 14 4d 00
	00 00 00	 mov	 dx, WORD PTR _intPSKPhase_0[ecx*2]
  002be	66 89 14 45 00
	00 00 00	 mov	 WORD PTR _intPSKPhase_1[eax*2], dx

; 4924 : 		intPhasesLen++;

  002c6	a1 00 00 00 00	 mov	 eax, DWORD PTR _intPhasesLen
  002cb	83 c0 01	 add	 eax, 1
  002ce	a3 00 00 00 00	 mov	 DWORD PTR _intPhasesLen, eax

; 4925 : 		Start += intSampPerSym;

  002d3	8b 45 08	 mov	 eax, DWORD PTR _Start$[ebp]
  002d6	03 05 00 00 00
	00		 add	 eax, DWORD PTR _intSampPerSym
  002dc	89 45 08	 mov	 DWORD PTR _Start$[ebp], eax

; 4926 : 	}

  002df	e9 93 fd ff ff	 jmp	 $LN4@Demod1CarQ
$LN3@Demod1CarQ:

; 4927 :        
; 4928 : 	if (AccumulateStats)

  002e4	83 3d 00 00 00
	00 00		 cmp	 DWORD PTR _AccumulateStats, 0
  002eb	74 0d		 je	 SHORT $LN1@Demod1CarQ

; 4929 : 		intQAMSymbolCnt += intNumOfSymbols;

  002ed	a1 00 00 00 00	 mov	 eax, DWORD PTR _intQAMSymbolCnt
  002f2	03 45 c8	 add	 eax, DWORD PTR _intNumOfSymbols$[ebp]
  002f5	a3 00 00 00 00	 mov	 DWORD PTR _intQAMSymbolCnt, eax
$LN1@Demod1CarQ:

; 4930 : 
; 4931 : 	return (Start - origStart);	// Symbols we've consumed

  002fa	8b 45 08	 mov	 eax, DWORD PTR _Start$[ebp]
  002fd	2b 45 bc	 sub	 eax, DWORD PTR _origStart$[ebp]
$LN7@Demod1CarQ:

; 4932 : }

  00300	52		 push	 edx
  00301	8b cd		 mov	 ecx, ebp
  00303	50		 push	 eax
  00304	8d 15 00 00 00
	00		 lea	 edx, DWORD PTR $LN12@Demod1CarQ
  0030a	e8 00 00 00 00	 call	 @_RTC_CheckStackVars@8
  0030f	58		 pop	 eax
  00310	5a		 pop	 edx
  00311	5f		 pop	 edi
  00312	5e		 pop	 esi
  00313	5b		 pop	 ebx
  00314	81 c4 1c 01 00
	00		 add	 esp, 284		; 0000011cH
  0031a	3b ec		 cmp	 ebp, esp
  0031c	e8 00 00 00 00	 call	 __RTC_CheckEsp
  00321	8b e5		 mov	 esp, ebp
  00323	5d		 pop	 ebp
  00324	c3		 ret	 0
  00325	8d 49 00	 npad	 3
$LN12@Demod1CarQ:
  00328	02 00 00 00	 DD	 2
  0032c	00 00 00 00	 DD	 $LN11@Demod1CarQ
$LN11@Demod1CarQ:
  00330	f8 ff ff ff	 DD	 -8			; fffffff8H
  00334	04 00 00 00	 DD	 4
  00338	00 00 00 00	 DD	 $LN9@Demod1CarQ
  0033c	ec ff ff ff	 DD	 -20			; ffffffecH
  00340	04 00 00 00	 DD	 4
  00344	00 00 00 00	 DD	 $LN10@Demod1CarQ
$LN10@Demod1CarQ:
  00348	64		 DB	 100			; 00000064H
  00349	62		 DB	 98			; 00000062H
  0034a	6c		 DB	 108			; 0000006cH
  0034b	49		 DB	 73			; 00000049H
  0034c	6d		 DB	 109			; 0000006dH
  0034d	61		 DB	 97			; 00000061H
  0034e	67		 DB	 103			; 00000067H
  0034f	00		 DB	 0
$LN9@Demod1CarQ:
  00350	64		 DB	 100			; 00000064H
  00351	62		 DB	 98			; 00000062H
  00352	6c		 DB	 108			; 0000006cH
  00353	52		 DB	 82			; 00000052H
  00354	65		 DB	 101			; 00000065H
  00355	61		 DB	 97			; 00000061H
  00356	6c		 DB	 108			; 0000006cH
  00357	00		 DB	 0
_Demod1CarQAMChar ENDP
_TEXT	ENDS
PUBLIC	_Decode1Car4FSKFromTones
; Function compile flags: /Odtp /RTCsu /ZI
;	COMDAT _Decode1Car4FSKFromTones
_TEXT	SEGMENT
_bytData$ = 8						; size = 4
_intToneMags$ = 12					; size = 4
_Decode1Car4FSKFromTones PROC				; COMDAT

; 4937 : {

  00000	55		 push	 ebp
  00001	8b ec		 mov	 ebp, esp
  00003	81 ec d8 00 00
	00		 sub	 esp, 216		; 000000d8H
  00009	53		 push	 ebx
  0000a	56		 push	 esi
  0000b	57		 push	 edi
  0000c	8d bd 28 ff ff
	ff		 lea	 edi, DWORD PTR [ebp-216]
  00012	b9 36 00 00 00	 mov	 ecx, 54			; 00000036H
  00017	b8 cc cc cc cc	 mov	 eax, -858993460		; ccccccccH
  0001c	f3 ab		 rep stosd

; 4938 : 	//	Decodes intToneMags() to an array of bytes   
; 4939 :     //	Updates bytData() with decoded 
; 4940 : 
; 4941 : 
; 4942 : 	UCHAR bytSym;
; 4943 : 	int intIndex;
; 4944 : /*
; 4945 :         ReDim bytData(intToneMags.Length \ 16 - 1)
; 4946 : 
; 4947 :         For i As Integer = 0 To bytData.Length - 1 ' For each data byte
; 4948 :             intIndex = 16 * i
; 4949 :             For j As Integer = 0 To 3 ' for each 4FSK symbol (2 bits) in a byte
; 4950 :                 If intToneMags(intIndex) > intToneMags(intIndex + 1) And intToneMags(intIndex) > intToneMags(intIndex + 2) And intToneMags(intIndex) > intToneMags(intIndex + 3) Then
; 4951 :                     bytSym = 0
; 4952 :                 ElseIf intToneMags(intIndex + 1) > intToneMags(intIndex) And intToneMags(intIndex + 1) > intToneMags(intIndex + 2) And intToneMags(intIndex + 1) > intToneMags(intIndex + 3) Then
; 4953 :                     bytSym = 1
; 4954 :                 ElseIf intToneMags(intIndex + 2) > intToneMags(intIndex) And intToneMags(intIndex + 2) > intToneMags(intIndex + 1) And intToneMags(intIndex + 2) > intToneMags(intIndex + 3) Then
; 4955 :                     bytSym = 2
; 4956 :                 Else
; 4957 :                     bytSym = 3
; 4958 :                 End If
; 4959 :                 bytData(i) = (bytData(i) << 2) + bytSym
; 4960 :                 intIndex += 4
; 4961 :             Next j
; 4962 :         Next i
; 4963 :         Return True
; 4964 :     End Function  '  Decode1Car4FSKFromTones
; 4965 : */
; 4966 : 	return TRUE;

  0001e	b8 01 00 00 00	 mov	 eax, 1

; 4967 : }

  00023	5f		 pop	 edi
  00024	5e		 pop	 esi
  00025	5b		 pop	 ebx
  00026	8b e5		 mov	 esp, ebp
  00028	5d		 pop	 ebp
  00029	c3		 ret	 0
_Decode1Car4FSKFromTones ENDP
_TEXT	ENDS
END
