; Listing generated by Microsoft (R) Optimizing Compiler Version 14.00.50727.42 

	TITLE	c:\SkyDrive\Dev\Source\ARDOPC\SoundInput.c
	.686P
	.XMM
	include listing.inc
	.model	flat

INCLUDELIB LIBCMTD
INCLUDELIB OLDNAMES

PUBLIC	_blnLeaderFound
PUBLIC	_intLeaderRcvdMs
PUBLIC	_intPriorMixedSamplesLength
PUBLIC	_rawSamplesLength
PUBLIC	_intFilteredMixedSamplesLength
PUBLIC	_intCenterFreq
PUBLIC	_DataRate
PUBLIC	_strType
PUBLIC	_strMod
PUBLIC	_intToneMags
PUBLIC	_goodCarriers
PUBLIC	_intPhases
PUBLIC	_intMags
PUBLIC	_bytFrameData
PUBLIC	_charIndex
PUBLIC	_DummyCarrier
PUBLIC	_Decode600Buffer
PUBLIC	_PSKInitDone
PUBLIC	_dblOffsetLastGoodDecode
PUBLIC	_dttLastGoodFrameTypeDecode
PUBLIC	_dblOffsetHz
PUBLIC	_dbl2Pi
PUBLIC	_dblNCOFreq
PUBLIC	_dblNCOPhase
PUBLIC	_dblNCOPhaseInc
PUBLIC	_intMFSReadPtr
PUBLIC	_RcvdSamplesLen
PUBLIC	_xdblZin_1
PUBLIC	_xdblZin_2
PUBLIC	_xdblZComb
PUBLIC	_xdblZout_0
PUBLIC	_xdblZout_1
PUBLIC	_xdblZout_2
PUBLIC	_xdblCoef
PUBLIC	_xdblR
PUBLIC	_xintN
PUBLIC	_HanWinLen
PUBLIC	_HamWinLen
PUBLIC	_dblPriorFineOffset
PUBLIC	_Corrections
PUBLIC	_pskStart
PUBLIC	_intCarMagThreshold
_DATA	SEGMENT
COMM	_dttStartRmtLeaderMeasure:DWORD
COMM	_LastDataFrameType:DWORD
COMM	_bytFrameData2:BYTE:0100H
COMM	_bytFrameData3:BYTE:0100H
COMM	_intToneMagsIndex:DWORD:04H
COMM	_intFrameType:DWORD
COMM	_dblHamAng:DWORD
COMM	_dblPhaseInc:QWORD
COMM	_bytFrameData6:BYTE:0100H
COMM	_totalRSErrors:DWORD
COMM	_intFilteredMixedSamples:WORD:01388H
COMM	_intCP:WORD:08H
COMM	_CarrierOk:BYTE:08H
COMM	_dttLastLeaderDetect:DWORD
COMM	_bytData:BYTE:04f8H
COMM	_dblHamWin:DWORD:04b0H
COMM	_intPSKPhase_0:WORD:08H
COMM	_intBaud:DWORD
COMM	_bytFrameData1:BYTE:02f8H
COMM	_blnFrameSyncFound:DWORD
COMM	_intPhasesLen:DWORD
COMM	_intNumCar:DWORD
COMM	_strDecodeCapture:BYTE:0400H
COMM	_intToneMagsAvg:DWORD:0530H
COMM	_intPSKPhase_1:WORD:08H
COMM	_intSampleLen:DWORD
COMM	_intPSKMode:DWORD
COMM	_bytFrameData4:BYTE:0100H
COMM	_intSumCounts:DWORD:08H
COMM	_frameLen:DWORD
COMM	_intDataLen:DWORD
COMM	_intSampPerSym:DWORD
COMM	_dblHanWin:DWORD:078H
COMM	_intDataBytesPerCar:DWORD
COMM	_rawSamples:WORD:0960H
COMM	_blnOdd:DWORD
COMM	_bytFrameData5:BYTE:0100H
COMM	_dblFreqBin:DWORD:08H
COMM	_GotBitSyncTicks:DWORD
COMM	_intDataPtr:DWORD
COMM	_intCarFreq:DWORD
COMM	_intToneMagsLength:DWORD
COMM	_bytMinQualThresh:BYTE
COMM	_bytFrameData7:BYTE:0100H
COMM	_intCarPhaseAvg:WORD:01460H
COMM	_SymbolsLeft:DWORD
COMM	_bytFrameData8:BYTE:0100H
COMM	_intCarMagAvg:WORD:01460H
COMM	_strRcvFrameTag:BYTE:020H
COMM	_intNforGoertzel:WORD:08H
COMM	_dblHanAng:DWORD
COMM	_dblSNdBPwr:DWORD
COMM	_blnSymbolSyncFound:DWORD
COMM	_dttLastGoodFrameTypeDecod:DWORD
COMM	_intARQRTmeasuredMs:DWORD
COMM	_intPriorMixedSamples:WORD:078H
COMM	_intRSLen:DWORD
_DATA	ENDS
_BSS	SEGMENT
_blnLeaderFound DD 01H DUP (?)
_rawSamplesLength DD 01H DUP (?)
_intFilteredMixedSamplesLength DD 01H DUP (?)
_DataRate DD	01H DUP (?)
_strType DB	012H DUP (?)
	ALIGN	4

_strMod	DB	010H DUP (?)
_intToneMags DD	04000H DUP (?)
_goodCarriers DB 01H DUP (?)
	ALIGN	4

_intPhases DW	01460H DUP (?)
_intMags DW	01460H DUP (?)
_charIndex DD	01H DUP (?)
_DummyCarrier DD 01H DUP (?)
_PSKInitDone DD	01H DUP (?)
_dblOffsetLastGoodDecode DD 01H DUP (?)
_dttLastGoodFrameTypeDecode DD 01H DUP (?)
_dblOffsetHz DD	01H DUP (?)
_dblNCOPhase DD	01H DUP (?)
_RcvdSamplesLen DD 01H DUP (?)
_xdblZin_1 DD	01H DUP (?)
_xdblZin_2 DD	01H DUP (?)
_xdblZComb DD	01H DUP (?)
_xdblZout_0 DD	01bH DUP (?)
_xdblZout_1 DD	01bH DUP (?)
_xdblZout_2 DD	01bH DUP (?)
_xdblCoef DD	01bH DUP (?)
?dblCoef@?1??Filter150Hz@@9@9 DD 011H DUP (?)		; `Filter150Hz'::`2'::dblCoef
?dblCoef@?1??Filter75Hz@@9@9 DD 03H DUP (?)		; `Filter75Hz'::`2'::dblCoef
_HanWinLen DD	01H DUP (?)
_HamWinLen DD	01H DUP (?)
_Corrections DD	01H DUP (?)
_pskStart DD	01H DUP (?)
?dblTrackingPhase@?1??Track1CarPSK@@9@9 DD 01H DUP (?)	; `Track1CarPSK'::`2'::dblTrackingPhase
_intCarMagThreshold DW 08H DUP (?)
_BSS	ENDS
_DATA	SEGMENT
_intLeaderRcvdMs DD 03e8H
_intPriorMixedSamplesLength DD 078H
_intCenterFreq DD 05dcH
_bytFrameData DD FLAT:_bytFrameData1
	DD	FLAT:_bytFrameData2
	DD	FLAT:_bytFrameData3
	DD	FLAT:_bytFrameData4
	DD	FLAT:_bytFrameData5
	DD	FLAT:_bytFrameData6
	DD	FLAT:_bytFrameData7
	DD	FLAT:_bytFrameData8
_Decode600Buffer DD FLAT:_bytFrameData1
_dbl2Pi	DD	040c90fd8r			; 6.28318
_dblNCOFreq DD	0453b8000r			; 3000
_dblNCOPhaseInc DD 03fc90fd8r			; 1.5708
_intMFSReadPtr DD 01eH
_xdblR	DD	03f7fdf3br			; 0.9995
_xintN	DD	078H
?dblR@?1??Filter150Hz@@9@9 DD 03f7fdf3br	; 0.9995 ; `Filter150Hz'::`2'::dblR
?intN@?1??Filter150Hz@@9@9 DD 078H			; `Filter150Hz'::`2'::intN
?dblR@?1??Filter75Hz@@9@9 DD 03f7fdf3br		; 0.9995 ; `Filter75Hz'::`2'::dblR
?intN@?1??Filter75Hz@@9@9 DD 0f0H			; `Filter75Hz'::`2'::intN
_dblPriorFineOffset DD 0447a0000r		; 1000
_DATA	ENDS
PUBLIC	_IsValidFrameType
EXTRN	_isValidFrame:BYTE
EXTRN	__RTC_Shutdown:PROC
EXTRN	__RTC_InitBase:PROC
;	COMDAT rtc$TMZ
; File c:\skydrive\dev\source\ardopc\soundinput.c
rtc$TMZ	SEGMENT
__RTC_Shutdown.rtc$TMZ DD FLAT:__RTC_Shutdown
rtc$TMZ	ENDS
;	COMDAT rtc$IMZ
rtc$IMZ	SEGMENT
__RTC_InitBase.rtc$IMZ DD FLAT:__RTC_InitBase
; Function compile flags: /Odtp /RTCsu /ZI /ZX
rtc$IMZ	ENDS
;	COMDAT _IsValidFrameType
_TEXT	SEGMENT
_bytType$ = 8						; size = 1
_IsValidFrameType PROC					; COMDAT

; 341  : {

  00000	55		 push	 ebp
  00001	8b ec		 mov	 ebp, esp
  00003	81 ec c0 00 00
	00		 sub	 esp, 192		; 000000c0H
  00009	53		 push	 ebx
  0000a	56		 push	 esi
  0000b	57		 push	 edi
  0000c	8d bd 40 ff ff
	ff		 lea	 edi, DWORD PTR [ebp-192]
  00012	b9 30 00 00 00	 mov	 ecx, 48			; 00000030H
  00017	b8 cc cc cc cc	 mov	 eax, -858993460		; ccccccccH
  0001c	f3 ab		 rep stosd

; 342  : 	//  used in the minimum distance decoder (update if frames added or removed)
; 343  : 
; 344  : 	return (isValidFrame[bytType]);

  0001e	0f b6 45 08	 movzx	 eax, BYTE PTR _bytType$[ebp]
  00022	0f b6 80 00 00
	00 00		 movzx	 eax, BYTE PTR _isValidFrame[eax]

; 345  : /*
; 346  : 	if (bytType >= 0 && bytType <= 0x1F)  return TRUE;
; 347  :     if (bytType == 0x23 || bytType == 0x26 || bytType == 0x29 || bytType == 0x2C || bytType == 0x2D || bytType == 0x2E) return TRUE;
; 348  : 
; 349  : 	if (bytType >= 0x30 && bytType <= 0x3c)  return TRUE;
; 350  : 	if (bytType >= 0x30 && bytType <= 0x3c)  return TRUE;
; 351  : 	if (bytType >= 0x40 && bytType <= 0x4f)  return TRUE;
; 352  : 	if (bytType >= 0x50 && bytType <= 0x5b)  return TRUE;
; 353  : 	if (bytType >= 0x60 && bytType <= 0x69)  return TRUE;
; 354  : 	if (bytType >= 0x70 && bytType <= 0x7d)  return TRUE;
; 355  : 	if (bytType >= 0xe0 && bytType <= 0xff)  return TRUE;
; 356  : 	if (bytType == 0xd0)  return TRUE;
; 357  : 
; 358  : 	return FALSE;
; 359  : */
; 360  : }

  00029	5f		 pop	 edi
  0002a	5e		 pop	 esi
  0002b	5b		 pop	 ebx
  0002c	8b e5		 mov	 esp, ebp
  0002e	5d		 pop	 ebp
  0002f	c3		 ret	 0
_IsValidFrameType ENDP
_TEXT	ENDS
PUBLIC	_IsShortControlFrame
; Function compile flags: /Odtp /RTCsu /ZI /ZX
;	COMDAT _IsShortControlFrame
_TEXT	SEGMENT
_bytType$ = 8						; size = 1
_IsShortControlFrame PROC				; COMDAT

; 365  : {

  00000	55		 push	 ebp
  00001	8b ec		 mov	 ebp, esp
  00003	81 ec c0 00 00
	00		 sub	 esp, 192		; 000000c0H
  00009	53		 push	 ebx
  0000a	56		 push	 esi
  0000b	57		 push	 edi
  0000c	8d bd 40 ff ff
	ff		 lea	 edi, DWORD PTR [ebp-192]
  00012	b9 30 00 00 00	 mov	 ecx, 48			; 00000030H
  00017	b8 cc cc cc cc	 mov	 eax, -858993460		; ccccccccH
  0001c	f3 ab		 rep stosd

; 366  : 	if (bytType <= 0x1F) return TRUE;  // NAK

  0001e	0f b6 45 08	 movzx	 eax, BYTE PTR _bytType$[ebp]
  00022	83 f8 1f	 cmp	 eax, 31			; 0000001fH
  00025	7f 07		 jg	 SHORT $LN4@IsShortCon
  00027	b8 01 00 00 00	 mov	 eax, 1
  0002c	eb 51		 jmp	 SHORT $LN5@IsShortCon
$LN4@IsShortCon:

; 367  : 	if (bytType == 0x23 || bytType == 0x24 || bytType == 0x29 || bytType == 0x2C || bytType == 0x2D || bytType == 0x2E) return TRUE; // BREAK, IDLE, DISC, END, ConRejBusy, ConRejBW

  0002e	0f b6 45 08	 movzx	 eax, BYTE PTR _bytType$[ebp]
  00032	83 f8 23	 cmp	 eax, 35			; 00000023H
  00035	74 2d		 je	 SHORT $LN2@IsShortCon
  00037	0f b6 45 08	 movzx	 eax, BYTE PTR _bytType$[ebp]
  0003b	83 f8 24	 cmp	 eax, 36			; 00000024H
  0003e	74 24		 je	 SHORT $LN2@IsShortCon
  00040	0f b6 45 08	 movzx	 eax, BYTE PTR _bytType$[ebp]
  00044	83 f8 29	 cmp	 eax, 41			; 00000029H
  00047	74 1b		 je	 SHORT $LN2@IsShortCon
  00049	0f b6 45 08	 movzx	 eax, BYTE PTR _bytType$[ebp]
  0004d	83 f8 2c	 cmp	 eax, 44			; 0000002cH
  00050	74 12		 je	 SHORT $LN2@IsShortCon
  00052	0f b6 45 08	 movzx	 eax, BYTE PTR _bytType$[ebp]
  00056	83 f8 2d	 cmp	 eax, 45			; 0000002dH
  00059	74 09		 je	 SHORT $LN2@IsShortCon
  0005b	0f b6 45 08	 movzx	 eax, BYTE PTR _bytType$[ebp]
  0005f	83 f8 2e	 cmp	 eax, 46			; 0000002eH
  00062	75 07		 jne	 SHORT $LN3@IsShortCon
$LN2@IsShortCon:
  00064	b8 01 00 00 00	 mov	 eax, 1
  00069	eb 14		 jmp	 SHORT $LN5@IsShortCon
$LN3@IsShortCon:

; 368  : 	if (bytType >= 0xE0) return TRUE;  // ACK

  0006b	0f b6 45 08	 movzx	 eax, BYTE PTR _bytType$[ebp]
  0006f	3d e0 00 00 00	 cmp	 eax, 224		; 000000e0H
  00074	7c 07		 jl	 SHORT $LN1@IsShortCon
  00076	b8 01 00 00 00	 mov	 eax, 1
  0007b	eb 02		 jmp	 SHORT $LN5@IsShortCon
$LN1@IsShortCon:

; 369  : 	return FALSE;

  0007d	33 c0		 xor	 eax, eax
$LN5@IsShortCon:

; 370  : }

  0007f	5f		 pop	 edi
  00080	5e		 pop	 esi
  00081	5b		 pop	 ebx
  00082	8b e5		 mov	 esp, ebp
  00084	5d		 pop	 ebp
  00085	c3		 ret	 0
_IsShortControlFrame ENDP
_TEXT	ENDS
PUBLIC	??_C@_02EFIMBOMN@?4O?$AA@			; `string'
PUBLIC	??_C@_02LPGDPGEH@?4E?$AA@			; `string'
PUBLIC	_IsDataFrame
EXTRN	_strstr:PROC
EXTRN	_Name:PROC
EXTRN	__RTC_CheckEsp:PROC
;	COMDAT ??_C@_02EFIMBOMN@?4O?$AA@
CONST	SEGMENT
??_C@_02EFIMBOMN@?4O?$AA@ DB '.O', 00H			; `string'
CONST	ENDS
;	COMDAT ??_C@_02LPGDPGEH@?4E?$AA@
CONST	SEGMENT
??_C@_02LPGDPGEH@?4E?$AA@ DB '.E', 00H			; `string'
; Function compile flags: /Odtp /RTCsu /ZI /ZX
CONST	ENDS
;	COMDAT _IsDataFrame
_TEXT	SEGMENT
_String$ = -8						; size = 4
_intFrameType$ = 8					; size = 1
_IsDataFrame PROC					; COMDAT

; 375  : {

  00000	55		 push	 ebp
  00001	8b ec		 mov	 ebp, esp
  00003	81 ec cc 00 00
	00		 sub	 esp, 204		; 000000ccH
  00009	53		 push	 ebx
  0000a	56		 push	 esi
  0000b	57		 push	 edi
  0000c	8d bd 34 ff ff
	ff		 lea	 edi, DWORD PTR [ebp-204]
  00012	b9 33 00 00 00	 mov	 ecx, 51			; 00000033H
  00017	b8 cc cc cc cc	 mov	 eax, -858993460		; ccccccccH
  0001c	f3 ab		 rep stosd

; 376  : 	const char * String = Name(intFrameType);

  0001e	8a 45 08	 mov	 al, BYTE PTR _intFrameType$[ebp]
  00021	50		 push	 eax
  00022	e8 00 00 00 00	 call	 _Name
  00027	83 c4 04	 add	 esp, 4
  0002a	89 45 f8	 mov	 DWORD PTR _String$[ebp], eax

; 377  : 
; 378  : 	if (String == NULL || String[0] == 0)

  0002d	83 7d f8 00	 cmp	 DWORD PTR _String$[ebp], 0
  00031	74 0a		 je	 SHORT $LN3@IsDataFram
  00033	8b 45 f8	 mov	 eax, DWORD PTR _String$[ebp]
  00036	0f be 08	 movsx	 ecx, BYTE PTR [eax]
  00039	85 c9		 test	 ecx, ecx
  0003b	75 04		 jne	 SHORT $LN4@IsDataFram
$LN3@IsDataFram:

; 379  : 		return FALSE;

  0003d	33 c0		 xor	 eax, eax
  0003f	eb 33		 jmp	 SHORT $LN5@IsDataFram
$LN4@IsDataFram:

; 380  : 
; 381  : 	if (strstr(String, ".E") || strstr(String, ".O"))

  00041	68 00 00 00 00	 push	 OFFSET ??_C@_02LPGDPGEH@?4E?$AA@
  00046	8b 45 f8	 mov	 eax, DWORD PTR _String$[ebp]
  00049	50		 push	 eax
  0004a	e8 00 00 00 00	 call	 _strstr
  0004f	83 c4 08	 add	 esp, 8
  00052	85 c0		 test	 eax, eax
  00054	75 15		 jne	 SHORT $LN1@IsDataFram
  00056	68 00 00 00 00	 push	 OFFSET ??_C@_02EFIMBOMN@?4O?$AA@
  0005b	8b 45 f8	 mov	 eax, DWORD PTR _String$[ebp]
  0005e	50		 push	 eax
  0005f	e8 00 00 00 00	 call	 _strstr
  00064	83 c4 08	 add	 esp, 8
  00067	85 c0		 test	 eax, eax
  00069	74 07		 je	 SHORT $LN2@IsDataFram
$LN1@IsDataFram:

; 382  : 		return TRUE;

  0006b	b8 01 00 00 00	 mov	 eax, 1
  00070	eb 02		 jmp	 SHORT $LN5@IsDataFram
$LN2@IsDataFram:

; 383  : 
; 384  : 	return FALSE;

  00072	33 c0		 xor	 eax, eax
$LN5@IsDataFram:

; 385  : }

  00074	5f		 pop	 edi
  00075	5e		 pop	 esi
  00076	5b		 pop	 ebx
  00077	81 c4 cc 00 00
	00		 add	 esp, 204		; 000000ccH
  0007d	3b ec		 cmp	 ebp, esp
  0007f	e8 00 00 00 00	 call	 __RTC_CheckEsp
  00084	8b e5		 mov	 esp, ebp
  00086	5d		 pop	 ebp
  00087	c3		 ret	 0
_IsDataFrame ENDP
_TEXT	ENDS
PUBLIC	_ClearAllMixedSamples
; Function compile flags: /Odtp /RTCsu /ZI /ZX
;	COMDAT _ClearAllMixedSamples
_TEXT	SEGMENT
_ClearAllMixedSamples PROC				; COMDAT

; 390  : {

  00000	55		 push	 ebp
  00001	8b ec		 mov	 ebp, esp
  00003	81 ec c0 00 00
	00		 sub	 esp, 192		; 000000c0H
  00009	53		 push	 ebx
  0000a	56		 push	 esi
  0000b	57		 push	 edi
  0000c	8d bd 40 ff ff
	ff		 lea	 edi, DWORD PTR [ebp-192]
  00012	b9 30 00 00 00	 mov	 ecx, 48			; 00000030H
  00017	b8 cc cc cc cc	 mov	 eax, -858993460		; ccccccccH
  0001c	f3 ab		 rep stosd

; 391  : 	intFilteredMixedSamplesLength = 0;

  0001e	c7 05 00 00 00
	00 00 00 00 00	 mov	 DWORD PTR _intFilteredMixedSamplesLength, 0

; 392  : 	intMFSReadPtr = 0;

  00028	c7 05 00 00 00
	00 00 00 00 00	 mov	 DWORD PTR _intMFSReadPtr, 0

; 393  : 	rawSamplesLength = 0;	// Clear saved

  00032	c7 05 00 00 00
	00 00 00 00 00	 mov	 DWORD PTR _rawSamplesLength, 0

; 394  : }

  0003c	5f		 pop	 edi
  0003d	5e		 pop	 esi
  0003e	5b		 pop	 ebx
  0003f	8b e5		 mov	 esp, ebp
  00041	5d		 pop	 ebp
  00042	c3		 ret	 0
_ClearAllMixedSamples ENDP
_TEXT	ENDS
PUBLIC	_InitializeMixedSamples
EXTRN	_dttStartRTMeasure:DWORD
EXTRN	_getTicks:PROC
; Function compile flags: /Odtp /RTCsu /ZI /ZX
;	COMDAT _InitializeMixedSamples
_TEXT	SEGMENT
tv69 = -196						; size = 4
_InitializeMixedSamples PROC				; COMDAT

; 399  : {

  00000	55		 push	 ebp
  00001	8b ec		 mov	 ebp, esp
  00003	81 ec c4 00 00
	00		 sub	 esp, 196		; 000000c4H
  00009	53		 push	 ebx
  0000a	56		 push	 esi
  0000b	57		 push	 edi
  0000c	8d bd 3c ff ff
	ff		 lea	 edi, DWORD PTR [ebp-196]
  00012	b9 31 00 00 00	 mov	 ecx, 49			; 00000031H
  00017	b8 cc cc cc cc	 mov	 eax, -858993460		; ccccccccH
  0001c	f3 ab		 rep stosd

; 400  : 	// Measure the time from release of PTT to leader detection of reply.
; 401  : 
; 402  : 	intARQRTmeasuredMs = min(10000, Now - dttStartRTMeasure); //?????? needs work

  0001e	e8 00 00 00 00	 call	 _getTicks
  00023	2b 05 00 00 00
	00		 sub	 eax, DWORD PTR _dttStartRTMeasure
  00029	3d 10 27 00 00	 cmp	 eax, 10000		; 00002710H
  0002e	76 0c		 jbe	 SHORT $LN3@Initialize
  00030	c7 85 3c ff ff
	ff 10 27 00 00	 mov	 DWORD PTR tv69[ebp], 10000 ; 00002710H
  0003a	eb 11		 jmp	 SHORT $LN4@Initialize
$LN3@Initialize:
  0003c	e8 00 00 00 00	 call	 _getTicks
  00041	2b 05 00 00 00
	00		 sub	 eax, DWORD PTR _dttStartRTMeasure
  00047	89 85 3c ff ff
	ff		 mov	 DWORD PTR tv69[ebp], eax
$LN4@Initialize:
  0004d	8b 85 3c ff ff
	ff		 mov	 eax, DWORD PTR tv69[ebp]
  00053	a3 00 00 00 00	 mov	 DWORD PTR _intARQRTmeasuredMs, eax

; 403  : 	intPriorMixedSamplesLength = 120;  // zero out prior samples in Prior sample buffer

  00058	c7 05 00 00 00
	00 78 00 00 00	 mov	 DWORD PTR _intPriorMixedSamplesLength, 120 ; 00000078H

; 404  : 	intFilteredMixedSamplesLength = 0;	// zero out the FilteredMixedSamples array

  00062	c7 05 00 00 00
	00 00 00 00 00	 mov	 DWORD PTR _intFilteredMixedSamplesLength, 0

; 405  : 	intMFSReadPtr = 30;				// reset the MFSReadPtr offset 30 to accomodate the filter delay

  0006c	c7 05 00 00 00
	00 1e 00 00 00	 mov	 DWORD PTR _intMFSReadPtr, 30 ; 0000001eH

; 406  : }

  00076	5f		 pop	 edi
  00077	5e		 pop	 esi
  00078	5b		 pop	 ebx
  00079	81 c4 c4 00 00
	00		 add	 esp, 196		; 000000c4H
  0007f	3b ec		 cmp	 ebp, esp
  00081	e8 00 00 00 00	 call	 __RTC_CheckEsp
  00086	8b e5		 mov	 esp, ebp
  00088	5d		 pop	 ebp
  00089	c3		 ret	 0
_InitializeMixedSamples ENDP
_TEXT	ENDS
PUBLIC	_DiscardOldSamples
; Function compile flags: /Odtp /RTCsu /ZI /ZX
;	COMDAT _DiscardOldSamples
_TEXT	SEGMENT
_DiscardOldSamples PROC					; COMDAT

; 411  : {

  00000	55		 push	 ebp
  00001	8b ec		 mov	 ebp, esp
  00003	81 ec c0 00 00
	00		 sub	 esp, 192		; 000000c0H
  00009	53		 push	 ebx
  0000a	56		 push	 esi
  0000b	57		 push	 edi
  0000c	8d bd 40 ff ff
	ff		 lea	 edi, DWORD PTR [ebp-192]
  00012	b9 30 00 00 00	 mov	 ecx, 48			; 00000030H
  00017	b8 cc cc cc cc	 mov	 eax, -858993460		; ccccccccH
  0001c	f3 ab		 rep stosd

; 412  : 	// This restructures the intRcvdSamples array discarding all samples prior to intRcvdSamplesRPtr
; 413  :  
; 414  : 	//not sure why we need this !!
; 415  : /*
; 416  : 	if (RcvdSamplesLen - intRcvdSamplesRPtr <= 0)
; 417  : 		RcvdSamplesLen = intRcvdSamplesRPtr = 0;
; 418  : 	else
; 419  : 	{
; 420  : 		// This is rather slow. I'd prefer a cyclic buffer. Lets see....
; 421  : 		
; 422  : 		memmove(intRcvdSamples, &intRcvdSamples[intRcvdSamplesRPtr], (RcvdSamplesLen - intRcvdSamplesRPtr)* 2);
; 423  : 		RcvdSamplesLen -= intRcvdSamplesRPtr;
; 424  : 		intRcvdSamplesRPtr = 0;
; 425  : 	}
; 426  : */
; 427  : }

  0001e	5f		 pop	 edi
  0001f	5e		 pop	 esi
  00020	5b		 pop	 ebx
  00021	8b e5		 mov	 esp, ebp
  00023	5d		 pop	 ebp
  00024	c3		 ret	 0
_DiscardOldSamples ENDP
_TEXT	ENDS
PUBLIC	__real@3f81111120000000
PUBLIC	__real@3fd8e56040000000
PUBLIC	__real@401921fb00000000
PUBLIC	__real@0000000000000000
PUBLIC	__real@4000000000000000
PUBLIC	??_C@_0CG@FPICEEGC@Corrupt?5intFilteredMixedSamplesL@ ; `string'
PUBLIC	__real@00000000
PUBLIC	_FSMixFilter2000Hz
EXTRN	_memmove:PROC
EXTRN	_cos:PROC
EXTRN	_pow:PROC
EXTRN	_WriteDebugLog:PROC
EXTRN	__fltused:DWORD
EXTRN	__ftol2_sse:PROC
;	COMDAT __real@3f81111120000000
CONST	SEGMENT
__real@3f81111120000000 DQ 03f81111120000000r	; 0.00833333
CONST	ENDS
;	COMDAT __real@3fd8e56040000000
CONST	SEGMENT
__real@3fd8e56040000000 DQ 03fd8e56040000000r	; 0.389
CONST	ENDS
;	COMDAT __real@401921fb00000000
CONST	SEGMENT
__real@401921fb00000000 DQ 0401921fb00000000r	; 6.28318
CONST	ENDS
;	COMDAT __real@0000000000000000
CONST	SEGMENT
__real@0000000000000000 DQ 00000000000000000r	; 0
CONST	ENDS
;	COMDAT __real@4000000000000000
CONST	SEGMENT
__real@4000000000000000 DQ 04000000000000000r	; 2
CONST	ENDS
;	COMDAT ??_C@_0CG@FPICEEGC@Corrupt?5intFilteredMixedSamplesL@
CONST	SEGMENT
??_C@_0CG@FPICEEGC@Corrupt?5intFilteredMixedSamplesL@ DB 'Corrupt intFilt'
	DB	'eredMixedSamplesLength', 00H		; `string'
CONST	ENDS
;	COMDAT __real@00000000
CONST	SEGMENT
__real@00000000 DD 000000000r			; 0
; Function compile flags: /Odtp /RTCsu /ZI /ZX
CONST	ENDS
;	COMDAT _FSMixFilter2000Hz
_TEXT	SEGMENT
tv272 = -276						; size = 4
tv332 = -272						; size = 8
tv294 = -272						; size = 4
tv285 = -272						; size = 4
tv291 = -268						; size = 4
tv283 = -268						; size = 4
tv257 = -268						; size = 4
tv249 = -268						; size = 4
_intFilteredSample$ = -68				; size = 4
_j$ = -56						; size = 4
_i$ = -44						; size = 4
_dblZin$ = -32						; size = 4
_dblR2$ = -20						; size = 4
_dblRn$ = -8						; size = 4
_intMixedSamples$ = 8					; size = 4
_intMixedSamplesLength$ = 12				; size = 4
_FSMixFilter2000Hz PROC					; COMDAT

; 444  : {

  00000	55		 push	 ebp
  00001	8b ec		 mov	 ebp, esp
  00003	81 ec 14 01 00
	00		 sub	 esp, 276		; 00000114H
  00009	53		 push	 ebx
  0000a	56		 push	 esi
  0000b	57		 push	 edi
  0000c	8d bd ec fe ff
	ff		 lea	 edi, DWORD PTR [ebp-276]
  00012	b9 45 00 00 00	 mov	 ecx, 69			; 00000045H
  00017	b8 cc cc cc cc	 mov	 eax, -858993460		; ccccccccH
  0001c	f3 ab		 rep stosd

; 445  : 	// assumes sample rate of 12000
; 446  : 	// implements  23 100 Hz wide sections   (~2000 Hz wide @ - 30dB centered on 1500 Hz)
; 447  : 
; 448  : 	// FSF (Frequency Selective Filter) variables
; 449  : 
; 450  : 	// This works on intMixedSamples, len intMixedSamplesLength;
; 451  : 
; 452  : 	// Filtered data is appended to intFilteredMixedSamples
; 453  : 
; 454  : 	float dblRn;
; 455  : 	float dblR2;
; 456  : 
; 457  : 	float dblZin = 0;

  0001e	d9 ee		 fldz
  00020	d9 5d e0	 fstp	 DWORD PTR _dblZin$[ebp]

; 458  :       
; 459  : 	int i, j;
; 460  : 
; 461  : 	float intFilteredSample = 0;			//  Filtered sample

  00023	d9 ee		 fldz
  00025	d9 5d bc	 fstp	 DWORD PTR _intFilteredSample$[ebp]

; 462  : 
; 463  : 	if (intFilteredMixedSamplesLength < 0)

  00028	83 3d 00 00 00
	00 00		 cmp	 DWORD PTR _intFilteredMixedSamplesLength, 0
  0002f	7d 0f		 jge	 SHORT $LN19@FSMixFilte

; 464  : 		WriteDebugLog(LOGERROR, "Corrupt intFilteredMixedSamplesLength");

  00031	68 00 00 00 00	 push	 OFFSET ??_C@_0CG@FPICEEGC@Corrupt?5intFilteredMixedSamplesL@
  00036	6a 03		 push	 3
  00038	e8 00 00 00 00	 call	 _WriteDebugLog
  0003d	83 c4 08	 add	 esp, 8
$LN19@FSMixFilte:

; 465  : 
; 466  : 	dblRn = powf(xdblR, xintN);

  00040	db 05 00 00 00
	00		 fild	 DWORD PTR _xintN
  00046	83 ec 08	 sub	 esp, 8
  00049	dd 1c 24	 fstp	 QWORD PTR [esp]
  0004c	d9 05 00 00 00
	00		 fld	 DWORD PTR _xdblR
  00052	83 ec 08	 sub	 esp, 8
  00055	dd 1c 24	 fstp	 QWORD PTR [esp]
  00058	e8 00 00 00 00	 call	 _pow
  0005d	83 c4 10	 add	 esp, 16			; 00000010H
  00060	d9 9d f4 fe ff
	ff		 fstp	 DWORD PTR tv249[ebp]
  00066	d9 85 f4 fe ff
	ff		 fld	 DWORD PTR tv249[ebp]
  0006c	d9 5d f8	 fstp	 DWORD PTR _dblRn$[ebp]

; 467  : 
; 468  : 	dblR2 = powf(xdblR, 2);

  0006f	83 ec 08	 sub	 esp, 8
  00072	dd 05 00 00 00
	00		 fld	 QWORD PTR __real@4000000000000000
  00078	dd 1c 24	 fstp	 QWORD PTR [esp]
  0007b	d9 05 00 00 00
	00		 fld	 DWORD PTR _xdblR
  00081	83 ec 08	 sub	 esp, 8
  00084	dd 1c 24	 fstp	 QWORD PTR [esp]
  00087	e8 00 00 00 00	 call	 _pow
  0008c	83 c4 10	 add	 esp, 16			; 00000010H
  0008f	d9 9d f4 fe ff
	ff		 fstp	 DWORD PTR tv257[ebp]
  00095	d9 85 f4 fe ff
	ff		 fld	 DWORD PTR tv257[ebp]
  0009b	d9 5d ec	 fstp	 DWORD PTR _dblR2$[ebp]

; 469  : 
; 470  : 	// Initialize the coefficients
; 471  :     
; 472  : 	if (xdblCoef[26] == 0)

  0009e	d9 05 68 00 00
	00		 fld	 DWORD PTR _xdblCoef+104
  000a4	dc 1d 00 00 00
	00		 fcomp	 QWORD PTR __real@0000000000000000
  000aa	df e0		 fnstsw	 ax
  000ac	f6 c4 44	 test	 ah, 68			; 00000044H
  000af	7a 65		 jp	 SHORT $LN15@FSMixFilte

; 473  : 	{
; 474  : 		for (i = 4; i <= 26; i++)

  000b1	c7 45 d4 04 00
	00 00		 mov	 DWORD PTR _i$[ebp], 4
  000b8	eb 09		 jmp	 SHORT $LN17@FSMixFilte
$LN16@FSMixFilte:
  000ba	8b 45 d4	 mov	 eax, DWORD PTR _i$[ebp]
  000bd	83 c0 01	 add	 eax, 1
  000c0	89 45 d4	 mov	 DWORD PTR _i$[ebp], eax
$LN17@FSMixFilte:
  000c3	83 7d d4 1a	 cmp	 DWORD PTR _i$[ebp], 26	; 0000001aH
  000c7	7f 4d		 jg	 SHORT $LN15@FSMixFilte

; 475  : 		{
; 476  : 			xdblCoef[i] = 2 * xdblR * cosf(2 * M_PI * i / xintN);  // For Frequency = bin i

  000c9	d9 05 00 00 00
	00		 fld	 DWORD PTR _xdblR
  000cf	dc 0d 00 00 00
	00		 fmul	 QWORD PTR __real@4000000000000000
  000d5	db 45 d4	 fild	 DWORD PTR _i$[ebp]
  000d8	dc 0d 00 00 00
	00		 fmul	 QWORD PTR __real@401921fb00000000
  000de	da 35 00 00 00
	00		 fidiv	 DWORD PTR _xintN
  000e4	83 ec 08	 sub	 esp, 8
  000e7	dd 1c 24	 fstp	 QWORD PTR [esp]
  000ea	dd 9d f0 fe ff
	ff		 fstp	 QWORD PTR tv332[ebp]
  000f0	e8 00 00 00 00	 call	 _cos
  000f5	83 c4 08	 add	 esp, 8
  000f8	d9 9d ec fe ff
	ff		 fstp	 DWORD PTR tv272[ebp]
  000fe	d9 85 ec fe ff
	ff		 fld	 DWORD PTR tv272[ebp]
  00104	dc 8d f0 fe ff
	ff		 fmul	 QWORD PTR tv332[ebp]
  0010a	8b 45 d4	 mov	 eax, DWORD PTR _i$[ebp]
  0010d	d9 1c 85 00 00
	00 00		 fstp	 DWORD PTR _xdblCoef[eax*4]

; 477  : 		}

  00114	eb a4		 jmp	 SHORT $LN16@FSMixFilte
$LN15@FSMixFilte:

; 478  : 	}
; 479  : 
; 480  : 	for (i = 0; i < intMixedSamplesLength; i++)

  00116	c7 45 d4 00 00
	00 00		 mov	 DWORD PTR _i$[ebp], 0
  0011d	eb 09		 jmp	 SHORT $LN14@FSMixFilte
$LN13@FSMixFilte:
  0011f	8b 45 d4	 mov	 eax, DWORD PTR _i$[ebp]
  00122	83 c0 01	 add	 eax, 1
  00125	89 45 d4	 mov	 DWORD PTR _i$[ebp], eax
$LN14@FSMixFilte:
  00128	8b 45 d4	 mov	 eax, DWORD PTR _i$[ebp]
  0012b	3b 45 0c	 cmp	 eax, DWORD PTR _intMixedSamplesLength$[ebp]
  0012e	0f 8d a8 01 00
	00		 jge	 $LN12@FSMixFilte

; 481  : 	{
; 482  : 		intFilteredSample = 0;

  00134	d9 ee		 fldz
  00136	d9 5d bc	 fstp	 DWORD PTR _intFilteredSample$[ebp]

; 483  : 
; 484  : 		if (i < xintN)

  00139	8b 45 d4	 mov	 eax, DWORD PTR _i$[ebp]
  0013c	3b 05 00 00 00
	00		 cmp	 eax, DWORD PTR _xintN
  00142	7d 37		 jge	 SHORT $LN11@FSMixFilte

; 485  : 			dblZin = intMixedSamples[i] - dblRn * intPriorMixedSamples[i];

  00144	8b 45 d4	 mov	 eax, DWORD PTR _i$[ebp]
  00147	8b 4d 08	 mov	 ecx, DWORD PTR _intMixedSamples$[ebp]
  0014a	0f bf 14 41	 movsx	 edx, WORD PTR [ecx+eax*2]
  0014e	89 95 f4 fe ff
	ff		 mov	 DWORD PTR tv283[ebp], edx
  00154	db 85 f4 fe ff
	ff		 fild	 DWORD PTR tv283[ebp]
  0015a	8b 45 d4	 mov	 eax, DWORD PTR _i$[ebp]
  0015d	0f bf 0c 45 00
	00 00 00	 movsx	 ecx, WORD PTR _intPriorMixedSamples[eax*2]
  00165	89 8d f0 fe ff
	ff		 mov	 DWORD PTR tv285[ebp], ecx
  0016b	db 85 f0 fe ff
	ff		 fild	 DWORD PTR tv285[ebp]
  00171	d8 4d f8	 fmul	 DWORD PTR _dblRn$[ebp]
  00174	de e9		 fsubp	 ST(1), ST(0)
  00176	d9 5d e0	 fstp	 DWORD PTR _dblZin$[ebp]

; 486  : 		else 

  00179	eb 3a		 jmp	 SHORT $LN10@FSMixFilte
$LN11@FSMixFilte:

; 487  : 			dblZin = intMixedSamples[i] - dblRn * intMixedSamples[i - xintN];

  0017b	8b 45 d4	 mov	 eax, DWORD PTR _i$[ebp]
  0017e	8b 4d 08	 mov	 ecx, DWORD PTR _intMixedSamples$[ebp]
  00181	0f bf 14 41	 movsx	 edx, WORD PTR [ecx+eax*2]
  00185	89 95 f4 fe ff
	ff		 mov	 DWORD PTR tv291[ebp], edx
  0018b	db 85 f4 fe ff
	ff		 fild	 DWORD PTR tv291[ebp]
  00191	8b 45 d4	 mov	 eax, DWORD PTR _i$[ebp]
  00194	2b 05 00 00 00
	00		 sub	 eax, DWORD PTR _xintN
  0019a	8b 4d 08	 mov	 ecx, DWORD PTR _intMixedSamples$[ebp]
  0019d	0f bf 14 41	 movsx	 edx, WORD PTR [ecx+eax*2]
  001a1	89 95 f0 fe ff
	ff		 mov	 DWORD PTR tv294[ebp], edx
  001a7	db 85 f0 fe ff
	ff		 fild	 DWORD PTR tv294[ebp]
  001ad	d8 4d f8	 fmul	 DWORD PTR _dblRn$[ebp]
  001b0	de e9		 fsubp	 ST(1), ST(0)
  001b2	d9 5d e0	 fstp	 DWORD PTR _dblZin$[ebp]
$LN10@FSMixFilte:

; 488  :  
; 489  : 		//Compute the Comb
; 490  : 
; 491  : 		xdblZComb = dblZin - xdblZin_2 * dblR2;

  001b5	d9 05 00 00 00
	00		 fld	 DWORD PTR _xdblZin_2
  001bb	d8 4d ec	 fmul	 DWORD PTR _dblR2$[ebp]
  001be	d8 6d e0	 fsubr	 DWORD PTR _dblZin$[ebp]
  001c1	d9 1d 00 00 00
	00		 fstp	 DWORD PTR _xdblZComb

; 492  : 		xdblZin_2 = xdblZin_1;

  001c7	d9 05 00 00 00
	00		 fld	 DWORD PTR _xdblZin_1
  001cd	d9 1d 00 00 00
	00		 fstp	 DWORD PTR _xdblZin_2

; 493  : 		xdblZin_1 = dblZin;

  001d3	d9 45 e0	 fld	 DWORD PTR _dblZin$[ebp]
  001d6	d9 1d 00 00 00
	00		 fstp	 DWORD PTR _xdblZin_1

; 494  : 
; 495  : 		// Now the resonators
; 496  : 		for (j = 4; j <= 26; j++)	   // calculate output for 3 resonators 

  001dc	c7 45 c8 04 00
	00 00		 mov	 DWORD PTR _j$[ebp], 4
  001e3	eb 09		 jmp	 SHORT $LN9@FSMixFilte
$LN8@FSMixFilte:
  001e5	8b 45 c8	 mov	 eax, DWORD PTR _j$[ebp]
  001e8	83 c0 01	 add	 eax, 1
  001eb	89 45 c8	 mov	 DWORD PTR _j$[ebp], eax
$LN9@FSMixFilte:
  001ee	83 7d c8 1a	 cmp	 DWORD PTR _j$[ebp], 26	; 0000001aH
  001f2	0f 8f ae 00 00
	00		 jg	 $LN7@FSMixFilte

; 497  : 		{
; 498  : 			xdblZout_0[j] = xdblZComb + xdblCoef[j] * xdblZout_1[j] - dblR2 * xdblZout_2[j];

  001f8	8b 45 c8	 mov	 eax, DWORD PTR _j$[ebp]
  001fb	d9 04 85 00 00
	00 00		 fld	 DWORD PTR _xdblCoef[eax*4]
  00202	8b 4d c8	 mov	 ecx, DWORD PTR _j$[ebp]
  00205	d8 0c 8d 00 00
	00 00		 fmul	 DWORD PTR _xdblZout_1[ecx*4]
  0020c	d8 05 00 00 00
	00		 fadd	 DWORD PTR _xdblZComb
  00212	d9 45 ec	 fld	 DWORD PTR _dblR2$[ebp]
  00215	8b 55 c8	 mov	 edx, DWORD PTR _j$[ebp]
  00218	d8 0c 95 00 00
	00 00		 fmul	 DWORD PTR _xdblZout_2[edx*4]
  0021f	de e9		 fsubp	 ST(1), ST(0)
  00221	8b 45 c8	 mov	 eax, DWORD PTR _j$[ebp]
  00224	d9 1c 85 00 00
	00 00		 fstp	 DWORD PTR _xdblZout_0[eax*4]

; 499  : 			xdblZout_2[j] = xdblZout_1[j];

  0022b	8b 45 c8	 mov	 eax, DWORD PTR _j$[ebp]
  0022e	8b 4d c8	 mov	 ecx, DWORD PTR _j$[ebp]
  00231	d9 04 8d 00 00
	00 00		 fld	 DWORD PTR _xdblZout_1[ecx*4]
  00238	d9 1c 85 00 00
	00 00		 fstp	 DWORD PTR _xdblZout_2[eax*4]

; 500  : 			xdblZout_1[j] = xdblZout_0[j];

  0023f	8b 45 c8	 mov	 eax, DWORD PTR _j$[ebp]
  00242	8b 4d c8	 mov	 ecx, DWORD PTR _j$[ebp]
  00245	d9 04 8d 00 00
	00 00		 fld	 DWORD PTR _xdblZout_0[ecx*4]
  0024c	d9 1c 85 00 00
	00 00		 fstp	 DWORD PTR _xdblZout_1[eax*4]

; 501  : 
; 502  : 			//' scale each by transition coeff and + (Even) or - (Odd) 
; 503  : 			//' Resonators 2 and 13 scaled by .389 get best shape and side lobe supression 
; 504  : 			//' Scaling also accomodates for the filter "gain" of approx 60. 
; 505  :  
; 506  : 			if (j == 4 || j == 26)

  00253	83 7d c8 04	 cmp	 DWORD PTR _j$[ebp], 4
  00257	74 06		 je	 SHORT $LN5@FSMixFilte
  00259	83 7d c8 1a	 cmp	 DWORD PTR _j$[ebp], 26	; 0000001aH
  0025d	75 18		 jne	 SHORT $LN6@FSMixFilte
$LN5@FSMixFilte:

; 507  : 				intFilteredSample += 0.389f * xdblZout_0[j];

  0025f	8b 45 c8	 mov	 eax, DWORD PTR _j$[ebp]
  00262	d9 04 85 00 00
	00 00		 fld	 DWORD PTR _xdblZout_0[eax*4]
  00269	dc 0d 00 00 00
	00		 fmul	 QWORD PTR __real@3fd8e56040000000
  0026f	d8 45 bc	 fadd	 DWORD PTR _intFilteredSample$[ebp]
  00272	d9 5d bc	 fstp	 DWORD PTR _intFilteredSample$[ebp]
  00275	eb 2a		 jmp	 SHORT $LN2@FSMixFilte
$LN6@FSMixFilte:

; 508  : 			else if ((j & 1) == 0)

  00277	8b 45 c8	 mov	 eax, DWORD PTR _j$[ebp]
  0027a	83 e0 01	 and	 eax, 1
  0027d	75 12		 jne	 SHORT $LN3@FSMixFilte

; 509  : 				intFilteredSample += xdblZout_0[j];

  0027f	d9 45 bc	 fld	 DWORD PTR _intFilteredSample$[ebp]
  00282	8b 45 c8	 mov	 eax, DWORD PTR _j$[ebp]
  00285	d8 04 85 00 00
	00 00		 fadd	 DWORD PTR _xdblZout_0[eax*4]
  0028c	d9 5d bc	 fstp	 DWORD PTR _intFilteredSample$[ebp]

; 510  : 			else

  0028f	eb 10		 jmp	 SHORT $LN2@FSMixFilte
$LN3@FSMixFilte:

; 511  : 				intFilteredSample -= xdblZout_0[j];

  00291	d9 45 bc	 fld	 DWORD PTR _intFilteredSample$[ebp]
  00294	8b 45 c8	 mov	 eax, DWORD PTR _j$[ebp]
  00297	d8 24 85 00 00
	00 00		 fsub	 DWORD PTR _xdblZout_0[eax*4]
  0029e	d9 5d bc	 fstp	 DWORD PTR _intFilteredSample$[ebp]
$LN2@FSMixFilte:

; 512  : 		}

  002a1	e9 3f ff ff ff	 jmp	 $LN8@FSMixFilte
$LN7@FSMixFilte:

; 513  : 
; 514  : 		intFilteredSample = intFilteredSample * 0.00833333333f;

  002a6	d9 45 bc	 fld	 DWORD PTR _intFilteredSample$[ebp]
  002a9	dc 0d 00 00 00
	00		 fmul	 QWORD PTR __real@3f81111120000000
  002af	d9 5d bc	 fstp	 DWORD PTR _intFilteredSample$[ebp]

; 515  : 		intFilteredMixedSamples[intFilteredMixedSamplesLength++] = intFilteredSample;  // rescales for gain of filter

  002b2	d9 45 bc	 fld	 DWORD PTR _intFilteredSample$[ebp]
  002b5	e8 00 00 00 00	 call	 __ftol2_sse
  002ba	8b 0d 00 00 00
	00		 mov	 ecx, DWORD PTR _intFilteredMixedSamplesLength
  002c0	66 89 04 4d 00
	00 00 00	 mov	 WORD PTR _intFilteredMixedSamples[ecx*2], ax
  002c8	8b 15 00 00 00
	00		 mov	 edx, DWORD PTR _intFilteredMixedSamplesLength
  002ce	83 c2 01	 add	 edx, 1
  002d1	89 15 00 00 00
	00		 mov	 DWORD PTR _intFilteredMixedSamplesLength, edx

; 516  : 	}

  002d7	e9 43 fe ff ff	 jmp	 $LN13@FSMixFilte
$LN12@FSMixFilte:

; 517  : 	
; 518  : 	// update the prior intPriorMixedSamples array for the next filter call 
; 519  :    
; 520  : 	memmove(intPriorMixedSamples, &intMixedSamples[intMixedSamplesLength - xintN], intPriorMixedSamplesLength * 2);		 

  002dc	a1 00 00 00 00	 mov	 eax, DWORD PTR _intPriorMixedSamplesLength
  002e1	d1 e0		 shl	 eax, 1
  002e3	50		 push	 eax
  002e4	8b 4d 0c	 mov	 ecx, DWORD PTR _intMixedSamplesLength$[ebp]
  002e7	2b 0d 00 00 00
	00		 sub	 ecx, DWORD PTR _xintN
  002ed	8b 55 08	 mov	 edx, DWORD PTR _intMixedSamples$[ebp]
  002f0	8d 04 4a	 lea	 eax, DWORD PTR [edx+ecx*2]
  002f3	50		 push	 eax
  002f4	68 00 00 00 00	 push	 OFFSET _intPriorMixedSamples
  002f9	e8 00 00 00 00	 call	 _memmove
  002fe	83 c4 0c	 add	 esp, 12			; 0000000cH

; 521  : 
; 522  : 	if (intFilteredMixedSamplesLength > 5000)

  00301	81 3d 00 00 00
	00 88 13 00 00	 cmp	 DWORD PTR _intFilteredMixedSamplesLength, 5000 ; 00001388H
  0030b	7e 0f		 jle	 SHORT $LN1@FSMixFilte

; 523  : 		WriteDebugLog(LOGERROR, "Corrupt intFilteredMixedSamplesLength");

  0030d	68 00 00 00 00	 push	 OFFSET ??_C@_0CG@FPICEEGC@Corrupt?5intFilteredMixedSamplesL@
  00312	6a 03		 push	 3
  00314	e8 00 00 00 00	 call	 _WriteDebugLog
  00319	83 c4 08	 add	 esp, 8
$LN1@FSMixFilte:

; 524  : 
; 525  : }

  0031c	5f		 pop	 edi
  0031d	5e		 pop	 esi
  0031e	5b		 pop	 ebx
  0031f	81 c4 14 01 00
	00		 add	 esp, 276		; 00000114H
  00325	3b ec		 cmp	 ebp, esp
  00327	e8 00 00 00 00	 call	 __RTC_CheckEsp
  0032c	8b e5		 mov	 esp, ebp
  0032e	5d		 pop	 ebp
  0032f	c3		 ret	 0
_FSMixFilter2000Hz ENDP
_TEXT	ENDS
PUBLIC	__real@3f81111110f3bf11
PUBLIC	__real@3fc99999a0000000
PUBLIC	_Filter150Hz
EXTRN	_ceil:PROC
EXTRN	@_RTC_CheckStackVars@8:PROC
EXTRN	_memset:PROC
_BSS	SEGMENT
?dblR2@?1??Filter150Hz@@9@9 DD 01H DUP (?)		; `Filter150Hz'::`2'::dblR2
?dblRn@?1??Filter150Hz@@9@9 DD 01H DUP (?)		; `Filter150Hz'::`2'::dblRn
_BSS	ENDS
;	COMDAT __real@3f81111110f3bf11
CONST	SEGMENT
__real@3f81111110f3bf11 DQ 03f81111110f3bf11r	; 0.00833333
CONST	ENDS
;	COMDAT __real@3fc99999a0000000
CONST	SEGMENT
__real@3fc99999a0000000 DQ 03fc99999a0000000r	; 0.2
; Function compile flags: /Odtp /RTCsu /ZI /ZX
CONST	ENDS
;	COMDAT _Filter150Hz
_TEXT	SEGMENT
tv267 = -528						; size = 4
tv315 = -524						; size = 8
tv281 = -524						; size = 4
tv279 = -520						; size = 4
tv275 = -520						; size = 4
tv252 = -520						; size = 4
tv244 = -520						; size = 4
_largest$ = -320					; size = 4
_FilterOut$ = -308					; size = 4
_j$ = -296						; size = 4
_i$ = -284						; size = 4
_dblZout_2$ = -272					; size = 68
_dblZout_1$ = -196					; size = 68
_dblZout_0$ = -120					; size = 68
_dblZComb$ = -44					; size = 4
_dblZin_2$ = -32					; size = 4
_dblZin_1$ = -20					; size = 4
_dblZin$ = -8						; size = 4
_intFilterOut$ = 8					; size = 4
_Filter150Hz PROC					; COMDAT

; 530  : {

  00000	55		 push	 ebp
  00001	8b ec		 mov	 ebp, esp
  00003	81 ec 10 02 00
	00		 sub	 esp, 528		; 00000210H
  00009	53		 push	 ebx
  0000a	56		 push	 esi
  0000b	57		 push	 edi
  0000c	8d bd f0 fd ff
	ff		 lea	 edi, DWORD PTR [ebp-528]
  00012	b9 84 00 00 00	 mov	 ecx, 132		; 00000084H
  00017	b8 cc cc cc cc	 mov	 eax, -858993460		; ccccccccH
  0001c	f3 ab		 rep stosd

; 531  : 	// assumes sample rate of 12000
; 532  : 	// implements  3 100 Hz wide sections   (~150 Hz wide @ - 30dB centered on 1500 Hz)
; 533  : 
; 534  : 	// FSF (Frequency Selective Filter) variables
; 535  : 
; 536  : 	static float dblR = 0.9995f;		// insures stability (must be < 1.0) (Value .9995 7/8/2013 gives good results)
; 537  : 	static int intN = 120;				//Length of filter 12000/100
; 538  : 	static float dblRn;
; 539  : 	static float dblR2;
; 540  : 	static float dblCoef[17] = {0.0};			// the coefficients
; 541  : 	float dblZin = 0, dblZin_1 = 0, dblZin_2 = 0, dblZComb= 0;  // Used in the comb generator

  0001e	d9 ee		 fldz
  00020	d9 5d f8	 fstp	 DWORD PTR _dblZin$[ebp]
  00023	d9 ee		 fldz
  00025	d9 5d ec	 fstp	 DWORD PTR _dblZin_1$[ebp]
  00028	d9 ee		 fldz
  0002a	d9 5d e0	 fstp	 DWORD PTR _dblZin_2$[ebp]
  0002d	d9 ee		 fldz
  0002f	d9 5d d4	 fstp	 DWORD PTR _dblZComb$[ebp]

; 542  : 	// The resonators 
; 543  :       
; 544  : 	float dblZout_0[17] = {0.0};	// resonator outputs

  00032	d9 ee		 fldz
  00034	d9 5d 88	 fstp	 DWORD PTR _dblZout_0$[ebp]
  00037	6a 40		 push	 64			; 00000040H
  00039	6a 00		 push	 0
  0003b	8d 45 8c	 lea	 eax, DWORD PTR _dblZout_0$[ebp+4]
  0003e	50		 push	 eax
  0003f	e8 00 00 00 00	 call	 _memset
  00044	83 c4 0c	 add	 esp, 12			; 0000000cH

; 545  : 	float dblZout_1[17] = {0.0};	// resonator outputs delayed one sample

  00047	d9 ee		 fldz
  00049	d9 9d 3c ff ff
	ff		 fstp	 DWORD PTR _dblZout_1$[ebp]
  0004f	6a 40		 push	 64			; 00000040H
  00051	6a 00		 push	 0
  00053	8d 85 40 ff ff
	ff		 lea	 eax, DWORD PTR _dblZout_1$[ebp+4]
  00059	50		 push	 eax
  0005a	e8 00 00 00 00	 call	 _memset
  0005f	83 c4 0c	 add	 esp, 12			; 0000000cH

; 546  : 	float dblZout_2[17] = {0.0};	// resonator outputs delayed two samples

  00062	d9 ee		 fldz
  00064	d9 9d f0 fe ff
	ff		 fstp	 DWORD PTR _dblZout_2$[ebp]
  0006a	6a 40		 push	 64			; 00000040H
  0006c	6a 00		 push	 0
  0006e	8d 85 f4 fe ff
	ff		 lea	 eax, DWORD PTR _dblZout_2$[ebp+4]
  00074	50		 push	 eax
  00075	e8 00 00 00 00	 call	 _memset
  0007a	83 c4 0c	 add	 esp, 12			; 0000000cH

; 547  : 
; 548  : 	int i, j;
; 549  : 
; 550  : 	float FilterOut = 0;			//  Filtered sample

  0007d	d9 ee		 fldz
  0007f	d9 9d cc fe ff
	ff		 fstp	 DWORD PTR _FilterOut$[ebp]

; 551  : 	float largest = 0;

  00085	d9 ee		 fldz
  00087	d9 9d c0 fe ff
	ff		 fstp	 DWORD PTR _largest$[ebp]

; 552  : 
; 553  : 	dblRn = powf(dblR, intN);

  0008d	db 05 00 00 00
	00		 fild	 DWORD PTR ?intN@?1??Filter150Hz@@9@9
  00093	83 ec 08	 sub	 esp, 8
  00096	dd 1c 24	 fstp	 QWORD PTR [esp]
  00099	d9 05 00 00 00
	00		 fld	 DWORD PTR ?dblR@?1??Filter150Hz@@9@9
  0009f	83 ec 08	 sub	 esp, 8
  000a2	dd 1c 24	 fstp	 QWORD PTR [esp]
  000a5	e8 00 00 00 00	 call	 _pow
  000aa	83 c4 10	 add	 esp, 16			; 00000010H
  000ad	d9 9d f8 fd ff
	ff		 fstp	 DWORD PTR tv244[ebp]
  000b3	d9 85 f8 fd ff
	ff		 fld	 DWORD PTR tv244[ebp]
  000b9	d9 1d 00 00 00
	00		 fstp	 DWORD PTR ?dblRn@?1??Filter150Hz@@9@9

; 554  : 
; 555  : 	dblR2 = powf(dblR, 2);

  000bf	83 ec 08	 sub	 esp, 8
  000c2	dd 05 00 00 00
	00		 fld	 QWORD PTR __real@4000000000000000
  000c8	dd 1c 24	 fstp	 QWORD PTR [esp]
  000cb	d9 05 00 00 00
	00		 fld	 DWORD PTR ?dblR@?1??Filter150Hz@@9@9
  000d1	83 ec 08	 sub	 esp, 8
  000d4	dd 1c 24	 fstp	 QWORD PTR [esp]
  000d7	e8 00 00 00 00	 call	 _pow
  000dc	83 c4 10	 add	 esp, 16			; 00000010H
  000df	d9 9d f8 fd ff
	ff		 fstp	 DWORD PTR tv252[ebp]
  000e5	d9 85 f8 fd ff
	ff		 fld	 DWORD PTR tv252[ebp]
  000eb	d9 1d 00 00 00
	00		 fstp	 DWORD PTR ?dblR2@?1??Filter150Hz@@9@9

; 556  : 
; 557  : 	// Initialize the coefficients
; 558  :     
; 559  : 	if (dblCoef[17] == 0)

  000f1	d9 05 44 00 00
	00		 fld	 DWORD PTR ?dblCoef@?1??Filter150Hz@@9@9+68
  000f7	dc 1d 00 00 00
	00		 fcomp	 QWORD PTR __real@0000000000000000
  000fd	df e0		 fnstsw	 ax
  000ff	f6 c4 44	 test	 ah, 68			; 00000044H
  00102	7a 77		 jp	 SHORT $LN12@Filter150H

; 560  : 	{
; 561  : 		for (i = 14; i <= 16; i++)

  00104	c7 85 e4 fe ff
	ff 0e 00 00 00	 mov	 DWORD PTR _i$[ebp], 14	; 0000000eH
  0010e	eb 0f		 jmp	 SHORT $LN14@Filter150H
$LN13@Filter150H:
  00110	8b 85 e4 fe ff
	ff		 mov	 eax, DWORD PTR _i$[ebp]
  00116	83 c0 01	 add	 eax, 1
  00119	89 85 e4 fe ff
	ff		 mov	 DWORD PTR _i$[ebp], eax
$LN14@Filter150H:
  0011f	83 bd e4 fe ff
	ff 10		 cmp	 DWORD PTR _i$[ebp], 16	; 00000010H
  00126	7f 53		 jg	 SHORT $LN12@Filter150H

; 562  : 		{
; 563  : 			dblCoef[i] = 2 * dblR * cosf(2 * M_PI * i / intN);  // For Frequency = bin i

  00128	d9 05 00 00 00
	00		 fld	 DWORD PTR ?dblR@?1??Filter150Hz@@9@9
  0012e	dc 0d 00 00 00
	00		 fmul	 QWORD PTR __real@4000000000000000
  00134	db 85 e4 fe ff
	ff		 fild	 DWORD PTR _i$[ebp]
  0013a	dc 0d 00 00 00
	00		 fmul	 QWORD PTR __real@401921fb00000000
  00140	da 35 00 00 00
	00		 fidiv	 DWORD PTR ?intN@?1??Filter150Hz@@9@9
  00146	83 ec 08	 sub	 esp, 8
  00149	dd 1c 24	 fstp	 QWORD PTR [esp]
  0014c	dd 9d f4 fd ff
	ff		 fstp	 QWORD PTR tv315[ebp]
  00152	e8 00 00 00 00	 call	 _cos
  00157	83 c4 08	 add	 esp, 8
  0015a	d9 9d f0 fd ff
	ff		 fstp	 DWORD PTR tv267[ebp]
  00160	d9 85 f0 fd ff
	ff		 fld	 DWORD PTR tv267[ebp]
  00166	dc 8d f4 fd ff
	ff		 fmul	 QWORD PTR tv315[ebp]
  0016c	8b 85 e4 fe ff
	ff		 mov	 eax, DWORD PTR _i$[ebp]
  00172	d9 1c 85 00 00
	00 00		 fstp	 DWORD PTR ?dblCoef@?1??Filter150Hz@@9@9[eax*4]

; 564  : 		}

  00179	eb 95		 jmp	 SHORT $LN13@Filter150H
$LN12@Filter150H:

; 565  : 	}
; 566  : 
; 567  : 	for (i = 0; i < 480; i++)

  0017b	c7 85 e4 fe ff
	ff 00 00 00 00	 mov	 DWORD PTR _i$[ebp], 0
  00185	eb 0f		 jmp	 SHORT $LN11@Filter150H
$LN10@Filter150H:
  00187	8b 85 e4 fe ff
	ff		 mov	 eax, DWORD PTR _i$[ebp]
  0018d	83 c0 01	 add	 eax, 1
  00190	89 85 e4 fe ff
	ff		 mov	 DWORD PTR _i$[ebp], eax
$LN11@Filter150H:
  00196	81 bd e4 fe ff
	ff e0 01 00 00	 cmp	 DWORD PTR _i$[ebp], 480	; 000001e0H
  001a0	0f 8d b6 01 00
	00		 jge	 $LN9@Filter150H

; 568  : 	{
; 569  : 		if (i < intN)

  001a6	8b 85 e4 fe ff
	ff		 mov	 eax, DWORD PTR _i$[ebp]
  001ac	3b 05 00 00 00
	00		 cmp	 eax, DWORD PTR ?intN@?1??Filter150Hz@@9@9
  001b2	7d 32		 jge	 SHORT $LN8@Filter150H

; 570  : 			dblZin = intFilteredMixedSamples[intMFSReadPtr + i] - dblRn * 0;	// no prior mixed samples

  001b4	a1 00 00 00 00	 mov	 eax, DWORD PTR _intMFSReadPtr
  001b9	03 85 e4 fe ff
	ff		 add	 eax, DWORD PTR _i$[ebp]
  001bf	0f bf 0c 45 00
	00 00 00	 movsx	 ecx, WORD PTR _intFilteredMixedSamples[eax*2]
  001c7	89 8d f8 fd ff
	ff		 mov	 DWORD PTR tv275[ebp], ecx
  001cd	db 85 f8 fd ff
	ff		 fild	 DWORD PTR tv275[ebp]
  001d3	d9 05 00 00 00
	00		 fld	 DWORD PTR ?dblRn@?1??Filter150Hz@@9@9
  001d9	dc 0d 00 00 00
	00		 fmul	 QWORD PTR __real@0000000000000000
  001df	de e9		 fsubp	 ST(1), ST(0)
  001e1	d9 5d f8	 fstp	 DWORD PTR _dblZin$[ebp]

; 571  : 		else

  001e4	eb 50		 jmp	 SHORT $LN7@Filter150H
$LN8@Filter150H:

; 572  : 			dblZin = intFilteredMixedSamples[intMFSReadPtr + i] - dblRn * intFilteredMixedSamples[intMFSReadPtr + i - intN];

  001e6	a1 00 00 00 00	 mov	 eax, DWORD PTR _intMFSReadPtr
  001eb	03 85 e4 fe ff
	ff		 add	 eax, DWORD PTR _i$[ebp]
  001f1	0f bf 0c 45 00
	00 00 00	 movsx	 ecx, WORD PTR _intFilteredMixedSamples[eax*2]
  001f9	89 8d f8 fd ff
	ff		 mov	 DWORD PTR tv279[ebp], ecx
  001ff	db 85 f8 fd ff
	ff		 fild	 DWORD PTR tv279[ebp]
  00205	8b 15 00 00 00
	00		 mov	 edx, DWORD PTR _intMFSReadPtr
  0020b	03 95 e4 fe ff
	ff		 add	 edx, DWORD PTR _i$[ebp]
  00211	2b 15 00 00 00
	00		 sub	 edx, DWORD PTR ?intN@?1??Filter150Hz@@9@9
  00217	0f bf 04 55 00
	00 00 00	 movsx	 eax, WORD PTR _intFilteredMixedSamples[edx*2]
  0021f	89 85 f4 fd ff
	ff		 mov	 DWORD PTR tv281[ebp], eax
  00225	db 85 f4 fd ff
	ff		 fild	 DWORD PTR tv281[ebp]
  0022b	d8 0d 00 00 00
	00		 fmul	 DWORD PTR ?dblRn@?1??Filter150Hz@@9@9
  00231	de e9		 fsubp	 ST(1), ST(0)
  00233	d9 5d f8	 fstp	 DWORD PTR _dblZin$[ebp]
$LN7@Filter150H:

; 573  : 
; 574  : 		// Compute the Comb
; 575  : 		
; 576  : 		dblZComb = dblZin - dblZin_2 * dblR2;

  00236	d9 45 e0	 fld	 DWORD PTR _dblZin_2$[ebp]
  00239	d8 0d 00 00 00
	00		 fmul	 DWORD PTR ?dblR2@?1??Filter150Hz@@9@9
  0023f	d8 6d f8	 fsubr	 DWORD PTR _dblZin$[ebp]
  00242	d9 5d d4	 fstp	 DWORD PTR _dblZComb$[ebp]

; 577  : 		dblZin_2 = dblZin_1;

  00245	d9 45 ec	 fld	 DWORD PTR _dblZin_1$[ebp]
  00248	d9 5d e0	 fstp	 DWORD PTR _dblZin_2$[ebp]

; 578  : 		dblZin_1 = dblZin;

  0024b	d9 45 f8	 fld	 DWORD PTR _dblZin$[ebp]
  0024e	d9 5d ec	 fstp	 DWORD PTR _dblZin_1$[ebp]

; 579  : 
; 580  : 		// Now the resonators
; 581  : 
; 582  : 		for (j = 14; j <= 16; j++)		   // calculate output for 3 resonators 

  00251	c7 85 d8 fe ff
	ff 0e 00 00 00	 mov	 DWORD PTR _j$[ebp], 14	; 0000000eH
  0025b	eb 0f		 jmp	 SHORT $LN6@Filter150H
$LN5@Filter150H:
  0025d	8b 85 d8 fe ff
	ff		 mov	 eax, DWORD PTR _j$[ebp]
  00263	83 c0 01	 add	 eax, 1
  00266	89 85 d8 fe ff
	ff		 mov	 DWORD PTR _j$[ebp], eax
$LN6@Filter150H:
  0026c	83 bd d8 fe ff
	ff 10		 cmp	 DWORD PTR _j$[ebp], 16	; 00000010H
  00273	0f 8f b2 00 00
	00		 jg	 $LN4@Filter150H

; 583  : 		{
; 584  : 			dblZout_0[j] = dblZComb + dblCoef[j] * dblZout_1[j] - dblR2 * dblZout_2[j];

  00279	8b 85 d8 fe ff
	ff		 mov	 eax, DWORD PTR _j$[ebp]
  0027f	d9 04 85 00 00
	00 00		 fld	 DWORD PTR ?dblCoef@?1??Filter150Hz@@9@9[eax*4]
  00286	8b 8d d8 fe ff
	ff		 mov	 ecx, DWORD PTR _j$[ebp]
  0028c	d8 8c 8d 3c ff
	ff ff		 fmul	 DWORD PTR _dblZout_1$[ebp+ecx*4]
  00293	d8 45 d4	 fadd	 DWORD PTR _dblZComb$[ebp]
  00296	d9 05 00 00 00
	00		 fld	 DWORD PTR ?dblR2@?1??Filter150Hz@@9@9
  0029c	8b 95 d8 fe ff
	ff		 mov	 edx, DWORD PTR _j$[ebp]
  002a2	d8 8c 95 f0 fe
	ff ff		 fmul	 DWORD PTR _dblZout_2$[ebp+edx*4]
  002a9	de e9		 fsubp	 ST(1), ST(0)
  002ab	8b 85 d8 fe ff
	ff		 mov	 eax, DWORD PTR _j$[ebp]
  002b1	d9 5c 85 88	 fstp	 DWORD PTR _dblZout_0$[ebp+eax*4]

; 585  : 			dblZout_2[j] = dblZout_1[j];

  002b5	8b 85 d8 fe ff
	ff		 mov	 eax, DWORD PTR _j$[ebp]
  002bb	8b 8d d8 fe ff
	ff		 mov	 ecx, DWORD PTR _j$[ebp]
  002c1	d9 84 8d 3c ff
	ff ff		 fld	 DWORD PTR _dblZout_1$[ebp+ecx*4]
  002c8	d9 9c 85 f0 fe
	ff ff		 fstp	 DWORD PTR _dblZout_2$[ebp+eax*4]

; 586  : 			dblZout_1[j] = dblZout_0[j];

  002cf	8b 85 d8 fe ff
	ff		 mov	 eax, DWORD PTR _j$[ebp]
  002d5	8b 8d d8 fe ff
	ff		 mov	 ecx, DWORD PTR _j$[ebp]
  002db	d9 44 8d 88	 fld	 DWORD PTR _dblZout_0$[ebp+ecx*4]
  002df	d9 9c 85 3c ff
	ff ff		 fstp	 DWORD PTR _dblZout_1$[ebp+eax*4]

; 587  : 	
; 588  : 			//	scale each by transition coeff and + (Even) or - (Odd) 
; 589  : 
; 590  : 			// Scaling also accomodates for the filter "gain" of approx 120. 
; 591  : 			// These transition coefficients fairly close to optimum for WGN 0db PSK4, 100 baud (yield highest average quality) 5/24/2014
; 592  :  
; 593  : 			if (j == 14 || j == 16)

  002e6	83 bd d8 fe ff
	ff 0e		 cmp	 DWORD PTR _j$[ebp], 14	; 0000000eH
  002ed	74 09		 je	 SHORT $LN2@Filter150H
  002ef	83 bd d8 fe ff
	ff 10		 cmp	 DWORD PTR _j$[ebp], 16	; 00000010H
  002f6	75 18		 jne	 SHORT $LN3@Filter150H
$LN2@Filter150H:

; 594  : 				FilterOut = 0.2f * dblZout_0[j];	 // this transisiton minimizes ringing and peaks

  002f8	8b 85 d8 fe ff
	ff		 mov	 eax, DWORD PTR _j$[ebp]
  002fe	d9 44 85 88	 fld	 DWORD PTR _dblZout_0$[ebp+eax*4]
  00302	dc 0d 00 00 00
	00		 fmul	 QWORD PTR __real@3fc99999a0000000
  00308	d9 9d cc fe ff
	ff		 fstp	 DWORD PTR _FilterOut$[ebp]

; 595  : 			else

  0030e	eb 16		 jmp	 SHORT $LN1@Filter150H
$LN3@Filter150H:

; 596  : 				FilterOut -= dblZout_0[j];

  00310	d9 85 cc fe ff
	ff		 fld	 DWORD PTR _FilterOut$[ebp]
  00316	8b 85 d8 fe ff
	ff		 mov	 eax, DWORD PTR _j$[ebp]
  0031c	d8 64 85 88	 fsub	 DWORD PTR _dblZout_0$[ebp+eax*4]
  00320	d9 9d cc fe ff
	ff		 fstp	 DWORD PTR _FilterOut$[ebp]
$LN1@Filter150H:

; 597  : 		}

  00326	e9 32 ff ff ff	 jmp	 $LN5@Filter150H
$LN4@Filter150H:

; 598  : 		intFilterOut[i] = (int)ceil(FilterOut * 0.00833333333);	 // rescales for gain of filter

  0032b	d9 85 cc fe ff
	ff		 fld	 DWORD PTR _FilterOut$[ebp]
  00331	dc 0d 00 00 00
	00		 fmul	 QWORD PTR __real@3f81111110f3bf11
  00337	83 ec 08	 sub	 esp, 8
  0033a	dd 1c 24	 fstp	 QWORD PTR [esp]
  0033d	e8 00 00 00 00	 call	 _ceil
  00342	83 c4 08	 add	 esp, 8
  00345	e8 00 00 00 00	 call	 __ftol2_sse
  0034a	8b 8d e4 fe ff
	ff		 mov	 ecx, DWORD PTR _i$[ebp]
  00350	8b 55 08	 mov	 edx, DWORD PTR _intFilterOut$[ebp]
  00353	66 89 04 4a	 mov	 WORD PTR [edx+ecx*2], ax

; 599  : 	}

  00357	e9 2b fe ff ff	 jmp	 $LN10@Filter150H
$LN9@Filter150H:

; 600  : 
; 601  : }

  0035c	52		 push	 edx
  0035d	8b cd		 mov	 ecx, ebp
  0035f	50		 push	 eax
  00360	8d 15 00 00 00
	00		 lea	 edx, DWORD PTR $LN22@Filter150H
  00366	e8 00 00 00 00	 call	 @_RTC_CheckStackVars@8
  0036b	58		 pop	 eax
  0036c	5a		 pop	 edx
  0036d	5f		 pop	 edi
  0036e	5e		 pop	 esi
  0036f	5b		 pop	 ebx
  00370	81 c4 10 02 00
	00		 add	 esp, 528		; 00000210H
  00376	3b ec		 cmp	 ebp, esp
  00378	e8 00 00 00 00	 call	 __RTC_CheckEsp
  0037d	8b e5		 mov	 esp, ebp
  0037f	5d		 pop	 ebp
  00380	c3		 ret	 0
  00381	8d 49 00	 npad	 3
$LN22@Filter150H:
  00384	03 00 00 00	 DD	 3
  00388	00 00 00 00	 DD	 $LN21@Filter150H
$LN21@Filter150H:
  0038c	88 ff ff ff	 DD	 -120			; ffffff88H
  00390	44 00 00 00	 DD	 68			; 00000044H
  00394	00 00 00 00	 DD	 $LN18@Filter150H
  00398	f0 fe ff ff	 DD	 -272			; fffffef0H
  0039c	44 00 00 00	 DD	 68			; 00000044H
  003a0	00 00 00 00	 DD	 $LN19@Filter150H
  003a4	3c ff ff ff	 DD	 -196			; ffffff3cH
  003a8	44 00 00 00	 DD	 68			; 00000044H
  003ac	00 00 00 00	 DD	 $LN20@Filter150H
$LN20@Filter150H:
  003b0	64		 DB	 100			; 00000064H
  003b1	62		 DB	 98			; 00000062H
  003b2	6c		 DB	 108			; 0000006cH
  003b3	5a		 DB	 90			; 0000005aH
  003b4	6f		 DB	 111			; 0000006fH
  003b5	75		 DB	 117			; 00000075H
  003b6	74		 DB	 116			; 00000074H
  003b7	5f		 DB	 95			; 0000005fH
  003b8	31		 DB	 49			; 00000031H
  003b9	00		 DB	 0
$LN19@Filter150H:
  003ba	64		 DB	 100			; 00000064H
  003bb	62		 DB	 98			; 00000062H
  003bc	6c		 DB	 108			; 0000006cH
  003bd	5a		 DB	 90			; 0000005aH
  003be	6f		 DB	 111			; 0000006fH
  003bf	75		 DB	 117			; 00000075H
  003c0	74		 DB	 116			; 00000074H
  003c1	5f		 DB	 95			; 0000005fH
  003c2	32		 DB	 50			; 00000032H
  003c3	00		 DB	 0
$LN18@Filter150H:
  003c4	64		 DB	 100			; 00000064H
  003c5	62		 DB	 98			; 00000062H
  003c6	6c		 DB	 108			; 0000006cH
  003c7	5a		 DB	 90			; 0000005aH
  003c8	6f		 DB	 111			; 0000006fH
  003c9	75		 DB	 117			; 00000075H
  003ca	74		 DB	 116			; 00000074H
  003cb	5f		 DB	 95			; 0000005fH
  003cc	30		 DB	 48			; 00000030H
  003cd	00		 DB	 0
_Filter150Hz ENDP
_TEXT	ENDS
PUBLIC	__real@3f70cb2960000000
PUBLIC	__real@3fd97aa260000000
PUBLIC	_Filter75Hz
_BSS	SEGMENT
?dblR2@?1??Filter75Hz@@9@9 DD 01H DUP (?)		; `Filter75Hz'::`2'::dblR2
?dblRn@?1??Filter75Hz@@9@9 DD 01H DUP (?)		; `Filter75Hz'::`2'::dblRn
_BSS	ENDS
;	COMDAT __real@3f70cb2960000000
CONST	SEGMENT
__real@3f70cb2960000000 DQ 03f70cb2960000000r	; 0.0041
CONST	ENDS
;	COMDAT __real@3fd97aa260000000
CONST	SEGMENT
__real@3fd97aa260000000 DQ 03fd97aa260000000r	; 0.39811
; Function compile flags: /Odtp /RTCsu /ZI /ZX
CONST	ENDS
;	COMDAT _Filter75Hz
_TEXT	SEGMENT
tv275 = -364						; size = 4
tv324 = -360						; size = 8
tv290 = -356						; size = 4
tv288 = -352						; size = 4
tv284 = -352						; size = 4
tv266 = -352						; size = 4
tv258 = -352						; size = 4
tv250 = -352						; size = 4
_largest$ = -152					; size = 4
_FilterOut$ = -140					; size = 4
_j$ = -128						; size = 4
_i$ = -116						; size = 4
_dblZout_2$ = -104					; size = 12
_dblZout_1$ = -84					; size = 12
_dblZout_0$ = -64					; size = 12
_dblZComb$ = -44					; size = 4
_dblZin_2$ = -32					; size = 4
_dblZin_1$ = -20					; size = 4
_dblZin$ = -8						; size = 4
_intFilterOut$ = 8					; size = 4
_blnInitialise$ = 12					; size = 4
_intSamplesToFilter$ = 16				; size = 4
_Filter75Hz PROC					; COMDAT

; 606  : {

  00000	55		 push	 ebp
  00001	8b ec		 mov	 ebp, esp
  00003	81 ec 6c 01 00
	00		 sub	 esp, 364		; 0000016cH
  00009	53		 push	 ebx
  0000a	56		 push	 esi
  0000b	57		 push	 edi
  0000c	8d bd 94 fe ff
	ff		 lea	 edi, DWORD PTR [ebp-364]
  00012	b9 5b 00 00 00	 mov	 ecx, 91			; 0000005bH
  00017	b8 cc cc cc cc	 mov	 eax, -858993460		; ccccccccH
  0001c	f3 ab		 rep stosd

; 607  : 	// assumes sample rate of 12000
; 608  : 	// implements  3 100 Hz wide sections   (~150 Hz wide @ - 30dB centered on 1500 Hz)
; 609  : 
; 610  : 	// FSF (Frequency Selective Filter) variables
; 611  : 
; 612  : 	static float dblR = 0.9995f;		// insures stability (must be < 1.0) (Value .9995 7/8/2013 gives good results)
; 613  : 	static int intN = 240;				//Length of filter 12000/50 - delays output 120 samples from input
; 614  : 	static float dblRn;
; 615  : 	static float dblR2;
; 616  : 	static float dblCoef[3] = {0.0};			// the coefficients
; 617  : 	float dblZin = 0, dblZin_1 = 0, dblZin_2 = 0, dblZComb= 0;  // Used in the comb generator

  0001e	d9 ee		 fldz
  00020	d9 5d f8	 fstp	 DWORD PTR _dblZin$[ebp]
  00023	d9 ee		 fldz
  00025	d9 5d ec	 fstp	 DWORD PTR _dblZin_1$[ebp]
  00028	d9 ee		 fldz
  0002a	d9 5d e0	 fstp	 DWORD PTR _dblZin_2$[ebp]
  0002d	d9 ee		 fldz
  0002f	d9 5d d4	 fstp	 DWORD PTR _dblZComb$[ebp]

; 618  : 	// The resonators 
; 619  :       
; 620  : 	float dblZout_0[3] = {0.0};	// resonator outputs

  00032	d9 ee		 fldz
  00034	d9 5d c0	 fstp	 DWORD PTR _dblZout_0$[ebp]
  00037	33 c0		 xor	 eax, eax
  00039	89 45 c4	 mov	 DWORD PTR _dblZout_0$[ebp+4], eax
  0003c	89 45 c8	 mov	 DWORD PTR _dblZout_0$[ebp+8], eax

; 621  : 	float dblZout_1[3] = {0.0};	// resonator outputs delayed one sample

  0003f	d9 ee		 fldz
  00041	d9 5d ac	 fstp	 DWORD PTR _dblZout_1$[ebp]
  00044	33 c0		 xor	 eax, eax
  00046	89 45 b0	 mov	 DWORD PTR _dblZout_1$[ebp+4], eax
  00049	89 45 b4	 mov	 DWORD PTR _dblZout_1$[ebp+8], eax

; 622  : 	float dblZout_2[3] = {0.0};	// resonator outputs delayed two samples

  0004c	d9 ee		 fldz
  0004e	d9 5d 98	 fstp	 DWORD PTR _dblZout_2$[ebp]
  00051	33 c0		 xor	 eax, eax
  00053	89 45 9c	 mov	 DWORD PTR _dblZout_2$[ebp+4], eax
  00056	89 45 a0	 mov	 DWORD PTR _dblZout_2$[ebp+8], eax

; 623  : 
; 624  : 	int i, j;
; 625  : 
; 626  : 	float FilterOut = 0;			//  Filtered sample

  00059	d9 ee		 fldz
  0005b	d9 9d 74 ff ff
	ff		 fstp	 DWORD PTR _FilterOut$[ebp]

; 627  : 	float largest = 0;

  00061	d9 ee		 fldz
  00063	d9 9d 68 ff ff
	ff		 fstp	 DWORD PTR _largest$[ebp]

; 628  : 
; 629  : 	dblRn = powf(dblR, intN);

  00069	db 05 00 00 00
	00		 fild	 DWORD PTR ?intN@?1??Filter75Hz@@9@9
  0006f	83 ec 08	 sub	 esp, 8
  00072	dd 1c 24	 fstp	 QWORD PTR [esp]
  00075	d9 05 00 00 00
	00		 fld	 DWORD PTR ?dblR@?1??Filter75Hz@@9@9
  0007b	83 ec 08	 sub	 esp, 8
  0007e	dd 1c 24	 fstp	 QWORD PTR [esp]
  00081	e8 00 00 00 00	 call	 _pow
  00086	83 c4 10	 add	 esp, 16			; 00000010H
  00089	d9 9d a0 fe ff
	ff		 fstp	 DWORD PTR tv250[ebp]
  0008f	d9 85 a0 fe ff
	ff		 fld	 DWORD PTR tv250[ebp]
  00095	d9 1d 00 00 00
	00		 fstp	 DWORD PTR ?dblRn@?1??Filter75Hz@@9@9

; 630  : 
; 631  : 	dblR2 = powf(dblR, 2);

  0009b	83 ec 08	 sub	 esp, 8
  0009e	dd 05 00 00 00
	00		 fld	 QWORD PTR __real@4000000000000000
  000a4	dd 1c 24	 fstp	 QWORD PTR [esp]
  000a7	d9 05 00 00 00
	00		 fld	 DWORD PTR ?dblR@?1??Filter75Hz@@9@9
  000ad	83 ec 08	 sub	 esp, 8
  000b0	dd 1c 24	 fstp	 QWORD PTR [esp]
  000b3	e8 00 00 00 00	 call	 _pow
  000b8	83 c4 10	 add	 esp, 16			; 00000010H
  000bb	d9 9d a0 fe ff
	ff		 fstp	 DWORD PTR tv258[ebp]
  000c1	d9 85 a0 fe ff
	ff		 fld	 DWORD PTR tv258[ebp]
  000c7	d9 1d 00 00 00
	00		 fstp	 DWORD PTR ?dblR2@?1??Filter75Hz@@9@9

; 632  : 
; 633  : 	// Initialize the coefficients
; 634  :     
; 635  : 	if (dblCoef[2] == 0)

  000cd	d9 05 08 00 00
	00		 fld	 DWORD PTR ?dblCoef@?1??Filter75Hz@@9@9+8
  000d3	dc 1d 00 00 00
	00		 fcomp	 QWORD PTR __real@0000000000000000
  000d9	df e0		 fnstsw	 ax
  000db	f6 c4 44	 test	 ah, 68			; 00000044H
  000de	7a 74		 jp	 SHORT $LN12@Filter75Hz

; 636  : 	{
; 637  : 		for (i = 0; i <= 3; i++)

  000e0	c7 45 8c 00 00
	00 00		 mov	 DWORD PTR _i$[ebp], 0
  000e7	eb 09		 jmp	 SHORT $LN14@Filter75Hz
$LN13@Filter75Hz:
  000e9	8b 45 8c	 mov	 eax, DWORD PTR _i$[ebp]
  000ec	83 c0 01	 add	 eax, 1
  000ef	89 45 8c	 mov	 DWORD PTR _i$[ebp], eax
$LN14@Filter75Hz:
  000f2	83 7d 8c 03	 cmp	 DWORD PTR _i$[ebp], 3
  000f6	7f 5c		 jg	 SHORT $LN12@Filter75Hz

; 638  : 		{
; 639  : 			dblCoef[i] = 2 * dblR * cosf(2 * M_PI * (29 + i)/ intN);  // For Frequency = bin 29, 30, 31

  000f8	d9 05 00 00 00
	00		 fld	 DWORD PTR ?dblR@?1??Filter75Hz@@9@9
  000fe	dc 0d 00 00 00
	00		 fmul	 QWORD PTR __real@4000000000000000
  00104	8b 45 8c	 mov	 eax, DWORD PTR _i$[ebp]
  00107	83 c0 1d	 add	 eax, 29			; 0000001dH
  0010a	89 85 a0 fe ff
	ff		 mov	 DWORD PTR tv266[ebp], eax
  00110	db 85 a0 fe ff
	ff		 fild	 DWORD PTR tv266[ebp]
  00116	dc 0d 00 00 00
	00		 fmul	 QWORD PTR __real@401921fb00000000
  0011c	da 35 00 00 00
	00		 fidiv	 DWORD PTR ?intN@?1??Filter75Hz@@9@9
  00122	83 ec 08	 sub	 esp, 8
  00125	dd 1c 24	 fstp	 QWORD PTR [esp]
  00128	dd 9d 98 fe ff
	ff		 fstp	 QWORD PTR tv324[ebp]
  0012e	e8 00 00 00 00	 call	 _cos
  00133	83 c4 08	 add	 esp, 8
  00136	d9 9d 94 fe ff
	ff		 fstp	 DWORD PTR tv275[ebp]
  0013c	d9 85 94 fe ff
	ff		 fld	 DWORD PTR tv275[ebp]
  00142	dc 8d 98 fe ff
	ff		 fmul	 QWORD PTR tv324[ebp]
  00148	8b 4d 8c	 mov	 ecx, DWORD PTR _i$[ebp]
  0014b	d9 1c 8d 00 00
	00 00		 fstp	 DWORD PTR ?dblCoef@?1??Filter75Hz@@9@9[ecx*4]

; 640  : 		}

  00152	eb 95		 jmp	 SHORT $LN13@Filter75Hz
$LN12@Filter75Hz:

; 641  : 	}
; 642  : 
; 643  : 	for (i = 0; i < intSamplesToFilter; i++)

  00154	c7 45 8c 00 00
	00 00		 mov	 DWORD PTR _i$[ebp], 0
  0015b	eb 09		 jmp	 SHORT $LN11@Filter75Hz
$LN10@Filter75Hz:
  0015d	8b 45 8c	 mov	 eax, DWORD PTR _i$[ebp]
  00160	83 c0 01	 add	 eax, 1
  00163	89 45 8c	 mov	 DWORD PTR _i$[ebp], eax
$LN11@Filter75Hz:
  00166	8b 45 8c	 mov	 eax, DWORD PTR _i$[ebp]
  00169	3b 45 10	 cmp	 eax, DWORD PTR _intSamplesToFilter$[ebp]
  0016c	0f 8d 6e 01 00
	00		 jge	 $LN9@Filter75Hz

; 644  : 	{
; 645  : 		if (i < intN)

  00172	8b 45 8c	 mov	 eax, DWORD PTR _i$[ebp]
  00175	3b 05 00 00 00
	00		 cmp	 eax, DWORD PTR ?intN@?1??Filter75Hz@@9@9
  0017b	7d 2f		 jge	 SHORT $LN8@Filter75Hz

; 646  : 			dblZin = intFilteredMixedSamples[intMFSReadPtr + i] - dblRn * 0;	// no prior mixed samples

  0017d	a1 00 00 00 00	 mov	 eax, DWORD PTR _intMFSReadPtr
  00182	03 45 8c	 add	 eax, DWORD PTR _i$[ebp]
  00185	0f bf 0c 45 00
	00 00 00	 movsx	 ecx, WORD PTR _intFilteredMixedSamples[eax*2]
  0018d	89 8d a0 fe ff
	ff		 mov	 DWORD PTR tv284[ebp], ecx
  00193	db 85 a0 fe ff
	ff		 fild	 DWORD PTR tv284[ebp]
  00199	d9 05 00 00 00
	00		 fld	 DWORD PTR ?dblRn@?1??Filter75Hz@@9@9
  0019f	dc 0d 00 00 00
	00		 fmul	 QWORD PTR __real@0000000000000000
  001a5	de e9		 fsubp	 ST(1), ST(0)
  001a7	d9 5d f8	 fstp	 DWORD PTR _dblZin$[ebp]

; 647  : 		else

  001aa	eb 4a		 jmp	 SHORT $LN7@Filter75Hz
$LN8@Filter75Hz:

; 648  : 			dblZin = intFilteredMixedSamples[intMFSReadPtr + i] - dblRn * intFilteredMixedSamples[intMFSReadPtr + i - intN];

  001ac	a1 00 00 00 00	 mov	 eax, DWORD PTR _intMFSReadPtr
  001b1	03 45 8c	 add	 eax, DWORD PTR _i$[ebp]
  001b4	0f bf 0c 45 00
	00 00 00	 movsx	 ecx, WORD PTR _intFilteredMixedSamples[eax*2]
  001bc	89 8d a0 fe ff
	ff		 mov	 DWORD PTR tv288[ebp], ecx
  001c2	db 85 a0 fe ff
	ff		 fild	 DWORD PTR tv288[ebp]
  001c8	8b 15 00 00 00
	00		 mov	 edx, DWORD PTR _intMFSReadPtr
  001ce	03 55 8c	 add	 edx, DWORD PTR _i$[ebp]
  001d1	2b 15 00 00 00
	00		 sub	 edx, DWORD PTR ?intN@?1??Filter75Hz@@9@9
  001d7	0f bf 04 55 00
	00 00 00	 movsx	 eax, WORD PTR _intFilteredMixedSamples[edx*2]
  001df	89 85 9c fe ff
	ff		 mov	 DWORD PTR tv290[ebp], eax
  001e5	db 85 9c fe ff
	ff		 fild	 DWORD PTR tv290[ebp]
  001eb	d8 0d 00 00 00
	00		 fmul	 DWORD PTR ?dblRn@?1??Filter75Hz@@9@9
  001f1	de e9		 fsubp	 ST(1), ST(0)
  001f3	d9 5d f8	 fstp	 DWORD PTR _dblZin$[ebp]
$LN7@Filter75Hz:

; 649  : 
; 650  : 		// Compute the Comb
; 651  : 		
; 652  : 		dblZComb = dblZin - dblZin_2 * dblR2;

  001f6	d9 45 e0	 fld	 DWORD PTR _dblZin_2$[ebp]
  001f9	d8 0d 00 00 00
	00		 fmul	 DWORD PTR ?dblR2@?1??Filter75Hz@@9@9
  001ff	d8 6d f8	 fsubr	 DWORD PTR _dblZin$[ebp]
  00202	d9 5d d4	 fstp	 DWORD PTR _dblZComb$[ebp]

; 653  : 		dblZin_2 = dblZin_1;

  00205	d9 45 ec	 fld	 DWORD PTR _dblZin_1$[ebp]
  00208	d9 5d e0	 fstp	 DWORD PTR _dblZin_2$[ebp]

; 654  : 		dblZin_1 = dblZin;

  0020b	d9 45 f8	 fld	 DWORD PTR _dblZin$[ebp]
  0020e	d9 5d ec	 fstp	 DWORD PTR _dblZin_1$[ebp]

; 655  : 
; 656  : 		// Now the resonators
; 657  : 
; 658  : 		for (j = 0; j < 3; j++)		   // calculate output for 3 resonators 

  00211	c7 45 80 00 00
	00 00		 mov	 DWORD PTR _j$[ebp], 0
  00218	eb 09		 jmp	 SHORT $LN6@Filter75Hz
$LN5@Filter75Hz:
  0021a	8b 45 80	 mov	 eax, DWORD PTR _j$[ebp]
  0021d	83 c0 01	 add	 eax, 1
  00220	89 45 80	 mov	 DWORD PTR _j$[ebp], eax
$LN6@Filter75Hz:
  00223	83 7d 80 03	 cmp	 DWORD PTR _j$[ebp], 3
  00227	0f 8d 85 00 00
	00		 jge	 $LN4@Filter75Hz

; 659  : 		{
; 660  : 			dblZout_0[j] = dblZComb + dblCoef[j] * dblZout_1[j] - dblR2 * dblZout_2[j];

  0022d	8b 45 80	 mov	 eax, DWORD PTR _j$[ebp]
  00230	d9 04 85 00 00
	00 00		 fld	 DWORD PTR ?dblCoef@?1??Filter75Hz@@9@9[eax*4]
  00237	8b 4d 80	 mov	 ecx, DWORD PTR _j$[ebp]
  0023a	d8 4c 8d ac	 fmul	 DWORD PTR _dblZout_1$[ebp+ecx*4]
  0023e	d8 45 d4	 fadd	 DWORD PTR _dblZComb$[ebp]
  00241	d9 05 00 00 00
	00		 fld	 DWORD PTR ?dblR2@?1??Filter75Hz@@9@9
  00247	8b 55 80	 mov	 edx, DWORD PTR _j$[ebp]
  0024a	d8 4c 95 98	 fmul	 DWORD PTR _dblZout_2$[ebp+edx*4]
  0024e	de e9		 fsubp	 ST(1), ST(0)
  00250	8b 45 80	 mov	 eax, DWORD PTR _j$[ebp]
  00253	d9 5c 85 c0	 fstp	 DWORD PTR _dblZout_0$[ebp+eax*4]

; 661  : 			dblZout_2[j] = dblZout_1[j];

  00257	8b 45 80	 mov	 eax, DWORD PTR _j$[ebp]
  0025a	8b 4d 80	 mov	 ecx, DWORD PTR _j$[ebp]
  0025d	d9 44 8d ac	 fld	 DWORD PTR _dblZout_1$[ebp+ecx*4]
  00261	d9 5c 85 98	 fstp	 DWORD PTR _dblZout_2$[ebp+eax*4]

; 662  : 			dblZout_1[j] = dblZout_0[j];

  00265	8b 45 80	 mov	 eax, DWORD PTR _j$[ebp]
  00268	8b 4d 80	 mov	 ecx, DWORD PTR _j$[ebp]
  0026b	d9 44 8d c0	 fld	 DWORD PTR _dblZout_0$[ebp+ecx*4]
  0026f	d9 5c 85 ac	 fstp	 DWORD PTR _dblZout_1$[ebp+eax*4]

; 663  : 	
; 664  : 			//	scale each by transition coeff and + (Even) or - (Odd) 
; 665  : 
; 666  : 			// Scaling also accomodates for the filter "gain" of approx 120. 
; 667  : 			// These transition coefficients fairly close to optimum for WGN 0db PSK4, 100 baud (yield highest average quality) 5/24/2014
; 668  :  
; 669  : 			if (j == 0 || j == 2)

  00273	83 7d 80 00	 cmp	 DWORD PTR _j$[ebp], 0
  00277	74 06		 je	 SHORT $LN2@Filter75Hz
  00279	83 7d 80 02	 cmp	 DWORD PTR _j$[ebp], 2
  0027d	75 1b		 jne	 SHORT $LN3@Filter75Hz
$LN2@Filter75Hz:

; 670  : 				FilterOut -= 0.39811f * dblZout_0[j];	 // this transisiton minimizes ringing and peaks

  0027f	8b 45 80	 mov	 eax, DWORD PTR _j$[ebp]
  00282	d9 44 85 c0	 fld	 DWORD PTR _dblZout_0$[ebp+eax*4]
  00286	dc 0d 00 00 00
	00		 fmul	 QWORD PTR __real@3fd97aa260000000
  0028c	d8 ad 74 ff ff
	ff		 fsubr	 DWORD PTR _FilterOut$[ebp]
  00292	d9 9d 74 ff ff
	ff		 fstp	 DWORD PTR _FilterOut$[ebp]

; 671  : 			else

  00298	eb 13		 jmp	 SHORT $LN1@Filter75Hz
$LN3@Filter75Hz:

; 672  : 				FilterOut += dblZout_0[j];

  0029a	d9 85 74 ff ff
	ff		 fld	 DWORD PTR _FilterOut$[ebp]
  002a0	8b 45 80	 mov	 eax, DWORD PTR _j$[ebp]
  002a3	d8 44 85 c0	 fadd	 DWORD PTR _dblZout_0$[ebp+eax*4]
  002a7	d9 9d 74 ff ff
	ff		 fstp	 DWORD PTR _FilterOut$[ebp]
$LN1@Filter75Hz:

; 673  : 		}

  002ad	e9 68 ff ff ff	 jmp	 $LN5@Filter75Hz
$LN4@Filter75Hz:

; 674  : 		intFilterOut[i] = (int)ceil(FilterOut * 0.0041f);	 // rescales for gain of filter

  002b2	d9 85 74 ff ff
	ff		 fld	 DWORD PTR _FilterOut$[ebp]
  002b8	dc 0d 00 00 00
	00		 fmul	 QWORD PTR __real@3f70cb2960000000
  002be	83 ec 08	 sub	 esp, 8
  002c1	dd 1c 24	 fstp	 QWORD PTR [esp]
  002c4	e8 00 00 00 00	 call	 _ceil
  002c9	83 c4 08	 add	 esp, 8
  002cc	e8 00 00 00 00	 call	 __ftol2_sse
  002d1	8b 4d 8c	 mov	 ecx, DWORD PTR _i$[ebp]
  002d4	8b 55 08	 mov	 edx, DWORD PTR _intFilterOut$[ebp]
  002d7	66 89 04 4a	 mov	 WORD PTR [edx+ecx*2], ax

; 675  : 	}

  002db	e9 7d fe ff ff	 jmp	 $LN10@Filter75Hz
$LN9@Filter75Hz:

; 676  : }

  002e0	52		 push	 edx
  002e1	8b cd		 mov	 ecx, ebp
  002e3	50		 push	 eax
  002e4	8d 15 00 00 00
	00		 lea	 edx, DWORD PTR $LN22@Filter75Hz
  002ea	e8 00 00 00 00	 call	 @_RTC_CheckStackVars@8
  002ef	58		 pop	 eax
  002f0	5a		 pop	 edx
  002f1	5f		 pop	 edi
  002f2	5e		 pop	 esi
  002f3	5b		 pop	 ebx
  002f4	81 c4 6c 01 00
	00		 add	 esp, 364		; 0000016cH
  002fa	3b ec		 cmp	 ebp, esp
  002fc	e8 00 00 00 00	 call	 __RTC_CheckEsp
  00301	8b e5		 mov	 esp, ebp
  00303	5d		 pop	 ebp
  00304	c3		 ret	 0
  00305	8d 49 00	 npad	 3
$LN22@Filter75Hz:
  00308	03 00 00 00	 DD	 3
  0030c	00 00 00 00	 DD	 $LN21@Filter75Hz
$LN21@Filter75Hz:
  00310	c0 ff ff ff	 DD	 -64			; ffffffc0H
  00314	0c 00 00 00	 DD	 12			; 0000000cH
  00318	00 00 00 00	 DD	 $LN18@Filter75Hz
  0031c	98 ff ff ff	 DD	 -104			; ffffff98H
  00320	0c 00 00 00	 DD	 12			; 0000000cH
  00324	00 00 00 00	 DD	 $LN19@Filter75Hz
  00328	ac ff ff ff	 DD	 -84			; ffffffacH
  0032c	0c 00 00 00	 DD	 12			; 0000000cH
  00330	00 00 00 00	 DD	 $LN20@Filter75Hz
$LN20@Filter75Hz:
  00334	64		 DB	 100			; 00000064H
  00335	62		 DB	 98			; 00000062H
  00336	6c		 DB	 108			; 0000006cH
  00337	5a		 DB	 90			; 0000005aH
  00338	6f		 DB	 111			; 0000006fH
  00339	75		 DB	 117			; 00000075H
  0033a	74		 DB	 116			; 00000074H
  0033b	5f		 DB	 95			; 0000005fH
  0033c	31		 DB	 49			; 00000031H
  0033d	00		 DB	 0
$LN19@Filter75Hz:
  0033e	64		 DB	 100			; 00000064H
  0033f	62		 DB	 98			; 00000062H
  00340	6c		 DB	 108			; 0000006cH
  00341	5a		 DB	 90			; 0000005aH
  00342	6f		 DB	 111			; 0000006fH
  00343	75		 DB	 117			; 00000075H
  00344	74		 DB	 116			; 00000074H
  00345	5f		 DB	 95			; 0000005fH
  00346	32		 DB	 50			; 00000032H
  00347	00		 DB	 0
$LN18@Filter75Hz:
  00348	64		 DB	 100			; 00000064H
  00349	62		 DB	 98			; 00000062H
  0034a	6c		 DB	 108			; 0000006cH
  0034b	5a		 DB	 90			; 0000005aH
  0034c	6f		 DB	 111			; 0000006fH
  0034d	75		 DB	 117			; 00000075H
  0034e	74		 DB	 116			; 00000074H
  0034f	5f		 DB	 95			; 0000005fH
  00350	30		 DB	 48			; 00000030H
  00351	00		 DB	 0
_Filter75Hz ENDP
_TEXT	ENDS
PUBLIC	__real@40c7700000000000
PUBLIC	__real@40a7700000000000
PUBLIC	__$ArrayPad$
PUBLIC	_MixNCOFilter
EXTRN	___security_cookie:DWORD
EXTRN	@__security_check_cookie@4:PROC
EXTRN	__chkstk:PROC
;	COMDAT __real@40c7700000000000
CONST	SEGMENT
__real@40c7700000000000 DQ 040c7700000000000r	; 12000
CONST	ENDS
;	COMDAT __real@40a7700000000000
CONST	SEGMENT
__real@40a7700000000000 DQ 040a7700000000000r	; 3000
; Function compile flags: /Odtp /RTCsu /ZI /ZX
CONST	ENDS
;	COMDAT _MixNCOFilter
_TEXT	SEGMENT
tv163 = -5048						; size = 4
tv154 = -5044						; size = 4
tv177 = -5040						; size = 8
tv149 = -5032						; size = 4
_intMixedSamplesLength$ = -4832				; size = 4
_intMixedSamples$ = -4820				; size = 4800
_i$ = -12						; size = 4
__$ArrayPad$ = -4					; size = 4
_intNewSamples$ = 8					; size = 4
_Length$ = 12						; size = 4
_dblOffsetHz$ = 16					; size = 4
_MixNCOFilter PROC					; COMDAT

; 681  : {

  00000	55		 push	 ebp
  00001	8b ec		 mov	 ebp, esp
  00003	b8 b8 13 00 00	 mov	 eax, 5048		; 000013b8H
  00008	e8 00 00 00 00	 call	 __chkstk
  0000d	53		 push	 ebx
  0000e	56		 push	 esi
  0000f	57		 push	 edi
  00010	8d bd 48 ec ff
	ff		 lea	 edi, DWORD PTR [ebp-5048]
  00016	b9 ee 04 00 00	 mov	 ecx, 1262		; 000004eeH
  0001b	b8 cc cc cc cc	 mov	 eax, -858993460		; ccccccccH
  00020	f3 ab		 rep stosd
  00022	a1 00 00 00 00	 mov	 eax, DWORD PTR ___security_cookie
  00027	33 c5		 xor	 eax, ebp
  00029	89 45 fc	 mov	 DWORD PTR __$ArrayPad$[ebp], eax

; 682  : 	// Correct the dimension of intPriorMixedSamples if needed (should only happen after a bandwidth setting change). 
; 683  : 
; 684  : 	int i;
; 685  : 	short intMixedSamples[2400];	// All we need at once ( I hope!)		// may need to be int
; 686  : 	int	intMixedSamplesLength ;		//size of intMixedSamples
; 687  : 
; 688  : 	if (Length == 0)

  0002c	83 7d 0c 00	 cmp	 DWORD PTR _Length$[ebp], 0
  00030	75 05		 jne	 SHORT $LN5@MixNCOFilt

; 689  : 		return;

  00032	e9 0e 01 00 00	 jmp	 $LN6@MixNCOFilt
$LN5@MixNCOFilt:

; 690  : 
; 691  : 	// Nominal NCO freq is 3000 Hz  to downmix intNewSamples  (NCO - Fnew) to center of 1500 Hz (invertes the sideband too) 
; 692  : 
; 693  : 	dblNCOFreq = 3000 + dblOffsetHz;

  00037	d9 45 10	 fld	 DWORD PTR _dblOffsetHz$[ebp]
  0003a	dc 05 00 00 00
	00		 fadd	 QWORD PTR __real@40a7700000000000
  00040	d9 1d 00 00 00
	00		 fstp	 DWORD PTR _dblNCOFreq

; 694  : 	dblNCOPhaseInc = dblNCOFreq * dbl2Pi / 12000;

  00046	d9 05 00 00 00
	00		 fld	 DWORD PTR _dblNCOFreq
  0004c	d8 0d 00 00 00
	00		 fmul	 DWORD PTR _dbl2Pi
  00052	dc 35 00 00 00
	00		 fdiv	 QWORD PTR __real@40c7700000000000
  00058	d9 1d 00 00 00
	00		 fstp	 DWORD PTR _dblNCOPhaseInc

; 695  : 
; 696  : 	intMixedSamplesLength = Length;

  0005e	8b 45 0c	 mov	 eax, DWORD PTR _Length$[ebp]
  00061	89 85 20 ed ff
	ff		 mov	 DWORD PTR _intMixedSamplesLength$[ebp], eax

; 697  : 
; 698  : 	for (i = 0; i < Length; i++)

  00067	c7 45 f4 00 00
	00 00		 mov	 DWORD PTR _i$[ebp], 0
  0006e	eb 09		 jmp	 SHORT $LN4@MixNCOFilt
$LN3@MixNCOFilt:
  00070	8b 45 f4	 mov	 eax, DWORD PTR _i$[ebp]
  00073	83 c0 01	 add	 eax, 1
  00076	89 45 f4	 mov	 DWORD PTR _i$[ebp], eax
$LN4@MixNCOFilt:
  00079	8b 45 f4	 mov	 eax, DWORD PTR _i$[ebp]
  0007c	3b 45 0c	 cmp	 eax, DWORD PTR _Length$[ebp]
  0007f	0f 8d aa 00 00
	00		 jge	 $LN2@MixNCOFilt

; 699  : 	{
; 700  : 		intMixedSamples[i] = (int)ceilf(intNewSamples[i] * cosf(dblNCOPhase));  // later may want a lower "cost" implementation of "Cos"

  00085	8b 45 f4	 mov	 eax, DWORD PTR _i$[ebp]
  00088	8b 4d 08	 mov	 ecx, DWORD PTR _intNewSamples$[ebp]
  0008b	0f bf 14 41	 movsx	 edx, WORD PTR [ecx+eax*2]
  0008f	89 95 58 ec ff
	ff		 mov	 DWORD PTR tv149[ebp], edx
  00095	db 85 58 ec ff
	ff		 fild	 DWORD PTR tv149[ebp]
  0009b	d9 05 00 00 00
	00		 fld	 DWORD PTR _dblNCOPhase
  000a1	83 ec 08	 sub	 esp, 8
  000a4	dd 1c 24	 fstp	 QWORD PTR [esp]
  000a7	dd 9d 50 ec ff
	ff		 fstp	 QWORD PTR tv177[ebp]
  000ad	e8 00 00 00 00	 call	 _cos
  000b2	83 c4 08	 add	 esp, 8
  000b5	d9 9d 4c ec ff
	ff		 fstp	 DWORD PTR tv154[ebp]
  000bb	d9 85 4c ec ff
	ff		 fld	 DWORD PTR tv154[ebp]
  000c1	dc 8d 50 ec ff
	ff		 fmul	 QWORD PTR tv177[ebp]
  000c7	83 ec 08	 sub	 esp, 8
  000ca	dd 1c 24	 fstp	 QWORD PTR [esp]
  000cd	e8 00 00 00 00	 call	 _ceil
  000d2	83 c4 08	 add	 esp, 8
  000d5	d9 9d 48 ec ff
	ff		 fstp	 DWORD PTR tv163[ebp]
  000db	d9 85 48 ec ff
	ff		 fld	 DWORD PTR tv163[ebp]
  000e1	e8 00 00 00 00	 call	 __ftol2_sse
  000e6	8b 4d f4	 mov	 ecx, DWORD PTR _i$[ebp]
  000e9	66 89 84 4d 2c
	ed ff ff	 mov	 WORD PTR _intMixedSamples$[ebp+ecx*2], ax

; 701  : 		dblNCOPhase += dblNCOPhaseInc;

  000f1	d9 05 00 00 00
	00		 fld	 DWORD PTR _dblNCOPhase
  000f7	d8 05 00 00 00
	00		 fadd	 DWORD PTR _dblNCOPhaseInc
  000fd	d9 1d 00 00 00
	00		 fstp	 DWORD PTR _dblNCOPhase

; 702  : 		if (dblNCOPhase > dbl2Pi)

  00103	d9 05 00 00 00
	00		 fld	 DWORD PTR _dblNCOPhase
  00109	d9 05 00 00 00
	00		 fld	 DWORD PTR _dbl2Pi
  0010f	de d9		 fcompp
  00111	df e0		 fnstsw	 ax
  00113	f6 c4 05	 test	 ah, 5
  00116	7a 12		 jp	 SHORT $LN1@MixNCOFilt

; 703  : 			dblNCOPhase -= dbl2Pi;

  00118	d9 05 00 00 00
	00		 fld	 DWORD PTR _dblNCOPhase
  0011e	d8 25 00 00 00
	00		 fsub	 DWORD PTR _dbl2Pi
  00124	d9 1d 00 00 00
	00		 fstp	 DWORD PTR _dblNCOPhase
$LN1@MixNCOFilt:

; 704  : 	}

  0012a	e9 41 ff ff ff	 jmp	 $LN3@MixNCOFilt
$LN2@MixNCOFilt:

; 705  : 
; 706  : 	
; 707  : 	
; 708  : 	// showed no significant difference if the 2000 Hz filer used for all bandwidths.
; 709  : //	printtick("Start Filter");
; 710  : 	FSMixFilter2000Hz(intMixedSamples, intMixedSamplesLength);   // filter through the FS filter (required to reject image from Local oscillator)

  0012f	8b 85 20 ed ff
	ff		 mov	 eax, DWORD PTR _intMixedSamplesLength$[ebp]
  00135	50		 push	 eax
  00136	8d 8d 2c ed ff
	ff		 lea	 ecx, DWORD PTR _intMixedSamples$[ebp]
  0013c	51		 push	 ecx
  0013d	e8 00 00 00 00	 call	 _FSMixFilter2000Hz
  00142	83 c4 08	 add	 esp, 8
$LN6@MixNCOFilt:

; 711  : //	printtick("Done Filter");
; 712  : 
; 713  : 	// save for analysys
; 714  : 
; 715  : //	WriteSamples(&intFilteredMixedSamples[oldlen], Length);
; 716  : //	WriteSamples(intMixedSamples, Length);
; 717  : 
; 718  : }

  00145	52		 push	 edx
  00146	8b cd		 mov	 ecx, ebp
  00148	50		 push	 eax
  00149	8d 15 00 00 00
	00		 lea	 edx, DWORD PTR $LN10@MixNCOFilt
  0014f	e8 00 00 00 00	 call	 @_RTC_CheckStackVars@8
  00154	58		 pop	 eax
  00155	5a		 pop	 edx
  00156	5f		 pop	 edi
  00157	5e		 pop	 esi
  00158	5b		 pop	 ebx
  00159	8b 4d fc	 mov	 ecx, DWORD PTR __$ArrayPad$[ebp]
  0015c	33 cd		 xor	 ecx, ebp
  0015e	e8 00 00 00 00	 call	 @__security_check_cookie@4
  00163	81 c4 b8 13 00
	00		 add	 esp, 5048		; 000013b8H
  00169	3b ec		 cmp	 ebp, esp
  0016b	e8 00 00 00 00	 call	 __RTC_CheckEsp
  00170	8b e5		 mov	 esp, ebp
  00172	5d		 pop	 ebp
  00173	c3		 ret	 0
$LN10@MixNCOFilt:
  00174	01 00 00 00	 DD	 1
  00178	00 00 00 00	 DD	 $LN9@MixNCOFilt
$LN9@MixNCOFilt:
  0017c	2c ed ff ff	 DD	 -4820			; ffffed2cH
  00180	c0 12 00 00	 DD	 4800			; 000012c0H
  00184	00 00 00 00	 DD	 $LN8@MixNCOFilt
$LN8@MixNCOFilt:
  00188	69		 DB	 105			; 00000069H
  00189	6e		 DB	 110			; 0000006eH
  0018a	74		 DB	 116			; 00000074H
  0018b	4d		 DB	 77			; 0000004dH
  0018c	69		 DB	 105			; 00000069H
  0018d	78		 DB	 120			; 00000078H
  0018e	65		 DB	 101			; 00000065H
  0018f	64		 DB	 100			; 00000064H
  00190	53		 DB	 83			; 00000053H
  00191	61		 DB	 97			; 00000061H
  00192	6d		 DB	 109			; 0000006dH
  00193	70		 DB	 112			; 00000070H
  00194	6c		 DB	 108			; 0000006cH
  00195	65		 DB	 101			; 00000065H
  00196	73		 DB	 115			; 00000073H
  00197	00		 DB	 0
_MixNCOFilter ENDP
_TEXT	ENDS
PUBLIC	??_C@_0DE@GNAPAMKO@?$FLCorrectRawDataWithRS?$FN?5RS?5says?5o@ ; `string'
PUBLIC	??_C@_0DB@DEMODFFA@?$FLCorrectRawDataWithRS?$FN?5OK?5with?5R@ ; `string'
PUBLIC	??_C@_0CN@PLLJCNFD@?$FLCorrectRawDataWithRS?$FN?5RS?5Says?5C@ ; `string'
PUBLIC	??_C@_0CF@PNIEDINJ@?$FLCorrectRawDataWithRS?$FN?5OK?5withou@ ; `string'
PUBLIC	??_C@_0DC@IEMCIPLH@?$FLCorrectRawDataWithRS?$FN?5Carrier?5?$CF@ ; `string'
PUBLIC	_CorrectRawDataWithRS
EXTRN	_NErrors:DWORD
EXTRN	_RSDecode:PROC
EXTRN	_CheckCRC16FrameType:PROC
EXTRN	_memcpy:PROC
;	COMDAT ??_C@_0DE@GNAPAMKO@?$FLCorrectRawDataWithRS?$FN?5RS?5says?5o@
CONST	SEGMENT
??_C@_0DE@GNAPAMKO@?$FLCorrectRawDataWithRS?$FN?5RS?5says?5o@ DB '[Correc'
	DB	'tRawDataWithRS] RS says ok but CRC still bad', 00H ; `string'
CONST	ENDS
;	COMDAT ??_C@_0DB@DEMODFFA@?$FLCorrectRawDataWithRS?$FN?5OK?5with?5R@
CONST	SEGMENT
??_C@_0DB@DEMODFFA@?$FLCorrectRawDataWithRS?$FN?5OK?5with?5R@ DB '[Correc'
	DB	'tRawDataWithRS] OK with RS %d corrections', 00H ; `string'
CONST	ENDS
;	COMDAT ??_C@_0CN@PLLJCNFD@?$FLCorrectRawDataWithRS?$FN?5RS?5Says?5C@
CONST	SEGMENT
??_C@_0CN@PLLJCNFD@?$FLCorrectRawDataWithRS?$FN?5RS?5Says?5C@ DB '[Correc'
	DB	'tRawDataWithRS] RS Says Can''t Correct', 00H ; `string'
CONST	ENDS
;	COMDAT ??_C@_0CF@PNIEDINJ@?$FLCorrectRawDataWithRS?$FN?5OK?5withou@
CONST	SEGMENT
??_C@_0CF@PNIEDINJ@?$FLCorrectRawDataWithRS?$FN?5OK?5withou@ DB '[Correct'
	DB	'RawDataWithRS] OK without RS', 00H		; `string'
CONST	ENDS
;	COMDAT ??_C@_0DC@IEMCIPLH@?$FLCorrectRawDataWithRS?$FN?5Carrier?5?$CF@
CONST	SEGMENT
??_C@_0DC@IEMCIPLH@?$FLCorrectRawDataWithRS?$FN?5Carrier?5?$CF@ DB '[Corr'
	DB	'ectRawDataWithRS] Carrier %d already decoded', 00H ; `string'
; Function compile flags: /Odtp /RTCsu /ZI /ZX
CONST	ENDS
;	COMDAT _CorrectRawDataWithRS
_TEXT	SEGMENT
_intFailedByteCnt$5843 = -32				; size = 4
_FrameOK$ = -20						; size = 4
_blnRSOK$ = -8						; size = 4
_bytRawData$ = 8					; size = 4
_bytCorrectedData$ = 12					; size = 4
_intDataLen$ = 16					; size = 4
_intRSLen$ = 20						; size = 4
_bytFrameType$ = 24					; size = 4
_Carrier$ = 28						; size = 4
_CorrectRawDataWithRS PROC				; COMDAT

; 723  : {

  00000	55		 push	 ebp
  00001	8b ec		 mov	 ebp, esp
  00003	81 ec e4 00 00
	00		 sub	 esp, 228		; 000000e4H
  00009	53		 push	 ebx
  0000a	56		 push	 esi
  0000b	57		 push	 edi
  0000c	8d bd 1c ff ff
	ff		 lea	 edi, DWORD PTR [ebp-228]
  00012	b9 39 00 00 00	 mov	 ecx, 57			; 00000039H
  00017	b8 cc cc cc cc	 mov	 eax, -858993460		; ccccccccH
  0001c	f3 ab		 rep stosd

; 724  : 	BOOL blnRSOK;
; 725  : 	BOOL FrameOK;
; 726  : 
; 727  : 	//Dim bytNoRS(1 + intDataLen + 2 - 1) As Byte  ' 1 byte byte Count, Data, 2 byte CRC 
; 728  : 	//Array.Copy(bytRawData, 0, bytNoRS, 0, bytNoRS.Length)
; 729  : 
; 730  : 	if (CarrierOk[Carrier] && CarrierOk[Carrier] != 1)

  0001e	8b 45 1c	 mov	 eax, DWORD PTR _Carrier$[ebp]
  00021	0f be 88 00 00
	00 00		 movsx	 ecx, BYTE PTR _CarrierOk[eax]
  00028	85 c9		 test	 ecx, ecx
  0002a	74 21		 je	 SHORT $LN9@CorrectRaw
  0002c	8b 45 1c	 mov	 eax, DWORD PTR _Carrier$[ebp]
  0002f	0f be 88 00 00
	00 00		 movsx	 ecx, BYTE PTR _CarrierOk[eax]
  00036	83 f9 01	 cmp	 ecx, 1
  00039	74 12		 je	 SHORT $LN9@CorrectRaw

; 731  : 		CarrierOk[Carrier] = CarrierOk[Carrier];

  0003b	8b 45 1c	 mov	 eax, DWORD PTR _Carrier$[ebp]
  0003e	8b 4d 1c	 mov	 ecx, DWORD PTR _Carrier$[ebp]
  00041	8a 91 00 00 00
	00		 mov	 dl, BYTE PTR _CarrierOk[ecx]
  00047	88 90 00 00 00
	00		 mov	 BYTE PTR _CarrierOk[eax], dl
$LN9@CorrectRaw:

; 732  : 
; 733  : 	if (CarrierOk[Carrier])	// Already decoded this carrier?

  0004d	8b 45 1c	 mov	 eax, DWORD PTR _Carrier$[ebp]
  00050	0f be 88 00 00
	00 00		 movsx	 ecx, BYTE PTR _CarrierOk[eax]
  00057	85 c9		 test	 ecx, ecx
  00059	74 38		 je	 SHORT $LN8@CorrectRaw

; 734  : 	{
; 735  : 		// Athough we have already checked the data, it may be in the wrong place
; 736  : 		// in the buffer if another carrier was decoded wrong.
; 737  : 
; 738  : 		memcpy(bytCorrectedData, &bytRawData[1], bytRawData[0]);    

  0005b	8b 45 08	 mov	 eax, DWORD PTR _bytRawData$[ebp]
  0005e	0f b6 08	 movzx	 ecx, BYTE PTR [eax]
  00061	51		 push	 ecx
  00062	8b 55 08	 mov	 edx, DWORD PTR _bytRawData$[ebp]
  00065	83 c2 01	 add	 edx, 1
  00068	52		 push	 edx
  00069	8b 45 0c	 mov	 eax, DWORD PTR _bytCorrectedData$[ebp]
  0006c	50		 push	 eax
  0006d	e8 00 00 00 00	 call	 _memcpy
  00072	83 c4 0c	 add	 esp, 12			; 0000000cH

; 739  : 
; 740  : 		WriteDebugLog(LOGDEBUG, "[CorrectRawDataWithRS] Carrier %d already decoded", Carrier);

  00075	8b 45 1c	 mov	 eax, DWORD PTR _Carrier$[ebp]
  00078	50		 push	 eax
  00079	68 00 00 00 00	 push	 OFFSET ??_C@_0DC@IEMCIPLH@?$FLCorrectRawDataWithRS?$FN?5Carrier?5?$CF@
  0007e	6a 07		 push	 7
  00080	e8 00 00 00 00	 call	 _WriteDebugLog
  00085	83 c4 0c	 add	 esp, 12			; 0000000cH

; 741  : 		return bytRawData[0];			// don't do it again

  00088	8b 45 08	 mov	 eax, DWORD PTR _bytRawData$[ebp]
  0008b	0f b6 00	 movzx	 eax, BYTE PTR [eax]
  0008e	e9 4d 01 00 00	 jmp	 $LN10@CorrectRaw
$LN8@CorrectRaw:

; 742  : 	}
; 743  : 
; 744  : 	if (CheckCRC16FrameType(bytRawData, intDataLen + 1, bytFrameType)) // No RS correction needed

  00093	8a 45 18	 mov	 al, BYTE PTR _bytFrameType$[ebp]
  00096	50		 push	 eax
  00097	8b 4d 10	 mov	 ecx, DWORD PTR _intDataLen$[ebp]
  0009a	83 c1 01	 add	 ecx, 1
  0009d	51		 push	 ecx
  0009e	8b 55 08	 mov	 edx, DWORD PTR _bytRawData$[ebp]
  000a1	52		 push	 edx
  000a2	e8 00 00 00 00	 call	 _CheckCRC16FrameType
  000a7	83 c4 0c	 add	 esp, 12			; 0000000cH
  000aa	85 c0		 test	 eax, eax
  000ac	74 3e		 je	 SHORT $LN7@CorrectRaw

; 745  : 	{
; 746  : 		// return the actual data
; 747  : 		
; 748  : 		memcpy(bytCorrectedData, &bytRawData[1], bytRawData[0]);    

  000ae	8b 45 08	 mov	 eax, DWORD PTR _bytRawData$[ebp]
  000b1	0f b6 08	 movzx	 ecx, BYTE PTR [eax]
  000b4	51		 push	 ecx
  000b5	8b 55 08	 mov	 edx, DWORD PTR _bytRawData$[ebp]
  000b8	83 c2 01	 add	 edx, 1
  000bb	52		 push	 edx
  000bc	8b 45 0c	 mov	 eax, DWORD PTR _bytCorrectedData$[ebp]
  000bf	50		 push	 eax
  000c0	e8 00 00 00 00	 call	 _memcpy
  000c5	83 c4 0c	 add	 esp, 12			; 0000000cH

; 749  : 		WriteDebugLog(LOGDEBUG, "[CorrectRawDataWithRS] OK without RS");

  000c8	68 00 00 00 00	 push	 OFFSET ??_C@_0CF@PNIEDINJ@?$FLCorrectRawDataWithRS?$FN?5OK?5withou@
  000cd	6a 07		 push	 7
  000cf	e8 00 00 00 00	 call	 _WriteDebugLog
  000d4	83 c4 08	 add	 esp, 8

; 750  : 		CarrierOk[Carrier] = TRUE;

  000d7	8b 45 1c	 mov	 eax, DWORD PTR _Carrier$[ebp]
  000da	c6 80 00 00 00
	00 01		 mov	 BYTE PTR _CarrierOk[eax], 1

; 751  : 		return bytRawData[0];

  000e1	8b 45 08	 mov	 eax, DWORD PTR _bytRawData$[ebp]
  000e4	0f b6 00	 movzx	 eax, BYTE PTR [eax]
  000e7	e9 f4 00 00 00	 jmp	 $LN10@CorrectRaw
$LN7@CorrectRaw:

; 752  : 	}
; 753  : 	
; 754  : 	// Try correcting with RS Parity
; 755  : 
; 756  : 	FrameOK = RSDecode(bytRawData, intDataLen + 3 + intRSLen, intRSLen, &blnRSOK);

  000ec	8d 45 f8	 lea	 eax, DWORD PTR _blnRSOK$[ebp]
  000ef	50		 push	 eax
  000f0	8b 4d 14	 mov	 ecx, DWORD PTR _intRSLen$[ebp]
  000f3	51		 push	 ecx
  000f4	8b 55 14	 mov	 edx, DWORD PTR _intRSLen$[ebp]
  000f7	8b 45 10	 mov	 eax, DWORD PTR _intDataLen$[ebp]
  000fa	8d 4c 10 03	 lea	 ecx, DWORD PTR [eax+edx+3]
  000fe	51		 push	 ecx
  000ff	8b 55 08	 mov	 edx, DWORD PTR _bytRawData$[ebp]
  00102	52		 push	 edx
  00103	e8 00 00 00 00	 call	 _RSDecode
  00108	83 c4 10	 add	 esp, 16			; 00000010H
  0010b	89 45 ec	 mov	 DWORD PTR _FrameOK$[ebp], eax

; 757  : 
; 758  : 	if (blnRSOK)

  0010e	83 7d f8 00	 cmp	 DWORD PTR _blnRSOK$[ebp], 0
  00112	74 02		 je	 SHORT $LN6@CorrectRaw

; 759  : 	{}
; 760  : //		WriteDebugLog(LOGDEBUG, "RS Says OK without correction");
; 761  : 	else

  00114	eb 1c		 jmp	 SHORT $LN5@CorrectRaw
$LN6@CorrectRaw:

; 762  : 	if (FrameOK)

  00116	83 7d ec 00	 cmp	 DWORD PTR _FrameOK$[ebp], 0
  0011a	74 02		 je	 SHORT $LN4@CorrectRaw

; 763  : 	{}
; 764  : //		WriteDebugLog(LOGDEBUG, "RS Says OK after %d correction(s)", NErrors);
; 765  : 	else

  0011c	eb 14		 jmp	 SHORT $LN5@CorrectRaw
$LN4@CorrectRaw:

; 766  : 	{
; 767  : 		WriteDebugLog(LOGDEBUG, "[CorrectRawDataWithRS] RS Says Can't Correct");

  0011e	68 00 00 00 00	 push	 OFFSET ??_C@_0CN@PLLJCNFD@?$FLCorrectRawDataWithRS?$FN?5RS?5Says?5C@
  00123	6a 07		 push	 7
  00125	e8 00 00 00 00	 call	 _WriteDebugLog
  0012a	83 c4 08	 add	 esp, 8

; 768  : 		goto returnBad;

  0012d	e9 8a 00 00 00	 jmp	 $returnBad$5841
$LN5@CorrectRaw:

; 769  : 	}
; 770  : 
; 771  :     if (FrameOK &&  CheckCRC16FrameType(bytRawData, intDataLen + 1, bytFrameType)) // RS correction successful 

  00132	83 7d ec 00	 cmp	 DWORD PTR _FrameOK$[ebp], 0
  00136	74 75		 je	 SHORT $LN2@CorrectRaw
  00138	8a 45 18	 mov	 al, BYTE PTR _bytFrameType$[ebp]
  0013b	50		 push	 eax
  0013c	8b 4d 10	 mov	 ecx, DWORD PTR _intDataLen$[ebp]
  0013f	83 c1 01	 add	 ecx, 1
  00142	51		 push	 ecx
  00143	8b 55 08	 mov	 edx, DWORD PTR _bytRawData$[ebp]
  00146	52		 push	 edx
  00147	e8 00 00 00 00	 call	 _CheckCRC16FrameType
  0014c	83 c4 0c	 add	 esp, 12			; 0000000cH
  0014f	85 c0		 test	 eax, eax
  00151	74 5a		 je	 SHORT $LN2@CorrectRaw

; 772  : 	{
; 773  : 		int intFailedByteCnt = 0;

  00153	c7 45 e0 00 00
	00 00		 mov	 DWORD PTR _intFailedByteCnt$5843[ebp], 0

; 774  : 		
; 775  : 		// need to fix this if we want to use it
; 776  : 		//  test code just to determine how many corrections were applied  ...later remove
; 777  :         //for (j = 0 ; j < intDataLen + 3; j++)
; 778  : 		//{
; 779  : 		//	if (bytRawData[j] <> bytCorrectedData[j])
; 780  : 		//		intFailedByteCnt++;
; 781  : 		//}
; 782  : 
; 783  :         WriteDebugLog(LOGDEBUG, "[CorrectRawDataWithRS] OK with RS %d corrections", NErrors);

  0015a	a1 00 00 00 00	 mov	 eax, DWORD PTR _NErrors
  0015f	50		 push	 eax
  00160	68 00 00 00 00	 push	 OFFSET ??_C@_0DB@DEMODFFA@?$FLCorrectRawDataWithRS?$FN?5OK?5with?5R@
  00165	6a 07		 push	 7
  00167	e8 00 00 00 00	 call	 _WriteDebugLog
  0016c	83 c4 0c	 add	 esp, 12			; 0000000cH

; 784  : 		totalRSErrors += NErrors;

  0016f	a1 00 00 00 00	 mov	 eax, DWORD PTR _totalRSErrors
  00174	03 05 00 00 00
	00		 add	 eax, DWORD PTR _NErrors
  0017a	a3 00 00 00 00	 mov	 DWORD PTR _totalRSErrors, eax

; 785  :  
; 786  : 		// End of test code
; 787  : 
; 788  : 		memcpy(bytCorrectedData, &bytRawData[1], bytRawData[0]);  

  0017f	8b 45 08	 mov	 eax, DWORD PTR _bytRawData$[ebp]
  00182	0f b6 08	 movzx	 ecx, BYTE PTR [eax]
  00185	51		 push	 ecx
  00186	8b 55 08	 mov	 edx, DWORD PTR _bytRawData$[ebp]
  00189	83 c2 01	 add	 edx, 1
  0018c	52		 push	 edx
  0018d	8b 45 0c	 mov	 eax, DWORD PTR _bytCorrectedData$[ebp]
  00190	50		 push	 eax
  00191	e8 00 00 00 00	 call	 _memcpy
  00196	83 c4 0c	 add	 esp, 12			; 0000000cH

; 789  : 		CarrierOk[Carrier] = TRUE;

  00199	8b 45 1c	 mov	 eax, DWORD PTR _Carrier$[ebp]
  0019c	c6 80 00 00 00
	00 01		 mov	 BYTE PTR _CarrierOk[eax], 1

; 790  : 		return bytRawData[0];

  001a3	8b 45 08	 mov	 eax, DWORD PTR _bytRawData$[ebp]
  001a6	0f b6 00	 movzx	 eax, BYTE PTR [eax]
  001a9	eb 35		 jmp	 SHORT $LN10@CorrectRaw

; 791  : 	}
; 792  : 	else

  001ab	eb 0f		 jmp	 SHORT $returnBad$5841
$LN2@CorrectRaw:

; 793  :         WriteDebugLog(LOGDEBUG, "[CorrectRawDataWithRS] RS says ok but CRC still bad");

  001ad	68 00 00 00 00	 push	 OFFSET ??_C@_0DE@GNAPAMKO@?$FLCorrectRawDataWithRS?$FN?5RS?5says?5o@
  001b2	6a 07		 push	 7
  001b4	e8 00 00 00 00	 call	 _WriteDebugLog
  001b9	83 c4 08	 add	 esp, 8
$returnBad$5841:

; 794  : 	
; 795  : 	// return uncorrected data without byte count or RS Parity
; 796  : 
; 797  : returnBad:
; 798  : 
; 799  : 	memcpy(bytCorrectedData, &bytRawData[1], intDataLen);    

  001bc	8b 45 10	 mov	 eax, DWORD PTR _intDataLen$[ebp]
  001bf	50		 push	 eax
  001c0	8b 4d 08	 mov	 ecx, DWORD PTR _bytRawData$[ebp]
  001c3	83 c1 01	 add	 ecx, 1
  001c6	51		 push	 ecx
  001c7	8b 55 0c	 mov	 edx, DWORD PTR _bytCorrectedData$[ebp]
  001ca	52		 push	 edx
  001cb	e8 00 00 00 00	 call	 _memcpy
  001d0	83 c4 0c	 add	 esp, 12			; 0000000cH

; 800  : 
; 801  : 	//Array.Copy(bytRawData, 1, bytCorrectedData, 0, bytCorrectedData.Length) 
; 802  :      
; 803  : 	CarrierOk[Carrier] = FALSE;

  001d3	8b 45 1c	 mov	 eax, DWORD PTR _Carrier$[ebp]
  001d6	c6 80 00 00 00
	00 00		 mov	 BYTE PTR _CarrierOk[eax], 0

; 804  : 	return intDataLen;

  001dd	8b 45 10	 mov	 eax, DWORD PTR _intDataLen$[ebp]
$LN10@CorrectRaw:

; 805  : }

  001e0	52		 push	 edx
  001e1	8b cd		 mov	 ecx, ebp
  001e3	50		 push	 eax
  001e4	8d 15 00 00 00
	00		 lea	 edx, DWORD PTR $LN14@CorrectRaw
  001ea	e8 00 00 00 00	 call	 @_RTC_CheckStackVars@8
  001ef	58		 pop	 eax
  001f0	5a		 pop	 edx
  001f1	5f		 pop	 edi
  001f2	5e		 pop	 esi
  001f3	5b		 pop	 ebx
  001f4	81 c4 e4 00 00
	00		 add	 esp, 228		; 000000e4H
  001fa	3b ec		 cmp	 ebp, esp
  001fc	e8 00 00 00 00	 call	 __RTC_CheckEsp
  00201	8b e5		 mov	 esp, ebp
  00203	5d		 pop	 ebp
  00204	c3		 ret	 0
  00205	8d 49 00	 npad	 3
$LN14@CorrectRaw:
  00208	01 00 00 00	 DD	 1
  0020c	00 00 00 00	 DD	 $LN13@CorrectRaw
$LN13@CorrectRaw:
  00210	f8 ff ff ff	 DD	 -8			; fffffff8H
  00214	04 00 00 00	 DD	 4
  00218	00 00 00 00	 DD	 $LN12@CorrectRaw
$LN12@CorrectRaw:
  0021c	62		 DB	 98			; 00000062H
  0021d	6c		 DB	 108			; 0000006cH
  0021e	6e		 DB	 110			; 0000006eH
  0021f	52		 DB	 82			; 00000052H
  00220	53		 DB	 83			; 00000053H
  00221	4f		 DB	 79			; 0000004fH
  00222	4b		 DB	 75			; 0000004bH
  00223	00		 DB	 0
_CorrectRawDataWithRS ENDP
_TEXT	ENDS
PUBLIC	??_C@_03JFMEENOE@ERR?$AA@			; `string'
PUBLIC	??_C@_0BL@EBKFJBEL@Received?5Data?0?5No?5State?5?$CFs?$AA@ ; `string'
PUBLIC	??_C@_03OJBHPKML@IDF?$AA@			; `string'
PUBLIC	??_C@_03JJIFJOJL@QAM?$AA@			; `string'
PUBLIC	??_C@_03GIMBCJGG@PSK?$AA@			; `string'
PUBLIC	_DecodeFrame
PUBLIC	??_C@_0GD@LEDMPOGN@?$FLARDOPprotocol?4ProcessNewSamples@ ; `string'
PUBLIC	??_C@_0HE@GMFGFFGG@?$FLARDOPprotocol?4ProcessNewSamples@ ; `string'
PUBLIC	??_C@_0CP@JLDOIPPD@STATUS?5QUEUE?5BREAK?5new?5Protocol?5@ ; `string'
PUBLIC	??_C@_0FL@HDOBMIFN@?$FLARDOPprotocol?4ProcessNewSamples@ ; `string'
PUBLIC	??_C@_09GBPIIGEG@Qual?5?$DN?5?$CFd?$AA@		; `string'
PUBLIC	_Update8FSKConstellation
PUBLIC	??_C@_04GLIEPKGD@8FSK?$AA@			; `string'
PUBLIC	_Update16FSKConstellation
PUBLIC	??_C@_05GMHCMGLE@16FSK?$AA@			; `string'
PUBLIC	_Update4FSKConstellation
PUBLIC	??_C@_04KOHEBHGC@4FSK?$AA@			; `string'
PUBLIC	_DemodulateFrame
PUBLIC	??_C@_0CF@NGDJKDHP@MEMARQ?5Flags?5?$CFd?5?$CFd?5?$CFd?5?$CFd?5?$CFd?5?$CFd?5?$CF@ ; `string'
PUBLIC	??_C@_0CE@PACHHMPP@New?5frame?5type?5?9?5MEMARQ?5flags?5re@ ; `string'
PUBLIC	??_C@_0BJ@JADBCDC@?$FLDecodeFrame?$FN?5Frame?3?5?$CFs?5?$AA@ ; `string'
PUBLIC	??_C@_00CNPNBAHC@?$AA@				; `string'
PUBLIC	??_C@_0FI@LAFGIKHG@?$FLARDOPprotocol?4ProcessNewSamples@ ; `string'
PUBLIC	??_C@_0IL@FILFNEGA@?$FLARDOPprotocol?4ProcessNewSamples@ ; `string'
PUBLIC	??_C@_0P@MHCKBMIJ@bad?5frame?5type?$AA@		; `string'
PUBLIC	??_C@_0BH@KEHAODIE@poor?5frame?5type?5decode?$AA@ ; `string'
PUBLIC	_Acquire4FSKFrameType
PUBLIC	??_C@_0BD@MKHACAGP@frame?5sync?5timeout?$AA@	; `string'
PUBLIC	_AcquireFrameSyncRSB
PUBLIC	_Acquire2ToneLeaderSymbolFraming
PUBLIC	_SearchFor2ToneLeader3
PUBLIC	_ProcessNewSamples
EXTRN	_InitializeConnection:PROC
EXTRN	_intFailedFSKFrameDataDecodes:DWORD
EXTRN	_intFailedQAMFrameDataDecodes:DWORD
EXTRN	_intFailedPSKFrameDataDecodes:DWORD
EXTRN	_ProcessRcvdARQFrame:PROC
EXTRN	_blnTimeoutTriggered:DWORD
EXTRN	_ProcessUnconnectedConReqFrame:PROC
EXTRN	_AddTagToDataAndSendToHost:PROC
EXTRN	_ProcessRcvdFECDataFrame:PROC
EXTRN	_intGoodFSKFrameDataDecodes:DWORD
EXTRN	_intGoodQAMFrameDataDecodes:DWORD
EXTRN	_intGoodPSKFrameDataDecodes:DWORD
EXTRN	_AccumulateStats:DWORD
EXTRN	_Mod4FSKDataAndPlay:PROC
EXTRN	_intARQDefaultDlyMs:DWORD
EXTRN	_EncLen:DWORD
EXTRN	_Encode4FSKControl:PROC
EXTRN	_bytSessionID:BYTE
EXTRN	_bytEncodedBytes:BYTE
EXTRN	_bytDataToSendLength:DWORD
EXTRN	_ARDOPStates:BYTE
EXTRN	_SendCommandToHost:PROC
EXTRN	_intFrameRepeatInterval:DWORD
EXTRN	_ComputeInterFrameInterval:PROC
EXTRN	_rand:PROC
EXTRN	_bytLastACKedDataFrameType:BYTE
EXTRN	_blnBREAKCmd:DWORD
EXTRN	_intLastRcvdFrameQuality:DWORD
EXTRN	_strcmp:PROC
EXTRN	_ProtocolMode:DWORD
EXTRN	_memset:PROC
EXTRN	_Rate:BYTE
EXTRN	_DecodeCompleteTime:DWORD
EXTRN	_SendData:PROC
EXTRN	_intLinkTurnovers:DWORD
EXTRN	_SetARDOPProtocolState:PROC
EXTRN	_GetNextFrameData:PROC
EXTRN	_intShiftUpDn:DWORD
EXTRN	_bytCurrentFrameType:BYTE
EXTRN	_intLastARQDataFrameToHost:DWORD
EXTRN	_blnEnbARQRpt:DWORD
EXTRN	_ARQSubStates:BYTE
EXTRN	_ARQState:DWORD
EXTRN	_FrameInfo:PROC
EXTRN	_printtick:PROC
EXTRN	_SlowCPU:DWORD
EXTRN	_UpdateBusyDetector:PROC
EXTRN	_State:DWORD
EXTRN	_ProtocolState:DWORD
;	COMDAT ??_C@_03JFMEENOE@ERR?$AA@
CONST	SEGMENT
??_C@_03JFMEENOE@ERR?$AA@ DB 'ERR', 00H			; `string'
CONST	ENDS
;	COMDAT ??_C@_0BL@EBKFJBEL@Received?5Data?0?5No?5State?5?$CFs?$AA@
CONST	SEGMENT
??_C@_0BL@EBKFJBEL@Received?5Data?0?5No?5State?5?$CFs?$AA@ DB 'Received D'
	DB	'ata, No State %s', 00H			; `string'
CONST	ENDS
;	COMDAT ??_C@_03OJBHPKML@IDF?$AA@
CONST	SEGMENT
??_C@_03OJBHPKML@IDF?$AA@ DB 'IDF', 00H			; `string'
CONST	ENDS
;	COMDAT ??_C@_03JJIFJOJL@QAM?$AA@
CONST	SEGMENT
??_C@_03JJIFJOJL@QAM?$AA@ DB 'QAM', 00H			; `string'
CONST	ENDS
;	COMDAT ??_C@_03GIMBCJGG@PSK?$AA@
CONST	SEGMENT
??_C@_03GIMBCJGG@PSK?$AA@ DB 'PSK', 00H			; `string'
CONST	ENDS
;	COMDAT ??_C@_0GD@LEDMPOGN@?$FLARDOPprotocol?4ProcessNewSamples@
CONST	SEGMENT
??_C@_0GD@LEDMPOGN@?$FLARDOPprotocol?4ProcessNewSamples@ DB '[ARDOPprotoc'
	DB	'ol.ProcessNewSamples] Skip Data Decoding when ProtcolState=IR'
	DB	'StoISS, Answer with BREAK', 00H		; `string'
CONST	ENDS
;	COMDAT ??_C@_0HE@GMFGFFGG@?$FLARDOPprotocol?4ProcessNewSamples@
CONST	SEGMENT
??_C@_0HE@GMFGFFGG@?$FLARDOPprotocol?4ProcessNewSamples@ DB '[ARDOPprotoc'
	DB	'ol.ProcessNewSamples] %d bytes to send in ProtocolState: %s: '
	DB	'Send BREAK,  New state=IRStoISS (Rule 3.3)', 00H ; `string'
CONST	ENDS
;	COMDAT ??_C@_0CP@JLDOIPPD@STATUS?5QUEUE?5BREAK?5new?5Protocol?5@
CONST	SEGMENT
??_C@_0CP@JLDOIPPD@STATUS?5QUEUE?5BREAK?5new?5Protocol?5@ DB 'STATUS QUEU'
	DB	'E BREAK new Protocol State IRStoISS', 00H	; `string'
CONST	ENDS
;	COMDAT ??_C@_0FL@HDOBMIFN@?$FLARDOPprotocol?4ProcessNewSamples@
CONST	SEGMENT
??_C@_0FL@HDOBMIFN@?$FLARDOPprotocol?4ProcessNewSamples@ DB '[ARDOPprotoc'
	DB	'ol.ProcessNewSamples] Skip Data Decoding when blnBREAKCmd and'
	DB	' ProtcolState=IRS', 00H			; `string'
CONST	ENDS
;	COMDAT ??_C@_09GBPIIGEG@Qual?5?$DN?5?$CFd?$AA@
CONST	SEGMENT
??_C@_09GBPIIGEG@Qual?5?$DN?5?$CFd?$AA@ DB 'Qual = %d', 00H ; `string'
CONST	ENDS
;	COMDAT ??_C@_04GLIEPKGD@8FSK?$AA@
CONST	SEGMENT
??_C@_04GLIEPKGD@8FSK?$AA@ DB '8FSK', 00H		; `string'
CONST	ENDS
;	COMDAT ??_C@_05GMHCMGLE@16FSK?$AA@
CONST	SEGMENT
??_C@_05GMHCMGLE@16FSK?$AA@ DB '16FSK', 00H		; `string'
CONST	ENDS
;	COMDAT ??_C@_04KOHEBHGC@4FSK?$AA@
CONST	SEGMENT
??_C@_04KOHEBHGC@4FSK?$AA@ DB '4FSK', 00H		; `string'
CONST	ENDS
;	COMDAT ??_C@_0CF@NGDJKDHP@MEMARQ?5Flags?5?$CFd?5?$CFd?5?$CFd?5?$CFd?5?$CFd?5?$CFd?5?$CF@
CONST	SEGMENT
??_C@_0CF@NGDJKDHP@MEMARQ?5Flags?5?$CFd?5?$CFd?5?$CFd?5?$CFd?5?$CFd?5?$CFd?5?$CF@ DB 'M'
	DB	'EMARQ Flags %d %d %d %d %d %d %d %d', 00H	; `string'
CONST	ENDS
;	COMDAT ??_C@_0CE@PACHHMPP@New?5frame?5type?5?9?5MEMARQ?5flags?5re@
CONST	SEGMENT
??_C@_0CE@PACHHMPP@New?5frame?5type?5?9?5MEMARQ?5flags?5re@ DB 'New frame'
	DB	' type - MEMARQ flags reset', 00H		; `string'
CONST	ENDS
;	COMDAT ??_C@_0BJ@JADBCDC@?$FLDecodeFrame?$FN?5Frame?3?5?$CFs?5?$AA@
CONST	SEGMENT
??_C@_0BJ@JADBCDC@?$FLDecodeFrame?$FN?5Frame?3?5?$CFs?5?$AA@ DB '[DecodeF'
	DB	'rame] Frame: %s ', 00H			; `string'
CONST	ENDS
;	COMDAT ??_C@_00CNPNBAHC@?$AA@
CONST	SEGMENT
??_C@_00CNPNBAHC@?$AA@ DB 00H				; `string'
CONST	ENDS
;	COMDAT ??_C@_0FI@LAFGIKHG@?$FLARDOPprotocol?4ProcessNewSamples@
CONST	SEGMENT
??_C@_0FI@LAFGIKHG@?$FLARDOPprotocol?4ProcessNewSamples@ DB '[ARDOPprotoc'
	DB	'ol.ProcessNewSamples, ProtocolState=IRStoISS, Initializing Ge'
	DB	'tNextFrameData', 00H			; `string'
CONST	ENDS
;	COMDAT ??_C@_0IL@FILFNEGA@?$FLARDOPprotocol?4ProcessNewSamples@
CONST	SEGMENT
??_C@_0IL@FILFNEGA@?$FLARDOPprotocol?4ProcessNewSamples@ DB '[ARDOPprotoc'
	DB	'ol.ProcessNewSamples] ProtocolState=IRStoISS, substate = %s A'
	DB	'CK received. Cease BREAKS, NewProtocolState=ISS, substate ISS'
	DB	'Data', 00H					; `string'
CONST	ENDS
;	COMDAT ??_C@_0P@MHCKBMIJ@bad?5frame?5type?$AA@
CONST	SEGMENT
??_C@_0P@MHCKBMIJ@bad?5frame?5type?$AA@ DB 'bad frame type', 00H ; `string'
CONST	ENDS
;	COMDAT ??_C@_0BH@KEHAODIE@poor?5frame?5type?5decode?$AA@
CONST	SEGMENT
??_C@_0BH@KEHAODIE@poor?5frame?5type?5decode?$AA@ DB 'poor frame type dec'
	DB	'ode', 00H					; `string'
CONST	ENDS
;	COMDAT ??_C@_0BD@MKHACAGP@frame?5sync?5timeout?$AA@
CONST	SEGMENT
??_C@_0BD@MKHACAGP@frame?5sync?5timeout?$AA@ DB 'frame sync timeout', 00H ; `string'
; Function compile flags: /Odtp /RTCsu /ZI /ZX
CONST	ENDS
;	COMDAT _ProcessNewSamples
_TEXT	SEGMENT
_intSN$5873 = -20					; size = 4
_blnFrameDecodedOK$ = -8				; size = 4
_Samples$ = 8						; size = 4
_nSamples$ = 12						; size = 4
_ProcessNewSamples PROC					; COMDAT

; 819  : {

  00000	55		 push	 ebp
  00001	8b ec		 mov	 ebp, esp
  00003	81 ec d8 00 00
	00		 sub	 esp, 216		; 000000d8H
  00009	53		 push	 ebx
  0000a	56		 push	 esi
  0000b	57		 push	 edi
  0000c	8d bd 28 ff ff
	ff		 lea	 edi, DWORD PTR [ebp-216]
  00012	b9 36 00 00 00	 mov	 ecx, 54			; 00000036H
  00017	b8 cc cc cc cc	 mov	 eax, -858993460		; ccccccccH
  0001c	f3 ab		 rep stosd

; 820  : 	BOOL blnFrameDecodedOK = FALSE;

  0001e	c7 45 f8 00 00
	00 00		 mov	 DWORD PTR _blnFrameDecodedOK$[ebp], 0

; 821  : 
; 822  : //	LookforUZ7HOLeader(Samples, nSamples);
; 823  : 
; 824  : //	return;
; 825  : 
; 826  : 	if ((CarrierOk[0] && CarrierOk[0] != 1)
; 827  : 		|| (CarrierOk[1] && CarrierOk[1] != 1)
; 828  : 		|| (CarrierOk[2] && CarrierOk[2] != 1)
; 829  : 		|| (CarrierOk[3] && CarrierOk[3] != 1))

  00025	0f be 05 00 00
	00 00		 movsx	 eax, BYTE PTR _CarrierOk
  0002c	85 c0		 test	 eax, eax
  0002e	74 0c		 je	 SHORT $LN103@ProcessNew
  00030	0f be 05 00 00
	00 00		 movsx	 eax, BYTE PTR _CarrierOk
  00037	83 f8 01	 cmp	 eax, 1
  0003a	75 45		 jne	 SHORT $LN104@ProcessNew
$LN103@ProcessNew:
  0003c	0f be 05 01 00
	00 00		 movsx	 eax, BYTE PTR _CarrierOk+1
  00043	85 c0		 test	 eax, eax
  00045	74 0c		 je	 SHORT $LN102@ProcessNew
  00047	0f be 05 01 00
	00 00		 movsx	 eax, BYTE PTR _CarrierOk+1
  0004e	83 f8 01	 cmp	 eax, 1
  00051	75 2e		 jne	 SHORT $LN104@ProcessNew
$LN102@ProcessNew:
  00053	0f be 05 02 00
	00 00		 movsx	 eax, BYTE PTR _CarrierOk+2
  0005a	85 c0		 test	 eax, eax
  0005c	74 0c		 je	 SHORT $LN101@ProcessNew
  0005e	0f be 05 02 00
	00 00		 movsx	 eax, BYTE PTR _CarrierOk+2
  00065	83 f8 01	 cmp	 eax, 1
  00068	75 17		 jne	 SHORT $LN104@ProcessNew
$LN101@ProcessNew:
  0006a	0f be 05 03 00
	00 00		 movsx	 eax, BYTE PTR _CarrierOk+3
  00071	85 c0		 test	 eax, eax
  00073	74 16		 je	 SHORT $LN105@ProcessNew
  00075	0f be 05 03 00
	00 00		 movsx	 eax, BYTE PTR _CarrierOk+3
  0007c	83 f8 01	 cmp	 eax, 1
  0007f	74 0a		 je	 SHORT $LN105@ProcessNew
$LN104@ProcessNew:

; 830  : 		CarrierOk[0] = CarrierOk[0];

  00081	a0 00 00 00 00	 mov	 al, BYTE PTR _CarrierOk
  00086	a2 00 00 00 00	 mov	 BYTE PTR _CarrierOk, al
$LN105@ProcessNew:

; 831  : 
; 832  : 	if (ProtocolState == FECSend)

  0008b	83 3d 00 00 00
	00 06		 cmp	 DWORD PTR _ProtocolState, 6
  00092	75 05		 jne	 SHORT $LN100@ProcessNew

; 833  : 		return;

  00094	e9 95 0d 00 00	 jmp	 $LN55@ProcessNew
$LN100@ProcessNew:

; 834  : 
; 835  : 	// Append new data to anything in rawSamples
; 836  : 
; 837  : 	if (rawSamplesLength)

  00099	83 3d 00 00 00
	00 00		 cmp	 DWORD PTR _rawSamplesLength, 0
  000a0	74 3c		 je	 SHORT $LN99@ProcessNew

; 838  : 	{
; 839  : 		memcpy(&rawSamples[rawSamplesLength], Samples, nSamples * 2);

  000a2	8b 45 0c	 mov	 eax, DWORD PTR _nSamples$[ebp]
  000a5	d1 e0		 shl	 eax, 1
  000a7	50		 push	 eax
  000a8	8b 4d 08	 mov	 ecx, DWORD PTR _Samples$[ebp]
  000ab	51		 push	 ecx
  000ac	8b 15 00 00 00
	00		 mov	 edx, DWORD PTR _rawSamplesLength
  000b2	8d 04 55 00 00
	00 00		 lea	 eax, DWORD PTR _rawSamples[edx*2]
  000b9	50		 push	 eax
  000ba	e8 00 00 00 00	 call	 _memcpy
  000bf	83 c4 0c	 add	 esp, 12			; 0000000cH

; 840  : 		rawSamplesLength += nSamples;

  000c2	a1 00 00 00 00	 mov	 eax, DWORD PTR _rawSamplesLength
  000c7	03 45 0c	 add	 eax, DWORD PTR _nSamples$[ebp]
  000ca	a3 00 00 00 00	 mov	 DWORD PTR _rawSamplesLength, eax

; 841  : 
; 842  : 		nSamples = rawSamplesLength;

  000cf	a1 00 00 00 00	 mov	 eax, DWORD PTR _rawSamplesLength
  000d4	89 45 0c	 mov	 DWORD PTR _nSamples$[ebp], eax

; 843  : 		Samples = rawSamples;

  000d7	c7 45 08 00 00
	00 00		 mov	 DWORD PTR _Samples$[ebp], OFFSET _rawSamples
$LN99@ProcessNew:

; 844  : 	}
; 845  : 
; 846  : 	rawSamplesLength = 0;

  000de	c7 05 00 00 00
	00 00 00 00 00	 mov	 DWORD PTR _rawSamplesLength, 0

; 847  : 
; 848  : //	printtick("Start Busy");
; 849  : 	if (State == SearchingForLeader)

  000e8	83 3d 00 00 00
	00 00		 cmp	 DWORD PTR _State, 0
  000ef	75 0c		 jne	 SHORT $LN98@ProcessNew

; 850  : 		UpdateBusyDetector(Samples);

  000f1	8b 45 08	 mov	 eax, DWORD PTR _Samples$[ebp]
  000f4	50		 push	 eax
  000f5	e8 00 00 00 00	 call	 _UpdateBusyDetector
  000fa	83 c4 04	 add	 esp, 4
$LN98@ProcessNew:

; 851  : //	printtick("Done Busy");
; 852  : 
; 853  : 
; 854  : 	// it seems that searchforleader runs on unmixed and unfilered samples
; 855  : 
; 856  : 	// Searching for leader
; 857  : 
; 858  : 	if (State == SearchingForLeader)

  000fd	83 3d 00 00 00
	00 00		 cmp	 DWORD PTR _State, 0
  00104	0f 85 f2 00 00
	00		 jne	 $LN88@ProcessNew

; 859  : 	{
; 860  : 		// Search for leader as long as 960 samples (8  symbols) available
; 861  : 
; 862  : //		printtick("Start Leader Search");
; 863  : 
; 864  : 		if (nSamples >= 1200)

  0010a	81 7d 0c b0 04
	00 00		 cmp	 DWORD PTR _nSamples$[ebp], 1200 ; 000004b0H
  00111	7c 0e		 jl	 SHORT $LN95@ProcessNew

; 865  : 		{
; 866  : 			//	printtick("Start Busy");
; 867  : //			if (State == SearchingForLeader)
; 868  : //				UpdateBusyDetector(Samples);
; 869  : 			//	printtick("Done Busy");
; 870  : 		
; 871  : 			if (ProtocolState == FECSend)

  00113	83 3d 00 00 00
	00 06		 cmp	 DWORD PTR _ProtocolState, 6
  0011a	75 05		 jne	 SHORT $LN95@ProcessNew

; 872  : 					return;

  0011c	e9 0d 0d 00 00	 jmp	 $LN55@ProcessNew
$LN95@ProcessNew:

; 873  : 		}
; 874  : 		while (State == SearchingForLeader && nSamples >= 1200)

  00121	83 3d 00 00 00
	00 00		 cmp	 DWORD PTR _State, 0
  00128	0f 85 a1 00 00
	00		 jne	 $LN93@ProcessNew
  0012e	81 7d 0c b0 04
	00 00		 cmp	 DWORD PTR _nSamples$[ebp], 1200 ; 000004b0H
  00135	0f 8c 94 00 00
	00		 jl	 $LN93@ProcessNew

; 875  : 		{
; 876  : 			int intSN;
; 877  : 			
; 878  : 			blnLeaderFound = SearchFor2ToneLeader3(Samples, nSamples, &dblOffsetHz, &intSN);

  0013b	8d 45 ec	 lea	 eax, DWORD PTR _intSN$5873[ebp]
  0013e	50		 push	 eax
  0013f	68 00 00 00 00	 push	 OFFSET _dblOffsetHz
  00144	8b 4d 0c	 mov	 ecx, DWORD PTR _nSamples$[ebp]
  00147	51		 push	 ecx
  00148	8b 55 08	 mov	 edx, DWORD PTR _Samples$[ebp]
  0014b	52		 push	 edx
  0014c	e8 00 00 00 00	 call	 _SearchFor2ToneLeader3
  00151	83 c4 10	 add	 esp, 16			; 00000010H
  00154	a3 00 00 00 00	 mov	 DWORD PTR _blnLeaderFound, eax

; 879  : //			blnLeaderFound = SearchFor2ToneLeader2(Samples, nSamples, &dblOffsetHz, &intSN);
; 880  : 		
; 881  : 			if (blnLeaderFound)

  00159	83 3d 00 00 00
	00 00		 cmp	 DWORD PTR _blnLeaderFound, 0
  00160	74 31		 je	 SHORT $LN92@ProcessNew

; 882  : 			{
; 883  : //				WriteDebugLog(LOGDEBUG, "Got Leader");
; 884  : 
; 885  : 				dttLastLeaderDetect = Now;

  00162	e8 00 00 00 00	 call	 _getTicks
  00167	a3 00 00 00 00	 mov	 DWORD PTR _dttLastLeaderDetect, eax

; 886  : 
; 887  : 				nSamples -= 480;

  0016c	8b 45 0c	 mov	 eax, DWORD PTR _nSamples$[ebp]
  0016f	2d e0 01 00 00	 sub	 eax, 480		; 000001e0H
  00174	89 45 0c	 mov	 DWORD PTR _nSamples$[ebp], eax

; 888  : 				Samples += 480;		// !!!! needs attention !!!

  00177	8b 45 08	 mov	 eax, DWORD PTR _Samples$[ebp]
  0017a	05 c0 03 00 00	 add	 eax, 960		; 000003c0H
  0017f	89 45 08	 mov	 DWORD PTR _Samples$[ebp], eax

; 889  : 
; 890  : 				InitializeMixedSamples();

  00182	e8 00 00 00 00	 call	 _InitializeMixedSamples

; 891  : 				State = AcquireSymbolSync;

  00187	c7 05 00 00 00
	00 01 00 00 00	 mov	 DWORD PTR _State, 1

; 892  : 			}
; 893  : 			else

  00191	eb 37		 jmp	 SHORT $LN89@ProcessNew
$LN92@ProcessNew:

; 894  : 			{
; 895  : 				if (SlowCPU)

  00193	83 3d 00 00 00
	00 00		 cmp	 DWORD PTR _SlowCPU, 0
  0019a	74 18		 je	 SHORT $LN90@ProcessNew

; 896  : 				{
; 897  : 					nSamples -= 480;

  0019c	8b 45 0c	 mov	 eax, DWORD PTR _nSamples$[ebp]
  0019f	2d e0 01 00 00	 sub	 eax, 480		; 000001e0H
  001a4	89 45 0c	 mov	 DWORD PTR _nSamples$[ebp], eax

; 898  : 					Samples += 480;		 // advance pointer 2 symbols (40 ms) ' reduce CPU loading

  001a7	8b 45 08	 mov	 eax, DWORD PTR _Samples$[ebp]
  001aa	05 c0 03 00 00	 add	 eax, 960		; 000003c0H
  001af	89 45 08	 mov	 DWORD PTR _Samples$[ebp], eax

; 899  : 				}
; 900  : 				else

  001b2	eb 16		 jmp	 SHORT $LN89@ProcessNew
$LN90@ProcessNew:

; 901  : 				{
; 902  : 					nSamples -= 240;

  001b4	8b 45 0c	 mov	 eax, DWORD PTR _nSamples$[ebp]
  001b7	2d f0 00 00 00	 sub	 eax, 240		; 000000f0H
  001bc	89 45 0c	 mov	 DWORD PTR _nSamples$[ebp], eax

; 903  : 					Samples += 240;		// !!!! needs attention !!!

  001bf	8b 45 08	 mov	 eax, DWORD PTR _Samples$[ebp]
  001c2	05 e0 01 00 00	 add	 eax, 480		; 000001e0H
  001c7	89 45 08	 mov	 DWORD PTR _Samples$[ebp], eax
$LN89@ProcessNew:

; 904  : 				}
; 905  : 			}
; 906  : 		}

  001ca	e9 52 ff ff ff	 jmp	 $LN95@ProcessNew
$LN93@ProcessNew:

; 907  : 		if (State == SearchingForLeader)

  001cf	83 3d 00 00 00
	00 00		 cmp	 DWORD PTR _State, 0
  001d6	75 24		 jne	 SHORT $LN88@ProcessNew

; 908  : 		{
; 909  : 			// Save unused samples
; 910  : 
; 911  : 			memmove(rawSamples, Samples, nSamples * 2);

  001d8	8b 45 0c	 mov	 eax, DWORD PTR _nSamples$[ebp]
  001db	d1 e0		 shl	 eax, 1
  001dd	50		 push	 eax
  001de	8b 4d 08	 mov	 ecx, DWORD PTR _Samples$[ebp]
  001e1	51		 push	 ecx
  001e2	68 00 00 00 00	 push	 OFFSET _rawSamples
  001e7	e8 00 00 00 00	 call	 _memmove
  001ec	83 c4 0c	 add	 esp, 12			; 0000000cH

; 912  : 			rawSamplesLength = nSamples;

  001ef	8b 45 0c	 mov	 eax, DWORD PTR _nSamples$[ebp]
  001f2	a3 00 00 00 00	 mov	 DWORD PTR _rawSamplesLength, eax

; 913  : 
; 914  : //			printtick("End Leader Search");
; 915  : 
; 916  : 			return;

  001f7	e9 32 0c 00 00	 jmp	 $LN55@ProcessNew
$LN88@ProcessNew:

; 917  : 		}
; 918  : 	}
; 919  : 
; 920  : 
; 921  : 	// Got leader
; 922  : 
; 923  : 	//	At this point samples haven't been processed, and are in Samples, len nSamples
; 924  : 
; 925  : 	// I'm going to filter all samples into intFilteredMixedSamples.
; 926  : 
; 927  : //	printtick("Start Mix");
; 928  : 
; 929  : 	MixNCOFilter(Samples, nSamples, dblOffsetHz); // Mix and filter new samples (Mixing consumes all intRcvdSamples)

  001fc	51		 push	 ecx
  001fd	d9 05 00 00 00
	00		 fld	 DWORD PTR _dblOffsetHz
  00203	d9 1c 24	 fstp	 DWORD PTR [esp]
  00206	8b 45 0c	 mov	 eax, DWORD PTR _nSamples$[ebp]
  00209	50		 push	 eax
  0020a	8b 4d 08	 mov	 ecx, DWORD PTR _Samples$[ebp]
  0020d	51		 push	 ecx
  0020e	e8 00 00 00 00	 call	 _MixNCOFilter
  00213	83 c4 0c	 add	 esp, 12			; 0000000cH

; 930  : 	nSamples = 0;	//	all used

  00216	c7 45 0c 00 00
	00 00		 mov	 DWORD PTR _nSamples$[ebp], 0

; 931  : 
; 932  : //	printtick("Done Mix Samples");
; 933  : 
; 934  : 	// Acquire Symbol Sync 
; 935  : 
; 936  :     if (State == AcquireSymbolSync)

  0021d	83 3d 00 00 00
	00 01		 cmp	 DWORD PTR _State, 1
  00224	75 4a		 jne	 SHORT $LN84@ProcessNew

; 937  : 	{
; 938  : 		if ((intFilteredMixedSamplesLength - intMFSReadPtr) > 860)

  00226	a1 00 00 00 00	 mov	 eax, DWORD PTR _intFilteredMixedSamplesLength
  0022b	2b 05 00 00 00
	00		 sub	 eax, DWORD PTR _intMFSReadPtr
  00231	3d 5c 03 00 00	 cmp	 eax, 860		; 0000035cH
  00236	7e 38		 jle	 SHORT $LN84@ProcessNew

; 939  : 		{
; 940  : 			blnSymbolSyncFound = Acquire2ToneLeaderSymbolFraming();  // adjust the pointer to the nominal symbol start based on phase

  00238	e8 00 00 00 00	 call	 _Acquire2ToneLeaderSymbolFraming
  0023d	a3 00 00 00 00	 mov	 DWORD PTR _blnSymbolSyncFound, eax

; 941  : 			if (blnSymbolSyncFound)

  00242	83 3d 00 00 00
	00 00		 cmp	 DWORD PTR _blnSymbolSyncFound, 0
  00249	74 0c		 je	 SHORT $LN85@ProcessNew

; 942  : 				State = AcquireFrameSync;

  0024b	c7 05 00 00 00
	00 02 00 00 00	 mov	 DWORD PTR _State, 2

; 943  : 			else

  00255	eb 19		 jmp	 SHORT $LN84@ProcessNew
$LN85@ProcessNew:

; 944  : 			{
; 945  : 				DiscardOldSamples();

  00257	e8 00 00 00 00	 call	 _DiscardOldSamples

; 946  : 				ClearAllMixedSamples();

  0025c	e8 00 00 00 00	 call	 _ClearAllMixedSamples

; 947  : 				State = SearchingForLeader;

  00261	c7 05 00 00 00
	00 00 00 00 00	 mov	 DWORD PTR _State, 0

; 948  : 				return;

  0026b	e9 be 0b 00 00	 jmp	 $LN55@ProcessNew
$LN84@ProcessNew:

; 949  : 			}
; 950  : //			printtick("Got Sym Sync");
; 951  : 		}
; 952  : 	}
; 953  : 	
; 954  : 	//	Acquire Frame Sync
; 955  : 	
; 956  : 	if (State == AcquireFrameSync)

  00270	83 3d 00 00 00
	00 02		 cmp	 DWORD PTR _State, 2
  00277	0f 85 9e 00 00
	00		 jne	 $LN80@ProcessNew

; 957  : 	{
; 958  : 		blnFrameSyncFound = AcquireFrameSyncRSB();

  0027d	e8 00 00 00 00	 call	 _AcquireFrameSyncRSB
  00282	a3 00 00 00 00	 mov	 DWORD PTR _blnFrameSyncFound, eax

; 959  : 	
; 960  : 		if (blnFrameSyncFound)

  00287	83 3d 00 00 00
	00 00		 cmp	 DWORD PTR _blnFrameSyncFound, 0
  0028e	74 0a		 je	 SHORT $LN82@ProcessNew

; 961  : 		{
; 962  : 			State = AcquireFrameType;

  00290	c7 05 00 00 00
	00 03 00 00 00	 mov	 DWORD PTR _State, 3
$LN82@ProcessNew:

; 963  : 				
; 964  : 			//	Have frame Sync. Remove used samples from buffer
; 965  : 
; 966  : //			printtick("Got Frame Sync");
; 967  : 
; 968  : 		}
; 969  : 
; 970  : 		// Remove used samples
; 971  : 
; 972  : 		intFilteredMixedSamplesLength -= intMFSReadPtr;

  0029a	a1 00 00 00 00	 mov	 eax, DWORD PTR _intFilteredMixedSamplesLength
  0029f	2b 05 00 00 00
	00		 sub	 eax, DWORD PTR _intMFSReadPtr
  002a5	a3 00 00 00 00	 mov	 DWORD PTR _intFilteredMixedSamplesLength, eax

; 973  : 
; 974  : 			if (intFilteredMixedSamplesLength < 0)

  002aa	79 0f		 jns	 SHORT $LN81@ProcessNew

; 975  : 		WriteDebugLog(LOGDEBUG, "Corrupt intFilteredMixedSamplesLength");

  002ac	68 00 00 00 00	 push	 OFFSET ??_C@_0CG@FPICEEGC@Corrupt?5intFilteredMixedSamplesL@
  002b1	6a 07		 push	 7
  002b3	e8 00 00 00 00	 call	 _WriteDebugLog
  002b8	83 c4 08	 add	 esp, 8
$LN81@ProcessNew:

; 976  : 
; 977  : 
; 978  : 		memmove(intFilteredMixedSamples,
; 979  : 			&intFilteredMixedSamples[intMFSReadPtr], intFilteredMixedSamplesLength * 2);

  002bb	a1 00 00 00 00	 mov	 eax, DWORD PTR _intFilteredMixedSamplesLength
  002c0	d1 e0		 shl	 eax, 1
  002c2	50		 push	 eax
  002c3	8b 0d 00 00 00
	00		 mov	 ecx, DWORD PTR _intMFSReadPtr
  002c9	8d 14 4d 00 00
	00 00		 lea	 edx, DWORD PTR _intFilteredMixedSamples[ecx*2]
  002d0	52		 push	 edx
  002d1	68 00 00 00 00	 push	 OFFSET _intFilteredMixedSamples
  002d6	e8 00 00 00 00	 call	 _memmove
  002db	83 c4 0c	 add	 esp, 12			; 0000000cH

; 980  : 
; 981  : 		intMFSReadPtr = 0;

  002de	c7 05 00 00 00
	00 00 00 00 00	 mov	 DWORD PTR _intMFSReadPtr, 0

; 982  : 
; 983  : 		if ((Now - dttLastLeaderDetect) > 1000)		 // no Frame sync within 1000 ms (may want to make this limit a funciton of Mode and leaders)

  002e8	e8 00 00 00 00	 call	 _getTicks
  002ed	2b 05 00 00 00
	00		 sub	 eax, DWORD PTR _dttLastLeaderDetect
  002f3	3d e8 03 00 00	 cmp	 eax, 1000		; 000003e8H
  002f8	76 21		 jbe	 SHORT $LN80@ProcessNew

; 984  : 		{
; 985  : 			DiscardOldSamples();

  002fa	e8 00 00 00 00	 call	 _DiscardOldSamples

; 986  : 			ClearAllMixedSamples();

  002ff	e8 00 00 00 00	 call	 _ClearAllMixedSamples

; 987  : 			State = SearchingForLeader;

  00304	c7 05 00 00 00
	00 00 00 00 00	 mov	 DWORD PTR _State, 0

; 988  : 			printtick("frame sync timeout");

  0030e	68 00 00 00 00	 push	 OFFSET ??_C@_0BD@MKHACAGP@frame?5sync?5timeout?$AA@
  00313	e8 00 00 00 00	 call	 _printtick
  00318	83 c4 04	 add	 esp, 4
$LN80@ProcessNew:

; 989  : 		}
; 990  : 	}
; 991  : 	
; 992  : 	//	Acquire Frame Type
; 993  : 
; 994  : 	if (State == AcquireFrameType)

  0031b	83 3d 00 00 00
	00 03		 cmp	 DWORD PTR _State, 3
  00322	0f 85 57 04 00
	00		 jne	 $LN76@ProcessNew

; 995  : 	{
; 996  : //		printtick("getting frame type");
; 997  : 
; 998  : 		intFrameType = Acquire4FSKFrameType();

  00328	e8 00 00 00 00	 call	 _Acquire4FSKFrameType
  0032d	a3 00 00 00 00	 mov	 DWORD PTR _intFrameType, eax

; 999  : 		if (intFrameType == -2)

  00332	83 3d 00 00 00
	00 fe		 cmp	 DWORD PTR _intFrameType, -2 ; fffffffeH
  00339	75 05		 jne	 SHORT $LN78@ProcessNew

; 1000 : 		{
; 1001 : //			sprintf(Msg, "not enough %d %d", intFilteredMixedSamplesLength, intMFSReadPtr);
; 1002 : //			printtick(Msg);
; 1003 : 			return;		//  insufficient samples

  0033b	e9 ee 0a 00 00	 jmp	 $LN55@ProcessNew
$LN78@ProcessNew:

; 1004 : 		}
; 1005 : 
; 1006 : 		if (intFrameType == -1)		  // poor decode quality (large decode distance)

  00340	83 3d 00 00 00
	00 ff		 cmp	 DWORD PTR _intFrameType, -1
  00347	75 28		 jne	 SHORT $LN77@ProcessNew

; 1007 : 		{
; 1008 : 			State = SearchingForLeader;

  00349	c7 05 00 00 00
	00 00 00 00 00	 mov	 DWORD PTR _State, 0

; 1009 : 			ClearAllMixedSamples();

  00353	e8 00 00 00 00	 call	 _ClearAllMixedSamples

; 1010 : 			DiscardOldSamples();

  00358	e8 00 00 00 00	 call	 _DiscardOldSamples

; 1011 : 			WriteDebugLog(LOGDEBUG, "poor frame type decode");

  0035d	68 00 00 00 00	 push	 OFFSET ??_C@_0BH@KEHAODIE@poor?5frame?5type?5decode?$AA@
  00362	6a 07		 push	 7
  00364	e8 00 00 00 00	 call	 _WriteDebugLog
  00369	83 c4 08	 add	 esp, 8

; 1012 : 
; 1013 : 			// stcStatus.BackColor = SystemColors.Control
; 1014 : 			// stcStatus.Text = ""
; 1015 : 			// stcStatus.ControlName = "lblRcvFrame"
; 1016 : 			// queTNCStatus.Enqueue(stcStatus)
; 1017 : 		}
; 1018 : 		else

  0036c	e9 0e 04 00 00	 jmp	 $LN76@ProcessNew
$LN77@ProcessNew:

; 1019 : 		{
; 1020 : 			//	Get Frame info and Initialise Demodulate variables
; 1021 : 
; 1022 : 			// We've used intMFSReadPtr samples, so remove from Buffer
; 1023 : 
; 1024 : //			sprintf(Msg, "Got Frame Type %x", intFrameType);
; 1025 : //			printtick(Msg);
; 1026 : 
; 1027 : 			intFilteredMixedSamplesLength -= intMFSReadPtr;

  00371	a1 00 00 00 00	 mov	 eax, DWORD PTR _intFilteredMixedSamplesLength
  00376	2b 05 00 00 00
	00		 sub	 eax, DWORD PTR _intMFSReadPtr
  0037c	a3 00 00 00 00	 mov	 DWORD PTR _intFilteredMixedSamplesLength, eax

; 1028 : 	
; 1029 : 			if (intFilteredMixedSamplesLength < 0)

  00381	79 0f		 jns	 SHORT $LN75@ProcessNew

; 1030 : 				WriteDebugLog(LOGDEBUG, "Corrupt intFilteredMixedSamplesLength");

  00383	68 00 00 00 00	 push	 OFFSET ??_C@_0CG@FPICEEGC@Corrupt?5intFilteredMixedSamplesL@
  00388	6a 07		 push	 7
  0038a	e8 00 00 00 00	 call	 _WriteDebugLog
  0038f	83 c4 08	 add	 esp, 8
$LN75@ProcessNew:

; 1031 : 	
; 1032 : 			memmove(intFilteredMixedSamples,
; 1033 : 				&intFilteredMixedSamples[intMFSReadPtr], intFilteredMixedSamplesLength * 2); 

  00392	a1 00 00 00 00	 mov	 eax, DWORD PTR _intFilteredMixedSamplesLength
  00397	d1 e0		 shl	 eax, 1
  00399	50		 push	 eax
  0039a	8b 0d 00 00 00
	00		 mov	 ecx, DWORD PTR _intMFSReadPtr
  003a0	8d 14 4d 00 00
	00 00		 lea	 edx, DWORD PTR _intFilteredMixedSamples[ecx*2]
  003a7	52		 push	 edx
  003a8	68 00 00 00 00	 push	 OFFSET _intFilteredMixedSamples
  003ad	e8 00 00 00 00	 call	 _memmove
  003b2	83 c4 0c	 add	 esp, 12			; 0000000cH

; 1034 : 
; 1035 : 			intMFSReadPtr = 0;

  003b5	c7 05 00 00 00
	00 00 00 00 00	 mov	 DWORD PTR _intMFSReadPtr, 0

; 1036 : 
; 1037 : 			if (!FrameInfo(intFrameType, &blnOdd, &intNumCar, strMod, &intBaud, &intDataLen, &intRSLen, &bytMinQualThresh, strType))

  003bf	68 00 00 00 00	 push	 OFFSET _strType
  003c4	68 00 00 00 00	 push	 OFFSET _bytMinQualThresh
  003c9	68 00 00 00 00	 push	 OFFSET _intRSLen
  003ce	68 00 00 00 00	 push	 OFFSET _intDataLen
  003d3	68 00 00 00 00	 push	 OFFSET _intBaud
  003d8	68 00 00 00 00	 push	 OFFSET _strMod
  003dd	68 00 00 00 00	 push	 OFFSET _intNumCar
  003e2	68 00 00 00 00	 push	 OFFSET _blnOdd
  003e7	a0 00 00 00 00	 mov	 al, BYTE PTR _intFrameType
  003ec	50		 push	 eax
  003ed	e8 00 00 00 00	 call	 _FrameInfo
  003f2	83 c4 24	 add	 esp, 36			; 00000024H
  003f5	85 c0		 test	 eax, eax
  003f7	75 26		 jne	 SHORT $LN74@ProcessNew

; 1038 : 			{
; 1039 : 				printtick("bad frame type");

  003f9	68 00 00 00 00	 push	 OFFSET ??_C@_0P@MHCKBMIJ@bad?5frame?5type?$AA@
  003fe	e8 00 00 00 00	 call	 _printtick
  00403	83 c4 04	 add	 esp, 4

; 1040 : 				State = SearchingForLeader;

  00406	c7 05 00 00 00
	00 00 00 00 00	 mov	 DWORD PTR _State, 0

; 1041 : 				ClearAllMixedSamples();

  00410	e8 00 00 00 00	 call	 _ClearAllMixedSamples

; 1042 : 				DiscardOldSamples();

  00415	e8 00 00 00 00	 call	 _DiscardOldSamples

; 1043 : 				return;

  0041a	e9 0f 0a 00 00	 jmp	 $LN55@ProcessNew
$LN74@ProcessNew:

; 1044 : 			}
; 1045 : 
; 1046 : 			if (IsShortControlFrame(intFrameType))

  0041f	a0 00 00 00 00	 mov	 al, BYTE PTR _intFrameType
  00424	50		 push	 eax
  00425	e8 00 00 00 00	 call	 _IsShortControlFrame
  0042a	83 c4 04	 add	 esp, 4
  0042d	85 c0		 test	 eax, eax
  0042f	0f 84 f1 00 00
	00		 je	 $LN73@ProcessNew

; 1047 : 			{
; 1048 : 				// Frame has no data so is now complete
; 1049 : 
; 1050 : 				// See if IRStoISS shortcut can be invoked
; 1051 : 				
; 1052 : 				if (ProtocolState == IRStoISS && intFrameType >= 0xe0)

  00435	83 3d 00 00 00
	00 05		 cmp	 DWORD PTR _ProtocolState, 5
  0043c	0f 85 9c 00 00
	00		 jne	 $LN72@ProcessNew
  00442	81 3d 00 00 00
	00 e0 00 00 00	 cmp	 DWORD PTR _intFrameType, 224 ; 000000e0H
  0044c	0f 8c 8c 00 00
	00		 jl	 $LN72@ProcessNew

; 1053 : 				{
; 1054 : 					//	In this state transition to ISS if  ACK frame 
; 1055 : 		
; 1056 : 					WriteDebugLog(LOGDEBUG, "[ARDOPprotocol.ProcessNewSamples] ProtocolState=IRStoISS, substate = %s ACK received. Cease BREAKS, NewProtocolState=ISS, substate ISSData", ARQSubStates[ARQState]);

  00452	a1 00 00 00 00	 mov	 eax, DWORD PTR _ARQState
  00457	6b c0 0b	 imul	 eax, 11			; 0000000bH
  0045a	05 00 00 00 00	 add	 eax, OFFSET _ARQSubStates
  0045f	50		 push	 eax
  00460	68 00 00 00 00	 push	 OFFSET ??_C@_0IL@FILFNEGA@?$FLARDOPprotocol?4ProcessNewSamples@
  00465	6a 07		 push	 7
  00467	e8 00 00 00 00	 call	 _WriteDebugLog
  0046c	83 c4 0c	 add	 esp, 12			; 0000000cH

; 1057 : 					blnEnbARQRpt = FALSE;	// stop the BREAK repeats

  0046f	c7 05 00 00 00
	00 00 00 00 00	 mov	 DWORD PTR _blnEnbARQRpt, 0

; 1058 : 					intLastARQDataFrameToHost = -1; // initialize to illegal value to capture first new ISS frame and pass to host

  00479	c7 05 00 00 00
	00 ff ff ff ff	 mov	 DWORD PTR _intLastARQDataFrameToHost, -1

; 1059 : 
; 1060 : 					if (bytCurrentFrameType == 0) //  hasn't been initialized yet

  00483	0f b6 05 00 00
	00 00		 movzx	 eax, BYTE PTR _bytCurrentFrameType
  0048a	85 c0		 test	 eax, eax
  0048c	75 25		 jne	 SHORT $LN71@ProcessNew

; 1061 : 					{
; 1062 : 						WriteDebugLog(LOGDEBUG, "[ARDOPprotocol.ProcessNewSamples, ProtocolState=IRStoISS, Initializing GetNextFrameData");

  0048e	68 00 00 00 00	 push	 OFFSET ??_C@_0FI@LAFGIKHG@?$FLARDOPprotocol?4ProcessNewSamples@
  00493	6a 07		 push	 7
  00495	e8 00 00 00 00	 call	 _WriteDebugLog
  0049a	83 c4 08	 add	 esp, 8

; 1063 : 		   				GetNextFrameData(&intShiftUpDn, 0, "", TRUE); // just sets the initial data, frame type, and sets intShiftUpDn= 0

  0049d	6a 01		 push	 1
  0049f	68 00 00 00 00	 push	 OFFSET ??_C@_00CNPNBAHC@?$AA@
  004a4	6a 00		 push	 0
  004a6	68 00 00 00 00	 push	 OFFSET _intShiftUpDn
  004ab	e8 00 00 00 00	 call	 _GetNextFrameData
  004b0	83 c4 10	 add	 esp, 16			; 00000010H
$LN71@ProcessNew:

; 1064 : 					}
; 1065 : 
; 1066 : 					SetARDOPProtocolState(ISS);

  004b3	6a 02		 push	 2
  004b5	e8 00 00 00 00	 call	 _SetARDOPProtocolState
  004ba	83 c4 04	 add	 esp, 4

; 1067 : 					intLinkTurnovers += 1;

  004bd	a1 00 00 00 00	 mov	 eax, DWORD PTR _intLinkTurnovers
  004c2	83 c0 01	 add	 eax, 1
  004c5	a3 00 00 00 00	 mov	 DWORD PTR _intLinkTurnovers, eax

; 1068 : 					ARQState = ISSData;			

  004ca	c7 05 00 00 00
	00 03 00 00 00	 mov	 DWORD PTR _ARQState, 3

; 1069 : 					SendData();				 //       Send new data from outbound queue and set up repeats

  004d4	e8 00 00 00 00	 call	 _SendData

; 1070 : 					goto skipDecode;

  004d9	e9 3c 09 00 00	 jmp	 $skipDecode$5902
$LN72@ProcessNew:

; 1071 : 				}
; 1072 :      
; 1073 : 				// prepare for next
; 1074 : 
; 1075 : 				DiscardOldSamples();

  004de	e8 00 00 00 00	 call	 _DiscardOldSamples

; 1076 : 				ClearAllMixedSamples();

  004e3	e8 00 00 00 00	 call	 _ClearAllMixedSamples

; 1077 : 				State = SearchingForLeader;

  004e8	c7 05 00 00 00
	00 00 00 00 00	 mov	 DWORD PTR _State, 0

; 1078 : 				blnFrameDecodedOK = TRUE;

  004f2	c7 45 f8 01 00
	00 00		 mov	 DWORD PTR _blnFrameDecodedOK$[ebp], 1

; 1079 : 				WriteDebugLog(LOGDEBUG, "[DecodeFrame] Frame: %s ", Name(intFrameType));

  004f9	a0 00 00 00 00	 mov	 al, BYTE PTR _intFrameType
  004fe	50		 push	 eax
  004ff	e8 00 00 00 00	 call	 _Name
  00504	83 c4 04	 add	 esp, 4
  00507	50		 push	 eax
  00508	68 00 00 00 00	 push	 OFFSET ??_C@_0BJ@JADBCDC@?$FLDecodeFrame?$FN?5Frame?3?5?$CFs?5?$AA@
  0050d	6a 07		 push	 7
  0050f	e8 00 00 00 00	 call	 _WriteDebugLog
  00514	83 c4 0c	 add	 esp, 12			; 0000000cH

; 1080 : 
; 1081 : 				DecodeCompleteTime = Now;

  00517	e8 00 00 00 00	 call	 _getTicks
  0051c	a3 00 00 00 00	 mov	 DWORD PTR _DecodeCompleteTime, eax

; 1082 : 
; 1083 : 				goto ProcessFrame;

  00521	e9 87 05 00 00	 jmp	 $ProcessFrame$5904
$LN73@ProcessNew:

; 1084 : 			}
; 1085 : 
; 1086 : 			if (intBaud == 25)

  00526	83 3d 00 00 00
	00 19		 cmp	 DWORD PTR _intBaud, 25	; 00000019H
  0052d	75 0a		 jne	 SHORT $LN70@ProcessNew

; 1087 : 				intSampPerSym = 480;

  0052f	c7 05 00 00 00
	00 e0 01 00 00	 mov	 DWORD PTR _intSampPerSym, 480 ; 000001e0H
$LN70@ProcessNew:

; 1088 : 			if (intBaud == 50)

  00539	83 3d 00 00 00
	00 32		 cmp	 DWORD PTR _intBaud, 50	; 00000032H
  00540	75 0c		 jne	 SHORT $LN69@ProcessNew

; 1089 : 				intSampPerSym = 240;

  00542	c7 05 00 00 00
	00 f0 00 00 00	 mov	 DWORD PTR _intSampPerSym, 240 ; 000000f0H
  0054c	eb 43		 jmp	 SHORT $LN63@ProcessNew
$LN69@ProcessNew:

; 1090 : 			else if (intBaud == 100)

  0054e	83 3d 00 00 00
	00 64		 cmp	 DWORD PTR _intBaud, 100	; 00000064H
  00555	75 0c		 jne	 SHORT $LN67@ProcessNew

; 1091 : 				intSampPerSym = 120;

  00557	c7 05 00 00 00
	00 78 00 00 00	 mov	 DWORD PTR _intSampPerSym, 120 ; 00000078H
  00561	eb 2e		 jmp	 SHORT $LN63@ProcessNew
$LN67@ProcessNew:

; 1092 : 			else if (intBaud == 167)

  00563	81 3d 00 00 00
	00 a7 00 00 00	 cmp	 DWORD PTR _intBaud, 167	; 000000a7H
  0056d	75 0c		 jne	 SHORT $LN65@ProcessNew

; 1093 : 				intSampPerSym = 72;

  0056f	c7 05 00 00 00
	00 48 00 00 00	 mov	 DWORD PTR _intSampPerSym, 72 ; 00000048H
  00579	eb 16		 jmp	 SHORT $LN63@ProcessNew
$LN65@ProcessNew:

; 1094 : 			else if (intBaud == 600)

  0057b	81 3d 00 00 00
	00 58 02 00 00	 cmp	 DWORD PTR _intBaud, 600	; 00000258H
  00585	75 0a		 jne	 SHORT $LN63@ProcessNew

; 1095 : 				intSampPerSym = 20;

  00587	c7 05 00 00 00
	00 14 00 00 00	 mov	 DWORD PTR _intSampPerSym, 20 ; 00000014H
$LN63@ProcessNew:

; 1096 : 
; 1097 : 			if (IsDataFrame(intFrameType))

  00591	a0 00 00 00 00	 mov	 al, BYTE PTR _intFrameType
  00596	50		 push	 eax
  00597	e8 00 00 00 00	 call	 _IsDataFrame
  0059c	83 c4 04	 add	 esp, 4
  0059f	85 c0		 test	 eax, eax
  005a1	74 17		 je	 SHORT $LN62@ProcessNew

; 1098 : 				SymbolsLeft = intDataLen + intRSLen + 3; // Data has a length byte

  005a3	a1 00 00 00 00	 mov	 eax, DWORD PTR _intRSLen
  005a8	8b 0d 00 00 00
	00		 mov	 ecx, DWORD PTR _intDataLen
  005ae	8d 54 01 03	 lea	 edx, DWORD PTR [ecx+eax+3]
  005b2	89 15 00 00 00
	00		 mov	 DWORD PTR _SymbolsLeft, edx

; 1099 : 			else

  005b8	eb 15		 jmp	 SHORT $LN61@ProcessNew
$LN62@ProcessNew:

; 1100 : 				SymbolsLeft = intDataLen + intRSLen + 2;

  005ba	a1 00 00 00 00	 mov	 eax, DWORD PTR _intRSLen
  005bf	8b 0d 00 00 00
	00		 mov	 ecx, DWORD PTR _intDataLen
  005c5	8d 54 01 02	 lea	 edx, DWORD PTR [ecx+eax+2]
  005c9	89 15 00 00 00
	00		 mov	 DWORD PTR _SymbolsLeft, edx
$LN61@ProcessNew:

; 1101 : 
; 1102 : 			if (intDataLen == 600)

  005cf	81 3d 00 00 00
	00 58 02 00 00	 cmp	 DWORD PTR _intDataLen, 600 ; 00000258H
  005d9	75 0d		 jne	 SHORT $LN60@ProcessNew

; 1103 : 				SymbolsLeft += 6;		// 600 baud has 3 * RS Blocks

  005db	a1 00 00 00 00	 mov	 eax, DWORD PTR _SymbolsLeft
  005e0	83 c0 06	 add	 eax, 6
  005e3	a3 00 00 00 00	 mov	 DWORD PTR _SymbolsLeft, eax
$LN60@ProcessNew:

; 1104 : 
; 1105 : 			// Save data rate for PTC reporting
; 1106 : 
; 1107 : 			if (Rate[intFrameType] > 0)

  005e8	a1 00 00 00 00	 mov	 eax, DWORD PTR _intFrameType
  005ed	0f bf 0c 45 00
	00 00 00	 movsx	 ecx, WORD PTR _Rate[eax*2]
  005f5	85 c9		 test	 ecx, ecx
  005f7	7e 13		 jle	 SHORT $LN59@ProcessNew

; 1108 : 				DataRate = Rate[intFrameType];

  005f9	a1 00 00 00 00	 mov	 eax, DWORD PTR _intFrameType
  005fe	0f bf 0c 45 00
	00 00 00	 movsx	 ecx, WORD PTR _Rate[eax*2]
  00606	89 0d 00 00 00
	00		 mov	 DWORD PTR _DataRate, ecx
$LN59@ProcessNew:

; 1109 : 
; 1110 : 			intToneMagsLength = 16 * SymbolsLeft;	// 4 tones, 2 bits per set

  0060c	a1 00 00 00 00	 mov	 eax, DWORD PTR _SymbolsLeft
  00611	c1 e0 04	 shl	 eax, 4
  00614	a3 00 00 00 00	 mov	 DWORD PTR _intToneMagsLength, eax

; 1111 : 			
; 1112 : 			memset(intToneMagsIndex, 0, sizeof(intToneMagsIndex));

  00619	6a 10		 push	 16			; 00000010H
  0061b	6a 00		 push	 0
  0061d	68 00 00 00 00	 push	 OFFSET _intToneMagsIndex
  00622	e8 00 00 00 00	 call	 _memset
  00627	83 c4 0c	 add	 esp, 12			; 0000000cH

; 1113 : 			
; 1114 : 			charIndex = 0;	

  0062a	c7 05 00 00 00
	00 00 00 00 00	 mov	 DWORD PTR _charIndex, 0

; 1115 : 			PSKInitDone = 0;

  00634	c7 05 00 00 00
	00 00 00 00 00	 mov	 DWORD PTR _PSKInitDone, 0

; 1116 : 			
; 1117 : 			frameLen = 0;

  0063e	c7 05 00 00 00
	00 00 00 00 00	 mov	 DWORD PTR _frameLen, 0

; 1118 : 			totalRSErrors = 0;

  00648	c7 05 00 00 00
	00 00 00 00 00	 mov	 DWORD PTR _totalRSErrors, 0

; 1119 : 
; 1120 : 			DummyCarrier = 0;	// pseudo carrier used for long 600 baud frames

  00652	c7 05 00 00 00
	00 00 00 00 00	 mov	 DWORD PTR _DummyCarrier, 0

; 1121 : 			Decode600Buffer = bytFrameData1;

  0065c	c7 05 00 00 00
	00 00 00 00 00	 mov	 DWORD PTR _Decode600Buffer, OFFSET _bytFrameData1

; 1122 : 
; 1123 : 			if (!IsShortControlFrame(intFrameType))

  00666	a0 00 00 00 00	 mov	 al, BYTE PTR _intFrameType
  0066b	50		 push	 eax
  0066c	e8 00 00 00 00	 call	 _IsShortControlFrame
  00671	83 c4 04	 add	 esp, 4

; 1124 : 			{
; 1125 :                //         stcStatus.BackColor = Color.Khaki
; 1126 :                //         stcStatus.Text = strType
; 1127 :                //         stcStatus.ControlName = "lblRcvFrame"
; 1128 :                //         queTNCStatus.Enqueue(stcStatus)
; 1129 : 			}
; 1130 : 
; 1131 : 			State = AcquireFrame;

  00674	c7 05 00 00 00
	00 05 00 00 00	 mov	 DWORD PTR _State, 5

; 1132 : 			
; 1133 : 			if (ProtocolMode == FEC && IsDataFrame(intFrameType) && ProtocolState != FECSend)

  0067e	83 3d 00 00 00
	00 01		 cmp	 DWORD PTR _ProtocolMode, 1
  00685	75 25		 jne	 SHORT $LN57@ProcessNew
  00687	a0 00 00 00 00	 mov	 al, BYTE PTR _intFrameType
  0068c	50		 push	 eax
  0068d	e8 00 00 00 00	 call	 _IsDataFrame
  00692	83 c4 04	 add	 esp, 4
  00695	85 c0		 test	 eax, eax
  00697	74 13		 je	 SHORT $LN57@ProcessNew
  00699	83 3d 00 00 00
	00 06		 cmp	 DWORD PTR _ProtocolState, 6
  006a0	74 0a		 je	 SHORT $LN57@ProcessNew

; 1134 : 				SetARDOPProtocolState(FECRcv);

  006a2	6a 07		 push	 7
  006a4	e8 00 00 00 00	 call	 _SetARDOPProtocolState
  006a9	83 c4 04	 add	 esp, 4
$LN57@ProcessNew:

; 1135 : 
; 1136 : 			// if a data frame, and not the same frame type as last, reinitialise 
; 1137 : 			// correctly received carriers byte and memory ARQ fields
; 1138 : 
; 1139 : //			if (IsDataFrame(intFrameType) && LastDataFrameType != intFrameType)
; 1140 : 
; 1141 : 			if (LastDataFrameType != intFrameType)

  006ac	a1 00 00 00 00	 mov	 eax, DWORD PTR _LastDataFrameType
  006b1	3b 05 00 00 00
	00		 cmp	 eax, DWORD PTR _intFrameType
  006b7	74 77		 je	 SHORT $LN56@ProcessNew

; 1142 : 			{
; 1143 : 				WriteDebugLog(LOGDEBUG, "New frame type - MEMARQ flags reset");

  006b9	68 00 00 00 00	 push	 OFFSET ??_C@_0CE@PACHHMPP@New?5frame?5type?5?9?5MEMARQ?5flags?5re@
  006be	6a 07		 push	 7
  006c0	e8 00 00 00 00	 call	 _WriteDebugLog
  006c5	83 c4 08	 add	 esp, 8

; 1144 : 				memset(CarrierOk, 0, sizeof(CarrierOk));

  006c8	6a 08		 push	 8
  006ca	6a 00		 push	 0
  006cc	68 00 00 00 00	 push	 OFFSET _CarrierOk
  006d1	e8 00 00 00 00	 call	 _memset
  006d6	83 c4 0c	 add	 esp, 12			; 0000000cH

; 1145 : 				LastDataFrameType = intFrameType;

  006d9	a1 00 00 00 00	 mov	 eax, DWORD PTR _intFrameType
  006de	a3 00 00 00 00	 mov	 DWORD PTR _LastDataFrameType, eax

; 1146 : 
; 1147 : 				// note that although we only do mem arq if enough RAM we
; 1148 : 				// still skip decoding carriers that have been received;
; 1149 : 
; 1150 : #ifdef MEMORYARQ
; 1151 : 				memset(intSumCounts, 0, sizeof(intSumCounts));

  006e3	6a 20		 push	 32			; 00000020H
  006e5	6a 00		 push	 0
  006e7	68 00 00 00 00	 push	 OFFSET _intSumCounts
  006ec	e8 00 00 00 00	 call	 _memset
  006f1	83 c4 0c	 add	 esp, 12			; 0000000cH

; 1152 : 				memset(intToneMagsAvg, 0, sizeof(intToneMagsAvg));

  006f4	68 c0 14 00 00	 push	 5312			; 000014c0H
  006f9	6a 00		 push	 0
  006fb	68 00 00 00 00	 push	 OFFSET _intToneMagsAvg
  00700	e8 00 00 00 00	 call	 _memset
  00705	83 c4 0c	 add	 esp, 12			; 0000000cH

; 1153 : 				memset(intCarPhaseAvg, 0, sizeof(intCarPhaseAvg));

  00708	68 c0 28 00 00	 push	 10432			; 000028c0H
  0070d	6a 00		 push	 0
  0070f	68 00 00 00 00	 push	 OFFSET _intCarPhaseAvg
  00714	e8 00 00 00 00	 call	 _memset
  00719	83 c4 0c	 add	 esp, 12			; 0000000cH

; 1154 : 				memset(intCarMagAvg, 0, sizeof(intCarMagAvg));

  0071c	68 c0 28 00 00	 push	 10432			; 000028c0H
  00721	6a 00		 push	 0
  00723	68 00 00 00 00	 push	 OFFSET _intCarMagAvg
  00728	e8 00 00 00 00	 call	 _memset
  0072d	83 c4 0c	 add	 esp, 12			; 0000000cH
$LN56@ProcessNew:

; 1155 : #endif
; 1156 : 			}
; 1157 : 
; 1158 : 			WriteDebugLog(LOGDEBUG, "MEMARQ Flags %d %d %d %d %d %d %d %d",
; 1159 : 				CarrierOk[0], CarrierOk[1], CarrierOk[2], CarrierOk[3],
; 1160 : 				CarrierOk[4], CarrierOk[5], CarrierOk[6], CarrierOk[7]);

  00730	0f be 05 07 00
	00 00		 movsx	 eax, BYTE PTR _CarrierOk+7
  00737	50		 push	 eax
  00738	0f be 0d 06 00
	00 00		 movsx	 ecx, BYTE PTR _CarrierOk+6
  0073f	51		 push	 ecx
  00740	0f be 15 05 00
	00 00		 movsx	 edx, BYTE PTR _CarrierOk+5
  00747	52		 push	 edx
  00748	0f be 05 04 00
	00 00		 movsx	 eax, BYTE PTR _CarrierOk+4
  0074f	50		 push	 eax
  00750	0f be 0d 03 00
	00 00		 movsx	 ecx, BYTE PTR _CarrierOk+3
  00757	51		 push	 ecx
  00758	0f be 15 02 00
	00 00		 movsx	 edx, BYTE PTR _CarrierOk+2
  0075f	52		 push	 edx
  00760	0f be 05 01 00
	00 00		 movsx	 eax, BYTE PTR _CarrierOk+1
  00767	50		 push	 eax
  00768	0f be 0d 00 00
	00 00		 movsx	 ecx, BYTE PTR _CarrierOk
  0076f	51		 push	 ecx
  00770	68 00 00 00 00	 push	 OFFSET ??_C@_0CF@NGDJKDHP@MEMARQ?5Flags?5?$CFd?5?$CFd?5?$CFd?5?$CFd?5?$CFd?5?$CFd?5?$CF@
  00775	6a 07		 push	 7
  00777	e8 00 00 00 00	 call	 _WriteDebugLog
  0077c	83 c4 28	 add	 esp, 40			; 00000028H
$LN76@ProcessNew:

; 1161 : 		}
; 1162 : 	}
; 1163 : 	// Acquire Frame
; 1164 : 
; 1165 : 	if (State == AcquireFrame)

  0077f	83 3d 00 00 00
	00 05		 cmp	 DWORD PTR _State, 5
  00786	0f 85 a2 06 00
	00		 jne	 $LN55@ProcessNew

; 1166 : 	{
; 1167 : 		// Call DemodulateFrame for each set of samples
; 1168 : 
; 1169 : 
; 1170 : 		DemodulateFrame(intFrameType);

  0078c	a1 00 00 00 00	 mov	 eax, DWORD PTR _intFrameType
  00791	50		 push	 eax
  00792	e8 00 00 00 00	 call	 _DemodulateFrame
  00797	83 c4 04	 add	 esp, 4

; 1171 : 
; 1172 : 		if (CarrierOk[0] != 0 && CarrierOk[0] != 1)

  0079a	0f be 05 00 00
	00 00		 movsx	 eax, BYTE PTR _CarrierOk
  007a1	85 c0		 test	 eax, eax
  007a3	74 13		 je	 SHORT $LN54@ProcessNew
  007a5	0f be 05 00 00
	00 00		 movsx	 eax, BYTE PTR _CarrierOk
  007ac	83 f8 01	 cmp	 eax, 1
  007af	74 07		 je	 SHORT $LN54@ProcessNew

; 1173 : 			CarrierOk[0] = 0;

  007b1	c6 05 00 00 00
	00 00		 mov	 BYTE PTR _CarrierOk, 0
$LN54@ProcessNew:

; 1174 : 
; 1175 : 		if (State == AcquireFrame)

  007b8	83 3d 00 00 00
	00 05		 cmp	 DWORD PTR _State, 5
  007bf	75 05		 jne	 SHORT $LN53@ProcessNew

; 1176 : 
; 1177 : 			// We haven't got it all yet so wait for more samples	
; 1178 : 			return;	

  007c1	e9 68 06 00 00	 jmp	 $LN55@ProcessNew
$LN53@ProcessNew:

; 1179 : 
; 1180 : 		//	We have the whole frame, so process it
; 1181 : 
; 1182 : 
; 1183 : //		printtick("got whole frame");
; 1184 : 
; 1185 : 		if (strcmp (strMod, "4FSK") == 0)

  007c6	68 00 00 00 00	 push	 OFFSET ??_C@_04KOHEBHGC@4FSK?$AA@
  007cb	68 00 00 00 00	 push	 OFFSET _strMod
  007d0	e8 00 00 00 00	 call	 _strcmp
  007d5	83 c4 08	 add	 esp, 8
  007d8	85 c0		 test	 eax, eax
  007da	75 14		 jne	 SHORT $LN52@ProcessNew

; 1186 : 			Update4FSKConstellation(&intToneMags[0][0], &intLastRcvdFrameQuality);

  007dc	68 00 00 00 00	 push	 OFFSET _intLastRcvdFrameQuality
  007e1	68 00 00 00 00	 push	 OFFSET _intToneMags
  007e6	e8 00 00 00 00	 call	 _Update4FSKConstellation
  007eb	83 c4 08	 add	 esp, 8
  007ee	eb 52		 jmp	 SHORT $LN48@ProcessNew
$LN52@ProcessNew:

; 1187 : 		else if (strcmp (strMod, "16FSK") == 0)

  007f0	68 00 00 00 00	 push	 OFFSET ??_C@_05GMHCMGLE@16FSK?$AA@
  007f5	68 00 00 00 00	 push	 OFFSET _strMod
  007fa	e8 00 00 00 00	 call	 _strcmp
  007ff	83 c4 08	 add	 esp, 8
  00802	85 c0		 test	 eax, eax
  00804	75 14		 jne	 SHORT $LN50@ProcessNew

; 1188 : 			Update16FSKConstellation(&intToneMags[0][0], &intLastRcvdFrameQuality);

  00806	68 00 00 00 00	 push	 OFFSET _intLastRcvdFrameQuality
  0080b	68 00 00 00 00	 push	 OFFSET _intToneMags
  00810	e8 00 00 00 00	 call	 _Update16FSKConstellation
  00815	83 c4 08	 add	 esp, 8
  00818	eb 28		 jmp	 SHORT $LN48@ProcessNew
$LN50@ProcessNew:

; 1189 : 		else if (strcmp (strMod, "8FSK") == 0)

  0081a	68 00 00 00 00	 push	 OFFSET ??_C@_04GLIEPKGD@8FSK?$AA@
  0081f	68 00 00 00 00	 push	 OFFSET _strMod
  00824	e8 00 00 00 00	 call	 _strcmp
  00829	83 c4 08	 add	 esp, 8
  0082c	85 c0		 test	 eax, eax
  0082e	75 12		 jne	 SHORT $LN48@ProcessNew

; 1190 : 			Update8FSKConstellation(&intToneMags[0][0], &intLastRcvdFrameQuality);

  00830	68 00 00 00 00	 push	 OFFSET _intLastRcvdFrameQuality
  00835	68 00 00 00 00	 push	 OFFSET _intToneMags
  0083a	e8 00 00 00 00	 call	 _Update8FSKConstellation
  0083f	83 c4 08	 add	 esp, 8
$LN48@ProcessNew:

; 1191 : 
; 1192 : 		// PSK and QAM quality done in Decode routines
; 1193 : 
; 1194 : 		WriteDebugLog(LOGDEBUG, "Qual = %d", intLastRcvdFrameQuality);

  00842	a1 00 00 00 00	 mov	 eax, DWORD PTR _intLastRcvdFrameQuality
  00847	50		 push	 eax
  00848	68 00 00 00 00	 push	 OFFSET ??_C@_09GBPIIGEG@Qual?5?$DN?5?$CFd?$AA@
  0084d	6a 07		 push	 7
  0084f	e8 00 00 00 00	 call	 _WriteDebugLog
  00854	83 c4 0c	 add	 esp, 12			; 0000000cH

; 1195 : 
; 1196 : 		// This mechanism is to skip actual decoding and reply/change state...no need to decode 
; 1197 : 
; 1198 : 		if (blnBREAKCmd && ProtocolState == IRS && ARQState == IRSData &&
; 1199 : 			intFrameType != bytLastACKedDataFrameType)

  00857	83 3d 00 00 00
	00 00		 cmp	 DWORD PTR _blnBREAKCmd, 0
  0085e	0f 84 f6 00 00
	00		 je	 $LN47@ProcessNew
  00864	83 3d 00 00 00
	00 03		 cmp	 DWORD PTR _ProtocolState, 3
  0086b	0f 85 e9 00 00
	00		 jne	 $LN47@ProcessNew
  00871	83 3d 00 00 00
	00 06		 cmp	 DWORD PTR _ARQState, 6
  00878	0f 85 dc 00 00
	00		 jne	 $LN47@ProcessNew
  0087e	0f b6 05 00 00
	00 00		 movzx	 eax, BYTE PTR _bytLastACKedDataFrameType
  00885	39 05 00 00 00
	00		 cmp	 DWORD PTR _intFrameType, eax
  0088b	0f 84 c9 00 00
	00		 je	 $LN47@ProcessNew

; 1200 : 		{
; 1201 : 			// This to immediatly go to IRStoISS if blnBREAKCmd enabled.
; 1202 : 		
; 1203 : 			//Implements protocol rule 3.4 (allows faster break) and does not require a good frame decode.
; 1204 : 
; 1205 : 			WriteDebugLog(LOGDEBUG, "[ARDOPprotocol.ProcessNewSamples] Skip Data Decoding when blnBREAKCmd and ProtcolState=IRS");

  00891	68 00 00 00 00	 push	 OFFSET ??_C@_0FL@HDOBMIFN@?$FLARDOPprotocol?4ProcessNewSamples@
  00896	6a 07		 push	 7
  00898	e8 00 00 00 00	 call	 _WriteDebugLog
  0089d	83 c4 08	 add	 esp, 8

; 1206 : 			intFrameRepeatInterval = ComputeInterFrameInterval(1000 + rand() % 2000);

  008a0	e8 00 00 00 00	 call	 _rand
  008a5	99		 cdq
  008a6	b9 d0 07 00 00	 mov	 ecx, 2000		; 000007d0H
  008ab	f7 f9		 idiv	 ecx
  008ad	81 c2 e8 03 00
	00		 add	 edx, 1000		; 000003e8H
  008b3	52		 push	 edx
  008b4	e8 00 00 00 00	 call	 _ComputeInterFrameInterval
  008b9	83 c4 04	 add	 esp, 4
  008bc	a3 00 00 00 00	 mov	 DWORD PTR _intFrameRepeatInterval, eax

; 1207 : 			SetARDOPProtocolState(IRStoISS); // (ONLY IRS State where repeats are used)				

  008c1	6a 05		 push	 5
  008c3	e8 00 00 00 00	 call	 _SetARDOPProtocolState
  008c8	83 c4 04	 add	 esp, 4

; 1208 : 			SendCommandToHost("STATUS QUEUE BREAK new Protocol State IRStoISS");

  008cb	68 00 00 00 00	 push	 OFFSET ??_C@_0CP@JLDOIPPD@STATUS?5QUEUE?5BREAK?5new?5Protocol?5@
  008d0	e8 00 00 00 00	 call	 _SendCommandToHost
  008d5	83 c4 04	 add	 esp, 4

; 1209 : 			blnEnbARQRpt = TRUE;  // setup for repeats until changeover

  008d8	c7 05 00 00 00
	00 01 00 00 00	 mov	 DWORD PTR _blnEnbARQRpt, 1

; 1210 : 			WriteDebugLog(LOGDEBUG, "[ARDOPprotocol.ProcessNewSamples] %d bytes to send in ProtocolState: %s: Send BREAK,  New state=IRStoISS (Rule 3.3)",
; 1211 : 					bytDataToSendLength,  ARDOPStates[ProtocolState]);

  008e2	a1 00 00 00 00	 mov	 eax, DWORD PTR _ProtocolState
  008e7	6b c0 09	 imul	 eax, 9
  008ea	05 00 00 00 00	 add	 eax, OFFSET _ARDOPStates
  008ef	50		 push	 eax
  008f0	8b 0d 00 00 00
	00		 mov	 ecx, DWORD PTR _bytDataToSendLength
  008f6	51		 push	 ecx
  008f7	68 00 00 00 00	 push	 OFFSET ??_C@_0HE@GMFGFFGG@?$FLARDOPprotocol?4ProcessNewSamples@
  008fc	6a 07		 push	 7
  008fe	e8 00 00 00 00	 call	 _WriteDebugLog
  00903	83 c4 10	 add	 esp, 16			; 00000010H

; 1212 :  			EncLen = Encode4FSKControl(BREAK, bytSessionID, bytEncodedBytes);

  00906	68 00 00 00 00	 push	 OFFSET _bytEncodedBytes
  0090b	a0 00 00 00 00	 mov	 al, BYTE PTR _bytSessionID
  00910	50		 push	 eax
  00911	6a 23		 push	 35			; 00000023H
  00913	e8 00 00 00 00	 call	 _Encode4FSKControl
  00918	83 c4 0c	 add	 esp, 12			; 0000000cH
  0091b	a3 00 00 00 00	 mov	 DWORD PTR _EncLen, eax

; 1213 : 			Mod4FSKDataAndPlay(BREAK, &bytEncodedBytes[0], EncLen, intARQDefaultDlyMs);		// only returns when all sent

  00920	a1 00 00 00 00	 mov	 eax, DWORD PTR _intARQDefaultDlyMs
  00925	50		 push	 eax
  00926	8b 0d 00 00 00
	00		 mov	 ecx, DWORD PTR _EncLen
  0092c	51		 push	 ecx
  0092d	68 00 00 00 00	 push	 OFFSET _bytEncodedBytes
  00932	6a 23		 push	 35			; 00000023H
  00934	e8 00 00 00 00	 call	 _Mod4FSKDataAndPlay
  00939	83 c4 10	 add	 esp, 16			; 00000010H

; 1214 : 
; 1215 : 			WriteDebugLog(LOGDEBUG, "[ARDOPprotocol.ProcessNewSamples] Skip Data Decoding when blnBREAKCmd and ProtcolState=IRS");

  0093c	68 00 00 00 00	 push	 OFFSET ??_C@_0FL@HDOBMIFN@?$FLARDOPprotocol?4ProcessNewSamples@
  00941	6a 07		 push	 7
  00943	e8 00 00 00 00	 call	 _WriteDebugLog
  00948	83 c4 08	 add	 esp, 8

; 1216 : 			blnBREAKCmd = FALSE;

  0094b	c7 05 00 00 00
	00 00 00 00 00	 mov	 DWORD PTR _blnBREAKCmd, 0

; 1217 : 			goto skipDecode;

  00955	e9 c0 04 00 00	 jmp	 $skipDecode$5902
$LN47@ProcessNew:

; 1218 : 		}
; 1219 : 						
; 1220 : 		if (ProtocolState == IRStoISS && IsDataFrame(intFrameType))

  0095a	83 3d 00 00 00
	00 05		 cmp	 DWORD PTR _ProtocolState, 5
  00961	0f 85 87 00 00
	00		 jne	 $LN46@ProcessNew
  00967	a0 00 00 00 00	 mov	 al, BYTE PTR _intFrameType
  0096c	50		 push	 eax
  0096d	e8 00 00 00 00	 call	 _IsDataFrame
  00972	83 c4 04	 add	 esp, 4
  00975	85 c0		 test	 eax, eax
  00977	74 75		 je	 SHORT $LN46@ProcessNew

; 1221 : 		{
; 1222 : 			//	In this state answer any data frame with BREAK 
; 1223 : 		    // not necessary to decode the frame ....just frame type
; 1224 : 
; 1225 : 			WriteDebugLog(LOGDEBUG, "[ARDOPprotocol.ProcessNewSamples] Skip Data Decoding when ProtcolState=IRStoISS, Answer with BREAK");

  00979	68 00 00 00 00	 push	 OFFSET ??_C@_0GD@LEDMPOGN@?$FLARDOPprotocol?4ProcessNewSamples@
  0097e	6a 07		 push	 7
  00980	e8 00 00 00 00	 call	 _WriteDebugLog
  00985	83 c4 08	 add	 esp, 8

; 1226 : 			intFrameRepeatInterval = ComputeInterFrameInterval(1000 + rand() % 2000);

  00988	e8 00 00 00 00	 call	 _rand
  0098d	99		 cdq
  0098e	b9 d0 07 00 00	 mov	 ecx, 2000		; 000007d0H
  00993	f7 f9		 idiv	 ecx
  00995	81 c2 e8 03 00
	00		 add	 edx, 1000		; 000003e8H
  0099b	52		 push	 edx
  0099c	e8 00 00 00 00	 call	 _ComputeInterFrameInterval
  009a1	83 c4 04	 add	 esp, 4
  009a4	a3 00 00 00 00	 mov	 DWORD PTR _intFrameRepeatInterval, eax

; 1227 : 			blnEnbARQRpt = TRUE;  // setup for repeats until changeover

  009a9	c7 05 00 00 00
	00 01 00 00 00	 mov	 DWORD PTR _blnEnbARQRpt, 1

; 1228 :  			EncLen = Encode4FSKControl(BREAK, bytSessionID, bytEncodedBytes);

  009b3	68 00 00 00 00	 push	 OFFSET _bytEncodedBytes
  009b8	a0 00 00 00 00	 mov	 al, BYTE PTR _bytSessionID
  009bd	50		 push	 eax
  009be	6a 23		 push	 35			; 00000023H
  009c0	e8 00 00 00 00	 call	 _Encode4FSKControl
  009c5	83 c4 0c	 add	 esp, 12			; 0000000cH
  009c8	a3 00 00 00 00	 mov	 DWORD PTR _EncLen, eax

; 1229 : 			Mod4FSKDataAndPlay(BREAK, &bytEncodedBytes[0], EncLen, intARQDefaultDlyMs);		// only returns when all sent

  009cd	a1 00 00 00 00	 mov	 eax, DWORD PTR _intARQDefaultDlyMs
  009d2	50		 push	 eax
  009d3	8b 0d 00 00 00
	00		 mov	 ecx, DWORD PTR _EncLen
  009d9	51		 push	 ecx
  009da	68 00 00 00 00	 push	 OFFSET _bytEncodedBytes
  009df	6a 23		 push	 35			; 00000023H
  009e1	e8 00 00 00 00	 call	 _Mod4FSKDataAndPlay
  009e6	83 c4 10	 add	 esp, 16			; 00000010H

; 1230 : 			goto skipDecode;

  009e9	e9 2c 04 00 00	 jmp	 $skipDecode$5902
$LN46@ProcessNew:

; 1231 : 		}						
; 1232 : 		
; 1233 : 		if (ProtocolState == IRStoISS && intFrameType >= 0xe0)

  009ee	83 3d 00 00 00
	00 05		 cmp	 DWORD PTR _ProtocolState, 5
  009f5	0f 85 9c 00 00
	00		 jne	 $LN45@ProcessNew
  009fb	81 3d 00 00 00
	00 e0 00 00 00	 cmp	 DWORD PTR _intFrameType, 224 ; 000000e0H
  00a05	0f 8c 8c 00 00
	00		 jl	 $LN45@ProcessNew

; 1234 : 		{
; 1235 : 			//	In this state transition to ISS if  ACK frame 
; 1236 : 		
; 1237 : 			WriteDebugLog(LOGDEBUG, "[ARDOPprotocol.ProcessNewSamples] ProtocolState=IRStoISS, substate = %s ACK received. Cease BREAKS, NewProtocolState=ISS, substate ISSData", ARQSubStates[ARQState]);

  00a0b	a1 00 00 00 00	 mov	 eax, DWORD PTR _ARQState
  00a10	6b c0 0b	 imul	 eax, 11			; 0000000bH
  00a13	05 00 00 00 00	 add	 eax, OFFSET _ARQSubStates
  00a18	50		 push	 eax
  00a19	68 00 00 00 00	 push	 OFFSET ??_C@_0IL@FILFNEGA@?$FLARDOPprotocol?4ProcessNewSamples@
  00a1e	6a 07		 push	 7
  00a20	e8 00 00 00 00	 call	 _WriteDebugLog
  00a25	83 c4 0c	 add	 esp, 12			; 0000000cH

; 1238 : 			blnEnbARQRpt = FALSE;	// stop the BREAK repeats

  00a28	c7 05 00 00 00
	00 00 00 00 00	 mov	 DWORD PTR _blnEnbARQRpt, 0

; 1239 : 			intLastARQDataFrameToHost = -1; // initialize to illegal value to capture first new ISS frame and pass to host

  00a32	c7 05 00 00 00
	00 ff ff ff ff	 mov	 DWORD PTR _intLastARQDataFrameToHost, -1

; 1240 : 
; 1241 : 			if (bytCurrentFrameType == 0) //  hasn't been initialized yet

  00a3c	0f b6 05 00 00
	00 00		 movzx	 eax, BYTE PTR _bytCurrentFrameType
  00a43	85 c0		 test	 eax, eax
  00a45	75 25		 jne	 SHORT $LN44@ProcessNew

; 1242 : 			{
; 1243 : 				WriteDebugLog(LOGDEBUG, "[ARDOPprotocol.ProcessNewSamples, ProtocolState=IRStoISS, Initializing GetNextFrameData");

  00a47	68 00 00 00 00	 push	 OFFSET ??_C@_0FI@LAFGIKHG@?$FLARDOPprotocol?4ProcessNewSamples@
  00a4c	6a 07		 push	 7
  00a4e	e8 00 00 00 00	 call	 _WriteDebugLog
  00a53	83 c4 08	 add	 esp, 8

; 1244 :    				GetNextFrameData(&intShiftUpDn, 0, "", TRUE); // just sets the initial data, frame type, and sets intShiftUpDn= 0

  00a56	6a 01		 push	 1
  00a58	68 00 00 00 00	 push	 OFFSET ??_C@_00CNPNBAHC@?$AA@
  00a5d	6a 00		 push	 0
  00a5f	68 00 00 00 00	 push	 OFFSET _intShiftUpDn
  00a64	e8 00 00 00 00	 call	 _GetNextFrameData
  00a69	83 c4 10	 add	 esp, 16			; 00000010H
$LN44@ProcessNew:

; 1245 : 			}
; 1246 : 
; 1247 : 			SetARDOPProtocolState(ISS);

  00a6c	6a 02		 push	 2
  00a6e	e8 00 00 00 00	 call	 _SetARDOPProtocolState
  00a73	83 c4 04	 add	 esp, 4

; 1248 : 			intLinkTurnovers += 1;

  00a76	a1 00 00 00 00	 mov	 eax, DWORD PTR _intLinkTurnovers
  00a7b	83 c0 01	 add	 eax, 1
  00a7e	a3 00 00 00 00	 mov	 DWORD PTR _intLinkTurnovers, eax

; 1249 : 			ARQState = ISSData;			

  00a83	c7 05 00 00 00
	00 03 00 00 00	 mov	 DWORD PTR _ARQState, 3

; 1250 : 			SendData();				 //       Send new data from outbound queue and set up repeats

  00a8d	e8 00 00 00 00	 call	 _SendData

; 1251 : 			goto skipDecode;

  00a92	e9 83 03 00 00	 jmp	 $skipDecode$5902
$LN45@ProcessNew:

; 1252 : 		}
; 1253 :      
; 1254 : 		blnFrameDecodedOK = DecodeFrame(intFrameType, bytData);

  00a97	68 00 00 00 00	 push	 OFFSET _bytData
  00a9c	a1 00 00 00 00	 mov	 eax, DWORD PTR _intFrameType
  00aa1	50		 push	 eax
  00aa2	e8 00 00 00 00	 call	 _DecodeFrame
  00aa7	83 c4 08	 add	 esp, 8
  00aaa	89 45 f8	 mov	 DWORD PTR _blnFrameDecodedOK$[ebp], eax
$ProcessFrame$5904:

; 1255 : 
; 1256 : ProcessFrame:	
; 1257 : 
; 1258 : 		if (blnFrameDecodedOK)

  00aad	83 7d f8 00	 cmp	 DWORD PTR _blnFrameDecodedOK$[ebp], 0
  00ab1	0f 84 cd 01 00
	00		 je	 $LN43@ProcessNew

; 1259 : 		{
; 1260 : 			// Set input level if supported
; 1261 : 			
; 1262 : #ifdef HASPOTS
; 1263 : 			CheckandAdjustRXLevel(lastmax, lastmin, TRUE);
; 1264 : #endif
; 1265 : 			if (AccumulateStats)

  00ab7	83 3d 00 00 00
	00 00		 cmp	 DWORD PTR _AccumulateStats, 0
  00abe	74 69		 je	 SHORT $LN37@ProcessNew

; 1266 : 				if (IsDataFrame(intFrameType))

  00ac0	a0 00 00 00 00	 mov	 al, BYTE PTR _intFrameType
  00ac5	50		 push	 eax
  00ac6	e8 00 00 00 00	 call	 _IsDataFrame
  00acb	83 c4 04	 add	 esp, 4
  00ace	85 c0		 test	 eax, eax
  00ad0	74 57		 je	 SHORT $LN37@ProcessNew

; 1267 : 					if (strstr (strMod, "PSK"))

  00ad2	68 00 00 00 00	 push	 OFFSET ??_C@_03GIMBCJGG@PSK?$AA@
  00ad7	68 00 00 00 00	 push	 OFFSET _strMod
  00adc	e8 00 00 00 00	 call	 _strstr
  00ae1	83 c4 08	 add	 esp, 8
  00ae4	85 c0		 test	 eax, eax
  00ae6	74 0f		 je	 SHORT $LN40@ProcessNew

; 1268 : 						intGoodPSKFrameDataDecodes++;

  00ae8	a1 00 00 00 00	 mov	 eax, DWORD PTR _intGoodPSKFrameDataDecodes
  00aed	83 c0 01	 add	 eax, 1
  00af0	a3 00 00 00 00	 mov	 DWORD PTR _intGoodPSKFrameDataDecodes, eax
  00af5	eb 32		 jmp	 SHORT $LN37@ProcessNew
$LN40@ProcessNew:

; 1269 : 					else if (strstr (strMod, "QAM"))

  00af7	68 00 00 00 00	 push	 OFFSET ??_C@_03JJIFJOJL@QAM?$AA@
  00afc	68 00 00 00 00	 push	 OFFSET _strMod
  00b01	e8 00 00 00 00	 call	 _strstr
  00b06	83 c4 08	 add	 esp, 8
  00b09	85 c0		 test	 eax, eax
  00b0b	74 0f		 je	 SHORT $LN38@ProcessNew

; 1270 : 						intGoodQAMFrameDataDecodes++;

  00b0d	a1 00 00 00 00	 mov	 eax, DWORD PTR _intGoodQAMFrameDataDecodes
  00b12	83 c0 01	 add	 eax, 1
  00b15	a3 00 00 00 00	 mov	 DWORD PTR _intGoodQAMFrameDataDecodes, eax

; 1271 : 					else	

  00b1a	eb 0d		 jmp	 SHORT $LN37@ProcessNew
$LN38@ProcessNew:

; 1272 : 						intGoodFSKFrameDataDecodes++;

  00b1c	a1 00 00 00 00	 mov	 eax, DWORD PTR _intGoodFSKFrameDataDecodes
  00b21	83 c0 01	 add	 eax, 1
  00b24	a3 00 00 00 00	 mov	 DWORD PTR _intGoodFSKFrameDataDecodes, eax
$LN37@ProcessNew:

; 1273 : 
; 1274 :  			if (ProtocolMode == FEC)

  00b29	83 3d 00 00 00
	00 01		 cmp	 DWORD PTR _ProtocolMode, 1
  00b30	75 79		 jne	 SHORT $LN36@ProcessNew

; 1275 : 			{
; 1276 : 				if (IsDataFrame(intFrameType))	// ' check to see if a data frame

  00b32	a0 00 00 00 00	 mov	 al, BYTE PTR _intFrameType
  00b37	50		 push	 eax
  00b38	e8 00 00 00 00	 call	 _IsDataFrame
  00b3d	83 c4 04	 add	 esp, 4
  00b40	85 c0		 test	 eax, eax
  00b42	74 1a		 je	 SHORT $LN35@ProcessNew

; 1277 : 					ProcessRcvdFECDataFrame(intFrameType, bytData, blnFrameDecodedOK);

  00b44	8b 45 f8	 mov	 eax, DWORD PTR _blnFrameDecodedOK$[ebp]
  00b47	50		 push	 eax
  00b48	68 00 00 00 00	 push	 OFFSET _bytData
  00b4d	8b 0d 00 00 00
	00		 mov	 ecx, DWORD PTR _intFrameType
  00b53	51		 push	 ecx
  00b54	e8 00 00 00 00	 call	 _ProcessRcvdFECDataFrame
  00b59	83 c4 0c	 add	 esp, 12			; 0000000cH
  00b5c	eb 48		 jmp	 SHORT $LN31@ProcessNew
$LN35@ProcessNew:

; 1278 : 				else if (intFrameType == 0x30)

  00b5e	83 3d 00 00 00
	00 30		 cmp	 DWORD PTR _intFrameType, 48 ; 00000030H
  00b65	75 1a		 jne	 SHORT $LN33@ProcessNew

; 1279 : 					AddTagToDataAndSendToHost(bytData, "IDF", frameLen);

  00b67	a1 00 00 00 00	 mov	 eax, DWORD PTR _frameLen
  00b6c	50		 push	 eax
  00b6d	68 00 00 00 00	 push	 OFFSET ??_C@_03OJBHPKML@IDF?$AA@
  00b72	68 00 00 00 00	 push	 OFFSET _bytData
  00b77	e8 00 00 00 00	 call	 _AddTagToDataAndSendToHost
  00b7c	83 c4 0c	 add	 esp, 12			; 0000000cH
  00b7f	eb 25		 jmp	 SHORT $LN31@ProcessNew
$LN33@ProcessNew:

; 1280 : 				else if (intFrameType >= 0x31 && intFrameType <= 0x38)

  00b81	83 3d 00 00 00
	00 31		 cmp	 DWORD PTR _intFrameType, 49 ; 00000031H
  00b88	7c 1c		 jl	 SHORT $LN31@ProcessNew
  00b8a	83 3d 00 00 00
	00 38		 cmp	 DWORD PTR _intFrameType, 56 ; 00000038H
  00b91	7f 13		 jg	 SHORT $LN31@ProcessNew

; 1281 : 					ProcessUnconnectedConReqFrame(intFrameType, bytData);

  00b93	68 00 00 00 00	 push	 OFFSET _bytData
  00b98	a1 00 00 00 00	 mov	 eax, DWORD PTR _intFrameType
  00b9d	50		 push	 eax
  00b9e	e8 00 00 00 00	 call	 _ProcessUnconnectedConReqFrame
  00ba3	83 c4 08	 add	 esp, 8
$LN31@ProcessNew:

; 1282 : 			}				
; 1283 : 			else if (ProtocolMode == ARQ)

  00ba6	e9 d4 00 00 00	 jmp	 $LN21@ProcessNew
$LN36@ProcessNew:
  00bab	83 3d 00 00 00
	00 02		 cmp	 DWORD PTR _ProtocolMode, 2
  00bb2	0f 85 a7 00 00
	00		 jne	 $LN29@ProcessNew

; 1284 : 			{
; 1285 : 				if (!blnTimeoutTriggered)

  00bb8	83 3d 00 00 00
	00 00		 cmp	 DWORD PTR _blnTimeoutTriggered, 0
  00bbf	75 1f		 jne	 SHORT $LN28@ProcessNew

; 1286 : 					ProcessRcvdARQFrame(intFrameType, bytData, frameLen, blnFrameDecodedOK);  // Process connected ARQ frames here 

  00bc1	8b 45 f8	 mov	 eax, DWORD PTR _blnFrameDecodedOK$[ebp]
  00bc4	50		 push	 eax
  00bc5	8b 0d 00 00 00
	00		 mov	 ecx, DWORD PTR _frameLen
  00bcb	51		 push	 ecx
  00bcc	68 00 00 00 00	 push	 OFFSET _bytData
  00bd1	8a 15 00 00 00
	00		 mov	 dl, BYTE PTR _intFrameType
  00bd7	52		 push	 edx
  00bd8	e8 00 00 00 00	 call	 _ProcessRcvdARQFrame
  00bdd	83 c4 10	 add	 esp, 16			; 00000010H
$LN28@ProcessNew:

; 1287 : 
; 1288 : 				if (ProtocolState == DISC)		  // allows ARQ mode to operate like FEC when not connected

  00be0	83 3d 00 00 00
	00 01		 cmp	 DWORD PTR _ProtocolState, 1
  00be7	75 74		 jne	 SHORT $LN22@ProcessNew

; 1289 : 					if (intFrameType == 0x30)				

  00be9	83 3d 00 00 00
	00 30		 cmp	 DWORD PTR _intFrameType, 48 ; 00000030H
  00bf0	75 1a		 jne	 SHORT $LN26@ProcessNew

; 1290 : 						AddTagToDataAndSendToHost(bytData, "IDF", frameLen);			

  00bf2	a1 00 00 00 00	 mov	 eax, DWORD PTR _frameLen
  00bf7	50		 push	 eax
  00bf8	68 00 00 00 00	 push	 OFFSET ??_C@_03OJBHPKML@IDF?$AA@
  00bfd	68 00 00 00 00	 push	 OFFSET _bytData
  00c02	e8 00 00 00 00	 call	 _AddTagToDataAndSendToHost
  00c07	83 c4 0c	 add	 esp, 12			; 0000000cH
  00c0a	eb 51		 jmp	 SHORT $LN22@ProcessNew
$LN26@ProcessNew:

; 1291 : 					else if (intFrameType >= 0x31 && intFrameType <= 0x38)

  00c0c	83 3d 00 00 00
	00 31		 cmp	 DWORD PTR _intFrameType, 49 ; 00000031H
  00c13	7c 1e		 jl	 SHORT $LN24@ProcessNew
  00c15	83 3d 00 00 00
	00 38		 cmp	 DWORD PTR _intFrameType, 56 ; 00000038H
  00c1c	7f 15		 jg	 SHORT $LN24@ProcessNew

; 1292 : 						ProcessUnconnectedConReqFrame(intFrameType, bytData);			

  00c1e	68 00 00 00 00	 push	 OFFSET _bytData
  00c23	a1 00 00 00 00	 mov	 eax, DWORD PTR _intFrameType
  00c28	50		 push	 eax
  00c29	e8 00 00 00 00	 call	 _ProcessUnconnectedConReqFrame
  00c2e	83 c4 08	 add	 esp, 8
  00c31	eb 2a		 jmp	 SHORT $LN22@ProcessNew
$LN24@ProcessNew:

; 1293 : 					else if (IsDataFrame(intFrameType)) // check to see if a data frame

  00c33	a0 00 00 00 00	 mov	 al, BYTE PTR _intFrameType
  00c38	50		 push	 eax
  00c39	e8 00 00 00 00	 call	 _IsDataFrame
  00c3e	83 c4 04	 add	 esp, 4
  00c41	85 c0		 test	 eax, eax
  00c43	74 18		 je	 SHORT $LN22@ProcessNew

; 1294 : 						ProcessRcvdFECDataFrame(intFrameType, bytData, blnFrameDecodedOK);			

  00c45	8b 45 f8	 mov	 eax, DWORD PTR _blnFrameDecodedOK$[ebp]
  00c48	50		 push	 eax
  00c49	68 00 00 00 00	 push	 OFFSET _bytData
  00c4e	8b 0d 00 00 00
	00		 mov	 ecx, DWORD PTR _intFrameType
  00c54	51		 push	 ecx
  00c55	e8 00 00 00 00	 call	 _ProcessRcvdFECDataFrame
  00c5a	83 c4 0c	 add	 esp, 12			; 0000000cH
$LN22@ProcessNew:

; 1295 : 			}
; 1296 : 			else

  00c5d	eb 20		 jmp	 SHORT $LN21@ProcessNew
$LN29@ProcessNew:

; 1297 : 			{
; 1298 : 				// Unknown Mode
; 1299 : 				bytData[frameLen] = 0;

  00c5f	a1 00 00 00 00	 mov	 eax, DWORD PTR _frameLen
  00c64	c6 80 00 00 00
	00 00		 mov	 BYTE PTR _bytData[eax], 0

; 1300 : 				WriteDebugLog(LOGDEBUG, "Received Data, No State %s", bytData);

  00c6b	68 00 00 00 00	 push	 OFFSET _bytData
  00c70	68 00 00 00 00	 push	 OFFSET ??_C@_0BL@EBKFJBEL@Received?5Data?0?5No?5State?5?$CFs?$AA@
  00c75	6a 07		 push	 7
  00c77	e8 00 00 00 00	 call	 _WriteDebugLog
  00c7c	83 c4 0c	 add	 esp, 12			; 0000000cH
$LN21@ProcessNew:

; 1301 : 			}
; 1302 : 		}
; 1303 : 		else

  00c7f	e9 75 01 00 00	 jmp	 $LN2@ProcessNew
$LN43@ProcessNew:

; 1304 : 		{
; 1305 : 			//	Bad decode
; 1306 : 
; 1307 :             if (AccumulateStats)

  00c84	83 3d 00 00 00
	00 00		 cmp	 DWORD PTR _AccumulateStats, 0
  00c8b	74 69		 je	 SHORT $LN14@ProcessNew

; 1308 : 				if (IsDataFrame(intFrameType))

  00c8d	a0 00 00 00 00	 mov	 al, BYTE PTR _intFrameType
  00c92	50		 push	 eax
  00c93	e8 00 00 00 00	 call	 _IsDataFrame
  00c98	83 c4 04	 add	 esp, 4
  00c9b	85 c0		 test	 eax, eax
  00c9d	74 57		 je	 SHORT $LN14@ProcessNew

; 1309 : 					if (strstr (strMod, "PSK"))

  00c9f	68 00 00 00 00	 push	 OFFSET ??_C@_03GIMBCJGG@PSK?$AA@
  00ca4	68 00 00 00 00	 push	 OFFSET _strMod
  00ca9	e8 00 00 00 00	 call	 _strstr
  00cae	83 c4 08	 add	 esp, 8
  00cb1	85 c0		 test	 eax, eax
  00cb3	74 0f		 je	 SHORT $LN17@ProcessNew

; 1310 : 						intFailedPSKFrameDataDecodes++;

  00cb5	a1 00 00 00 00	 mov	 eax, DWORD PTR _intFailedPSKFrameDataDecodes
  00cba	83 c0 01	 add	 eax, 1
  00cbd	a3 00 00 00 00	 mov	 DWORD PTR _intFailedPSKFrameDataDecodes, eax
  00cc2	eb 32		 jmp	 SHORT $LN14@ProcessNew
$LN17@ProcessNew:

; 1311 : 					else if (strstr (strMod, "QAM"))

  00cc4	68 00 00 00 00	 push	 OFFSET ??_C@_03JJIFJOJL@QAM?$AA@
  00cc9	68 00 00 00 00	 push	 OFFSET _strMod
  00cce	e8 00 00 00 00	 call	 _strstr
  00cd3	83 c4 08	 add	 esp, 8
  00cd6	85 c0		 test	 eax, eax
  00cd8	74 0f		 je	 SHORT $LN15@ProcessNew

; 1312 : 						intFailedQAMFrameDataDecodes++;

  00cda	a1 00 00 00 00	 mov	 eax, DWORD PTR _intFailedQAMFrameDataDecodes
  00cdf	83 c0 01	 add	 eax, 1
  00ce2	a3 00 00 00 00	 mov	 DWORD PTR _intFailedQAMFrameDataDecodes, eax

; 1313 : 					else

  00ce7	eb 0d		 jmp	 SHORT $LN14@ProcessNew
$LN15@ProcessNew:

; 1314 : 						intFailedFSKFrameDataDecodes++;

  00ce9	a1 00 00 00 00	 mov	 eax, DWORD PTR _intFailedFSKFrameDataDecodes
  00cee	83 c0 01	 add	 eax, 1
  00cf1	a3 00 00 00 00	 mov	 DWORD PTR _intFailedFSKFrameDataDecodes, eax
$LN14@ProcessNew:

; 1315 : 
; 1316 : 
; 1317 :             // Debug.WriteLine("[DecodePSKData2] bytPass = " & Format(bytPass, "X"))
; 1318 : 			if (ProtocolMode == FEC)

  00cf6	83 3d 00 00 00
	00 01		 cmp	 DWORD PTR _ProtocolMode, 1
  00cfd	75 52		 jne	 SHORT $LN13@ProcessNew

; 1319 : 			{
; 1320 : 				if (IsDataFrame(intFrameType))	// ' check to see if a data frame

  00cff	a0 00 00 00 00	 mov	 al, BYTE PTR _intFrameType
  00d04	50		 push	 eax
  00d05	e8 00 00 00 00	 call	 _IsDataFrame
  00d0a	83 c4 04	 add	 esp, 4
  00d0d	85 c0		 test	 eax, eax
  00d0f	74 1a		 je	 SHORT $LN12@ProcessNew

; 1321 : 					ProcessRcvdFECDataFrame(intFrameType, bytData, blnFrameDecodedOK);

  00d11	8b 45 f8	 mov	 eax, DWORD PTR _blnFrameDecodedOK$[ebp]
  00d14	50		 push	 eax
  00d15	68 00 00 00 00	 push	 OFFSET _bytData
  00d1a	8b 0d 00 00 00
	00		 mov	 ecx, DWORD PTR _intFrameType
  00d20	51		 push	 ecx
  00d21	e8 00 00 00 00	 call	 _ProcessRcvdFECDataFrame
  00d26	83 c4 0c	 add	 esp, 12			; 0000000cH
  00d29	eb 21		 jmp	 SHORT $LN10@ProcessNew
$LN12@ProcessNew:

; 1322 : 				else if (intFrameType == 0x30)

  00d2b	83 3d 00 00 00
	00 30		 cmp	 DWORD PTR _intFrameType, 48 ; 00000030H
  00d32	75 18		 jne	 SHORT $LN10@ProcessNew

; 1323 : 					AddTagToDataAndSendToHost(bytData, "ERR", frameLen);

  00d34	a1 00 00 00 00	 mov	 eax, DWORD PTR _frameLen
  00d39	50		 push	 eax
  00d3a	68 00 00 00 00	 push	 OFFSET ??_C@_03JFMEENOE@ERR?$AA@
  00d3f	68 00 00 00 00	 push	 OFFSET _bytData
  00d44	e8 00 00 00 00	 call	 _AddTagToDataAndSendToHost
  00d49	83 c4 0c	 add	 esp, 12			; 0000000cH
$LN10@ProcessNew:

; 1324 : 			}				
; 1325 : 			else if (ProtocolMode == ARQ)

  00d4c	e9 87 00 00 00	 jmp	 $LN3@ProcessNew
$LN13@ProcessNew:
  00d51	83 3d 00 00 00
	00 02		 cmp	 DWORD PTR _ProtocolMode, 2
  00d58	75 7e		 jne	 SHORT $LN3@ProcessNew

; 1326 : 			{
; 1327 : 				if (ProtocolState == DISC)		  // allows ARQ mode to operate like FEC when not connected

  00d5a	83 3d 00 00 00
	00 01		 cmp	 DWORD PTR _ProtocolState, 1
  00d61	75 4d		 jne	 SHORT $LN4@ProcessNew

; 1328 : 				{
; 1329 : 					if (intFrameType == 0x30)				

  00d63	83 3d 00 00 00
	00 30		 cmp	 DWORD PTR _intFrameType, 48 ; 00000030H
  00d6a	75 1a		 jne	 SHORT $LN6@ProcessNew

; 1330 : 						AddTagToDataAndSendToHost(bytData, "ERR", frameLen);			

  00d6c	a1 00 00 00 00	 mov	 eax, DWORD PTR _frameLen
  00d71	50		 push	 eax
  00d72	68 00 00 00 00	 push	 OFFSET ??_C@_03JFMEENOE@ERR?$AA@
  00d77	68 00 00 00 00	 push	 OFFSET _bytData
  00d7c	e8 00 00 00 00	 call	 _AddTagToDataAndSendToHost
  00d81	83 c4 0c	 add	 esp, 12			; 0000000cH
  00d84	eb 2a		 jmp	 SHORT $LN4@ProcessNew
$LN6@ProcessNew:

; 1331 : 
; 1332 : 					else if (IsDataFrame(intFrameType))		// check to see if a data frame

  00d86	a0 00 00 00 00	 mov	 al, BYTE PTR _intFrameType
  00d8b	50		 push	 eax
  00d8c	e8 00 00 00 00	 call	 _IsDataFrame
  00d91	83 c4 04	 add	 esp, 4
  00d94	85 c0		 test	 eax, eax
  00d96	74 18		 je	 SHORT $LN4@ProcessNew

; 1333 : 						ProcessRcvdFECDataFrame(intFrameType, bytData, blnFrameDecodedOK);

  00d98	8b 45 f8	 mov	 eax, DWORD PTR _blnFrameDecodedOK$[ebp]
  00d9b	50		 push	 eax
  00d9c	68 00 00 00 00	 push	 OFFSET _bytData
  00da1	8b 0d 00 00 00
	00		 mov	 ecx, DWORD PTR _intFrameType
  00da7	51		 push	 ecx
  00da8	e8 00 00 00 00	 call	 _ProcessRcvdFECDataFrame
  00dad	83 c4 0c	 add	 esp, 12			; 0000000cH
$LN4@ProcessNew:

; 1334 : 				}
; 1335 : 				if (!blnTimeoutTriggered)

  00db0	83 3d 00 00 00
	00 00		 cmp	 DWORD PTR _blnTimeoutTriggered, 0
  00db7	75 1f		 jne	 SHORT $LN3@ProcessNew

; 1336 : 					ProcessRcvdARQFrame(intFrameType, bytData, frameLen, blnFrameDecodedOK);  // Process connected ARQ frames here 

  00db9	8b 45 f8	 mov	 eax, DWORD PTR _blnFrameDecodedOK$[ebp]
  00dbc	50		 push	 eax
  00dbd	8b 0d 00 00 00
	00		 mov	 ecx, DWORD PTR _frameLen
  00dc3	51		 push	 ecx
  00dc4	68 00 00 00 00	 push	 OFFSET _bytData
  00dc9	8a 15 00 00 00
	00		 mov	 dl, BYTE PTR _intFrameType
  00dcf	52		 push	 edx
  00dd0	e8 00 00 00 00	 call	 _ProcessRcvdARQFrame
  00dd5	83 c4 10	 add	 esp, 16			; 00000010H
$LN3@ProcessNew:

; 1337 :  
; 1338 : 			}
; 1339 :   			if (ProtocolMode == FEC && ProtocolState != FECSend)

  00dd8	83 3d 00 00 00
	00 01		 cmp	 DWORD PTR _ProtocolMode, 1
  00ddf	75 18		 jne	 SHORT $LN2@ProcessNew
  00de1	83 3d 00 00 00
	00 06		 cmp	 DWORD PTR _ProtocolState, 6
  00de8	74 0f		 je	 SHORT $LN2@ProcessNew

; 1340 : 			{
; 1341 : 				SetARDOPProtocolState(DISC);

  00dea	6a 01		 push	 1
  00dec	e8 00 00 00 00	 call	 _SetARDOPProtocolState
  00df1	83 c4 04	 add	 esp, 4

; 1342 : 				InitializeConnection();

  00df4	e8 00 00 00 00	 call	 _InitializeConnection
$LN2@ProcessNew:

; 1343 : 			}
; 1344 : 		}
; 1345 : 		if (ProtocolMode == FEC && ProtocolState != FECSend)

  00df9	83 3d 00 00 00
	00 01		 cmp	 DWORD PTR _ProtocolMode, 1
  00e00	75 18		 jne	 SHORT $skipDecode$5902
  00e02	83 3d 00 00 00
	00 06		 cmp	 DWORD PTR _ProtocolState, 6
  00e09	74 0f		 je	 SHORT $skipDecode$5902

; 1346 : 		{
; 1347 : 			SetARDOPProtocolState(DISC);

  00e0b	6a 01		 push	 1
  00e0d	e8 00 00 00 00	 call	 _SetARDOPProtocolState
  00e12	83 c4 04	 add	 esp, 4

; 1348 : 			InitializeConnection();

  00e15	e8 00 00 00 00	 call	 _InitializeConnection
$skipDecode$5902:

; 1349 : 		}
; 1350 : skipDecode:			
; 1351 : 		State = SearchingForLeader;

  00e1a	c7 05 00 00 00
	00 00 00 00 00	 mov	 DWORD PTR _State, 0

; 1352 : 		ClearAllMixedSamples();

  00e24	e8 00 00 00 00	 call	 _ClearAllMixedSamples

; 1353 : 		DiscardOldSamples();

  00e29	e8 00 00 00 00	 call	 _DiscardOldSamples
$LN55@ProcessNew:

; 1354 : 		return;
; 1355 : 
; 1356 : 	}
; 1357 : }

  00e2e	52		 push	 edx
  00e2f	8b cd		 mov	 ecx, ebp
  00e31	50		 push	 eax
  00e32	8d 15 00 00 00
	00		 lea	 edx, DWORD PTR $LN110@ProcessNew
  00e38	e8 00 00 00 00	 call	 @_RTC_CheckStackVars@8
  00e3d	58		 pop	 eax
  00e3e	5a		 pop	 edx
  00e3f	5f		 pop	 edi
  00e40	5e		 pop	 esi
  00e41	5b		 pop	 ebx
  00e42	81 c4 d8 00 00
	00		 add	 esp, 216		; 000000d8H
  00e48	3b ec		 cmp	 ebp, esp
  00e4a	e8 00 00 00 00	 call	 __RTC_CheckEsp
  00e4f	8b e5		 mov	 esp, ebp
  00e51	5d		 pop	 ebp
  00e52	c3		 ret	 0
  00e53	90		 npad	 1
$LN110@ProcessNew:
  00e54	01 00 00 00	 DD	 1
  00e58	00 00 00 00	 DD	 $LN109@ProcessNew
$LN109@ProcessNew:
  00e5c	ec ff ff ff	 DD	 -20			; ffffffecH
  00e60	04 00 00 00	 DD	 4
  00e64	00 00 00 00	 DD	 $LN108@ProcessNew
$LN108@ProcessNew:
  00e68	69		 DB	 105			; 00000069H
  00e69	6e		 DB	 110			; 0000006eH
  00e6a	74		 DB	 116			; 00000074H
  00e6b	53		 DB	 83			; 00000053H
  00e6c	4e		 DB	 78			; 0000004eH
  00e6d	00		 DB	 0
_ProcessNewSamples ENDP
_TEXT	ENDS
PUBLIC	_GoertzelRealImag
EXTRN	_sin:PROC
; Function compile flags: /Odtp /RTCsu /ZI /ZX
;	COMDAT _GoertzelRealImag
_TEXT	SEGMENT
tv220 = -256						; size = 4
tv205 = -256						; size = 4
tv192 = -256						; size = 4
tv181 = -256						; size = 4
_i$ = -56						; size = 4
_dblCoeff$ = -44					; size = 4
_dblW$ = -32						; size = 4
_dblZ_2$ = -20						; size = 4
_dblZ_1$ = -8						; size = 4
_intRealIn$ = 8						; size = 4
_intPtr$ = 12						; size = 4
_N$ = 16						; size = 4
_m$ = 20						; size = 4
_dblReal$ = 24						; size = 4
_dblImag$ = 28						; size = 4
_GoertzelRealImag PROC					; COMDAT

; 1361 : {

  00000	55		 push	 ebp
  00001	8b ec		 mov	 ebp, esp
  00003	81 ec 00 01 00
	00		 sub	 esp, 256		; 00000100H
  00009	53		 push	 ebx
  0000a	56		 push	 esi
  0000b	57		 push	 edi
  0000c	8d bd 00 ff ff
	ff		 lea	 edi, DWORD PTR [ebp-256]
  00012	b9 40 00 00 00	 mov	 ecx, 64			; 00000040H
  00017	b8 cc cc cc cc	 mov	 eax, -858993460		; ccccccccH
  0001c	f3 ab		 rep stosd

; 1362 : 	// intRealIn is a buffer at least intPtr + N in length
; 1363 : 	// N need not be a power of 2
; 1364 : 	// m need not be an integer
; 1365 : 	// Computes the Real and Imaginary Freq values for bin m
; 1366 : 	// Verified to = FFT results for at least 10 significant digits
; 1367 : 	// Timings for 1024 Point on Laptop (64 bit Core Duo 2.2 Ghz)
; 1368 : 	//        GoertzelRealImag .015 ms   Normal FFT (.5 ms)
; 1369 : 	//  assuming Goertzel is proportional to N and FFT time proportional to Nlog2N
; 1370 : 	//  FFT:Goertzel time  ratio ~ 3.3 Log2(N)
; 1371 : 
; 1372 : 	//  Sanity check
; 1373 : 
; 1374 : 	//if (intPtr < 0 Or (intRealIn.Length - intPtr) < N Then
; 1375 :     //        dblReal = 0 : dblImag = 0 : Exit Sub
; 1376 :      //   End If
; 1377 : 
; 1378 : 	float dblZ_1 = 0.0f, dblZ_2 = 0.0f, dblW = 0.0f;

  0001e	d9 ee		 fldz
  00020	d9 5d f8	 fstp	 DWORD PTR _dblZ_1$[ebp]
  00023	d9 ee		 fldz
  00025	d9 5d ec	 fstp	 DWORD PTR _dblZ_2$[ebp]
  00028	d9 ee		 fldz
  0002a	d9 5d e0	 fstp	 DWORD PTR _dblW$[ebp]

; 1379 : 	float dblCoeff = 2 * cosf(2 * M_PI * m / N);

  0002d	d9 45 14	 fld	 DWORD PTR _m$[ebp]
  00030	dc 0d 00 00 00
	00		 fmul	 QWORD PTR __real@401921fb00000000
  00036	da 75 10	 fidiv	 DWORD PTR _N$[ebp]
  00039	83 ec 08	 sub	 esp, 8
  0003c	dd 1c 24	 fstp	 QWORD PTR [esp]
  0003f	e8 00 00 00 00	 call	 _cos
  00044	83 c4 08	 add	 esp, 8
  00047	d9 9d 00 ff ff
	ff		 fstp	 DWORD PTR tv181[ebp]
  0004d	d9 85 00 ff ff
	ff		 fld	 DWORD PTR tv181[ebp]
  00053	dc 0d 00 00 00
	00		 fmul	 QWORD PTR __real@4000000000000000
  00059	d9 5d d4	 fstp	 DWORD PTR _dblCoeff$[ebp]

; 1380 : 	int i;
; 1381 : 
; 1382 : 	for (i = 0; i <= N; i++)

  0005c	c7 45 c8 00 00
	00 00		 mov	 DWORD PTR _i$[ebp], 0
  00063	eb 09		 jmp	 SHORT $LN5@GoertzelRe
$LN4@GoertzelRe:
  00065	8b 45 c8	 mov	 eax, DWORD PTR _i$[ebp]
  00068	83 c0 01	 add	 eax, 1
  0006b	89 45 c8	 mov	 DWORD PTR _i$[ebp], eax
$LN5@GoertzelRe:
  0006e	8b 45 c8	 mov	 eax, DWORD PTR _i$[ebp]
  00071	3b 45 10	 cmp	 eax, DWORD PTR _N$[ebp]
  00074	7f 51		 jg	 SHORT $LN3@GoertzelRe

; 1383 : 	{
; 1384 : 		if (i == N)

  00076	8b 45 c8	 mov	 eax, DWORD PTR _i$[ebp]
  00079	3b 45 10	 cmp	 eax, DWORD PTR _N$[ebp]
  0007c	75 0e		 jne	 SHORT $LN2@GoertzelRe

; 1385 : 			dblW = dblZ_1 * dblCoeff - dblZ_2;

  0007e	d9 45 f8	 fld	 DWORD PTR _dblZ_1$[ebp]
  00081	d8 4d d4	 fmul	 DWORD PTR _dblCoeff$[ebp]
  00084	d8 65 ec	 fsub	 DWORD PTR _dblZ_2$[ebp]
  00087	d9 5d e0	 fstp	 DWORD PTR _dblW$[ebp]

; 1386 : 		else

  0008a	eb 24		 jmp	 SHORT $LN1@GoertzelRe
$LN2@GoertzelRe:

; 1387 : 			dblW = intRealIn[intPtr] + dblZ_1 * dblCoeff - dblZ_2;

  0008c	8b 45 0c	 mov	 eax, DWORD PTR _intPtr$[ebp]
  0008f	8b 4d 08	 mov	 ecx, DWORD PTR _intRealIn$[ebp]
  00092	0f bf 14 41	 movsx	 edx, WORD PTR [ecx+eax*2]
  00096	89 95 00 ff ff
	ff		 mov	 DWORD PTR tv192[ebp], edx
  0009c	db 85 00 ff ff
	ff		 fild	 DWORD PTR tv192[ebp]
  000a2	d9 45 f8	 fld	 DWORD PTR _dblZ_1$[ebp]
  000a5	d8 4d d4	 fmul	 DWORD PTR _dblCoeff$[ebp]
  000a8	de c1		 faddp	 ST(1), ST(0)
  000aa	d8 65 ec	 fsub	 DWORD PTR _dblZ_2$[ebp]
  000ad	d9 5d e0	 fstp	 DWORD PTR _dblW$[ebp]
$LN1@GoertzelRe:

; 1388 : 
; 1389 : 		dblZ_2 = dblZ_1;

  000b0	d9 45 f8	 fld	 DWORD PTR _dblZ_1$[ebp]
  000b3	d9 5d ec	 fstp	 DWORD PTR _dblZ_2$[ebp]

; 1390 : 		dblZ_1 = dblW;

  000b6	d9 45 e0	 fld	 DWORD PTR _dblW$[ebp]
  000b9	d9 5d f8	 fstp	 DWORD PTR _dblZ_1$[ebp]

; 1391 : 		intPtr++;

  000bc	8b 45 0c	 mov	 eax, DWORD PTR _intPtr$[ebp]
  000bf	83 c0 01	 add	 eax, 1
  000c2	89 45 0c	 mov	 DWORD PTR _intPtr$[ebp], eax

; 1392 : 	}

  000c5	eb 9e		 jmp	 SHORT $LN4@GoertzelRe
$LN3@GoertzelRe:

; 1393 : 	*dblReal = 2 * (dblW - cosf(2 * M_PI * m / N) * dblZ_2) / N;  // scale results by N/2

  000c7	d9 45 14	 fld	 DWORD PTR _m$[ebp]
  000ca	dc 0d 00 00 00
	00		 fmul	 QWORD PTR __real@401921fb00000000
  000d0	da 75 10	 fidiv	 DWORD PTR _N$[ebp]
  000d3	83 ec 08	 sub	 esp, 8
  000d6	dd 1c 24	 fstp	 QWORD PTR [esp]
  000d9	e8 00 00 00 00	 call	 _cos
  000de	83 c4 08	 add	 esp, 8
  000e1	d9 9d 00 ff ff
	ff		 fstp	 DWORD PTR tv205[ebp]
  000e7	d9 85 00 ff ff
	ff		 fld	 DWORD PTR tv205[ebp]
  000ed	d8 4d ec	 fmul	 DWORD PTR _dblZ_2$[ebp]
  000f0	d8 6d e0	 fsubr	 DWORD PTR _dblW$[ebp]
  000f3	dc 0d 00 00 00
	00		 fmul	 QWORD PTR __real@4000000000000000
  000f9	da 75 10	 fidiv	 DWORD PTR _N$[ebp]
  000fc	8b 45 18	 mov	 eax, DWORD PTR _dblReal$[ebp]
  000ff	d9 18		 fstp	 DWORD PTR [eax]

; 1394 : 	*dblImag = 2 * (sinf(2 * M_PI * m / N) * dblZ_2) / N;  // scale results by N/2   (this sign agrees with Scope DSP phase values) 

  00101	d9 45 14	 fld	 DWORD PTR _m$[ebp]
  00104	dc 0d 00 00 00
	00		 fmul	 QWORD PTR __real@401921fb00000000
  0010a	da 75 10	 fidiv	 DWORD PTR _N$[ebp]
  0010d	83 ec 08	 sub	 esp, 8
  00110	dd 1c 24	 fstp	 QWORD PTR [esp]
  00113	e8 00 00 00 00	 call	 _sin
  00118	83 c4 08	 add	 esp, 8
  0011b	d9 9d 00 ff ff
	ff		 fstp	 DWORD PTR tv220[ebp]
  00121	d9 85 00 ff ff
	ff		 fld	 DWORD PTR tv220[ebp]
  00127	d8 4d ec	 fmul	 DWORD PTR _dblZ_2$[ebp]
  0012a	dc 0d 00 00 00
	00		 fmul	 QWORD PTR __real@4000000000000000
  00130	da 75 10	 fidiv	 DWORD PTR _N$[ebp]
  00133	8b 45 1c	 mov	 eax, DWORD PTR _dblImag$[ebp]
  00136	d9 18		 fstp	 DWORD PTR [eax]

; 1395 : }

  00138	5f		 pop	 edi
  00139	5e		 pop	 esi
  0013a	5b		 pop	 ebx
  0013b	81 c4 00 01 00
	00		 add	 esp, 256		; 00000100H
  00141	3b ec		 cmp	 ebp, esp
  00143	e8 00 00 00 00	 call	 __RTC_CheckEsp
  00148	8b e5		 mov	 esp, ebp
  0014a	5d		 pop	 ebp
  0014b	c3		 ret	 0
_GoertzelRealImag ENDP
_TEXT	ENDS
PUBLIC	__real@3fe0000000000000
PUBLIC	_GoertzelRealImagHanning
;	COMDAT __real@3fe0000000000000
CONST	SEGMENT
__real@3fe0000000000000 DQ 03fe0000000000000r	; 0.5
; Function compile flags: /Odtp /RTCsu /ZI /ZX
CONST	ENDS
;	COMDAT _GoertzelRealImagHanning
_TEXT	SEGMENT
tv270 = -256						; size = 4
tv255 = -256						; size = 4
tv241 = -256						; size = 4
tv228 = -256						; size = 4
tv216 = -256						; size = 4
tv208 = -256						; size = 4
_i$ = -56						; size = 4
_dblCoeff$ = -44					; size = 4
_dblW$ = -32						; size = 4
_dblZ_2$ = -20						; size = 4
_dblZ_1$ = -8						; size = 4
_intRealIn$ = 8						; size = 4
_intPtr$ = 12						; size = 4
_N$ = 16						; size = 4
_m$ = 20						; size = 4
_dblReal$ = 24						; size = 4
_dblImag$ = 28						; size = 4
_GoertzelRealImagHanning PROC				; COMDAT

; 1404 : {

  00000	55		 push	 ebp
  00001	8b ec		 mov	 ebp, esp
  00003	81 ec 00 01 00
	00		 sub	 esp, 256		; 00000100H
  00009	53		 push	 ebx
  0000a	56		 push	 esi
  0000b	57		 push	 edi
  0000c	8d bd 00 ff ff
	ff		 lea	 edi, DWORD PTR [ebp-256]
  00012	b9 40 00 00 00	 mov	 ecx, 64			; 00000040H
  00017	b8 cc cc cc cc	 mov	 eax, -858993460		; ccccccccH
  0001c	f3 ab		 rep stosd

; 1405 : 	// intRealIn is a buffer at least intPtr + N in length
; 1406 : 	// N need not be a power of 2
; 1407 : 	// m need not be an integer
; 1408 : 	// Computes the Real and Imaginary Freq values for bin m
; 1409 : 	// Verified to = FFT results for at least 10 significant digits
; 1410 : 	// Timings for 1024 Point on Laptop (64 bit Core Duo 2.2 Ghz)
; 1411 : 	//        GoertzelRealImag .015 ms   Normal FFT (.5 ms)
; 1412 : 	//  assuming Goertzel is proportional to N and FFT time proportional to Nlog2N
; 1413 : 	//  FFT:Goertzel time  ratio ~ 3.3 Log2(N)
; 1414 : 
; 1415 : 	//  Sanity check
; 1416 :  
; 1417 :   	float dblZ_1 = 0.0f, dblZ_2 = 0.0f, dblW = 0.0f;

  0001e	d9 ee		 fldz
  00020	d9 5d f8	 fstp	 DWORD PTR _dblZ_1$[ebp]
  00023	d9 ee		 fldz
  00025	d9 5d ec	 fstp	 DWORD PTR _dblZ_2$[ebp]
  00028	d9 ee		 fldz
  0002a	d9 5d e0	 fstp	 DWORD PTR _dblW$[ebp]

; 1418 : 	float dblCoeff = 2 * cosf(2 * M_PI * m / N);

  0002d	d9 45 14	 fld	 DWORD PTR _m$[ebp]
  00030	dc 0d 00 00 00
	00		 fmul	 QWORD PTR __real@401921fb00000000
  00036	da 75 10	 fidiv	 DWORD PTR _N$[ebp]
  00039	83 ec 08	 sub	 esp, 8
  0003c	dd 1c 24	 fstp	 QWORD PTR [esp]
  0003f	e8 00 00 00 00	 call	 _cos
  00044	83 c4 08	 add	 esp, 8
  00047	d9 9d 00 ff ff
	ff		 fstp	 DWORD PTR tv208[ebp]
  0004d	d9 85 00 ff ff
	ff		 fld	 DWORD PTR tv208[ebp]
  00053	dc 0d 00 00 00
	00		 fmul	 QWORD PTR __real@4000000000000000
  00059	d9 5d d4	 fstp	 DWORD PTR _dblCoeff$[ebp]

; 1419 : 
; 1420 : 	int i;
; 1421 : 
; 1422 : 	if (HanWinLen != N)  //if there is any change in N this is then recalculate the Hanning Window...this mechanism reduces use of Cos

  0005c	a1 00 00 00 00	 mov	 eax, DWORD PTR _HanWinLen
  00061	3b 45 10	 cmp	 eax, DWORD PTR _N$[ebp]
  00064	74 7b		 je	 SHORT $LN6@GoertzelRe@2

; 1423 : 	{
; 1424 : 		HanWinLen = N;

  00066	8b 45 10	 mov	 eax, DWORD PTR _N$[ebp]
  00069	a3 00 00 00 00	 mov	 DWORD PTR _HanWinLen, eax

; 1425 : 
; 1426 : 		dblHanAng = 2 * M_PI / (N - 1);

  0006e	8b 45 10	 mov	 eax, DWORD PTR _N$[ebp]
  00071	83 e8 01	 sub	 eax, 1
  00074	89 85 00 ff ff
	ff		 mov	 DWORD PTR tv216[ebp], eax
  0007a	db 85 00 ff ff
	ff		 fild	 DWORD PTR tv216[ebp]
  00080	dc 3d 00 00 00
	00		 fdivr	 QWORD PTR __real@401921fb00000000
  00086	d9 1d 00 00 00
	00		 fstp	 DWORD PTR _dblHanAng

; 1427 : 
; 1428 : 		for (i = 0; i < N; i++)

  0008c	c7 45 c8 00 00
	00 00		 mov	 DWORD PTR _i$[ebp], 0
  00093	eb 09		 jmp	 SHORT $LN8@GoertzelRe@2
$LN7@GoertzelRe@2:
  00095	8b 45 c8	 mov	 eax, DWORD PTR _i$[ebp]
  00098	83 c0 01	 add	 eax, 1
  0009b	89 45 c8	 mov	 DWORD PTR _i$[ebp], eax
$LN8@GoertzelRe@2:
  0009e	8b 45 c8	 mov	 eax, DWORD PTR _i$[ebp]
  000a1	3b 45 10	 cmp	 eax, DWORD PTR _N$[ebp]
  000a4	7d 3b		 jge	 SHORT $LN6@GoertzelRe@2

; 1429 : 		{
; 1430 : 			dblHanWin[i] = 0.5 - 0.5 * cosf(i * dblHanAng);

  000a6	db 45 c8	 fild	 DWORD PTR _i$[ebp]
  000a9	d8 0d 00 00 00
	00		 fmul	 DWORD PTR _dblHanAng
  000af	83 ec 08	 sub	 esp, 8
  000b2	dd 1c 24	 fstp	 QWORD PTR [esp]
  000b5	e8 00 00 00 00	 call	 _cos
  000ba	83 c4 08	 add	 esp, 8
  000bd	d9 9d 00 ff ff
	ff		 fstp	 DWORD PTR tv228[ebp]
  000c3	d9 85 00 ff ff
	ff		 fld	 DWORD PTR tv228[ebp]
  000c9	dc 0d 00 00 00
	00		 fmul	 QWORD PTR __real@3fe0000000000000
  000cf	dc 2d 00 00 00
	00		 fsubr	 QWORD PTR __real@3fe0000000000000
  000d5	8b 45 c8	 mov	 eax, DWORD PTR _i$[ebp]
  000d8	d9 1c 85 00 00
	00 00		 fstp	 DWORD PTR _dblHanWin[eax*4]

; 1431 : 		}

  000df	eb b4		 jmp	 SHORT $LN7@GoertzelRe@2
$LN6@GoertzelRe@2:

; 1432 : 	}
; 1433 : 
; 1434 : 	for (i = 0; i <= N; i++)

  000e1	c7 45 c8 00 00
	00 00		 mov	 DWORD PTR _i$[ebp], 0
  000e8	eb 09		 jmp	 SHORT $LN5@GoertzelRe@2
$LN4@GoertzelRe@2:
  000ea	8b 45 c8	 mov	 eax, DWORD PTR _i$[ebp]
  000ed	83 c0 01	 add	 eax, 1
  000f0	89 45 c8	 mov	 DWORD PTR _i$[ebp], eax
$LN5@GoertzelRe@2:
  000f3	8b 45 c8	 mov	 eax, DWORD PTR _i$[ebp]
  000f6	3b 45 10	 cmp	 eax, DWORD PTR _N$[ebp]
  000f9	7f 5b		 jg	 SHORT $LN3@GoertzelRe@2

; 1435 : 	{
; 1436 : 		if (i == N)

  000fb	8b 45 c8	 mov	 eax, DWORD PTR _i$[ebp]
  000fe	3b 45 10	 cmp	 eax, DWORD PTR _N$[ebp]
  00101	75 0e		 jne	 SHORT $LN2@GoertzelRe@2

; 1437 : 			dblW = dblZ_1 * dblCoeff - dblZ_2;

  00103	d9 45 f8	 fld	 DWORD PTR _dblZ_1$[ebp]
  00106	d8 4d d4	 fmul	 DWORD PTR _dblCoeff$[ebp]
  00109	d8 65 ec	 fsub	 DWORD PTR _dblZ_2$[ebp]
  0010c	d9 5d e0	 fstp	 DWORD PTR _dblW$[ebp]

; 1438 : 		else

  0010f	eb 2e		 jmp	 SHORT $LN1@GoertzelRe@2
$LN2@GoertzelRe@2:

; 1439 : 			dblW = intRealIn[intPtr]  * dblHanWin[i] + dblZ_1 * dblCoeff - dblZ_2;

  00111	8b 45 0c	 mov	 eax, DWORD PTR _intPtr$[ebp]
  00114	8b 4d 08	 mov	 ecx, DWORD PTR _intRealIn$[ebp]
  00117	0f bf 14 41	 movsx	 edx, WORD PTR [ecx+eax*2]
  0011b	89 95 00 ff ff
	ff		 mov	 DWORD PTR tv241[ebp], edx
  00121	db 85 00 ff ff
	ff		 fild	 DWORD PTR tv241[ebp]
  00127	8b 45 c8	 mov	 eax, DWORD PTR _i$[ebp]
  0012a	d8 0c 85 00 00
	00 00		 fmul	 DWORD PTR _dblHanWin[eax*4]
  00131	d9 45 f8	 fld	 DWORD PTR _dblZ_1$[ebp]
  00134	d8 4d d4	 fmul	 DWORD PTR _dblCoeff$[ebp]
  00137	de c1		 faddp	 ST(1), ST(0)
  00139	d8 65 ec	 fsub	 DWORD PTR _dblZ_2$[ebp]
  0013c	d9 5d e0	 fstp	 DWORD PTR _dblW$[ebp]
$LN1@GoertzelRe@2:

; 1440 : 
; 1441 : 		dblZ_2 = dblZ_1;

  0013f	d9 45 f8	 fld	 DWORD PTR _dblZ_1$[ebp]
  00142	d9 5d ec	 fstp	 DWORD PTR _dblZ_2$[ebp]

; 1442 : 		dblZ_1 = dblW;

  00145	d9 45 e0	 fld	 DWORD PTR _dblW$[ebp]
  00148	d9 5d f8	 fstp	 DWORD PTR _dblZ_1$[ebp]

; 1443 : 		intPtr++;

  0014b	8b 45 0c	 mov	 eax, DWORD PTR _intPtr$[ebp]
  0014e	83 c0 01	 add	 eax, 1
  00151	89 45 0c	 mov	 DWORD PTR _intPtr$[ebp], eax

; 1444 : 	}

  00154	eb 94		 jmp	 SHORT $LN4@GoertzelRe@2
$LN3@GoertzelRe@2:

; 1445 : 	
; 1446 : 	*dblReal = 2 * (dblW - cosf(2 * M_PI * m / N) * dblZ_2) / N;  // scale results by N/2

  00156	d9 45 14	 fld	 DWORD PTR _m$[ebp]
  00159	dc 0d 00 00 00
	00		 fmul	 QWORD PTR __real@401921fb00000000
  0015f	da 75 10	 fidiv	 DWORD PTR _N$[ebp]
  00162	83 ec 08	 sub	 esp, 8
  00165	dd 1c 24	 fstp	 QWORD PTR [esp]
  00168	e8 00 00 00 00	 call	 _cos
  0016d	83 c4 08	 add	 esp, 8
  00170	d9 9d 00 ff ff
	ff		 fstp	 DWORD PTR tv255[ebp]
  00176	d9 85 00 ff ff
	ff		 fld	 DWORD PTR tv255[ebp]
  0017c	d8 4d ec	 fmul	 DWORD PTR _dblZ_2$[ebp]
  0017f	d8 6d e0	 fsubr	 DWORD PTR _dblW$[ebp]
  00182	dc 0d 00 00 00
	00		 fmul	 QWORD PTR __real@4000000000000000
  00188	da 75 10	 fidiv	 DWORD PTR _N$[ebp]
  0018b	8b 45 18	 mov	 eax, DWORD PTR _dblReal$[ebp]
  0018e	d9 18		 fstp	 DWORD PTR [eax]

; 1447 : 	*dblImag = 2 * (sinf(2 * M_PI * m / N) * dblZ_2) / N;  // scale results by N/2   (this sign agrees with Scope DSP phase values) 

  00190	d9 45 14	 fld	 DWORD PTR _m$[ebp]
  00193	dc 0d 00 00 00
	00		 fmul	 QWORD PTR __real@401921fb00000000
  00199	da 75 10	 fidiv	 DWORD PTR _N$[ebp]
  0019c	83 ec 08	 sub	 esp, 8
  0019f	dd 1c 24	 fstp	 QWORD PTR [esp]
  001a2	e8 00 00 00 00	 call	 _sin
  001a7	83 c4 08	 add	 esp, 8
  001aa	d9 9d 00 ff ff
	ff		 fstp	 DWORD PTR tv270[ebp]
  001b0	d9 85 00 ff ff
	ff		 fld	 DWORD PTR tv270[ebp]
  001b6	d8 4d ec	 fmul	 DWORD PTR _dblZ_2$[ebp]
  001b9	dc 0d 00 00 00
	00		 fmul	 QWORD PTR __real@4000000000000000
  001bf	da 75 10	 fidiv	 DWORD PTR _N$[ebp]
  001c2	8b 45 1c	 mov	 eax, DWORD PTR _dblImag$[ebp]
  001c5	d9 18		 fstp	 DWORD PTR [eax]

; 1448 : }

  001c7	5f		 pop	 edi
  001c8	5e		 pop	 esi
  001c9	5b		 pop	 ebx
  001ca	81 c4 00 01 00
	00		 add	 esp, 256		; 00000100H
  001d0	3b ec		 cmp	 ebp, esp
  001d2	e8 00 00 00 00	 call	 __RTC_CheckEsp
  001d7	8b e5		 mov	 esp, ebp
  001d9	5d		 pop	 ebp
  001da	c3		 ret	 0
_GoertzelRealImagHanning ENDP
_TEXT	ENDS
PUBLIC	__real@3fe147ae20000000
PUBLIC	__real@3fdd70a3e0000000
PUBLIC	_GoertzelRealImagHamming
;	COMDAT __real@3fe147ae20000000
CONST	SEGMENT
__real@3fe147ae20000000 DQ 03fe147ae20000000r	; 0.54
CONST	ENDS
;	COMDAT __real@3fdd70a3e0000000
CONST	SEGMENT
__real@3fdd70a3e0000000 DQ 03fdd70a3e0000000r	; 0.46
; Function compile flags: /Odtp /RTCsu /ZI /ZX
CONST	ENDS
;	COMDAT _GoertzelRealImagHamming
_TEXT	SEGMENT
tv270 = -256						; size = 4
tv255 = -256						; size = 4
tv241 = -256						; size = 4
tv228 = -256						; size = 4
tv216 = -256						; size = 4
tv208 = -256						; size = 4
_i$ = -56						; size = 4
_dblCoeff$ = -44					; size = 4
_dblW$ = -32						; size = 4
_dblZ_2$ = -20						; size = 4
_dblZ_1$ = -8						; size = 4
_intRealIn$ = 8						; size = 4
_intPtr$ = 12						; size = 4
_N$ = 16						; size = 4
_m$ = 20						; size = 4
_dblReal$ = 24						; size = 4
_dblImag$ = 28						; size = 4
_GoertzelRealImagHamming PROC				; COMDAT

; 1455 : {

  00000	55		 push	 ebp
  00001	8b ec		 mov	 ebp, esp
  00003	81 ec 00 01 00
	00		 sub	 esp, 256		; 00000100H
  00009	53		 push	 ebx
  0000a	56		 push	 esi
  0000b	57		 push	 edi
  0000c	8d bd 00 ff ff
	ff		 lea	 edi, DWORD PTR [ebp-256]
  00012	b9 40 00 00 00	 mov	 ecx, 64			; 00000040H
  00017	b8 cc cc cc cc	 mov	 eax, -858993460		; ccccccccH
  0001c	f3 ab		 rep stosd

; 1456 : 	// intRealIn is a buffer at least intPtr + N in length
; 1457 : 	// N need not be a power of 2
; 1458 : 	// m need not be an integer
; 1459 : 	// Computes the Real and Imaginary Freq values for bin m
; 1460 : 	// Verified to = FFT results for at least 10 significant digits
; 1461 : 	// Timings for 1024 Point on Laptop (64 bit Core Duo 2.2 Ghz)
; 1462 : 	//        GoertzelRealImag .015 ms   Normal FFT (.5 ms)
; 1463 : 	//  assuming Goertzel is proportional to N and FFT time proportional to Nlog2N
; 1464 : 	//  FFT:Goertzel time  ratio ~ 3.3 Log2(N)
; 1465 : 
; 1466 : 	//  Sanity check
; 1467 :  
; 1468 :   	float dblZ_1 = 0.0f, dblZ_2 = 0.0f, dblW = 0.0f;

  0001e	d9 ee		 fldz
  00020	d9 5d f8	 fstp	 DWORD PTR _dblZ_1$[ebp]
  00023	d9 ee		 fldz
  00025	d9 5d ec	 fstp	 DWORD PTR _dblZ_2$[ebp]
  00028	d9 ee		 fldz
  0002a	d9 5d e0	 fstp	 DWORD PTR _dblW$[ebp]

; 1469 : 	float dblCoeff = 2 * cosf(2 * M_PI * m / N);

  0002d	d9 45 14	 fld	 DWORD PTR _m$[ebp]
  00030	dc 0d 00 00 00
	00		 fmul	 QWORD PTR __real@401921fb00000000
  00036	da 75 10	 fidiv	 DWORD PTR _N$[ebp]
  00039	83 ec 08	 sub	 esp, 8
  0003c	dd 1c 24	 fstp	 QWORD PTR [esp]
  0003f	e8 00 00 00 00	 call	 _cos
  00044	83 c4 08	 add	 esp, 8
  00047	d9 9d 00 ff ff
	ff		 fstp	 DWORD PTR tv208[ebp]
  0004d	d9 85 00 ff ff
	ff		 fld	 DWORD PTR tv208[ebp]
  00053	dc 0d 00 00 00
	00		 fmul	 QWORD PTR __real@4000000000000000
  00059	d9 5d d4	 fstp	 DWORD PTR _dblCoeff$[ebp]

; 1470 : 
; 1471 : 	int i;
; 1472 : 
; 1473 : 	if (HamWinLen != N)  //if there is any cHamge in N this is then recalculate the Hanning Window...this mechanism reduces use of Cos

  0005c	a1 00 00 00 00	 mov	 eax, DWORD PTR _HamWinLen
  00061	3b 45 10	 cmp	 eax, DWORD PTR _N$[ebp]
  00064	74 7b		 je	 SHORT $LN6@GoertzelRe@3

; 1474 : 	{
; 1475 : 		HamWinLen = N;

  00066	8b 45 10	 mov	 eax, DWORD PTR _N$[ebp]
  00069	a3 00 00 00 00	 mov	 DWORD PTR _HamWinLen, eax

; 1476 : 
; 1477 : 		dblHamAng = 2 * M_PI / (N - 1);

  0006e	8b 45 10	 mov	 eax, DWORD PTR _N$[ebp]
  00071	83 e8 01	 sub	 eax, 1
  00074	89 85 00 ff ff
	ff		 mov	 DWORD PTR tv216[ebp], eax
  0007a	db 85 00 ff ff
	ff		 fild	 DWORD PTR tv216[ebp]
  00080	dc 3d 00 00 00
	00		 fdivr	 QWORD PTR __real@401921fb00000000
  00086	d9 1d 00 00 00
	00		 fstp	 DWORD PTR _dblHamAng

; 1478 : 
; 1479 : 		for (i = 0; i < N; i++)

  0008c	c7 45 c8 00 00
	00 00		 mov	 DWORD PTR _i$[ebp], 0
  00093	eb 09		 jmp	 SHORT $LN8@GoertzelRe@3
$LN7@GoertzelRe@3:
  00095	8b 45 c8	 mov	 eax, DWORD PTR _i$[ebp]
  00098	83 c0 01	 add	 eax, 1
  0009b	89 45 c8	 mov	 DWORD PTR _i$[ebp], eax
$LN8@GoertzelRe@3:
  0009e	8b 45 c8	 mov	 eax, DWORD PTR _i$[ebp]
  000a1	3b 45 10	 cmp	 eax, DWORD PTR _N$[ebp]
  000a4	7d 3b		 jge	 SHORT $LN6@GoertzelRe@3

; 1480 : 		{
; 1481 : 			dblHamWin[i] = 0.54f - 0.46f * cosf(i * dblHamAng);

  000a6	db 45 c8	 fild	 DWORD PTR _i$[ebp]
  000a9	d8 0d 00 00 00
	00		 fmul	 DWORD PTR _dblHamAng
  000af	83 ec 08	 sub	 esp, 8
  000b2	dd 1c 24	 fstp	 QWORD PTR [esp]
  000b5	e8 00 00 00 00	 call	 _cos
  000ba	83 c4 08	 add	 esp, 8
  000bd	d9 9d 00 ff ff
	ff		 fstp	 DWORD PTR tv228[ebp]
  000c3	d9 85 00 ff ff
	ff		 fld	 DWORD PTR tv228[ebp]
  000c9	dc 0d 00 00 00
	00		 fmul	 QWORD PTR __real@3fdd70a3e0000000
  000cf	dc 2d 00 00 00
	00		 fsubr	 QWORD PTR __real@3fe147ae20000000
  000d5	8b 45 c8	 mov	 eax, DWORD PTR _i$[ebp]
  000d8	d9 1c 85 00 00
	00 00		 fstp	 DWORD PTR _dblHamWin[eax*4]

; 1482 : 		}

  000df	eb b4		 jmp	 SHORT $LN7@GoertzelRe@3
$LN6@GoertzelRe@3:

; 1483 : 	}
; 1484 : 
; 1485 : 	for (i = 0; i <= N; i++)

  000e1	c7 45 c8 00 00
	00 00		 mov	 DWORD PTR _i$[ebp], 0
  000e8	eb 09		 jmp	 SHORT $LN5@GoertzelRe@3
$LN4@GoertzelRe@3:
  000ea	8b 45 c8	 mov	 eax, DWORD PTR _i$[ebp]
  000ed	83 c0 01	 add	 eax, 1
  000f0	89 45 c8	 mov	 DWORD PTR _i$[ebp], eax
$LN5@GoertzelRe@3:
  000f3	8b 45 c8	 mov	 eax, DWORD PTR _i$[ebp]
  000f6	3b 45 10	 cmp	 eax, DWORD PTR _N$[ebp]
  000f9	7f 5b		 jg	 SHORT $LN3@GoertzelRe@3

; 1486 : 	{
; 1487 : 		if (i == N)

  000fb	8b 45 c8	 mov	 eax, DWORD PTR _i$[ebp]
  000fe	3b 45 10	 cmp	 eax, DWORD PTR _N$[ebp]
  00101	75 0e		 jne	 SHORT $LN2@GoertzelRe@3

; 1488 : 			dblW = dblZ_1 * dblCoeff - dblZ_2;

  00103	d9 45 f8	 fld	 DWORD PTR _dblZ_1$[ebp]
  00106	d8 4d d4	 fmul	 DWORD PTR _dblCoeff$[ebp]
  00109	d8 65 ec	 fsub	 DWORD PTR _dblZ_2$[ebp]
  0010c	d9 5d e0	 fstp	 DWORD PTR _dblW$[ebp]

; 1489 : 		else

  0010f	eb 2e		 jmp	 SHORT $LN1@GoertzelRe@3
$LN2@GoertzelRe@3:

; 1490 : 			dblW = intRealIn[intPtr]  * dblHamWin[i] + dblZ_1 * dblCoeff - dblZ_2;

  00111	8b 45 0c	 mov	 eax, DWORD PTR _intPtr$[ebp]
  00114	8b 4d 08	 mov	 ecx, DWORD PTR _intRealIn$[ebp]
  00117	0f bf 14 41	 movsx	 edx, WORD PTR [ecx+eax*2]
  0011b	89 95 00 ff ff
	ff		 mov	 DWORD PTR tv241[ebp], edx
  00121	db 85 00 ff ff
	ff		 fild	 DWORD PTR tv241[ebp]
  00127	8b 45 c8	 mov	 eax, DWORD PTR _i$[ebp]
  0012a	d8 0c 85 00 00
	00 00		 fmul	 DWORD PTR _dblHamWin[eax*4]
  00131	d9 45 f8	 fld	 DWORD PTR _dblZ_1$[ebp]
  00134	d8 4d d4	 fmul	 DWORD PTR _dblCoeff$[ebp]
  00137	de c1		 faddp	 ST(1), ST(0)
  00139	d8 65 ec	 fsub	 DWORD PTR _dblZ_2$[ebp]
  0013c	d9 5d e0	 fstp	 DWORD PTR _dblW$[ebp]
$LN1@GoertzelRe@3:

; 1491 : 
; 1492 : 		dblZ_2 = dblZ_1;

  0013f	d9 45 f8	 fld	 DWORD PTR _dblZ_1$[ebp]
  00142	d9 5d ec	 fstp	 DWORD PTR _dblZ_2$[ebp]

; 1493 : 		dblZ_1 = dblW;

  00145	d9 45 e0	 fld	 DWORD PTR _dblW$[ebp]
  00148	d9 5d f8	 fstp	 DWORD PTR _dblZ_1$[ebp]

; 1494 : 		intPtr++;

  0014b	8b 45 0c	 mov	 eax, DWORD PTR _intPtr$[ebp]
  0014e	83 c0 01	 add	 eax, 1
  00151	89 45 0c	 mov	 DWORD PTR _intPtr$[ebp], eax

; 1495 : 	}

  00154	eb 94		 jmp	 SHORT $LN4@GoertzelRe@3
$LN3@GoertzelRe@3:

; 1496 : 	
; 1497 : 	*dblReal = 2 * (dblW - cosf(2 * M_PI * m / N) * dblZ_2) / N;  // scale results by N/2

  00156	d9 45 14	 fld	 DWORD PTR _m$[ebp]
  00159	dc 0d 00 00 00
	00		 fmul	 QWORD PTR __real@401921fb00000000
  0015f	da 75 10	 fidiv	 DWORD PTR _N$[ebp]
  00162	83 ec 08	 sub	 esp, 8
  00165	dd 1c 24	 fstp	 QWORD PTR [esp]
  00168	e8 00 00 00 00	 call	 _cos
  0016d	83 c4 08	 add	 esp, 8
  00170	d9 9d 00 ff ff
	ff		 fstp	 DWORD PTR tv255[ebp]
  00176	d9 85 00 ff ff
	ff		 fld	 DWORD PTR tv255[ebp]
  0017c	d8 4d ec	 fmul	 DWORD PTR _dblZ_2$[ebp]
  0017f	d8 6d e0	 fsubr	 DWORD PTR _dblW$[ebp]
  00182	dc 0d 00 00 00
	00		 fmul	 QWORD PTR __real@4000000000000000
  00188	da 75 10	 fidiv	 DWORD PTR _N$[ebp]
  0018b	8b 45 18	 mov	 eax, DWORD PTR _dblReal$[ebp]
  0018e	d9 18		 fstp	 DWORD PTR [eax]

; 1498 : 	*dblImag = 2 * (sinf(2 * M_PI * m / N) * dblZ_2) / N;  // scale results by N/2   (this sign agrees with Scope DSP phase values) 

  00190	d9 45 14	 fld	 DWORD PTR _m$[ebp]
  00193	dc 0d 00 00 00
	00		 fmul	 QWORD PTR __real@401921fb00000000
  00199	da 75 10	 fidiv	 DWORD PTR _N$[ebp]
  0019c	83 ec 08	 sub	 esp, 8
  0019f	dd 1c 24	 fstp	 QWORD PTR [esp]
  001a2	e8 00 00 00 00	 call	 _sin
  001a7	83 c4 08	 add	 esp, 8
  001aa	d9 9d 00 ff ff
	ff		 fstp	 DWORD PTR tv270[ebp]
  001b0	d9 85 00 ff ff
	ff		 fld	 DWORD PTR tv270[ebp]
  001b6	d8 4d ec	 fmul	 DWORD PTR _dblZ_2$[ebp]
  001b9	dc 0d 00 00 00
	00		 fmul	 QWORD PTR __real@4000000000000000
  001bf	da 75 10	 fidiv	 DWORD PTR _N$[ebp]
  001c2	8b 45 1c	 mov	 eax, DWORD PTR _dblImag$[ebp]
  001c5	d9 18		 fstp	 DWORD PTR [eax]

; 1499 : }

  001c7	5f		 pop	 edi
  001c8	5e		 pop	 esi
  001c9	5b		 pop	 ebx
  001ca	81 c4 00 01 00
	00		 add	 esp, 256		; 00000100H
  001d0	3b ec		 cmp	 ebp, esp
  001d2	e8 00 00 00 00	 call	 __RTC_CheckEsp
  001d7	8b e5		 mov	 esp, ebp
  001d9	5d		 pop	 ebp
  001da	c3		 ret	 0
_GoertzelRealImagHamming ENDP
_TEXT	ENDS
PUBLIC	__real@3ff0000000000000
PUBLIC	_QuinnSpectralPeakLocator
;	COMDAT __real@3ff0000000000000
CONST	SEGMENT
__real@3ff0000000000000 DQ 03ff0000000000000r	; 1
; Function compile flags: /Odtp /RTCsu /ZI /ZX
CONST	ENDS
;	COMDAT _QuinnSpectralPeakLocator
_TEXT	SEGMENT
tv168 = -268						; size = 4
tv195 = -264						; size = 8
tv160 = -256						; size = 4
_dblDelta2$ = -56					; size = 4
_dblDelta1$ = -44					; size = 4
_dblAlpha2$ = -32					; size = 4
_dblAlpha1$ = -20					; size = 4
_dblDenom$ = -8						; size = 4
_XkM1Re$ = 8						; size = 4
_XkM1Im$ = 12						; size = 4
_XkRe$ = 16						; size = 4
_XkIm$ = 20						; size = 4
_XkP1Re$ = 24						; size = 4
_XkP1Im$ = 28						; size = 4
_QuinnSpectralPeakLocator PROC				; COMDAT

; 1504 : {

  00000	55		 push	 ebp
  00001	8b ec		 mov	 ebp, esp
  00003	81 ec 0c 01 00
	00		 sub	 esp, 268		; 0000010cH
  00009	53		 push	 ebx
  0000a	56		 push	 esi
  0000b	57		 push	 edi
  0000c	8d bd f4 fe ff
	ff		 lea	 edi, DWORD PTR [ebp-268]
  00012	b9 43 00 00 00	 mov	 ecx, 67			; 00000043H
  00017	b8 cc cc cc cc	 mov	 eax, -858993460		; ccccccccH
  0001c	f3 ab		 rep stosd

; 1505 : 	// based on the Quinn algorithm in Streamlining Digital Processing page 139
; 1506 : 	// Alpha1 = Re(Xk-1/Xk)
; 1507 : 	// Alpha2 = Re(Xk+1/Xk)
; 1508 : 	//Delta1 = Alpha1/(1 - Alpha1)
; 1509 : 	//'Delta2 = Alpha2/(1 - Alpha2)
; 1510 : 	// if Delta1 > 0 and Delta2 > 0 then Delta = Delta2 else Delta = Delta1
; 1511 : 	// should be within .1 bin for S:N > 2 dB
; 1512 : 
; 1513 : 	float dblDenom = powf(XkRe, 2) + powf(XkIm, 2);

  0001e	83 ec 08	 sub	 esp, 8
  00021	dd 05 00 00 00
	00		 fld	 QWORD PTR __real@4000000000000000
  00027	dd 1c 24	 fstp	 QWORD PTR [esp]
  0002a	d9 45 10	 fld	 DWORD PTR _XkRe$[ebp]
  0002d	83 ec 08	 sub	 esp, 8
  00030	dd 1c 24	 fstp	 QWORD PTR [esp]
  00033	e8 00 00 00 00	 call	 _pow
  00038	83 c4 10	 add	 esp, 16			; 00000010H
  0003b	d9 9d 00 ff ff
	ff		 fstp	 DWORD PTR tv160[ebp]
  00041	d9 85 00 ff ff
	ff		 fld	 DWORD PTR tv160[ebp]
  00047	83 ec 08	 sub	 esp, 8
  0004a	dd 05 00 00 00
	00		 fld	 QWORD PTR __real@4000000000000000
  00050	dd 1c 24	 fstp	 QWORD PTR [esp]
  00053	d9 45 14	 fld	 DWORD PTR _XkIm$[ebp]
  00056	83 ec 08	 sub	 esp, 8
  00059	dd 1c 24	 fstp	 QWORD PTR [esp]
  0005c	dd 9d f8 fe ff
	ff		 fstp	 QWORD PTR tv195[ebp]
  00062	e8 00 00 00 00	 call	 _pow
  00067	83 c4 10	 add	 esp, 16			; 00000010H
  0006a	d9 9d f4 fe ff
	ff		 fstp	 DWORD PTR tv168[ebp]
  00070	d9 85 f4 fe ff
	ff		 fld	 DWORD PTR tv168[ebp]
  00076	dc 85 f8 fe ff
	ff		 fadd	 QWORD PTR tv195[ebp]
  0007c	d9 5d f8	 fstp	 DWORD PTR _dblDenom$[ebp]

; 1514 : 	float dblAlpha1;
; 1515 : 	float dblAlpha2;
; 1516 : 	float dblDelta1;
; 1517 : 	float dblDelta2;
; 1518 : 
; 1519 : 	dblAlpha1 = ((XkM1Re * XkRe) + (XkM1Im * XkIm)) / dblDenom;

  0007f	d9 45 08	 fld	 DWORD PTR _XkM1Re$[ebp]
  00082	d8 4d 10	 fmul	 DWORD PTR _XkRe$[ebp]
  00085	d9 45 0c	 fld	 DWORD PTR _XkM1Im$[ebp]
  00088	d8 4d 14	 fmul	 DWORD PTR _XkIm$[ebp]
  0008b	de c1		 faddp	 ST(1), ST(0)
  0008d	d8 75 f8	 fdiv	 DWORD PTR _dblDenom$[ebp]
  00090	d9 5d ec	 fstp	 DWORD PTR _dblAlpha1$[ebp]

; 1520 : 	dblAlpha2 = ((XkP1Re * XkRe) + (XkP1Im * XkIm)) / dblDenom;

  00093	d9 45 18	 fld	 DWORD PTR _XkP1Re$[ebp]
  00096	d8 4d 10	 fmul	 DWORD PTR _XkRe$[ebp]
  00099	d9 45 1c	 fld	 DWORD PTR _XkP1Im$[ebp]
  0009c	d8 4d 14	 fmul	 DWORD PTR _XkIm$[ebp]
  0009f	de c1		 faddp	 ST(1), ST(0)
  000a1	d8 75 f8	 fdiv	 DWORD PTR _dblDenom$[ebp]
  000a4	d9 5d e0	 fstp	 DWORD PTR _dblAlpha2$[ebp]

; 1521 : 	dblDelta1 = dblAlpha1 / (1 - dblAlpha1);

  000a7	d9 45 ec	 fld	 DWORD PTR _dblAlpha1$[ebp]
  000aa	d9 e8		 fld1
  000ac	de e1		 fsubrp	 ST(1), ST(0)
  000ae	d8 7d ec	 fdivr	 DWORD PTR _dblAlpha1$[ebp]
  000b1	d9 5d d4	 fstp	 DWORD PTR _dblDelta1$[ebp]

; 1522 : 	dblDelta2 = dblAlpha2 / (1 - dblAlpha2);

  000b4	d9 45 e0	 fld	 DWORD PTR _dblAlpha2$[ebp]
  000b7	d9 e8		 fld1
  000b9	de e1		 fsubrp	 ST(1), ST(0)
  000bb	d8 7d e0	 fdivr	 DWORD PTR _dblAlpha2$[ebp]
  000be	d9 5d c8	 fstp	 DWORD PTR _dblDelta2$[ebp]

; 1523 : 
; 1524 : 	if (dblDelta1 > 0 &&  dblDelta2 > 0)

  000c1	d9 45 d4	 fld	 DWORD PTR _dblDelta1$[ebp]
  000c4	dc 1d 00 00 00
	00		 fcomp	 QWORD PTR __real@0000000000000000
  000ca	df e0		 fnstsw	 ax
  000cc	f6 c4 41	 test	 ah, 65			; 00000041H
  000cf	75 17		 jne	 SHORT $LN2@QuinnSpect
  000d1	d9 45 c8	 fld	 DWORD PTR _dblDelta2$[ebp]
  000d4	dc 1d 00 00 00
	00		 fcomp	 QWORD PTR __real@0000000000000000
  000da	df e0		 fnstsw	 ax
  000dc	f6 c4 41	 test	 ah, 65			; 00000041H
  000df	75 07		 jne	 SHORT $LN2@QuinnSpect

; 1525 : 		return dblDelta2;

  000e1	d9 45 c8	 fld	 DWORD PTR _dblDelta2$[ebp]
  000e4	eb 05		 jmp	 SHORT $LN1@QuinnSpect

; 1526 : 	else

  000e6	eb 03		 jmp	 SHORT $LN1@QuinnSpect
$LN2@QuinnSpect:

; 1527 : 		return dblDelta1;

  000e8	d9 45 d4	 fld	 DWORD PTR _dblDelta1$[ebp]
$LN1@QuinnSpect:

; 1528 : }

  000eb	5f		 pop	 edi
  000ec	5e		 pop	 esi
  000ed	5b		 pop	 ebx
  000ee	81 c4 0c 01 00
	00		 add	 esp, 268		; 0000010cH
  000f4	3b ec		 cmp	 ebp, esp
  000f6	e8 00 00 00 00	 call	 __RTC_CheckEsp
  000fb	8b e5		 mov	 esp, ebp
  000fd	5d		 pop	 ebp
  000fe	c3		 ret	 0
_QuinnSpectralPeakLocator ENDP
_TEXT	ENDS
PUBLIC	__real@3ff3851eb851eb85
PUBLIC	_SpectralPeakLocator
EXTRN	_sqrt:PROC
;	COMDAT __real@3ff3851eb851eb85
CONST	SEGMENT
__real@3ff3851eb851eb85 DQ 03ff3851eb851eb85r	; 1.22
; Function compile flags: /Odtp /RTCsu /ZI /ZX
CONST	ENDS
;	COMDAT _SpectralPeakLocator
_TEXT	SEGMENT
tv243 = -236						; size = 4
tv218 = -236						; size = 4
tv192 = -236						; size = 4
tv234 = -232						; size = 4
tv209 = -232						; size = 4
tv183 = -232						; size = 4
tv255 = -228						; size = 8
tv253 = -228						; size = 8
tv251 = -228						; size = 8
tv249 = -220						; size = 4
tv226 = -220						; size = 4
tv201 = -220						; size = 4
tv175 = -220						; size = 4
_dblRightMag$ = -20					; size = 4
_dblLeftMag$ = -8					; size = 4
_XkM1Re$ = 8						; size = 4
_XkM1Im$ = 12						; size = 4
_XkRe$ = 16						; size = 4
_XkIm$ = 20						; size = 4
_XkP1Re$ = 24						; size = 4
_XkP1Im$ = 28						; size = 4
_dblCentMag$ = 32					; size = 4
_SpectralPeakLocator PROC				; COMDAT

; 1533 : {

  00000	55		 push	 ebp
  00001	8b ec		 mov	 ebp, esp
  00003	81 ec ec 00 00
	00		 sub	 esp, 236		; 000000ecH
  00009	53		 push	 ebx
  0000a	56		 push	 esi
  0000b	57		 push	 edi
  0000c	8d bd 14 ff ff
	ff		 lea	 edi, DWORD PTR [ebp-236]
  00012	b9 3b 00 00 00	 mov	 ecx, 59			; 0000003bH
  00017	b8 cc cc cc cc	 mov	 eax, -858993460		; ccccccccH
  0001c	f3 ab		 rep stosd

; 1534 : 	// Use this for Windowed samples instead of QuinnSpectralPeakLocator
; 1535 : 
; 1536 : 	float dblLeftMag, dblRightMag;
; 1537 : 	*dblCentMag = sqrtf(powf(XkRe, 2) + powf(XkIm, 2));

  0001e	83 ec 08	 sub	 esp, 8
  00021	dd 05 00 00 00
	00		 fld	 QWORD PTR __real@4000000000000000
  00027	dd 1c 24	 fstp	 QWORD PTR [esp]
  0002a	d9 45 10	 fld	 DWORD PTR _XkRe$[ebp]
  0002d	83 ec 08	 sub	 esp, 8
  00030	dd 1c 24	 fstp	 QWORD PTR [esp]
  00033	e8 00 00 00 00	 call	 _pow
  00038	83 c4 10	 add	 esp, 16			; 00000010H
  0003b	d9 9d 24 ff ff
	ff		 fstp	 DWORD PTR tv175[ebp]
  00041	d9 85 24 ff ff
	ff		 fld	 DWORD PTR tv175[ebp]
  00047	83 ec 08	 sub	 esp, 8
  0004a	dd 05 00 00 00
	00		 fld	 QWORD PTR __real@4000000000000000
  00050	dd 1c 24	 fstp	 QWORD PTR [esp]
  00053	d9 45 14	 fld	 DWORD PTR _XkIm$[ebp]
  00056	83 ec 08	 sub	 esp, 8
  00059	dd 1c 24	 fstp	 QWORD PTR [esp]
  0005c	dd 9d 1c ff ff
	ff		 fstp	 QWORD PTR tv251[ebp]
  00062	e8 00 00 00 00	 call	 _pow
  00067	83 c4 10	 add	 esp, 16			; 00000010H
  0006a	d9 9d 18 ff ff
	ff		 fstp	 DWORD PTR tv183[ebp]
  00070	d9 85 18 ff ff
	ff		 fld	 DWORD PTR tv183[ebp]
  00076	dc 85 1c ff ff
	ff		 fadd	 QWORD PTR tv251[ebp]
  0007c	83 ec 08	 sub	 esp, 8
  0007f	dd 1c 24	 fstp	 QWORD PTR [esp]
  00082	e8 00 00 00 00	 call	 _sqrt
  00087	83 c4 08	 add	 esp, 8
  0008a	d9 9d 14 ff ff
	ff		 fstp	 DWORD PTR tv192[ebp]
  00090	d9 85 14 ff ff
	ff		 fld	 DWORD PTR tv192[ebp]
  00096	8b 45 20	 mov	 eax, DWORD PTR _dblCentMag$[ebp]
  00099	d9 18		 fstp	 DWORD PTR [eax]

; 1538 : 
; 1539 : 	dblLeftMag  = sqrtf(powf(XkM1Re, 2) + powf(XkM1Im, 2));

  0009b	83 ec 08	 sub	 esp, 8
  0009e	dd 05 00 00 00
	00		 fld	 QWORD PTR __real@4000000000000000
  000a4	dd 1c 24	 fstp	 QWORD PTR [esp]
  000a7	d9 45 08	 fld	 DWORD PTR _XkM1Re$[ebp]
  000aa	83 ec 08	 sub	 esp, 8
  000ad	dd 1c 24	 fstp	 QWORD PTR [esp]
  000b0	e8 00 00 00 00	 call	 _pow
  000b5	83 c4 10	 add	 esp, 16			; 00000010H
  000b8	d9 9d 24 ff ff
	ff		 fstp	 DWORD PTR tv201[ebp]
  000be	d9 85 24 ff ff
	ff		 fld	 DWORD PTR tv201[ebp]
  000c4	83 ec 08	 sub	 esp, 8
  000c7	dd 05 00 00 00
	00		 fld	 QWORD PTR __real@4000000000000000
  000cd	dd 1c 24	 fstp	 QWORD PTR [esp]
  000d0	d9 45 0c	 fld	 DWORD PTR _XkM1Im$[ebp]
  000d3	83 ec 08	 sub	 esp, 8
  000d6	dd 1c 24	 fstp	 QWORD PTR [esp]
  000d9	dd 9d 1c ff ff
	ff		 fstp	 QWORD PTR tv253[ebp]
  000df	e8 00 00 00 00	 call	 _pow
  000e4	83 c4 10	 add	 esp, 16			; 00000010H
  000e7	d9 9d 18 ff ff
	ff		 fstp	 DWORD PTR tv209[ebp]
  000ed	d9 85 18 ff ff
	ff		 fld	 DWORD PTR tv209[ebp]
  000f3	dc 85 1c ff ff
	ff		 fadd	 QWORD PTR tv253[ebp]
  000f9	83 ec 08	 sub	 esp, 8
  000fc	dd 1c 24	 fstp	 QWORD PTR [esp]
  000ff	e8 00 00 00 00	 call	 _sqrt
  00104	83 c4 08	 add	 esp, 8
  00107	d9 9d 14 ff ff
	ff		 fstp	 DWORD PTR tv218[ebp]
  0010d	d9 85 14 ff ff
	ff		 fld	 DWORD PTR tv218[ebp]
  00113	d9 5d f8	 fstp	 DWORD PTR _dblLeftMag$[ebp]

; 1540 : 	dblRightMag  = sqrtf(powf(XkP1Re, 2) + powf(XkP1Im, 2));

  00116	83 ec 08	 sub	 esp, 8
  00119	dd 05 00 00 00
	00		 fld	 QWORD PTR __real@4000000000000000
  0011f	dd 1c 24	 fstp	 QWORD PTR [esp]
  00122	d9 45 18	 fld	 DWORD PTR _XkP1Re$[ebp]
  00125	83 ec 08	 sub	 esp, 8
  00128	dd 1c 24	 fstp	 QWORD PTR [esp]
  0012b	e8 00 00 00 00	 call	 _pow
  00130	83 c4 10	 add	 esp, 16			; 00000010H
  00133	d9 9d 24 ff ff
	ff		 fstp	 DWORD PTR tv226[ebp]
  00139	d9 85 24 ff ff
	ff		 fld	 DWORD PTR tv226[ebp]
  0013f	83 ec 08	 sub	 esp, 8
  00142	dd 05 00 00 00
	00		 fld	 QWORD PTR __real@4000000000000000
  00148	dd 1c 24	 fstp	 QWORD PTR [esp]
  0014b	d9 45 1c	 fld	 DWORD PTR _XkP1Im$[ebp]
  0014e	83 ec 08	 sub	 esp, 8
  00151	dd 1c 24	 fstp	 QWORD PTR [esp]
  00154	dd 9d 1c ff ff
	ff		 fstp	 QWORD PTR tv255[ebp]
  0015a	e8 00 00 00 00	 call	 _pow
  0015f	83 c4 10	 add	 esp, 16			; 00000010H
  00162	d9 9d 18 ff ff
	ff		 fstp	 DWORD PTR tv234[ebp]
  00168	d9 85 18 ff ff
	ff		 fld	 DWORD PTR tv234[ebp]
  0016e	dc 85 1c ff ff
	ff		 fadd	 QWORD PTR tv255[ebp]
  00174	83 ec 08	 sub	 esp, 8
  00177	dd 1c 24	 fstp	 QWORD PTR [esp]
  0017a	e8 00 00 00 00	 call	 _sqrt
  0017f	83 c4 08	 add	 esp, 8
  00182	d9 9d 14 ff ff
	ff		 fstp	 DWORD PTR tv243[ebp]
  00188	d9 85 14 ff ff
	ff		 fld	 DWORD PTR tv243[ebp]
  0018e	d9 5d ec	 fstp	 DWORD PTR _dblRightMag$[ebp]

; 1541 : 
; 1542 : 	//Factor 1.22 empirically determine optimum for Hamming window
; 1543 : 	// For Hanning Window use factor of 1.36
; 1544 : 	// For Blackman Window use factor of  1.75
; 1545 :     
; 1546 : 	return 1.22 * (dblRightMag - dblLeftMag) / (dblLeftMag + *dblCentMag + dblRightMag);  // Optimized for Hamming Window

  00191	d9 45 ec	 fld	 DWORD PTR _dblRightMag$[ebp]
  00194	d8 65 f8	 fsub	 DWORD PTR _dblLeftMag$[ebp]
  00197	dc 0d 00 00 00
	00		 fmul	 QWORD PTR __real@3ff3851eb851eb85
  0019d	d9 45 f8	 fld	 DWORD PTR _dblLeftMag$[ebp]
  001a0	8b 45 20	 mov	 eax, DWORD PTR _dblCentMag$[ebp]
  001a3	d8 00		 fadd	 DWORD PTR [eax]
  001a5	d8 45 ec	 fadd	 DWORD PTR _dblRightMag$[ebp]
  001a8	de f9		 fdivp	 ST(1), ST(0)
  001aa	d9 9d 24 ff ff
	ff		 fstp	 DWORD PTR tv249[ebp]
  001b0	d9 85 24 ff ff
	ff		 fld	 DWORD PTR tv249[ebp]

; 1547 : }

  001b6	5f		 pop	 edi
  001b7	5e		 pop	 esi
  001b8	5b		 pop	 ebx
  001b9	81 c4 ec 00 00
	00		 add	 esp, 236		; 000000ecH
  001bf	3b ec		 cmp	 ebp, esp
  001c1	e8 00 00 00 00	 call	 __RTC_CheckEsp
  001c6	8b e5		 mov	 esp, ebp
  001c8	5d		 pop	 ebp
  001c9	c3		 ret	 0
_SpectralPeakLocator ENDP
_TEXT	ENDS
PUBLIC	__real@4038c51eb851eb85
PUBLIC	??_C@_0DJ@OMKGDAMP@Ldr?$DL?5S?3N?$CI3KHz?$CJ?5Early?$DN?5?$CFf?5dB?0?5Ful@ ; `string'
PUBLIC	__real@4034ccccc0000000
PUBLIC	__real@4038c51ec0000000
PUBLIC	??_C@_0BB@LPICFOMO@Prior?9Offset?$DN?5?$CFf?$AA@ ; `string'
PUBLIC	__real@4007333340000000
PUBLIC	__real@c008000000000000
PUBLIC	__real@4008000000000000
PUBLIC	__real@4059000000000000
PUBLIC	__real@404e800000000000
PUBLIC	__real@404d800000000000
PUBLIC	__real@408f400000000000
PUBLIC	__real@404f800000000000
PUBLIC	__real@404f000000000000
PUBLIC	__real@404d000000000000
PUBLIC	__real@404c800000000000
PUBLIC	__real@4039000000000000
PUBLIC	__real@3fd0000000000000
PUBLIC	__real@4063b00000000000
PUBLIC	__real@4063600000000000
PUBLIC	__real@4062200000000000
PUBLIC	__real@4061d00000000000
PUBLIC	__real@4063100000000000
PUBLIC	__real@4062700000000000
PUBLIC	__real@408f380000000000
PUBLIC	__real@4062600000000000
PUBLIC	__real@4024000000000000
PUBLIC	__real@4010000000000000
PUBLIC	__real@405ea00000000000
PUBLIC	__real@447a0000
PUBLIC	__real@3f800000
PUBLIC	__real@3e99999a
EXTRN	_dblLeaderSNAvg:DWORD
EXTRN	_intLeaderDetects:DWORD
EXTRN	_sprintf:PROC
EXTRN	_abs:PROC
EXTRN	_Squelch:DWORD
EXTRN	_fabs:PROC
EXTRN	_log10:PROC
EXTRN	_TuningRange:DWORD
;	COMDAT __real@4038c51eb851eb85
CONST	SEGMENT
__real@4038c51eb851eb85 DQ 04038c51eb851eb85r	; 24.77
CONST	ENDS
;	COMDAT ??_C@_0DJ@OMKGDAMP@Ldr?$DL?5S?3N?$CI3KHz?$CJ?5Early?$DN?5?$CFf?5dB?0?5Ful@
CONST	SEGMENT
??_C@_0DJ@OMKGDAMP@Ldr?$DL?5S?3N?$CI3KHz?$CJ?5Early?$DN?5?$CFf?5dB?0?5Ful@ DB 'L'
	DB	'dr; S:N(3KHz) Early= %f dB, Full %f dB, Offset= %f Hz: ', 00H ; `string'
CONST	ENDS
;	COMDAT __real@4034ccccc0000000
CONST	SEGMENT
__real@4034ccccc0000000 DQ 04034ccccc0000000r	; 20.8
CONST	ENDS
;	COMDAT __real@4038c51ec0000000
CONST	SEGMENT
__real@4038c51ec0000000 DQ 04038c51ec0000000r	; 24.77
CONST	ENDS
;	COMDAT ??_C@_0BB@LPICFOMO@Prior?9Offset?$DN?5?$CFf?$AA@
CONST	SEGMENT
??_C@_0BB@LPICFOMO@Prior?9Offset?$DN?5?$CFf?$AA@ DB 'Prior-Offset= %f', 00H ; `string'
CONST	ENDS
;	COMDAT __real@4007333340000000
CONST	SEGMENT
__real@4007333340000000 DQ 04007333340000000r	; 2.9
CONST	ENDS
;	COMDAT __real@c008000000000000
CONST	SEGMENT
__real@c008000000000000 DQ 0c008000000000000r	; -3
CONST	ENDS
;	COMDAT __real@4008000000000000
CONST	SEGMENT
__real@4008000000000000 DQ 04008000000000000r	; 3
CONST	ENDS
;	COMDAT __real@4059000000000000
CONST	SEGMENT
__real@4059000000000000 DQ 04059000000000000r	; 100
CONST	ENDS
;	COMDAT __real@404e800000000000
CONST	SEGMENT
__real@404e800000000000 DQ 0404e800000000000r	; 61
CONST	ENDS
;	COMDAT __real@404d800000000000
CONST	SEGMENT
__real@404d800000000000 DQ 0404d800000000000r	; 59
CONST	ENDS
;	COMDAT __real@408f400000000000
CONST	SEGMENT
__real@408f400000000000 DQ 0408f400000000000r	; 1000
CONST	ENDS
;	COMDAT __real@404f800000000000
CONST	SEGMENT
__real@404f800000000000 DQ 0404f800000000000r	; 63
CONST	ENDS
;	COMDAT __real@404f000000000000
CONST	SEGMENT
__real@404f000000000000 DQ 0404f000000000000r	; 62
CONST	ENDS
;	COMDAT __real@404d000000000000
CONST	SEGMENT
__real@404d000000000000 DQ 0404d000000000000r	; 58
CONST	ENDS
;	COMDAT __real@404c800000000000
CONST	SEGMENT
__real@404c800000000000 DQ 0404c800000000000r	; 57
CONST	ENDS
;	COMDAT __real@4039000000000000
CONST	SEGMENT
__real@4039000000000000 DQ 04039000000000000r	; 25
CONST	ENDS
;	COMDAT __real@3fd0000000000000
CONST	SEGMENT
__real@3fd0000000000000 DQ 03fd0000000000000r	; 0.25
CONST	ENDS
;	COMDAT __real@4063b00000000000
CONST	SEGMENT
__real@4063b00000000000 DQ 04063b00000000000r	; 157.5
CONST	ENDS
;	COMDAT __real@4063600000000000
CONST	SEGMENT
__real@4063600000000000 DQ 04063600000000000r	; 155
CONST	ENDS
;	COMDAT __real@4062200000000000
CONST	SEGMENT
__real@4062200000000000 DQ 04062200000000000r	; 145
CONST	ENDS
;	COMDAT __real@4061d00000000000
CONST	SEGMENT
__real@4061d00000000000 DQ 04061d00000000000r	; 142.5
CONST	ENDS
;	COMDAT __real@4063100000000000
CONST	SEGMENT
__real@4063100000000000 DQ 04063100000000000r	; 152.5
CONST	ENDS
;	COMDAT __real@4062700000000000
CONST	SEGMENT
__real@4062700000000000 DQ 04062700000000000r	; 147.5
CONST	ENDS
;	COMDAT __real@408f380000000000
CONST	SEGMENT
__real@408f380000000000 DQ 0408f380000000000r	; 999
CONST	ENDS
;	COMDAT __real@4062600000000000
CONST	SEGMENT
__real@4062600000000000 DQ 04062600000000000r	; 147
CONST	ENDS
;	COMDAT __real@4024000000000000
CONST	SEGMENT
__real@4024000000000000 DQ 04024000000000000r	; 10
CONST	ENDS
;	COMDAT __real@4010000000000000
CONST	SEGMENT
__real@4010000000000000 DQ 04010000000000000r	; 4
CONST	ENDS
;	COMDAT __real@405ea00000000000
CONST	SEGMENT
__real@405ea00000000000 DQ 0405ea00000000000r	; 122.5
CONST	ENDS
;	COMDAT __real@447a0000
CONST	SEGMENT
__real@447a0000 DD 0447a0000r			; 1000
CONST	ENDS
;	COMDAT __real@3f800000
CONST	SEGMENT
__real@3f800000 DD 03f800000r			; 1
CONST	ENDS
;	COMDAT __real@3e99999a
CONST	SEGMENT
__real@3e99999a DD 03e99999ar			; 0.3
; Function compile flags: /Odtp /RTCsu /ZI /ZX
CONST	ENDS
;	COMDAT _SearchFor2ToneLeader3
_TEXT	SEGMENT
tv1461 = -1404						; size = 4
tv1730 = -1400						; size = 8
tv1452 = -1392						; size = 4
tv706 = -1388						; size = 8
tv1516 = -1380						; size = 4
tv1491 = -1380						; size = 4
tv1436 = -1380						; size = 4
tv1408 = -1380						; size = 4
tv1381 = -1380						; size = 4
tv1354 = -1380						; size = 4
tv1295 = -1380						; size = 4
tv1260 = -1380						; size = 4
tv1229 = -1380						; size = 4
tv1202 = -1380						; size = 4
tv1175 = -1380						; size = 4
tv1148 = -1380						; size = 4
tv990 = -1380						; size = 4
tv1734 = -1376						; size = 8
tv1732 = -1376						; size = 8
tv1728 = -1376						; size = 8
tv1694 = -1376						; size = 8
tv1692 = -1376						; size = 8
tv1690 = -1376						; size = 8
tv1688 = -1376						; size = 8
tv1686 = -1376						; size = 8
tv1684 = -1376						; size = 8
tv1682 = -1376						; size = 8
tv1680 = -1376						; size = 8
tv1678 = -1376						; size = 8
tv1676 = -1376						; size = 8
tv886 = -1372						; size = 8
tv869 = -1372						; size = 8
tv1657 = -1368						; size = 4
tv1637 = -1368						; size = 4
tv1603 = -1368						; size = 4
tv1549 = -1368						; size = 4
tv1543 = -1368						; size = 4
tv1536 = -1368						; size = 4
tv1508 = -1368						; size = 4
tv1483 = -1368						; size = 4
tv1427 = -1368						; size = 4
tv1414 = -1368						; size = 4
tv1400 = -1368						; size = 4
tv1387 = -1368						; size = 4
tv1373 = -1368						; size = 4
tv1360 = -1368						; size = 4
tv1346 = -1368						; size = 4
tv1333 = -1368						; size = 4
tv1327 = -1368						; size = 4
tv1320 = -1368						; size = 4
tv1300 = -1368						; size = 4
tv1287 = -1368						; size = 4
tv1270 = -1368						; size = 4
tv1265 = -1368						; size = 4
tv1252 = -1368						; size = 4
tv1235 = -1368						; size = 4
tv1221 = -1368						; size = 4
tv1208 = -1368						; size = 4
tv1194 = -1368						; size = 4
tv1181 = -1368						; size = 4
tv1167 = -1368						; size = 4
tv1154 = -1368						; size = 4
tv1140 = -1368						; size = 4
tv1127 = -1368						; size = 4
tv1113 = -1368						; size = 4
tv1023 = -1368						; size = 4
tv1006 = -1368						; size = 4
tv979 = -1368						; size = 4
tv965 = -1368						; size = 4
_dblSNdBPwrEarly$ = -1168				; size = 4
_dblPowerEarly$ = -1156					; size = 4
_dblTrialOffset$ = -1144				; size = 4
_dblCoarseOffset$ = -1132				; size = 4
_dblBinAdj1525$ = -1120					; size = 4
_dblBinAdj1475$ = -1108					; size = 4
_dblCoarsePwrSN$ = -1096				; size = 4
_dblAvgNoisePerBin$ = -1084				; size = 4
_Ptr$ = -1072						; size = 4
_i$ = -1060						; size = 4
_dblRightI$ = -1048					; size = 12
_dblRightR$ = -1028					; size = 12
_dblLeftI$ = -1008					; size = 12
_dblLeftR$ = -988					; size = 12
_dblRightP$ = -968					; size = 4
_dblLeftP$ = -956					; size = 4
_dblCtrI$ = -932					; size = 4
_dblCtrR$ = -920					; size = 4
_dblBinInterpRight$ = -908				; size = 4
_dblBinInterpLeft$ = -896				; size = 4
_dblRightCar$ = -884					; size = 4
_dblLeftCar$ = -872					; size = 4
_intStopBin$ = -860					; size = 4
_intStartBin$ = -848					; size = 4
_dblFilteredMaxPeak$ = -836				; size = 4
_dblInterpretThreshold$ = -824				; size = 4
_dblAlpha$ = -812					; size = 4
_intIatMaxPeak$ = -800					; size = 4
_intInterpCnt$ = -788					; size = 4
_dblBinAdj$ = -776					; size = 4
_dblMaxPeakSN$ = -752					; size = 4
_dblMaxPeak$ = -740					; size = 4
_dblRightMag$ = -728					; size = 4
_dblLeftMag$ = -716					; size = 4
_dblPower$ = -704					; size = 4
_dblMag$ = -692						; size = 224
_dblGoertzelImag$ = -460				; size = 224
_dblGoertzelReal$ = -228				; size = 224
_intNewSamples$ = 8					; size = 4
_Length$ = 12						; size = 4
_dblOffsetHz$ = 16					; size = 4
_intSN$ = 20						; size = 4
_SearchFor2ToneLeader3 PROC				; COMDAT

; 1554 : {

  00000	55		 push	 ebp
  00001	8b ec		 mov	 ebp, esp
  00003	81 ec 7c 05 00
	00		 sub	 esp, 1404		; 0000057cH
  00009	53		 push	 ebx
  0000a	56		 push	 esi
  0000b	57		 push	 edi
  0000c	8d bd 84 fa ff
	ff		 lea	 edi, DWORD PTR [ebp-1404]
  00012	b9 5f 01 00 00	 mov	 ecx, 351		; 0000015fH
  00017	b8 cc cc cc cc	 mov	 eax, -858993460		; ccccccccH
  0001c	f3 ab		 rep stosd

; 1555 : 	// This version uses 10Hz bin spacing. Hamming window on Goertzel, and simple spectral peak interpolator
; 1556 : 	// It requires about 50% more CPU time when running but produces more sensive leader detection and more accurate tuning
; 1557 : 	// search through the samples looking for the telltail 50 baud 2 tone pattern (nominal tones 1475, 1525 Hz)
; 1558 : 	// Find the offset in Hz (due to missmatch in transmitter - receiver tuning
; 1559 : 	// Finds the S:N (power ratio of the tones 1475 and 1525 ratioed to "noise" averaged from bins at 1425, 1450, 1550, and 1575Hz)
; 1560 :  
; 1561 : 	float dblGoertzelReal[56];
; 1562 : 	float dblGoertzelImag[56];
; 1563 : 	float dblMag[56];
; 1564 : 	float dblPower, dblLeftMag, dblRightMag;
; 1565 : 	float dblMaxPeak = 0.0, dblMaxPeakSN = 0.0, dblInterpM, dblBinAdj;

  0001e	d9 ee		 fldz
  00020	d9 9d 1c fd ff
	ff		 fstp	 DWORD PTR _dblMaxPeak$[ebp]
  00026	d9 ee		 fldz
  00028	d9 9d 10 fd ff
	ff		 fstp	 DWORD PTR _dblMaxPeakSN$[ebp]

; 1566 : 	int intInterpCnt = 0;  // the count 0 to 3 of the interpolations that were < +/- .5 bin

  0002e	c7 85 ec fc ff
	ff 00 00 00 00	 mov	 DWORD PTR _intInterpCnt$[ebp], 0

; 1567 : 	int  intIatMaxPeak = 0;

  00038	c7 85 e0 fc ff
	ff 00 00 00 00	 mov	 DWORD PTR _intIatMaxPeak$[ebp], 0

; 1568 : 	float dblAlpha = 0.3f;  // Works well possibly some room for optimization Changed from .5 to .3 on Rev 0.1.5.3

  00042	d9 05 00 00 00
	00		 fld	 DWORD PTR __real@3e99999a
  00048	d9 9d d4 fc ff
	ff		 fstp	 DWORD PTR _dblAlpha$[ebp]

; 1569 : 	float dblInterpretThreshold= 1.0f; // Good results June 6, 2014 (was .4)  ' Works well possibly some room for optimization

  0004e	d9 e8		 fld1
  00050	d9 9d c8 fc ff
	ff		 fstp	 DWORD PTR _dblInterpretThreshold$[ebp]

; 1570 : 	float dblFilteredMaxPeak = 0;

  00056	d9 ee		 fldz
  00058	d9 9d bc fc ff
	ff		 fstp	 DWORD PTR _dblFilteredMaxPeak$[ebp]

; 1571 : 	int intStartBin, intStopBin;
; 1572 : 	float dblLeftCar, dblRightCar, dblBinInterpLeft, dblBinInterpRight, dblCtrR, dblCtrI, dblCtrP, dblLeftP, dblRightP;
; 1573 : 	float dblLeftR[3], dblLeftI[3], dblRightR[3], dblRightI[3];
; 1574 : 	int i;
; 1575 : 	int Ptr = 0;

  0005e	c7 85 d0 fb ff
	ff 00 00 00 00	 mov	 DWORD PTR _Ptr$[ebp], 0

; 1576 : 	float dblAvgNoisePerBin, dblCoarsePwrSN, dblBinAdj1475, dblBinAdj1525, dblCoarseOffset = 1000;

  00068	d9 05 00 00 00
	00		 fld	 DWORD PTR __real@447a0000
  0006e	d9 9d 94 fb ff
	ff		 fstp	 DWORD PTR _dblCoarseOffset$[ebp]

; 1577 : 	float dblTrialOffset, dblPowerEarly, dblSNdBPwrEarly;
; 1578 : 
; 1579 : 	if ((Length) < 1200)

  00074	81 7d 0c b0 04
	00 00		 cmp	 DWORD PTR _Length$[ebp], 1200 ; 000004b0H
  0007b	7d 07		 jge	 SHORT $LN34@SearchFor2

; 1580 : 		return FALSE;		// ensure there are at least 1200 samples (5 symbols of 240 samples)

  0007d	33 c0		 xor	 eax, eax
  0007f	e9 3d 14 00 00	 jmp	 $LN35@SearchFor2
$LN34@SearchFor2:

; 1581 : 
; 1582 : 	if ((Now - dttLastGoodFrameTypeDecode > 20000) && TuningRange > 0)

  00084	e8 00 00 00 00	 call	 _getTicks
  00089	2b 05 00 00 00
	00		 sub	 eax, DWORD PTR _dttLastGoodFrameTypeDecode
  0008f	3d 20 4e 00 00	 cmp	 eax, 20000		; 00004e20H
  00094	0f 86 7b 04 00
	00		 jbe	 $LN20@SearchFor2
  0009a	83 3d 00 00 00
	00 00		 cmp	 DWORD PTR _TuningRange, 0
  000a1	0f 8e 6e 04 00
	00		 jle	 $LN20@SearchFor2

; 1583 : 	{
; 1584 : 		// this is the full search over the full tuning range selected.  Uses more CPU time and with possibly larger deviation once connected. 
; 1585 : 		
; 1586 : 		intStartBin = ((200 - TuningRange) / 10);

  000a7	b8 c8 00 00 00	 mov	 eax, 200		; 000000c8H
  000ac	2b 05 00 00 00
	00		 sub	 eax, DWORD PTR _TuningRange
  000b2	99		 cdq
  000b3	b9 0a 00 00 00	 mov	 ecx, 10			; 0000000aH
  000b8	f7 f9		 idiv	 ecx
  000ba	89 85 b0 fc ff
	ff		 mov	 DWORD PTR _intStartBin$[ebp], eax

; 1587 : 		intStopBin = 55 - intStartBin;

  000c0	b8 37 00 00 00	 mov	 eax, 55			; 00000037H
  000c5	2b 85 b0 fc ff
	ff		 sub	 eax, DWORD PTR _intStartBin$[ebp]
  000cb	89 85 a4 fc ff
	ff		 mov	 DWORD PTR _intStopBin$[ebp], eax

; 1588 : 
; 1589 : 		dblMaxPeak = 0;

  000d1	d9 ee		 fldz
  000d3	d9 9d 1c fd ff
	ff		 fstp	 DWORD PTR _dblMaxPeak$[ebp]

; 1590 : 
; 1591 : 		// Generate the Power magnitudes for up to 56 10 Hz bins (a function of MCB.TuningRange) 
; 1592 :   
; 1593 : 		for (i = intStartBin; i <= intStopBin; i++)

  000d9	8b 85 b0 fc ff
	ff		 mov	 eax, DWORD PTR _intStartBin$[ebp]
  000df	89 85 dc fb ff
	ff		 mov	 DWORD PTR _i$[ebp], eax
  000e5	eb 0f		 jmp	 SHORT $LN32@SearchFor2
$LN31@SearchFor2:
  000e7	8b 85 dc fb ff
	ff		 mov	 eax, DWORD PTR _i$[ebp]
  000ed	83 c0 01	 add	 eax, 1
  000f0	89 85 dc fb ff
	ff		 mov	 DWORD PTR _i$[ebp], eax
$LN32@SearchFor2:
  000f6	8b 85 dc fb ff
	ff		 mov	 eax, DWORD PTR _i$[ebp]
  000fc	3b 85 a4 fc ff
	ff		 cmp	 eax, DWORD PTR _intStopBin$[ebp]
  00102	0f 8f d4 00 00
	00		 jg	 $LN30@SearchFor2

; 1594 : 		{
; 1595 :             // note hamming window reduces end effect caused by 1200 samples (not an even multiple of 240)  but spreads response peaks
; 1596 : 		
; 1597 : 			GoertzelRealImagHamming(intNewSamples, Ptr, 1200, i + 122.5f, &dblGoertzelReal[i], &dblGoertzelImag[i]);

  00108	8b 85 dc fb ff
	ff		 mov	 eax, DWORD PTR _i$[ebp]
  0010e	8d 8c 85 34 fe
	ff ff		 lea	 ecx, DWORD PTR _dblGoertzelImag$[ebp+eax*4]
  00115	51		 push	 ecx
  00116	8b 95 dc fb ff
	ff		 mov	 edx, DWORD PTR _i$[ebp]
  0011c	8d 84 95 1c ff
	ff ff		 lea	 eax, DWORD PTR _dblGoertzelReal$[ebp+edx*4]
  00123	50		 push	 eax
  00124	db 85 dc fb ff
	ff		 fild	 DWORD PTR _i$[ebp]
  0012a	dc 05 00 00 00
	00		 fadd	 QWORD PTR __real@405ea00000000000
  00130	d9 9d a8 fa ff
	ff		 fstp	 DWORD PTR tv965[ebp]
  00136	d9 85 a8 fa ff
	ff		 fld	 DWORD PTR tv965[ebp]
  0013c	51		 push	 ecx
  0013d	d9 1c 24	 fstp	 DWORD PTR [esp]
  00140	68 b0 04 00 00	 push	 1200			; 000004b0H
  00145	8b 8d d0 fb ff
	ff		 mov	 ecx, DWORD PTR _Ptr$[ebp]
  0014b	51		 push	 ecx
  0014c	8b 55 08	 mov	 edx, DWORD PTR _intNewSamples$[ebp]
  0014f	52		 push	 edx
  00150	e8 00 00 00 00	 call	 _GoertzelRealImagHamming
  00155	83 c4 18	 add	 esp, 24			; 00000018H

; 1598 : 			dblMag[i] = powf(dblGoertzelReal[i], 2) + powf(dblGoertzelImag[i], 2); // dblMag(i) in units of power (V^2)

  00158	83 ec 08	 sub	 esp, 8
  0015b	dd 05 00 00 00
	00		 fld	 QWORD PTR __real@4000000000000000
  00161	dd 1c 24	 fstp	 QWORD PTR [esp]
  00164	8b 85 dc fb ff
	ff		 mov	 eax, DWORD PTR _i$[ebp]
  0016a	d9 84 85 1c ff
	ff ff		 fld	 DWORD PTR _dblGoertzelReal$[ebp+eax*4]
  00171	83 ec 08	 sub	 esp, 8
  00174	dd 1c 24	 fstp	 QWORD PTR [esp]
  00177	e8 00 00 00 00	 call	 _pow
  0017c	83 c4 10	 add	 esp, 16			; 00000010H
  0017f	d9 9d a8 fa ff
	ff		 fstp	 DWORD PTR tv979[ebp]
  00185	d9 85 a8 fa ff
	ff		 fld	 DWORD PTR tv979[ebp]
  0018b	83 ec 08	 sub	 esp, 8
  0018e	dd 05 00 00 00
	00		 fld	 QWORD PTR __real@4000000000000000
  00194	dd 1c 24	 fstp	 QWORD PTR [esp]
  00197	8b 8d dc fb ff
	ff		 mov	 ecx, DWORD PTR _i$[ebp]
  0019d	d9 84 8d 34 fe
	ff ff		 fld	 DWORD PTR _dblGoertzelImag$[ebp+ecx*4]
  001a4	83 ec 08	 sub	 esp, 8
  001a7	dd 1c 24	 fstp	 QWORD PTR [esp]
  001aa	dd 9d a0 fa ff
	ff		 fstp	 QWORD PTR tv1676[ebp]
  001b0	e8 00 00 00 00	 call	 _pow
  001b5	83 c4 10	 add	 esp, 16			; 00000010H
  001b8	d9 9d 9c fa ff
	ff		 fstp	 DWORD PTR tv990[ebp]
  001be	d9 85 9c fa ff
	ff		 fld	 DWORD PTR tv990[ebp]
  001c4	dc 85 a0 fa ff
	ff		 fadd	 QWORD PTR tv1676[ebp]
  001ca	8b 95 dc fb ff
	ff		 mov	 edx, DWORD PTR _i$[ebp]
  001d0	d9 9c 95 4c fd
	ff ff		 fstp	 DWORD PTR _dblMag$[ebp+edx*4]

; 1599 :  		}

  001d7	e9 0b ff ff ff	 jmp	 $LN31@SearchFor2
$LN30@SearchFor2:

; 1600 : 
; 1601 : 		// Search the bins to locate the max S:N in the two tone signal/avg noise.  
; 1602 : 
; 1603 :  		for (i = intStartBin + 5; i <= intStopBin - 10; i++)	// ' +/- MCB.TuningRange from nominal 

  001dc	8b 85 b0 fc ff
	ff		 mov	 eax, DWORD PTR _intStartBin$[ebp]
  001e2	83 c0 05	 add	 eax, 5
  001e5	89 85 dc fb ff
	ff		 mov	 DWORD PTR _i$[ebp], eax
  001eb	eb 0f		 jmp	 SHORT $LN29@SearchFor2
$LN28@SearchFor2:
  001ed	8b 85 dc fb ff
	ff		 mov	 eax, DWORD PTR _i$[ebp]
  001f3	83 c0 01	 add	 eax, 1
  001f6	89 85 dc fb ff
	ff		 mov	 DWORD PTR _i$[ebp], eax
$LN29@SearchFor2:
  001fc	8b 85 a4 fc ff
	ff		 mov	 eax, DWORD PTR _intStopBin$[ebp]
  00202	83 e8 0a	 sub	 eax, 10			; 0000000aH
  00205	39 85 dc fb ff
	ff		 cmp	 DWORD PTR _i$[ebp], eax
  0020b	0f 8f ed 00 00
	00		 jg	 $LN27@SearchFor2

; 1604 : 		{
; 1605 : 			dblPower = sqrtf(dblMag[i] * dblMag[i + 5]); // using the product to minimize sensitivity to one strong carrier vs the two tone

  00211	8b 85 dc fb ff
	ff		 mov	 eax, DWORD PTR _i$[ebp]
  00217	d9 84 85 4c fd
	ff ff		 fld	 DWORD PTR _dblMag$[ebp+eax*4]
  0021e	8b 8d dc fb ff
	ff		 mov	 ecx, DWORD PTR _i$[ebp]
  00224	d8 8c 8d 60 fd
	ff ff		 fmul	 DWORD PTR _dblMag$[ebp+ecx*4+20]
  0022b	83 ec 08	 sub	 esp, 8
  0022e	dd 1c 24	 fstp	 QWORD PTR [esp]
  00231	e8 00 00 00 00	 call	 _sqrt
  00236	83 c4 08	 add	 esp, 8
  00239	d9 9d a8 fa ff
	ff		 fstp	 DWORD PTR tv1006[ebp]
  0023f	d9 85 a8 fa ff
	ff		 fld	 DWORD PTR tv1006[ebp]
  00245	d9 9d 40 fd ff
	ff		 fstp	 DWORD PTR _dblPower$[ebp]

; 1606 : 			// sqrt converts back to units of power from Power ^2
; 1607 : 			// don't use center noise bin as too easily corrupted by adjacent carriers
; 1608 : 
; 1609 : 			dblAvgNoisePerBin = (dblMag[i - 5] + dblMag[i - 3] + dblMag[i + 8] + dblMag[i + 10]) / 4;  // Simple average

  0024b	8b 85 dc fb ff
	ff		 mov	 eax, DWORD PTR _i$[ebp]
  00251	d9 84 85 38 fd
	ff ff		 fld	 DWORD PTR _dblMag$[ebp+eax*4-20]
  00258	8b 8d dc fb ff
	ff		 mov	 ecx, DWORD PTR _i$[ebp]
  0025e	d8 84 8d 40 fd
	ff ff		 fadd	 DWORD PTR _dblMag$[ebp+ecx*4-12]
  00265	8b 95 dc fb ff
	ff		 mov	 edx, DWORD PTR _i$[ebp]
  0026b	d8 84 95 6c fd
	ff ff		 fadd	 DWORD PTR _dblMag$[ebp+edx*4+32]
  00272	8b 85 dc fb ff
	ff		 mov	 eax, DWORD PTR _i$[ebp]
  00278	d8 84 85 74 fd
	ff ff		 fadd	 DWORD PTR _dblMag$[ebp+eax*4+40]
  0027f	dc 35 00 00 00
	00		 fdiv	 QWORD PTR __real@4010000000000000
  00285	d9 9d c4 fb ff
	ff		 fstp	 DWORD PTR _dblAvgNoisePerBin$[ebp]

; 1610 : 			dblMaxPeak = dblPower / dblAvgNoisePerBin;

  0028b	d9 85 40 fd ff
	ff		 fld	 DWORD PTR _dblPower$[ebp]
  00291	d8 b5 c4 fb ff
	ff		 fdiv	 DWORD PTR _dblAvgNoisePerBin$[ebp]
  00297	d9 9d 1c fd ff
	ff		 fstp	 DWORD PTR _dblMaxPeak$[ebp]

; 1611 : 			if (dblMaxPeak > dblMaxPeakSN)

  0029d	d9 85 1c fd ff
	ff		 fld	 DWORD PTR _dblMaxPeak$[ebp]
  002a3	d9 85 10 fd ff
	ff		 fld	 DWORD PTR _dblMaxPeakSN$[ebp]
  002a9	de d9		 fcompp
  002ab	df e0		 fnstsw	 ax
  002ad	f6 c4 05	 test	 ah, 5
  002b0	7a 47		 jp	 SHORT $LN26@SearchFor2

; 1612 : 			{
; 1613 : 				dblMaxPeakSN = dblMaxPeak;

  002b2	d9 85 1c fd ff
	ff		 fld	 DWORD PTR _dblMaxPeak$[ebp]
  002b8	d9 9d 10 fd ff
	ff		 fstp	 DWORD PTR _dblMaxPeakSN$[ebp]

; 1614 : 				dblCoarsePwrSN = 10 * log10f(dblMaxPeak);

  002be	d9 85 1c fd ff
	ff		 fld	 DWORD PTR _dblMaxPeak$[ebp]
  002c4	83 ec 08	 sub	 esp, 8
  002c7	dd 1c 24	 fstp	 QWORD PTR [esp]
  002ca	e8 00 00 00 00	 call	 _log10
  002cf	83 c4 08	 add	 esp, 8
  002d2	d9 9d a8 fa ff
	ff		 fstp	 DWORD PTR tv1023[ebp]
  002d8	d9 85 a8 fa ff
	ff		 fld	 DWORD PTR tv1023[ebp]
  002de	dc 0d 00 00 00
	00		 fmul	 QWORD PTR __real@4024000000000000
  002e4	d9 9d b8 fb ff
	ff		 fstp	 DWORD PTR _dblCoarsePwrSN$[ebp]

; 1615 : 				intIatMaxPeak = i + 122;

  002ea	8b 85 dc fb ff
	ff		 mov	 eax, DWORD PTR _i$[ebp]
  002f0	83 c0 7a	 add	 eax, 122		; 0000007aH
  002f3	89 85 e0 fc ff
	ff		 mov	 DWORD PTR _intIatMaxPeak$[ebp], eax
$LN26@SearchFor2:

; 1616 : 			}
; 1617 : 		}

  002f9	e9 ef fe ff ff	 jmp	 $LN28@SearchFor2
$LN27@SearchFor2:

; 1618 : 		// Do the interpolation based on the two carriers at nominal 1475 and 1525Hz
; 1619 : 
; 1620 : 		if (((intIatMaxPeak - 123) >= intStartBin) && ((intIatMaxPeak - 118) <= intStopBin)) // check to ensure no index errors

  002fe	8b 85 e0 fc ff
	ff		 mov	 eax, DWORD PTR _intIatMaxPeak$[ebp]
  00304	83 e8 7b	 sub	 eax, 123		; 0000007bH
  00307	3b 85 b0 fc ff
	ff		 cmp	 eax, DWORD PTR _intStartBin$[ebp]
  0030d	0f 8c ef 01 00
	00		 jl	 $LN25@SearchFor2
  00313	8b 85 e0 fc ff
	ff		 mov	 eax, DWORD PTR _intIatMaxPeak$[ebp]
  00319	83 e8 76	 sub	 eax, 118		; 00000076H
  0031c	3b 85 a4 fc ff
	ff		 cmp	 eax, DWORD PTR _intStopBin$[ebp]
  00322	0f 8f da 01 00
	00		 jg	 $LN25@SearchFor2

; 1621 : 		{
; 1622 : 			// Interpolate the adjacent bins using QuinnSpectralPeakLocator
; 1623 : 
; 1624 : 			dblBinAdj1475 = SpectralPeakLocator(
; 1625 : 				dblGoertzelReal[intIatMaxPeak - 123], dblGoertzelImag[intIatMaxPeak - 123],
; 1626 : 				dblGoertzelReal[intIatMaxPeak - 122], dblGoertzelImag[intIatMaxPeak - 122], 
; 1627 : 				dblGoertzelReal[intIatMaxPeak - 121], dblGoertzelImag[intIatMaxPeak - 121], &dblLeftMag);

  00328	8d 85 34 fd ff
	ff		 lea	 eax, DWORD PTR _dblLeftMag$[ebp]
  0032e	50		 push	 eax
  0032f	8b 8d e0 fc ff
	ff		 mov	 ecx, DWORD PTR _intIatMaxPeak$[ebp]
  00335	51		 push	 ecx
  00336	d9 84 8d 50 fc
	ff ff		 fld	 DWORD PTR _dblGoertzelImag$[ebp+ecx*4-484]
  0033d	d9 1c 24	 fstp	 DWORD PTR [esp]
  00340	8b 95 e0 fc ff
	ff		 mov	 edx, DWORD PTR _intIatMaxPeak$[ebp]
  00346	51		 push	 ecx
  00347	d9 84 95 38 fd
	ff ff		 fld	 DWORD PTR _dblGoertzelReal$[ebp+edx*4-484]
  0034e	d9 1c 24	 fstp	 DWORD PTR [esp]
  00351	8b 85 e0 fc ff
	ff		 mov	 eax, DWORD PTR _intIatMaxPeak$[ebp]
  00357	51		 push	 ecx
  00358	d9 84 85 4c fc
	ff ff		 fld	 DWORD PTR _dblGoertzelImag$[ebp+eax*4-488]
  0035f	d9 1c 24	 fstp	 DWORD PTR [esp]
  00362	8b 8d e0 fc ff
	ff		 mov	 ecx, DWORD PTR _intIatMaxPeak$[ebp]
  00368	51		 push	 ecx
  00369	d9 84 8d 34 fd
	ff ff		 fld	 DWORD PTR _dblGoertzelReal$[ebp+ecx*4-488]
  00370	d9 1c 24	 fstp	 DWORD PTR [esp]
  00373	8b 95 e0 fc ff
	ff		 mov	 edx, DWORD PTR _intIatMaxPeak$[ebp]
  00379	51		 push	 ecx
  0037a	d9 84 95 48 fc
	ff ff		 fld	 DWORD PTR _dblGoertzelImag$[ebp+edx*4-492]
  00381	d9 1c 24	 fstp	 DWORD PTR [esp]
  00384	8b 85 e0 fc ff
	ff		 mov	 eax, DWORD PTR _intIatMaxPeak$[ebp]
  0038a	51		 push	 ecx
  0038b	d9 84 85 30 fd
	ff ff		 fld	 DWORD PTR _dblGoertzelReal$[ebp+eax*4-492]
  00392	d9 1c 24	 fstp	 DWORD PTR [esp]
  00395	e8 00 00 00 00	 call	 _SpectralPeakLocator
  0039a	83 c4 1c	 add	 esp, 28			; 0000001cH
  0039d	d9 9d ac fb ff
	ff		 fstp	 DWORD PTR _dblBinAdj1475$[ebp]

; 1628 : 
; 1629 : 			if (dblBinAdj1475 < dblInterpretThreshold && dblBinAdj1475 > -dblInterpretThreshold)

  003a3	d9 85 ac fb ff
	ff		 fld	 DWORD PTR _dblBinAdj1475$[ebp]
  003a9	d9 85 c8 fc ff
	ff		 fld	 DWORD PTR _dblInterpretThreshold$[ebp]
  003af	de d9		 fcompp
  003b1	df e0		 fnstsw	 ax
  003b3	f6 c4 41	 test	 ah, 65			; 00000041H
  003b6	75 32		 jne	 SHORT $LN24@SearchFor2
  003b8	d9 85 c8 fc ff
	ff		 fld	 DWORD PTR _dblInterpretThreshold$[ebp]
  003be	d9 e0		 fchs
  003c0	d9 85 ac fb ff
	ff		 fld	 DWORD PTR _dblBinAdj1475$[ebp]
  003c6	de d9		 fcompp
  003c8	df e0		 fnstsw	 ax
  003ca	f6 c4 41	 test	 ah, 65			; 00000041H
  003cd	75 1b		 jne	 SHORT $LN24@SearchFor2

; 1630 : 			{
; 1631 : 				dblBinAdj = dblBinAdj1475;

  003cf	d9 85 ac fb ff
	ff		 fld	 DWORD PTR _dblBinAdj1475$[ebp]
  003d5	d9 9d f8 fc ff
	ff		 fstp	 DWORD PTR _dblBinAdj$[ebp]

; 1632 : 				intInterpCnt += 1;

  003db	8b 85 ec fc ff
	ff		 mov	 eax, DWORD PTR _intInterpCnt$[ebp]
  003e1	83 c0 01	 add	 eax, 1
  003e4	89 85 ec fc ff
	ff		 mov	 DWORD PTR _intInterpCnt$[ebp], eax
$LN24@SearchFor2:

; 1633 : 			} 
; 1634 : 
; 1635 : 			dblBinAdj1525 = SpectralPeakLocator(
; 1636 : 				dblGoertzelReal[intIatMaxPeak - 118], dblGoertzelImag[intIatMaxPeak - 118], 
; 1637 : 				dblGoertzelReal[intIatMaxPeak - 117], dblGoertzelImag[intIatMaxPeak - 117], 
; 1638 : 				dblGoertzelReal[intIatMaxPeak - 116], dblGoertzelImag[intIatMaxPeak - 116], &dblRightMag);

  003ea	8d 85 28 fd ff
	ff		 lea	 eax, DWORD PTR _dblRightMag$[ebp]
  003f0	50		 push	 eax
  003f1	8b 8d e0 fc ff
	ff		 mov	 ecx, DWORD PTR _intIatMaxPeak$[ebp]
  003f7	51		 push	 ecx
  003f8	d9 84 8d 64 fc
	ff ff		 fld	 DWORD PTR _dblGoertzelImag$[ebp+ecx*4-464]
  003ff	d9 1c 24	 fstp	 DWORD PTR [esp]
  00402	8b 95 e0 fc ff
	ff		 mov	 edx, DWORD PTR _intIatMaxPeak$[ebp]
  00408	51		 push	 ecx
  00409	d9 84 95 4c fd
	ff ff		 fld	 DWORD PTR _dblGoertzelReal$[ebp+edx*4-464]
  00410	d9 1c 24	 fstp	 DWORD PTR [esp]
  00413	8b 85 e0 fc ff
	ff		 mov	 eax, DWORD PTR _intIatMaxPeak$[ebp]
  00419	51		 push	 ecx
  0041a	d9 84 85 60 fc
	ff ff		 fld	 DWORD PTR _dblGoertzelImag$[ebp+eax*4-468]
  00421	d9 1c 24	 fstp	 DWORD PTR [esp]
  00424	8b 8d e0 fc ff
	ff		 mov	 ecx, DWORD PTR _intIatMaxPeak$[ebp]
  0042a	51		 push	 ecx
  0042b	d9 84 8d 48 fd
	ff ff		 fld	 DWORD PTR _dblGoertzelReal$[ebp+ecx*4-468]
  00432	d9 1c 24	 fstp	 DWORD PTR [esp]
  00435	8b 95 e0 fc ff
	ff		 mov	 edx, DWORD PTR _intIatMaxPeak$[ebp]
  0043b	51		 push	 ecx
  0043c	d9 84 95 5c fc
	ff ff		 fld	 DWORD PTR _dblGoertzelImag$[ebp+edx*4-472]
  00443	d9 1c 24	 fstp	 DWORD PTR [esp]
  00446	8b 85 e0 fc ff
	ff		 mov	 eax, DWORD PTR _intIatMaxPeak$[ebp]
  0044c	51		 push	 ecx
  0044d	d9 84 85 44 fd
	ff ff		 fld	 DWORD PTR _dblGoertzelReal$[ebp+eax*4-472]
  00454	d9 1c 24	 fstp	 DWORD PTR [esp]
  00457	e8 00 00 00 00	 call	 _SpectralPeakLocator
  0045c	83 c4 1c	 add	 esp, 28			; 0000001cH
  0045f	d9 9d a0 fb ff
	ff		 fstp	 DWORD PTR _dblBinAdj1525$[ebp]

; 1639 : 
; 1640 : 			if (dblBinAdj1525 < dblInterpretThreshold && dblBinAdj1525 > -dblInterpretThreshold)

  00465	d9 85 a0 fb ff
	ff		 fld	 DWORD PTR _dblBinAdj1525$[ebp]
  0046b	d9 85 c8 fc ff
	ff		 fld	 DWORD PTR _dblInterpretThreshold$[ebp]
  00471	de d9		 fcompp
  00473	df e0		 fnstsw	 ax
  00475	f6 c4 41	 test	 ah, 65			; 00000041H
  00478	75 38		 jne	 SHORT $LN23@SearchFor2
  0047a	d9 85 c8 fc ff
	ff		 fld	 DWORD PTR _dblInterpretThreshold$[ebp]
  00480	d9 e0		 fchs
  00482	d9 85 a0 fb ff
	ff		 fld	 DWORD PTR _dblBinAdj1525$[ebp]
  00488	de d9		 fcompp
  0048a	df e0		 fnstsw	 ax
  0048c	f6 c4 41	 test	 ah, 65			; 00000041H
  0048f	75 21		 jne	 SHORT $LN23@SearchFor2

; 1641 : 			{
; 1642 : 				dblBinAdj += dblBinAdj1525;

  00491	d9 85 f8 fc ff
	ff		 fld	 DWORD PTR _dblBinAdj$[ebp]
  00497	d8 85 a0 fb ff
	ff		 fadd	 DWORD PTR _dblBinAdj1525$[ebp]
  0049d	d9 9d f8 fc ff
	ff		 fstp	 DWORD PTR _dblBinAdj$[ebp]

; 1643 :         		intInterpCnt += 1;

  004a3	8b 85 ec fc ff
	ff		 mov	 eax, DWORD PTR _intInterpCnt$[ebp]
  004a9	83 c0 01	 add	 eax, 1
  004ac	89 85 ec fc ff
	ff		 mov	 DWORD PTR _intInterpCnt$[ebp], eax
$LN23@SearchFor2:

; 1644 : 			}
; 1645 : 			if (intInterpCnt == 0)					

  004b2	83 bd ec fc ff
	ff 00		 cmp	 DWORD PTR _intInterpCnt$[ebp], 0
  004b9	75 15		 jne	 SHORT $LN22@SearchFor2

; 1646 : 			{
; 1647 : 				dblPriorFineOffset = 1000.0f;

  004bb	d9 05 00 00 00
	00		 fld	 DWORD PTR __real@447a0000
  004c1	d9 1d 00 00 00
	00		 fstp	 DWORD PTR _dblPriorFineOffset

; 1648 : 				return FALSE;

  004c7	33 c0		 xor	 eax, eax
  004c9	e9 f3 0f 00 00	 jmp	 $LN35@SearchFor2

; 1649 : 			}
; 1650 : 			else

  004ce	eb 30		 jmp	 SHORT $LN21@SearchFor2
$LN22@SearchFor2:

; 1651 : 			{	
; 1652 : 				dblBinAdj = dblBinAdj / intInterpCnt;	 // average the offsets that are within 1 bin

  004d0	db 85 ec fc ff
	ff		 fild	 DWORD PTR _intInterpCnt$[ebp]
  004d6	d8 bd f8 fc ff
	ff		 fdivr	 DWORD PTR _dblBinAdj$[ebp]
  004dc	d9 9d f8 fc ff
	ff		 fstp	 DWORD PTR _dblBinAdj$[ebp]

; 1653 : 				dblCoarseOffset = 10.0f * (intIatMaxPeak + dblBinAdj - 147); // compute the Coarse tuning offset in Hz

  004e2	db 85 e0 fc ff
	ff		 fild	 DWORD PTR _intIatMaxPeak$[ebp]
  004e8	d8 85 f8 fc ff
	ff		 fadd	 DWORD PTR _dblBinAdj$[ebp]
  004ee	dc 25 00 00 00
	00		 fsub	 QWORD PTR __real@4062600000000000
  004f4	dc 0d 00 00 00
	00		 fmul	 QWORD PTR __real@4024000000000000
  004fa	d9 9d 94 fb ff
	ff		 fstp	 DWORD PTR _dblCoarseOffset$[ebp]
$LN21@SearchFor2:

; 1654 : 			}
; 1655 : 		}
; 1656 : 		else

  00500	eb 13		 jmp	 SHORT $LN20@SearchFor2
$LN25@SearchFor2:

; 1657 : 		{
; 1658 : 			dblPriorFineOffset = 1000.0f;

  00502	d9 05 00 00 00
	00		 fld	 DWORD PTR __real@447a0000
  00508	d9 1d 00 00 00
	00		 fstp	 DWORD PTR _dblPriorFineOffset

; 1659 : 			return FALSE;

  0050e	33 c0		 xor	 eax, eax
  00510	e9 ac 0f 00 00	 jmp	 $LN35@SearchFor2
$LN20@SearchFor2:

; 1660 : 		}
; 1661 : 	}
; 1662 : 	
; 1663 : 	// Drop into Narrow Search
; 1664 :   
; 1665 :            
; 1666 : 	if (dblCoarseOffset < 999)

  00515	d9 85 94 fb ff
	ff		 fld	 DWORD PTR _dblCoarseOffset$[ebp]
  0051b	dc 1d 00 00 00
	00		 fcomp	 QWORD PTR __real@408f380000000000
  00521	df e0		 fnstsw	 ax
  00523	f6 c4 05	 test	 ah, 5
  00526	7a 0e		 jp	 SHORT $LN19@SearchFor2

; 1667 : 		dblTrialOffset = dblCoarseOffset;  // use the CoarseOffset calculation from above

  00528	d9 85 94 fb ff
	ff		 fld	 DWORD PTR _dblCoarseOffset$[ebp]
  0052e	d9 9d 88 fb ff
	ff		 fstp	 DWORD PTR _dblTrialOffset$[ebp]

; 1668 : 	else

  00534	eb 0b		 jmp	 SHORT $LN18@SearchFor2
$LN19@SearchFor2:

; 1669 : 		dblTrialOffset = *dblOffsetHz; // use the prior offset value

  00536	8b 45 10	 mov	 eax, DWORD PTR _dblOffsetHz$[ebp]
  00539	d9 00		 fld	 DWORD PTR [eax]
  0053b	d9 9d 88 fb ff
	ff		 fstp	 DWORD PTR _dblTrialOffset$[ebp]
$LN18@SearchFor2:

; 1670 : 	
; 1671 :     if (fabsf(dblTrialOffset) > TuningRange && TuningRange > 0)

  00541	d9 85 88 fb ff
	ff		 fld	 DWORD PTR _dblTrialOffset$[ebp]
  00547	83 ec 08	 sub	 esp, 8
  0054a	dd 1c 24	 fstp	 QWORD PTR [esp]
  0054d	e8 00 00 00 00	 call	 _fabs
  00552	83 c4 08	 add	 esp, 8
  00555	d9 9d a8 fa ff
	ff		 fstp	 DWORD PTR tv1113[ebp]
  0055b	d9 85 a8 fa ff
	ff		 fld	 DWORD PTR tv1113[ebp]
  00561	db 05 00 00 00
	00		 fild	 DWORD PTR _TuningRange
  00567	de d9		 fcompp
  00569	df e0		 fnstsw	 ax
  0056b	f6 c4 05	 test	 ah, 5
  0056e	7a 1c		 jp	 SHORT $LN17@SearchFor2
  00570	83 3d 00 00 00
	00 00		 cmp	 DWORD PTR _TuningRange, 0
  00577	7e 13		 jle	 SHORT $LN17@SearchFor2

; 1672 : 	{
; 1673 : 		dblPriorFineOffset = 1000.0f;	

  00579	d9 05 00 00 00
	00		 fld	 DWORD PTR __real@447a0000
  0057f	d9 1d 00 00 00
	00		 fstp	 DWORD PTR _dblPriorFineOffset

; 1674 : 		return False;

  00585	33 c0		 xor	 eax, eax
  00587	e9 35 0f 00 00	 jmp	 $LN35@SearchFor2
$LN17@SearchFor2:

; 1675 : 	}
; 1676 : 
; 1677 : 	dblLeftCar = 147.5f + dblTrialOffset / 10.0f;  // the nominal positions of the two tone carriers based on the last computerd dblOffsetHz

  0058c	d9 85 88 fb ff
	ff		 fld	 DWORD PTR _dblTrialOffset$[ebp]
  00592	dc 35 00 00 00
	00		 fdiv	 QWORD PTR __real@4024000000000000
  00598	dc 05 00 00 00
	00		 fadd	 QWORD PTR __real@4062700000000000
  0059e	d9 9d 98 fc ff
	ff		 fstp	 DWORD PTR _dblLeftCar$[ebp]

; 1678 : 	dblRightCar = 152.5f + dblTrialOffset / 10.0f;

  005a4	d9 85 88 fb ff
	ff		 fld	 DWORD PTR _dblTrialOffset$[ebp]
  005aa	dc 35 00 00 00
	00		 fdiv	 QWORD PTR __real@4024000000000000
  005b0	dc 05 00 00 00
	00		 fadd	 QWORD PTR __real@4063100000000000
  005b6	d9 9d 8c fc ff
	ff		 fstp	 DWORD PTR _dblRightCar$[ebp]

; 1679 : 
; 1680 : 	// Calculate 4 bins total for Noise values in S/N computation (calculate average noise)  ' Simple average of noise bins      
; 1681 : 	GoertzelRealImagHamming(intNewSamples, Ptr, 1200, 142.5f + dblTrialOffset / 10.0f, &dblCtrR, &dblCtrI);  // nominal center -75 Hz

  005bc	8d 85 5c fc ff
	ff		 lea	 eax, DWORD PTR _dblCtrI$[ebp]
  005c2	50		 push	 eax
  005c3	8d 8d 68 fc ff
	ff		 lea	 ecx, DWORD PTR _dblCtrR$[ebp]
  005c9	51		 push	 ecx
  005ca	d9 85 88 fb ff
	ff		 fld	 DWORD PTR _dblTrialOffset$[ebp]
  005d0	dc 35 00 00 00
	00		 fdiv	 QWORD PTR __real@4024000000000000
  005d6	dc 05 00 00 00
	00		 fadd	 QWORD PTR __real@4061d00000000000
  005dc	d9 9d a8 fa ff
	ff		 fstp	 DWORD PTR tv1127[ebp]
  005e2	d9 85 a8 fa ff
	ff		 fld	 DWORD PTR tv1127[ebp]
  005e8	51		 push	 ecx
  005e9	d9 1c 24	 fstp	 DWORD PTR [esp]
  005ec	68 b0 04 00 00	 push	 1200			; 000004b0H
  005f1	8b 95 d0 fb ff
	ff		 mov	 edx, DWORD PTR _Ptr$[ebp]
  005f7	52		 push	 edx
  005f8	8b 45 08	 mov	 eax, DWORD PTR _intNewSamples$[ebp]
  005fb	50		 push	 eax
  005fc	e8 00 00 00 00	 call	 _GoertzelRealImagHamming
  00601	83 c4 18	 add	 esp, 24			; 00000018H

; 1682 : 	dblAvgNoisePerBin = powf(dblCtrR, 2) + powf(dblCtrI, 2);

  00604	83 ec 08	 sub	 esp, 8
  00607	dd 05 00 00 00
	00		 fld	 QWORD PTR __real@4000000000000000
  0060d	dd 1c 24	 fstp	 QWORD PTR [esp]
  00610	d9 85 68 fc ff
	ff		 fld	 DWORD PTR _dblCtrR$[ebp]
  00616	83 ec 08	 sub	 esp, 8
  00619	dd 1c 24	 fstp	 QWORD PTR [esp]
  0061c	e8 00 00 00 00	 call	 _pow
  00621	83 c4 10	 add	 esp, 16			; 00000010H
  00624	d9 9d a8 fa ff
	ff		 fstp	 DWORD PTR tv1140[ebp]
  0062a	d9 85 a8 fa ff
	ff		 fld	 DWORD PTR tv1140[ebp]
  00630	83 ec 08	 sub	 esp, 8
  00633	dd 05 00 00 00
	00		 fld	 QWORD PTR __real@4000000000000000
  00639	dd 1c 24	 fstp	 QWORD PTR [esp]
  0063c	d9 85 5c fc ff
	ff		 fld	 DWORD PTR _dblCtrI$[ebp]
  00642	83 ec 08	 sub	 esp, 8
  00645	dd 1c 24	 fstp	 QWORD PTR [esp]
  00648	dd 9d a0 fa ff
	ff		 fstp	 QWORD PTR tv1678[ebp]
  0064e	e8 00 00 00 00	 call	 _pow
  00653	83 c4 10	 add	 esp, 16			; 00000010H
  00656	d9 9d 9c fa ff
	ff		 fstp	 DWORD PTR tv1148[ebp]
  0065c	d9 85 9c fa ff
	ff		 fld	 DWORD PTR tv1148[ebp]
  00662	dc 85 a0 fa ff
	ff		 fadd	 QWORD PTR tv1678[ebp]
  00668	d9 9d c4 fb ff
	ff		 fstp	 DWORD PTR _dblAvgNoisePerBin$[ebp]

; 1683 : 	GoertzelRealImagHamming(intNewSamples, Ptr, 1200, 145.0f + dblTrialOffset / 10.0f, &dblCtrR, &dblCtrI); // center - 50 Hz

  0066e	8d 85 5c fc ff
	ff		 lea	 eax, DWORD PTR _dblCtrI$[ebp]
  00674	50		 push	 eax
  00675	8d 8d 68 fc ff
	ff		 lea	 ecx, DWORD PTR _dblCtrR$[ebp]
  0067b	51		 push	 ecx
  0067c	d9 85 88 fb ff
	ff		 fld	 DWORD PTR _dblTrialOffset$[ebp]
  00682	dc 35 00 00 00
	00		 fdiv	 QWORD PTR __real@4024000000000000
  00688	dc 05 00 00 00
	00		 fadd	 QWORD PTR __real@4062200000000000
  0068e	d9 9d a8 fa ff
	ff		 fstp	 DWORD PTR tv1154[ebp]
  00694	d9 85 a8 fa ff
	ff		 fld	 DWORD PTR tv1154[ebp]
  0069a	51		 push	 ecx
  0069b	d9 1c 24	 fstp	 DWORD PTR [esp]
  0069e	68 b0 04 00 00	 push	 1200			; 000004b0H
  006a3	8b 95 d0 fb ff
	ff		 mov	 edx, DWORD PTR _Ptr$[ebp]
  006a9	52		 push	 edx
  006aa	8b 45 08	 mov	 eax, DWORD PTR _intNewSamples$[ebp]
  006ad	50		 push	 eax
  006ae	e8 00 00 00 00	 call	 _GoertzelRealImagHamming
  006b3	83 c4 18	 add	 esp, 24			; 00000018H

; 1684 : 	dblAvgNoisePerBin += powf(dblCtrR, 2) + powf(dblCtrI, 2);

  006b6	83 ec 08	 sub	 esp, 8
  006b9	dd 05 00 00 00
	00		 fld	 QWORD PTR __real@4000000000000000
  006bf	dd 1c 24	 fstp	 QWORD PTR [esp]
  006c2	d9 85 68 fc ff
	ff		 fld	 DWORD PTR _dblCtrR$[ebp]
  006c8	83 ec 08	 sub	 esp, 8
  006cb	dd 1c 24	 fstp	 QWORD PTR [esp]
  006ce	e8 00 00 00 00	 call	 _pow
  006d3	83 c4 10	 add	 esp, 16			; 00000010H
  006d6	d9 9d a8 fa ff
	ff		 fstp	 DWORD PTR tv1167[ebp]
  006dc	d9 85 a8 fa ff
	ff		 fld	 DWORD PTR tv1167[ebp]
  006e2	83 ec 08	 sub	 esp, 8
  006e5	dd 05 00 00 00
	00		 fld	 QWORD PTR __real@4000000000000000
  006eb	dd 1c 24	 fstp	 QWORD PTR [esp]
  006ee	d9 85 5c fc ff
	ff		 fld	 DWORD PTR _dblCtrI$[ebp]
  006f4	83 ec 08	 sub	 esp, 8
  006f7	dd 1c 24	 fstp	 QWORD PTR [esp]
  006fa	dd 9d a0 fa ff
	ff		 fstp	 QWORD PTR tv1680[ebp]
  00700	e8 00 00 00 00	 call	 _pow
  00705	83 c4 10	 add	 esp, 16			; 00000010H
  00708	d9 9d 9c fa ff
	ff		 fstp	 DWORD PTR tv1175[ebp]
  0070e	d9 85 9c fa ff
	ff		 fld	 DWORD PTR tv1175[ebp]
  00714	dc 85 a0 fa ff
	ff		 fadd	 QWORD PTR tv1680[ebp]
  0071a	d8 85 c4 fb ff
	ff		 fadd	 DWORD PTR _dblAvgNoisePerBin$[ebp]
  00720	d9 9d c4 fb ff
	ff		 fstp	 DWORD PTR _dblAvgNoisePerBin$[ebp]

; 1685 : 	GoertzelRealImagHamming(intNewSamples, Ptr, 1200, 155.0 + dblTrialOffset / 10.0f, &dblCtrR, &dblCtrI); // center + 50 Hz

  00726	8d 85 5c fc ff
	ff		 lea	 eax, DWORD PTR _dblCtrI$[ebp]
  0072c	50		 push	 eax
  0072d	8d 8d 68 fc ff
	ff		 lea	 ecx, DWORD PTR _dblCtrR$[ebp]
  00733	51		 push	 ecx
  00734	d9 85 88 fb ff
	ff		 fld	 DWORD PTR _dblTrialOffset$[ebp]
  0073a	dc 35 00 00 00
	00		 fdiv	 QWORD PTR __real@4024000000000000
  00740	dc 05 00 00 00
	00		 fadd	 QWORD PTR __real@4063600000000000
  00746	d9 9d a8 fa ff
	ff		 fstp	 DWORD PTR tv1181[ebp]
  0074c	d9 85 a8 fa ff
	ff		 fld	 DWORD PTR tv1181[ebp]
  00752	51		 push	 ecx
  00753	d9 1c 24	 fstp	 DWORD PTR [esp]
  00756	68 b0 04 00 00	 push	 1200			; 000004b0H
  0075b	8b 95 d0 fb ff
	ff		 mov	 edx, DWORD PTR _Ptr$[ebp]
  00761	52		 push	 edx
  00762	8b 45 08	 mov	 eax, DWORD PTR _intNewSamples$[ebp]
  00765	50		 push	 eax
  00766	e8 00 00 00 00	 call	 _GoertzelRealImagHamming
  0076b	83 c4 18	 add	 esp, 24			; 00000018H

; 1686 : 	dblAvgNoisePerBin += powf(dblCtrR, 2) + powf(dblCtrI, 2);

  0076e	83 ec 08	 sub	 esp, 8
  00771	dd 05 00 00 00
	00		 fld	 QWORD PTR __real@4000000000000000
  00777	dd 1c 24	 fstp	 QWORD PTR [esp]
  0077a	d9 85 68 fc ff
	ff		 fld	 DWORD PTR _dblCtrR$[ebp]
  00780	83 ec 08	 sub	 esp, 8
  00783	dd 1c 24	 fstp	 QWORD PTR [esp]
  00786	e8 00 00 00 00	 call	 _pow
  0078b	83 c4 10	 add	 esp, 16			; 00000010H
  0078e	d9 9d a8 fa ff
	ff		 fstp	 DWORD PTR tv1194[ebp]
  00794	d9 85 a8 fa ff
	ff		 fld	 DWORD PTR tv1194[ebp]
  0079a	83 ec 08	 sub	 esp, 8
  0079d	dd 05 00 00 00
	00		 fld	 QWORD PTR __real@4000000000000000
  007a3	dd 1c 24	 fstp	 QWORD PTR [esp]
  007a6	d9 85 5c fc ff
	ff		 fld	 DWORD PTR _dblCtrI$[ebp]
  007ac	83 ec 08	 sub	 esp, 8
  007af	dd 1c 24	 fstp	 QWORD PTR [esp]
  007b2	dd 9d a0 fa ff
	ff		 fstp	 QWORD PTR tv1682[ebp]
  007b8	e8 00 00 00 00	 call	 _pow
  007bd	83 c4 10	 add	 esp, 16			; 00000010H
  007c0	d9 9d 9c fa ff
	ff		 fstp	 DWORD PTR tv1202[ebp]
  007c6	d9 85 9c fa ff
	ff		 fld	 DWORD PTR tv1202[ebp]
  007cc	dc 85 a0 fa ff
	ff		 fadd	 QWORD PTR tv1682[ebp]
  007d2	d8 85 c4 fb ff
	ff		 fadd	 DWORD PTR _dblAvgNoisePerBin$[ebp]
  007d8	d9 9d c4 fb ff
	ff		 fstp	 DWORD PTR _dblAvgNoisePerBin$[ebp]

; 1687 : 	GoertzelRealImagHamming(intNewSamples, Ptr, 1200, 157.5 + dblTrialOffset / 10.0f, &dblCtrR, &dblCtrI);  // center + 75 Hz

  007de	8d 85 5c fc ff
	ff		 lea	 eax, DWORD PTR _dblCtrI$[ebp]
  007e4	50		 push	 eax
  007e5	8d 8d 68 fc ff
	ff		 lea	 ecx, DWORD PTR _dblCtrR$[ebp]
  007eb	51		 push	 ecx
  007ec	d9 85 88 fb ff
	ff		 fld	 DWORD PTR _dblTrialOffset$[ebp]
  007f2	dc 35 00 00 00
	00		 fdiv	 QWORD PTR __real@4024000000000000
  007f8	dc 05 00 00 00
	00		 fadd	 QWORD PTR __real@4063b00000000000
  007fe	d9 9d a8 fa ff
	ff		 fstp	 DWORD PTR tv1208[ebp]
  00804	d9 85 a8 fa ff
	ff		 fld	 DWORD PTR tv1208[ebp]
  0080a	51		 push	 ecx
  0080b	d9 1c 24	 fstp	 DWORD PTR [esp]
  0080e	68 b0 04 00 00	 push	 1200			; 000004b0H
  00813	8b 95 d0 fb ff
	ff		 mov	 edx, DWORD PTR _Ptr$[ebp]
  00819	52		 push	 edx
  0081a	8b 45 08	 mov	 eax, DWORD PTR _intNewSamples$[ebp]
  0081d	50		 push	 eax
  0081e	e8 00 00 00 00	 call	 _GoertzelRealImagHamming
  00823	83 c4 18	 add	 esp, 24			; 00000018H

; 1688 : 	dblAvgNoisePerBin += powf(dblCtrR, 2) + powf(dblCtrI, 2);

  00826	83 ec 08	 sub	 esp, 8
  00829	dd 05 00 00 00
	00		 fld	 QWORD PTR __real@4000000000000000
  0082f	dd 1c 24	 fstp	 QWORD PTR [esp]
  00832	d9 85 68 fc ff
	ff		 fld	 DWORD PTR _dblCtrR$[ebp]
  00838	83 ec 08	 sub	 esp, 8
  0083b	dd 1c 24	 fstp	 QWORD PTR [esp]
  0083e	e8 00 00 00 00	 call	 _pow
  00843	83 c4 10	 add	 esp, 16			; 00000010H
  00846	d9 9d a8 fa ff
	ff		 fstp	 DWORD PTR tv1221[ebp]
  0084c	d9 85 a8 fa ff
	ff		 fld	 DWORD PTR tv1221[ebp]
  00852	83 ec 08	 sub	 esp, 8
  00855	dd 05 00 00 00
	00		 fld	 QWORD PTR __real@4000000000000000
  0085b	dd 1c 24	 fstp	 QWORD PTR [esp]
  0085e	d9 85 5c fc ff
	ff		 fld	 DWORD PTR _dblCtrI$[ebp]
  00864	83 ec 08	 sub	 esp, 8
  00867	dd 1c 24	 fstp	 QWORD PTR [esp]
  0086a	dd 9d a0 fa ff
	ff		 fstp	 QWORD PTR tv1684[ebp]
  00870	e8 00 00 00 00	 call	 _pow
  00875	83 c4 10	 add	 esp, 16			; 00000010H
  00878	d9 9d 9c fa ff
	ff		 fstp	 DWORD PTR tv1229[ebp]
  0087e	d9 85 9c fa ff
	ff		 fld	 DWORD PTR tv1229[ebp]
  00884	dc 85 a0 fa ff
	ff		 fadd	 QWORD PTR tv1684[ebp]
  0088a	d8 85 c4 fb ff
	ff		 fadd	 DWORD PTR _dblAvgNoisePerBin$[ebp]
  00890	d9 9d c4 fb ff
	ff		 fstp	 DWORD PTR _dblAvgNoisePerBin$[ebp]

; 1689 : 	dblAvgNoisePerBin = dblAvgNoisePerBin * 0.25f; // simple average,  now units of power

  00896	d9 85 c4 fb ff
	ff		 fld	 DWORD PTR _dblAvgNoisePerBin$[ebp]
  0089c	dc 0d 00 00 00
	00		 fmul	 QWORD PTR __real@3fd0000000000000
  008a2	d9 9d c4 fb ff
	ff		 fstp	 DWORD PTR _dblAvgNoisePerBin$[ebp]

; 1690 :   
; 1691 : 	// Calculate one bin above and below the two nominal 2 tone positions for Quinn Spectral Peak locator
; 1692 : 	GoertzelRealImagHamming(intNewSamples, Ptr, 1200, dblLeftCar - 1, &dblLeftR[0], &dblLeftI[0]);

  008a8	8d 85 10 fc ff
	ff		 lea	 eax, DWORD PTR _dblLeftI$[ebp]
  008ae	50		 push	 eax
  008af	8d 8d 24 fc ff
	ff		 lea	 ecx, DWORD PTR _dblLeftR$[ebp]
  008b5	51		 push	 ecx
  008b6	d9 85 98 fc ff
	ff		 fld	 DWORD PTR _dblLeftCar$[ebp]
  008bc	dc 25 00 00 00
	00		 fsub	 QWORD PTR __real@3ff0000000000000
  008c2	d9 9d a8 fa ff
	ff		 fstp	 DWORD PTR tv1235[ebp]
  008c8	d9 85 a8 fa ff
	ff		 fld	 DWORD PTR tv1235[ebp]
  008ce	51		 push	 ecx
  008cf	d9 1c 24	 fstp	 DWORD PTR [esp]
  008d2	68 b0 04 00 00	 push	 1200			; 000004b0H
  008d7	8b 95 d0 fb ff
	ff		 mov	 edx, DWORD PTR _Ptr$[ebp]
  008dd	52		 push	 edx
  008de	8b 45 08	 mov	 eax, DWORD PTR _intNewSamples$[ebp]
  008e1	50		 push	 eax
  008e2	e8 00 00 00 00	 call	 _GoertzelRealImagHamming
  008e7	83 c4 18	 add	 esp, 24			; 00000018H

; 1693 : 	GoertzelRealImagHamming(intNewSamples, Ptr, 1200, dblLeftCar, &dblLeftR[1], &dblLeftI[1]);

  008ea	8d 85 14 fc ff
	ff		 lea	 eax, DWORD PTR _dblLeftI$[ebp+4]
  008f0	50		 push	 eax
  008f1	8d 8d 28 fc ff
	ff		 lea	 ecx, DWORD PTR _dblLeftR$[ebp+4]
  008f7	51		 push	 ecx
  008f8	51		 push	 ecx
  008f9	d9 85 98 fc ff
	ff		 fld	 DWORD PTR _dblLeftCar$[ebp]
  008ff	d9 1c 24	 fstp	 DWORD PTR [esp]
  00902	68 b0 04 00 00	 push	 1200			; 000004b0H
  00907	8b 95 d0 fb ff
	ff		 mov	 edx, DWORD PTR _Ptr$[ebp]
  0090d	52		 push	 edx
  0090e	8b 45 08	 mov	 eax, DWORD PTR _intNewSamples$[ebp]
  00911	50		 push	 eax
  00912	e8 00 00 00 00	 call	 _GoertzelRealImagHamming
  00917	83 c4 18	 add	 esp, 24			; 00000018H

; 1694 : 	dblLeftP = powf(dblLeftR[1], 2) + powf(dblLeftI[1],  2);

  0091a	83 ec 08	 sub	 esp, 8
  0091d	dd 05 00 00 00
	00		 fld	 QWORD PTR __real@4000000000000000
  00923	dd 1c 24	 fstp	 QWORD PTR [esp]
  00926	d9 85 28 fc ff
	ff		 fld	 DWORD PTR _dblLeftR$[ebp+4]
  0092c	83 ec 08	 sub	 esp, 8
  0092f	dd 1c 24	 fstp	 QWORD PTR [esp]
  00932	e8 00 00 00 00	 call	 _pow
  00937	83 c4 10	 add	 esp, 16			; 00000010H
  0093a	d9 9d a8 fa ff
	ff		 fstp	 DWORD PTR tv1252[ebp]
  00940	d9 85 a8 fa ff
	ff		 fld	 DWORD PTR tv1252[ebp]
  00946	83 ec 08	 sub	 esp, 8
  00949	dd 05 00 00 00
	00		 fld	 QWORD PTR __real@4000000000000000
  0094f	dd 1c 24	 fstp	 QWORD PTR [esp]
  00952	d9 85 14 fc ff
	ff		 fld	 DWORD PTR _dblLeftI$[ebp+4]
  00958	83 ec 08	 sub	 esp, 8
  0095b	dd 1c 24	 fstp	 QWORD PTR [esp]
  0095e	dd 9d a0 fa ff
	ff		 fstp	 QWORD PTR tv1686[ebp]
  00964	e8 00 00 00 00	 call	 _pow
  00969	83 c4 10	 add	 esp, 16			; 00000010H
  0096c	d9 9d 9c fa ff
	ff		 fstp	 DWORD PTR tv1260[ebp]
  00972	d9 85 9c fa ff
	ff		 fld	 DWORD PTR tv1260[ebp]
  00978	dc 85 a0 fa ff
	ff		 fadd	 QWORD PTR tv1686[ebp]
  0097e	d9 9d 44 fc ff
	ff		 fstp	 DWORD PTR _dblLeftP$[ebp]

; 1695 : 	GoertzelRealImagHamming(intNewSamples, Ptr, 1200, dblLeftCar + 1, &dblLeftR[2], &dblLeftI[2]);

  00984	8d 85 18 fc ff
	ff		 lea	 eax, DWORD PTR _dblLeftI$[ebp+8]
  0098a	50		 push	 eax
  0098b	8d 8d 2c fc ff
	ff		 lea	 ecx, DWORD PTR _dblLeftR$[ebp+8]
  00991	51		 push	 ecx
  00992	d9 85 98 fc ff
	ff		 fld	 DWORD PTR _dblLeftCar$[ebp]
  00998	dc 05 00 00 00
	00		 fadd	 QWORD PTR __real@3ff0000000000000
  0099e	d9 9d a8 fa ff
	ff		 fstp	 DWORD PTR tv1265[ebp]
  009a4	d9 85 a8 fa ff
	ff		 fld	 DWORD PTR tv1265[ebp]
  009aa	51		 push	 ecx
  009ab	d9 1c 24	 fstp	 DWORD PTR [esp]
  009ae	68 b0 04 00 00	 push	 1200			; 000004b0H
  009b3	8b 95 d0 fb ff
	ff		 mov	 edx, DWORD PTR _Ptr$[ebp]
  009b9	52		 push	 edx
  009ba	8b 45 08	 mov	 eax, DWORD PTR _intNewSamples$[ebp]
  009bd	50		 push	 eax
  009be	e8 00 00 00 00	 call	 _GoertzelRealImagHamming
  009c3	83 c4 18	 add	 esp, 24			; 00000018H

; 1696 : 	GoertzelRealImagHamming(intNewSamples, Ptr, 1200, dblRightCar - 1, &dblRightR[0], &dblRightI[0]);

  009c6	8d 85 e8 fb ff
	ff		 lea	 eax, DWORD PTR _dblRightI$[ebp]
  009cc	50		 push	 eax
  009cd	8d 8d fc fb ff
	ff		 lea	 ecx, DWORD PTR _dblRightR$[ebp]
  009d3	51		 push	 ecx
  009d4	d9 85 8c fc ff
	ff		 fld	 DWORD PTR _dblRightCar$[ebp]
  009da	dc 25 00 00 00
	00		 fsub	 QWORD PTR __real@3ff0000000000000
  009e0	d9 9d a8 fa ff
	ff		 fstp	 DWORD PTR tv1270[ebp]
  009e6	d9 85 a8 fa ff
	ff		 fld	 DWORD PTR tv1270[ebp]
  009ec	51		 push	 ecx
  009ed	d9 1c 24	 fstp	 DWORD PTR [esp]
  009f0	68 b0 04 00 00	 push	 1200			; 000004b0H
  009f5	8b 95 d0 fb ff
	ff		 mov	 edx, DWORD PTR _Ptr$[ebp]
  009fb	52		 push	 edx
  009fc	8b 45 08	 mov	 eax, DWORD PTR _intNewSamples$[ebp]
  009ff	50		 push	 eax
  00a00	e8 00 00 00 00	 call	 _GoertzelRealImagHamming
  00a05	83 c4 18	 add	 esp, 24			; 00000018H

; 1697 : 	GoertzelRealImagHamming(intNewSamples, Ptr, 1200, dblRightCar, &dblRightR[1], &dblRightI[1]);

  00a08	8d 85 ec fb ff
	ff		 lea	 eax, DWORD PTR _dblRightI$[ebp+4]
  00a0e	50		 push	 eax
  00a0f	8d 8d 00 fc ff
	ff		 lea	 ecx, DWORD PTR _dblRightR$[ebp+4]
  00a15	51		 push	 ecx
  00a16	51		 push	 ecx
  00a17	d9 85 8c fc ff
	ff		 fld	 DWORD PTR _dblRightCar$[ebp]
  00a1d	d9 1c 24	 fstp	 DWORD PTR [esp]
  00a20	68 b0 04 00 00	 push	 1200			; 000004b0H
  00a25	8b 95 d0 fb ff
	ff		 mov	 edx, DWORD PTR _Ptr$[ebp]
  00a2b	52		 push	 edx
  00a2c	8b 45 08	 mov	 eax, DWORD PTR _intNewSamples$[ebp]
  00a2f	50		 push	 eax
  00a30	e8 00 00 00 00	 call	 _GoertzelRealImagHamming
  00a35	83 c4 18	 add	 esp, 24			; 00000018H

; 1698 : 	dblRightP = powf(dblRightR[1], 2) + powf(dblRightI[1], 2);

  00a38	83 ec 08	 sub	 esp, 8
  00a3b	dd 05 00 00 00
	00		 fld	 QWORD PTR __real@4000000000000000
