; Listing generated by Microsoft (R) Optimizing Compiler Version 14.00.50727.42 

	TITLE	c:\SkyDrive\Dev\Source\ARDOPC\SoundInputSmallMem.c
	.686P
	.XMM
	include listing.inc
	.model	flat

INCLUDELIB LIBCMTD
INCLUDELIB OLDNAMES

PUBLIC	_blnLeaderFound
PUBLIC	_intLeaderRcvdMs
PUBLIC	_intPriorMixedSamplesLength
PUBLIC	_intFilteredMixedSamplesLength
PUBLIC	_intCenterFreq
PUBLIC	_strType
PUBLIC	_strMod
PUBLIC	_intToneMags
PUBLIC	_goodCarriers
PUBLIC	_intPhases
PUBLIC	_intMags
PUBLIC	_charIndex
PUBLIC	_PSKInitDone
PUBLIC	_dblOffsetLastGoodDecode
PUBLIC	_dttLastGoodFrameTypeDecode
PUBLIC	_dblOffsetHz
PUBLIC	_dbl2Pi
PUBLIC	_dblNCOFreq
PUBLIC	_dblNCOPhase
PUBLIC	_dblNCOPhaseInc
PUBLIC	_intMFSReadPtr
PUBLIC	_RcvdSamplesLen
PUBLIC	_HanWinLen
PUBLIC	_Corrections
PUBLIC	_DummyCarrier
PUBLIC	_Decode600Buffer
PUBLIC	_intCarMagThreshold
_DATA	SEGMENT
COMM	_dttStartRmtLeaderMeasure:DWORD
COMM	_LastDataFrameType:DWORD
COMM	_bytFrameData2:BYTE:0100H
COMM	_dblSNdBPwr_2:DWORD
COMM	_bytFrameData3:BYTE:0100H
COMM	_dblAng:DWORD
COMM	_intToneMagsIndex:DWORD:04H
COMM	_intPhasesLength:DWORD
COMM	_intFrameType:DWORD
COMM	_dblPhaseInc:QWORD
COMM	_bytFrameData6:BYTE:0100H
COMM	_totalRSErrors:DWORD
COMM	_intFilteredMixedSamples:WORD:01388H
COMM	_intCP:WORD:08H
COMM	_CarrierOk:BYTE:08H
COMM	_dttLastLeaderDetect:DWORD
COMM	_bytData:BYTE:04f8H
COMM	_intPSKPhase_0:WORD:08H
COMM	_intBaud:DWORD
COMM	_bytFrameData1:BYTE:02f8H
COMM	_blnFrameSyncFound:DWORD
COMM	_intPhasesLen:DWORD
COMM	_intNumCar:DWORD
COMM	_strDecodeCapture:BYTE:0400H
COMM	_intToneMagsAvg:DWORD:0530H
COMM	_intPSKPhase_1:WORD:08H
COMM	_intSampleLen:DWORD
COMM	_intPSKMode:DWORD
COMM	_bytFrameData4:BYTE:0100H
COMM	_intSumCounts:DWORD:08H
COMM	_frameLen:DWORD
COMM	_intDataLen:DWORD
COMM	_intSampPerSym:DWORD
COMM	_dblHanWin:DWORD:078H
COMM	_intDataBytesPerCar:DWORD
COMM	_blnOdd:DWORD
COMM	_bytFrameData5:BYTE:0100H
COMM	_dblFreqBin:DWORD:08H
COMM	_GotBitSyncTicks:DWORD
COMM	_intDataPtr:DWORD
COMM	_intMagLength:DWORD
COMM	_intCarFreq:DWORD
COMM	_intToneMagsLength:DWORD
COMM	_bytMinQualThresh:BYTE
COMM	_dblSNdBPwr_1:DWORD
COMM	_bytFrameData7:BYTE:0100H
COMM	_intCarPhaseAvg:WORD:01460H
COMM	_SymbolsLeft:DWORD
COMM	_bytFrameData8:BYTE:0100H
COMM	_intCarMagAvg:WORD:01460H
COMM	_strRcvFrameTag:BYTE:020H
COMM	_blnLeaderDetected:DWORD
COMM	_intNforGoertzel:WORD:08H
COMM	_dblSNdBPwr:DWORD
COMM	_blnSymbolSyncFound:DWORD
COMM	_dttLastGoodFrameTypeDecod:DWORD
COMM	_intARQRTmeasuredMs:DWORD
COMM	_intPriorMixedSamples:WORD:078H
COMM	_intRSLen:DWORD
_DATA	ENDS
_BSS	SEGMENT
_blnLeaderFound DD 01H DUP (?)
_intFilteredMixedSamplesLength DD 01H DUP (?)
_strType DB	012H DUP (?)
	ALIGN	4

_strMod	DB	010H DUP (?)
_intToneMags DD	04000H DUP (?)
_goodCarriers DB 01H DUP (?)
	ALIGN	4

_intPhases DW	01460H DUP (?)
_intMags DW	01460H DUP (?)
_charIndex DD	01H DUP (?)
_PSKInitDone DD	01H DUP (?)
_dblOffsetLastGoodDecode DD 01H DUP (?)
_dttLastGoodFrameTypeDecode DD 01H DUP (?)
_dblOffsetHz DD	01H DUP (?)
_dblNCOPhase DD	01H DUP (?)
_RcvdSamplesLen DD 01H DUP (?)
_dblZin_1 DD	01H DUP (?)
_dblZin_2 DD	01H DUP (?)
_dblZComb DD	01H DUP (?)
_dblZout_0 DD	01bH DUP (?)
_dblZout_1 DD	01bH DUP (?)
_dblZout_2 DD	01bH DUP (?)
_dblCoef DD	01bH DUP (?)
?dblZin@?1??FSMixFilter2000Hz@@9@9 DD 01H DUP (?)	; `FSMixFilter2000Hz'::`2'::dblZin
?dblCoef@?1??Filter150Hz@@9@9 DD 011H DUP (?)		; `Filter150Hz'::`2'::dblCoef
?dblCoef@?1??Filter75Hz@@9@9 DD 03H DUP (?)		; `Filter75Hz'::`2'::dblCoef
_HanWinLen DD	01H DUP (?)
_Corrections DD	01H DUP (?)
_DummyCarrier DD 01H DUP (?)
?dblTrackingPhase@?1??Track1CarPSK@@9@9 DD 01H DUP (?)	; `Track1CarPSK'::`2'::dblTrackingPhase
_intCarMagThreshold DW 08H DUP (?)
_BSS	ENDS
_DATA	SEGMENT
_intLeaderRcvdMs DD 03e8H
_intPriorMixedSamplesLength DD 078H
_intCenterFreq DD 05dcH
_dbl2Pi	DD	040c90fd8r			; 6.28318
_dblNCOFreq DD	0453b8000r			; 3000
_dblNCOPhaseInc DD 03fc90fd8r			; 1.5708
_intMFSReadPtr DD 01eH
_dblR	DD	03f7fdf3br			; 0.9995
_intN	DD	078H
?dblR@?1??Filter150Hz@@9@9 DD 03f7fdf3br	; 0.9995 ; `Filter150Hz'::`2'::dblR
?intN@?1??Filter150Hz@@9@9 DD 078H			; `Filter150Hz'::`2'::intN
?dblR@?1??Filter75Hz@@9@9 DD 03f7fdf3br		; 0.9995 ; `Filter75Hz'::`2'::dblR
?intN@?1??Filter75Hz@@9@9 DD 0f0H			; `Filter75Hz'::`2'::intN
_Decode600Buffer DD FLAT:_bytFrameData1
_DATA	ENDS
PUBLIC	_IsValidFrameType
EXTRN	_isValidFrame:BYTE
EXTRN	__RTC_Shutdown:PROC
EXTRN	__RTC_InitBase:PROC
;	COMDAT rtc$TMZ
; File c:\skydrive\dev\source\ardopc\soundinputsmallmem.c
rtc$TMZ	SEGMENT
__RTC_Shutdown.rtc$TMZ DD FLAT:__RTC_Shutdown
rtc$TMZ	ENDS
;	COMDAT rtc$IMZ
rtc$IMZ	SEGMENT
__RTC_InitBase.rtc$IMZ DD FLAT:__RTC_InitBase
; Function compile flags: /Odtp /RTCsu /ZI
rtc$IMZ	ENDS
;	COMDAT _IsValidFrameType
_TEXT	SEGMENT
_bytType$ = 8						; size = 1
_IsValidFrameType PROC					; COMDAT

; 324  : {

  00000	55		 push	 ebp
  00001	8b ec		 mov	 ebp, esp
  00003	81 ec c0 00 00
	00		 sub	 esp, 192		; 000000c0H
  00009	53		 push	 ebx
  0000a	56		 push	 esi
  0000b	57		 push	 edi
  0000c	8d bd 40 ff ff
	ff		 lea	 edi, DWORD PTR [ebp-192]
  00012	b9 30 00 00 00	 mov	 ecx, 48			; 00000030H
  00017	b8 cc cc cc cc	 mov	 eax, -858993460		; ccccccccH
  0001c	f3 ab		 rep stosd

; 325  : 	//  used in the minimum distance decoder (update if frames added or removed)
; 326  : 
; 327  : 	return (isValidFrame[bytType]);

  0001e	0f b6 45 08	 movzx	 eax, BYTE PTR _bytType$[ebp]
  00022	0f b6 80 00 00
	00 00		 movzx	 eax, BYTE PTR _isValidFrame[eax]

; 328  : /*
; 329  : 	if (bytType >= 0 && bytType <= 0x1F)  return TRUE;
; 330  :     if (bytType == 0x23 || bytType == 0x26 || bytType == 0x29 || bytType == 0x2C || bytType == 0x2D || bytType == 0x2E) return TRUE;
; 331  : 
; 332  : 	if (bytType >= 0x30 && bytType <= 0x3c)  return TRUE;
; 333  : 	if (bytType >= 0x30 && bytType <= 0x3c)  return TRUE;
; 334  : 	if (bytType >= 0x40 && bytType <= 0x4f)  return TRUE;
; 335  : 	if (bytType >= 0x50 && bytType <= 0x5b)  return TRUE;
; 336  : 	if (bytType >= 0x60 && bytType <= 0x69)  return TRUE;
; 337  : 	if (bytType >= 0x70 && bytType <= 0x7d)  return TRUE;
; 338  : 	if (bytType >= 0xe0 && bytType <= 0xff)  return TRUE;
; 339  : 	if (bytType == 0xd0)  return TRUE;
; 340  : 
; 341  : 	return FALSE;
; 342  : */
; 343  : }

  00029	5f		 pop	 edi
  0002a	5e		 pop	 esi
  0002b	5b		 pop	 ebx
  0002c	8b e5		 mov	 esp, ebp
  0002e	5d		 pop	 ebp
  0002f	c3		 ret	 0
_IsValidFrameType ENDP
_TEXT	ENDS
PUBLIC	_IsShortControlFrame
; Function compile flags: /Odtp /RTCsu /ZI
;	COMDAT _IsShortControlFrame
_TEXT	SEGMENT
_bytType$ = 8						; size = 1
_IsShortControlFrame PROC				; COMDAT

; 348  : {

  00000	55		 push	 ebp
  00001	8b ec		 mov	 ebp, esp
  00003	81 ec c0 00 00
	00		 sub	 esp, 192		; 000000c0H
  00009	53		 push	 ebx
  0000a	56		 push	 esi
  0000b	57		 push	 edi
  0000c	8d bd 40 ff ff
	ff		 lea	 edi, DWORD PTR [ebp-192]
  00012	b9 30 00 00 00	 mov	 ecx, 48			; 00000030H
  00017	b8 cc cc cc cc	 mov	 eax, -858993460		; ccccccccH
  0001c	f3 ab		 rep stosd

; 349  : 	if (bytType <= 0x1F) return TRUE;  // NAK

  0001e	0f b6 45 08	 movzx	 eax, BYTE PTR _bytType$[ebp]
  00022	83 f8 1f	 cmp	 eax, 31			; 0000001fH
  00025	7f 07		 jg	 SHORT $LN4@IsShortCon
  00027	b8 01 00 00 00	 mov	 eax, 1
  0002c	eb 51		 jmp	 SHORT $LN5@IsShortCon
$LN4@IsShortCon:

; 350  : 	if (bytType == 0x23 || bytType == 0x24 || bytType == 0x29 || bytType == 0x2C || bytType == 0x2D || bytType == 0x2E) return TRUE; // BREAK, IDLE, DISC, END, ConRejBusy, ConRejBW

  0002e	0f b6 45 08	 movzx	 eax, BYTE PTR _bytType$[ebp]
  00032	83 f8 23	 cmp	 eax, 35			; 00000023H
  00035	74 2d		 je	 SHORT $LN2@IsShortCon
  00037	0f b6 45 08	 movzx	 eax, BYTE PTR _bytType$[ebp]
  0003b	83 f8 24	 cmp	 eax, 36			; 00000024H
  0003e	74 24		 je	 SHORT $LN2@IsShortCon
  00040	0f b6 45 08	 movzx	 eax, BYTE PTR _bytType$[ebp]
  00044	83 f8 29	 cmp	 eax, 41			; 00000029H
  00047	74 1b		 je	 SHORT $LN2@IsShortCon
  00049	0f b6 45 08	 movzx	 eax, BYTE PTR _bytType$[ebp]
  0004d	83 f8 2c	 cmp	 eax, 44			; 0000002cH
  00050	74 12		 je	 SHORT $LN2@IsShortCon
  00052	0f b6 45 08	 movzx	 eax, BYTE PTR _bytType$[ebp]
  00056	83 f8 2d	 cmp	 eax, 45			; 0000002dH
  00059	74 09		 je	 SHORT $LN2@IsShortCon
  0005b	0f b6 45 08	 movzx	 eax, BYTE PTR _bytType$[ebp]
  0005f	83 f8 2e	 cmp	 eax, 46			; 0000002eH
  00062	75 07		 jne	 SHORT $LN3@IsShortCon
$LN2@IsShortCon:
  00064	b8 01 00 00 00	 mov	 eax, 1
  00069	eb 14		 jmp	 SHORT $LN5@IsShortCon
$LN3@IsShortCon:

; 351  : 	if (bytType >= 0xE0) return TRUE;  // ACK

  0006b	0f b6 45 08	 movzx	 eax, BYTE PTR _bytType$[ebp]
  0006f	3d e0 00 00 00	 cmp	 eax, 224		; 000000e0H
  00074	7c 07		 jl	 SHORT $LN1@IsShortCon
  00076	b8 01 00 00 00	 mov	 eax, 1
  0007b	eb 02		 jmp	 SHORT $LN5@IsShortCon
$LN1@IsShortCon:

; 352  : 	return FALSE;

  0007d	33 c0		 xor	 eax, eax
$LN5@IsShortCon:

; 353  : }

  0007f	5f		 pop	 edi
  00080	5e		 pop	 esi
  00081	5b		 pop	 ebx
  00082	8b e5		 mov	 esp, ebp
  00084	5d		 pop	 ebp
  00085	c3		 ret	 0
_IsShortControlFrame ENDP
_TEXT	ENDS
PUBLIC	??_C@_02EFIMBOMN@?4O?$AA@			; `string'
PUBLIC	??_C@_02LPGDPGEH@?4E?$AA@			; `string'
PUBLIC	_IsDataFrame
EXTRN	_strstr:PROC
EXTRN	_Name:PROC
EXTRN	__RTC_CheckEsp:PROC
;	COMDAT ??_C@_02EFIMBOMN@?4O?$AA@
CONST	SEGMENT
??_C@_02EFIMBOMN@?4O?$AA@ DB '.O', 00H			; `string'
CONST	ENDS
;	COMDAT ??_C@_02LPGDPGEH@?4E?$AA@
CONST	SEGMENT
??_C@_02LPGDPGEH@?4E?$AA@ DB '.E', 00H			; `string'
; Function compile flags: /Odtp /RTCsu /ZI
CONST	ENDS
;	COMDAT _IsDataFrame
_TEXT	SEGMENT
_String$ = -8						; size = 4
_intFrameType$ = 8					; size = 1
_IsDataFrame PROC					; COMDAT

; 358  : {

  00000	55		 push	 ebp
  00001	8b ec		 mov	 ebp, esp
  00003	81 ec cc 00 00
	00		 sub	 esp, 204		; 000000ccH
  00009	53		 push	 ebx
  0000a	56		 push	 esi
  0000b	57		 push	 edi
  0000c	8d bd 34 ff ff
	ff		 lea	 edi, DWORD PTR [ebp-204]
  00012	b9 33 00 00 00	 mov	 ecx, 51			; 00000033H
  00017	b8 cc cc cc cc	 mov	 eax, -858993460		; ccccccccH
  0001c	f3 ab		 rep stosd

; 359  : 	const char * String = Name(intFrameType);

  0001e	8a 45 08	 mov	 al, BYTE PTR _intFrameType$[ebp]
  00021	50		 push	 eax
  00022	e8 00 00 00 00	 call	 _Name
  00027	83 c4 04	 add	 esp, 4
  0002a	89 45 f8	 mov	 DWORD PTR _String$[ebp], eax

; 360  : 
; 361  : 	if (String == NULL || String[0] == 0)

  0002d	83 7d f8 00	 cmp	 DWORD PTR _String$[ebp], 0
  00031	74 0a		 je	 SHORT $LN3@IsDataFram
  00033	8b 45 f8	 mov	 eax, DWORD PTR _String$[ebp]
  00036	0f be 08	 movsx	 ecx, BYTE PTR [eax]
  00039	85 c9		 test	 ecx, ecx
  0003b	75 04		 jne	 SHORT $LN4@IsDataFram
$LN3@IsDataFram:

; 362  : 		return FALSE;

  0003d	33 c0		 xor	 eax, eax
  0003f	eb 33		 jmp	 SHORT $LN5@IsDataFram
$LN4@IsDataFram:

; 363  : 
; 364  : 	if (strstr(String, ".E") || strstr(String, ".O"))

  00041	68 00 00 00 00	 push	 OFFSET ??_C@_02LPGDPGEH@?4E?$AA@
  00046	8b 45 f8	 mov	 eax, DWORD PTR _String$[ebp]
  00049	50		 push	 eax
  0004a	e8 00 00 00 00	 call	 _strstr
  0004f	83 c4 08	 add	 esp, 8
  00052	85 c0		 test	 eax, eax
  00054	75 15		 jne	 SHORT $LN1@IsDataFram
  00056	68 00 00 00 00	 push	 OFFSET ??_C@_02EFIMBOMN@?4O?$AA@
  0005b	8b 45 f8	 mov	 eax, DWORD PTR _String$[ebp]
  0005e	50		 push	 eax
  0005f	e8 00 00 00 00	 call	 _strstr
  00064	83 c4 08	 add	 esp, 8
  00067	85 c0		 test	 eax, eax
  00069	74 07		 je	 SHORT $LN2@IsDataFram
$LN1@IsDataFram:

; 365  : 		return TRUE;

  0006b	b8 01 00 00 00	 mov	 eax, 1
  00070	eb 02		 jmp	 SHORT $LN5@IsDataFram
$LN2@IsDataFram:

; 366  : 
; 367  : 	return FALSE;

  00072	33 c0		 xor	 eax, eax
$LN5@IsDataFram:

; 368  : }

  00074	5f		 pop	 edi
  00075	5e		 pop	 esi
  00076	5b		 pop	 ebx
  00077	81 c4 cc 00 00
	00		 add	 esp, 204		; 000000ccH
  0007d	3b ec		 cmp	 ebp, esp
  0007f	e8 00 00 00 00	 call	 __RTC_CheckEsp
  00084	8b e5		 mov	 esp, ebp
  00086	5d		 pop	 ebp
  00087	c3		 ret	 0
_IsDataFrame ENDP
_TEXT	ENDS
PUBLIC	__real@00000000
PUBLIC	_ResetSNPwrs
EXTRN	__fltused:DWORD
;	COMDAT __real@00000000
CONST	SEGMENT
__real@00000000 DD 000000000r			; 0
; Function compile flags: /Odtp /RTCsu /ZI
CONST	ENDS
;	COMDAT _ResetSNPwrs
_TEXT	SEGMENT
_ResetSNPwrs PROC					; COMDAT

; 371  : {

  00000	55		 push	 ebp
  00001	8b ec		 mov	 ebp, esp
  00003	81 ec c0 00 00
	00		 sub	 esp, 192		; 000000c0H
  00009	53		 push	 ebx
  0000a	56		 push	 esi
  0000b	57		 push	 edi
  0000c	8d bd 40 ff ff
	ff		 lea	 edi, DWORD PTR [ebp-192]
  00012	b9 30 00 00 00	 mov	 ecx, 48			; 00000030H
  00017	b8 cc cc cc cc	 mov	 eax, -858993460		; ccccccccH
  0001c	f3 ab		 rep stosd

; 372  : 	dblSNdBPwr = 0;

  0001e	d9 ee		 fldz
  00020	d9 1d 00 00 00
	00		 fstp	 DWORD PTR _dblSNdBPwr

; 373  : 	dblSNdBPwr_1 = 0;

  00026	d9 ee		 fldz
  00028	d9 1d 00 00 00
	00		 fstp	 DWORD PTR _dblSNdBPwr_1

; 374  : 	dblSNdBPwr_2 = 0;

  0002e	d9 ee		 fldz
  00030	d9 1d 00 00 00
	00		 fstp	 DWORD PTR _dblSNdBPwr_2

; 375  : }

  00036	5f		 pop	 edi
  00037	5e		 pop	 esi
  00038	5b		 pop	 ebx
  00039	8b e5		 mov	 esp, ebp
  0003b	5d		 pop	 ebp
  0003c	c3		 ret	 0
_ResetSNPwrs ENDP
_TEXT	ENDS
PUBLIC	_ClearAllMixedSamples
; Function compile flags: /Odtp /RTCsu /ZI
;	COMDAT _ClearAllMixedSamples
_TEXT	SEGMENT
_ClearAllMixedSamples PROC				; COMDAT

; 380  : {

  00000	55		 push	 ebp
  00001	8b ec		 mov	 ebp, esp
  00003	81 ec c0 00 00
	00		 sub	 esp, 192		; 000000c0H
  00009	53		 push	 ebx
  0000a	56		 push	 esi
  0000b	57		 push	 edi
  0000c	8d bd 40 ff ff
	ff		 lea	 edi, DWORD PTR [ebp-192]
  00012	b9 30 00 00 00	 mov	 ecx, 48			; 00000030H
  00017	b8 cc cc cc cc	 mov	 eax, -858993460		; ccccccccH
  0001c	f3 ab		 rep stosd

; 381  : 	intFilteredMixedSamplesLength = 0;

  0001e	c7 05 00 00 00
	00 00 00 00 00	 mov	 DWORD PTR _intFilteredMixedSamplesLength, 0

; 382  : 	intMFSReadPtr = 0;

  00028	c7 05 00 00 00
	00 00 00 00 00	 mov	 DWORD PTR _intMFSReadPtr, 0

; 383  : }

  00032	5f		 pop	 edi
  00033	5e		 pop	 esi
  00034	5b		 pop	 ebx
  00035	8b e5		 mov	 esp, ebp
  00037	5d		 pop	 ebp
  00038	c3		 ret	 0
_ClearAllMixedSamples ENDP
_TEXT	ENDS
PUBLIC	_InitializeMixedSamples
EXTRN	_dttStartRTMeasure:DWORD
EXTRN	_getTicks:PROC
; Function compile flags: /Odtp /RTCsu /ZI
;	COMDAT _InitializeMixedSamples
_TEXT	SEGMENT
tv69 = -196						; size = 4
_InitializeMixedSamples PROC				; COMDAT

; 388  : {

  00000	55		 push	 ebp
  00001	8b ec		 mov	 ebp, esp
  00003	81 ec c4 00 00
	00		 sub	 esp, 196		; 000000c4H
  00009	53		 push	 ebx
  0000a	56		 push	 esi
  0000b	57		 push	 edi
  0000c	8d bd 3c ff ff
	ff		 lea	 edi, DWORD PTR [ebp-196]
  00012	b9 31 00 00 00	 mov	 ecx, 49			; 00000031H
  00017	b8 cc cc cc cc	 mov	 eax, -858993460		; ccccccccH
  0001c	f3 ab		 rep stosd

; 389  : 	// Measure the time from release of PTT to leader detection of reply.
; 390  : 
; 391  : 	intARQRTmeasuredMs = min(10000, Now - dttStartRTMeasure); //?????? needs work

  0001e	e8 00 00 00 00	 call	 _getTicks
  00023	2b 05 00 00 00
	00		 sub	 eax, DWORD PTR _dttStartRTMeasure
  00029	3d 10 27 00 00	 cmp	 eax, 10000		; 00002710H
  0002e	76 0c		 jbe	 SHORT $LN3@Initialize
  00030	c7 85 3c ff ff
	ff 10 27 00 00	 mov	 DWORD PTR tv69[ebp], 10000 ; 00002710H
  0003a	eb 11		 jmp	 SHORT $LN4@Initialize
$LN3@Initialize:
  0003c	e8 00 00 00 00	 call	 _getTicks
  00041	2b 05 00 00 00
	00		 sub	 eax, DWORD PTR _dttStartRTMeasure
  00047	89 85 3c ff ff
	ff		 mov	 DWORD PTR tv69[ebp], eax
$LN4@Initialize:
  0004d	8b 85 3c ff ff
	ff		 mov	 eax, DWORD PTR tv69[ebp]
  00053	a3 00 00 00 00	 mov	 DWORD PTR _intARQRTmeasuredMs, eax

; 392  : 	intPriorMixedSamplesLength = 120;  // zero out prior samples in Prior sample buffer

  00058	c7 05 00 00 00
	00 78 00 00 00	 mov	 DWORD PTR _intPriorMixedSamplesLength, 120 ; 00000078H

; 393  : 	intFilteredMixedSamplesLength = 0;	// zero out the FilteredMixedSamples array

  00062	c7 05 00 00 00
	00 00 00 00 00	 mov	 DWORD PTR _intFilteredMixedSamplesLength, 0

; 394  : 	intMFSReadPtr = 30;				// reset the MFSReadPtr offset 30 to accomodate the filter delay

  0006c	c7 05 00 00 00
	00 1e 00 00 00	 mov	 DWORD PTR _intMFSReadPtr, 30 ; 0000001eH

; 395  : }

  00076	5f		 pop	 edi
  00077	5e		 pop	 esi
  00078	5b		 pop	 ebx
  00079	81 c4 c4 00 00
	00		 add	 esp, 196		; 000000c4H
  0007f	3b ec		 cmp	 ebp, esp
  00081	e8 00 00 00 00	 call	 __RTC_CheckEsp
  00086	8b e5		 mov	 esp, ebp
  00088	5d		 pop	 ebp
  00089	c3		 ret	 0
_InitializeMixedSamples ENDP
_TEXT	ENDS
PUBLIC	_DiscardOldSamples
; Function compile flags: /Odtp /RTCsu /ZI
;	COMDAT _DiscardOldSamples
_TEXT	SEGMENT
_DiscardOldSamples PROC					; COMDAT

; 400  : {

  00000	55		 push	 ebp
  00001	8b ec		 mov	 ebp, esp
  00003	81 ec c0 00 00
	00		 sub	 esp, 192		; 000000c0H
  00009	53		 push	 ebx
  0000a	56		 push	 esi
  0000b	57		 push	 edi
  0000c	8d bd 40 ff ff
	ff		 lea	 edi, DWORD PTR [ebp-192]
  00012	b9 30 00 00 00	 mov	 ecx, 48			; 00000030H
  00017	b8 cc cc cc cc	 mov	 eax, -858993460		; ccccccccH
  0001c	f3 ab		 rep stosd

; 401  : 	// This restructures the intRcvdSamples array discarding all samples prior to intRcvdSamplesRPtr
; 402  :  
; 403  : 	//not sure why we need this !!
; 404  : /*
; 405  : 	if (RcvdSamplesLen - intRcvdSamplesRPtr <= 0)
; 406  : 		RcvdSamplesLen = intRcvdSamplesRPtr = 0;
; 407  : 	else
; 408  : 	{
; 409  : 		// This is rather slow. I'd prefer a cyclic buffer. Lets see....
; 410  : 		
; 411  : 		memmove(intRcvdSamples, &intRcvdSamples[intRcvdSamplesRPtr], (RcvdSamplesLen - intRcvdSamplesRPtr)* 2);
; 412  : 		RcvdSamplesLen -= intRcvdSamplesRPtr;
; 413  : 		intRcvdSamplesRPtr = 0;
; 414  : 	}
; 415  : */
; 416  : }

  0001e	5f		 pop	 edi
  0001f	5e		 pop	 esi
  00020	5b		 pop	 ebx
  00021	8b e5		 mov	 esp, ebp
  00023	5d		 pop	 ebp
  00024	c3		 ret	 0
_DiscardOldSamples ENDP
_TEXT	ENDS
PUBLIC	__real@3f81111120000000
PUBLIC	__real@3fd8e56040000000
PUBLIC	__real@401921fb00000000
PUBLIC	__real@0000000000000000
PUBLIC	__real@4000000000000000
PUBLIC	_FSMixFilter2000Hz
EXTRN	_memmove:PROC
EXTRN	_ceil:PROC
EXTRN	_cos:PROC
EXTRN	_pow:PROC
EXTRN	__ftol2_sse:PROC
_BSS	SEGMENT
?dblR2@?1??FSMixFilter2000Hz@@9@9 DD 01H DUP (?)	; `FSMixFilter2000Hz'::`2'::dblR2
?dblRn@?1??FSMixFilter2000Hz@@9@9 DD 01H DUP (?)	; `FSMixFilter2000Hz'::`2'::dblRn
_BSS	ENDS
;	COMDAT __real@3f81111120000000
CONST	SEGMENT
__real@3f81111120000000 DQ 03f81111120000000r	; 0.00833333
CONST	ENDS
;	COMDAT __real@3fd8e56040000000
CONST	SEGMENT
__real@3fd8e56040000000 DQ 03fd8e56040000000r	; 0.389
CONST	ENDS
;	COMDAT __real@401921fb00000000
CONST	SEGMENT
__real@401921fb00000000 DQ 0401921fb00000000r	; 6.28318
CONST	ENDS
;	COMDAT __real@0000000000000000
CONST	SEGMENT
__real@0000000000000000 DQ 00000000000000000r	; 0
CONST	ENDS
;	COMDAT __real@4000000000000000
CONST	SEGMENT
__real@4000000000000000 DQ 04000000000000000r	; 2
; Function compile flags: /Odtp /RTCsu /ZI
CONST	ENDS
;	COMDAT _FSMixFilter2000Hz
_TEXT	SEGMENT
tv267 = -240						; size = 4
tv329 = -236						; size = 8
tv289 = -236						; size = 4
tv280 = -236						; size = 4
tv286 = -232						; size = 4
tv278 = -232						; size = 4
tv252 = -232						; size = 4
tv244 = -232						; size = 4
_intFilteredSample$ = -32				; size = 4
_j$ = -20						; size = 4
_i$ = -8						; size = 4
_intMixedSamples$ = 8					; size = 4
_intMixedSamplesLength$ = 12				; size = 4
_FSMixFilter2000Hz PROC					; COMDAT

; 433  : {

  00000	55		 push	 ebp
  00001	8b ec		 mov	 ebp, esp
  00003	81 ec f0 00 00
	00		 sub	 esp, 240		; 000000f0H
  00009	53		 push	 ebx
  0000a	56		 push	 esi
  0000b	57		 push	 edi
  0000c	8d bd 10 ff ff
	ff		 lea	 edi, DWORD PTR [ebp-240]
  00012	b9 3c 00 00 00	 mov	 ecx, 60			; 0000003cH
  00017	b8 cc cc cc cc	 mov	 eax, -858993460		; ccccccccH
  0001c	f3 ab		 rep stosd

; 434  : 	// assumes sample rate of 12000
; 435  : 	// implements  23 100 Hz wide sections   (~2000 Hz wide @ - 30dB centered on 1500 Hz)
; 436  : 
; 437  : 	// FSF (Frequency Selective Filter) variables
; 438  : 
; 439  : 	// This works on intMixedSamples, len intMixedSamplesLength;
; 440  : 
; 441  : 	// Filtered data is appended to intFilteredMixedSamples
; 442  : 
; 443  : 	static float dblRn;
; 444  : 	static float dblR2;
; 445  : 
; 446  : 	static float dblZin = 0;
; 447  :       
; 448  : 	int i, j;
; 449  : 
; 450  : 	float intFilteredSample = 0;			//  Filtered sample

  0001e	d9 ee		 fldz
  00020	d9 5d e0	 fstp	 DWORD PTR _intFilteredSample$[ebp]

; 451  : 
; 452  : 	dblRn = powf(dblR, intN);

  00023	db 05 00 00 00
	00		 fild	 DWORD PTR _intN
  00029	83 ec 08	 sub	 esp, 8
  0002c	dd 1c 24	 fstp	 QWORD PTR [esp]
  0002f	d9 05 00 00 00
	00		 fld	 DWORD PTR _dblR
  00035	83 ec 08	 sub	 esp, 8
  00038	dd 1c 24	 fstp	 QWORD PTR [esp]
  0003b	e8 00 00 00 00	 call	 _pow
  00040	83 c4 10	 add	 esp, 16			; 00000010H
  00043	d9 9d 18 ff ff
	ff		 fstp	 DWORD PTR tv244[ebp]
  00049	d9 85 18 ff ff
	ff		 fld	 DWORD PTR tv244[ebp]
  0004f	d9 1d 00 00 00
	00		 fstp	 DWORD PTR ?dblRn@?1??FSMixFilter2000Hz@@9@9

; 453  : 
; 454  : 	dblR2 = powf(dblR, 2);

  00055	83 ec 08	 sub	 esp, 8
  00058	dd 05 00 00 00
	00		 fld	 QWORD PTR __real@4000000000000000
  0005e	dd 1c 24	 fstp	 QWORD PTR [esp]
  00061	d9 05 00 00 00
	00		 fld	 DWORD PTR _dblR
  00067	83 ec 08	 sub	 esp, 8
  0006a	dd 1c 24	 fstp	 QWORD PTR [esp]
  0006d	e8 00 00 00 00	 call	 _pow
  00072	83 c4 10	 add	 esp, 16			; 00000010H
  00075	d9 9d 18 ff ff
	ff		 fstp	 DWORD PTR tv252[ebp]
  0007b	d9 85 18 ff ff
	ff		 fld	 DWORD PTR tv252[ebp]
  00081	d9 1d 00 00 00
	00		 fstp	 DWORD PTR ?dblR2@?1??FSMixFilter2000Hz@@9@9

; 455  : 
; 456  : 	// Initialize the coefficients
; 457  :     
; 458  : 	if (dblCoef[26] == 0)

  00087	d9 05 68 00 00
	00		 fld	 DWORD PTR _dblCoef+104
  0008d	dc 1d 00 00 00
	00		 fcomp	 QWORD PTR __real@0000000000000000
  00093	df e0		 fnstsw	 ax
  00095	f6 c4 44	 test	 ah, 68			; 00000044H
  00098	7a 65		 jp	 SHORT $LN14@FSMixFilte

; 459  : 	{
; 460  : 		for (i = 4; i <= 26; i++)

  0009a	c7 45 f8 04 00
	00 00		 mov	 DWORD PTR _i$[ebp], 4
  000a1	eb 09		 jmp	 SHORT $LN16@FSMixFilte
$LN15@FSMixFilte:
  000a3	8b 45 f8	 mov	 eax, DWORD PTR _i$[ebp]
  000a6	83 c0 01	 add	 eax, 1
  000a9	89 45 f8	 mov	 DWORD PTR _i$[ebp], eax
$LN16@FSMixFilte:
  000ac	83 7d f8 1a	 cmp	 DWORD PTR _i$[ebp], 26	; 0000001aH
  000b0	7f 4d		 jg	 SHORT $LN14@FSMixFilte

; 461  : 		{
; 462  : 			dblCoef[i] = 2 * dblR * cosf(2 * M_PI * i / intN);  // For Frequency = bin i

  000b2	d9 05 00 00 00
	00		 fld	 DWORD PTR _dblR
  000b8	dc 0d 00 00 00
	00		 fmul	 QWORD PTR __real@4000000000000000
  000be	db 45 f8	 fild	 DWORD PTR _i$[ebp]
  000c1	dc 0d 00 00 00
	00		 fmul	 QWORD PTR __real@401921fb00000000
  000c7	da 35 00 00 00
	00		 fidiv	 DWORD PTR _intN
  000cd	83 ec 08	 sub	 esp, 8
  000d0	dd 1c 24	 fstp	 QWORD PTR [esp]
  000d3	dd 9d 14 ff ff
	ff		 fstp	 QWORD PTR tv329[ebp]
  000d9	e8 00 00 00 00	 call	 _cos
  000de	83 c4 08	 add	 esp, 8
  000e1	d9 9d 10 ff ff
	ff		 fstp	 DWORD PTR tv267[ebp]
  000e7	d9 85 10 ff ff
	ff		 fld	 DWORD PTR tv267[ebp]
  000ed	dc 8d 14 ff ff
	ff		 fmul	 QWORD PTR tv329[ebp]
  000f3	8b 45 f8	 mov	 eax, DWORD PTR _i$[ebp]
  000f6	d9 1c 85 00 00
	00 00		 fstp	 DWORD PTR _dblCoef[eax*4]

; 463  : 		}

  000fd	eb a4		 jmp	 SHORT $LN15@FSMixFilte
$LN14@FSMixFilte:

; 464  : 	}
; 465  : 
; 466  : 	for (i = 0; i < intMixedSamplesLength; i++)

  000ff	c7 45 f8 00 00
	00 00		 mov	 DWORD PTR _i$[ebp], 0
  00106	eb 09		 jmp	 SHORT $LN13@FSMixFilte
$LN12@FSMixFilte:
  00108	8b 45 f8	 mov	 eax, DWORD PTR _i$[ebp]
  0010b	83 c0 01	 add	 eax, 1
  0010e	89 45 f8	 mov	 DWORD PTR _i$[ebp], eax
$LN13@FSMixFilte:
  00111	8b 45 f8	 mov	 eax, DWORD PTR _i$[ebp]
  00114	3b 45 0c	 cmp	 eax, DWORD PTR _intMixedSamplesLength$[ebp]
  00117	0f 8d c8 01 00
	00		 jge	 $LN11@FSMixFilte

; 467  : 	{
; 468  : 		intFilteredSample = 0;

  0011d	d9 ee		 fldz
  0011f	d9 5d e0	 fstp	 DWORD PTR _intFilteredSample$[ebp]

; 469  : 
; 470  : 		if (i < intN)

  00122	8b 45 f8	 mov	 eax, DWORD PTR _i$[ebp]
  00125	3b 05 00 00 00
	00		 cmp	 eax, DWORD PTR _intN
  0012b	7d 3d		 jge	 SHORT $LN10@FSMixFilte

; 471  : 			dblZin = intMixedSamples[i] - dblRn * intPriorMixedSamples[i];

  0012d	8b 45 f8	 mov	 eax, DWORD PTR _i$[ebp]
  00130	8b 4d 08	 mov	 ecx, DWORD PTR _intMixedSamples$[ebp]
  00133	0f bf 14 41	 movsx	 edx, WORD PTR [ecx+eax*2]
  00137	89 95 18 ff ff
	ff		 mov	 DWORD PTR tv278[ebp], edx
  0013d	db 85 18 ff ff
	ff		 fild	 DWORD PTR tv278[ebp]
  00143	8b 45 f8	 mov	 eax, DWORD PTR _i$[ebp]
  00146	0f bf 0c 45 00
	00 00 00	 movsx	 ecx, WORD PTR _intPriorMixedSamples[eax*2]
  0014e	89 8d 14 ff ff
	ff		 mov	 DWORD PTR tv280[ebp], ecx
  00154	db 85 14 ff ff
	ff		 fild	 DWORD PTR tv280[ebp]
  0015a	d8 0d 00 00 00
	00		 fmul	 DWORD PTR ?dblRn@?1??FSMixFilter2000Hz@@9@9
  00160	de e9		 fsubp	 ST(1), ST(0)
  00162	d9 1d 00 00 00
	00		 fstp	 DWORD PTR ?dblZin@?1??FSMixFilter2000Hz@@9@9

; 472  : 		else 

  00168	eb 40		 jmp	 SHORT $LN9@FSMixFilte
$LN10@FSMixFilte:

; 473  : 			dblZin = intMixedSamples[i] - dblRn * intMixedSamples[i - intN];

  0016a	8b 45 f8	 mov	 eax, DWORD PTR _i$[ebp]
  0016d	8b 4d 08	 mov	 ecx, DWORD PTR _intMixedSamples$[ebp]
  00170	0f bf 14 41	 movsx	 edx, WORD PTR [ecx+eax*2]
  00174	89 95 18 ff ff
	ff		 mov	 DWORD PTR tv286[ebp], edx
  0017a	db 85 18 ff ff
	ff		 fild	 DWORD PTR tv286[ebp]
  00180	8b 45 f8	 mov	 eax, DWORD PTR _i$[ebp]
  00183	2b 05 00 00 00
	00		 sub	 eax, DWORD PTR _intN
  00189	8b 4d 08	 mov	 ecx, DWORD PTR _intMixedSamples$[ebp]
  0018c	0f bf 14 41	 movsx	 edx, WORD PTR [ecx+eax*2]
  00190	89 95 14 ff ff
	ff		 mov	 DWORD PTR tv289[ebp], edx
  00196	db 85 14 ff ff
	ff		 fild	 DWORD PTR tv289[ebp]
  0019c	d8 0d 00 00 00
	00		 fmul	 DWORD PTR ?dblRn@?1??FSMixFilter2000Hz@@9@9
  001a2	de e9		 fsubp	 ST(1), ST(0)
  001a4	d9 1d 00 00 00
	00		 fstp	 DWORD PTR ?dblZin@?1??FSMixFilter2000Hz@@9@9
$LN9@FSMixFilte:

; 474  :  
; 475  : 		//Compute the Comb
; 476  : 
; 477  : 		dblZComb = dblZin - dblZin_2 * dblR2;

  001aa	d9 05 00 00 00
	00		 fld	 DWORD PTR _dblZin_2
  001b0	d8 0d 00 00 00
	00		 fmul	 DWORD PTR ?dblR2@?1??FSMixFilter2000Hz@@9@9
  001b6	d8 2d 00 00 00
	00		 fsubr	 DWORD PTR ?dblZin@?1??FSMixFilter2000Hz@@9@9
  001bc	d9 1d 00 00 00
	00		 fstp	 DWORD PTR _dblZComb

; 478  : 		dblZin_2 = dblZin_1;

  001c2	d9 05 00 00 00
	00		 fld	 DWORD PTR _dblZin_1
  001c8	d9 1d 00 00 00
	00		 fstp	 DWORD PTR _dblZin_2

; 479  : 		dblZin_1 = dblZin;

  001ce	d9 05 00 00 00
	00		 fld	 DWORD PTR ?dblZin@?1??FSMixFilter2000Hz@@9@9
  001d4	d9 1d 00 00 00
	00		 fstp	 DWORD PTR _dblZin_1

; 480  : 
; 481  : 		// Now the resonators
; 482  : 		for (j = 4; j <= 26; j++)	   // calculate output for 3 resonators 

  001da	c7 45 ec 04 00
	00 00		 mov	 DWORD PTR _j$[ebp], 4
  001e1	eb 09		 jmp	 SHORT $LN8@FSMixFilte
$LN7@FSMixFilte:
  001e3	8b 45 ec	 mov	 eax, DWORD PTR _j$[ebp]
  001e6	83 c0 01	 add	 eax, 1
  001e9	89 45 ec	 mov	 DWORD PTR _j$[ebp], eax
$LN8@FSMixFilte:
  001ec	83 7d ec 1a	 cmp	 DWORD PTR _j$[ebp], 26	; 0000001aH
  001f0	0f 8f b1 00 00
	00		 jg	 $LN6@FSMixFilte

; 483  : 		{
; 484  : 			dblZout_0[j] = dblZComb + dblCoef[j] * dblZout_1[j] - dblR2 * dblZout_2[j];

  001f6	8b 45 ec	 mov	 eax, DWORD PTR _j$[ebp]
  001f9	d9 04 85 00 00
	00 00		 fld	 DWORD PTR _dblCoef[eax*4]
  00200	8b 4d ec	 mov	 ecx, DWORD PTR _j$[ebp]
  00203	d8 0c 8d 00 00
	00 00		 fmul	 DWORD PTR _dblZout_1[ecx*4]
  0020a	d8 05 00 00 00
	00		 fadd	 DWORD PTR _dblZComb
  00210	d9 05 00 00 00
	00		 fld	 DWORD PTR ?dblR2@?1??FSMixFilter2000Hz@@9@9
  00216	8b 55 ec	 mov	 edx, DWORD PTR _j$[ebp]
  00219	d8 0c 95 00 00
	00 00		 fmul	 DWORD PTR _dblZout_2[edx*4]
  00220	de e9		 fsubp	 ST(1), ST(0)
  00222	8b 45 ec	 mov	 eax, DWORD PTR _j$[ebp]
  00225	d9 1c 85 00 00
	00 00		 fstp	 DWORD PTR _dblZout_0[eax*4]

; 485  : 			dblZout_2[j] = dblZout_1[j];

  0022c	8b 45 ec	 mov	 eax, DWORD PTR _j$[ebp]
  0022f	8b 4d ec	 mov	 ecx, DWORD PTR _j$[ebp]
  00232	d9 04 8d 00 00
	00 00		 fld	 DWORD PTR _dblZout_1[ecx*4]
  00239	d9 1c 85 00 00
	00 00		 fstp	 DWORD PTR _dblZout_2[eax*4]

; 486  : 			dblZout_1[j] = dblZout_0[j];

  00240	8b 45 ec	 mov	 eax, DWORD PTR _j$[ebp]
  00243	8b 4d ec	 mov	 ecx, DWORD PTR _j$[ebp]
  00246	d9 04 8d 00 00
	00 00		 fld	 DWORD PTR _dblZout_0[ecx*4]
  0024d	d9 1c 85 00 00
	00 00		 fstp	 DWORD PTR _dblZout_1[eax*4]

; 487  : 
; 488  : 			//' scale each by transition coeff and + (Even) or - (Odd) 
; 489  : 			//' Resonators 2 and 13 scaled by .389 get best shape and side lobe supression 
; 490  : 			//' Scaling also accomodates for the filter "gain" of approx 60. 
; 491  :  
; 492  : 			if (j == 4 || j == 26)

  00254	83 7d ec 04	 cmp	 DWORD PTR _j$[ebp], 4
  00258	74 06		 je	 SHORT $LN4@FSMixFilte
  0025a	83 7d ec 1a	 cmp	 DWORD PTR _j$[ebp], 26	; 0000001aH
  0025e	75 18		 jne	 SHORT $LN5@FSMixFilte
$LN4@FSMixFilte:

; 493  : 				intFilteredSample += 0.389f * dblZout_0[j];

  00260	8b 45 ec	 mov	 eax, DWORD PTR _j$[ebp]
  00263	d9 04 85 00 00
	00 00		 fld	 DWORD PTR _dblZout_0[eax*4]
  0026a	dc 0d 00 00 00
	00		 fmul	 QWORD PTR __real@3fd8e56040000000
  00270	d8 45 e0	 fadd	 DWORD PTR _intFilteredSample$[ebp]
  00273	d9 5d e0	 fstp	 DWORD PTR _intFilteredSample$[ebp]
  00276	eb 2a		 jmp	 SHORT $LN1@FSMixFilte
$LN5@FSMixFilte:

; 494  : 			else if ((j & 1) == 0)

  00278	8b 45 ec	 mov	 eax, DWORD PTR _j$[ebp]
  0027b	83 e0 01	 and	 eax, 1
  0027e	75 12		 jne	 SHORT $LN2@FSMixFilte

; 495  : 				intFilteredSample += dblZout_0[j];

  00280	d9 45 e0	 fld	 DWORD PTR _intFilteredSample$[ebp]
  00283	8b 45 ec	 mov	 eax, DWORD PTR _j$[ebp]
  00286	d8 04 85 00 00
	00 00		 fadd	 DWORD PTR _dblZout_0[eax*4]
  0028d	d9 5d e0	 fstp	 DWORD PTR _intFilteredSample$[ebp]

; 496  : 			else

  00290	eb 10		 jmp	 SHORT $LN1@FSMixFilte
$LN2@FSMixFilte:

; 497  : 				intFilteredSample -= dblZout_0[j];

  00292	d9 45 e0	 fld	 DWORD PTR _intFilteredSample$[ebp]
  00295	8b 45 ec	 mov	 eax, DWORD PTR _j$[ebp]
  00298	d8 24 85 00 00
	00 00		 fsub	 DWORD PTR _dblZout_0[eax*4]
  0029f	d9 5d e0	 fstp	 DWORD PTR _intFilteredSample$[ebp]
$LN1@FSMixFilte:

; 498  : 		}

  002a2	e9 3c ff ff ff	 jmp	 $LN7@FSMixFilte
$LN6@FSMixFilte:

; 499  : 		intFilteredMixedSamples[intFilteredMixedSamplesLength++] = (int)ceil(intFilteredSample * 0.00833333333f);  // rescales for gain of filter

  002a7	d9 45 e0	 fld	 DWORD PTR _intFilteredSample$[ebp]
  002aa	dc 0d 00 00 00
	00		 fmul	 QWORD PTR __real@3f81111120000000
  002b0	83 ec 08	 sub	 esp, 8
  002b3	dd 1c 24	 fstp	 QWORD PTR [esp]
  002b6	e8 00 00 00 00	 call	 _ceil
  002bb	83 c4 08	 add	 esp, 8
  002be	e8 00 00 00 00	 call	 __ftol2_sse
  002c3	8b 0d 00 00 00
	00		 mov	 ecx, DWORD PTR _intFilteredMixedSamplesLength
  002c9	66 89 04 4d 00
	00 00 00	 mov	 WORD PTR _intFilteredMixedSamples[ecx*2], ax
  002d1	8b 15 00 00 00
	00		 mov	 edx, DWORD PTR _intFilteredMixedSamplesLength
  002d7	83 c2 01	 add	 edx, 1
  002da	89 15 00 00 00
	00		 mov	 DWORD PTR _intFilteredMixedSamplesLength, edx

; 500  : 	}

  002e0	e9 23 fe ff ff	 jmp	 $LN12@FSMixFilte
$LN11@FSMixFilte:

; 501  : 	
; 502  : 	// update the prior intPriorMixedSamples array for the next filter call 
; 503  :    
; 504  : 	memmove(intPriorMixedSamples, &intMixedSamples[intMixedSamplesLength - intN], intPriorMixedSamplesLength * 2);		 

  002e5	a1 00 00 00 00	 mov	 eax, DWORD PTR _intPriorMixedSamplesLength
  002ea	d1 e0		 shl	 eax, 1
  002ec	50		 push	 eax
  002ed	8b 4d 0c	 mov	 ecx, DWORD PTR _intMixedSamplesLength$[ebp]
  002f0	2b 0d 00 00 00
	00		 sub	 ecx, DWORD PTR _intN
  002f6	8b 55 08	 mov	 edx, DWORD PTR _intMixedSamples$[ebp]
  002f9	8d 04 4a	 lea	 eax, DWORD PTR [edx+ecx*2]
  002fc	50		 push	 eax
  002fd	68 00 00 00 00	 push	 OFFSET _intPriorMixedSamples
  00302	e8 00 00 00 00	 call	 _memmove
  00307	83 c4 0c	 add	 esp, 12			; 0000000cH

; 505  : }

  0030a	5f		 pop	 edi
  0030b	5e		 pop	 esi
  0030c	5b		 pop	 ebx
  0030d	81 c4 f0 00 00
	00		 add	 esp, 240		; 000000f0H
  00313	3b ec		 cmp	 ebp, esp
  00315	e8 00 00 00 00	 call	 __RTC_CheckEsp
  0031a	8b e5		 mov	 esp, ebp
  0031c	5d		 pop	 ebp
  0031d	c3		 ret	 0
_FSMixFilter2000Hz ENDP
_TEXT	ENDS
PUBLIC	__real@3f81111110f3bf11
PUBLIC	__real@3fc99999a0000000
PUBLIC	_Filter150Hz
EXTRN	@_RTC_CheckStackVars@8:PROC
EXTRN	_memset:PROC
_BSS	SEGMENT
?dblR2@?1??Filter150Hz@@9@9 DD 01H DUP (?)		; `Filter150Hz'::`2'::dblR2
?dblRn@?1??Filter150Hz@@9@9 DD 01H DUP (?)		; `Filter150Hz'::`2'::dblRn
_BSS	ENDS
;	COMDAT __real@3f81111110f3bf11
CONST	SEGMENT
__real@3f81111110f3bf11 DQ 03f81111110f3bf11r	; 0.00833333
CONST	ENDS
;	COMDAT __real@3fc99999a0000000
CONST	SEGMENT
__real@3fc99999a0000000 DQ 03fc99999a0000000r	; 0.2
; Function compile flags: /Odtp /RTCsu /ZI
CONST	ENDS
;	COMDAT _Filter150Hz
_TEXT	SEGMENT
tv267 = -528						; size = 4
tv315 = -524						; size = 8
tv281 = -524						; size = 4
tv279 = -520						; size = 4
tv275 = -520						; size = 4
tv252 = -520						; size = 4
tv244 = -520						; size = 4
_largest$ = -320					; size = 4
_FilterOut$ = -308					; size = 4
_j$ = -296						; size = 4
_i$ = -284						; size = 4
_dblZout_2$ = -272					; size = 68
_dblZout_1$ = -196					; size = 68
_dblZout_0$ = -120					; size = 68
_dblZComb$ = -44					; size = 4
_dblZin_2$ = -32					; size = 4
_dblZin_1$ = -20					; size = 4
_dblZin$ = -8						; size = 4
_intFilterOut$ = 8					; size = 4
_Filter150Hz PROC					; COMDAT

; 510  : {

  00000	55		 push	 ebp
  00001	8b ec		 mov	 ebp, esp
  00003	81 ec 10 02 00
	00		 sub	 esp, 528		; 00000210H
  00009	53		 push	 ebx
  0000a	56		 push	 esi
  0000b	57		 push	 edi
  0000c	8d bd f0 fd ff
	ff		 lea	 edi, DWORD PTR [ebp-528]
  00012	b9 84 00 00 00	 mov	 ecx, 132		; 00000084H
  00017	b8 cc cc cc cc	 mov	 eax, -858993460		; ccccccccH
  0001c	f3 ab		 rep stosd

; 511  : 	// assumes sample rate of 12000
; 512  : 	// implements  3 100 Hz wide sections   (~150 Hz wide @ - 30dB centered on 1500 Hz)
; 513  : 
; 514  : 	// FSF (Frequency Selective Filter) variables
; 515  : 
; 516  : 	static float dblR = 0.9995f;		// insures stability (must be < 1.0) (Value .9995 7/8/2013 gives good results)
; 517  : 	static int intN = 120;				//Length of filter 12000/100
; 518  : 	static float dblRn;
; 519  : 	static float dblR2;
; 520  : 	static float dblCoef[17] = {0.0};			// the coefficients
; 521  : 	float dblZin = 0, dblZin_1 = 0, dblZin_2 = 0, dblZComb= 0;  // Used in the comb generator

  0001e	d9 ee		 fldz
  00020	d9 5d f8	 fstp	 DWORD PTR _dblZin$[ebp]
  00023	d9 ee		 fldz
  00025	d9 5d ec	 fstp	 DWORD PTR _dblZin_1$[ebp]
  00028	d9 ee		 fldz
  0002a	d9 5d e0	 fstp	 DWORD PTR _dblZin_2$[ebp]
  0002d	d9 ee		 fldz
  0002f	d9 5d d4	 fstp	 DWORD PTR _dblZComb$[ebp]

; 522  : 	// The resonators 
; 523  :       
; 524  : 	float dblZout_0[17] = {0.0};	// resonator outputs

  00032	d9 ee		 fldz
  00034	d9 5d 88	 fstp	 DWORD PTR _dblZout_0$[ebp]
  00037	6a 40		 push	 64			; 00000040H
  00039	6a 00		 push	 0
  0003b	8d 45 8c	 lea	 eax, DWORD PTR _dblZout_0$[ebp+4]
  0003e	50		 push	 eax
  0003f	e8 00 00 00 00	 call	 _memset
  00044	83 c4 0c	 add	 esp, 12			; 0000000cH

; 525  : 	float dblZout_1[17] = {0.0};	// resonator outputs delayed one sample

  00047	d9 ee		 fldz
  00049	d9 9d 3c ff ff
	ff		 fstp	 DWORD PTR _dblZout_1$[ebp]
  0004f	6a 40		 push	 64			; 00000040H
  00051	6a 00		 push	 0
  00053	8d 85 40 ff ff
	ff		 lea	 eax, DWORD PTR _dblZout_1$[ebp+4]
  00059	50		 push	 eax
  0005a	e8 00 00 00 00	 call	 _memset
  0005f	83 c4 0c	 add	 esp, 12			; 0000000cH

; 526  : 	float dblZout_2[17] = {0.0};	// resonator outputs delayed two samples

  00062	d9 ee		 fldz
  00064	d9 9d f0 fe ff
	ff		 fstp	 DWORD PTR _dblZout_2$[ebp]
  0006a	6a 40		 push	 64			; 00000040H
  0006c	6a 00		 push	 0
  0006e	8d 85 f4 fe ff
	ff		 lea	 eax, DWORD PTR _dblZout_2$[ebp+4]
  00074	50		 push	 eax
  00075	e8 00 00 00 00	 call	 _memset
  0007a	83 c4 0c	 add	 esp, 12			; 0000000cH

; 527  : 
; 528  : 	int i, j;
; 529  : 
; 530  : 	float FilterOut = 0;			//  Filtered sample

  0007d	d9 ee		 fldz
  0007f	d9 9d cc fe ff
	ff		 fstp	 DWORD PTR _FilterOut$[ebp]

; 531  : 	float largest = 0;

  00085	d9 ee		 fldz
  00087	d9 9d c0 fe ff
	ff		 fstp	 DWORD PTR _largest$[ebp]

; 532  : 
; 533  : 	dblRn = powf(dblR, intN);

  0008d	db 05 00 00 00
	00		 fild	 DWORD PTR ?intN@?1??Filter150Hz@@9@9
  00093	83 ec 08	 sub	 esp, 8
  00096	dd 1c 24	 fstp	 QWORD PTR [esp]
  00099	d9 05 00 00 00
	00		 fld	 DWORD PTR ?dblR@?1??Filter150Hz@@9@9
  0009f	83 ec 08	 sub	 esp, 8
  000a2	dd 1c 24	 fstp	 QWORD PTR [esp]
  000a5	e8 00 00 00 00	 call	 _pow
  000aa	83 c4 10	 add	 esp, 16			; 00000010H
  000ad	d9 9d f8 fd ff
	ff		 fstp	 DWORD PTR tv244[ebp]
  000b3	d9 85 f8 fd ff
	ff		 fld	 DWORD PTR tv244[ebp]
  000b9	d9 1d 00 00 00
	00		 fstp	 DWORD PTR ?dblRn@?1??Filter150Hz@@9@9

; 534  : 
; 535  : 	dblR2 = powf(dblR, 2);

  000bf	83 ec 08	 sub	 esp, 8
  000c2	dd 05 00 00 00
	00		 fld	 QWORD PTR __real@4000000000000000
  000c8	dd 1c 24	 fstp	 QWORD PTR [esp]
  000cb	d9 05 00 00 00
	00		 fld	 DWORD PTR ?dblR@?1??Filter150Hz@@9@9
  000d1	83 ec 08	 sub	 esp, 8
  000d4	dd 1c 24	 fstp	 QWORD PTR [esp]
  000d7	e8 00 00 00 00	 call	 _pow
  000dc	83 c4 10	 add	 esp, 16			; 00000010H
  000df	d9 9d f8 fd ff
	ff		 fstp	 DWORD PTR tv252[ebp]
  000e5	d9 85 f8 fd ff
	ff		 fld	 DWORD PTR tv252[ebp]
  000eb	d9 1d 00 00 00
	00		 fstp	 DWORD PTR ?dblR2@?1??Filter150Hz@@9@9

; 536  : 
; 537  : 	// Initialize the coefficients
; 538  :     
; 539  : 	if (dblCoef[17] == 0)

  000f1	d9 05 44 00 00
	00		 fld	 DWORD PTR ?dblCoef@?1??Filter150Hz@@9@9+68
  000f7	dc 1d 00 00 00
	00		 fcomp	 QWORD PTR __real@0000000000000000
  000fd	df e0		 fnstsw	 ax
  000ff	f6 c4 44	 test	 ah, 68			; 00000044H
  00102	7a 77		 jp	 SHORT $LN12@Filter150H

; 540  : 	{
; 541  : 		for (i = 14; i <= 16; i++)

  00104	c7 85 e4 fe ff
	ff 0e 00 00 00	 mov	 DWORD PTR _i$[ebp], 14	; 0000000eH
  0010e	eb 0f		 jmp	 SHORT $LN14@Filter150H
$LN13@Filter150H:
  00110	8b 85 e4 fe ff
	ff		 mov	 eax, DWORD PTR _i$[ebp]
  00116	83 c0 01	 add	 eax, 1
  00119	89 85 e4 fe ff
	ff		 mov	 DWORD PTR _i$[ebp], eax
$LN14@Filter150H:
  0011f	83 bd e4 fe ff
	ff 10		 cmp	 DWORD PTR _i$[ebp], 16	; 00000010H
  00126	7f 53		 jg	 SHORT $LN12@Filter150H

; 542  : 		{
; 543  : 			dblCoef[i] = 2 * dblR * cosf(2 * M_PI * i / intN);  // For Frequency = bin i

  00128	d9 05 00 00 00
	00		 fld	 DWORD PTR ?dblR@?1??Filter150Hz@@9@9
  0012e	dc 0d 00 00 00
	00		 fmul	 QWORD PTR __real@4000000000000000
  00134	db 85 e4 fe ff
	ff		 fild	 DWORD PTR _i$[ebp]
  0013a	dc 0d 00 00 00
	00		 fmul	 QWORD PTR __real@401921fb00000000
  00140	da 35 00 00 00
	00		 fidiv	 DWORD PTR ?intN@?1??Filter150Hz@@9@9
  00146	83 ec 08	 sub	 esp, 8
  00149	dd 1c 24	 fstp	 QWORD PTR [esp]
  0014c	dd 9d f4 fd ff
	ff		 fstp	 QWORD PTR tv315[ebp]
  00152	e8 00 00 00 00	 call	 _cos
  00157	83 c4 08	 add	 esp, 8
  0015a	d9 9d f0 fd ff
	ff		 fstp	 DWORD PTR tv267[ebp]
  00160	d9 85 f0 fd ff
	ff		 fld	 DWORD PTR tv267[ebp]
  00166	dc 8d f4 fd ff
	ff		 fmul	 QWORD PTR tv315[ebp]
  0016c	8b 85 e4 fe ff
	ff		 mov	 eax, DWORD PTR _i$[ebp]
  00172	d9 1c 85 00 00
	00 00		 fstp	 DWORD PTR ?dblCoef@?1??Filter150Hz@@9@9[eax*4]

; 544  : 		}

  00179	eb 95		 jmp	 SHORT $LN13@Filter150H
$LN12@Filter150H:

; 545  : 	}
; 546  : 
; 547  : 	for (i = 0; i < 480; i++)

  0017b	c7 85 e4 fe ff
	ff 00 00 00 00	 mov	 DWORD PTR _i$[ebp], 0
  00185	eb 0f		 jmp	 SHORT $LN11@Filter150H
$LN10@Filter150H:
  00187	8b 85 e4 fe ff
	ff		 mov	 eax, DWORD PTR _i$[ebp]
  0018d	83 c0 01	 add	 eax, 1
  00190	89 85 e4 fe ff
	ff		 mov	 DWORD PTR _i$[ebp], eax
$LN11@Filter150H:
  00196	81 bd e4 fe ff
	ff e0 01 00 00	 cmp	 DWORD PTR _i$[ebp], 480	; 000001e0H
  001a0	0f 8d b6 01 00
	00		 jge	 $LN9@Filter150H

; 548  : 	{
; 549  : 		if (i < intN)

  001a6	8b 85 e4 fe ff
	ff		 mov	 eax, DWORD PTR _i$[ebp]
  001ac	3b 05 00 00 00
	00		 cmp	 eax, DWORD PTR ?intN@?1??Filter150Hz@@9@9
  001b2	7d 32		 jge	 SHORT $LN8@Filter150H

; 550  : 			dblZin = intFilteredMixedSamples[intMFSReadPtr + i] - dblRn * 0;	// no prior mixed samples

  001b4	a1 00 00 00 00	 mov	 eax, DWORD PTR _intMFSReadPtr
  001b9	03 85 e4 fe ff
	ff		 add	 eax, DWORD PTR _i$[ebp]
  001bf	0f bf 0c 45 00
	00 00 00	 movsx	 ecx, WORD PTR _intFilteredMixedSamples[eax*2]
  001c7	89 8d f8 fd ff
	ff		 mov	 DWORD PTR tv275[ebp], ecx
  001cd	db 85 f8 fd ff
	ff		 fild	 DWORD PTR tv275[ebp]
  001d3	d9 05 00 00 00
	00		 fld	 DWORD PTR ?dblRn@?1??Filter150Hz@@9@9
  001d9	dc 0d 00 00 00
	00		 fmul	 QWORD PTR __real@0000000000000000
  001df	de e9		 fsubp	 ST(1), ST(0)
  001e1	d9 5d f8	 fstp	 DWORD PTR _dblZin$[ebp]

; 551  : 		else

  001e4	eb 50		 jmp	 SHORT $LN7@Filter150H
$LN8@Filter150H:

; 552  : 			dblZin = intFilteredMixedSamples[intMFSReadPtr + i] - dblRn * intFilteredMixedSamples[intMFSReadPtr + i - intN];

  001e6	a1 00 00 00 00	 mov	 eax, DWORD PTR _intMFSReadPtr
  001eb	03 85 e4 fe ff
	ff		 add	 eax, DWORD PTR _i$[ebp]
  001f1	0f bf 0c 45 00
	00 00 00	 movsx	 ecx, WORD PTR _intFilteredMixedSamples[eax*2]
  001f9	89 8d f8 fd ff
	ff		 mov	 DWORD PTR tv279[ebp], ecx
  001ff	db 85 f8 fd ff
	ff		 fild	 DWORD PTR tv279[ebp]
  00205	8b 15 00 00 00
	00		 mov	 edx, DWORD PTR _intMFSReadPtr
  0020b	03 95 e4 fe ff
	ff		 add	 edx, DWORD PTR _i$[ebp]
  00211	2b 15 00 00 00
	00		 sub	 edx, DWORD PTR ?intN@?1??Filter150Hz@@9@9
  00217	0f bf 04 55 00
	00 00 00	 movsx	 eax, WORD PTR _intFilteredMixedSamples[edx*2]
  0021f	89 85 f4 fd ff
	ff		 mov	 DWORD PTR tv281[ebp], eax
  00225	db 85 f4 fd ff
	ff		 fild	 DWORD PTR tv281[ebp]
  0022b	d8 0d 00 00 00
	00		 fmul	 DWORD PTR ?dblRn@?1??Filter150Hz@@9@9
  00231	de e9		 fsubp	 ST(1), ST(0)
  00233	d9 5d f8	 fstp	 DWORD PTR _dblZin$[ebp]
$LN7@Filter150H:

; 553  : 
; 554  : 		// Compute the Comb
; 555  : 		
; 556  : 		dblZComb = dblZin - dblZin_2 * dblR2;

  00236	d9 45 e0	 fld	 DWORD PTR _dblZin_2$[ebp]
  00239	d8 0d 00 00 00
	00		 fmul	 DWORD PTR ?dblR2@?1??Filter150Hz@@9@9
  0023f	d8 6d f8	 fsubr	 DWORD PTR _dblZin$[ebp]
  00242	d9 5d d4	 fstp	 DWORD PTR _dblZComb$[ebp]

; 557  : 		dblZin_2 = dblZin_1;

  00245	d9 45 ec	 fld	 DWORD PTR _dblZin_1$[ebp]
  00248	d9 5d e0	 fstp	 DWORD PTR _dblZin_2$[ebp]

; 558  : 		dblZin_1 = dblZin;

  0024b	d9 45 f8	 fld	 DWORD PTR _dblZin$[ebp]
  0024e	d9 5d ec	 fstp	 DWORD PTR _dblZin_1$[ebp]

; 559  : 
; 560  : 		// Now the resonators
; 561  : 
; 562  : 		for (j = 14; j <= 16; j++)		   // calculate output for 3 resonators 

  00251	c7 85 d8 fe ff
	ff 0e 00 00 00	 mov	 DWORD PTR _j$[ebp], 14	; 0000000eH
  0025b	eb 0f		 jmp	 SHORT $LN6@Filter150H
$LN5@Filter150H:
  0025d	8b 85 d8 fe ff
	ff		 mov	 eax, DWORD PTR _j$[ebp]
  00263	83 c0 01	 add	 eax, 1
  00266	89 85 d8 fe ff
	ff		 mov	 DWORD PTR _j$[ebp], eax
$LN6@Filter150H:
  0026c	83 bd d8 fe ff
	ff 10		 cmp	 DWORD PTR _j$[ebp], 16	; 00000010H
  00273	0f 8f b2 00 00
	00		 jg	 $LN4@Filter150H

; 563  : 		{
; 564  : 			dblZout_0[j] = dblZComb + dblCoef[j] * dblZout_1[j] - dblR2 * dblZout_2[j];

  00279	8b 85 d8 fe ff
	ff		 mov	 eax, DWORD PTR _j$[ebp]
  0027f	d9 04 85 00 00
	00 00		 fld	 DWORD PTR ?dblCoef@?1??Filter150Hz@@9@9[eax*4]
  00286	8b 8d d8 fe ff
	ff		 mov	 ecx, DWORD PTR _j$[ebp]
  0028c	d8 8c 8d 3c ff
	ff ff		 fmul	 DWORD PTR _dblZout_1$[ebp+ecx*4]
  00293	d8 45 d4	 fadd	 DWORD PTR _dblZComb$[ebp]
  00296	d9 05 00 00 00
	00		 fld	 DWORD PTR ?dblR2@?1??Filter150Hz@@9@9
  0029c	8b 95 d8 fe ff
	ff		 mov	 edx, DWORD PTR _j$[ebp]
  002a2	d8 8c 95 f0 fe
	ff ff		 fmul	 DWORD PTR _dblZout_2$[ebp+edx*4]
  002a9	de e9		 fsubp	 ST(1), ST(0)
  002ab	8b 85 d8 fe ff
	ff		 mov	 eax, DWORD PTR _j$[ebp]
  002b1	d9 5c 85 88	 fstp	 DWORD PTR _dblZout_0$[ebp+eax*4]

; 565  : 			dblZout_2[j] = dblZout_1[j];

  002b5	8b 85 d8 fe ff
	ff		 mov	 eax, DWORD PTR _j$[ebp]
  002bb	8b 8d d8 fe ff
	ff		 mov	 ecx, DWORD PTR _j$[ebp]
  002c1	d9 84 8d 3c ff
	ff ff		 fld	 DWORD PTR _dblZout_1$[ebp+ecx*4]
  002c8	d9 9c 85 f0 fe
	ff ff		 fstp	 DWORD PTR _dblZout_2$[ebp+eax*4]

; 566  : 			dblZout_1[j] = dblZout_0[j];

  002cf	8b 85 d8 fe ff
	ff		 mov	 eax, DWORD PTR _j$[ebp]
  002d5	8b 8d d8 fe ff
	ff		 mov	 ecx, DWORD PTR _j$[ebp]
  002db	d9 44 8d 88	 fld	 DWORD PTR _dblZout_0$[ebp+ecx*4]
  002df	d9 9c 85 3c ff
	ff ff		 fstp	 DWORD PTR _dblZout_1$[ebp+eax*4]

; 567  : 	
; 568  : 			//	scale each by transition coeff and + (Even) or - (Odd) 
; 569  : 
; 570  : 			// Scaling also accomodates for the filter "gain" of approx 120. 
; 571  : 			// These transition coefficients fairly close to optimum for WGN 0db PSK4, 100 baud (yield highest average quality) 5/24/2014
; 572  :  
; 573  : 			if (j == 14 || j == 16)

  002e6	83 bd d8 fe ff
	ff 0e		 cmp	 DWORD PTR _j$[ebp], 14	; 0000000eH
  002ed	74 09		 je	 SHORT $LN2@Filter150H
  002ef	83 bd d8 fe ff
	ff 10		 cmp	 DWORD PTR _j$[ebp], 16	; 00000010H
  002f6	75 18		 jne	 SHORT $LN3@Filter150H
$LN2@Filter150H:

; 574  : 				FilterOut = 0.2f * dblZout_0[j];	 // this transisiton minimizes ringing and peaks

  002f8	8b 85 d8 fe ff
	ff		 mov	 eax, DWORD PTR _j$[ebp]
  002fe	d9 44 85 88	 fld	 DWORD PTR _dblZout_0$[ebp+eax*4]
  00302	dc 0d 00 00 00
	00		 fmul	 QWORD PTR __real@3fc99999a0000000
  00308	d9 9d cc fe ff
	ff		 fstp	 DWORD PTR _FilterOut$[ebp]

; 575  : 			else

  0030e	eb 16		 jmp	 SHORT $LN1@Filter150H
$LN3@Filter150H:

; 576  : 				FilterOut -= dblZout_0[j];

  00310	d9 85 cc fe ff
	ff		 fld	 DWORD PTR _FilterOut$[ebp]
  00316	8b 85 d8 fe ff
	ff		 mov	 eax, DWORD PTR _j$[ebp]
  0031c	d8 64 85 88	 fsub	 DWORD PTR _dblZout_0$[ebp+eax*4]
  00320	d9 9d cc fe ff
	ff		 fstp	 DWORD PTR _FilterOut$[ebp]
$LN1@Filter150H:

; 577  : 		}

  00326	e9 32 ff ff ff	 jmp	 $LN5@Filter150H
$LN4@Filter150H:

; 578  : 		intFilterOut[i] = (int)ceil(FilterOut * 0.00833333333);	 // rescales for gain of filter

  0032b	d9 85 cc fe ff
	ff		 fld	 DWORD PTR _FilterOut$[ebp]
  00331	dc 0d 00 00 00
	00		 fmul	 QWORD PTR __real@3f81111110f3bf11
  00337	83 ec 08	 sub	 esp, 8
  0033a	dd 1c 24	 fstp	 QWORD PTR [esp]
  0033d	e8 00 00 00 00	 call	 _ceil
  00342	83 c4 08	 add	 esp, 8
  00345	e8 00 00 00 00	 call	 __ftol2_sse
  0034a	8b 8d e4 fe ff
	ff		 mov	 ecx, DWORD PTR _i$[ebp]
  00350	8b 55 08	 mov	 edx, DWORD PTR _intFilterOut$[ebp]
  00353	66 89 04 4a	 mov	 WORD PTR [edx+ecx*2], ax

; 579  : 	}

  00357	e9 2b fe ff ff	 jmp	 $LN10@Filter150H
$LN9@Filter150H:

; 580  : 
; 581  : }

  0035c	52		 push	 edx
  0035d	8b cd		 mov	 ecx, ebp
  0035f	50		 push	 eax
  00360	8d 15 00 00 00
	00		 lea	 edx, DWORD PTR $LN22@Filter150H
  00366	e8 00 00 00 00	 call	 @_RTC_CheckStackVars@8
  0036b	58		 pop	 eax
  0036c	5a		 pop	 edx
  0036d	5f		 pop	 edi
  0036e	5e		 pop	 esi
  0036f	5b		 pop	 ebx
  00370	81 c4 10 02 00
	00		 add	 esp, 528		; 00000210H
  00376	3b ec		 cmp	 ebp, esp
  00378	e8 00 00 00 00	 call	 __RTC_CheckEsp
  0037d	8b e5		 mov	 esp, ebp
  0037f	5d		 pop	 ebp
  00380	c3		 ret	 0
  00381	8d 49 00	 npad	 3
$LN22@Filter150H:
  00384	03 00 00 00	 DD	 3
  00388	00 00 00 00	 DD	 $LN21@Filter150H
$LN21@Filter150H:
  0038c	88 ff ff ff	 DD	 -120			; ffffff88H
  00390	44 00 00 00	 DD	 68			; 00000044H
  00394	00 00 00 00	 DD	 $LN18@Filter150H
  00398	3c ff ff ff	 DD	 -196			; ffffff3cH
  0039c	44 00 00 00	 DD	 68			; 00000044H
  003a0	00 00 00 00	 DD	 $LN19@Filter150H
  003a4	f0 fe ff ff	 DD	 -272			; fffffef0H
  003a8	44 00 00 00	 DD	 68			; 00000044H
  003ac	00 00 00 00	 DD	 $LN20@Filter150H
$LN20@Filter150H:
  003b0	64		 DB	 100			; 00000064H
  003b1	62		 DB	 98			; 00000062H
  003b2	6c		 DB	 108			; 0000006cH
  003b3	5a		 DB	 90			; 0000005aH
  003b4	6f		 DB	 111			; 0000006fH
  003b5	75		 DB	 117			; 00000075H
  003b6	74		 DB	 116			; 00000074H
  003b7	5f		 DB	 95			; 0000005fH
  003b8	32		 DB	 50			; 00000032H
  003b9	00		 DB	 0
$LN19@Filter150H:
  003ba	64		 DB	 100			; 00000064H
  003bb	62		 DB	 98			; 00000062H
  003bc	6c		 DB	 108			; 0000006cH
  003bd	5a		 DB	 90			; 0000005aH
  003be	6f		 DB	 111			; 0000006fH
  003bf	75		 DB	 117			; 00000075H
  003c0	74		 DB	 116			; 00000074H
  003c1	5f		 DB	 95			; 0000005fH
  003c2	31		 DB	 49			; 00000031H
  003c3	00		 DB	 0
$LN18@Filter150H:
  003c4	64		 DB	 100			; 00000064H
  003c5	62		 DB	 98			; 00000062H
  003c6	6c		 DB	 108			; 0000006cH
  003c7	5a		 DB	 90			; 0000005aH
  003c8	6f		 DB	 111			; 0000006fH
  003c9	75		 DB	 117			; 00000075H
  003ca	74		 DB	 116			; 00000074H
  003cb	5f		 DB	 95			; 0000005fH
  003cc	30		 DB	 48			; 00000030H
  003cd	00		 DB	 0
_Filter150Hz ENDP
_TEXT	ENDS
PUBLIC	__real@3f70cb2960000000
PUBLIC	__real@3fd97aa260000000
PUBLIC	_Filter75Hz
_BSS	SEGMENT
?dblR2@?1??Filter75Hz@@9@9 DD 01H DUP (?)		; `Filter75Hz'::`2'::dblR2
?dblRn@?1??Filter75Hz@@9@9 DD 01H DUP (?)		; `Filter75Hz'::`2'::dblRn
_BSS	ENDS
;	COMDAT __real@3f70cb2960000000
CONST	SEGMENT
__real@3f70cb2960000000 DQ 03f70cb2960000000r	; 0.0041
CONST	ENDS
;	COMDAT __real@3fd97aa260000000
CONST	SEGMENT
__real@3fd97aa260000000 DQ 03fd97aa260000000r	; 0.39811
; Function compile flags: /Odtp /RTCsu /ZI
CONST	ENDS
;	COMDAT _Filter75Hz
_TEXT	SEGMENT
tv275 = -364						; size = 4
tv324 = -360						; size = 8
tv290 = -356						; size = 4
tv288 = -352						; size = 4
tv284 = -352						; size = 4
tv266 = -352						; size = 4
tv258 = -352						; size = 4
tv250 = -352						; size = 4
_largest$ = -152					; size = 4
_FilterOut$ = -140					; size = 4
_j$ = -128						; size = 4
_i$ = -116						; size = 4
_dblZout_2$ = -104					; size = 12
_dblZout_1$ = -84					; size = 12
_dblZout_0$ = -64					; size = 12
_dblZComb$ = -44					; size = 4
_dblZin_2$ = -32					; size = 4
_dblZin_1$ = -20					; size = 4
_dblZin$ = -8						; size = 4
_intFilterOut$ = 8					; size = 4
_blnInitialise$ = 12					; size = 4
_intSamplesToFilter$ = 16				; size = 4
_Filter75Hz PROC					; COMDAT

; 586  : {

  00000	55		 push	 ebp
  00001	8b ec		 mov	 ebp, esp
  00003	81 ec 6c 01 00
	00		 sub	 esp, 364		; 0000016cH
  00009	53		 push	 ebx
  0000a	56		 push	 esi
  0000b	57		 push	 edi
  0000c	8d bd 94 fe ff
	ff		 lea	 edi, DWORD PTR [ebp-364]
  00012	b9 5b 00 00 00	 mov	 ecx, 91			; 0000005bH
  00017	b8 cc cc cc cc	 mov	 eax, -858993460		; ccccccccH
  0001c	f3 ab		 rep stosd

; 587  : 	// assumes sample rate of 12000
; 588  : 	// implements  3 100 Hz wide sections   (~150 Hz wide @ - 30dB centered on 1500 Hz)
; 589  : 
; 590  : 	// FSF (Frequency Selective Filter) variables
; 591  : 
; 592  : 	static float dblR = 0.9995f;		// insures stability (must be < 1.0) (Value .9995 7/8/2013 gives good results)
; 593  : 	static int intN = 240;				//Length of filter 12000/50 - delays output 120 samples from input
; 594  : 	static float dblRn;
; 595  : 	static float dblR2;
; 596  : 	static float dblCoef[3] = {0.0};			// the coefficients
; 597  : 	float dblZin = 0, dblZin_1 = 0, dblZin_2 = 0, dblZComb= 0;  // Used in the comb generator

  0001e	d9 ee		 fldz
  00020	d9 5d f8	 fstp	 DWORD PTR _dblZin$[ebp]
  00023	d9 ee		 fldz
  00025	d9 5d ec	 fstp	 DWORD PTR _dblZin_1$[ebp]
  00028	d9 ee		 fldz
  0002a	d9 5d e0	 fstp	 DWORD PTR _dblZin_2$[ebp]
  0002d	d9 ee		 fldz
  0002f	d9 5d d4	 fstp	 DWORD PTR _dblZComb$[ebp]

; 598  : 	// The resonators 
; 599  :       
; 600  : 	float dblZout_0[3] = {0.0};	// resonator outputs

  00032	d9 ee		 fldz
  00034	d9 5d c0	 fstp	 DWORD PTR _dblZout_0$[ebp]
  00037	33 c0		 xor	 eax, eax
  00039	89 45 c4	 mov	 DWORD PTR _dblZout_0$[ebp+4], eax
  0003c	89 45 c8	 mov	 DWORD PTR _dblZout_0$[ebp+8], eax

; 601  : 	float dblZout_1[3] = {0.0};	// resonator outputs delayed one sample

  0003f	d9 ee		 fldz
  00041	d9 5d ac	 fstp	 DWORD PTR _dblZout_1$[ebp]
  00044	33 c0		 xor	 eax, eax
  00046	89 45 b0	 mov	 DWORD PTR _dblZout_1$[ebp+4], eax
  00049	89 45 b4	 mov	 DWORD PTR _dblZout_1$[ebp+8], eax

; 602  : 	float dblZout_2[3] = {0.0};	// resonator outputs delayed two samples

  0004c	d9 ee		 fldz
  0004e	d9 5d 98	 fstp	 DWORD PTR _dblZout_2$[ebp]
  00051	33 c0		 xor	 eax, eax
  00053	89 45 9c	 mov	 DWORD PTR _dblZout_2$[ebp+4], eax
  00056	89 45 a0	 mov	 DWORD PTR _dblZout_2$[ebp+8], eax

; 603  : 
; 604  : 	int i, j;
; 605  : 
; 606  : 	float FilterOut = 0;			//  Filtered sample

  00059	d9 ee		 fldz
  0005b	d9 9d 74 ff ff
	ff		 fstp	 DWORD PTR _FilterOut$[ebp]

; 607  : 	float largest = 0;

  00061	d9 ee		 fldz
  00063	d9 9d 68 ff ff
	ff		 fstp	 DWORD PTR _largest$[ebp]

; 608  : 
; 609  : 	dblRn = powf(dblR, intN);

  00069	db 05 00 00 00
	00		 fild	 DWORD PTR ?intN@?1??Filter75Hz@@9@9
  0006f	83 ec 08	 sub	 esp, 8
  00072	dd 1c 24	 fstp	 QWORD PTR [esp]
  00075	d9 05 00 00 00
	00		 fld	 DWORD PTR ?dblR@?1??Filter75Hz@@9@9
  0007b	83 ec 08	 sub	 esp, 8
  0007e	dd 1c 24	 fstp	 QWORD PTR [esp]
  00081	e8 00 00 00 00	 call	 _pow
  00086	83 c4 10	 add	 esp, 16			; 00000010H
  00089	d9 9d a0 fe ff
	ff		 fstp	 DWORD PTR tv250[ebp]
  0008f	d9 85 a0 fe ff
	ff		 fld	 DWORD PTR tv250[ebp]
  00095	d9 1d 00 00 00
	00		 fstp	 DWORD PTR ?dblRn@?1??Filter75Hz@@9@9

; 610  : 
; 611  : 	dblR2 = powf(dblR, 2);

  0009b	83 ec 08	 sub	 esp, 8
  0009e	dd 05 00 00 00
	00		 fld	 QWORD PTR __real@4000000000000000
  000a4	dd 1c 24	 fstp	 QWORD PTR [esp]
  000a7	d9 05 00 00 00
	00		 fld	 DWORD PTR ?dblR@?1??Filter75Hz@@9@9
  000ad	83 ec 08	 sub	 esp, 8
  000b0	dd 1c 24	 fstp	 QWORD PTR [esp]
  000b3	e8 00 00 00 00	 call	 _pow
  000b8	83 c4 10	 add	 esp, 16			; 00000010H
  000bb	d9 9d a0 fe ff
	ff		 fstp	 DWORD PTR tv258[ebp]
  000c1	d9 85 a0 fe ff
	ff		 fld	 DWORD PTR tv258[ebp]
  000c7	d9 1d 00 00 00
	00		 fstp	 DWORD PTR ?dblR2@?1??Filter75Hz@@9@9

; 612  : 
; 613  : 	// Initialize the coefficients
; 614  :     
; 615  : 	if (dblCoef[2] == 0)

  000cd	d9 05 08 00 00
	00		 fld	 DWORD PTR ?dblCoef@?1??Filter75Hz@@9@9+8
  000d3	dc 1d 00 00 00
	00		 fcomp	 QWORD PTR __real@0000000000000000
  000d9	df e0		 fnstsw	 ax
  000db	f6 c4 44	 test	 ah, 68			; 00000044H
  000de	7a 74		 jp	 SHORT $LN12@Filter75Hz

; 616  : 	{
; 617  : 		for (i = 0; i <= 3; i++)

  000e0	c7 45 8c 00 00
	00 00		 mov	 DWORD PTR _i$[ebp], 0
  000e7	eb 09		 jmp	 SHORT $LN14@Filter75Hz
$LN13@Filter75Hz:
  000e9	8b 45 8c	 mov	 eax, DWORD PTR _i$[ebp]
  000ec	83 c0 01	 add	 eax, 1
  000ef	89 45 8c	 mov	 DWORD PTR _i$[ebp], eax
$LN14@Filter75Hz:
  000f2	83 7d 8c 03	 cmp	 DWORD PTR _i$[ebp], 3
  000f6	7f 5c		 jg	 SHORT $LN12@Filter75Hz

; 618  : 		{
; 619  : 			dblCoef[i] = 2 * dblR * cosf(2 * M_PI * (29 + i)/ intN);  // For Frequency = bin 29, 30, 31

  000f8	d9 05 00 00 00
	00		 fld	 DWORD PTR ?dblR@?1??Filter75Hz@@9@9
  000fe	dc 0d 00 00 00
	00		 fmul	 QWORD PTR __real@4000000000000000
  00104	8b 45 8c	 mov	 eax, DWORD PTR _i$[ebp]
  00107	83 c0 1d	 add	 eax, 29			; 0000001dH
  0010a	89 85 a0 fe ff
	ff		 mov	 DWORD PTR tv266[ebp], eax
  00110	db 85 a0 fe ff
	ff		 fild	 DWORD PTR tv266[ebp]
  00116	dc 0d 00 00 00
	00		 fmul	 QWORD PTR __real@401921fb00000000
  0011c	da 35 00 00 00
	00		 fidiv	 DWORD PTR ?intN@?1??Filter75Hz@@9@9
  00122	83 ec 08	 sub	 esp, 8
  00125	dd 1c 24	 fstp	 QWORD PTR [esp]
  00128	dd 9d 98 fe ff
	ff		 fstp	 QWORD PTR tv324[ebp]
  0012e	e8 00 00 00 00	 call	 _cos
  00133	83 c4 08	 add	 esp, 8
  00136	d9 9d 94 fe ff
	ff		 fstp	 DWORD PTR tv275[ebp]
  0013c	d9 85 94 fe ff
	ff		 fld	 DWORD PTR tv275[ebp]
  00142	dc 8d 98 fe ff
	ff		 fmul	 QWORD PTR tv324[ebp]
  00148	8b 4d 8c	 mov	 ecx, DWORD PTR _i$[ebp]
  0014b	d9 1c 8d 00 00
	00 00		 fstp	 DWORD PTR ?dblCoef@?1??Filter75Hz@@9@9[ecx*4]

; 620  : 		}

  00152	eb 95		 jmp	 SHORT $LN13@Filter75Hz
$LN12@Filter75Hz:

; 621  : 	}
; 622  : 
; 623  : 	for (i = 0; i < intSamplesToFilter; i++)

  00154	c7 45 8c 00 00
	00 00		 mov	 DWORD PTR _i$[ebp], 0
  0015b	eb 09		 jmp	 SHORT $LN11@Filter75Hz
$LN10@Filter75Hz:
  0015d	8b 45 8c	 mov	 eax, DWORD PTR _i$[ebp]
  00160	83 c0 01	 add	 eax, 1
  00163	89 45 8c	 mov	 DWORD PTR _i$[ebp], eax
$LN11@Filter75Hz:
  00166	8b 45 8c	 mov	 eax, DWORD PTR _i$[ebp]
  00169	3b 45 10	 cmp	 eax, DWORD PTR _intSamplesToFilter$[ebp]
  0016c	0f 8d 6e 01 00
	00		 jge	 $LN9@Filter75Hz

; 624  : 	{
; 625  : 		if (i < intN)

  00172	8b 45 8c	 mov	 eax, DWORD PTR _i$[ebp]
  00175	3b 05 00 00 00
	00		 cmp	 eax, DWORD PTR ?intN@?1??Filter75Hz@@9@9
  0017b	7d 2f		 jge	 SHORT $LN8@Filter75Hz

; 626  : 			dblZin = intFilteredMixedSamples[intMFSReadPtr + i] - dblRn * 0;	// no prior mixed samples

  0017d	a1 00 00 00 00	 mov	 eax, DWORD PTR _intMFSReadPtr
  00182	03 45 8c	 add	 eax, DWORD PTR _i$[ebp]
  00185	0f bf 0c 45 00
	00 00 00	 movsx	 ecx, WORD PTR _intFilteredMixedSamples[eax*2]
  0018d	89 8d a0 fe ff
	ff		 mov	 DWORD PTR tv284[ebp], ecx
  00193	db 85 a0 fe ff
	ff		 fild	 DWORD PTR tv284[ebp]
  00199	d9 05 00 00 00
	00		 fld	 DWORD PTR ?dblRn@?1??Filter75Hz@@9@9
  0019f	dc 0d 00 00 00
	00		 fmul	 QWORD PTR __real@0000000000000000
  001a5	de e9		 fsubp	 ST(1), ST(0)
  001a7	d9 5d f8	 fstp	 DWORD PTR _dblZin$[ebp]

; 627  : 		else

  001aa	eb 4a		 jmp	 SHORT $LN7@Filter75Hz
$LN8@Filter75Hz:

; 628  : 			dblZin = intFilteredMixedSamples[intMFSReadPtr + i] - dblRn * intFilteredMixedSamples[intMFSReadPtr + i - intN];

  001ac	a1 00 00 00 00	 mov	 eax, DWORD PTR _intMFSReadPtr
  001b1	03 45 8c	 add	 eax, DWORD PTR _i$[ebp]
  001b4	0f bf 0c 45 00
	00 00 00	 movsx	 ecx, WORD PTR _intFilteredMixedSamples[eax*2]
  001bc	89 8d a0 fe ff
	ff		 mov	 DWORD PTR tv288[ebp], ecx
  001c2	db 85 a0 fe ff
	ff		 fild	 DWORD PTR tv288[ebp]
  001c8	8b 15 00 00 00
	00		 mov	 edx, DWORD PTR _intMFSReadPtr
  001ce	03 55 8c	 add	 edx, DWORD PTR _i$[ebp]
  001d1	2b 15 00 00 00
	00		 sub	 edx, DWORD PTR ?intN@?1??Filter75Hz@@9@9
  001d7	0f bf 04 55 00
	00 00 00	 movsx	 eax, WORD PTR _intFilteredMixedSamples[edx*2]
  001df	89 85 9c fe ff
	ff		 mov	 DWORD PTR tv290[ebp], eax
  001e5	db 85 9c fe ff
	ff		 fild	 DWORD PTR tv290[ebp]
  001eb	d8 0d 00 00 00
	00		 fmul	 DWORD PTR ?dblRn@?1??Filter75Hz@@9@9
  001f1	de e9		 fsubp	 ST(1), ST(0)
  001f3	d9 5d f8	 fstp	 DWORD PTR _dblZin$[ebp]
$LN7@Filter75Hz:

; 629  : 
; 630  : 		// Compute the Comb
; 631  : 		
; 632  : 		dblZComb = dblZin - dblZin_2 * dblR2;

  001f6	d9 45 e0	 fld	 DWORD PTR _dblZin_2$[ebp]
  001f9	d8 0d 00 00 00
	00		 fmul	 DWORD PTR ?dblR2@?1??Filter75Hz@@9@9
  001ff	d8 6d f8	 fsubr	 DWORD PTR _dblZin$[ebp]
  00202	d9 5d d4	 fstp	 DWORD PTR _dblZComb$[ebp]

; 633  : 		dblZin_2 = dblZin_1;

  00205	d9 45 ec	 fld	 DWORD PTR _dblZin_1$[ebp]
  00208	d9 5d e0	 fstp	 DWORD PTR _dblZin_2$[ebp]

; 634  : 		dblZin_1 = dblZin;

  0020b	d9 45 f8	 fld	 DWORD PTR _dblZin$[ebp]
  0020e	d9 5d ec	 fstp	 DWORD PTR _dblZin_1$[ebp]

; 635  : 
; 636  : 		// Now the resonators
; 637  : 
; 638  : 		for (j = 0; j < 3; j++)		   // calculate output for 3 resonators 

  00211	c7 45 80 00 00
	00 00		 mov	 DWORD PTR _j$[ebp], 0
  00218	eb 09		 jmp	 SHORT $LN6@Filter75Hz
$LN5@Filter75Hz:
  0021a	8b 45 80	 mov	 eax, DWORD PTR _j$[ebp]
  0021d	83 c0 01	 add	 eax, 1
  00220	89 45 80	 mov	 DWORD PTR _j$[ebp], eax
$LN6@Filter75Hz:
  00223	83 7d 80 03	 cmp	 DWORD PTR _j$[ebp], 3
  00227	0f 8d 85 00 00
	00		 jge	 $LN4@Filter75Hz

; 639  : 		{
; 640  : 			dblZout_0[j] = dblZComb + dblCoef[j] * dblZout_1[j] - dblR2 * dblZout_2[j];

  0022d	8b 45 80	 mov	 eax, DWORD PTR _j$[ebp]
  00230	d9 04 85 00 00
	00 00		 fld	 DWORD PTR ?dblCoef@?1??Filter75Hz@@9@9[eax*4]
  00237	8b 4d 80	 mov	 ecx, DWORD PTR _j$[ebp]
  0023a	d8 4c 8d ac	 fmul	 DWORD PTR _dblZout_1$[ebp+ecx*4]
  0023e	d8 45 d4	 fadd	 DWORD PTR _dblZComb$[ebp]
  00241	d9 05 00 00 00
	00		 fld	 DWORD PTR ?dblR2@?1??Filter75Hz@@9@9
  00247	8b 55 80	 mov	 edx, DWORD PTR _j$[ebp]
  0024a	d8 4c 95 98	 fmul	 DWORD PTR _dblZout_2$[ebp+edx*4]
  0024e	de e9		 fsubp	 ST(1), ST(0)
  00250	8b 45 80	 mov	 eax, DWORD PTR _j$[ebp]
  00253	d9 5c 85 c0	 fstp	 DWORD PTR _dblZout_0$[ebp+eax*4]

; 641  : 			dblZout_2[j] = dblZout_1[j];

  00257	8b 45 80	 mov	 eax, DWORD PTR _j$[ebp]
  0025a	8b 4d 80	 mov	 ecx, DWORD PTR _j$[ebp]
  0025d	d9 44 8d ac	 fld	 DWORD PTR _dblZout_1$[ebp+ecx*4]
  00261	d9 5c 85 98	 fstp	 DWORD PTR _dblZout_2$[ebp+eax*4]

; 642  : 			dblZout_1[j] = dblZout_0[j];

  00265	8b 45 80	 mov	 eax, DWORD PTR _j$[ebp]
  00268	8b 4d 80	 mov	 ecx, DWORD PTR _j$[ebp]
  0026b	d9 44 8d c0	 fld	 DWORD PTR _dblZout_0$[ebp+ecx*4]
  0026f	d9 5c 85 ac	 fstp	 DWORD PTR _dblZout_1$[ebp+eax*4]

; 643  : 	
; 644  : 			//	scale each by transition coeff and + (Even) or - (Odd) 
; 645  : 
; 646  : 			// Scaling also accomodates for the filter "gain" of approx 120. 
; 647  : 			// These transition coefficients fairly close to optimum for WGN 0db PSK4, 100 baud (yield highest average quality) 5/24/2014
; 648  :  
; 649  : 			if (j == 0 || j == 2)

  00273	83 7d 80 00	 cmp	 DWORD PTR _j$[ebp], 0
  00277	74 06		 je	 SHORT $LN2@Filter75Hz
  00279	83 7d 80 02	 cmp	 DWORD PTR _j$[ebp], 2
  0027d	75 1b		 jne	 SHORT $LN3@Filter75Hz
$LN2@Filter75Hz:

; 650  : 				FilterOut -= 0.39811f * dblZout_0[j];	 // this transisiton minimizes ringing and peaks

  0027f	8b 45 80	 mov	 eax, DWORD PTR _j$[ebp]
  00282	d9 44 85 c0	 fld	 DWORD PTR _dblZout_0$[ebp+eax*4]
  00286	dc 0d 00 00 00
	00		 fmul	 QWORD PTR __real@3fd97aa260000000
  0028c	d8 ad 74 ff ff
	ff		 fsubr	 DWORD PTR _FilterOut$[ebp]
  00292	d9 9d 74 ff ff
	ff		 fstp	 DWORD PTR _FilterOut$[ebp]

; 651  : 			else

  00298	eb 13		 jmp	 SHORT $LN1@Filter75Hz
$LN3@Filter75Hz:

; 652  : 				FilterOut += dblZout_0[j];

  0029a	d9 85 74 ff ff
	ff		 fld	 DWORD PTR _FilterOut$[ebp]
  002a0	8b 45 80	 mov	 eax, DWORD PTR _j$[ebp]
  002a3	d8 44 85 c0	 fadd	 DWORD PTR _dblZout_0$[ebp+eax*4]
  002a7	d9 9d 74 ff ff
	ff		 fstp	 DWORD PTR _FilterOut$[ebp]
$LN1@Filter75Hz:

; 653  : 		}

  002ad	e9 68 ff ff ff	 jmp	 $LN5@Filter75Hz
$LN4@Filter75Hz:

; 654  : 		intFilterOut[i] = (int)ceil(FilterOut * 0.0041f);	 // rescales for gain of filter

  002b2	d9 85 74 ff ff
	ff		 fld	 DWORD PTR _FilterOut$[ebp]
  002b8	dc 0d 00 00 00
	00		 fmul	 QWORD PTR __real@3f70cb2960000000
  002be	83 ec 08	 sub	 esp, 8
  002c1	dd 1c 24	 fstp	 QWORD PTR [esp]
  002c4	e8 00 00 00 00	 call	 _ceil
  002c9	83 c4 08	 add	 esp, 8
  002cc	e8 00 00 00 00	 call	 __ftol2_sse
  002d1	8b 4d 8c	 mov	 ecx, DWORD PTR _i$[ebp]
  002d4	8b 55 08	 mov	 edx, DWORD PTR _intFilterOut$[ebp]
  002d7	66 89 04 4a	 mov	 WORD PTR [edx+ecx*2], ax

; 655  : 	}

  002db	e9 7d fe ff ff	 jmp	 $LN10@Filter75Hz
$LN9@Filter75Hz:

; 656  : }

  002e0	52		 push	 edx
  002e1	8b cd		 mov	 ecx, ebp
  002e3	50		 push	 eax
  002e4	8d 15 00 00 00
	00		 lea	 edx, DWORD PTR $LN22@Filter75Hz
  002ea	e8 00 00 00 00	 call	 @_RTC_CheckStackVars@8
  002ef	58		 pop	 eax
  002f0	5a		 pop	 edx
  002f1	5f		 pop	 edi
  002f2	5e		 pop	 esi
  002f3	5b		 pop	 ebx
  002f4	81 c4 6c 01 00
	00		 add	 esp, 364		; 0000016cH
  002fa	3b ec		 cmp	 ebp, esp
  002fc	e8 00 00 00 00	 call	 __RTC_CheckEsp
  00301	8b e5		 mov	 esp, ebp
  00303	5d		 pop	 ebp
  00304	c3		 ret	 0
  00305	8d 49 00	 npad	 3
$LN22@Filter75Hz:
  00308	03 00 00 00	 DD	 3
  0030c	00 00 00 00	 DD	 $LN21@Filter75Hz
$LN21@Filter75Hz:
  00310	c0 ff ff ff	 DD	 -64			; ffffffc0H
  00314	0c 00 00 00	 DD	 12			; 0000000cH
  00318	00 00 00 00	 DD	 $LN18@Filter75Hz
  0031c	ac ff ff ff	 DD	 -84			; ffffffacH
  00320	0c 00 00 00	 DD	 12			; 0000000cH
  00324	00 00 00 00	 DD	 $LN19@Filter75Hz
  00328	98 ff ff ff	 DD	 -104			; ffffff98H
  0032c	0c 00 00 00	 DD	 12			; 0000000cH
  00330	00 00 00 00	 DD	 $LN20@Filter75Hz
$LN20@Filter75Hz:
  00334	64		 DB	 100			; 00000064H
  00335	62		 DB	 98			; 00000062H
  00336	6c		 DB	 108			; 0000006cH
  00337	5a		 DB	 90			; 0000005aH
  00338	6f		 DB	 111			; 0000006fH
  00339	75		 DB	 117			; 00000075H
  0033a	74		 DB	 116			; 00000074H
  0033b	5f		 DB	 95			; 0000005fH
  0033c	32		 DB	 50			; 00000032H
  0033d	00		 DB	 0
$LN19@Filter75Hz:
  0033e	64		 DB	 100			; 00000064H
  0033f	62		 DB	 98			; 00000062H
  00340	6c		 DB	 108			; 0000006cH
  00341	5a		 DB	 90			; 0000005aH
  00342	6f		 DB	 111			; 0000006fH
  00343	75		 DB	 117			; 00000075H
  00344	74		 DB	 116			; 00000074H
  00345	5f		 DB	 95			; 0000005fH
  00346	31		 DB	 49			; 00000031H
  00347	00		 DB	 0
$LN18@Filter75Hz:
  00348	64		 DB	 100			; 00000064H
  00349	62		 DB	 98			; 00000062H
  0034a	6c		 DB	 108			; 0000006cH
  0034b	5a		 DB	 90			; 0000005aH
  0034c	6f		 DB	 111			; 0000006fH
  0034d	75		 DB	 117			; 00000075H
  0034e	74		 DB	 116			; 00000074H
  0034f	5f		 DB	 95			; 0000005fH
  00350	30		 DB	 48			; 00000030H
  00351	00		 DB	 0
_Filter75Hz ENDP
_TEXT	ENDS
PUBLIC	__real@40c7700000000000
PUBLIC	__real@40a7700000000000
PUBLIC	__$ArrayPad$
PUBLIC	_MixNCOFilter
EXTRN	___security_cookie:DWORD
EXTRN	@__security_check_cookie@4:PROC
;	COMDAT __real@40c7700000000000
CONST	SEGMENT
__real@40c7700000000000 DQ 040c7700000000000r	; 12000
CONST	ENDS
;	COMDAT __real@40a7700000000000
CONST	SEGMENT
__real@40a7700000000000 DQ 040a7700000000000r	; 3000
; Function compile flags: /Odtp /RTCsu /ZI
CONST	ENDS
;	COMDAT _MixNCOFilter
_TEXT	SEGMENT
tv163 = -2648						; size = 4
tv154 = -2644						; size = 4
tv177 = -2640						; size = 8
tv149 = -2632						; size = 4
_intMixedSamplesLength$ = -2432				; size = 4
_intMixedSamples$ = -2420				; size = 2400
_i$ = -12						; size = 4
__$ArrayPad$ = -4					; size = 4
_intNewSamples$ = 8					; size = 4
_Length$ = 12						; size = 4
_dblOffsetHz$ = 16					; size = 4
_MixNCOFilter PROC					; COMDAT

; 661  : {

  00000	55		 push	 ebp
  00001	8b ec		 mov	 ebp, esp
  00003	81 ec 58 0a 00
	00		 sub	 esp, 2648		; 00000a58H
  00009	53		 push	 ebx
  0000a	56		 push	 esi
  0000b	57		 push	 edi
  0000c	8d bd a8 f5 ff
	ff		 lea	 edi, DWORD PTR [ebp-2648]
  00012	b9 96 02 00 00	 mov	 ecx, 662		; 00000296H
  00017	b8 cc cc cc cc	 mov	 eax, -858993460		; ccccccccH
  0001c	f3 ab		 rep stosd
  0001e	a1 00 00 00 00	 mov	 eax, DWORD PTR ___security_cookie
  00023	33 c5		 xor	 eax, ebp
  00025	89 45 fc	 mov	 DWORD PTR __$ArrayPad$[ebp], eax

; 662  : 	// Correct the dimension of intPriorMixedSamples if needed (should only happen after a bandwidth setting change). 
; 663  : 
; 664  : 	int i;
; 665  : 	short intMixedSamples[1200];	// All we need at once ( I hope!)		// may need to be int
; 666  : 	int	intMixedSamplesLength ;		//size of intMixedSamples
; 667  : 
; 668  : 	if (Length == 0)

  00028	83 7d 0c 00	 cmp	 DWORD PTR _Length$[ebp], 0
  0002c	75 05		 jne	 SHORT $LN5@MixNCOFilt

; 669  : 		return;

  0002e	e9 0e 01 00 00	 jmp	 $LN6@MixNCOFilt
$LN5@MixNCOFilt:

; 670  : 
; 671  : 	// Nominal NCO freq is 3000 Hz  to downmix intNewSamples  (NCO - Fnew) to center of 1500 Hz (invertes the sideband too) 
; 672  : 
; 673  : 	dblNCOFreq = 3000 + dblOffsetHz;

  00033	d9 45 10	 fld	 DWORD PTR _dblOffsetHz$[ebp]
  00036	dc 05 00 00 00
	00		 fadd	 QWORD PTR __real@40a7700000000000
  0003c	d9 1d 00 00 00
	00		 fstp	 DWORD PTR _dblNCOFreq

; 674  : 	dblNCOPhaseInc = dblNCOFreq * dbl2Pi / 12000;

  00042	d9 05 00 00 00
	00		 fld	 DWORD PTR _dblNCOFreq
  00048	d8 0d 00 00 00
	00		 fmul	 DWORD PTR _dbl2Pi
  0004e	dc 35 00 00 00
	00		 fdiv	 QWORD PTR __real@40c7700000000000
  00054	d9 1d 00 00 00
	00		 fstp	 DWORD PTR _dblNCOPhaseInc

; 675  : 
; 676  : 	intMixedSamplesLength = Length;

  0005a	8b 45 0c	 mov	 eax, DWORD PTR _Length$[ebp]
  0005d	89 85 80 f6 ff
	ff		 mov	 DWORD PTR _intMixedSamplesLength$[ebp], eax

; 677  : 
; 678  : 	for (i = 0; i < Length; i++)

  00063	c7 45 f4 00 00
	00 00		 mov	 DWORD PTR _i$[ebp], 0
  0006a	eb 09		 jmp	 SHORT $LN4@MixNCOFilt
$LN3@MixNCOFilt:
  0006c	8b 45 f4	 mov	 eax, DWORD PTR _i$[ebp]
  0006f	83 c0 01	 add	 eax, 1
  00072	89 45 f4	 mov	 DWORD PTR _i$[ebp], eax
$LN4@MixNCOFilt:
  00075	8b 45 f4	 mov	 eax, DWORD PTR _i$[ebp]
  00078	3b 45 0c	 cmp	 eax, DWORD PTR _Length$[ebp]
  0007b	0f 8d aa 00 00
	00		 jge	 $LN2@MixNCOFilt

; 679  : 	{
; 680  : 		intMixedSamples[i] = (int)ceilf(intNewSamples[i] * cosf(dblNCOPhase));  // later may want a lower "cost" implementation of "Cos"

  00081	8b 45 f4	 mov	 eax, DWORD PTR _i$[ebp]
  00084	8b 4d 08	 mov	 ecx, DWORD PTR _intNewSamples$[ebp]
  00087	0f bf 14 41	 movsx	 edx, WORD PTR [ecx+eax*2]
  0008b	89 95 b8 f5 ff
	ff		 mov	 DWORD PTR tv149[ebp], edx
  00091	db 85 b8 f5 ff
	ff		 fild	 DWORD PTR tv149[ebp]
  00097	d9 05 00 00 00
	00		 fld	 DWORD PTR _dblNCOPhase
  0009d	83 ec 08	 sub	 esp, 8
  000a0	dd 1c 24	 fstp	 QWORD PTR [esp]
  000a3	dd 9d b0 f5 ff
	ff		 fstp	 QWORD PTR tv177[ebp]
  000a9	e8 00 00 00 00	 call	 _cos
  000ae	83 c4 08	 add	 esp, 8
  000b1	d9 9d ac f5 ff
	ff		 fstp	 DWORD PTR tv154[ebp]
  000b7	d9 85 ac f5 ff
	ff		 fld	 DWORD PTR tv154[ebp]
  000bd	dc 8d b0 f5 ff
	ff		 fmul	 QWORD PTR tv177[ebp]
  000c3	83 ec 08	 sub	 esp, 8
  000c6	dd 1c 24	 fstp	 QWORD PTR [esp]
  000c9	e8 00 00 00 00	 call	 _ceil
  000ce	83 c4 08	 add	 esp, 8
  000d1	d9 9d a8 f5 ff
	ff		 fstp	 DWORD PTR tv163[ebp]
  000d7	d9 85 a8 f5 ff
	ff		 fld	 DWORD PTR tv163[ebp]
  000dd	e8 00 00 00 00	 call	 __ftol2_sse
  000e2	8b 4d f4	 mov	 ecx, DWORD PTR _i$[ebp]
  000e5	66 89 84 4d 8c
	f6 ff ff	 mov	 WORD PTR _intMixedSamples$[ebp+ecx*2], ax

; 681  : 		dblNCOPhase += dblNCOPhaseInc;

  000ed	d9 05 00 00 00
	00		 fld	 DWORD PTR _dblNCOPhase
  000f3	d8 05 00 00 00
	00		 fadd	 DWORD PTR _dblNCOPhaseInc
  000f9	d9 1d 00 00 00
	00		 fstp	 DWORD PTR _dblNCOPhase

; 682  : 		if (dblNCOPhase > dbl2Pi)

  000ff	d9 05 00 00 00
	00		 fld	 DWORD PTR _dblNCOPhase
  00105	d9 05 00 00 00
	00		 fld	 DWORD PTR _dbl2Pi
  0010b	de d9		 fcompp
  0010d	df e0		 fnstsw	 ax
  0010f	f6 c4 05	 test	 ah, 5
  00112	7a 12		 jp	 SHORT $LN1@MixNCOFilt

; 683  : 			dblNCOPhase -= dbl2Pi;

  00114	d9 05 00 00 00
	00		 fld	 DWORD PTR _dblNCOPhase
  0011a	d8 25 00 00 00
	00		 fsub	 DWORD PTR _dbl2Pi
  00120	d9 1d 00 00 00
	00		 fstp	 DWORD PTR _dblNCOPhase
$LN1@MixNCOFilt:

; 684  : 	}

  00126	e9 41 ff ff ff	 jmp	 $LN3@MixNCOFilt
$LN2@MixNCOFilt:

; 685  : 
; 686  : 	
; 687  : 	
; 688  : 	// showed no significant difference if the 2000 Hz filer used for all bandwidths.
; 689  : //	printtick("Start Filter");
; 690  : 	FSMixFilter2000Hz(intMixedSamples, intMixedSamplesLength);   // filter through the FS filter (required to reject image from Local oscillator)

  0012b	8b 85 80 f6 ff
	ff		 mov	 eax, DWORD PTR _intMixedSamplesLength$[ebp]
  00131	50		 push	 eax
  00132	8d 8d 8c f6 ff
	ff		 lea	 ecx, DWORD PTR _intMixedSamples$[ebp]
  00138	51		 push	 ecx
  00139	e8 00 00 00 00	 call	 _FSMixFilter2000Hz
  0013e	83 c4 08	 add	 esp, 8
$LN6@MixNCOFilt:

; 691  : //	printtick("Done Filter");
; 692  : 
; 693  : 	// save for analysys
; 694  : 
; 695  : //	WriteSamples(&intFilteredMixedSamples[oldlen], Length);
; 696  : //	WriteSamples(intMixedSamples, Length);
; 697  : 
; 698  : }

  00141	52		 push	 edx
  00142	8b cd		 mov	 ecx, ebp
  00144	50		 push	 eax
  00145	8d 15 00 00 00
	00		 lea	 edx, DWORD PTR $LN10@MixNCOFilt
  0014b	e8 00 00 00 00	 call	 @_RTC_CheckStackVars@8
  00150	58		 pop	 eax
  00151	5a		 pop	 edx
  00152	5f		 pop	 edi
  00153	5e		 pop	 esi
  00154	5b		 pop	 ebx
  00155	8b 4d fc	 mov	 ecx, DWORD PTR __$ArrayPad$[ebp]
  00158	33 cd		 xor	 ecx, ebp
  0015a	e8 00 00 00 00	 call	 @__security_check_cookie@4
  0015f	81 c4 58 0a 00
	00		 add	 esp, 2648		; 00000a58H
  00165	3b ec		 cmp	 ebp, esp
  00167	e8 00 00 00 00	 call	 __RTC_CheckEsp
  0016c	8b e5		 mov	 esp, ebp
  0016e	5d		 pop	 ebp
  0016f	c3		 ret	 0
$LN10@MixNCOFilt:
  00170	01 00 00 00	 DD	 1
  00174	00 00 00 00	 DD	 $LN9@MixNCOFilt
$LN9@MixNCOFilt:
  00178	8c f6 ff ff	 DD	 -2420			; fffff68cH
  0017c	60 09 00 00	 DD	 2400			; 00000960H
  00180	00 00 00 00	 DD	 $LN8@MixNCOFilt
$LN8@MixNCOFilt:
  00184	69		 DB	 105			; 00000069H
  00185	6e		 DB	 110			; 0000006eH
  00186	74		 DB	 116			; 00000074H
  00187	4d		 DB	 77			; 0000004dH
  00188	69		 DB	 105			; 00000069H
  00189	78		 DB	 120			; 00000078H
  0018a	65		 DB	 101			; 00000065H
  0018b	64		 DB	 100			; 00000064H
  0018c	53		 DB	 83			; 00000053H
  0018d	61		 DB	 97			; 00000061H
  0018e	6d		 DB	 109			; 0000006dH
  0018f	70		 DB	 112			; 00000070H
  00190	6c		 DB	 108			; 0000006cH
  00191	65		 DB	 101			; 00000065H
  00192	73		 DB	 115			; 00000073H
  00193	00		 DB	 0
_MixNCOFilter ENDP
_TEXT	ENDS
PUBLIC	??_C@_0DD@GKIILJHI@?$FLDemodDecode4FSKData?$FN?5RS?5says?5ok@ ; `string'
PUBLIC	??_C@_0DA@GNDHNMDG@?$FLDemodDecode4FSKData?$FN?5OK?5with?5RS@ ; `string'
PUBLIC	??_C@_0CM@BJAFNGBK@?$FLDemodDecode4FSKData?$FN?5RS?5Says?5Ca@ ; `string'
PUBLIC	??_C@_0CE@GIJINHBJ@?$FLDemodDecode4FSKData?$FN?5OK?5without@ ; `string'
PUBLIC	??_C@_0DB@CAEKLCDD@?$FLDemodDecode4FSKData?$FN?5Carrier?5?$CFd@ ; `string'
PUBLIC	_CorrectRawDataWithRS
EXTRN	_NErrors:DWORD
EXTRN	_RSDecode:PROC
EXTRN	_CheckCRC16FrameType:PROC
EXTRN	_WriteDebugLog:PROC
EXTRN	_memcpy:PROC
;	COMDAT ??_C@_0DD@GKIILJHI@?$FLDemodDecode4FSKData?$FN?5RS?5says?5ok@
CONST	SEGMENT
??_C@_0DD@GKIILJHI@?$FLDemodDecode4FSKData?$FN?5RS?5says?5ok@ DB '[DemodD'
	DB	'ecode4FSKData] RS says ok but CRC still bad', 00H ; `string'
CONST	ENDS
;	COMDAT ??_C@_0DA@GNDHNMDG@?$FLDemodDecode4FSKData?$FN?5OK?5with?5RS@
CONST	SEGMENT
??_C@_0DA@GNDHNMDG@?$FLDemodDecode4FSKData?$FN?5OK?5with?5RS@ DB '[DemodD'
	DB	'ecode4FSKData] OK with RS %d corrections', 00H ; `string'
CONST	ENDS
;	COMDAT ??_C@_0CM@BJAFNGBK@?$FLDemodDecode4FSKData?$FN?5RS?5Says?5Ca@
CONST	SEGMENT
??_C@_0CM@BJAFNGBK@?$FLDemodDecode4FSKData?$FN?5RS?5Says?5Ca@ DB '[DemodD'
	DB	'ecode4FSKData] RS Says Can''t Correct', 00H	; `string'
CONST	ENDS
;	COMDAT ??_C@_0CE@GIJINHBJ@?$FLDemodDecode4FSKData?$FN?5OK?5without@
CONST	SEGMENT
??_C@_0CE@GIJINHBJ@?$FLDemodDecode4FSKData?$FN?5OK?5without@ DB '[DemodDe'
	DB	'code4FSKData] OK without RS', 00H		; `string'
CONST	ENDS
;	COMDAT ??_C@_0DB@CAEKLCDD@?$FLDemodDecode4FSKData?$FN?5Carrier?5?$CFd@
CONST	SEGMENT
??_C@_0DB@CAEKLCDD@?$FLDemodDecode4FSKData?$FN?5Carrier?5?$CFd@ DB '[Demo'
	DB	'dDecode4FSKData] Carrier %d already decoded', 00H ; `string'
; Function compile flags: /Odtp /RTCsu /ZI
CONST	ENDS
;	COMDAT _CorrectRawDataWithRS
_TEXT	SEGMENT
_intFailedByteCnt$5792 = -32				; size = 4
_FrameOK$ = -20						; size = 4
_blnRSOK$ = -8						; size = 4
_bytRawData$ = 8					; size = 4
_bytCorrectedData$ = 12					; size = 4
_intDataLen$ = 16					; size = 4
_intRSLen$ = 20						; size = 4
_bytFrameType$ = 24					; size = 4
_Carrier$ = 28						; size = 4
_CorrectRawDataWithRS PROC				; COMDAT

; 703  : {

  00000	55		 push	 ebp
  00001	8b ec		 mov	 ebp, esp
  00003	81 ec e4 00 00
	00		 sub	 esp, 228		; 000000e4H
  00009	53		 push	 ebx
  0000a	56		 push	 esi
  0000b	57		 push	 edi
  0000c	8d bd 1c ff ff
	ff		 lea	 edi, DWORD PTR [ebp-228]
  00012	b9 39 00 00 00	 mov	 ecx, 57			; 00000039H
  00017	b8 cc cc cc cc	 mov	 eax, -858993460		; ccccccccH
  0001c	f3 ab		 rep stosd

; 704  : 	BOOL blnRSOK;
; 705  : 	BOOL FrameOK;
; 706  : 
; 707  : 	//Dim bytNoRS(1 + intDataLen + 2 - 1) As Byte  ' 1 byte byte Count, Data, 2 byte CRC 
; 708  : 	//Array.Copy(bytRawData, 0, bytNoRS, 0, bytNoRS.Length)
; 709  : 
; 710  : 	if (CarrierOk[Carrier])	// Already decoded this carrier?

  0001e	8b 45 1c	 mov	 eax, DWORD PTR _Carrier$[ebp]
  00021	0f be 88 00 00
	00 00		 movsx	 ecx, BYTE PTR _CarrierOk[eax]
  00028	85 c9		 test	 ecx, ecx
  0002a	74 36		 je	 SHORT $LN8@CorrectRaw

; 711  : 	{
; 712  : 		// Athough we have already checked the data, it may be in the wrong place
; 713  : 		// in the buffer if another carrier was decoded wrong.
; 714  : 
; 715  : 		memcpy(bytCorrectedData, &bytRawData[1], bytRawData[0]);    

  0002c	8b 45 08	 mov	 eax, DWORD PTR _bytRawData$[ebp]
  0002f	0f b6 08	 movzx	 ecx, BYTE PTR [eax]
  00032	51		 push	 ecx
  00033	8b 55 08	 mov	 edx, DWORD PTR _bytRawData$[ebp]
  00036	83 c2 01	 add	 edx, 1
  00039	52		 push	 edx
  0003a	8b 45 0c	 mov	 eax, DWORD PTR _bytCorrectedData$[ebp]
  0003d	50		 push	 eax
  0003e	e8 00 00 00 00	 call	 _memcpy
  00043	83 c4 0c	 add	 esp, 12			; 0000000cH

; 716  : 
; 717  : 		WriteDebugLog("[DemodDecode4FSKData] Carrier %d already decoded", Carrier);

  00046	8b 45 1c	 mov	 eax, DWORD PTR _Carrier$[ebp]
  00049	50		 push	 eax
  0004a	68 00 00 00 00	 push	 OFFSET ??_C@_0DB@CAEKLCDD@?$FLDemodDecode4FSKData?$FN?5Carrier?5?$CFd@
  0004f	e8 00 00 00 00	 call	 _WriteDebugLog
  00054	83 c4 08	 add	 esp, 8

; 718  : 		return bytRawData[0];			// don't do it again

  00057	8b 45 08	 mov	 eax, DWORD PTR _bytRawData$[ebp]
  0005a	0f b6 00	 movzx	 eax, BYTE PTR [eax]
  0005d	e9 45 01 00 00	 jmp	 $LN9@CorrectRaw
$LN8@CorrectRaw:

; 719  : 	}
; 720  : 
; 721  : 	if (CheckCRC16FrameType(bytRawData, intDataLen + 1, bytFrameType)) // No RS correction needed

  00062	8a 45 18	 mov	 al, BYTE PTR _bytFrameType$[ebp]
  00065	50		 push	 eax
  00066	8b 4d 10	 mov	 ecx, DWORD PTR _intDataLen$[ebp]
  00069	83 c1 01	 add	 ecx, 1
  0006c	51		 push	 ecx
  0006d	8b 55 08	 mov	 edx, DWORD PTR _bytRawData$[ebp]
  00070	52		 push	 edx
  00071	e8 00 00 00 00	 call	 _CheckCRC16FrameType
  00076	83 c4 0c	 add	 esp, 12			; 0000000cH
  00079	85 c0		 test	 eax, eax
  0007b	74 3c		 je	 SHORT $LN7@CorrectRaw

; 722  : 	{
; 723  : 		// return the actual data
; 724  : 		
; 725  : 		memcpy(bytCorrectedData, &bytRawData[1], bytRawData[0]);    

  0007d	8b 45 08	 mov	 eax, DWORD PTR _bytRawData$[ebp]
  00080	0f b6 08	 movzx	 ecx, BYTE PTR [eax]
  00083	51		 push	 ecx
  00084	8b 55 08	 mov	 edx, DWORD PTR _bytRawData$[ebp]
  00087	83 c2 01	 add	 edx, 1
  0008a	52		 push	 edx
  0008b	8b 45 0c	 mov	 eax, DWORD PTR _bytCorrectedData$[ebp]
  0008e	50		 push	 eax
  0008f	e8 00 00 00 00	 call	 _memcpy
  00094	83 c4 0c	 add	 esp, 12			; 0000000cH

; 726  : 		WriteDebugLog("[DemodDecode4FSKData] OK without RS");

  00097	68 00 00 00 00	 push	 OFFSET ??_C@_0CE@GIJINHBJ@?$FLDemodDecode4FSKData?$FN?5OK?5without@
  0009c	e8 00 00 00 00	 call	 _WriteDebugLog
  000a1	83 c4 04	 add	 esp, 4

; 727  : 		CarrierOk[Carrier] = TRUE;

  000a4	8b 45 1c	 mov	 eax, DWORD PTR _Carrier$[ebp]
  000a7	c6 80 00 00 00
	00 01		 mov	 BYTE PTR _CarrierOk[eax], 1

; 728  : 		return bytRawData[0];

  000ae	8b 45 08	 mov	 eax, DWORD PTR _bytRawData$[ebp]
  000b1	0f b6 00	 movzx	 eax, BYTE PTR [eax]
  000b4	e9 ee 00 00 00	 jmp	 $LN9@CorrectRaw
$LN7@CorrectRaw:

; 729  : 	}
; 730  : 	
; 731  : 	// Try correcting with RS Parity
; 732  : 
; 733  : 	FrameOK = RSDecode(bytRawData, intDataLen + 3 + intRSLen, intRSLen, &blnRSOK);

  000b9	8d 45 f8	 lea	 eax, DWORD PTR _blnRSOK$[ebp]
  000bc	50		 push	 eax
  000bd	8b 4d 14	 mov	 ecx, DWORD PTR _intRSLen$[ebp]
  000c0	51		 push	 ecx
  000c1	8b 55 14	 mov	 edx, DWORD PTR _intRSLen$[ebp]
  000c4	8b 45 10	 mov	 eax, DWORD PTR _intDataLen$[ebp]
  000c7	8d 4c 10 03	 lea	 ecx, DWORD PTR [eax+edx+3]
  000cb	51		 push	 ecx
  000cc	8b 55 08	 mov	 edx, DWORD PTR _bytRawData$[ebp]
  000cf	52		 push	 edx
  000d0	e8 00 00 00 00	 call	 _RSDecode
  000d5	83 c4 10	 add	 esp, 16			; 00000010H
  000d8	89 45 ec	 mov	 DWORD PTR _FrameOK$[ebp], eax

; 734  : 
; 735  : 	if (blnRSOK)

  000db	83 7d f8 00	 cmp	 DWORD PTR _blnRSOK$[ebp], 0
  000df	74 02		 je	 SHORT $LN6@CorrectRaw

; 736  : 	{}
; 737  : //		WriteDebugLog("RS Says OK without correction");
; 738  : 	else

  000e1	eb 1a		 jmp	 SHORT $LN5@CorrectRaw
$LN6@CorrectRaw:

; 739  : 	if (FrameOK)

  000e3	83 7d ec 00	 cmp	 DWORD PTR _FrameOK$[ebp], 0
  000e7	74 02		 je	 SHORT $LN4@CorrectRaw

; 740  : 	{}
; 741  : //		WriteDebugLog("RS Says OK after %d correction(s)", NErrors);
; 742  : 	else

  000e9	eb 12		 jmp	 SHORT $LN5@CorrectRaw
$LN4@CorrectRaw:

; 743  : 	{
; 744  : 		WriteDebugLog("[DemodDecode4FSKData] RS Says Can't Correct");

  000eb	68 00 00 00 00	 push	 OFFSET ??_C@_0CM@BJAFNGBK@?$FLDemodDecode4FSKData?$FN?5RS?5Says?5Ca@
  000f0	e8 00 00 00 00	 call	 _WriteDebugLog
  000f5	83 c4 04	 add	 esp, 4

; 745  : 		goto returnBad;

  000f8	e9 86 00 00 00	 jmp	 $returnBad$5790
$LN5@CorrectRaw:

; 746  : 	}
; 747  : 
; 748  :     if (FrameOK &&  CheckCRC16FrameType(bytRawData, intDataLen + 1, bytFrameType)) // RS correction successful 

  000fd	83 7d ec 00	 cmp	 DWORD PTR _FrameOK$[ebp], 0
  00101	74 73		 je	 SHORT $LN2@CorrectRaw
  00103	8a 45 18	 mov	 al, BYTE PTR _bytFrameType$[ebp]
  00106	50		 push	 eax
  00107	8b 4d 10	 mov	 ecx, DWORD PTR _intDataLen$[ebp]
  0010a	83 c1 01	 add	 ecx, 1
  0010d	51		 push	 ecx
  0010e	8b 55 08	 mov	 edx, DWORD PTR _bytRawData$[ebp]
  00111	52		 push	 edx
  00112	e8 00 00 00 00	 call	 _CheckCRC16FrameType
  00117	83 c4 0c	 add	 esp, 12			; 0000000cH
  0011a	85 c0		 test	 eax, eax
  0011c	74 58		 je	 SHORT $LN2@CorrectRaw

; 749  : 	{
; 750  : 		int intFailedByteCnt = 0;

  0011e	c7 45 e0 00 00
	00 00		 mov	 DWORD PTR _intFailedByteCnt$5792[ebp], 0

; 751  : 		
; 752  : 		// need to fix this if we want to use it
; 753  : 		//  test code just to determine how many corrections were applied  ...later remove
; 754  :         //for (j = 0 ; j < intDataLen + 3; j++)
; 755  : 		//{
; 756  : 		//	if (bytRawData[j] <> bytCorrectedData[j])
; 757  : 		//		intFailedByteCnt++;
; 758  : 		//}
; 759  : 
; 760  :         WriteDebugLog("[DemodDecode4FSKData] OK with RS %d corrections", NErrors);

  00125	a1 00 00 00 00	 mov	 eax, DWORD PTR _NErrors
  0012a	50		 push	 eax
  0012b	68 00 00 00 00	 push	 OFFSET ??_C@_0DA@GNDHNMDG@?$FLDemodDecode4FSKData?$FN?5OK?5with?5RS@
  00130	e8 00 00 00 00	 call	 _WriteDebugLog
  00135	83 c4 08	 add	 esp, 8

; 761  : 		totalRSErrors += NErrors;

  00138	a1 00 00 00 00	 mov	 eax, DWORD PTR _totalRSErrors
  0013d	03 05 00 00 00
	00		 add	 eax, DWORD PTR _NErrors
  00143	a3 00 00 00 00	 mov	 DWORD PTR _totalRSErrors, eax

; 762  :  
; 763  : 		// End of test code
; 764  : 
; 765  : 		memcpy(bytCorrectedData, &bytRawData[1], bytRawData[0]);  

  00148	8b 45 08	 mov	 eax, DWORD PTR _bytRawData$[ebp]
  0014b	0f b6 08	 movzx	 ecx, BYTE PTR [eax]
  0014e	51		 push	 ecx
  0014f	8b 55 08	 mov	 edx, DWORD PTR _bytRawData$[ebp]
  00152	83 c2 01	 add	 edx, 1
  00155	52		 push	 edx
  00156	8b 45 0c	 mov	 eax, DWORD PTR _bytCorrectedData$[ebp]
  00159	50		 push	 eax
  0015a	e8 00 00 00 00	 call	 _memcpy
  0015f	83 c4 0c	 add	 esp, 12			; 0000000cH

; 766  : 		CarrierOk[Carrier] = TRUE;

  00162	8b 45 1c	 mov	 eax, DWORD PTR _Carrier$[ebp]
  00165	c6 80 00 00 00
	00 01		 mov	 BYTE PTR _CarrierOk[eax], 1

; 767  : 		return bytRawData[0];

  0016c	8b 45 08	 mov	 eax, DWORD PTR _bytRawData$[ebp]
  0016f	0f b6 00	 movzx	 eax, BYTE PTR [eax]
  00172	eb 33		 jmp	 SHORT $LN9@CorrectRaw

; 768  : 	}
; 769  : 	else

  00174	eb 0d		 jmp	 SHORT $returnBad$5790
$LN2@CorrectRaw:

; 770  :         WriteDebugLog("[DemodDecode4FSKData] RS says ok but CRC still bad");

  00176	68 00 00 00 00	 push	 OFFSET ??_C@_0DD@GKIILJHI@?$FLDemodDecode4FSKData?$FN?5RS?5says?5ok@
  0017b	e8 00 00 00 00	 call	 _WriteDebugLog
  00180	83 c4 04	 add	 esp, 4
$returnBad$5790:

; 771  : 	
; 772  : 	// return uncorrected data without byte count or RS Parity
; 773  : 
; 774  : returnBad:
; 775  : 
; 776  : 	memcpy(bytCorrectedData, &bytRawData[1], intDataLen);    

  00183	8b 45 10	 mov	 eax, DWORD PTR _intDataLen$[ebp]
  00186	50		 push	 eax
  00187	8b 4d 08	 mov	 ecx, DWORD PTR _bytRawData$[ebp]
  0018a	83 c1 01	 add	 ecx, 1
  0018d	51		 push	 ecx
  0018e	8b 55 0c	 mov	 edx, DWORD PTR _bytCorrectedData$[ebp]
  00191	52		 push	 edx
  00192	e8 00 00 00 00	 call	 _memcpy
  00197	83 c4 0c	 add	 esp, 12			; 0000000cH

; 777  : 
; 778  : 	//Array.Copy(bytRawData, 1, bytCorrectedData, 0, bytCorrectedData.Length) 
; 779  :      
; 780  : 	CarrierOk[Carrier] = FALSE;

  0019a	8b 45 1c	 mov	 eax, DWORD PTR _Carrier$[ebp]
  0019d	c6 80 00 00 00
	00 00		 mov	 BYTE PTR _CarrierOk[eax], 0

; 781  : 	return intDataLen;

  001a4	8b 45 10	 mov	 eax, DWORD PTR _intDataLen$[ebp]
$LN9@CorrectRaw:

; 782  : }

  001a7	52		 push	 edx
  001a8	8b cd		 mov	 ecx, ebp
  001aa	50		 push	 eax
  001ab	8d 15 00 00 00
	00		 lea	 edx, DWORD PTR $LN13@CorrectRaw
  001b1	e8 00 00 00 00	 call	 @_RTC_CheckStackVars@8
  001b6	58		 pop	 eax
  001b7	5a		 pop	 edx
  001b8	5f		 pop	 edi
  001b9	5e		 pop	 esi
  001ba	5b		 pop	 ebx
  001bb	81 c4 e4 00 00
	00		 add	 esp, 228		; 000000e4H
  001c1	3b ec		 cmp	 ebp, esp
  001c3	e8 00 00 00 00	 call	 __RTC_CheckEsp
  001c8	8b e5		 mov	 esp, ebp
  001ca	5d		 pop	 ebp
  001cb	c3		 ret	 0
$LN13@CorrectRaw:
  001cc	01 00 00 00	 DD	 1
  001d0	00 00 00 00	 DD	 $LN12@CorrectRaw
$LN12@CorrectRaw:
  001d4	f8 ff ff ff	 DD	 -8			; fffffff8H
  001d8	04 00 00 00	 DD	 4
  001dc	00 00 00 00	 DD	 $LN11@CorrectRaw
$LN11@CorrectRaw:
  001e0	62		 DB	 98			; 00000062H
  001e1	6c		 DB	 108			; 0000006cH
  001e2	6e		 DB	 110			; 0000006eH
  001e3	52		 DB	 82			; 00000052H
  001e4	53		 DB	 83			; 00000053H
  001e5	4f		 DB	 79			; 0000004fH
  001e6	4b		 DB	 75			; 0000004bH
  001e7	00		 DB	 0
_CorrectRawDataWithRS ENDP
_TEXT	ENDS
PUBLIC	??_C@_03JFMEENOE@ERR?$AA@			; `string'
PUBLIC	??_C@_0BL@EBKFJBEL@Received?5Data?0?5No?5State?5?$CFs?$AA@ ; `string'
PUBLIC	??_C@_03OJBHPKML@IDF?$AA@			; `string'
PUBLIC	??_C@_03JJIFJOJL@QAM?$AA@			; `string'
PUBLIC	??_C@_03GIMBCJGG@PSK?$AA@			; `string'
PUBLIC	_DecodeFrame
PUBLIC	??_C@_0GD@LEDMPOGN@?$FLARDOPprotocol?4ProcessNewSamples@ ; `string'
PUBLIC	??_C@_0HE@GMFGFFGG@?$FLARDOPprotocol?4ProcessNewSamples@ ; `string'
PUBLIC	??_C@_0CP@JLDOIPPD@STATUS?5QUEUE?5BREAK?5new?5Protocol?5@ ; `string'
PUBLIC	??_C@_0FL@HDOBMIFN@?$FLARDOPprotocol?4ProcessNewSamples@ ; `string'
PUBLIC	??_C@_09GBPIIGEG@Qual?5?$DN?5?$CFd?$AA@		; `string'
PUBLIC	_UpdatePhaseConstellation
PUBLIC	??_C@_05OIEEHJAK@16QAM?$AA@			; `string'
PUBLIC	_Update8FSKConstellation
PUBLIC	??_C@_04GLIEPKGD@8FSK?$AA@			; `string'
PUBLIC	_Update16FSKConstellation
PUBLIC	??_C@_05GMHCMGLE@16FSK?$AA@			; `string'
PUBLIC	_Update4FSKConstellation
PUBLIC	??_C@_04KOHEBHGC@4FSK?$AA@			; `string'
PUBLIC	_DemodulateFrame
PUBLIC	??_C@_0CF@NGDJKDHP@MEMARQ?5Flags?5?$CFd?5?$CFd?5?$CFd?5?$CFd?5?$CFd?5?$CFd?5?$CF@ ; `string'
PUBLIC	??_C@_0CE@PACHHMPP@New?5frame?5type?5?9?5MEMARQ?5flags?5re@ ; `string'
PUBLIC	??_C@_0BJ@JADBCDC@?$FLDecodeFrame?$FN?5Frame?3?5?$CFs?5?$AA@ ; `string'
PUBLIC	??_C@_00CNPNBAHC@?$AA@				; `string'
PUBLIC	??_C@_0FI@LAFGIKHG@?$FLARDOPprotocol?4ProcessNewSamples@ ; `string'
PUBLIC	??_C@_0IL@FILFNEGA@?$FLARDOPprotocol?4ProcessNewSamples@ ; `string'
PUBLIC	??_C@_0P@MHCKBMIJ@bad?5frame?5type?$AA@		; `string'
PUBLIC	??_C@_0BH@KEHAODIE@poor?5frame?5type?5decode?$AA@ ; `string'
PUBLIC	_Acquire4FSKFrameType
PUBLIC	??_C@_0BD@MKHACAGP@frame?5sync?5timeout?$AA@	; `string'
PUBLIC	_AcquireFrameSyncRSB
PUBLIC	_Acquire2ToneLeaderSymbolFraming
PUBLIC	_SearchFor2ToneLeader2
PUBLIC	_ProcessNewSamples
EXTRN	_InitializeConnection:PROC
EXTRN	_intFailedQAMFrameDataDecodes:DWORD
EXTRN	_intFailedPSKFrameDataDecodes:DWORD
EXTRN	_ProcessRcvdARQFrame:PROC
EXTRN	_blnTimeoutTriggered:DWORD
EXTRN	_ProcessUnconnectedConReqFrame:PROC
EXTRN	_AddTagToDataAndSendToHost:PROC
EXTRN	_ProcessRcvdFECDataFrame:PROC
EXTRN	_intGoodQAMFrameDataDecodes:DWORD
EXTRN	_intGoodPSKFrameDataDecodes:DWORD
EXTRN	_AccumulateStats:DWORD
EXTRN	_Mod4FSKDataAndPlay:PROC
EXTRN	_LeaderLength:DWORD
EXTRN	_EncLen:DWORD
EXTRN	_Encode4FSKControl:PROC
EXTRN	_bytSessionID:BYTE
EXTRN	_bytEncodedBytes:BYTE
EXTRN	_bytDataToSendLength:DWORD
EXTRN	_ARDOPStates:BYTE
EXTRN	_SendCommandToHost:PROC
EXTRN	_intFrameRepeatInterval:DWORD
EXTRN	_ComputeInterFrameInterval:PROC
EXTRN	_rand:PROC
EXTRN	_bytLastACKedDataFrameType:BYTE
EXTRN	_blnBREAKCmd:DWORD
EXTRN	_intLastRcvdFrameQuality:DWORD
EXTRN	_strcmp:PROC
EXTRN	_ProtocolMode:DWORD
EXTRN	_memset:PROC
EXTRN	_DecodeCompleteTime:DWORD
EXTRN	_SendData:PROC
EXTRN	_intLinkTurnovers:DWORD
EXTRN	_SetARDOPProtocolState:PROC
EXTRN	_GetNextFrameData:PROC
EXTRN	_intShiftUpDn:DWORD
EXTRN	_bytCurrentFrameType:BYTE
EXTRN	_intLastARQDataFrameToHost:DWORD
EXTRN	_blnEnbARQRpt:DWORD
EXTRN	_ARQSubStates:BYTE
EXTRN	_ARQState:DWORD
EXTRN	_FrameInfo:PROC
EXTRN	_DebugLog:DWORD
EXTRN	_printtick:PROC
EXTRN	_ProtocolState:DWORD
EXTRN	_UpdateBusyDetector:PROC
EXTRN	_State:DWORD
;	COMDAT ??_C@_03JFMEENOE@ERR?$AA@
CONST	SEGMENT
??_C@_03JFMEENOE@ERR?$AA@ DB 'ERR', 00H			; `string'
CONST	ENDS
;	COMDAT ??_C@_0BL@EBKFJBEL@Received?5Data?0?5No?5State?5?$CFs?$AA@
CONST	SEGMENT
??_C@_0BL@EBKFJBEL@Received?5Data?0?5No?5State?5?$CFs?$AA@ DB 'Received D'
	DB	'ata, No State %s', 00H			; `string'
CONST	ENDS
;	COMDAT ??_C@_03OJBHPKML@IDF?$AA@
CONST	SEGMENT
??_C@_03OJBHPKML@IDF?$AA@ DB 'IDF', 00H			; `string'
CONST	ENDS
;	COMDAT ??_C@_03JJIFJOJL@QAM?$AA@
CONST	SEGMENT
??_C@_03JJIFJOJL@QAM?$AA@ DB 'QAM', 00H			; `string'
CONST	ENDS
;	COMDAT ??_C@_03GIMBCJGG@PSK?$AA@
CONST	SEGMENT
??_C@_03GIMBCJGG@PSK?$AA@ DB 'PSK', 00H			; `string'
CONST	ENDS
;	COMDAT ??_C@_0GD@LEDMPOGN@?$FLARDOPprotocol?4ProcessNewSamples@
CONST	SEGMENT
??_C@_0GD@LEDMPOGN@?$FLARDOPprotocol?4ProcessNewSamples@ DB '[ARDOPprotoc'
	DB	'ol.ProcessNewSamples] Skip Data Decoding when ProtcolState=IR'
	DB	'StoISS, Answer with BREAK', 00H		; `string'
CONST	ENDS
;	COMDAT ??_C@_0HE@GMFGFFGG@?$FLARDOPprotocol?4ProcessNewSamples@
CONST	SEGMENT
??_C@_0HE@GMFGFFGG@?$FLARDOPprotocol?4ProcessNewSamples@ DB '[ARDOPprotoc'
	DB	'ol.ProcessNewSamples] %d bytes to send in ProtocolState: %s: '
	DB	'Send BREAK,  New state=IRStoISS (Rule 3.3)', 00H ; `string'
CONST	ENDS
;	COMDAT ??_C@_0CP@JLDOIPPD@STATUS?5QUEUE?5BREAK?5new?5Protocol?5@
CONST	SEGMENT
??_C@_0CP@JLDOIPPD@STATUS?5QUEUE?5BREAK?5new?5Protocol?5@ DB 'STATUS QUEU'
	DB	'E BREAK new Protocol State IRStoISS', 00H	; `string'
CONST	ENDS
;	COMDAT ??_C@_0FL@HDOBMIFN@?$FLARDOPprotocol?4ProcessNewSamples@
CONST	SEGMENT
??_C@_0FL@HDOBMIFN@?$FLARDOPprotocol?4ProcessNewSamples@ DB '[ARDOPprotoc'
	DB	'ol.ProcessNewSamples] Skip Data Decoding when blnBREAKCmd and'
	DB	' ProtcolState=IRS', 00H			; `string'
CONST	ENDS
;	COMDAT ??_C@_09GBPIIGEG@Qual?5?$DN?5?$CFd?$AA@
CONST	SEGMENT
??_C@_09GBPIIGEG@Qual?5?$DN?5?$CFd?$AA@ DB 'Qual = %d', 00H ; `string'
CONST	ENDS
;	COMDAT ??_C@_05OIEEHJAK@16QAM?$AA@
CONST	SEGMENT
??_C@_05OIEEHJAK@16QAM?$AA@ DB '16QAM', 00H		; `string'
CONST	ENDS
;	COMDAT ??_C@_04GLIEPKGD@8FSK?$AA@
CONST	SEGMENT
??_C@_04GLIEPKGD@8FSK?$AA@ DB '8FSK', 00H		; `string'
CONST	ENDS
;	COMDAT ??_C@_05GMHCMGLE@16FSK?$AA@
CONST	SEGMENT
??_C@_05GMHCMGLE@16FSK?$AA@ DB '16FSK', 00H		; `string'
CONST	ENDS
;	COMDAT ??_C@_04KOHEBHGC@4FSK?$AA@
CONST	SEGMENT
??_C@_04KOHEBHGC@4FSK?$AA@ DB '4FSK', 00H		; `string'
CONST	ENDS
;	COMDAT ??_C@_0CF@NGDJKDHP@MEMARQ?5Flags?5?$CFd?5?$CFd?5?$CFd?5?$CFd?5?$CFd?5?$CFd?5?$CF@
CONST	SEGMENT
??_C@_0CF@NGDJKDHP@MEMARQ?5Flags?5?$CFd?5?$CFd?5?$CFd?5?$CFd?5?$CFd?5?$CFd?5?$CF@ DB 'M'
	DB	'EMARQ Flags %d %d %d %d %d %d %d %d', 00H	; `string'
CONST	ENDS
;	COMDAT ??_C@_0CE@PACHHMPP@New?5frame?5type?5?9?5MEMARQ?5flags?5re@
CONST	SEGMENT
??_C@_0CE@PACHHMPP@New?5frame?5type?5?9?5MEMARQ?5flags?5re@ DB 'New frame'
	DB	' type - MEMARQ flags reset', 00H		; `string'
CONST	ENDS
;	COMDAT ??_C@_0BJ@JADBCDC@?$FLDecodeFrame?$FN?5Frame?3?5?$CFs?5?$AA@
CONST	SEGMENT
??_C@_0BJ@JADBCDC@?$FLDecodeFrame?$FN?5Frame?3?5?$CFs?5?$AA@ DB '[DecodeF'
	DB	'rame] Frame: %s ', 00H			; `string'
CONST	ENDS
;	COMDAT ??_C@_00CNPNBAHC@?$AA@
CONST	SEGMENT
??_C@_00CNPNBAHC@?$AA@ DB 00H				; `string'
CONST	ENDS
;	COMDAT ??_C@_0FI@LAFGIKHG@?$FLARDOPprotocol?4ProcessNewSamples@
CONST	SEGMENT
??_C@_0FI@LAFGIKHG@?$FLARDOPprotocol?4ProcessNewSamples@ DB '[ARDOPprotoc'
	DB	'ol.ProcessNewSamples, ProtocolState=IRStoISS, Initializing Ge'
	DB	'tNextFrameData', 00H			; `string'
CONST	ENDS
;	COMDAT ??_C@_0IL@FILFNEGA@?$FLARDOPprotocol?4ProcessNewSamples@
CONST	SEGMENT
??_C@_0IL@FILFNEGA@?$FLARDOPprotocol?4ProcessNewSamples@ DB '[ARDOPprotoc'
	DB	'ol.ProcessNewSamples] ProtocolState=IRStoISS, substate = %s A'
	DB	'CK received. Cease BREAKS, NewProtocolState=ISS, substate ISS'
	DB	'Data', 00H					; `string'
CONST	ENDS
;	COMDAT ??_C@_0P@MHCKBMIJ@bad?5frame?5type?$AA@
CONST	SEGMENT
??_C@_0P@MHCKBMIJ@bad?5frame?5type?$AA@ DB 'bad frame type', 00H ; `string'
CONST	ENDS
;	COMDAT ??_C@_0BH@KEHAODIE@poor?5frame?5type?5decode?$AA@
CONST	SEGMENT
??_C@_0BH@KEHAODIE@poor?5frame?5type?5decode?$AA@ DB 'poor frame type dec'
	DB	'ode', 00H					; `string'
CONST	ENDS
;	COMDAT ??_C@_0BD@MKHACAGP@frame?5sync?5timeout?$AA@
CONST	SEGMENT
??_C@_0BD@MKHACAGP@frame?5sync?5timeout?$AA@ DB 'frame sync timeout', 00H ; `string'
; Function compile flags: /Odtp /RTCsu /ZI
CONST	ENDS
;	COMDAT _ProcessNewSamples
_TEXT	SEGMENT
_intSN$5816 = -120					; size = 4
_blnFrameDecodedOK$ = -108				; size = 4
_intRcvdSamplesWPtr$ = -8				; size = 4
_Samples$ = 8						; size = 4
_nSamples$ = 12						; size = 4
_ProcessNewSamples PROC					; COMDAT

; 800  : {

  00000	55		 push	 ebp
  00001	8b ec		 mov	 ebp, esp
  00003	81 ec 48 01 00
	00		 sub	 esp, 328		; 00000148H
  00009	53		 push	 ebx
  0000a	56		 push	 esi
  0000b	57		 push	 edi
  0000c	8d bd b8 fe ff
	ff		 lea	 edi, DWORD PTR [ebp-328]
  00012	b9 52 00 00 00	 mov	 ecx, 82			; 00000052H
  00017	b8 cc cc cc cc	 mov	 eax, -858993460		; ccccccccH
  0001c	f3 ab		 rep stosd

; 801  : 	int intRcvdSamplesWPtr = 0;

  0001e	c7 45 f8 00 00
	00 00		 mov	 DWORD PTR _intRcvdSamplesWPtr$[ebp], 0

; 802  : 
; 803  : 	char Msg[80];
; 804  : 
; 805  :  //       Dim stcStatus As Status = Nothing
; 806  : 	BOOL blnFrameDecodedOK = FALSE;

  00025	c7 45 94 00 00
	00 00		 mov	 DWORD PTR _blnFrameDecodedOK$[ebp], 0

; 807  : 
; 808  : //	LookforUZ7HOLeader(Samples, nSamples);
; 809  : 
; 810  : //	return;
; 811  : 
; 812  : //	printtick("Start Busy");
; 813  : 	if (State == SearchingForLeader)

  0002c	83 3d 00 00 00
	00 00		 cmp	 DWORD PTR _State, 0
  00033	75 0c		 jne	 SHORT $LN84@ProcessNew

; 814  : 		UpdateBusyDetector(Samples);

  00035	8b 45 08	 mov	 eax, DWORD PTR _Samples$[ebp]
  00038	50		 push	 eax
  00039	e8 00 00 00 00	 call	 _UpdateBusyDetector
  0003e	83 c4 04	 add	 esp, 4
$LN84@ProcessNew:

; 815  : //	printtick("Done Busy");
; 816  : 	if (ProtocolState == FECSend)

  00041	83 3d 00 00 00
	00 06		 cmp	 DWORD PTR _ProtocolState, 6
  00048	75 05		 jne	 SHORT $LN83@ProcessNew

; 817  : 		return;

  0004a	e9 e7 0b 00 00	 jmp	 $LN54@ProcessNew
$LN83@ProcessNew:

; 818  : 
; 819  : 	// it seems that searchforleader runs on unmixed and unfilered samples
; 820  : 
; 821  : 	// Searching for leader
; 822  : 
; 823  : 	if (State == SearchingForLeader)

  0004f	83 3d 00 00 00
	00 00		 cmp	 DWORD PTR _State, 0
  00056	0f 85 84 00 00
	00		 jne	 $LN77@ProcessNew
$LN81@ProcessNew:

; 824  : 	{
; 825  : 		// Search for leader as long as 960 samples (8  symbols) available
; 826  : 
; 827  : //		WriteDebugLog("Looking for Leader");
; 828  : 
; 829  : 		while (State == SearchingForLeader && nSamples > 960)

  0005c	83 3d 00 00 00
	00 00		 cmp	 DWORD PTR _State, 0
  00063	75 68		 jne	 SHORT $LN80@ProcessNew
  00065	81 7d 0c c0 03
	00 00		 cmp	 DWORD PTR _nSamples$[ebp], 960 ; 000003c0H
  0006c	7e 5f		 jle	 SHORT $LN80@ProcessNew

; 830  : 		{
; 831  : 			int intSN;
; 832  : 			
; 833  : 			blnLeaderFound = SearchFor2ToneLeader2(Samples, nSamples, &dblOffsetHz, &intSN);

  0006e	8d 45 88	 lea	 eax, DWORD PTR _intSN$5816[ebp]
  00071	50		 push	 eax
  00072	68 00 00 00 00	 push	 OFFSET _dblOffsetHz
  00077	8b 4d 0c	 mov	 ecx, DWORD PTR _nSamples$[ebp]
  0007a	51		 push	 ecx
  0007b	8b 55 08	 mov	 edx, DWORD PTR _Samples$[ebp]
  0007e	52		 push	 edx
  0007f	e8 00 00 00 00	 call	 _SearchFor2ToneLeader2
  00084	83 c4 10	 add	 esp, 16			; 00000010H
  00087	a3 00 00 00 00	 mov	 DWORD PTR _blnLeaderFound, eax

; 834  : 		
; 835  : 			if (blnLeaderFound)

  0008c	83 3d 00 00 00
	00 00		 cmp	 DWORD PTR _blnLeaderFound, 0
  00093	74 20		 je	 SHORT $LN79@ProcessNew

; 836  : 			{
; 837  : //				WriteDebugLog("Got Leader");
; 838  : 
; 839  : 				dttLastLeaderDetect = Now;

  00095	e8 00 00 00 00	 call	 _getTicks
  0009a	a3 00 00 00 00	 mov	 DWORD PTR _dttLastLeaderDetect, eax

; 840  :                 //        stcStatus.ControlName = "lblOffset"
; 841  :                 //        stcStatus.Text = "Offset: " & (Format(dblOffsetHz, "#0.0").PadLeft(6)) & " Hz"
; 842  :                  //       queTNCStatus.Enqueue(stcStatus)
; 843  : 
; 844  : 				InitializeMixedSamples();

  0009f	e8 00 00 00 00	 call	 _InitializeMixedSamples

; 845  : 				State = AcquireSymbolSync;

  000a4	c7 05 00 00 00
	00 01 00 00 00	 mov	 DWORD PTR _State, 1

; 846  : 				ResetSNPwrs();

  000ae	e8 00 00 00 00	 call	 _ResetSNPwrs

; 847  : 			}
; 848  : 			else

  000b3	eb 16		 jmp	 SHORT $LN78@ProcessNew
$LN79@ProcessNew:

; 849  : 			{
; 850  : 				nSamples -= 480;

  000b5	8b 45 0c	 mov	 eax, DWORD PTR _nSamples$[ebp]
  000b8	2d e0 01 00 00	 sub	 eax, 480		; 000001e0H
  000bd	89 45 0c	 mov	 DWORD PTR _nSamples$[ebp], eax

; 851  : 				Samples += 480;		// !!!! needs attention !!!

  000c0	8b 45 08	 mov	 eax, DWORD PTR _Samples$[ebp]
  000c3	05 c0 03 00 00	 add	 eax, 960		; 000003c0H
  000c8	89 45 08	 mov	 DWORD PTR _Samples$[ebp], eax
$LN78@ProcessNew:

; 852  : 			}
; 853  : 		}

  000cb	eb 8f		 jmp	 SHORT $LN81@ProcessNew
$LN80@ProcessNew:

; 854  : 		if (State == SearchingForLeader)

  000cd	83 3d 00 00 00
	00 00		 cmp	 DWORD PTR _State, 0
  000d4	75 0a		 jne	 SHORT $LN77@ProcessNew

; 855  : 		{
; 856  : 			DiscardOldSamples();

  000d6	e8 00 00 00 00	 call	 _DiscardOldSamples

; 857  : 			return;

  000db	e9 56 0b 00 00	 jmp	 $LN54@ProcessNew
$LN77@ProcessNew:

; 858  : 		}
; 859  : 	}
; 860  : 
; 861  : 
; 862  : 	// Got leader
; 863  : 
; 864  : 	//	At this point samples haven't been processed, and are in Samples, len nSamples
; 865  : 
; 866  : 	// I'm going to filter all samples into intFilteredMixedSamples.
; 867  : 
; 868  : //	printtick("Start Mix");
; 869  : 
; 870  : 	MixNCOFilter(Samples, nSamples, dblOffsetHz); // Mix and filter new samples (Mixing consumes all intRcvdSamples)

  000e0	51		 push	 ecx
  000e1	d9 05 00 00 00
	00		 fld	 DWORD PTR _dblOffsetHz
  000e7	d9 1c 24	 fstp	 DWORD PTR [esp]
  000ea	8b 45 0c	 mov	 eax, DWORD PTR _nSamples$[ebp]
  000ed	50		 push	 eax
  000ee	8b 4d 08	 mov	 ecx, DWORD PTR _Samples$[ebp]
  000f1	51		 push	 ecx
  000f2	e8 00 00 00 00	 call	 _MixNCOFilter
  000f7	83 c4 0c	 add	 esp, 12			; 0000000cH

; 871  : 	nSamples = 0;	//	all used

  000fa	c7 45 0c 00 00
	00 00		 mov	 DWORD PTR _nSamples$[ebp], 0

; 872  : 
; 873  : //	printtick("Done Mix Samples");
; 874  : 
; 875  : 	// Acquire Symbol Sync 
; 876  : 
; 877  :     if (State == AcquireSymbolSync)

  00101	83 3d 00 00 00
	00 01		 cmp	 DWORD PTR _State, 1
  00108	75 4a		 jne	 SHORT $LN73@ProcessNew

; 878  : 	{
; 879  : 		if ((intFilteredMixedSamplesLength - intMFSReadPtr) > 860)

  0010a	a1 00 00 00 00	 mov	 eax, DWORD PTR _intFilteredMixedSamplesLength
  0010f	2b 05 00 00 00
	00		 sub	 eax, DWORD PTR _intMFSReadPtr
  00115	3d 5c 03 00 00	 cmp	 eax, 860		; 0000035cH
  0011a	7e 38		 jle	 SHORT $LN73@ProcessNew

; 880  : 		{
; 881  : 			blnSymbolSyncFound = Acquire2ToneLeaderSymbolFraming();  // adjust the pointer to the nominal symbol start based on phase

  0011c	e8 00 00 00 00	 call	 _Acquire2ToneLeaderSymbolFraming
  00121	a3 00 00 00 00	 mov	 DWORD PTR _blnSymbolSyncFound, eax

; 882  : 			if (blnSymbolSyncFound)

  00126	83 3d 00 00 00
	00 00		 cmp	 DWORD PTR _blnSymbolSyncFound, 0
  0012d	74 0c		 je	 SHORT $LN74@ProcessNew

; 883  : 				State = AcquireFrameSync;

  0012f	c7 05 00 00 00
	00 02 00 00 00	 mov	 DWORD PTR _State, 2

; 884  : 			else

  00139	eb 19		 jmp	 SHORT $LN73@ProcessNew
$LN74@ProcessNew:

; 885  : 			{
; 886  : 				DiscardOldSamples();

  0013b	e8 00 00 00 00	 call	 _DiscardOldSamples

; 887  : 				ClearAllMixedSamples();

  00140	e8 00 00 00 00	 call	 _ClearAllMixedSamples

; 888  : 				State = SearchingForLeader;

  00145	c7 05 00 00 00
	00 00 00 00 00	 mov	 DWORD PTR _State, 0

; 889  : 				return;

  0014f	e9 e2 0a 00 00	 jmp	 $LN54@ProcessNew
$LN73@ProcessNew:

; 890  : 			}
; 891  : //			printtick("Got Sym Sync");
; 892  : 		}
; 893  : 	}
; 894  : 	
; 895  : 	//	Acquire Frame Sync
; 896  : 	
; 897  : 	if (State == AcquireFrameSync)

  00154	83 3d 00 00 00
	00 02		 cmp	 DWORD PTR _State, 2
  0015b	0f 85 8d 00 00
	00		 jne	 $LN70@ProcessNew

; 898  : 	{
; 899  : 		blnFrameSyncFound = AcquireFrameSyncRSB();

  00161	e8 00 00 00 00	 call	 _AcquireFrameSyncRSB
  00166	a3 00 00 00 00	 mov	 DWORD PTR _blnFrameSyncFound, eax

; 900  : 	
; 901  : 		if (blnFrameSyncFound)

  0016b	83 3d 00 00 00
	00 00		 cmp	 DWORD PTR _blnFrameSyncFound, 0
  00172	74 0a		 je	 SHORT $LN71@ProcessNew

; 902  : 		{
; 903  : 			State = AcquireFrameType;

  00174	c7 05 00 00 00
	00 03 00 00 00	 mov	 DWORD PTR _State, 3
$LN71@ProcessNew:

; 904  : 				
; 905  : 			//	Have frame Sync. Remove used samples from buffer
; 906  : 
; 907  : //			printtick("Got Frame Sync");
; 908  : 
; 909  : 		}
; 910  : 
; 911  : 		// Remove used samples
; 912  : 
; 913  : 		intFilteredMixedSamplesLength -= intMFSReadPtr;

  0017e	a1 00 00 00 00	 mov	 eax, DWORD PTR _intFilteredMixedSamplesLength
  00183	2b 05 00 00 00
	00		 sub	 eax, DWORD PTR _intMFSReadPtr
  00189	a3 00 00 00 00	 mov	 DWORD PTR _intFilteredMixedSamplesLength, eax

; 914  : 
; 915  : 		memmove(intFilteredMixedSamples,
; 916  : 			&intFilteredMixedSamples[intMFSReadPtr], intFilteredMixedSamplesLength * 2);

  0018e	a1 00 00 00 00	 mov	 eax, DWORD PTR _intFilteredMixedSamplesLength
  00193	d1 e0		 shl	 eax, 1
  00195	50		 push	 eax
  00196	8b 0d 00 00 00
	00		 mov	 ecx, DWORD PTR _intMFSReadPtr
  0019c	8d 14 4d 00 00
	00 00		 lea	 edx, DWORD PTR _intFilteredMixedSamples[ecx*2]
  001a3	52		 push	 edx
  001a4	68 00 00 00 00	 push	 OFFSET _intFilteredMixedSamples
  001a9	e8 00 00 00 00	 call	 _memmove
  001ae	83 c4 0c	 add	 esp, 12			; 0000000cH

; 917  : 
; 918  : 		intMFSReadPtr = 0;

  001b1	c7 05 00 00 00
	00 00 00 00 00	 mov	 DWORD PTR _intMFSReadPtr, 0

; 919  : 
; 920  : 		if ((Now - dttLastLeaderDetect) > 1000)		 // no Frame sync within 1000 ms (may want to make this limit a funciton of Mode and leaders)

  001bb	e8 00 00 00 00	 call	 _getTicks
  001c0	2b 05 00 00 00
	00		 sub	 eax, DWORD PTR _dttLastLeaderDetect
  001c6	3d e8 03 00 00	 cmp	 eax, 1000		; 000003e8H
  001cb	76 21		 jbe	 SHORT $LN70@ProcessNew

; 921  : 		{
; 922  : 			DiscardOldSamples();

  001cd	e8 00 00 00 00	 call	 _DiscardOldSamples

; 923  : 			ClearAllMixedSamples();

  001d2	e8 00 00 00 00	 call	 _ClearAllMixedSamples

; 924  : 			State = SearchingForLeader;

  001d7	c7 05 00 00 00
	00 00 00 00 00	 mov	 DWORD PTR _State, 0

; 925  : 			printtick("frame sync timeout");

  001e1	68 00 00 00 00	 push	 OFFSET ??_C@_0BD@MKHACAGP@frame?5sync?5timeout?$AA@
  001e6	e8 00 00 00 00	 call	 _printtick
  001eb	83 c4 04	 add	 esp, 4
$LN70@ProcessNew:

; 926  : 		}
; 927  : 	}
; 928  : 	
; 929  : 	//	Acquire Frame Type
; 930  : 
; 931  : 	if (State == AcquireFrameType)

  001ee	83 3d 00 00 00
	00 03		 cmp	 DWORD PTR _State, 3
  001f5	0f 85 8c 03 00
	00		 jne	 $LN65@ProcessNew

; 932  : 	{
; 933  : //		printtick("getting frame type");
; 934  : 
; 935  : 		intFrameType = Acquire4FSKFrameType();

  001fb	e8 00 00 00 00	 call	 _Acquire4FSKFrameType
  00200	a3 00 00 00 00	 mov	 DWORD PTR _intFrameType, eax

; 936  : 		if (intFrameType == -2)

  00205	83 3d 00 00 00
	00 fe		 cmp	 DWORD PTR _intFrameType, -2 ; fffffffeH
  0020c	75 05		 jne	 SHORT $LN68@ProcessNew

; 937  : 		{
; 938  : //			sprintf(Msg, "not enough %d %d", intFilteredMixedSamplesLength, intMFSReadPtr);
; 939  : //			printtick(Msg);
; 940  : 			return;		//  insufficient samples

  0020e	e9 23 0a 00 00	 jmp	 $LN54@ProcessNew
$LN68@ProcessNew:

; 941  : 		}
; 942  : 
; 943  : 		if (intFrameType == -1)		  // poor decode quality (large decode distance)

  00213	83 3d 00 00 00
	00 ff		 cmp	 DWORD PTR _intFrameType, -1
  0021a	75 2f		 jne	 SHORT $LN67@ProcessNew

; 944  : 		{
; 945  : 			State = SearchingForLeader;

  0021c	c7 05 00 00 00
	00 00 00 00 00	 mov	 DWORD PTR _State, 0

; 946  : 			ClearAllMixedSamples();

  00226	e8 00 00 00 00	 call	 _ClearAllMixedSamples

; 947  : 			DiscardOldSamples();

  0022b	e8 00 00 00 00	 call	 _DiscardOldSamples

; 948  : 			if (DebugLog) printtick("poor frame type decode");

  00230	83 3d 00 00 00
	00 00		 cmp	 DWORD PTR _DebugLog, 0
  00237	74 0d		 je	 SHORT $LN66@ProcessNew
  00239	68 00 00 00 00	 push	 OFFSET ??_C@_0BH@KEHAODIE@poor?5frame?5type?5decode?$AA@
  0023e	e8 00 00 00 00	 call	 _printtick
  00243	83 c4 04	 add	 esp, 4
$LN66@ProcessNew:

; 949  : 
; 950  : 			// stcStatus.BackColor = SystemColors.Control
; 951  : 			// stcStatus.Text = ""
; 952  : 			// stcStatus.ControlName = "lblRcvFrame"
; 953  : 			// queTNCStatus.Enqueue(stcStatus)
; 954  : 		}
; 955  : 		else

  00246	e9 3c 03 00 00	 jmp	 $LN65@ProcessNew
$LN67@ProcessNew:

; 956  : 		{
; 957  : 			//	Get Frame info and Initialise Demodulate variables
; 958  : 
; 959  : 			// We've used intMFSReadPtr samples, so remove from Buffer
; 960  : 
; 961  : //			sprintf(Msg, "Got Frame Type %x", intFrameType);
; 962  : //			printtick(Msg);
; 963  : 
; 964  : 			intFilteredMixedSamplesLength -= intMFSReadPtr;

  0024b	a1 00 00 00 00	 mov	 eax, DWORD PTR _intFilteredMixedSamplesLength
  00250	2b 05 00 00 00
	00		 sub	 eax, DWORD PTR _intMFSReadPtr
  00256	a3 00 00 00 00	 mov	 DWORD PTR _intFilteredMixedSamplesLength, eax

; 965  : 	
; 966  : 			memmove(intFilteredMixedSamples,
; 967  : 				&intFilteredMixedSamples[intMFSReadPtr], intFilteredMixedSamplesLength * 2); 

  0025b	a1 00 00 00 00	 mov	 eax, DWORD PTR _intFilteredMixedSamplesLength
  00260	d1 e0		 shl	 eax, 1
  00262	50		 push	 eax
  00263	8b 0d 00 00 00
	00		 mov	 ecx, DWORD PTR _intMFSReadPtr
  00269	8d 14 4d 00 00
	00 00		 lea	 edx, DWORD PTR _intFilteredMixedSamples[ecx*2]
  00270	52		 push	 edx
  00271	68 00 00 00 00	 push	 OFFSET _intFilteredMixedSamples
  00276	e8 00 00 00 00	 call	 _memmove
  0027b	83 c4 0c	 add	 esp, 12			; 0000000cH

; 968  : 
; 969  : 			intMFSReadPtr = 0;

  0027e	c7 05 00 00 00
	00 00 00 00 00	 mov	 DWORD PTR _intMFSReadPtr, 0

; 970  : 
; 971  : 			if (!FrameInfo(intFrameType, &blnOdd, &intNumCar, strMod, &intBaud, &intDataLen, &intRSLen, &bytMinQualThresh, strType))

  00288	68 00 00 00 00	 push	 OFFSET _strType
  0028d	68 00 00 00 00	 push	 OFFSET _bytMinQualThresh
  00292	68 00 00 00 00	 push	 OFFSET _intRSLen
  00297	68 00 00 00 00	 push	 OFFSET _intDataLen
  0029c	68 00 00 00 00	 push	 OFFSET _intBaud
  002a1	68 00 00 00 00	 push	 OFFSET _strMod
  002a6	68 00 00 00 00	 push	 OFFSET _intNumCar
  002ab	68 00 00 00 00	 push	 OFFSET _blnOdd
  002b0	a0 00 00 00 00	 mov	 al, BYTE PTR _intFrameType
  002b5	50		 push	 eax
  002b6	e8 00 00 00 00	 call	 _FrameInfo
  002bb	83 c4 24	 add	 esp, 36			; 00000024H
  002be	85 c0		 test	 eax, eax
  002c0	75 26		 jne	 SHORT $LN64@ProcessNew

; 972  : 			{
; 973  : 				printtick("bad frame type");

  002c2	68 00 00 00 00	 push	 OFFSET ??_C@_0P@MHCKBMIJ@bad?5frame?5type?$AA@
  002c7	e8 00 00 00 00	 call	 _printtick
  002cc	83 c4 04	 add	 esp, 4

; 974  : 				State = SearchingForLeader;

  002cf	c7 05 00 00 00
	00 00 00 00 00	 mov	 DWORD PTR _State, 0

; 975  : 				ClearAllMixedSamples();

  002d9	e8 00 00 00 00	 call	 _ClearAllMixedSamples

; 976  : 				DiscardOldSamples();

  002de	e8 00 00 00 00	 call	 _DiscardOldSamples

; 977  : 				return;

  002e3	e9 4e 09 00 00	 jmp	 $LN54@ProcessNew
$LN64@ProcessNew:

; 978  : 			}
; 979  : 
; 980  : 			if (IsShortControlFrame(intFrameType))

  002e8	a0 00 00 00 00	 mov	 al, BYTE PTR _intFrameType
  002ed	50		 push	 eax
  002ee	e8 00 00 00 00	 call	 _IsShortControlFrame
  002f3	83 c4 04	 add	 esp, 4
  002f6	85 c0		 test	 eax, eax
  002f8	0f 84 eb 00 00
	00		 je	 $LN63@ProcessNew

; 981  : 			{
; 982  : 				// Frame has no data so is now complete
; 983  : 
; 984  : 				// See if IRStoISS shortcut can be invoked
; 985  : 				
; 986  : 				if (ProtocolState == IRStoISS && intFrameType >= 0xe0)

  002fe	83 3d 00 00 00
	00 05		 cmp	 DWORD PTR _ProtocolState, 5
  00305	0f 85 98 00 00
	00		 jne	 $LN62@ProcessNew
  0030b	81 3d 00 00 00
	00 e0 00 00 00	 cmp	 DWORD PTR _intFrameType, 224 ; 000000e0H
  00315	0f 8c 88 00 00
	00		 jl	 $LN62@ProcessNew

; 987  : 				{
; 988  : 					//	In this state transition to ISS if  ACK frame 
; 989  : 		
; 990  : 					WriteDebugLog("[ARDOPprotocol.ProcessNewSamples] ProtocolState=IRStoISS, substate = %s ACK received. Cease BREAKS, NewProtocolState=ISS, substate ISSData", ARQSubStates[ARQState]);

  0031b	a1 00 00 00 00	 mov	 eax, DWORD PTR _ARQState
  00320	6b c0 0b	 imul	 eax, 11			; 0000000bH
  00323	05 00 00 00 00	 add	 eax, OFFSET _ARQSubStates
  00328	50		 push	 eax
  00329	68 00 00 00 00	 push	 OFFSET ??_C@_0IL@FILFNEGA@?$FLARDOPprotocol?4ProcessNewSamples@
  0032e	e8 00 00 00 00	 call	 _WriteDebugLog
  00333	83 c4 08	 add	 esp, 8

; 991  : 					blnEnbARQRpt = FALSE;	// stop the BREAK repeats

  00336	c7 05 00 00 00
	00 00 00 00 00	 mov	 DWORD PTR _blnEnbARQRpt, 0

; 992  : 					intLastARQDataFrameToHost = -1; // initialize to illegal value to capture first new ISS frame and pass to host

  00340	c7 05 00 00 00
	00 ff ff ff ff	 mov	 DWORD PTR _intLastARQDataFrameToHost, -1

; 993  : 
; 994  : 					if (bytCurrentFrameType == 0) //  hasn't been initialized yet

  0034a	0f b6 05 00 00
	00 00		 movzx	 eax, BYTE PTR _bytCurrentFrameType
  00351	85 c0		 test	 eax, eax
  00353	75 23		 jne	 SHORT $LN61@ProcessNew

; 995  : 					{
; 996  : 						WriteDebugLog("[ARDOPprotocol.ProcessNewSamples, ProtocolState=IRStoISS, Initializing GetNextFrameData");

  00355	68 00 00 00 00	 push	 OFFSET ??_C@_0FI@LAFGIKHG@?$FLARDOPprotocol?4ProcessNewSamples@
  0035a	e8 00 00 00 00	 call	 _WriteDebugLog
  0035f	83 c4 04	 add	 esp, 4

; 997  : 		   				GetNextFrameData(&intShiftUpDn, 0, "", TRUE); // just sets the initial data, frame type, and sets intShiftUpDn= 0

  00362	6a 01		 push	 1
  00364	68 00 00 00 00	 push	 OFFSET ??_C@_00CNPNBAHC@?$AA@
  00369	6a 00		 push	 0
  0036b	68 00 00 00 00	 push	 OFFSET _intShiftUpDn
  00370	e8 00 00 00 00	 call	 _GetNextFrameData
  00375	83 c4 10	 add	 esp, 16			; 00000010H
$LN61@ProcessNew:

; 998  : 					}
; 999  : 
; 1000 : 					SetARDOPProtocolState(ISS);

  00378	6a 02		 push	 2
  0037a	e8 00 00 00 00	 call	 _SetARDOPProtocolState
  0037f	83 c4 04	 add	 esp, 4

; 1001 : 					intLinkTurnovers += 1;

  00382	a1 00 00 00 00	 mov	 eax, DWORD PTR _intLinkTurnovers
  00387	83 c0 01	 add	 eax, 1
  0038a	a3 00 00 00 00	 mov	 DWORD PTR _intLinkTurnovers, eax

; 1002 : 					ARQState = ISSData;			

  0038f	c7 05 00 00 00
	00 03 00 00 00	 mov	 DWORD PTR _ARQState, 3

; 1003 : 					SendData();				 //       Send new data from outbound queue and set up repeats

  00399	e8 00 00 00 00	 call	 _SendData

; 1004 : 					goto skipDecode;

  0039e	e9 7f 08 00 00	 jmp	 $skipDecode$5842
$LN62@ProcessNew:

; 1005 : 				}
; 1006 :      
; 1007 : 				// prepare for next
; 1008 : 
; 1009 : 				DiscardOldSamples();

  003a3	e8 00 00 00 00	 call	 _DiscardOldSamples

; 1010 : 				ClearAllMixedSamples();

  003a8	e8 00 00 00 00	 call	 _ClearAllMixedSamples

; 1011 : 				State = SearchingForLeader;

  003ad	c7 05 00 00 00
	00 00 00 00 00	 mov	 DWORD PTR _State, 0

; 1012 : 				blnFrameDecodedOK = TRUE;

  003b7	c7 45 94 01 00
	00 00		 mov	 DWORD PTR _blnFrameDecodedOK$[ebp], 1

; 1013 : 				WriteDebugLog("[DecodeFrame] Frame: %s ", Name(intFrameType));

  003be	a0 00 00 00 00	 mov	 al, BYTE PTR _intFrameType
  003c3	50		 push	 eax
  003c4	e8 00 00 00 00	 call	 _Name
  003c9	83 c4 04	 add	 esp, 4
  003cc	50		 push	 eax
  003cd	68 00 00 00 00	 push	 OFFSET ??_C@_0BJ@JADBCDC@?$FLDecodeFrame?$FN?5Frame?3?5?$CFs?5?$AA@
  003d2	e8 00 00 00 00	 call	 _WriteDebugLog
  003d7	83 c4 08	 add	 esp, 8

; 1014 : 
; 1015 : 				DecodeCompleteTime = Now;

  003da	e8 00 00 00 00	 call	 _getTicks
  003df	a3 00 00 00 00	 mov	 DWORD PTR _DecodeCompleteTime, eax

; 1016 : 
; 1017 : 				goto ProcessFrame;

  003e4	e9 0d 05 00 00	 jmp	 $ProcessFrame$5844
$LN63@ProcessNew:

; 1018 : 			}
; 1019 : 
; 1020 : 			intSampPerSym = 12000 / intBaud;

  003e9	b8 e0 2e 00 00	 mov	 eax, 12000		; 00002ee0H
  003ee	99		 cdq
  003ef	f7 3d 00 00 00
	00		 idiv	 DWORD PTR _intBaud
  003f5	a3 00 00 00 00	 mov	 DWORD PTR _intSampPerSym, eax

; 1021 : 
; 1022 : 			if (IsDataFrame(intFrameType))

  003fa	a0 00 00 00 00	 mov	 al, BYTE PTR _intFrameType
  003ff	50		 push	 eax
  00400	e8 00 00 00 00	 call	 _IsDataFrame
  00405	83 c4 04	 add	 esp, 4
  00408	85 c0		 test	 eax, eax
  0040a	74 17		 je	 SHORT $LN60@ProcessNew

; 1023 : 				SymbolsLeft = intDataLen + intRSLen + 3; // Data has a length byte

  0040c	a1 00 00 00 00	 mov	 eax, DWORD PTR _intRSLen
  00411	8b 0d 00 00 00
	00		 mov	 ecx, DWORD PTR _intDataLen
  00417	8d 54 01 03	 lea	 edx, DWORD PTR [ecx+eax+3]
  0041b	89 15 00 00 00
	00		 mov	 DWORD PTR _SymbolsLeft, edx

; 1024 : 			else

  00421	eb 15		 jmp	 SHORT $LN59@ProcessNew
$LN60@ProcessNew:

; 1025 : 				SymbolsLeft = intDataLen + intRSLen + 2;

  00423	a1 00 00 00 00	 mov	 eax, DWORD PTR _intRSLen
  00428	8b 0d 00 00 00
	00		 mov	 ecx, DWORD PTR _intDataLen
  0042e	8d 54 01 02	 lea	 edx, DWORD PTR [ecx+eax+2]
  00432	89 15 00 00 00
	00		 mov	 DWORD PTR _SymbolsLeft, edx
$LN59@ProcessNew:

; 1026 : 
; 1027 : 			if (intDataLen == 600)

  00438	81 3d 00 00 00
	00 58 02 00 00	 cmp	 DWORD PTR _intDataLen, 600 ; 00000258H
  00442	75 0d		 jne	 SHORT $LN58@ProcessNew

; 1028 : 				SymbolsLeft += 6;		// 600 baud has 3 * RS Blocks

  00444	a1 00 00 00 00	 mov	 eax, DWORD PTR _SymbolsLeft
  00449	83 c0 06	 add	 eax, 6
  0044c	a3 00 00 00 00	 mov	 DWORD PTR _SymbolsLeft, eax
$LN58@ProcessNew:

; 1029 : 			
; 1030 : 			intToneMagsLength = 16 * SymbolsLeft;	// 4 tones, 2 bits per set

  00451	a1 00 00 00 00	 mov	 eax, DWORD PTR _SymbolsLeft
  00456	c1 e0 04	 shl	 eax, 4
  00459	a3 00 00 00 00	 mov	 DWORD PTR _intToneMagsLength, eax

; 1031 : 			
; 1032 : 			memset(intToneMagsIndex, 0, sizeof(intToneMagsIndex));

  0045e	6a 10		 push	 16			; 00000010H
  00460	6a 00		 push	 0
  00462	68 00 00 00 00	 push	 OFFSET _intToneMagsIndex
  00467	e8 00 00 00 00	 call	 _memset
  0046c	83 c4 0c	 add	 esp, 12			; 0000000cH

; 1033 : 			
; 1034 : 			charIndex = 0;	

  0046f	c7 05 00 00 00
	00 00 00 00 00	 mov	 DWORD PTR _charIndex, 0

; 1035 : 			PSKInitDone = 0;

  00479	c7 05 00 00 00
	00 00 00 00 00	 mov	 DWORD PTR _PSKInitDone, 0

; 1036 : 			
; 1037 : 			if (!IsShortControlFrame(intFrameType))

  00483	a0 00 00 00 00	 mov	 al, BYTE PTR _intFrameType
  00488	50		 push	 eax
  00489	e8 00 00 00 00	 call	 _IsShortControlFrame
  0048e	83 c4 04	 add	 esp, 4

; 1038 : 			{
; 1039 :                //         stcStatus.BackColor = Color.Khaki
; 1040 :                //         stcStatus.Text = strType
; 1041 :                //         stcStatus.ControlName = "lblRcvFrame"
; 1042 :                //         queTNCStatus.Enqueue(stcStatus)
; 1043 : 			}
; 1044 : 
; 1045 : 			State = AcquireFrame;

  00491	c7 05 00 00 00
	00 05 00 00 00	 mov	 DWORD PTR _State, 5

; 1046 : 			
; 1047 : 			if (ProtocolMode == FEC && IsDataFrame(intFrameType) && ProtocolState != FECSend)

  0049b	83 3d 00 00 00
	00 01		 cmp	 DWORD PTR _ProtocolMode, 1
  004a2	75 25		 jne	 SHORT $LN56@ProcessNew
  004a4	a0 00 00 00 00	 mov	 al, BYTE PTR _intFrameType
  004a9	50		 push	 eax
  004aa	e8 00 00 00 00	 call	 _IsDataFrame
  004af	83 c4 04	 add	 esp, 4
  004b2	85 c0		 test	 eax, eax
  004b4	74 13		 je	 SHORT $LN56@ProcessNew
  004b6	83 3d 00 00 00
	00 06		 cmp	 DWORD PTR _ProtocolState, 6
  004bd	74 0a		 je	 SHORT $LN56@ProcessNew

; 1048 : 				SetARDOPProtocolState(FECRcv);

  004bf	6a 07		 push	 7
  004c1	e8 00 00 00 00	 call	 _SetARDOPProtocolState
  004c6	83 c4 04	 add	 esp, 4
$LN56@ProcessNew:

; 1049 : 
; 1050 : 			// if a data frame, and not the same frame type as last, reinitialise 
; 1051 : 			// correctly received carriers byte and memory ARQ fields
; 1052 : 
; 1053 : //			if (IsDataFrame(intFrameType) && LastDataFrameType != intFrameType)
; 1054 : 
; 1055 : 			if (LastDataFrameType != intFrameType)

  004c9	a1 00 00 00 00	 mov	 eax, DWORD PTR _LastDataFrameType
  004ce	3b 05 00 00 00
	00		 cmp	 eax, DWORD PTR _intFrameType
  004d4	74 64		 je	 SHORT $LN55@ProcessNew

; 1056 : 			{
; 1057 : 				WriteDebugLog("New frame type - MEMARQ flags reset");

  004d6	68 00 00 00 00	 push	 OFFSET ??_C@_0CE@PACHHMPP@New?5frame?5type?5?9?5MEMARQ?5flags?5re@
  004db	e8 00 00 00 00	 call	 _WriteDebugLog
  004e0	83 c4 04	 add	 esp, 4

; 1058 : 				memset(CarrierOk, 0, sizeof(CarrierOk));

  004e3	6a 08		 push	 8
  004e5	6a 00		 push	 0
  004e7	68 00 00 00 00	 push	 OFFSET _CarrierOk
  004ec	e8 00 00 00 00	 call	 _memset
  004f1	83 c4 0c	 add	 esp, 12			; 0000000cH

; 1059 : 				LastDataFrameType = intFrameType;

  004f4	a1 00 00 00 00	 mov	 eax, DWORD PTR _intFrameType
  004f9	a3 00 00 00 00	 mov	 DWORD PTR _LastDataFrameType, eax

; 1060 : 
; 1061 : 				// note that although we only do mem arq if enough RAM we
; 1062 : 				// still skip decoding carriers that have been received;
; 1063 : 
; 1064 : #ifdef MEMORYARQ
; 1065 : 				memset(intToneMagsAvg, 0, sizeof(intToneMagsAvg));

  004fe	68 c0 14 00 00	 push	 5312			; 000014c0H
  00503	6a 00		 push	 0
  00505	68 00 00 00 00	 push	 OFFSET _intToneMagsAvg
  0050a	e8 00 00 00 00	 call	 _memset
  0050f	83 c4 0c	 add	 esp, 12			; 0000000cH

; 1066 : 				memset(intCarPhaseAvg, 0, sizeof(intCarPhaseAvg));

  00512	68 c0 28 00 00	 push	 10432			; 000028c0H
  00517	6a 00		 push	 0
  00519	68 00 00 00 00	 push	 OFFSET _intCarPhaseAvg
  0051e	e8 00 00 00 00	 call	 _memset
  00523	83 c4 0c	 add	 esp, 12			; 0000000cH

; 1067 : 				memset(intCarMagAvg, 0, sizeof(intCarMagAvg));

  00526	68 c0 28 00 00	 push	 10432			; 000028c0H
  0052b	6a 00		 push	 0
  0052d	68 00 00 00 00	 push	 OFFSET _intCarMagAvg
  00532	e8 00 00 00 00	 call	 _memset
  00537	83 c4 0c	 add	 esp, 12			; 0000000cH
$LN55@ProcessNew:

; 1068 : #endif
; 1069 : 			}
; 1070 : 
; 1071 : 			WriteDebugLog("MEMARQ Flags %d %d %d %d %d %d %d %d",
; 1072 : 				CarrierOk[0], CarrierOk[1], CarrierOk[2], CarrierOk[3],
; 1073 : 				CarrierOk[4], CarrierOk[5], CarrierOk[6], CarrierOk[7]);

  0053a	0f be 05 07 00
	00 00		 movsx	 eax, BYTE PTR _CarrierOk+7
  00541	50		 push	 eax
  00542	0f be 0d 06 00
	00 00		 movsx	 ecx, BYTE PTR _CarrierOk+6
  00549	51		 push	 ecx
  0054a	0f be 15 05 00
	00 00		 movsx	 edx, BYTE PTR _CarrierOk+5
  00551	52		 push	 edx
  00552	0f be 05 04 00
	00 00		 movsx	 eax, BYTE PTR _CarrierOk+4
  00559	50		 push	 eax
  0055a	0f be 0d 03 00
	00 00		 movsx	 ecx, BYTE PTR _CarrierOk+3
  00561	51		 push	 ecx
  00562	0f be 15 02 00
	00 00		 movsx	 edx, BYTE PTR _CarrierOk+2
  00569	52		 push	 edx
  0056a	0f be 05 01 00
	00 00		 movsx	 eax, BYTE PTR _CarrierOk+1
  00571	50		 push	 eax
  00572	0f be 0d 00 00
	00 00		 movsx	 ecx, BYTE PTR _CarrierOk
  00579	51		 push	 ecx
  0057a	68 00 00 00 00	 push	 OFFSET ??_C@_0CF@NGDJKDHP@MEMARQ?5Flags?5?$CFd?5?$CFd?5?$CFd?5?$CFd?5?$CFd?5?$CFd?5?$CF@
  0057f	e8 00 00 00 00	 call	 _WriteDebugLog
  00584	83 c4 24	 add	 esp, 36			; 00000024H
$LN65@ProcessNew:

; 1074 : 		}
; 1075 : 	}
; 1076 : 	// Acquire Frame
; 1077 : 
; 1078 : 	if (State == AcquireFrame)

  00587	83 3d 00 00 00
	00 05		 cmp	 DWORD PTR _State, 5
  0058e	0f 85 a2 06 00
	00		 jne	 $LN54@ProcessNew

; 1079 : 	{
; 1080 : 		// Call DemodulateFrame for each set of samples
; 1081 : 
; 1082 : 		DemodulateFrame(intFrameType);

  00594	a1 00 00 00 00	 mov	 eax, DWORD PTR _intFrameType
  00599	50		 push	 eax
  0059a	e8 00 00 00 00	 call	 _DemodulateFrame
  0059f	83 c4 04	 add	 esp, 4

; 1083 : 
; 1084 : 		if (State == AcquireFrame)

  005a2	83 3d 00 00 00
	00 05		 cmp	 DWORD PTR _State, 5
  005a9	75 05		 jne	 SHORT $LN53@ProcessNew

; 1085 : 
; 1086 : 			// We haven't got it all yet so wait for more samples	
; 1087 : 			return;	

  005ab	e9 86 06 00 00	 jmp	 $LN54@ProcessNew
$LN53@ProcessNew:

; 1088 : 
; 1089 : 		//	We have the whole frame, so process it
; 1090 : 
; 1091 : 
; 1092 : //		printtick("got whole frame");
; 1093 : 
; 1094 : 		frameLen = 0;

  005b0	c7 05 00 00 00
	00 00 00 00 00	 mov	 DWORD PTR _frameLen, 0

; 1095 : 
; 1096 : 		if (strcmp (strMod, "4FSK") == 0)

  005ba	68 00 00 00 00	 push	 OFFSET ??_C@_04KOHEBHGC@4FSK?$AA@
  005bf	68 00 00 00 00	 push	 OFFSET _strMod
  005c4	e8 00 00 00 00	 call	 _strcmp
  005c9	83 c4 08	 add	 esp, 8
  005cc	85 c0		 test	 eax, eax
  005ce	75 17		 jne	 SHORT $LN52@ProcessNew

; 1097 : 			Update4FSKConstellation(&intToneMags[0][0], &intLastRcvdFrameQuality);

  005d0	68 00 00 00 00	 push	 OFFSET _intLastRcvdFrameQuality
  005d5	68 00 00 00 00	 push	 OFFSET _intToneMags
  005da	e8 00 00 00 00	 call	 _Update4FSKConstellation
  005df	83 c4 08	 add	 esp, 8
  005e2	e9 a8 00 00 00	 jmp	 $LN45@ProcessNew
$LN52@ProcessNew:

; 1098 : 		else if (strcmp (strMod, "16FSK") == 0)

  005e7	68 00 00 00 00	 push	 OFFSET ??_C@_05GMHCMGLE@16FSK?$AA@
  005ec	68 00 00 00 00	 push	 OFFSET _strMod
  005f1	e8 00 00 00 00	 call	 _strcmp
  005f6	83 c4 08	 add	 esp, 8
  005f9	85 c0		 test	 eax, eax
  005fb	75 14		 jne	 SHORT $LN50@ProcessNew

; 1099 : 			Update16FSKConstellation(&intToneMags[0][0], &intLastRcvdFrameQuality);

  005fd	68 00 00 00 00	 push	 OFFSET _intLastRcvdFrameQuality
  00602	68 00 00 00 00	 push	 OFFSET _intToneMags
  00607	e8 00 00 00 00	 call	 _Update16FSKConstellation
  0060c	83 c4 08	 add	 esp, 8
  0060f	eb 7e		 jmp	 SHORT $LN45@ProcessNew
$LN50@ProcessNew:

; 1100 : 		else if (strcmp (strMod, "8FSK") == 0)

  00611	68 00 00 00 00	 push	 OFFSET ??_C@_04GLIEPKGD@8FSK?$AA@
  00616	68 00 00 00 00	 push	 OFFSET _strMod
  0061b	e8 00 00 00 00	 call	 _strcmp
  00620	83 c4 08	 add	 esp, 8
  00623	85 c0		 test	 eax, eax
  00625	75 14		 jne	 SHORT $LN48@ProcessNew

; 1101 : 			Update8FSKConstellation(&intToneMags[0][0], &intLastRcvdFrameQuality);

  00627	68 00 00 00 00	 push	 OFFSET _intLastRcvdFrameQuality
  0062c	68 00 00 00 00	 push	 OFFSET _intToneMags
  00631	e8 00 00 00 00	 call	 _Update8FSKConstellation
  00636	83 c4 08	 add	 esp, 8

; 1102 : 		else

  00639	eb 54		 jmp	 SHORT $LN45@ProcessNew
$LN48@ProcessNew:

; 1103 : 			if (strcmp (strMod, "16QAM") == 0)

  0063b	68 00 00 00 00	 push	 OFFSET ??_C@_05OIEEHJAK@16QAM?$AA@
  00640	68 00 00 00 00	 push	 OFFSET _strMod
  00645	e8 00 00 00 00	 call	 _strcmp
  0064a	83 c4 08	 add	 esp, 8
  0064d	85 c0		 test	 eax, eax
  0064f	75 20		 jne	 SHORT $LN46@ProcessNew

; 1104 : 				intLastRcvdFrameQuality = UpdatePhaseConstellation(&intPhases[0][0], &intMags[0][0], strMod, TRUE);

  00651	6a 01		 push	 1
  00653	68 00 00 00 00	 push	 OFFSET _strMod
  00658	68 00 00 00 00	 push	 OFFSET _intMags
  0065d	68 00 00 00 00	 push	 OFFSET _intPhases
  00662	e8 00 00 00 00	 call	 _UpdatePhaseConstellation
  00667	83 c4 10	 add	 esp, 16			; 00000010H
  0066a	a3 00 00 00 00	 mov	 DWORD PTR _intLastRcvdFrameQuality, eax

; 1105 : 			else

  0066f	eb 1e		 jmp	 SHORT $LN45@ProcessNew
$LN46@ProcessNew:

; 1106 : 				intLastRcvdFrameQuality = UpdatePhaseConstellation(&intPhases[0][0], &intMags[0][0], strMod, FALSE);

  00671	6a 00		 push	 0
  00673	68 00 00 00 00	 push	 OFFSET _strMod
  00678	68 00 00 00 00	 push	 OFFSET _intMags
  0067d	68 00 00 00 00	 push	 OFFSET _intPhases
  00682	e8 00 00 00 00	 call	 _UpdatePhaseConstellation
  00687	83 c4 10	 add	 esp, 16			; 00000010H
  0068a	a3 00 00 00 00	 mov	 DWORD PTR _intLastRcvdFrameQuality, eax
$LN45@ProcessNew:

; 1107 : 
; 1108 : 
; 1109 : 		WriteDebugLog("Qual = %d", intLastRcvdFrameQuality);

  0068f	a1 00 00 00 00	 mov	 eax, DWORD PTR _intLastRcvdFrameQuality
  00694	50		 push	 eax
  00695	68 00 00 00 00	 push	 OFFSET ??_C@_09GBPIIGEG@Qual?5?$DN?5?$CFd?$AA@
  0069a	e8 00 00 00 00	 call	 _WriteDebugLog
  0069f	83 c4 08	 add	 esp, 8

; 1110 : 		DecodeCompleteTime = Now;

  006a2	e8 00 00 00 00	 call	 _getTicks
  006a7	a3 00 00 00 00	 mov	 DWORD PTR _DecodeCompleteTime, eax

; 1111 : 
; 1112 : 		// This mechanism is to skip actual decoding and reply/change state...no need to decode 
; 1113 : 
; 1114 : 		if (blnBREAKCmd && ProtocolState == IRS && ARQState == IRSData &&
; 1115 : 			intFrameType != bytLastACKedDataFrameType)

  006ac	83 3d 00 00 00
	00 00		 cmp	 DWORD PTR _blnBREAKCmd, 0
  006b3	0f 84 f0 00 00
	00		 je	 $LN44@ProcessNew
  006b9	83 3d 00 00 00
	00 03		 cmp	 DWORD PTR _ProtocolState, 3
  006c0	0f 85 e3 00 00
	00		 jne	 $LN44@ProcessNew
  006c6	83 3d 00 00 00
	00 06		 cmp	 DWORD PTR _ARQState, 6
  006cd	0f 85 d6 00 00
	00		 jne	 $LN44@ProcessNew
  006d3	0f b6 05 00 00
	00 00		 movzx	 eax, BYTE PTR _bytLastACKedDataFrameType
  006da	39 05 00 00 00
	00		 cmp	 DWORD PTR _intFrameType, eax
  006e0	0f 84 c3 00 00
	00		 je	 $LN44@ProcessNew

; 1116 : 		{
; 1117 : 			// This to immediatly go to IRStoISS if blnBREAKCmd enabled.
; 1118 : 		
; 1119 : 			//Implements protocol rule 3.4 (allows faster break) and does not require a good frame decode.
; 1120 : 
; 1121 : 			WriteDebugLog("[ARDOPprotocol.ProcessNewSamples] Skip Data Decoding when blnBREAKCmd and ProtcolState=IRS");

  006e6	68 00 00 00 00	 push	 OFFSET ??_C@_0FL@HDOBMIFN@?$FLARDOPprotocol?4ProcessNewSamples@
  006eb	e8 00 00 00 00	 call	 _WriteDebugLog
  006f0	83 c4 04	 add	 esp, 4

; 1122 : 			intFrameRepeatInterval = ComputeInterFrameInterval(1000 + rand() % 2000);

  006f3	e8 00 00 00 00	 call	 _rand
  006f8	99		 cdq
  006f9	b9 d0 07 00 00	 mov	 ecx, 2000		; 000007d0H
  006fe	f7 f9		 idiv	 ecx
  00700	81 c2 e8 03 00
	00		 add	 edx, 1000		; 000003e8H
  00706	52		 push	 edx
  00707	e8 00 00 00 00	 call	 _ComputeInterFrameInterval
  0070c	83 c4 04	 add	 esp, 4
  0070f	a3 00 00 00 00	 mov	 DWORD PTR _intFrameRepeatInterval, eax

; 1123 : 			SetARDOPProtocolState(IRStoISS); // (ONLY IRS State where repeats are used)				

  00714	6a 05		 push	 5
  00716	e8 00 00 00 00	 call	 _SetARDOPProtocolState
  0071b	83 c4 04	 add	 esp, 4

; 1124 : 			SendCommandToHost("STATUS QUEUE BREAK new Protocol State IRStoISS");

  0071e	68 00 00 00 00	 push	 OFFSET ??_C@_0CP@JLDOIPPD@STATUS?5QUEUE?5BREAK?5new?5Protocol?5@
  00723	e8 00 00 00 00	 call	 _SendCommandToHost
  00728	83 c4 04	 add	 esp, 4

; 1125 : 			blnEnbARQRpt = TRUE;  // setup for repeats until changeover

  0072b	c7 05 00 00 00
	00 01 00 00 00	 mov	 DWORD PTR _blnEnbARQRpt, 1

; 1126 : 			WriteDebugLog("[ARDOPprotocol.ProcessNewSamples] %d bytes to send in ProtocolState: %s: Send BREAK,  New state=IRStoISS (Rule 3.3)",
; 1127 : 					bytDataToSendLength,  ARDOPStates[ProtocolState]);

  00735	a1 00 00 00 00	 mov	 eax, DWORD PTR _ProtocolState
  0073a	6b c0 09	 imul	 eax, 9
  0073d	05 00 00 00 00	 add	 eax, OFFSET _ARDOPStates
  00742	50		 push	 eax
  00743	8b 0d 00 00 00
	00		 mov	 ecx, DWORD PTR _bytDataToSendLength
  00749	51		 push	 ecx
  0074a	68 00 00 00 00	 push	 OFFSET ??_C@_0HE@GMFGFFGG@?$FLARDOPprotocol?4ProcessNewSamples@
  0074f	e8 00 00 00 00	 call	 _WriteDebugLog
  00754	83 c4 0c	 add	 esp, 12			; 0000000cH

; 1128 :  			EncLen = Encode4FSKControl(BREAK, bytSessionID, bytEncodedBytes);

  00757	68 00 00 00 00	 push	 OFFSET _bytEncodedBytes
  0075c	a0 00 00 00 00	 mov	 al, BYTE PTR _bytSessionID
  00761	50		 push	 eax
  00762	6a 23		 push	 35			; 00000023H
  00764	e8 00 00 00 00	 call	 _Encode4FSKControl
  00769	83 c4 0c	 add	 esp, 12			; 0000000cH
  0076c	a3 00 00 00 00	 mov	 DWORD PTR _EncLen, eax

; 1129 : 			Mod4FSKDataAndPlay(BREAK, &bytEncodedBytes[0], EncLen, LeaderLength);		// only returns when all sent

  00771	a1 00 00 00 00	 mov	 eax, DWORD PTR _LeaderLength
  00776	50		 push	 eax
  00777	8b 0d 00 00 00
	00		 mov	 ecx, DWORD PTR _EncLen
  0077d	51		 push	 ecx
  0077e	68 00 00 00 00	 push	 OFFSET _bytEncodedBytes
  00783	6a 23		 push	 35			; 00000023H
  00785	e8 00 00 00 00	 call	 _Mod4FSKDataAndPlay
  0078a	83 c4 10	 add	 esp, 16			; 00000010H

; 1130 : 
; 1131 : 			WriteDebugLog("[ARDOPprotocol.ProcessNewSamples] Skip Data Decoding when blnBREAKCmd and ProtcolState=IRS");

  0078d	68 00 00 00 00	 push	 OFFSET ??_C@_0FL@HDOBMIFN@?$FLARDOPprotocol?4ProcessNewSamples@
  00792	e8 00 00 00 00	 call	 _WriteDebugLog
  00797	83 c4 04	 add	 esp, 4

; 1132 : 			blnBREAKCmd = FALSE;

  0079a	c7 05 00 00 00
	00 00 00 00 00	 mov	 DWORD PTR _blnBREAKCmd, 0

; 1133 : 			goto skipDecode;

  007a4	e9 79 04 00 00	 jmp	 $skipDecode$5842
$LN44@ProcessNew:

; 1134 : 		}
; 1135 : 						
; 1136 : 		if (ProtocolState == IRStoISS && IsDataFrame(intFrameType))

  007a9	83 3d 00 00 00
	00 05		 cmp	 DWORD PTR _ProtocolState, 5
  007b0	0f 85 85 00 00
	00		 jne	 $LN43@ProcessNew
  007b6	a0 00 00 00 00	 mov	 al, BYTE PTR _intFrameType
  007bb	50		 push	 eax
  007bc	e8 00 00 00 00	 call	 _IsDataFrame
  007c1	83 c4 04	 add	 esp, 4
  007c4	85 c0		 test	 eax, eax
  007c6	74 73		 je	 SHORT $LN43@ProcessNew

; 1137 : 		{
; 1138 : 			//	In this state answer any data frame with BREAK 
; 1139 : 		    // not necessary to decode the frame ....just frame type
; 1140 : 
; 1141 : 			WriteDebugLog("[ARDOPprotocol.ProcessNewSamples] Skip Data Decoding when ProtcolState=IRStoISS, Answer with BREAK");

  007c8	68 00 00 00 00	 push	 OFFSET ??_C@_0GD@LEDMPOGN@?$FLARDOPprotocol?4ProcessNewSamples@
  007cd	e8 00 00 00 00	 call	 _WriteDebugLog
  007d2	83 c4 04	 add	 esp, 4

; 1142 : 			intFrameRepeatInterval = ComputeInterFrameInterval(1000 + rand() % 2000);

  007d5	e8 00 00 00 00	 call	 _rand
  007da	99		 cdq
  007db	b9 d0 07 00 00	 mov	 ecx, 2000		; 000007d0H
  007e0	f7 f9		 idiv	 ecx
  007e2	81 c2 e8 03 00
	00		 add	 edx, 1000		; 000003e8H
  007e8	52		 push	 edx
  007e9	e8 00 00 00 00	 call	 _ComputeInterFrameInterval
  007ee	83 c4 04	 add	 esp, 4
  007f1	a3 00 00 00 00	 mov	 DWORD PTR _intFrameRepeatInterval, eax

; 1143 : 			blnEnbARQRpt = TRUE;  // setup for repeats until changeover

  007f6	c7 05 00 00 00
	00 01 00 00 00	 mov	 DWORD PTR _blnEnbARQRpt, 1

; 1144 :  			EncLen = Encode4FSKControl(BREAK, bytSessionID, bytEncodedBytes);

  00800	68 00 00 00 00	 push	 OFFSET _bytEncodedBytes
  00805	a0 00 00 00 00	 mov	 al, BYTE PTR _bytSessionID
  0080a	50		 push	 eax
  0080b	6a 23		 push	 35			; 00000023H
  0080d	e8 00 00 00 00	 call	 _Encode4FSKControl
  00812	83 c4 0c	 add	 esp, 12			; 0000000cH
  00815	a3 00 00 00 00	 mov	 DWORD PTR _EncLen, eax

; 1145 : 			Mod4FSKDataAndPlay(BREAK, &bytEncodedBytes[0], EncLen, LeaderLength);		// only returns when all sent

  0081a	a1 00 00 00 00	 mov	 eax, DWORD PTR _LeaderLength
  0081f	50		 push	 eax
  00820	8b 0d 00 00 00
	00		 mov	 ecx, DWORD PTR _EncLen
  00826	51		 push	 ecx
  00827	68 00 00 00 00	 push	 OFFSET _bytEncodedBytes
  0082c	6a 23		 push	 35			; 00000023H
  0082e	e8 00 00 00 00	 call	 _Mod4FSKDataAndPlay
  00833	83 c4 10	 add	 esp, 16			; 00000010H

; 1146 : 			goto skipDecode;

  00836	e9 e7 03 00 00	 jmp	 $skipDecode$5842
$LN43@ProcessNew:

; 1147 : 		}						
; 1148 : 		
; 1149 : 		if (ProtocolState == IRStoISS && intFrameType >= 0xe0)

  0083b	83 3d 00 00 00
	00 05		 cmp	 DWORD PTR _ProtocolState, 5
  00842	0f 85 98 00 00
	00		 jne	 $LN42@ProcessNew
  00848	81 3d 00 00 00
	00 e0 00 00 00	 cmp	 DWORD PTR _intFrameType, 224 ; 000000e0H
  00852	0f 8c 88 00 00
	00		 jl	 $LN42@ProcessNew

; 1150 : 		{
; 1151 : 			//	In this state transition to ISS if  ACK frame 
; 1152 : 		
; 1153 : 			WriteDebugLog("[ARDOPprotocol.ProcessNewSamples] ProtocolState=IRStoISS, substate = %s ACK received. Cease BREAKS, NewProtocolState=ISS, substate ISSData", ARQSubStates[ARQState]);

  00858	a1 00 00 00 00	 mov	 eax, DWORD PTR _ARQState
  0085d	6b c0 0b	 imul	 eax, 11			; 0000000bH
  00860	05 00 00 00 00	 add	 eax, OFFSET _ARQSubStates
  00865	50		 push	 eax
  00866	68 00 00 00 00	 push	 OFFSET ??_C@_0IL@FILFNEGA@?$FLARDOPprotocol?4ProcessNewSamples@
  0086b	e8 00 00 00 00	 call	 _WriteDebugLog
  00870	83 c4 08	 add	 esp, 8

; 1154 : 			blnEnbARQRpt = FALSE;	// stop the BREAK repeats

  00873	c7 05 00 00 00
	00 00 00 00 00	 mov	 DWORD PTR _blnEnbARQRpt, 0

; 1155 : 			intLastARQDataFrameToHost = -1; // initialize to illegal value to capture first new ISS frame and pass to host

  0087d	c7 05 00 00 00
	00 ff ff ff ff	 mov	 DWORD PTR _intLastARQDataFrameToHost, -1

; 1156 : 
; 1157 : 			if (bytCurrentFrameType == 0) //  hasn't been initialized yet

  00887	0f b6 05 00 00
	00 00		 movzx	 eax, BYTE PTR _bytCurrentFrameType
  0088e	85 c0		 test	 eax, eax
  00890	75 23		 jne	 SHORT $LN41@ProcessNew

; 1158 : 			{
; 1159 : 				WriteDebugLog("[ARDOPprotocol.ProcessNewSamples, ProtocolState=IRStoISS, Initializing GetNextFrameData");

  00892	68 00 00 00 00	 push	 OFFSET ??_C@_0FI@LAFGIKHG@?$FLARDOPprotocol?4ProcessNewSamples@
  00897	e8 00 00 00 00	 call	 _WriteDebugLog
  0089c	83 c4 04	 add	 esp, 4

; 1160 :    				GetNextFrameData(&intShiftUpDn, 0, "", TRUE); // just sets the initial data, frame type, and sets intShiftUpDn= 0

  0089f	6a 01		 push	 1
  008a1	68 00 00 00 00	 push	 OFFSET ??_C@_00CNPNBAHC@?$AA@
  008a6	6a 00		 push	 0
  008a8	68 00 00 00 00	 push	 OFFSET _intShiftUpDn
  008ad	e8 00 00 00 00	 call	 _GetNextFrameData
  008b2	83 c4 10	 add	 esp, 16			; 00000010H
$LN41@ProcessNew:

; 1161 : 			}
; 1162 : 
; 1163 : 			SetARDOPProtocolState(ISS);

  008b5	6a 02		 push	 2
  008b7	e8 00 00 00 00	 call	 _SetARDOPProtocolState
  008bc	83 c4 04	 add	 esp, 4

; 1164 : 			intLinkTurnovers += 1;

  008bf	a1 00 00 00 00	 mov	 eax, DWORD PTR _intLinkTurnovers
  008c4	83 c0 01	 add	 eax, 1
  008c7	a3 00 00 00 00	 mov	 DWORD PTR _intLinkTurnovers, eax

; 1165 : 			ARQState = ISSData;			

  008cc	c7 05 00 00 00
	00 03 00 00 00	 mov	 DWORD PTR _ARQState, 3

; 1166 : 			SendData();				 //       Send new data from outbound queue and set up repeats

  008d6	e8 00 00 00 00	 call	 _SendData

; 1167 : 			goto skipDecode;

  008db	e9 42 03 00 00	 jmp	 $skipDecode$5842
$LN42@ProcessNew:

; 1168 : 		}
; 1169 :      
; 1170 : 		blnFrameDecodedOK = DecodeFrame(intFrameType, bytData);

  008e0	68 00 00 00 00	 push	 OFFSET _bytData
  008e5	a1 00 00 00 00	 mov	 eax, DWORD PTR _intFrameType
  008ea	50		 push	 eax
  008eb	e8 00 00 00 00	 call	 _DecodeFrame
  008f0	83 c4 08	 add	 esp, 8
  008f3	89 45 94	 mov	 DWORD PTR _blnFrameDecodedOK$[ebp], eax
$ProcessFrame$5844:

; 1171 : 
; 1172 : ProcessFrame:	
; 1173 : 
; 1174 : 		if (blnFrameDecodedOK)

  008f6	83 7d 94 00	 cmp	 DWORD PTR _blnFrameDecodedOK$[ebp], 0
  008fa	0f 84 bc 01 00
	00		 je	 $LN40@ProcessNew

; 1175 : 		{
; 1176 : 			if (AccumulateStats)

  00900	83 3d 00 00 00
	00 00		 cmp	 DWORD PTR _AccumulateStats, 0
  00907	74 5a		 je	 SHORT $LN35@ProcessNew

; 1177 : 				if (IsDataFrame(intFrameType))

  00909	a0 00 00 00 00	 mov	 al, BYTE PTR _intFrameType
  0090e	50		 push	 eax
  0090f	e8 00 00 00 00	 call	 _IsDataFrame
  00914	83 c4 04	 add	 esp, 4
  00917	85 c0		 test	 eax, eax
  00919	74 48		 je	 SHORT $LN35@ProcessNew

; 1178 : 					if (strstr (strMod, "PSK"))

  0091b	68 00 00 00 00	 push	 OFFSET ??_C@_03GIMBCJGG@PSK?$AA@
  00920	68 00 00 00 00	 push	 OFFSET _strMod
  00925	e8 00 00 00 00	 call	 _strstr
  0092a	83 c4 08	 add	 esp, 8
  0092d	85 c0		 test	 eax, eax
  0092f	74 0f		 je	 SHORT $LN37@ProcessNew

; 1179 : 						intGoodPSKFrameDataDecodes++;

  00931	a1 00 00 00 00	 mov	 eax, DWORD PTR _intGoodPSKFrameDataDecodes
  00936	83 c0 01	 add	 eax, 1
  00939	a3 00 00 00 00	 mov	 DWORD PTR _intGoodPSKFrameDataDecodes, eax
  0093e	eb 23		 jmp	 SHORT $LN35@ProcessNew
$LN37@ProcessNew:

; 1180 : 					else if (strstr (strMod, "QAM"))

  00940	68 00 00 00 00	 push	 OFFSET ??_C@_03JJIFJOJL@QAM?$AA@
  00945	68 00 00 00 00	 push	 OFFSET _strMod
  0094a	e8 00 00 00 00	 call	 _strstr
  0094f	83 c4 08	 add	 esp, 8
  00952	85 c0		 test	 eax, eax
  00954	74 0d		 je	 SHORT $LN35@ProcessNew

; 1181 : 						intGoodQAMFrameDataDecodes++;

  00956	a1 00 00 00 00	 mov	 eax, DWORD PTR _intGoodQAMFrameDataDecodes
  0095b	83 c0 01	 add	 eax, 1
  0095e	a3 00 00 00 00	 mov	 DWORD PTR _intGoodQAMFrameDataDecodes, eax
$LN35@ProcessNew:

; 1182 : 
; 1183 :  			if (ProtocolMode == FEC)

  00963	83 3d 00 00 00
	00 01		 cmp	 DWORD PTR _ProtocolMode, 1
  0096a	75 79		 jne	 SHORT $LN34@ProcessNew

; 1184 : 			{
; 1185 : 				if (IsDataFrame(intFrameType))	// ' check to see if a data frame

  0096c	a0 00 00 00 00	 mov	 al, BYTE PTR _intFrameType
  00971	50		 push	 eax
  00972	e8 00 00 00 00	 call	 _IsDataFrame
  00977	83 c4 04	 add	 esp, 4
  0097a	85 c0		 test	 eax, eax
  0097c	74 1a		 je	 SHORT $LN33@ProcessNew

; 1186 : 					ProcessRcvdFECDataFrame(intFrameType, bytData, blnFrameDecodedOK);

  0097e	8b 45 94	 mov	 eax, DWORD PTR _blnFrameDecodedOK$[ebp]
  00981	50		 push	 eax
  00982	68 00 00 00 00	 push	 OFFSET _bytData
  00987	8b 0d 00 00 00
	00		 mov	 ecx, DWORD PTR _intFrameType
  0098d	51		 push	 ecx
  0098e	e8 00 00 00 00	 call	 _ProcessRcvdFECDataFrame
  00993	83 c4 0c	 add	 esp, 12			; 0000000cH
  00996	eb 48		 jmp	 SHORT $LN29@ProcessNew
$LN33@ProcessNew:

; 1187 : 				else if (intFrameType == 0x30)

  00998	83 3d 00 00 00
	00 30		 cmp	 DWORD PTR _intFrameType, 48 ; 00000030H
  0099f	75 1a		 jne	 SHORT $LN31@ProcessNew

; 1188 : 					AddTagToDataAndSendToHost(bytData, "IDF", frameLen);

  009a1	a1 00 00 00 00	 mov	 eax, DWORD PTR _frameLen
  009a6	50		 push	 eax
  009a7	68 00 00 00 00	 push	 OFFSET ??_C@_03OJBHPKML@IDF?$AA@
  009ac	68 00 00 00 00	 push	 OFFSET _bytData
  009b1	e8 00 00 00 00	 call	 _AddTagToDataAndSendToHost
  009b6	83 c4 0c	 add	 esp, 12			; 0000000cH
  009b9	eb 25		 jmp	 SHORT $LN29@ProcessNew
$LN31@ProcessNew:

; 1189 : 				else if (intFrameType >= 0x31 && intFrameType <= 0x38)

  009bb	83 3d 00 00 00
	00 31		 cmp	 DWORD PTR _intFrameType, 49 ; 00000031H
  009c2	7c 1c		 jl	 SHORT $LN29@ProcessNew
  009c4	83 3d 00 00 00
	00 38		 cmp	 DWORD PTR _intFrameType, 56 ; 00000038H
  009cb	7f 13		 jg	 SHORT $LN29@ProcessNew

; 1190 : 					ProcessUnconnectedConReqFrame(intFrameType, bytData);

  009cd	68 00 00 00 00	 push	 OFFSET _bytData
  009d2	a1 00 00 00 00	 mov	 eax, DWORD PTR _intFrameType
  009d7	50		 push	 eax
  009d8	e8 00 00 00 00	 call	 _ProcessUnconnectedConReqFrame
  009dd	83 c4 08	 add	 esp, 8
$LN29@ProcessNew:

; 1191 : 			}				
; 1192 : 			else if (ProtocolMode == ARQ)

  009e0	e9 d2 00 00 00	 jmp	 $LN19@ProcessNew
$LN34@ProcessNew:
  009e5	83 3d 00 00 00
	00 02		 cmp	 DWORD PTR _ProtocolMode, 2
  009ec	0f 85 a7 00 00
	00		 jne	 $LN27@ProcessNew

; 1193 : 			{
; 1194 : 				if (!blnTimeoutTriggered)

  009f2	83 3d 00 00 00
	00 00		 cmp	 DWORD PTR _blnTimeoutTriggered, 0
  009f9	75 1f		 jne	 SHORT $LN26@ProcessNew

; 1195 : 					ProcessRcvdARQFrame(intFrameType, bytData, frameLen, blnFrameDecodedOK);  // Process connected ARQ frames here 

  009fb	8b 45 94	 mov	 eax, DWORD PTR _blnFrameDecodedOK$[ebp]
  009fe	50		 push	 eax
  009ff	8b 0d 00 00 00
	00		 mov	 ecx, DWORD PTR _frameLen
  00a05	51		 push	 ecx
  00a06	68 00 00 00 00	 push	 OFFSET _bytData
  00a0b	8a 15 00 00 00
	00		 mov	 dl, BYTE PTR _intFrameType
  00a11	52		 push	 edx
  00a12	e8 00 00 00 00	 call	 _ProcessRcvdARQFrame
  00a17	83 c4 10	 add	 esp, 16			; 00000010H
$LN26@ProcessNew:

; 1196 : 
; 1197 : 				if (ProtocolState == DISC)		  // allows ARQ mode to operate like FEC when not connected

  00a1a	83 3d 00 00 00
	00 01		 cmp	 DWORD PTR _ProtocolState, 1
  00a21	75 74		 jne	 SHORT $LN20@ProcessNew

; 1198 : 					if (intFrameType == 0x30)				

  00a23	83 3d 00 00 00
	00 30		 cmp	 DWORD PTR _intFrameType, 48 ; 00000030H
  00a2a	75 1a		 jne	 SHORT $LN24@ProcessNew

; 1199 : 						AddTagToDataAndSendToHost(bytData, "IDF", frameLen);			

  00a2c	a1 00 00 00 00	 mov	 eax, DWORD PTR _frameLen
  00a31	50		 push	 eax
  00a32	68 00 00 00 00	 push	 OFFSET ??_C@_03OJBHPKML@IDF?$AA@
  00a37	68 00 00 00 00	 push	 OFFSET _bytData
  00a3c	e8 00 00 00 00	 call	 _AddTagToDataAndSendToHost
  00a41	83 c4 0c	 add	 esp, 12			; 0000000cH
  00a44	eb 51		 jmp	 SHORT $LN20@ProcessNew
$LN24@ProcessNew:

; 1200 : 					else if (intFrameType >= 0x31 && intFrameType <= 0x38)

  00a46	83 3d 00 00 00
	00 31		 cmp	 DWORD PTR _intFrameType, 49 ; 00000031H
  00a4d	7c 1e		 jl	 SHORT $LN22@ProcessNew
  00a4f	83 3d 00 00 00
	00 38		 cmp	 DWORD PTR _intFrameType, 56 ; 00000038H
  00a56	7f 15		 jg	 SHORT $LN22@ProcessNew

; 1201 : 						ProcessUnconnectedConReqFrame(intFrameType, bytData);			

  00a58	68 00 00 00 00	 push	 OFFSET _bytData
  00a5d	a1 00 00 00 00	 mov	 eax, DWORD PTR _intFrameType
  00a62	50		 push	 eax
  00a63	e8 00 00 00 00	 call	 _ProcessUnconnectedConReqFrame
  00a68	83 c4 08	 add	 esp, 8
  00a6b	eb 2a		 jmp	 SHORT $LN20@ProcessNew
$LN22@ProcessNew:

; 1202 : 					else if (IsDataFrame(intFrameType)) // check to see if a data frame

  00a6d	a0 00 00 00 00	 mov	 al, BYTE PTR _intFrameType
  00a72	50		 push	 eax
  00a73	e8 00 00 00 00	 call	 _IsDataFrame
  00a78	83 c4 04	 add	 esp, 4
  00a7b	85 c0		 test	 eax, eax
  00a7d	74 18		 je	 SHORT $LN20@ProcessNew

; 1203 : 						ProcessRcvdFECDataFrame(intFrameType, bytData, blnFrameDecodedOK);			

  00a7f	8b 45 94	 mov	 eax, DWORD PTR _blnFrameDecodedOK$[ebp]
  00a82	50		 push	 eax
  00a83	68 00 00 00 00	 push	 OFFSET _bytData
  00a88	8b 0d 00 00 00
	00		 mov	 ecx, DWORD PTR _intFrameType
  00a8e	51		 push	 ecx
  00a8f	e8 00 00 00 00	 call	 _ProcessRcvdFECDataFrame
  00a94	83 c4 0c	 add	 esp, 12			; 0000000cH
$LN20@ProcessNew:

; 1204 : 			}
; 1205 : 			else

  00a97	eb 1e		 jmp	 SHORT $LN19@ProcessNew
$LN27@ProcessNew:

; 1206 : 			{
; 1207 : 				// Unknown Mode
; 1208 : 				bytData[frameLen] = 0;

  00a99	a1 00 00 00 00	 mov	 eax, DWORD PTR _frameLen
  00a9e	c6 80 00 00 00
	00 00		 mov	 BYTE PTR _bytData[eax], 0

; 1209 : 				WriteDebugLog("Received Data, No State %s", bytData);

  00aa5	68 00 00 00 00	 push	 OFFSET _bytData
  00aaa	68 00 00 00 00	 push	 OFFSET ??_C@_0BL@EBKFJBEL@Received?5Data?0?5No?5State?5?$CFs?$AA@
  00aaf	e8 00 00 00 00	 call	 _WriteDebugLog
  00ab4	83 c4 08	 add	 esp, 8
$LN19@ProcessNew:

; 1210 : 			}
; 1211 : 		}
; 1212 : 		else

  00ab7	e9 66 01 00 00	 jmp	 $skipDecode$5842
$LN40@ProcessNew:

; 1213 : 		{
; 1214 : 			//	Bad decode
; 1215 : 
; 1216 :             if (AccumulateStats)

  00abc	83 3d 00 00 00
	00 00		 cmp	 DWORD PTR _AccumulateStats, 0
  00ac3	74 5a		 je	 SHORT $LN13@ProcessNew

; 1217 : 				if (IsDataFrame(intFrameType))

  00ac5	a0 00 00 00 00	 mov	 al, BYTE PTR _intFrameType
  00aca	50		 push	 eax
  00acb	e8 00 00 00 00	 call	 _IsDataFrame
  00ad0	83 c4 04	 add	 esp, 4
  00ad3	85 c0		 test	 eax, eax
  00ad5	74 48		 je	 SHORT $LN13@ProcessNew

; 1218 : 					if (strstr (strMod, "PSK"))

  00ad7	68 00 00 00 00	 push	 OFFSET ??_C@_03GIMBCJGG@PSK?$AA@
  00adc	68 00 00 00 00	 push	 OFFSET _strMod
  00ae1	e8 00 00 00 00	 call	 _strstr
  00ae6	83 c4 08	 add	 esp, 8
  00ae9	85 c0		 test	 eax, eax
  00aeb	74 0f		 je	 SHORT $LN15@ProcessNew

; 1219 : 						intFailedPSKFrameDataDecodes++;

  00aed	a1 00 00 00 00	 mov	 eax, DWORD PTR _intFailedPSKFrameDataDecodes
  00af2	83 c0 01	 add	 eax, 1
  00af5	a3 00 00 00 00	 mov	 DWORD PTR _intFailedPSKFrameDataDecodes, eax
  00afa	eb 23		 jmp	 SHORT $LN13@ProcessNew
$LN15@ProcessNew:

; 1220 : 					else if (strstr (strMod, "QAM"))

  00afc	68 00 00 00 00	 push	 OFFSET ??_C@_03JJIFJOJL@QAM?$AA@
  00b01	68 00 00 00 00	 push	 OFFSET _strMod
  00b06	e8 00 00 00 00	 call	 _strstr
  00b0b	83 c4 08	 add	 esp, 8
  00b0e	85 c0		 test	 eax, eax
  00b10	74 0d		 je	 SHORT $LN13@ProcessNew

; 1221 : 						intFailedQAMFrameDataDecodes++;

  00b12	a1 00 00 00 00	 mov	 eax, DWORD PTR _intFailedQAMFrameDataDecodes
  00b17	83 c0 01	 add	 eax, 1
  00b1a	a3 00 00 00 00	 mov	 DWORD PTR _intFailedQAMFrameDataDecodes, eax
$LN13@ProcessNew:

; 1222 : 
; 1223 : 
; 1224 :             // Debug.WriteLine("[DecodePSKData2] bytPass = " & Format(bytPass, "X"))
; 1225 : 			if (ProtocolMode == FEC)

  00b1f	83 3d 00 00 00
	00 01		 cmp	 DWORD PTR _ProtocolMode, 1
  00b26	75 52		 jne	 SHORT $LN12@ProcessNew

; 1226 : 			{
; 1227 : 				if (IsDataFrame(intFrameType))	// ' check to see if a data frame

  00b28	a0 00 00 00 00	 mov	 al, BYTE PTR _intFrameType
  00b2d	50		 push	 eax
  00b2e	e8 00 00 00 00	 call	 _IsDataFrame
  00b33	83 c4 04	 add	 esp, 4
  00b36	85 c0		 test	 eax, eax
  00b38	74 1a		 je	 SHORT $LN11@ProcessNew

; 1228 : 					ProcessRcvdFECDataFrame(intFrameType, bytData, blnFrameDecodedOK);

  00b3a	8b 45 94	 mov	 eax, DWORD PTR _blnFrameDecodedOK$[ebp]
  00b3d	50		 push	 eax
  00b3e	68 00 00 00 00	 push	 OFFSET _bytData
  00b43	8b 0d 00 00 00
	00		 mov	 ecx, DWORD PTR _intFrameType
  00b49	51		 push	 ecx
  00b4a	e8 00 00 00 00	 call	 _ProcessRcvdFECDataFrame
  00b4f	83 c4 0c	 add	 esp, 12			; 0000000cH
  00b52	eb 21		 jmp	 SHORT $LN9@ProcessNew
$LN11@ProcessNew:

; 1229 : 				else if (intFrameType == 0x30)

  00b54	83 3d 00 00 00
	00 30		 cmp	 DWORD PTR _intFrameType, 48 ; 00000030H
  00b5b	75 18		 jne	 SHORT $LN9@ProcessNew

; 1230 : 					AddTagToDataAndSendToHost(bytData, "ERR", frameLen);

  00b5d	a1 00 00 00 00	 mov	 eax, DWORD PTR _frameLen
  00b62	50		 push	 eax
  00b63	68 00 00 00 00	 push	 OFFSET ??_C@_03JFMEENOE@ERR?$AA@
  00b68	68 00 00 00 00	 push	 OFFSET _bytData
  00b6d	e8 00 00 00 00	 call	 _AddTagToDataAndSendToHost
  00b72	83 c4 0c	 add	 esp, 12			; 0000000cH
$LN9@ProcessNew:

; 1231 : 			}				
; 1232 : 			else if (ProtocolMode == ARQ)

  00b75	e9 87 00 00 00	 jmp	 $LN2@ProcessNew
$LN12@ProcessNew:
  00b7a	83 3d 00 00 00
	00 02		 cmp	 DWORD PTR _ProtocolMode, 2
  00b81	75 7e		 jne	 SHORT $LN2@ProcessNew

; 1233 : 			{
; 1234 : 				if (ProtocolState == DISC)		  // allows ARQ mode to operate like FEC when not connected

  00b83	83 3d 00 00 00
	00 01		 cmp	 DWORD PTR _ProtocolState, 1
  00b8a	75 4d		 jne	 SHORT $LN3@ProcessNew

; 1235 : 				{
; 1236 : 					if (intFrameType == 0x30)				

  00b8c	83 3d 00 00 00
	00 30		 cmp	 DWORD PTR _intFrameType, 48 ; 00000030H
  00b93	75 1a		 jne	 SHORT $LN5@ProcessNew

; 1237 : 						AddTagToDataAndSendToHost(bytData, "ERR", frameLen);			

  00b95	a1 00 00 00 00	 mov	 eax, DWORD PTR _frameLen
  00b9a	50		 push	 eax
  00b9b	68 00 00 00 00	 push	 OFFSET ??_C@_03JFMEENOE@ERR?$AA@
  00ba0	68 00 00 00 00	 push	 OFFSET _bytData
  00ba5	e8 00 00 00 00	 call	 _AddTagToDataAndSendToHost
  00baa	83 c4 0c	 add	 esp, 12			; 0000000cH
  00bad	eb 2a		 jmp	 SHORT $LN3@ProcessNew
$LN5@ProcessNew:

; 1238 : 
; 1239 : 					else if (IsDataFrame(intFrameType))		// check to see if a data frame

  00baf	a0 00 00 00 00	 mov	 al, BYTE PTR _intFrameType
  00bb4	50		 push	 eax
  00bb5	e8 00 00 00 00	 call	 _IsDataFrame
  00bba	83 c4 04	 add	 esp, 4
  00bbd	85 c0		 test	 eax, eax
  00bbf	74 18		 je	 SHORT $LN3@ProcessNew

; 1240 : 						ProcessRcvdFECDataFrame(intFrameType, bytData, blnFrameDecodedOK);

  00bc1	8b 45 94	 mov	 eax, DWORD PTR _blnFrameDecodedOK$[ebp]
  00bc4	50		 push	 eax
  00bc5	68 00 00 00 00	 push	 OFFSET _bytData
  00bca	8b 0d 00 00 00
	00		 mov	 ecx, DWORD PTR _intFrameType
  00bd0	51		 push	 ecx
  00bd1	e8 00 00 00 00	 call	 _ProcessRcvdFECDataFrame
  00bd6	83 c4 0c	 add	 esp, 12			; 0000000cH
$LN3@ProcessNew:

; 1241 : 				}
; 1242 : 				if (!blnTimeoutTriggered)

  00bd9	83 3d 00 00 00
	00 00		 cmp	 DWORD PTR _blnTimeoutTriggered, 0
  00be0	75 1f		 jne	 SHORT $LN2@ProcessNew

; 1243 : 					ProcessRcvdARQFrame(intFrameType, bytData, frameLen, blnFrameDecodedOK);  // Process connected ARQ frames here 

  00be2	8b 45 94	 mov	 eax, DWORD PTR _blnFrameDecodedOK$[ebp]
  00be5	50		 push	 eax
  00be6	8b 0d 00 00 00
	00		 mov	 ecx, DWORD PTR _frameLen
  00bec	51		 push	 ecx
  00bed	68 00 00 00 00	 push	 OFFSET _bytData
  00bf2	8a 15 00 00 00
	00		 mov	 dl, BYTE PTR _intFrameType
  00bf8	52		 push	 edx
  00bf9	e8 00 00 00 00	 call	 _ProcessRcvdARQFrame
  00bfe	83 c4 10	 add	 esp, 16			; 00000010H
$LN2@ProcessNew:

; 1244 :  
; 1245 : 			}
; 1246 :   			if (ProtocolMode == FEC && ProtocolState != FECSend)

  00c01	83 3d 00 00 00
	00 01		 cmp	 DWORD PTR _ProtocolMode, 1
  00c08	75 18		 jne	 SHORT $skipDecode$5842
  00c0a	83 3d 00 00 00
	00 06		 cmp	 DWORD PTR _ProtocolState, 6
  00c11	74 0f		 je	 SHORT $skipDecode$5842

; 1247 : 			{
; 1248 : 				SetARDOPProtocolState(DISC);

  00c13	6a 01		 push	 1
  00c15	e8 00 00 00 00	 call	 _SetARDOPProtocolState
  00c1a	83 c4 04	 add	 esp, 4

; 1249 : 				InitializeConnection();

  00c1d	e8 00 00 00 00	 call	 _InitializeConnection
$skipDecode$5842:

; 1250 : 			}
; 1251 : 		}
; 1252 : skipDecode:			
; 1253 : 		State = SearchingForLeader;

  00c22	c7 05 00 00 00
	00 00 00 00 00	 mov	 DWORD PTR _State, 0

; 1254 : 		ClearAllMixedSamples();

  00c2c	e8 00 00 00 00	 call	 _ClearAllMixedSamples

; 1255 : 		DiscardOldSamples();

  00c31	e8 00 00 00 00	 call	 _DiscardOldSamples
$LN54@ProcessNew:

; 1256 : 		return;
; 1257 : 
; 1258 : 	}
; 1259 : }

  00c36	52		 push	 edx
  00c37	8b cd		 mov	 ecx, ebp
  00c39	50		 push	 eax
  00c3a	8d 15 00 00 00
	00		 lea	 edx, DWORD PTR $LN91@ProcessNew
  00c40	e8 00 00 00 00	 call	 @_RTC_CheckStackVars@8
  00c45	58		 pop	 eax
  00c46	5a		 pop	 edx
  00c47	5f		 pop	 edi
  00c48	5e		 pop	 esi
  00c49	5b		 pop	 ebx
  00c4a	81 c4 48 01 00
	00		 add	 esp, 328		; 00000148H
  00c50	3b ec		 cmp	 ebp, esp
  00c52	e8 00 00 00 00	 call	 __RTC_CheckEsp
  00c57	8b e5		 mov	 esp, ebp
  00c59	5d		 pop	 ebp
  00c5a	c3		 ret	 0
  00c5b	90		 npad	 1
$LN91@ProcessNew:
  00c5c	03 00 00 00	 DD	 3
  00c60	00 00 00 00	 DD	 $LN90@ProcessNew
$LN90@ProcessNew:
  00c64	a0 ff ff ff	 DD	 -96			; ffffffa0H
  00c68	50 00 00 00	 DD	 80			; 00000050H
  00c6c	00 00 00 00	 DD	 $LN87@ProcessNew
  00c70	88 ff ff ff	 DD	 -120			; ffffff88H
  00c74	04 00 00 00	 DD	 4
  00c78	00 00 00 00	 DD	 $LN88@ProcessNew
  00c7c	7c ff ff ff	 DD	 -132			; ffffff7cH
  00c80	04 00 00 00	 DD	 4
  00c84	00 00 00 00	 DD	 $LN89@ProcessNew
$LN89@ProcessNew:
  00c88	5f		 DB	 95			; 0000005fH
  00c89	24		 DB	 36			; 00000024H
  00c8a	41		 DB	 65			; 00000041H
  00c8b	72		 DB	 114			; 00000072H
  00c8c	72		 DB	 114			; 00000072H
  00c8d	61		 DB	 97			; 00000061H
  00c8e	79		 DB	 121			; 00000079H
  00c8f	50		 DB	 80			; 00000050H
  00c90	61		 DB	 97			; 00000061H
  00c91	64		 DB	 100			; 00000064H
  00c92	00		 DB	 0
$LN88@ProcessNew:
  00c93	69		 DB	 105			; 00000069H
  00c94	6e		 DB	 110			; 0000006eH
  00c95	74		 DB	 116			; 00000074H
  00c96	53		 DB	 83			; 00000053H
  00c97	4e		 DB	 78			; 0000004eH
  00c98	00		 DB	 0
$LN87@ProcessNew:
  00c99	4d		 DB	 77			; 0000004dH
  00c9a	73		 DB	 115			; 00000073H
  00c9b	67		 DB	 103			; 00000067H
  00c9c	00		 DB	 0
_ProcessNewSamples ENDP
_TEXT	ENDS
PUBLIC	_GoertzelRealImag
EXTRN	_sin:PROC
; Function compile flags: /Odtp /RTCsu /ZI
;	COMDAT _GoertzelRealImag
_TEXT	SEGMENT
tv220 = -256						; size = 4
tv205 = -256						; size = 4
tv192 = -256						; size = 4
tv181 = -256						; size = 4
_i$ = -56						; size = 4
_dblCoeff$ = -44					; size = 4
_dblW$ = -32						; size = 4
_dblZ_2$ = -20						; size = 4
_dblZ_1$ = -8						; size = 4
_intRealIn$ = 8						; size = 4
_intPtr$ = 12						; size = 4
_N$ = 16						; size = 4
_m$ = 20						; size = 4
_dblReal$ = 24						; size = 4
_dblImag$ = 28						; size = 4
_GoertzelRealImag PROC					; COMDAT

; 1263 : {

  00000	55		 push	 ebp
  00001	8b ec		 mov	 ebp, esp
  00003	81 ec 00 01 00
	00		 sub	 esp, 256		; 00000100H
  00009	53		 push	 ebx
  0000a	56		 push	 esi
  0000b	57		 push	 edi
  0000c	8d bd 00 ff ff
	ff		 lea	 edi, DWORD PTR [ebp-256]
  00012	b9 40 00 00 00	 mov	 ecx, 64			; 00000040H
  00017	b8 cc cc cc cc	 mov	 eax, -858993460		; ccccccccH
  0001c	f3 ab		 rep stosd

; 1264 : 	// intRealIn is a buffer at least intPtr + N in length
; 1265 : 	// N need not be a power of 2
; 1266 : 	// m need not be an integer
; 1267 : 	// Computes the Real and Imaginary Freq values for bin m
; 1268 : 	// Verified to = FFT results for at least 10 significant digits
; 1269 : 	// Timings for 1024 Point on Laptop (64 bit Core Duo 2.2 Ghz)
; 1270 : 	//        GoertzelRealImag .015 ms   Normal FFT (.5 ms)
; 1271 : 	//  assuming Goertzel is proportional to N and FFT time proportional to Nlog2N
; 1272 : 	//  FFT:Goertzel time  ratio ~ 3.3 Log2(N)
; 1273 : 
; 1274 : 	//  Sanity check
; 1275 : 
; 1276 : 	//if (intPtr < 0 Or (intRealIn.Length - intPtr) < N Then
; 1277 :     //        dblReal = 0 : dblImag = 0 : Exit Sub
; 1278 :      //   End If
; 1279 : 
; 1280 : 	float dblZ_1 = 0.0f, dblZ_2 = 0.0f, dblW = 0.0f;

  0001e	d9 ee		 fldz
  00020	d9 5d f8	 fstp	 DWORD PTR _dblZ_1$[ebp]
  00023	d9 ee		 fldz
  00025	d9 5d ec	 fstp	 DWORD PTR _dblZ_2$[ebp]
  00028	d9 ee		 fldz
  0002a	d9 5d e0	 fstp	 DWORD PTR _dblW$[ebp]

; 1281 : 	float dblCoeff = 2 * cosf(2 * M_PI * m / N);

  0002d	d9 45 14	 fld	 DWORD PTR _m$[ebp]
  00030	dc 0d 00 00 00
	00		 fmul	 QWORD PTR __real@401921fb00000000
  00036	da 75 10	 fidiv	 DWORD PTR _N$[ebp]
  00039	83 ec 08	 sub	 esp, 8
  0003c	dd 1c 24	 fstp	 QWORD PTR [esp]
  0003f	e8 00 00 00 00	 call	 _cos
  00044	83 c4 08	 add	 esp, 8
  00047	d9 9d 00 ff ff
	ff		 fstp	 DWORD PTR tv181[ebp]
  0004d	d9 85 00 ff ff
	ff		 fld	 DWORD PTR tv181[ebp]
  00053	dc 0d 00 00 00
	00		 fmul	 QWORD PTR __real@4000000000000000
  00059	d9 5d d4	 fstp	 DWORD PTR _dblCoeff$[ebp]

; 1282 : 	int i;
; 1283 : 
; 1284 : 	for (i = 0; i <= N; i++)

  0005c	c7 45 c8 00 00
	00 00		 mov	 DWORD PTR _i$[ebp], 0
  00063	eb 09		 jmp	 SHORT $LN5@GoertzelRe
$LN4@GoertzelRe:
  00065	8b 45 c8	 mov	 eax, DWORD PTR _i$[ebp]
  00068	83 c0 01	 add	 eax, 1
  0006b	89 45 c8	 mov	 DWORD PTR _i$[ebp], eax
$LN5@GoertzelRe:
  0006e	8b 45 c8	 mov	 eax, DWORD PTR _i$[ebp]
  00071	3b 45 10	 cmp	 eax, DWORD PTR _N$[ebp]
  00074	7f 51		 jg	 SHORT $LN3@GoertzelRe

; 1285 : 	{
; 1286 : 		if (i == N)

  00076	8b 45 c8	 mov	 eax, DWORD PTR _i$[ebp]
  00079	3b 45 10	 cmp	 eax, DWORD PTR _N$[ebp]
  0007c	75 0e		 jne	 SHORT $LN2@GoertzelRe

; 1287 : 			dblW = dblZ_1 * dblCoeff - dblZ_2;

  0007e	d9 45 f8	 fld	 DWORD PTR _dblZ_1$[ebp]
  00081	d8 4d d4	 fmul	 DWORD PTR _dblCoeff$[ebp]
  00084	d8 65 ec	 fsub	 DWORD PTR _dblZ_2$[ebp]
  00087	d9 5d e0	 fstp	 DWORD PTR _dblW$[ebp]

; 1288 : 		else

  0008a	eb 24		 jmp	 SHORT $LN1@GoertzelRe
$LN2@GoertzelRe:

; 1289 : 			dblW = intRealIn[intPtr] + dblZ_1 * dblCoeff - dblZ_2;

  0008c	8b 45 0c	 mov	 eax, DWORD PTR _intPtr$[ebp]
  0008f	8b 4d 08	 mov	 ecx, DWORD PTR _intRealIn$[ebp]
  00092	0f bf 14 41	 movsx	 edx, WORD PTR [ecx+eax*2]
  00096	89 95 00 ff ff
	ff		 mov	 DWORD PTR tv192[ebp], edx
  0009c	db 85 00 ff ff
	ff		 fild	 DWORD PTR tv192[ebp]
  000a2	d9 45 f8	 fld	 DWORD PTR _dblZ_1$[ebp]
  000a5	d8 4d d4	 fmul	 DWORD PTR _dblCoeff$[ebp]
  000a8	de c1		 faddp	 ST(1), ST(0)
  000aa	d8 65 ec	 fsub	 DWORD PTR _dblZ_2$[ebp]
  000ad	d9 5d e0	 fstp	 DWORD PTR _dblW$[ebp]
$LN1@GoertzelRe:

; 1290 : 
; 1291 : 		dblZ_2 = dblZ_1;

  000b0	d9 45 f8	 fld	 DWORD PTR _dblZ_1$[ebp]
  000b3	d9 5d ec	 fstp	 DWORD PTR _dblZ_2$[ebp]

; 1292 : 		dblZ_1 = dblW;

  000b6	d9 45 e0	 fld	 DWORD PTR _dblW$[ebp]
  000b9	d9 5d f8	 fstp	 DWORD PTR _dblZ_1$[ebp]

; 1293 : 		intPtr++;

  000bc	8b 45 0c	 mov	 eax, DWORD PTR _intPtr$[ebp]
  000bf	83 c0 01	 add	 eax, 1
  000c2	89 45 0c	 mov	 DWORD PTR _intPtr$[ebp], eax

; 1294 : 	}

  000c5	eb 9e		 jmp	 SHORT $LN4@GoertzelRe
$LN3@GoertzelRe:

; 1295 : 	*dblReal = 2 * (dblW - cosf(2 * M_PI * m / N) * dblZ_2) / N;  // scale results by N/2

  000c7	d9 45 14	 fld	 DWORD PTR _m$[ebp]
  000ca	dc 0d 00 00 00
	00		 fmul	 QWORD PTR __real@401921fb00000000
  000d0	da 75 10	 fidiv	 DWORD PTR _N$[ebp]
  000d3	83 ec 08	 sub	 esp, 8
  000d6	dd 1c 24	 fstp	 QWORD PTR [esp]
  000d9	e8 00 00 00 00	 call	 _cos
  000de	83 c4 08	 add	 esp, 8
  000e1	d9 9d 00 ff ff
	ff		 fstp	 DWORD PTR tv205[ebp]
  000e7	d9 85 00 ff ff
	ff		 fld	 DWORD PTR tv205[ebp]
  000ed	d8 4d ec	 fmul	 DWORD PTR _dblZ_2$[ebp]
  000f0	d8 6d e0	 fsubr	 DWORD PTR _dblW$[ebp]
  000f3	dc 0d 00 00 00
	00		 fmul	 QWORD PTR __real@4000000000000000
  000f9	da 75 10	 fidiv	 DWORD PTR _N$[ebp]
  000fc	8b 45 18	 mov	 eax, DWORD PTR _dblReal$[ebp]
  000ff	d9 18		 fstp	 DWORD PTR [eax]

; 1296 : 	*dblImag = 2 * (sinf(2 * M_PI * m / N) * dblZ_2) / N;  // scale results by N/2   (this sign agrees with Scope DSP phase values) 

  00101	d9 45 14	 fld	 DWORD PTR _m$[ebp]
  00104	dc 0d 00 00 00
	00		 fmul	 QWORD PTR __real@401921fb00000000
  0010a	da 75 10	 fidiv	 DWORD PTR _N$[ebp]
  0010d	83 ec 08	 sub	 esp, 8
  00110	dd 1c 24	 fstp	 QWORD PTR [esp]
  00113	e8 00 00 00 00	 call	 _sin
  00118	83 c4 08	 add	 esp, 8
  0011b	d9 9d 00 ff ff
	ff		 fstp	 DWORD PTR tv220[ebp]
  00121	d9 85 00 ff ff
	ff		 fld	 DWORD PTR tv220[ebp]
  00127	d8 4d ec	 fmul	 DWORD PTR _dblZ_2$[ebp]
  0012a	dc 0d 00 00 00
	00		 fmul	 QWORD PTR __real@4000000000000000
  00130	da 75 10	 fidiv	 DWORD PTR _N$[ebp]
  00133	8b 45 1c	 mov	 eax, DWORD PTR _dblImag$[ebp]
  00136	d9 18		 fstp	 DWORD PTR [eax]

; 1297 : }

  00138	5f		 pop	 edi
  00139	5e		 pop	 esi
  0013a	5b		 pop	 ebx
  0013b	81 c4 00 01 00
	00		 add	 esp, 256		; 00000100H
  00141	3b ec		 cmp	 ebp, esp
  00143	e8 00 00 00 00	 call	 __RTC_CheckEsp
  00148	8b e5		 mov	 esp, ebp
  0014a	5d		 pop	 ebp
  0014b	c3		 ret	 0
_GoertzelRealImag ENDP
_TEXT	ENDS
PUBLIC	__real@3fe0000000000000
PUBLIC	_GoertzelRealImagHanning
;	COMDAT __real@3fe0000000000000
CONST	SEGMENT
__real@3fe0000000000000 DQ 03fe0000000000000r	; 0.5
; Function compile flags: /Odtp /RTCsu /ZI
CONST	ENDS
;	COMDAT _GoertzelRealImagHanning
_TEXT	SEGMENT
tv270 = -256						; size = 4
tv255 = -256						; size = 4
tv241 = -256						; size = 4
tv228 = -256						; size = 4
tv216 = -256						; size = 4
tv208 = -256						; size = 4
_i$ = -56						; size = 4
_dblCoeff$ = -44					; size = 4
_dblW$ = -32						; size = 4
_dblZ_2$ = -20						; size = 4
_dblZ_1$ = -8						; size = 4
_intRealIn$ = 8						; size = 4
_intPtr$ = 12						; size = 4
_N$ = 16						; size = 4
_m$ = 20						; size = 4
_dblReal$ = 24						; size = 4
_dblImag$ = 28						; size = 4
_GoertzelRealImagHanning PROC				; COMDAT

; 1306 : {

  00000	55		 push	 ebp
  00001	8b ec		 mov	 ebp, esp
  00003	81 ec 00 01 00
	00		 sub	 esp, 256		; 00000100H
  00009	53		 push	 ebx
  0000a	56		 push	 esi
  0000b	57		 push	 edi
  0000c	8d bd 00 ff ff
	ff		 lea	 edi, DWORD PTR [ebp-256]
  00012	b9 40 00 00 00	 mov	 ecx, 64			; 00000040H
  00017	b8 cc cc cc cc	 mov	 eax, -858993460		; ccccccccH
  0001c	f3 ab		 rep stosd

; 1307 : 	// intRealIn is a buffer at least intPtr + N in length
; 1308 : 	// N need not be a power of 2
; 1309 : 	// m need not be an integer
; 1310 : 	// Computes the Real and Imaginary Freq values for bin m
; 1311 : 	// Verified to = FFT results for at least 10 significant digits
; 1312 : 	// Timings for 1024 Point on Laptop (64 bit Core Duo 2.2 Ghz)
; 1313 : 	//        GoertzelRealImag .015 ms   Normal FFT (.5 ms)
; 1314 : 	//  assuming Goertzel is proportional to N and FFT time proportional to Nlog2N
; 1315 : 	//  FFT:Goertzel time  ratio ~ 3.3 Log2(N)
; 1316 : 
; 1317 : 	//  Sanity check
; 1318 :  
; 1319 :   	float dblZ_1 = 0.0f, dblZ_2 = 0.0f, dblW = 0.0f;

  0001e	d9 ee		 fldz
  00020	d9 5d f8	 fstp	 DWORD PTR _dblZ_1$[ebp]
  00023	d9 ee		 fldz
  00025	d9 5d ec	 fstp	 DWORD PTR _dblZ_2$[ebp]
  00028	d9 ee		 fldz
  0002a	d9 5d e0	 fstp	 DWORD PTR _dblW$[ebp]

; 1320 : 	float dblCoeff = 2 * cosf(2 * M_PI * m / N);

  0002d	d9 45 14	 fld	 DWORD PTR _m$[ebp]
  00030	dc 0d 00 00 00
	00		 fmul	 QWORD PTR __real@401921fb00000000
  00036	da 75 10	 fidiv	 DWORD PTR _N$[ebp]
  00039	83 ec 08	 sub	 esp, 8
  0003c	dd 1c 24	 fstp	 QWORD PTR [esp]
  0003f	e8 00 00 00 00	 call	 _cos
  00044	83 c4 08	 add	 esp, 8
  00047	d9 9d 00 ff ff
	ff		 fstp	 DWORD PTR tv208[ebp]
  0004d	d9 85 00 ff ff
	ff		 fld	 DWORD PTR tv208[ebp]
  00053	dc 0d 00 00 00
	00		 fmul	 QWORD PTR __real@4000000000000000
  00059	d9 5d d4	 fstp	 DWORD PTR _dblCoeff$[ebp]

; 1321 : 
; 1322 : 	int i;
; 1323 : 
; 1324 : 	if (HanWinLen != N)  //if there is any change in N this is then recalculate the Hanning Window...this mechanism reduces use of Cos

  0005c	a1 00 00 00 00	 mov	 eax, DWORD PTR _HanWinLen
  00061	3b 45 10	 cmp	 eax, DWORD PTR _N$[ebp]
  00064	74 7b		 je	 SHORT $LN6@GoertzelRe@2

; 1325 : 	{
; 1326 : 		HanWinLen = N;

  00066	8b 45 10	 mov	 eax, DWORD PTR _N$[ebp]
  00069	a3 00 00 00 00	 mov	 DWORD PTR _HanWinLen, eax

; 1327 : 
; 1328 : 		dblAng = 2 * M_PI / (N - 1);

  0006e	8b 45 10	 mov	 eax, DWORD PTR _N$[ebp]
  00071	83 e8 01	 sub	 eax, 1
  00074	89 85 00 ff ff
	ff		 mov	 DWORD PTR tv216[ebp], eax
  0007a	db 85 00 ff ff
	ff		 fild	 DWORD PTR tv216[ebp]
  00080	dc 3d 00 00 00
	00		 fdivr	 QWORD PTR __real@401921fb00000000
  00086	d9 1d 00 00 00
	00		 fstp	 DWORD PTR _dblAng

; 1329 : 
; 1330 : 		for (i = 0; i < N; i++)

  0008c	c7 45 c8 00 00
	00 00		 mov	 DWORD PTR _i$[ebp], 0
  00093	eb 09		 jmp	 SHORT $LN8@GoertzelRe@2
$LN7@GoertzelRe@2:
  00095	8b 45 c8	 mov	 eax, DWORD PTR _i$[ebp]
  00098	83 c0 01	 add	 eax, 1
  0009b	89 45 c8	 mov	 DWORD PTR _i$[ebp], eax
$LN8@GoertzelRe@2:
  0009e	8b 45 c8	 mov	 eax, DWORD PTR _i$[ebp]
  000a1	3b 45 10	 cmp	 eax, DWORD PTR _N$[ebp]
  000a4	7d 3b		 jge	 SHORT $LN6@GoertzelRe@2

; 1331 : 		{
; 1332 : 			dblHanWin[i] = 0.5 - 0.5 * cosf(i * dblAng);

  000a6	db 45 c8	 fild	 DWORD PTR _i$[ebp]
  000a9	d8 0d 00 00 00
	00		 fmul	 DWORD PTR _dblAng
  000af	83 ec 08	 sub	 esp, 8
  000b2	dd 1c 24	 fstp	 QWORD PTR [esp]
  000b5	e8 00 00 00 00	 call	 _cos
  000ba	83 c4 08	 add	 esp, 8
  000bd	d9 9d 00 ff ff
	ff		 fstp	 DWORD PTR tv228[ebp]
  000c3	d9 85 00 ff ff
	ff		 fld	 DWORD PTR tv228[ebp]
  000c9	dc 0d 00 00 00
	00		 fmul	 QWORD PTR __real@3fe0000000000000
  000cf	dc 2d 00 00 00
	00		 fsubr	 QWORD PTR __real@3fe0000000000000
  000d5	8b 45 c8	 mov	 eax, DWORD PTR _i$[ebp]
  000d8	d9 1c 85 00 00
	00 00		 fstp	 DWORD PTR _dblHanWin[eax*4]

; 1333 : 		}

  000df	eb b4		 jmp	 SHORT $LN7@GoertzelRe@2
$LN6@GoertzelRe@2:

; 1334 : 	}
; 1335 : 
; 1336 : 	for (i = 0; i <= N; i++)

  000e1	c7 45 c8 00 00
	00 00		 mov	 DWORD PTR _i$[ebp], 0
  000e8	eb 09		 jmp	 SHORT $LN5@GoertzelRe@2
$LN4@GoertzelRe@2:
  000ea	8b 45 c8	 mov	 eax, DWORD PTR _i$[ebp]
  000ed	83 c0 01	 add	 eax, 1
  000f0	89 45 c8	 mov	 DWORD PTR _i$[ebp], eax
$LN5@GoertzelRe@2:
  000f3	8b 45 c8	 mov	 eax, DWORD PTR _i$[ebp]
  000f6	3b 45 10	 cmp	 eax, DWORD PTR _N$[ebp]
  000f9	7f 5b		 jg	 SHORT $LN3@GoertzelRe@2

; 1337 : 	{
; 1338 : 		if (i == N)

  000fb	8b 45 c8	 mov	 eax, DWORD PTR _i$[ebp]
  000fe	3b 45 10	 cmp	 eax, DWORD PTR _N$[ebp]
  00101	75 0e		 jne	 SHORT $LN2@GoertzelRe@2

; 1339 : 			dblW = dblZ_1 * dblCoeff - dblZ_2;

  00103	d9 45 f8	 fld	 DWORD PTR _dblZ_1$[ebp]
  00106	d8 4d d4	 fmul	 DWORD PTR _dblCoeff$[ebp]
  00109	d8 65 ec	 fsub	 DWORD PTR _dblZ_2$[ebp]
  0010c	d9 5d e0	 fstp	 DWORD PTR _dblW$[ebp]

; 1340 : 		else

  0010f	eb 2e		 jmp	 SHORT $LN1@GoertzelRe@2
$LN2@GoertzelRe@2:

; 1341 : 			dblW = intRealIn[intPtr]  * dblHanWin[i] + dblZ_1 * dblCoeff - dblZ_2;

  00111	8b 45 0c	 mov	 eax, DWORD PTR _intPtr$[ebp]
  00114	8b 4d 08	 mov	 ecx, DWORD PTR _intRealIn$[ebp]
  00117	0f bf 14 41	 movsx	 edx, WORD PTR [ecx+eax*2]
  0011b	89 95 00 ff ff
	ff		 mov	 DWORD PTR tv241[ebp], edx
  00121	db 85 00 ff ff
	ff		 fild	 DWORD PTR tv241[ebp]
  00127	8b 45 c8	 mov	 eax, DWORD PTR _i$[ebp]
  0012a	d8 0c 85 00 00
	00 00		 fmul	 DWORD PTR _dblHanWin[eax*4]
  00131	d9 45 f8	 fld	 DWORD PTR _dblZ_1$[ebp]
  00134	d8 4d d4	 fmul	 DWORD PTR _dblCoeff$[ebp]
  00137	de c1		 faddp	 ST(1), ST(0)
  00139	d8 65 ec	 fsub	 DWORD PTR _dblZ_2$[ebp]
  0013c	d9 5d e0	 fstp	 DWORD PTR _dblW$[ebp]
$LN1@GoertzelRe@2:

; 1342 : 
; 1343 : 		dblZ_2 = dblZ_1;

  0013f	d9 45 f8	 fld	 DWORD PTR _dblZ_1$[ebp]
  00142	d9 5d ec	 fstp	 DWORD PTR _dblZ_2$[ebp]

; 1344 : 		dblZ_1 = dblW;

  00145	d9 45 e0	 fld	 DWORD PTR _dblW$[ebp]
  00148	d9 5d f8	 fstp	 DWORD PTR _dblZ_1$[ebp]

; 1345 : 		intPtr++;

  0014b	8b 45 0c	 mov	 eax, DWORD PTR _intPtr$[ebp]
  0014e	83 c0 01	 add	 eax, 1
  00151	89 45 0c	 mov	 DWORD PTR _intPtr$[ebp], eax

; 1346 : 	}

  00154	eb 94		 jmp	 SHORT $LN4@GoertzelRe@2
$LN3@GoertzelRe@2:

; 1347 : 	
; 1348 : 	*dblReal = 2 * (dblW - cosf(2 * M_PI * m / N) * dblZ_2) / N;  // scale results by N/2

  00156	d9 45 14	 fld	 DWORD PTR _m$[ebp]
  00159	dc 0d 00 00 00
	00		 fmul	 QWORD PTR __real@401921fb00000000
  0015f	da 75 10	 fidiv	 DWORD PTR _N$[ebp]
  00162	83 ec 08	 sub	 esp, 8
  00165	dd 1c 24	 fstp	 QWORD PTR [esp]
  00168	e8 00 00 00 00	 call	 _cos
  0016d	83 c4 08	 add	 esp, 8
  00170	d9 9d 00 ff ff
	ff		 fstp	 DWORD PTR tv255[ebp]
  00176	d9 85 00 ff ff
	ff		 fld	 DWORD PTR tv255[ebp]
  0017c	d8 4d ec	 fmul	 DWORD PTR _dblZ_2$[ebp]
  0017f	d8 6d e0	 fsubr	 DWORD PTR _dblW$[ebp]
  00182	dc 0d 00 00 00
	00		 fmul	 QWORD PTR __real@4000000000000000
  00188	da 75 10	 fidiv	 DWORD PTR _N$[ebp]
  0018b	8b 45 18	 mov	 eax, DWORD PTR _dblReal$[ebp]
  0018e	d9 18		 fstp	 DWORD PTR [eax]

; 1349 : 	*dblImag = 2 * (sinf(2 * M_PI * m / N) * dblZ_2) / N;  // scale results by N/2   (this sign agrees with Scope DSP phase values) 

  00190	d9 45 14	 fld	 DWORD PTR _m$[ebp]
  00193	dc 0d 00 00 00
	00		 fmul	 QWORD PTR __real@401921fb00000000
  00199	da 75 10	 fidiv	 DWORD PTR _N$[ebp]
  0019c	83 ec 08	 sub	 esp, 8
  0019f	dd 1c 24	 fstp	 QWORD PTR [esp]
  001a2	e8 00 00 00 00	 call	 _sin
  001a7	83 c4 08	 add	 esp, 8
  001aa	d9 9d 00 ff ff
	ff		 fstp	 DWORD PTR tv270[ebp]
  001b0	d9 85 00 ff ff
	ff		 fld	 DWORD PTR tv270[ebp]
  001b6	d8 4d ec	 fmul	 DWORD PTR _dblZ_2$[ebp]
  001b9	dc 0d 00 00 00
	00		 fmul	 QWORD PTR __real@4000000000000000
  001bf	da 75 10	 fidiv	 DWORD PTR _N$[ebp]
  001c2	8b 45 1c	 mov	 eax, DWORD PTR _dblImag$[ebp]
  001c5	d9 18		 fstp	 DWORD PTR [eax]

; 1350 : }

  001c7	5f		 pop	 edi
  001c8	5e		 pop	 esi
  001c9	5b		 pop	 ebx
  001ca	81 c4 00 01 00
	00		 add	 esp, 256		; 00000100H
  001d0	3b ec		 cmp	 ebp, esp
  001d2	e8 00 00 00 00	 call	 __RTC_CheckEsp
  001d7	8b e5		 mov	 esp, ebp
  001d9	5d		 pop	 ebp
  001da	c3		 ret	 0
_GoertzelRealImagHanning ENDP
_TEXT	ENDS
PUBLIC	__real@3ff0000000000000
PUBLIC	_QuinnSpectralPeakLocator
;	COMDAT __real@3ff0000000000000
CONST	SEGMENT
__real@3ff0000000000000 DQ 03ff0000000000000r	; 1
; Function compile flags: /Odtp /RTCsu /ZI
CONST	ENDS
;	COMDAT _QuinnSpectralPeakLocator
_TEXT	SEGMENT
tv168 = -268						; size = 4
tv195 = -264						; size = 8
tv160 = -256						; size = 4
_dblDelta2$ = -56					; size = 4
_dblDelta1$ = -44					; size = 4
_dblAlpha2$ = -32					; size = 4
_dblAlpha1$ = -20					; size = 4
_dblDenom$ = -8						; size = 4
_XkM1Re$ = 8						; size = 4
_XkM1Im$ = 12						; size = 4
_XkRe$ = 16						; size = 4
_XkIm$ = 20						; size = 4
_XkP1Re$ = 24						; size = 4
_XkP1Im$ = 28						; size = 4
_QuinnSpectralPeakLocator PROC				; COMDAT

; 1355 : {

  00000	55		 push	 ebp
  00001	8b ec		 mov	 ebp, esp
  00003	81 ec 0c 01 00
	00		 sub	 esp, 268		; 0000010cH
  00009	53		 push	 ebx
  0000a	56		 push	 esi
  0000b	57		 push	 edi
  0000c	8d bd f4 fe ff
	ff		 lea	 edi, DWORD PTR [ebp-268]
  00012	b9 43 00 00 00	 mov	 ecx, 67			; 00000043H
  00017	b8 cc cc cc cc	 mov	 eax, -858993460		; ccccccccH
  0001c	f3 ab		 rep stosd

; 1356 : 	// based on the Quinn algorithm in Streamlining Digital Processing page 139
; 1357 : 	// Alpha1 = Re(Xk-1/Xk)
; 1358 : 	// Alpha2 = Re(Xk+1/Xk)
; 1359 : 	//Delta1 = Alpha1/(1 - Alpha1)
; 1360 : 	//'Delta2 = Alpha2/(1 - Alpha2)
; 1361 : 	// if Delta1 > 0 and Delta2 > 0 then Delta = Delta2 else Delta = Delta1
; 1362 : 	// should be within .1 bin for S:N > 2 dB
; 1363 : 
; 1364 : 	float dblDenom = powf(XkRe, 2) + powf(XkIm, 2);

  0001e	83 ec 08	 sub	 esp, 8
  00021	dd 05 00 00 00
	00		 fld	 QWORD PTR __real@4000000000000000
  00027	dd 1c 24	 fstp	 QWORD PTR [esp]
  0002a	d9 45 10	 fld	 DWORD PTR _XkRe$[ebp]
  0002d	83 ec 08	 sub	 esp, 8
  00030	dd 1c 24	 fstp	 QWORD PTR [esp]
  00033	e8 00 00 00 00	 call	 _pow
  00038	83 c4 10	 add	 esp, 16			; 00000010H
  0003b	d9 9d 00 ff ff
	ff		 fstp	 DWORD PTR tv160[ebp]
  00041	d9 85 00 ff ff
	ff		 fld	 DWORD PTR tv160[ebp]
  00047	83 ec 08	 sub	 esp, 8
  0004a	dd 05 00 00 00
	00		 fld	 QWORD PTR __real@4000000000000000
  00050	dd 1c 24	 fstp	 QWORD PTR [esp]
  00053	d9 45 14	 fld	 DWORD PTR _XkIm$[ebp]
  00056	83 ec 08	 sub	 esp, 8
  00059	dd 1c 24	 fstp	 QWORD PTR [esp]
  0005c	dd 9d f8 fe ff
	ff		 fstp	 QWORD PTR tv195[ebp]
  00062	e8 00 00 00 00	 call	 _pow
  00067	83 c4 10	 add	 esp, 16			; 00000010H
  0006a	d9 9d f4 fe ff
	ff		 fstp	 DWORD PTR tv168[ebp]
  00070	d9 85 f4 fe ff
	ff		 fld	 DWORD PTR tv168[ebp]
  00076	dc 85 f8 fe ff
	ff		 fadd	 QWORD PTR tv195[ebp]
  0007c	d9 5d f8	 fstp	 DWORD PTR _dblDenom$[ebp]

; 1365 : 	float dblAlpha1;
; 1366 : 	float dblAlpha2;
; 1367 : 	float dblDelta1;
; 1368 : 	float dblDelta2;
; 1369 : 
; 1370 : 	dblAlpha1 = ((XkM1Re * XkRe) + (XkM1Im * XkIm)) / dblDenom;

  0007f	d9 45 08	 fld	 DWORD PTR _XkM1Re$[ebp]
  00082	d8 4d 10	 fmul	 DWORD PTR _XkRe$[ebp]
  00085	d9 45 0c	 fld	 DWORD PTR _XkM1Im$[ebp]
  00088	d8 4d 14	 fmul	 DWORD PTR _XkIm$[ebp]
  0008b	de c1		 faddp	 ST(1), ST(0)
  0008d	d8 75 f8	 fdiv	 DWORD PTR _dblDenom$[ebp]
  00090	d9 5d ec	 fstp	 DWORD PTR _dblAlpha1$[ebp]

; 1371 : 	dblAlpha2 = ((XkP1Re * XkRe) + (XkP1Im * XkIm)) / dblDenom;

  00093	d9 45 18	 fld	 DWORD PTR _XkP1Re$[ebp]
  00096	d8 4d 10	 fmul	 DWORD PTR _XkRe$[ebp]
  00099	d9 45 1c	 fld	 DWORD PTR _XkP1Im$[ebp]
  0009c	d8 4d 14	 fmul	 DWORD PTR _XkIm$[ebp]
  0009f	de c1		 faddp	 ST(1), ST(0)
  000a1	d8 75 f8	 fdiv	 DWORD PTR _dblDenom$[ebp]
  000a4	d9 5d e0	 fstp	 DWORD PTR _dblAlpha2$[ebp]

; 1372 : 	dblDelta1 = dblAlpha1 / (1 - dblAlpha1);

  000a7	d9 45 ec	 fld	 DWORD PTR _dblAlpha1$[ebp]
  000aa	d9 e8		 fld1
  000ac	de e1		 fsubrp	 ST(1), ST(0)
  000ae	d8 7d ec	 fdivr	 DWORD PTR _dblAlpha1$[ebp]
  000b1	d9 5d d4	 fstp	 DWORD PTR _dblDelta1$[ebp]

; 1373 : 	dblDelta2 = dblAlpha2 / (1 - dblAlpha2);

  000b4	d9 45 e0	 fld	 DWORD PTR _dblAlpha2$[ebp]
  000b7	d9 e8		 fld1
  000b9	de e1		 fsubrp	 ST(1), ST(0)
  000bb	d8 7d e0	 fdivr	 DWORD PTR _dblAlpha2$[ebp]
  000be	d9 5d c8	 fstp	 DWORD PTR _dblDelta2$[ebp]

; 1374 : 
; 1375 : 	if (dblDelta1 > 0 &&  dblDelta2 > 0)

  000c1	d9 45 d4	 fld	 DWORD PTR _dblDelta1$[ebp]
  000c4	dc 1d 00 00 00
	00		 fcomp	 QWORD PTR __real@0000000000000000
  000ca	df e0		 fnstsw	 ax
  000cc	f6 c4 41	 test	 ah, 65			; 00000041H
  000cf	75 17		 jne	 SHORT $LN2@QuinnSpect
  000d1	d9 45 c8	 fld	 DWORD PTR _dblDelta2$[ebp]
  000d4	dc 1d 00 00 00
	00		 fcomp	 QWORD PTR __real@0000000000000000
  000da	df e0		 fnstsw	 ax
  000dc	f6 c4 41	 test	 ah, 65			; 00000041H
  000df	75 07		 jne	 SHORT $LN2@QuinnSpect

; 1376 : 		return dblDelta2;

  000e1	d9 45 c8	 fld	 DWORD PTR _dblDelta2$[ebp]
  000e4	eb 05		 jmp	 SHORT $LN1@QuinnSpect

; 1377 : 	else

  000e6	eb 03		 jmp	 SHORT $LN1@QuinnSpect
$LN2@QuinnSpect:

; 1378 : 		return dblDelta1;

  000e8	d9 45 d4	 fld	 DWORD PTR _dblDelta1$[ebp]
$LN1@QuinnSpect:

; 1379 : }

  000eb	5f		 pop	 edi
  000ec	5e		 pop	 esi
  000ed	5b		 pop	 ebx
  000ee	81 c4 0c 01 00
	00		 add	 esp, 268		; 0000010cH
  000f4	3b ec		 cmp	 ebp, esp
  000f6	e8 00 00 00 00	 call	 __RTC_CheckEsp
  000fb	8b e5		 mov	 esp, ebp
  000fd	5d		 pop	 ebp
  000fe	c3		 ret	 0
_QuinnSpectralPeakLocator ENDP
_TEXT	ENDS
PUBLIC	??_C@_0DM@CHGGENKN@Leader?$DL?5S?3N?$CI3KHz?$CJ?5Early?$DN?5?$CFf?5dB?0?5@ ; `string'
PUBLIC	__real@4034cccccccccccd
PUBLIC	__real@4037cccccccccccd
PUBLIC	__real@c008000000000000
PUBLIC	__real@4008000000000000
PUBLIC	__real@4019000000000000
PUBLIC	??_C@_0BP@FCBHJODI@?5QSPL?5Left?$DN?5?$CFf?5?5QSPL?5Right?$DN?5?$CFf?$AA@ ; `string'
PUBLIC	??_C@_0CG@FHFOAMLN@Fine?5Search?5S?3N?$DN?5?$CFf?5dB?0?5Prior?5S?3@ ; `string'
PUBLIC	__real@404e800000000000
PUBLIC	__real@404d800000000000
PUBLIC	__real@404f800000000000
PUBLIC	__real@404f000000000000
PUBLIC	__real@404d000000000000
PUBLIC	__real@404c800000000000
PUBLIC	__real@4039000000000000
PUBLIC	__real@405f800000000000
PUBLIC	__real@405f000000000000
PUBLIC	__real@405d000000000000
PUBLIC	__real@405c800000000000
PUBLIC	__real@405e800000000000
PUBLIC	__real@405d800000000000
PUBLIC	__real@408f380000000000
PUBLIC	__real@405e000000000000
PUBLIC	__real@4024000000000000
PUBLIC	__real@3fd0000000000000
PUBLIC	__real@4058800000000000
PUBLIC	__real@4029000000000000
PUBLIC	__real@4069000000000000
PUBLIC	__real@3f800000
PUBLIC	__real@3e99999a
EXTRN	_dblLeaderSNAvg:DWORD
EXTRN	_intLeaderDetects:DWORD
EXTRN	_sprintf:PROC
EXTRN	_fabs:PROC
EXTRN	_Squelch:DWORD
EXTRN	_SlowCPU:DWORD
EXTRN	_log10:PROC
EXTRN	_sqrt:PROC
EXTRN	_TuningRange:DWORD
;	COMDAT ??_C@_0DM@CHGGENKN@Leader?$DL?5S?3N?$CI3KHz?$CJ?5Early?$DN?5?$CFf?5dB?0?5@
CONST	SEGMENT
??_C@_0DM@CHGGENKN@Leader?$DL?5S?3N?$CI3KHz?$CJ?5Early?$DN?5?$CFf?5dB?0?5@ DB 'L'
	DB	'eader; S:N(3KHz) Early= %f dB, Full %f dB, Offset= %f Hz: ', 00H ; `string'
CONST	ENDS
;	COMDAT __real@4034cccccccccccd
CONST	SEGMENT
__real@4034cccccccccccd DQ 04034cccccccccccdr	; 20.8
CONST	ENDS
;	COMDAT __real@4037cccccccccccd
CONST	SEGMENT
__real@4037cccccccccccd DQ 04037cccccccccccdr	; 23.8
CONST	ENDS
;	COMDAT __real@c008000000000000
CONST	SEGMENT
__real@c008000000000000 DQ 0c008000000000000r	; -3
CONST	ENDS
;	COMDAT __real@4008000000000000
CONST	SEGMENT
__real@4008000000000000 DQ 04008000000000000r	; 3
CONST	ENDS
;	COMDAT __real@4019000000000000
CONST	SEGMENT
__real@4019000000000000 DQ 04019000000000000r	; 6.25
CONST	ENDS
;	COMDAT ??_C@_0BP@FCBHJODI@?5QSPL?5Left?$DN?5?$CFf?5?5QSPL?5Right?$DN?5?$CFf?$AA@
CONST	SEGMENT
??_C@_0BP@FCBHJODI@?5QSPL?5Left?$DN?5?$CFf?5?5QSPL?5Right?$DN?5?$CFf?$AA@ DB ' '
	DB	'QSPL Left= %f  QSPL Right= %f', 00H		; `string'
CONST	ENDS
;	COMDAT ??_C@_0CG@FHFOAMLN@Fine?5Search?5S?3N?$DN?5?$CFf?5dB?0?5Prior?5S?3@
CONST	SEGMENT
??_C@_0CG@FHFOAMLN@Fine?5Search?5S?3N?$DN?5?$CFf?5dB?0?5Prior?5S?3@ DB 'F'
	DB	'ine Search S:N= %f dB, Prior S:N= %f', 00H	; `string'
CONST	ENDS
;	COMDAT __real@404e800000000000
CONST	SEGMENT
__real@404e800000000000 DQ 0404e800000000000r	; 61
CONST	ENDS
;	COMDAT __real@404d800000000000
CONST	SEGMENT
__real@404d800000000000 DQ 0404d800000000000r	; 59
CONST	ENDS
;	COMDAT __real@404f800000000000
CONST	SEGMENT
__real@404f800000000000 DQ 0404f800000000000r	; 63
CONST	ENDS
;	COMDAT __real@404f000000000000
CONST	SEGMENT
__real@404f000000000000 DQ 0404f000000000000r	; 62
CONST	ENDS
;	COMDAT __real@404d000000000000
CONST	SEGMENT
__real@404d000000000000 DQ 0404d000000000000r	; 58
CONST	ENDS
;	COMDAT __real@404c800000000000
CONST	SEGMENT
__real@404c800000000000 DQ 0404c800000000000r	; 57
CONST	ENDS
;	COMDAT __real@4039000000000000
CONST	SEGMENT
__real@4039000000000000 DQ 04039000000000000r	; 25
CONST	ENDS
;	COMDAT __real@405f800000000000
CONST	SEGMENT
__real@405f800000000000 DQ 0405f800000000000r	; 126
CONST	ENDS
;	COMDAT __real@405f000000000000
CONST	SEGMENT
__real@405f000000000000 DQ 0405f000000000000r	; 124
CONST	ENDS
;	COMDAT __real@405d000000000000
CONST	SEGMENT
__real@405d000000000000 DQ 0405d000000000000r	; 116
CONST	ENDS
;	COMDAT __real@405c800000000000
CONST	SEGMENT
__real@405c800000000000 DQ 0405c800000000000r	; 114
CONST	ENDS
;	COMDAT __real@405e800000000000
CONST	SEGMENT
__real@405e800000000000 DQ 0405e800000000000r	; 122
CONST	ENDS
;	COMDAT __real@405d800000000000
CONST	SEGMENT
__real@405d800000000000 DQ 0405d800000000000r	; 118
CONST	ENDS
;	COMDAT __real@408f380000000000
CONST	SEGMENT
__real@408f380000000000 DQ 0408f380000000000r	; 999
CONST	ENDS
;	COMDAT __real@405e000000000000
CONST	SEGMENT
__real@405e000000000000 DQ 0405e000000000000r	; 120
CONST	ENDS
;	COMDAT __real@4024000000000000
CONST	SEGMENT
__real@4024000000000000 DQ 04024000000000000r	; 10
CONST	ENDS
;	COMDAT __real@3fd0000000000000
CONST	SEGMENT
__real@3fd0000000000000 DQ 03fd0000000000000r	; 0.25
CONST	ENDS
;	COMDAT __real@4058800000000000
CONST	SEGMENT
__real@4058800000000000 DQ 04058800000000000r	; 98
CONST	ENDS
;	COMDAT __real@4029000000000000
CONST	SEGMENT
__real@4029000000000000 DQ 04029000000000000r	; 12.5
CONST	ENDS
;	COMDAT __real@4069000000000000
CONST	SEGMENT
__real@4069000000000000 DQ 04069000000000000r	; 200
CONST	ENDS
;	COMDAT __real@3f800000
CONST	SEGMENT
__real@3f800000 DD 03f800000r			; 1
CONST	ENDS
;	COMDAT __real@3e99999a
CONST	SEGMENT
__real@3e99999a DD 03e99999ar			; 0.3
; Function compile flags: /Odtp /RTCsu /ZI
CONST	ENDS
;	COMDAT _SearchFor2ToneLeader2
_TEXT	SEGMENT
tv1426 = -1224						; size = 4
tv1401 = -1224						; size = 4
tv1369 = -1224						; size = 4
tv1342 = -1224						; size = 4
tv1315 = -1224						; size = 4
tv1288 = -1224						; size = 4
tv1234 = -1224						; size = 4
tv1199 = -1224						; size = 4
tv1168 = -1224						; size = 4
tv1141 = -1224						; size = 4
tv1114 = -1224						; size = 4
tv1087 = -1224						; size = 4
tv942 = -1224						; size = 4
tv1624 = -1220						; size = 8
tv1622 = -1220						; size = 8
tv1620 = -1220						; size = 8
tv1618 = -1220						; size = 8
tv1616 = -1220						; size = 8
tv1614 = -1220						; size = 8
tv1612 = -1220						; size = 8
tv1610 = -1220						; size = 8
tv1608 = -1220						; size = 8
tv1606 = -1220						; size = 8
tv1604 = -1220						; size = 8
tv1602 = -1220						; size = 8
tv1600 = -1220						; size = 8
tv847 = -1216						; size = 8
tv830 = -1216						; size = 8
tv1547 = -1212						; size = 4
tv1506 = -1212						; size = 4
tv1460 = -1212						; size = 4
tv1454 = -1212						; size = 4
tv1448 = -1212						; size = 4
tv1418 = -1212						; size = 4
tv1393 = -1212						; size = 4
tv1361 = -1212						; size = 4
tv1348 = -1212						; size = 4
tv1334 = -1212						; size = 4
tv1321 = -1212						; size = 4
tv1307 = -1212						; size = 4
tv1294 = -1212						; size = 4
tv1280 = -1212						; size = 4
tv1267 = -1212						; size = 4
tv1261 = -1212						; size = 4
tv1239 = -1212						; size = 4
tv1226 = -1212						; size = 4
tv1209 = -1212						; size = 4
tv1204 = -1212						; size = 4
tv1191 = -1212						; size = 4
tv1174 = -1212						; size = 4
tv1160 = -1212						; size = 4
tv1147 = -1212						; size = 4
tv1133 = -1212						; size = 4
tv1120 = -1212						; size = 4
tv1106 = -1212						; size = 4
tv1093 = -1212						; size = 4
tv1079 = -1212						; size = 4
tv1066 = -1212						; size = 4
tv975 = -1212						; size = 4
tv958 = -1212						; size = 4
tv931 = -1212						; size = 4
tv917 = -1212						; size = 4
_dblSNdBPwrEarly$ = -1012				; size = 4
_dblPowerEarly$ = -1000					; size = 4
_dblTrialOffset$ = -988					; size = 4
_dblCoarseOffset$ = -976				; size = 4
_dblBinAdj1525$ = -964					; size = 4
_dblBinAdj1475$ = -952					; size = 4
_dblCoarsePwrSN$ = -940					; size = 4
_dblAvgNoisePerBin$ = -928				; size = 4
_Ptr$ = -916						; size = 4
_i$ = -904						; size = 4
_dblRightI$ = -892					; size = 12
_dblRightR$ = -872					; size = 12
_dblLeftI$ = -852					; size = 12
_dblLeftR$ = -832					; size = 12
_dblRightP$ = -812					; size = 4
_dblLeftP$ = -800					; size = 4
_dblCtrI$ = -776					; size = 4
_dblCtrR$ = -764					; size = 4
_dblBinInterpRight$ = -752				; size = 4
_dblBinInterpLeft$ = -740				; size = 4
_dblRightCar$ = -728					; size = 4
_dblLeftCar$ = -716					; size = 4
_intStopBin$ = -704					; size = 4
_intStartBin$ = -692					; size = 4
_dblFilteredMaxPeak$ = -680				; size = 4
_dblInterpretThreshold$ = -668				; size = 4
_dblAlpha$ = -656					; size = 4
_intIatMaxPeak$ = -644					; size = 4
_intInterpCnt$ = -632					; size = 4
_dblBinAdj$ = -620					; size = 4
_dblMaxPeakSN$ = -596					; size = 4
_dblMaxPeak$ = -584					; size = 4
_dblPower$ = -572					; size = 4
_dblMag$ = -560						; size = 180
_dblGoertzelImag$ = -372				; size = 180
_dblGoertzelReal$ = -184				; size = 180
_intNewSamples$ = 8					; size = 4
_Length$ = 12						; size = 4
_dblOffsetHz$ = 16					; size = 4
_intSN$ = 20						; size = 4
_SearchFor2ToneLeader2 PROC				; COMDAT

; 1655 : {

  00000	55		 push	 ebp
  00001	8b ec		 mov	 ebp, esp
  00003	81 ec c8 04 00
	00		 sub	 esp, 1224		; 000004c8H
  00009	53		 push	 ebx
  0000a	56		 push	 esi
  0000b	57		 push	 edi
  0000c	8d bd 38 fb ff
	ff		 lea	 edi, DWORD PTR [ebp-1224]
  00012	b9 32 01 00 00	 mov	 ecx, 306		; 00000132H
  00017	b8 cc cc cc cc	 mov	 eax, -858993460		; ccccccccH
  0001c	f3 ab		 rep stosd

; 1656 : 	// search through the samples looking for the telltail 50 baud 2 tone pattern (nominal tones 1475, 1525 Hz) 
; 1657 : 	// Find the offset in Hz (due to missmatch in transmitter - receiver tuning
; 1658 : 	// Finds the S:N (power ratio of the tones 1475 and 1525 ratioed to "noise" averaged from bins at 1425, 1450, 1550, and 1575Hz)
; 1659 :  
; 1660 : 	float dblGoertzelReal[45];
; 1661 : 	float dblGoertzelImag[45];
; 1662 : 	float dblMag[45];
; 1663 : 	float dblPower;
; 1664 : 	float dblMaxPeak = 0.0, dblMaxPeakSN = 0.0, dblInterpM, dblBinAdj;

  0001e	d9 ee		 fldz
  00020	d9 9d b8 fd ff
	ff		 fstp	 DWORD PTR _dblMaxPeak$[ebp]
  00026	d9 ee		 fldz
  00028	d9 9d ac fd ff
	ff		 fstp	 DWORD PTR _dblMaxPeakSN$[ebp]

; 1665 : 	int intInterpCnt = 0;  // the count 0 to 3 of the interpolations that were < +/- .5 bin

  0002e	c7 85 88 fd ff
	ff 00 00 00 00	 mov	 DWORD PTR _intInterpCnt$[ebp], 0

; 1666 : 	int  intIatMaxPeak = 0;

  00038	c7 85 7c fd ff
	ff 00 00 00 00	 mov	 DWORD PTR _intIatMaxPeak$[ebp], 0

; 1667 : 	float dblAlpha = 0.3f;  // Works well possibly some room for optimization Changed from .5 to .3 on Rev 0.1.5.3

  00042	d9 05 00 00 00
	00		 fld	 DWORD PTR __real@3e99999a
  00048	d9 9d 70 fd ff
	ff		 fstp	 DWORD PTR _dblAlpha$[ebp]

; 1668 : 	float dblInterpretThreshold= 1.0f; // Good results June 6, 2014 (was .4)  ' Works well possibly some room for optimization

  0004e	d9 e8		 fld1
  00050	d9 9d 64 fd ff
	ff		 fstp	 DWORD PTR _dblInterpretThreshold$[ebp]

; 1669 : 	float dblFilteredMaxPeak = 0;

  00056	d9 ee		 fldz
  00058	d9 9d 58 fd ff
	ff		 fstp	 DWORD PTR _dblFilteredMaxPeak$[ebp]

; 1670 : 	int intStartBin, intStopBin;
; 1671 : 	float dblLeftCar, dblRightCar, dblBinInterpLeft, dblBinInterpRight, dblCtrR, dblCtrI, dblCtrP, dblLeftP, dblRightP;
; 1672 : 	float dblLeftR[3], dblLeftI[3], dblRightR[3], dblRightI[3];
; 1673 : 	int i;
; 1674 : 	int Ptr = 0;

  0005e	c7 85 6c fc ff
	ff 00 00 00 00	 mov	 DWORD PTR _Ptr$[ebp], 0

; 1675 : 	float dblAvgNoisePerBin, dblCoarsePwrSN, dblBinAdj1475, dblBinAdj1525, dblCoarseOffset;
; 1676 : 	float dblTrialOffset, dblPowerEarly, dblSNdBPwrEarly;
; 1677 : 
; 1678 : 	if ((Length) < 960)

  00068	81 7d 0c c0 03
	00 00		 cmp	 DWORD PTR _Length$[ebp], 960 ; 000003c0H
  0006f	7d 07		 jge	 SHORT $LN39@SearchFor2

; 1679 : 		return FALSE;		// ensure there are at least 960 samples (4 symbols of 240 samples)

  00071	33 c0		 xor	 eax, eax
  00073	e9 89 13 00 00	 jmp	 $LN3@SearchFor2
$LN39@SearchFor2:

; 1680 : 
; 1681 : 	// Compute the start and stop bins based on the tuning range Each bin is 12000/960 or 12.5 Hz/bin
; 1682 :      
; 1683 : 	if ((Now - dttLastGoodFrameTypeDecod > 20000) && TuningRange > 0)

  00078	e8 00 00 00 00	 call	 _getTicks
  0007d	2b 05 00 00 00
	00		 sub	 eax, DWORD PTR _dttLastGoodFrameTypeDecod
  00083	3d 20 4e 00 00	 cmp	 eax, 20000		; 00004e20H
  00088	0f 86 c7 04 00
	00		 jbe	 $LN23@SearchFor2
  0008e	83 3d 00 00 00
	00 00		 cmp	 DWORD PTR _TuningRange, 0
  00095	0f 8e ba 04 00
	00		 jle	 $LN23@SearchFor2

; 1684 : 	{
; 1685 : 		// this is the full search over the full tuning range selected.  Uses more CPU time and with possibly larger deviation once connected. 
; 1686 : 		
; 1687 : 		intStartBin = ((200.0f - TuningRange) / 12.5f);

  0009b	db 05 00 00 00
	00		 fild	 DWORD PTR _TuningRange
  000a1	dc 2d 00 00 00
	00		 fsubr	 QWORD PTR __real@4069000000000000
  000a7	dc 35 00 00 00
	00		 fdiv	 QWORD PTR __real@4029000000000000
  000ad	e8 00 00 00 00	 call	 __ftol2_sse
  000b2	89 85 4c fd ff
	ff		 mov	 DWORD PTR _intStartBin$[ebp], eax

; 1688 : 		intStopBin = 44 - intStartBin;

  000b8	b8 2c 00 00 00	 mov	 eax, 44			; 0000002cH
  000bd	2b 85 4c fd ff
	ff		 sub	 eax, DWORD PTR _intStartBin$[ebp]
  000c3	89 85 40 fd ff
	ff		 mov	 DWORD PTR _intStopBin$[ebp], eax

; 1689 : 
; 1690 : 		dblMaxPeak = 0;

  000c9	d9 ee		 fldz
  000cb	d9 9d b8 fd ff
	ff		 fstp	 DWORD PTR _dblMaxPeak$[ebp]

; 1691 : 
; 1692 : 		// Generate the Power magnitudes for up to 45 12.5 Hz bins (a function of MCB.TuningRange) 
; 1693 :   
; 1694 :   
; 1695 : 		for (i = intStartBin; i <= intStopBin; i++)

  000d1	8b 85 4c fd ff
	ff		 mov	 eax, DWORD PTR _intStartBin$[ebp]
  000d7	89 85 78 fc ff
	ff		 mov	 DWORD PTR _i$[ebp], eax
  000dd	eb 0f		 jmp	 SHORT $LN37@SearchFor2
$LN36@SearchFor2:
  000df	8b 85 78 fc ff
	ff		 mov	 eax, DWORD PTR _i$[ebp]
  000e5	83 c0 01	 add	 eax, 1
  000e8	89 85 78 fc ff
	ff		 mov	 DWORD PTR _i$[ebp], eax
$LN37@SearchFor2:
  000ee	8b 85 78 fc ff
	ff		 mov	 eax, DWORD PTR _i$[ebp]
  000f4	3b 85 40 fd ff
	ff		 cmp	 eax, DWORD PTR _intStopBin$[ebp]
  000fa	0f 8f d4 00 00
	00		 jg	 $LN35@SearchFor2

; 1696 : 		{
; 1697 : 			GoertzelRealImag(intNewSamples, Ptr, 960, i + 98.0f, &dblGoertzelReal[i], &dblGoertzelImag[i]);

  00100	8b 85 78 fc ff
	ff		 mov	 eax, DWORD PTR _i$[ebp]
  00106	8d 8c 85 8c fe
	ff ff		 lea	 ecx, DWORD PTR _dblGoertzelImag$[ebp+eax*4]
  0010d	51		 push	 ecx
  0010e	8b 95 78 fc ff
	ff		 mov	 edx, DWORD PTR _i$[ebp]
  00114	8d 84 95 48 ff
	ff ff		 lea	 eax, DWORD PTR _dblGoertzelReal$[ebp+edx*4]
  0011b	50		 push	 eax
  0011c	db 85 78 fc ff
	ff		 fild	 DWORD PTR _i$[ebp]
  00122	dc 05 00 00 00
	00		 fadd	 QWORD PTR __real@4058800000000000
  00128	d9 9d 44 fb ff
	ff		 fstp	 DWORD PTR tv917[ebp]
  0012e	d9 85 44 fb ff
	ff		 fld	 DWORD PTR tv917[ebp]
  00134	51		 push	 ecx
  00135	d9 1c 24	 fstp	 DWORD PTR [esp]
  00138	68 c0 03 00 00	 push	 960			; 000003c0H
  0013d	8b 8d 6c fc ff
	ff		 mov	 ecx, DWORD PTR _Ptr$[ebp]
  00143	51		 push	 ecx
  00144	8b 55 08	 mov	 edx, DWORD PTR _intNewSamples$[ebp]
  00147	52		 push	 edx
  00148	e8 00 00 00 00	 call	 _GoertzelRealImag
  0014d	83 c4 18	 add	 esp, 24			; 00000018H

; 1698 : 				dblMag[i] = powf(dblGoertzelReal[i], 2) + powf(dblGoertzelImag[i], 2); // dblMag(i) in units of power (V^2)

  00150	83 ec 08	 sub	 esp, 8
  00153	dd 05 00 00 00
	00		 fld	 QWORD PTR __real@4000000000000000
  00159	dd 1c 24	 fstp	 QWORD PTR [esp]
  0015c	8b 85 78 fc ff
	ff		 mov	 eax, DWORD PTR _i$[ebp]
  00162	d9 84 85 48 ff
	ff ff		 fld	 DWORD PTR _dblGoertzelReal$[ebp+eax*4]
  00169	83 ec 08	 sub	 esp, 8
  0016c	dd 1c 24	 fstp	 QWORD PTR [esp]
  0016f	e8 00 00 00 00	 call	 _pow
  00174	83 c4 10	 add	 esp, 16			; 00000010H
  00177	d9 9d 44 fb ff
	ff		 fstp	 DWORD PTR tv931[ebp]
  0017d	d9 85 44 fb ff
	ff		 fld	 DWORD PTR tv931[ebp]
  00183	83 ec 08	 sub	 esp, 8
  00186	dd 05 00 00 00
	00		 fld	 QWORD PTR __real@4000000000000000
  0018c	dd 1c 24	 fstp	 QWORD PTR [esp]
  0018f	8b 8d 78 fc ff
	ff		 mov	 ecx, DWORD PTR _i$[ebp]
  00195	d9 84 8d 8c fe
	ff ff		 fld	 DWORD PTR _dblGoertzelImag$[ebp+ecx*4]
  0019c	83 ec 08	 sub	 esp, 8
  0019f	dd 1c 24	 fstp	 QWORD PTR [esp]
  001a2	dd 9d 3c fb ff
	ff		 fstp	 QWORD PTR tv1600[ebp]
  001a8	e8 00 00 00 00	 call	 _pow
  001ad	83 c4 10	 add	 esp, 16			; 00000010H
  001b0	d9 9d 38 fb ff
	ff		 fstp	 DWORD PTR tv942[ebp]
  001b6	d9 85 38 fb ff
	ff		 fld	 DWORD PTR tv942[ebp]
  001bc	dc 85 3c fb ff
	ff		 fadd	 QWORD PTR tv1600[ebp]
  001c2	8b 95 78 fc ff
	ff		 mov	 edx, DWORD PTR _i$[ebp]
  001c8	d9 9c 95 d0 fd
	ff ff		 fstp	 DWORD PTR _dblMag$[ebp+edx*4]

; 1699 : 		}

  001cf	e9 0b ff ff ff	 jmp	 $LN36@SearchFor2
$LN35@SearchFor2:

; 1700 : 
; 1701 : 		// Search the bins to locate the max S:N in the two tone signal/avg noise.  
; 1702 :  
; 1703 : 		for (i = intStartBin + 4; i <= intStopBin - 8; i++)	// ' +/- MCB.TuningRange from nominal 

  001d4	8b 85 4c fd ff
	ff		 mov	 eax, DWORD PTR _intStartBin$[ebp]
  001da	83 c0 04	 add	 eax, 4
  001dd	89 85 78 fc ff
	ff		 mov	 DWORD PTR _i$[ebp], eax
  001e3	eb 0f		 jmp	 SHORT $LN34@SearchFor2
$LN33@SearchFor2:
  001e5	8b 85 78 fc ff
	ff		 mov	 eax, DWORD PTR _i$[ebp]
  001eb	83 c0 01	 add	 eax, 1
  001ee	89 85 78 fc ff
	ff		 mov	 DWORD PTR _i$[ebp], eax
$LN34@SearchFor2:
  001f4	8b 85 40 fd ff
	ff		 mov	 eax, DWORD PTR _intStopBin$[ebp]
  001fa	83 e8 08	 sub	 eax, 8
  001fd	39 85 78 fc ff
	ff		 cmp	 DWORD PTR _i$[ebp], eax
  00203	0f 8f ed 00 00
	00		 jg	 $LN32@SearchFor2

; 1704 : 		{
; 1705 : 			dblPower = sqrtf(dblMag[i + 8] * dblMag[i + 4]); // using the product to minimize sensitivity to one strong carrier vs the two tone

  00209	8b 85 78 fc ff
	ff		 mov	 eax, DWORD PTR _i$[ebp]
  0020f	d9 84 85 f0 fd
	ff ff		 fld	 DWORD PTR _dblMag$[ebp+eax*4+32]
  00216	8b 8d 78 fc ff
	ff		 mov	 ecx, DWORD PTR _i$[ebp]
  0021c	d8 8c 8d e0 fd
	ff ff		 fmul	 DWORD PTR _dblMag$[ebp+ecx*4+16]
  00223	83 ec 08	 sub	 esp, 8
  00226	dd 1c 24	 fstp	 QWORD PTR [esp]
  00229	e8 00 00 00 00	 call	 _sqrt
  0022e	83 c4 08	 add	 esp, 8
  00231	d9 9d 44 fb ff
	ff		 fstp	 DWORD PTR tv958[ebp]
  00237	d9 85 44 fb ff
	ff		 fld	 DWORD PTR tv958[ebp]
  0023d	d9 9d c4 fd ff
	ff		 fstp	 DWORD PTR _dblPower$[ebp]

; 1706 : 			// sqrt converts back to units of power from Power ^2
; 1707 : 			
; 1708 : 			// don't use center noise bin as too easily corrupted by adjacent carriers
; 1709 : 
; 1710 : 			dblAvgNoisePerBin = (dblMag[i - 4] + dblMag[i - 2] + dblMag[i + 6] + dblMag[i + 8]) * 0.25f;  // Simple average

  00243	8b 85 78 fc ff
	ff		 mov	 eax, DWORD PTR _i$[ebp]
  00249	d9 84 85 c0 fd
	ff ff		 fld	 DWORD PTR _dblMag$[ebp+eax*4-16]
  00250	8b 8d 78 fc ff
	ff		 mov	 ecx, DWORD PTR _i$[ebp]
  00256	d8 84 8d c8 fd
	ff ff		 fadd	 DWORD PTR _dblMag$[ebp+ecx*4-8]
  0025d	8b 95 78 fc ff
	ff		 mov	 edx, DWORD PTR _i$[ebp]
  00263	d8 84 95 e8 fd
	ff ff		 fadd	 DWORD PTR _dblMag$[ebp+edx*4+24]
  0026a	8b 85 78 fc ff
	ff		 mov	 eax, DWORD PTR _i$[ebp]
  00270	d8 84 85 f0 fd
	ff ff		 fadd	 DWORD PTR _dblMag$[ebp+eax*4+32]
  00277	dc 0d 00 00 00
	00		 fmul	 QWORD PTR __real@3fd0000000000000
  0027d	d9 9d 60 fc ff
	ff		 fstp	 DWORD PTR _dblAvgNoisePerBin$[ebp]

; 1711 : 			dblMaxPeak = dblPower / dblAvgNoisePerBin;

  00283	d9 85 c4 fd ff
	ff		 fld	 DWORD PTR _dblPower$[ebp]
  00289	d8 b5 60 fc ff
	ff		 fdiv	 DWORD PTR _dblAvgNoisePerBin$[ebp]
  0028f	d9 9d b8 fd ff
	ff		 fstp	 DWORD PTR _dblMaxPeak$[ebp]

; 1712 : 			if (dblMaxPeak > dblMaxPeakSN)

  00295	d9 85 b8 fd ff
	ff		 fld	 DWORD PTR _dblMaxPeak$[ebp]
  0029b	d9 85 ac fd ff
	ff		 fld	 DWORD PTR _dblMaxPeakSN$[ebp]
  002a1	de d9		 fcompp
  002a3	df e0		 fnstsw	 ax
  002a5	f6 c4 05	 test	 ah, 5
  002a8	7a 47		 jp	 SHORT $LN31@SearchFor2

; 1713 : 			{
; 1714 : 				dblMaxPeakSN = dblMaxPeak;

  002aa	d9 85 b8 fd ff
	ff		 fld	 DWORD PTR _dblMaxPeak$[ebp]
  002b0	d9 9d ac fd ff
	ff		 fstp	 DWORD PTR _dblMaxPeakSN$[ebp]

; 1715 : 				dblCoarsePwrSN = 10 * log10f(dblMaxPeak);

  002b6	d9 85 b8 fd ff
	ff		 fld	 DWORD PTR _dblMaxPeak$[ebp]
  002bc	83 ec 08	 sub	 esp, 8
  002bf	dd 1c 24	 fstp	 QWORD PTR [esp]
  002c2	e8 00 00 00 00	 call	 _log10
  002c7	83 c4 08	 add	 esp, 8
  002ca	d9 9d 44 fb ff
	ff		 fstp	 DWORD PTR tv975[ebp]
  002d0	d9 85 44 fb ff
	ff		 fld	 DWORD PTR tv975[ebp]
  002d6	dc 0d 00 00 00
	00		 fmul	 QWORD PTR __real@4024000000000000
  002dc	d9 9d 54 fc ff
	ff		 fstp	 DWORD PTR _dblCoarsePwrSN$[ebp]

; 1716 : 				intIatMaxPeak = i + 100;

  002e2	8b 85 78 fc ff
	ff		 mov	 eax, DWORD PTR _i$[ebp]
  002e8	83 c0 64	 add	 eax, 100		; 00000064H
  002eb	89 85 7c fd ff
	ff		 mov	 DWORD PTR _intIatMaxPeak$[ebp], eax
$LN31@SearchFor2:

; 1717 : 			}
; 1718 : 		}

  002f1	e9 ef fe ff ff	 jmp	 $LN33@SearchFor2
$LN32@SearchFor2:

; 1719 : 			
; 1720 : 		// Do the interpolation based on the two carriers at nominal 1475 and 1525Hz
; 1721 : 
; 1722 : 		if (((intIatMaxPeak - 101) >= intStartBin) && ((intIatMaxPeak - 95) <= intStopBin)) // check to ensure no index errors

  002f6	8b 85 7c fd ff
	ff		 mov	 eax, DWORD PTR _intIatMaxPeak$[ebp]
  002fc	83 e8 65	 sub	 eax, 101		; 00000065H
  002ff	3b 85 4c fd ff
	ff		 cmp	 eax, DWORD PTR _intStartBin$[ebp]
  00305	0f 8c 0c 02 00
	00		 jl	 $LN30@SearchFor2
  0030b	8b 85 7c fd ff
	ff		 mov	 eax, DWORD PTR _intIatMaxPeak$[ebp]
  00311	83 e8 5f	 sub	 eax, 95			; 0000005fH
  00314	3b 85 40 fd ff
	ff		 cmp	 eax, DWORD PTR _intStopBin$[ebp]
  0031a	0f 8f f7 01 00
	00		 jg	 $LN30@SearchFor2

; 1723 : 		{
; 1724 : 			// Interpolate the adjacent bins using QuinnSpectralPeakLocator
; 1725 : 
; 1726 : 			dblBinAdj1475 = QuinnSpectralPeakLocator(
; 1727 : 				dblGoertzelReal[intIatMaxPeak - 101], dblGoertzelImag[intIatMaxPeak - 101],
; 1728 : 				dblGoertzelReal[intIatMaxPeak - 100], dblGoertzelImag[intIatMaxPeak - 100], 
; 1729 : 				dblGoertzelReal[intIatMaxPeak - 99], dblGoertzelImag[intIatMaxPeak - 99]);

  00320	8b 85 7c fd ff
	ff		 mov	 eax, DWORD PTR _intIatMaxPeak$[ebp]
  00326	51		 push	 ecx
  00327	d9 84 85 00 fd
	ff ff		 fld	 DWORD PTR _dblGoertzelImag$[ebp+eax*4-396]
  0032e	d9 1c 24	 fstp	 DWORD PTR [esp]
  00331	8b 8d 7c fd ff
	ff		 mov	 ecx, DWORD PTR _intIatMaxPeak$[ebp]
  00337	51		 push	 ecx
  00338	d9 84 8d bc fd
	ff ff		 fld	 DWORD PTR _dblGoertzelReal$[ebp+ecx*4-396]
  0033f	d9 1c 24	 fstp	 DWORD PTR [esp]
  00342	8b 95 7c fd ff
	ff		 mov	 edx, DWORD PTR _intIatMaxPeak$[ebp]
  00348	51		 push	 ecx
  00349	d9 84 95 fc fc
	ff ff		 fld	 DWORD PTR _dblGoertzelImag$[ebp+edx*4-400]
  00350	d9 1c 24	 fstp	 DWORD PTR [esp]
  00353	8b 85 7c fd ff
	ff		 mov	 eax, DWORD PTR _intIatMaxPeak$[ebp]
  00359	51		 push	 ecx
  0035a	d9 84 85 b8 fd
	ff ff		 fld	 DWORD PTR _dblGoertzelReal$[ebp+eax*4-400]
  00361	d9 1c 24	 fstp	 DWORD PTR [esp]
  00364	8b 8d 7c fd ff
	ff		 mov	 ecx, DWORD PTR _intIatMaxPeak$[ebp]
  0036a	51		 push	 ecx
  0036b	d9 84 8d f8 fc
	ff ff		 fld	 DWORD PTR _dblGoertzelImag$[ebp+ecx*4-404]
  00372	d9 1c 24	 fstp	 DWORD PTR [esp]
  00375	8b 95 7c fd ff
	ff		 mov	 edx, DWORD PTR _intIatMaxPeak$[ebp]
  0037b	51		 push	 ecx
  0037c	d9 84 95 b4 fd
	ff ff		 fld	 DWORD PTR _dblGoertzelReal$[ebp+edx*4-404]
  00383	d9 1c 24	 fstp	 DWORD PTR [esp]
  00386	e8 00 00 00 00	 call	 _QuinnSpectralPeakLocator
  0038b	83 c4 18	 add	 esp, 24			; 00000018H
  0038e	d9 9d 48 fc ff
	ff		 fstp	 DWORD PTR _dblBinAdj1475$[ebp]

; 1730 : 
; 1731 : 			if (dblBinAdj1475 < dblInterpretThreshold && dblBinAdj1475 > -dblInterpretThreshold)

  00394	d9 85 48 fc ff
	ff		 fld	 DWORD PTR _dblBinAdj1475$[ebp]
  0039a	d9 85 64 fd ff
	ff		 fld	 DWORD PTR _dblInterpretThreshold$[ebp]
  003a0	de d9		 fcompp
  003a2	df e0		 fnstsw	 ax
  003a4	f6 c4 41	 test	 ah, 65			; 00000041H
  003a7	75 32		 jne	 SHORT $LN29@SearchFor2
  003a9	d9 85 64 fd ff
	ff		 fld	 DWORD PTR _dblInterpretThreshold$[ebp]
  003af	d9 e0		 fchs
  003b1	d9 85 48 fc ff
	ff		 fld	 DWORD PTR _dblBinAdj1475$[ebp]
  003b7	de d9		 fcompp
  003b9	df e0		 fnstsw	 ax
  003bb	f6 c4 41	 test	 ah, 65			; 00000041H
  003be	75 1b		 jne	 SHORT $LN29@SearchFor2

; 1732 : 			{
; 1733 : 				dblBinAdj = dblBinAdj1475;

  003c0	d9 85 48 fc ff
	ff		 fld	 DWORD PTR _dblBinAdj1475$[ebp]
  003c6	d9 9d 94 fd ff
	ff		 fstp	 DWORD PTR _dblBinAdj$[ebp]

; 1734 : 				intInterpCnt += 1;

  003cc	8b 85 88 fd ff
	ff		 mov	 eax, DWORD PTR _intInterpCnt$[ebp]
  003d2	83 c0 01	 add	 eax, 1
  003d5	89 85 88 fd ff
	ff		 mov	 DWORD PTR _intInterpCnt$[ebp], eax
$LN29@SearchFor2:

; 1735 : 			}
; 1736 : 
; 1737 : 			dblBinAdj1525 = QuinnSpectralPeakLocator(
; 1738 : 				dblGoertzelReal[intIatMaxPeak - 97], dblGoertzelImag[intIatMaxPeak - 97], 
; 1739 : 				dblGoertzelReal[intIatMaxPeak - 96], dblGoertzelImag[intIatMaxPeak - 96], 
; 1740 : 				dblGoertzelReal[intIatMaxPeak - 95], dblGoertzelImag[intIatMaxPeak - 95]);

  003db	8b 85 7c fd ff
	ff		 mov	 eax, DWORD PTR _intIatMaxPeak$[ebp]
  003e1	51		 push	 ecx
  003e2	d9 84 85 10 fd
	ff ff		 fld	 DWORD PTR _dblGoertzelImag$[ebp+eax*4-380]
  003e9	d9 1c 24	 fstp	 DWORD PTR [esp]
  003ec	8b 8d 7c fd ff
	ff		 mov	 ecx, DWORD PTR _intIatMaxPeak$[ebp]
  003f2	51		 push	 ecx
  003f3	d9 84 8d cc fd
	ff ff		 fld	 DWORD PTR _dblGoertzelReal$[ebp+ecx*4-380]
  003fa	d9 1c 24	 fstp	 DWORD PTR [esp]
  003fd	8b 95 7c fd ff
	ff		 mov	 edx, DWORD PTR _intIatMaxPeak$[ebp]
  00403	51		 push	 ecx
  00404	d9 84 95 0c fd
	ff ff		 fld	 DWORD PTR _dblGoertzelImag$[ebp+edx*4-384]
  0040b	d9 1c 24	 fstp	 DWORD PTR [esp]
  0040e	8b 85 7c fd ff
	ff		 mov	 eax, DWORD PTR _intIatMaxPeak$[ebp]
  00414	51		 push	 ecx
  00415	d9 84 85 c8 fd
	ff ff		 fld	 DWORD PTR _dblGoertzelReal$[ebp+eax*4-384]
  0041c	d9 1c 24	 fstp	 DWORD PTR [esp]
  0041f	8b 8d 7c fd ff
	ff		 mov	 ecx, DWORD PTR _intIatMaxPeak$[ebp]
  00425	51		 push	 ecx
  00426	d9 84 8d 08 fd
	ff ff		 fld	 DWORD PTR _dblGoertzelImag$[ebp+ecx*4-388]
  0042d	d9 1c 24	 fstp	 DWORD PTR [esp]
  00430	8b 95 7c fd ff
	ff		 mov	 edx, DWORD PTR _intIatMaxPeak$[ebp]
  00436	51		 push	 ecx
  00437	d9 84 95 c4 fd
	ff ff		 fld	 DWORD PTR _dblGoertzelReal$[ebp+edx*4-388]
  0043e	d9 1c 24	 fstp	 DWORD PTR [esp]
  00441	e8 00 00 00 00	 call	 _QuinnSpectralPeakLocator
  00446	83 c4 18	 add	 esp, 24			; 00000018H
  00449	d9 9d 3c fc ff
	ff		 fstp	 DWORD PTR _dblBinAdj1525$[ebp]

; 1741 : 
; 1742 : 			if (dblBinAdj1525 < dblInterpretThreshold && dblBinAdj1525 > -dblInterpretThreshold)

  0044f	d9 85 3c fc ff
	ff		 fld	 DWORD PTR _dblBinAdj1525$[ebp]
  00455	d9 85 64 fd ff
	ff		 fld	 DWORD PTR _dblInterpretThreshold$[ebp]
  0045b	de d9		 fcompp
  0045d	df e0		 fnstsw	 ax
  0045f	f6 c4 41	 test	 ah, 65			; 00000041H
  00462	75 38		 jne	 SHORT $LN28@SearchFor2
  00464	d9 85 64 fd ff
	ff		 fld	 DWORD PTR _dblInterpretThreshold$[ebp]
  0046a	d9 e0		 fchs
  0046c	d9 85 3c fc ff
	ff		 fld	 DWORD PTR _dblBinAdj1525$[ebp]
  00472	de d9		 fcompp
  00474	df e0		 fnstsw	 ax
  00476	f6 c4 41	 test	 ah, 65			; 00000041H
  00479	75 21		 jne	 SHORT $LN28@SearchFor2

; 1743 : 			{
; 1744 : 				dblBinAdj += dblBinAdj1525;

  0047b	d9 85 94 fd ff
	ff		 fld	 DWORD PTR _dblBinAdj$[ebp]
  00481	d8 85 3c fc ff
	ff		 fadd	 DWORD PTR _dblBinAdj1525$[ebp]
  00487	d9 9d 94 fd ff
	ff		 fstp	 DWORD PTR _dblBinAdj$[ebp]

; 1745 :         		intInterpCnt += 1;

  0048d	8b 85 88 fd ff
	ff		 mov	 eax, DWORD PTR _intInterpCnt$[ebp]
  00493	83 c0 01	 add	 eax, 1
  00496	89 85 88 fd ff
	ff		 mov	 DWORD PTR _intInterpCnt$[ebp], eax
$LN28@SearchFor2:

; 1746 : 			}
; 1747 : 
; 1748 : 			if (intInterpCnt == 0)

  0049c	83 bd 88 fd ff
	ff 00		 cmp	 DWORD PTR _intInterpCnt$[ebp], 0
  004a3	75 40		 jne	 SHORT $LN27@SearchFor2

; 1749 : 			{				
; 1750 : 				if (SlowCPU)

  004a5	83 3d 00 00 00
	00 00		 cmp	 DWORD PTR _SlowCPU, 0
  004ac	74 13		 je	 SHORT $LN26@SearchFor2

; 1751 : 					Ptr += 480; // advance pointer 2 symbols (40 ms) ' reduce CPU loading

  004ae	8b 85 6c fc ff
	ff		 mov	 eax, DWORD PTR _Ptr$[ebp]
  004b4	05 e0 01 00 00	 add	 eax, 480		; 000001e0H
  004b9	89 85 6c fc ff
	ff		 mov	 DWORD PTR _Ptr$[ebp], eax

; 1752 : 				else

  004bf	eb 11		 jmp	 SHORT $LN25@SearchFor2
$LN26@SearchFor2:

; 1753 : 					Ptr += 240; // advance pointer 1 symbol (20 ms)

  004c1	8b 85 6c fc ff
	ff		 mov	 eax, DWORD PTR _Ptr$[ebp]
  004c7	05 f0 00 00 00	 add	 eax, 240		; 000000f0H
  004cc	89 85 6c fc ff
	ff		 mov	 DWORD PTR _Ptr$[ebp], eax
$LN25@SearchFor2:

; 1754 : 		
; 1755 : 				blnLeaderDetected = FALSE;

  004d2	c7 05 00 00 00
	00 00 00 00 00	 mov	 DWORD PTR _blnLeaderDetected, 0

; 1756 : 				return FALSE;

  004dc	33 c0		 xor	 eax, eax
  004de	e9 1e 0f 00 00	 jmp	 $LN3@SearchFor2

; 1757 : 			}
; 1758 : 			else

  004e3	eb 30		 jmp	 SHORT $LN24@SearchFor2
$LN27@SearchFor2:

; 1759 : 			{	
; 1760 : 				dblBinAdj = dblBinAdj / intInterpCnt;	 // average the offsets that are within .5 bin

  004e5	db 85 88 fd ff
	ff		 fild	 DWORD PTR _intInterpCnt$[ebp]
  004eb	d8 bd 94 fd ff
	ff		 fdivr	 DWORD PTR _dblBinAdj$[ebp]
  004f1	d9 9d 94 fd ff
	ff		 fstp	 DWORD PTR _dblBinAdj$[ebp]

; 1761 : 				dblCoarseOffset = 12.5f * (intIatMaxPeak + dblBinAdj - 120); // compute the Coarse tuning offset in Hz

  004f7	db 85 7c fd ff
	ff		 fild	 DWORD PTR _intIatMaxPeak$[ebp]
  004fd	d8 85 94 fd ff
	ff		 fadd	 DWORD PTR _dblBinAdj$[ebp]
  00503	dc 25 00 00 00
	00		 fsub	 QWORD PTR __real@405e000000000000
  00509	dc 0d 00 00 00
	00		 fmul	 QWORD PTR __real@4029000000000000
  0050f	d9 9d 30 fc ff
	ff		 fstp	 DWORD PTR _dblCoarseOffset$[ebp]
$LN24@SearchFor2:

; 1762 : 			}
; 1763 : 		}
; 1764 : 		else

  00515	eb 3e		 jmp	 SHORT $LN23@SearchFor2
$LN30@SearchFor2:

; 1765 : 		{
; 1766 : 			if (SlowCPU)

  00517	83 3d 00 00 00
	00 00		 cmp	 DWORD PTR _SlowCPU, 0
  0051e	74 13		 je	 SHORT $LN22@SearchFor2

; 1767 : 				Ptr += 480; // advance pointer 2 symbols (40 ms) ' reduce CPU loading

  00520	8b 85 6c fc ff
	ff		 mov	 eax, DWORD PTR _Ptr$[ebp]
  00526	05 e0 01 00 00	 add	 eax, 480		; 000001e0H
  0052b	89 85 6c fc ff
	ff		 mov	 DWORD PTR _Ptr$[ebp], eax

; 1768 : 			else

  00531	eb 11		 jmp	 SHORT $LN21@SearchFor2
$LN22@SearchFor2:

; 1769 : 				Ptr += 240; // advance pointer 1 symbol (20 ms) 

  00533	8b 85 6c fc ff
	ff		 mov	 eax, DWORD PTR _Ptr$[ebp]
  00539	05 f0 00 00 00	 add	 eax, 240		; 000000f0H
  0053e	89 85 6c fc ff
	ff		 mov	 DWORD PTR _Ptr$[ebp], eax
$LN21@SearchFor2:

; 1770 : 		
; 1771 : 			blnLeaderDetected = FALSE;

  00544	c7 05 00 00 00
	00 00 00 00 00	 mov	 DWORD PTR _blnLeaderDetected, 0

; 1772 : 			return FALSE;

  0054e	33 c0		 xor	 eax, eax
  00550	e9 ac 0e 00 00	 jmp	 $LN3@SearchFor2
$LN23@SearchFor2:

; 1773 : 		}
; 1774 :             
; 1775 : 		// update the offsetHz and setup the NCO new freq and Phase inc. Note no change to current NCOphase
; 1776 : 
; 1777 : 		// Drop into narrow search
; 1778 : 	}
; 1779 : 
; 1780 : 	//	NarrowSearch:
; 1781 :             
; 1782 : 	if (dblCoarseOffset < 999)

  00555	d9 85 30 fc ff
	ff		 fld	 DWORD PTR _dblCoarseOffset$[ebp]
  0055b	dc 1d 00 00 00
	00		 fcomp	 QWORD PTR __real@408f380000000000
  00561	df e0		 fnstsw	 ax
  00563	f6 c4 05	 test	 ah, 5
  00566	7a 0e		 jp	 SHORT $LN20@SearchFor2

; 1783 : 		dblTrialOffset = dblCoarseOffset;  // use the CoarseOffset calculation from above

  00568	d9 85 30 fc ff
	ff		 fld	 DWORD PTR _dblCoarseOffset$[ebp]
  0056e	d9 9d 24 fc ff
	ff		 fstp	 DWORD PTR _dblTrialOffset$[ebp]

; 1784 : 	else

  00574	eb 0b		 jmp	 SHORT $LN19@SearchFor2
$LN20@SearchFor2:

; 1785 : 		dblTrialOffset = *dblOffsetHz; // use the prior offset value

  00576	8b 45 10	 mov	 eax, DWORD PTR _dblOffsetHz$[ebp]
  00579	d9 00		 fld	 DWORD PTR [eax]
  0057b	d9 9d 24 fc ff
	ff		 fstp	 DWORD PTR _dblTrialOffset$[ebp]
$LN19@SearchFor2:

; 1786 : 
; 1787 : 	dblLeftCar = 120 - 2 + dblTrialOffset / 12.5f;  // the nominal positions of the two tone carriers based on the last computerd dblOffsetHz

  00581	d9 85 24 fc ff
	ff		 fld	 DWORD PTR _dblTrialOffset$[ebp]
  00587	dc 35 00 00 00
	00		 fdiv	 QWORD PTR __real@4029000000000000
  0058d	dc 05 00 00 00
	00		 fadd	 QWORD PTR __real@405d800000000000
  00593	d9 9d 34 fd ff
	ff		 fstp	 DWORD PTR _dblLeftCar$[ebp]

; 1788 : 	dblRightCar = 120 + 2 + dblTrialOffset / 12.5f;

  00599	d9 85 24 fc ff
	ff		 fld	 DWORD PTR _dblTrialOffset$[ebp]
  0059f	dc 35 00 00 00
	00		 fdiv	 QWORD PTR __real@4029000000000000
  005a5	dc 05 00 00 00
	00		 fadd	 QWORD PTR __real@405e800000000000
  005ab	d9 9d 28 fd ff
	ff		 fstp	 DWORD PTR _dblRightCar$[ebp]

; 1789 : 	// Calculate 4 bins total for Noise values in S/N computation (calculate average noise)  ' Simple average of noise bins      
; 1790 : 	GoertzelRealImag(intNewSamples, Ptr, 960, 114 + dblTrialOffset / 12.5f, &dblCtrR, &dblCtrI);  // nominal center -75 Hz

  005b1	8d 85 f8 fc ff
	ff		 lea	 eax, DWORD PTR _dblCtrI$[ebp]
  005b7	50		 push	 eax
  005b8	8d 8d 04 fd ff
	ff		 lea	 ecx, DWORD PTR _dblCtrR$[ebp]
  005be	51		 push	 ecx
  005bf	d9 85 24 fc ff
	ff		 fld	 DWORD PTR _dblTrialOffset$[ebp]
  005c5	dc 35 00 00 00
	00		 fdiv	 QWORD PTR __real@4029000000000000
  005cb	dc 05 00 00 00
	00		 fadd	 QWORD PTR __real@405c800000000000
  005d1	d9 9d 44 fb ff
	ff		 fstp	 DWORD PTR tv1066[ebp]
  005d7	d9 85 44 fb ff
	ff		 fld	 DWORD PTR tv1066[ebp]
  005dd	51		 push	 ecx
  005de	d9 1c 24	 fstp	 DWORD PTR [esp]
  005e1	68 c0 03 00 00	 push	 960			; 000003c0H
  005e6	8b 95 6c fc ff
	ff		 mov	 edx, DWORD PTR _Ptr$[ebp]
  005ec	52		 push	 edx
  005ed	8b 45 08	 mov	 eax, DWORD PTR _intNewSamples$[ebp]
  005f0	50		 push	 eax
  005f1	e8 00 00 00 00	 call	 _GoertzelRealImag
  005f6	83 c4 18	 add	 esp, 24			; 00000018H

; 1791 : 	dblAvgNoisePerBin = powf(dblCtrR, 2) + powf(dblCtrI, 2);

  005f9	83 ec 08	 sub	 esp, 8
  005fc	dd 05 00 00 00
	00		 fld	 QWORD PTR __real@4000000000000000
  00602	dd 1c 24	 fstp	 QWORD PTR [esp]
  00605	d9 85 04 fd ff
	ff		 fld	 DWORD PTR _dblCtrR$[ebp]
  0060b	83 ec 08	 sub	 esp, 8
  0060e	dd 1c 24	 fstp	 QWORD PTR [esp]
  00611	e8 00 00 00 00	 call	 _pow
  00616	83 c4 10	 add	 esp, 16			; 00000010H
  00619	d9 9d 44 fb ff
	ff		 fstp	 DWORD PTR tv1079[ebp]
  0061f	d9 85 44 fb ff
	ff		 fld	 DWORD PTR tv1079[ebp]
  00625	83 ec 08	 sub	 esp, 8
  00628	dd 05 00 00 00
	00		 fld	 QWORD PTR __real@4000000000000000
  0062e	dd 1c 24	 fstp	 QWORD PTR [esp]
  00631	d9 85 f8 fc ff
	ff		 fld	 DWORD PTR _dblCtrI$[ebp]
  00637	83 ec 08	 sub	 esp, 8
  0063a	dd 1c 24	 fstp	 QWORD PTR [esp]
  0063d	dd 9d 3c fb ff
	ff		 fstp	 QWORD PTR tv1602[ebp]
  00643	e8 00 00 00 00	 call	 _pow
  00648	83 c4 10	 add	 esp, 16			; 00000010H
  0064b	d9 9d 38 fb ff
	ff		 fstp	 DWORD PTR tv1087[ebp]
  00651	d9 85 38 fb ff
	ff		 fld	 DWORD PTR tv1087[ebp]
  00657	dc 85 3c fb ff
	ff		 fadd	 QWORD PTR tv1602[ebp]
  0065d	d9 9d 60 fc ff
	ff		 fstp	 DWORD PTR _dblAvgNoisePerBin$[ebp]

; 1792 : 	GoertzelRealImag(intNewSamples, Ptr, 960, 116 + dblTrialOffset / 12.5f, &dblCtrR, &dblCtrI); // center - 50 Hz

  00663	8d 85 f8 fc ff
	ff		 lea	 eax, DWORD PTR _dblCtrI$[ebp]
  00669	50		 push	 eax
  0066a	8d 8d 04 fd ff
	ff		 lea	 ecx, DWORD PTR _dblCtrR$[ebp]
  00670	51		 push	 ecx
  00671	d9 85 24 fc ff
	ff		 fld	 DWORD PTR _dblTrialOffset$[ebp]
  00677	dc 35 00 00 00
	00		 fdiv	 QWORD PTR __real@4029000000000000
  0067d	dc 05 00 00 00
	00		 fadd	 QWORD PTR __real@405d000000000000
  00683	d9 9d 44 fb ff
	ff		 fstp	 DWORD PTR tv1093[ebp]
  00689	d9 85 44 fb ff
	ff		 fld	 DWORD PTR tv1093[ebp]
  0068f	51		 push	 ecx
  00690	d9 1c 24	 fstp	 DWORD PTR [esp]
  00693	68 c0 03 00 00	 push	 960			; 000003c0H
  00698	8b 95 6c fc ff
	ff		 mov	 edx, DWORD PTR _Ptr$[ebp]
  0069e	52		 push	 edx
  0069f	8b 45 08	 mov	 eax, DWORD PTR _intNewSamples$[ebp]
  006a2	50		 push	 eax
  006a3	e8 00 00 00 00	 call	 _GoertzelRealImag
  006a8	83 c4 18	 add	 esp, 24			; 00000018H

; 1793 : 	dblAvgNoisePerBin += powf(dblCtrR, 2) + powf(dblCtrI, 2);

  006ab	83 ec 08	 sub	 esp, 8
  006ae	dd 05 00 00 00
	00		 fld	 QWORD PTR __real@4000000000000000
  006b4	dd 1c 24	 fstp	 QWORD PTR [esp]
  006b7	d9 85 04 fd ff
	ff		 fld	 DWORD PTR _dblCtrR$[ebp]
  006bd	83 ec 08	 sub	 esp, 8
  006c0	dd 1c 24	 fstp	 QWORD PTR [esp]
  006c3	e8 00 00 00 00	 call	 _pow
  006c8	83 c4 10	 add	 esp, 16			; 00000010H
  006cb	d9 9d 44 fb ff
	ff		 fstp	 DWORD PTR tv1106[ebp]
  006d1	d9 85 44 fb ff
	ff		 fld	 DWORD PTR tv1106[ebp]
  006d7	83 ec 08	 sub	 esp, 8
  006da	dd 05 00 00 00
	00		 fld	 QWORD PTR __real@4000000000000000
  006e0	dd 1c 24	 fstp	 QWORD PTR [esp]
  006e3	d9 85 f8 fc ff
	ff		 fld	 DWORD PTR _dblCtrI$[ebp]
  006e9	83 ec 08	 sub	 esp, 8
  006ec	dd 1c 24	 fstp	 QWORD PTR [esp]
  006ef	dd 9d 3c fb ff
	ff		 fstp	 QWORD PTR tv1604[ebp]
  006f5	e8 00 00 00 00	 call	 _pow
  006fa	83 c4 10	 add	 esp, 16			; 00000010H
  006fd	d9 9d 38 fb ff
	ff		 fstp	 DWORD PTR tv1114[ebp]
  00703	d9 85 38 fb ff
	ff		 fld	 DWORD PTR tv1114[ebp]
  00709	dc 85 3c fb ff
	ff		 fadd	 QWORD PTR tv1604[ebp]
  0070f	d8 85 60 fc ff
	ff		 fadd	 DWORD PTR _dblAvgNoisePerBin$[ebp]
  00715	d9 9d 60 fc ff
	ff		 fstp	 DWORD PTR _dblAvgNoisePerBin$[ebp]

; 1794 : 	GoertzelRealImag(intNewSamples, Ptr, 960, 124 + dblTrialOffset / 12.5f, &dblCtrR, &dblCtrI); // center + 50 Hz

  0071b	8d 85 f8 fc ff
	ff		 lea	 eax, DWORD PTR _dblCtrI$[ebp]
  00721	50		 push	 eax
  00722	8d 8d 04 fd ff
	ff		 lea	 ecx, DWORD PTR _dblCtrR$[ebp]
  00728	51		 push	 ecx
  00729	d9 85 24 fc ff
	ff		 fld	 DWORD PTR _dblTrialOffset$[ebp]
  0072f	dc 35 00 00 00
	00		 fdiv	 QWORD PTR __real@4029000000000000
  00735	dc 05 00 00 00
	00		 fadd	 QWORD PTR __real@405f000000000000
  0073b	d9 9d 44 fb ff
	ff		 fstp	 DWORD PTR tv1120[ebp]
  00741	d9 85 44 fb ff
	ff		 fld	 DWORD PTR tv1120[ebp]
  00747	51		 push	 ecx
  00748	d9 1c 24	 fstp	 DWORD PTR [esp]
  0074b	68 c0 03 00 00	 push	 960			; 000003c0H
  00750	8b 95 6c fc ff
	ff		 mov	 edx, DWORD PTR _Ptr$[ebp]
  00756	52		 push	 edx
  00757	8b 45 08	 mov	 eax, DWORD PTR _intNewSamples$[ebp]
  0075a	50		 push	 eax
  0075b	e8 00 00 00 00	 call	 _GoertzelRealImag
  00760	83 c4 18	 add	 esp, 24			; 00000018H

; 1795 : 	dblAvgNoisePerBin += powf(dblCtrR, 2) + powf(dblCtrI, 2);

  00763	83 ec 08	 sub	 esp, 8
  00766	dd 05 00 00 00
	00		 fld	 QWORD PTR __real@4000000000000000
  0076c	dd 1c 24	 fstp	 QWORD PTR [esp]
  0076f	d9 85 04 fd ff
	ff		 fld	 DWORD PTR _dblCtrR$[ebp]
  00775	83 ec 08	 sub	 esp, 8
  00778	dd 1c 24	 fstp	 QWORD PTR [esp]
  0077b	e8 00 00 00 00	 call	 _pow
  00780	83 c4 10	 add	 esp, 16			; 00000010H
  00783	d9 9d 44 fb ff
	ff		 fstp	 DWORD PTR tv1133[ebp]
  00789	d9 85 44 fb ff
	ff		 fld	 DWORD PTR tv1133[ebp]
  0078f	83 ec 08	 sub	 esp, 8
  00792	dd 05 00 00 00
	00		 fld	 QWORD PTR __real@4000000000000000
  00798	dd 1c 24	 fstp	 QWORD PTR [esp]
  0079b	d9 85 f8 fc ff
	ff		 fld	 DWORD PTR _dblCtrI$[ebp]
  007a1	83 ec 08	 sub	 esp, 8
  007a4	dd 1c 24	 fstp	 QWORD PTR [esp]
  007a7	dd 9d 3c fb ff
	ff		 fstp	 QWORD PTR tv1606[ebp]
  007ad	e8 00 00 00 00	 call	 _pow
  007b2	83 c4 10	 add	 esp, 16			; 00000010H
  007b5	d9 9d 38 fb ff
	ff		 fstp	 DWORD PTR tv1141[ebp]
  007bb	d9 85 38 fb ff
	ff		 fld	 DWORD PTR tv1141[ebp]
  007c1	dc 85 3c fb ff
	ff		 fadd	 QWORD PTR tv1606[ebp]
  007c7	d8 85 60 fc ff
	ff		 fadd	 DWORD PTR _dblAvgNoisePerBin$[ebp]
  007cd	d9 9d 60 fc ff
	ff		 fstp	 DWORD PTR _dblAvgNoisePerBin$[ebp]

; 1796 : 	GoertzelRealImag(intNewSamples, Ptr, 960, 126 + dblTrialOffset / 12.5f, &dblCtrR, &dblCtrI);  // center + 75 Hz

  007d3	8d 85 f8 fc ff
	ff		 lea	 eax, DWORD PTR _dblCtrI$[ebp]
  007d9	50		 push	 eax
  007da	8d 8d 04 fd ff
	ff		 lea	 ecx, DWORD PTR _dblCtrR$[ebp]
  007e0	51		 push	 ecx
  007e1	d9 85 24 fc ff
	ff		 fld	 DWORD PTR _dblTrialOffset$[ebp]
  007e7	dc 35 00 00 00
	00		 fdiv	 QWORD PTR __real@4029000000000000
  007ed	dc 05 00 00 00
	00		 fadd	 QWORD PTR __real@405f800000000000
  007f3	d9 9d 44 fb ff
	ff		 fstp	 DWORD PTR tv1147[ebp]
  007f9	d9 85 44 fb ff
	ff		 fld	 DWORD PTR tv1147[ebp]
  007ff	51		 push	 ecx
  00800	d9 1c 24	 fstp	 DWORD PTR [esp]
  00803	68 c0 03 00 00	 push	 960			; 000003c0H
  00808	8b 95 6c fc ff
	ff		 mov	 edx, DWORD PTR _Ptr$[ebp]
  0080e	52		 push	 edx
  0080f	8b 45 08	 mov	 eax, DWORD PTR _intNewSamples$[ebp]
  00812	50		 push	 eax
  00813	e8 00 00 00 00	 call	 _GoertzelRealImag
  00818	83 c4 18	 add	 esp, 24			; 00000018H

; 1797 : 	dblAvgNoisePerBin += powf(dblCtrR, 2) + powf(dblCtrI, 2);

  0081b	83 ec 08	 sub	 esp, 8
  0081e	dd 05 00 00 00
	00		 fld	 QWORD PTR __real@4000000000000000
  00824	dd 1c 24	 fstp	 QWORD PTR [esp]
  00827	d9 85 04 fd ff
	ff		 fld	 DWORD PTR _dblCtrR$[ebp]
  0082d	83 ec 08	 sub	 esp, 8
  00830	dd 1c 24	 fstp	 QWORD PTR [esp]
  00833	e8 00 00 00 00	 call	 _pow
  00838	83 c4 10	 add	 esp, 16			; 00000010H
  0083b	d9 9d 44 fb ff
	ff		 fstp	 DWORD PTR tv1160[ebp]
  00841	d9 85 44 fb ff
	ff		 fld	 DWORD PTR tv1160[ebp]
  00847	83 ec 08	 sub	 esp, 8
  0084a	dd 05 00 00 00
	00		 fld	 QWORD PTR __real@4000000000000000
  00850	dd 1c 24	 fstp	 QWORD PTR [esp]
  00853	d9 85 f8 fc ff
	ff		 fld	 DWORD PTR _dblCtrI$[ebp]
  00859	83 ec 08	 sub	 esp, 8
  0085c	dd 1c 24	 fstp	 QWORD PTR [esp]
  0085f	dd 9d 3c fb ff
	ff		 fstp	 QWORD PTR tv1608[ebp]
  00865	e8 00 00 00 00	 call	 _pow
  0086a	83 c4 10	 add	 esp, 16			; 00000010H
  0086d	d9 9d 38 fb ff
	ff		 fstp	 DWORD PTR tv1168[ebp]
  00873	d9 85 38 fb ff
	ff		 fld	 DWORD PTR tv1168[ebp]
  00879	dc 85 3c fb ff
	ff		 fadd	 QWORD PTR tv1608[ebp]
  0087f	d8 85 60 fc ff
	ff		 fadd	 DWORD PTR _dblAvgNoisePerBin$[ebp]
  00885	d9 9d 60 fc ff
	ff		 fstp	 DWORD PTR _dblAvgNoisePerBin$[ebp]

; 1798 : 	dblAvgNoisePerBin = dblAvgNoisePerBin * 0.25f; // simple average,  now units of power

  0088b	d9 85 60 fc ff
	ff		 fld	 DWORD PTR _dblAvgNoisePerBin$[ebp]
  00891	dc 0d 00 00 00
	00		 fmul	 QWORD PTR __real@3fd0000000000000
  00897	d9 9d 60 fc ff
	ff		 fstp	 DWORD PTR _dblAvgNoisePerBin$[ebp]

; 1799 : 
; 1800 : 	// Calculate one bin above and below the two nominal 2 tone positions for Quinn Spectral Peak locator
; 1801 : 	GoertzelRealImag(intNewSamples, Ptr, 960, dblLeftCar - 1, &dblLeftR[0], &dblLeftI[0]);

  0089d	8d 85 ac fc ff
	ff		 lea	 eax, DWORD PTR _dblLeftI$[ebp]
  008a3	50		 push	 eax
  008a4	8d 8d c0 fc ff
	ff		 lea	 ecx, DWORD PTR _dblLeftR$[ebp]
  008aa	51		 push	 ecx
  008ab	d9 85 34 fd ff
	ff		 fld	 DWORD PTR _dblLeftCar$[ebp]
  008b1	dc 25 00 00 00
	00		 fsub	 QWORD PTR __real@3ff0000000000000
  008b7	d9 9d 44 fb ff
	ff		 fstp	 DWORD PTR tv1174[ebp]
  008bd	d9 85 44 fb ff
	ff		 fld	 DWORD PTR tv1174[ebp]
  008c3	51		 push	 ecx
  008c4	d9 1c 24	 fstp	 DWORD PTR [esp]
  008c7	68 c0 03 00 00	 push	 960			; 000003c0H
  008cc	8b 95 6c fc ff
	ff		 mov	 edx, DWORD PTR _Ptr$[ebp]
  008d2	52		 push	 edx
  008d3	8b 45 08	 mov	 eax, DWORD PTR _intNewSamples$[ebp]
  008d6	50		 push	 eax
  008d7	e8 00 00 00 00	 call	 _GoertzelRealImag
  008dc	83 c4 18	 add	 esp, 24			; 00000018H

; 1802 : 	GoertzelRealImag(intNewSamples, Ptr, 960, dblLeftCar, &dblLeftR[1], &dblLeftI[1]);

  008df	8d 85 b0 fc ff
	ff		 lea	 eax, DWORD PTR _dblLeftI$[ebp+4]
  008e5	50		 push	 eax
  008e6	8d 8d c4 fc ff
	ff		 lea	 ecx, DWORD PTR _dblLeftR$[ebp+4]
  008ec	51		 push	 ecx
  008ed	51		 push	 ecx
  008ee	d9 85 34 fd ff
	ff		 fld	 DWORD PTR _dblLeftCar$[ebp]
  008f4	d9 1c 24	 fstp	 DWORD PTR [esp]
  008f7	68 c0 03 00 00	 push	 960			; 000003c0H
  008fc	8b 95 6c fc ff
	ff		 mov	 edx, DWORD PTR _Ptr$[ebp]
  00902	52		 push	 edx
  00903	8b 45 08	 mov	 eax, DWORD PTR _intNewSamples$[ebp]
  00906	50		 push	 eax
  00907	e8 00 00 00 00	 call	 _GoertzelRealImag
  0090c	83 c4 18	 add	 esp, 24			; 00000018H

; 1803 : 	dblLeftP = powf(dblLeftR[1], 2) + powf(dblLeftI[1],  2);

  0090f	83 ec 08	 sub	 esp, 8
  00912	dd 05 00 00 00
	00		 fld	 QWORD PTR __real@4000000000000000
  00918	dd 1c 24	 fstp	 QWORD PTR [esp]
  0091b	d9 85 c4 fc ff
	ff		 fld	 DWORD PTR _dblLeftR$[ebp+4]
  00921	83 ec 08	 sub	 esp, 8
  00924	dd 1c 24	 fstp	 QWORD PTR [esp]
  00927	e8 00 00 00 00	 call	 _pow
  0092c	83 c4 10	 add	 esp, 16			; 00000010H
  0092f	d9 9d 44 fb ff
	ff		 fstp	 DWORD PTR tv1191[ebp]
  00935	d9 85 44 fb ff
	ff		 fld	 DWORD PTR tv1191[ebp]
  0093b	83 ec 08	 sub	 esp, 8
  0093e	dd 05 00 00 00
	00		 fld	 QWORD PTR __real@4000000000000000
  00944	dd 1c 24	 fstp	 QWORD PTR [esp]
  00947	d9 85 b0 fc ff
	ff		 fld	 DWORD PTR _dblLeftI$[ebp+4]
  0094d	83 ec 08	 sub	 esp, 8
  00950	dd 1c 24	 fstp	 QWORD PTR [esp]
  00953	dd 9d 3c fb ff
	ff		 fstp	 QWORD PTR tv1610[ebp]
  00959	e8 00 00 00 00	 call	 _pow
  0095e	83 c4 10	 add	 esp, 16			; 00000010H
  00961	d9 9d 38 fb ff
	ff		 fstp	 DWORD PTR tv1199[ebp]
  00967	d9 85 38 fb ff
	ff		 fld	 DWORD PTR tv1199[ebp]
  0096d	dc 85 3c fb ff
	ff		 fadd	 QWORD PTR tv1610[ebp]
  00973	d9 9d e0 fc ff
	ff		 fstp	 DWORD PTR _dblLeftP$[ebp]

; 1804 : 	GoertzelRealImag(intNewSamples, Ptr, 960, dblLeftCar + 1, &dblLeftR[2], &dblLeftI[2]);

  00979	8d 85 b4 fc ff
	ff		 lea	 eax, DWORD PTR _dblLeftI$[ebp+8]
  0097f	50		 push	 eax
  00980	8d 8d c8 fc ff
	ff		 lea	 ecx, DWORD PTR _dblLeftR$[ebp+8]
  00986	51		 push	 ecx
  00987	d9 85 34 fd ff
	ff		 fld	 DWORD PTR _dblLeftCar$[ebp]
  0098d	dc 05 00 00 00
	00		 fadd	 QWORD PTR __real@3ff0000000000000
  00993	d9 9d 44 fb ff
	ff		 fstp	 DWORD PTR tv1204[ebp]
  00999	d9 85 44 fb ff
	ff		 fld	 DWORD PTR tv1204[ebp]
  0099f	51		 push	 ecx
  009a0	d9 1c 24	 fstp	 DWORD PTR [esp]
  009a3	68 c0 03 00 00	 push	 960			; 000003c0H
  009a8	8b 95 6c fc ff
	ff		 mov	 edx, DWORD PTR _Ptr$[ebp]
  009ae	52		 push	 edx
  009af	8b 45 08	 mov	 eax, DWORD PTR _intNewSamples$[ebp]
  009b2	50		 push	 eax
  009b3	e8 00 00 00 00	 call	 _GoertzelRealImag
  009b8	83 c4 18	 add	 esp, 24			; 00000018H

; 1805 : 	GoertzelRealImag(intNewSamples, Ptr, 960, dblRightCar - 1, &dblRightR[0], &dblRightI[0]);

  009bb	8d 85 84 fc ff
	ff		 lea	 eax, DWORD PTR _dblRightI$[ebp]
  009c1	50		 push	 eax
  009c2	8d 8d 98 fc ff
	ff		 lea	 ecx, DWORD PTR _dblRightR$[ebp]
  009c8	51		 push	 ecx
  009c9	d9 85 28 fd ff
	ff		 fld	 DWORD PTR _dblRightCar$[ebp]
  009cf	dc 25 00 00 00
	00		 fsub	 QWORD PTR __real@3ff0000000000000
  009d5	d9 9d 44 fb ff
	ff		 fstp	 DWORD PTR tv1209[ebp]
  009db	d9 85 44 fb ff
	ff		 fld	 DWORD PTR tv1209[ebp]
  009e1	51		 push	 ecx
  009e2	d9 1c 24	 fstp	 DWORD PTR [esp]
  009e5	68 c0 03 00 00	 push	 960			; 000003c0H
  009ea	8b 95 6c fc ff
	ff		 mov	 edx, DWORD PTR _Ptr$[ebp]
  009f0	52		 push	 edx
  009f1	8b 45 08	 mov	 eax, DWORD PTR _intNewSamples$[ebp]
  009f4	50		 push	 eax
  009f5	e8 00 00 00 00	 call	 _GoertzelRealImag
  009fa	83 c4 18	 add	 esp, 24			; 00000018H

; 1806 : 	GoertzelRealImag(intNewSamples, Ptr, 960, dblRightCar, &dblRightR[1], &dblRightI[1]);

  009fd	8d 85 88 fc ff
	ff		 lea	 eax, DWORD PTR _dblRightI$[ebp+4]
  00a03	50		 push	 eax
  00a04	8d 8d 9c fc ff
	ff		 lea	 ecx, DWORD PTR _dblRightR$[ebp+4]
  00a0a	51		 push	 ecx
  00a0b	51		 push	 ecx
  00a0c	d9 85 28 fd ff
	ff		 fld	 DWORD PTR _dblRightCar$[ebp]
  00a12	d9 1c 24	 fstp	 DWORD PTR [esp]
  00a15	68 c0 03 00 00	 push	 960			; 000003c0H
  00a1a	8b 95 6c fc ff
	ff		 mov	 edx, DWORD PTR _Ptr$[ebp]
  00a20	52		 push	 edx
  00a21	8b 45 08	 mov	 eax, DWORD PTR _intNewSamples$[ebp]
  00a24	50		 push	 eax
  00a25	e8 00 00 00 00	 call	 _GoertzelRealImag
  00a2a	83 c4 18	 add	 esp, 24			; 00000018H

; 1807 : 	dblRightP = powf(dblRightR[1], 2) + powf(dblRightI[1], 2);

  00a2d	83 ec 08	 sub	 esp, 8
  00a30	dd 05 00 00 00
	00		 fld	 QWORD PTR __real@4000000000000000
  00a36	dd 1c 24	 fstp	 QWORD PTR [esp]
  00a39	d9 85 9c fc ff
	ff		 fld	 DWORD PTR _dblRightR$[ebp+4]
  00a3f	83 ec 08	 sub	 esp, 8
  00a42	dd 1c 24	 fstp	 QWORD PTR [esp]
  00a45	e8 00 00 00 00	 call	 _pow
  00a4a	83 c4 10	 add	 esp, 16			; 00000010H
  00a4d	d9 9d 44 fb ff
	ff		 fstp	 DWORD PTR tv1226[ebp]
  00a53	d9 85 44 fb ff
	ff		 fld	 DWORD PTR tv1226[ebp]
  00a59	83 ec 08	 sub	 esp, 8
  00a5c	dd 05 00 00 00
	00		 fld	 QWORD PTR __real@4000000000000000
  00a62	dd 1c 24	 fstp	 QWORD PTR [esp]
  00a65	d9 85 88 fc ff
	ff		 fld	 DWORD PTR _dblRightI$[ebp+4]
  00a6b	83 ec 08	 sub	 esp, 8
  00a6e	dd 1c 24	 fstp	 QWORD PTR [esp]
  00a71	dd 9d 3c fb ff
	ff		 fstp	 QWORD PTR tv1612[ebp]
  00a77	e8 00 00 00 00	 call	 _pow
  00a7c	83 c4 10	 add	 esp, 16			; 00000010H
  00a7f	d9 9d 38 fb ff
	ff		 fstp	 DWORD PTR tv1234[ebp]
  00a85	d9 85 38 fb ff
	ff		 fld	 DWORD PTR tv1234[ebp]
  00a8b	dc 85 3c fb ff
	ff		 fadd	 QWORD PTR tv1612[ebp]
  00a91	d9 9d d4 fc ff
	ff		 fstp	 DWORD PTR _dblRightP$[ebp]

; 1808 : 	GoertzelRealImag(intNewSamples, Ptr, 960, dblRightCar + 1, &dblRightR[2], &dblRightI[2]);

  00a97	8d 85 8c fc ff
	ff		 lea	 eax, DWORD PTR _dblRightI$[ebp+8]
  00a9d	50		 push	 eax
  00a9e	8d 8d a0 fc ff
	ff		 lea	 ecx, DWORD PTR _dblRightR$[ebp+8]
  00aa4	51		 push	 ecx
  00aa5	d9 85 28 fd ff
	ff		 fld	 DWORD PTR _dblRightCar$[ebp]
  00aab	dc 05 00 00 00
	00		 fadd	 QWORD PTR __real@3ff0000000000000
  00ab1	d9 9d 44 fb ff
	ff		 fstp	 DWORD PTR tv1239[ebp]
  00ab7	d9 85 44 fb ff
	ff		 fld	 DWORD PTR tv1239[ebp]
  00abd	51		 push	 ecx
  00abe	d9 1c 24	 fstp	 DWORD PTR [esp]
  00ac1	68 c0 03 00 00	 push	 960			; 000003c0H
  00ac6	8b 95 6c fc ff
	ff		 mov	 edx, DWORD PTR _Ptr$[ebp]
  00acc	52		 push	 edx
  00acd	8b 45 08	 mov	 eax, DWORD PTR _intNewSamples$[ebp]
  00ad0	50		 push	 eax
  00ad1	e8 00 00 00 00	 call	 _GoertzelRealImag
  00ad6	83 c4 18	 add	 esp, 24			; 00000018H

; 1809 : 
; 1810 : 	// Calculate the total power in the two tones 
; 1811 : 	// This mechanism designed to reject single carrier but average both carriers if ratios is less than 2:1
; 1812 : 
; 1813 : 	if (dblLeftP > 2 * dblRightP)

  00ad9	d9 85 d4 fc ff
	ff		 fld	 DWORD PTR _dblRightP$[ebp]
  00adf	dc 0d 00 00 00
	00		 fmul	 QWORD PTR __real@4000000000000000
  00ae5	d9 85 e0 fc ff
	ff		 fld	 DWORD PTR _dblLeftP$[ebp]
  00aeb	de d9		 fcompp
  00aed	df e0		 fnstsw	 ax
  00aef	f6 c4 41	 test	 ah, 65			; 00000041H
  00af2	75 0e		 jne	 SHORT $LN18@SearchFor2

; 1814 : 		dblPower = dblRightP;

  00af4	d9 85 d4 fc ff
	ff		 fld	 DWORD PTR _dblRightP$[ebp]
  00afa	d9 9d c4 fd ff
	ff		 fstp	 DWORD PTR _dblPower$[ebp]
  00b00	eb 41		 jmp	 SHORT $LN15@SearchFor2
$LN18@SearchFor2:

; 1815 : 	else if (dblRightP > 2 * dblLeftP)

  00b02	d9 85 e0 fc ff
	ff		 fld	 DWORD PTR _dblLeftP$[ebp]
  00b08	dc 0d 00 00 00
	00		 fmul	 QWORD PTR __real@4000000000000000
  00b0e	d9 85 d4 fc ff
	ff		 fld	 DWORD PTR _dblRightP$[ebp]
  00b14	de d9		 fcompp
  00b16	df e0		 fnstsw	 ax
  00b18	f6 c4 41	 test	 ah, 65			; 00000041H
  00b1b	75 0e		 jne	 SHORT $LN16@SearchFor2

; 1816 : 		dblPower = dblLeftP;

  00b1d	d9 85 e0 fc ff
	ff		 fld	 DWORD PTR _dblLeftP$[ebp]
  00b23	d9 9d c4 fd ff
	ff		 fstp	 DWORD PTR _dblPower$[ebp]

; 1817 : 	else

  00b29	eb 18		 jmp	 SHORT $LN15@SearchFor2
$LN16@SearchFor2:

; 1818 : 		dblPower = (dblLeftP + dblRightP) * 0.5f;  // simple average

  00b2b	d9 85 e0 fc ff
	ff		 fld	 DWORD PTR _dblLeftP$[ebp]
  00b31	d8 85 d4 fc ff
	ff		 fadd	 DWORD PTR _dblRightP$[ebp]
  00b37	dc 0d 00 00 00
	00		 fmul	 QWORD PTR __real@3fe0000000000000
  00b3d	d9 9d c4 fd ff
	ff		 fstp	 DWORD PTR _dblPower$[ebp]
$LN15@SearchFor2:

; 1819 : 
; 1820 : 	dblSNdBPwr = 10 * log10f(dblPower / dblAvgNoisePerBin);

  00b43	d9 85 c4 fd ff
	ff		 fld	 DWORD PTR _dblPower$[ebp]
  00b49	d8 b5 60 fc ff
	ff		 fdiv	 DWORD PTR _dblAvgNoisePerBin$[ebp]
  00b4f	83 ec 08	 sub	 esp, 8
  00b52	dd 1c 24	 fstp	 QWORD PTR [esp]
  00b55	e8 00 00 00 00	 call	 _log10
  00b5a	83 c4 08	 add	 esp, 8
  00b5d	d9 9d 44 fb ff
	ff		 fstp	 DWORD PTR tv1261[ebp]
  00b63	d9 85 44 fb ff
	ff		 fld	 DWORD PTR tv1261[ebp]
  00b69	dc 0d 00 00 00
	00		 fmul	 QWORD PTR __real@4024000000000000
  00b6f	d9 1d 00 00 00
	00		 fstp	 DWORD PTR _dblSNdBPwr

; 1821 : 
; 1822 :  
; 1823 : 	// Early leader detect code to calculate S:N on Front half (first 2 symbols)
; 1824 : 	// concept is to allow more accurate framing and sync detection and reduce false leader detects
; 1825 : 
; 1826 : 	GoertzelRealImag(intNewSamples, Ptr, 480, 57 + dblTrialOffset / 25, &dblCtrR, &dblCtrI); //  nominal center -75 Hz

  00b75	8d 85 f8 fc ff
	ff		 lea	 eax, DWORD PTR _dblCtrI$[ebp]
  00b7b	50		 push	 eax
  00b7c	8d 8d 04 fd ff
	ff		 lea	 ecx, DWORD PTR _dblCtrR$[ebp]
  00b82	51		 push	 ecx
  00b83	d9 85 24 fc ff
	ff		 fld	 DWORD PTR _dblTrialOffset$[ebp]
  00b89	dc 35 00 00 00
	00		 fdiv	 QWORD PTR __real@4039000000000000
  00b8f	dc 05 00 00 00
	00		 fadd	 QWORD PTR __real@404c800000000000
  00b95	d9 9d 44 fb ff
	ff		 fstp	 DWORD PTR tv1267[ebp]
  00b9b	d9 85 44 fb ff
	ff		 fld	 DWORD PTR tv1267[ebp]
  00ba1	51		 push	 ecx
  00ba2	d9 1c 24	 fstp	 DWORD PTR [esp]
  00ba5	68 e0 01 00 00	 push	 480			; 000001e0H
  00baa	8b 95 6c fc ff
	ff		 mov	 edx, DWORD PTR _Ptr$[ebp]
  00bb0	52		 push	 edx
  00bb1	8b 45 08	 mov	 eax, DWORD PTR _intNewSamples$[ebp]
  00bb4	50		 push	 eax
  00bb5	e8 00 00 00 00	 call	 _GoertzelRealImag
  00bba	83 c4 18	 add	 esp, 24			; 00000018H

; 1827 : 	dblAvgNoisePerBin = powf(dblCtrR, 2) + powf(dblCtrI, 2);

  00bbd	83 ec 08	 sub	 esp, 8
  00bc0	dd 05 00 00 00
	00		 fld	 QWORD PTR __real@4000000000000000
  00bc6	dd 1c 24	 fstp	 QWORD PTR [esp]
  00bc9	d9 85 04 fd ff
	ff		 fld	 DWORD PTR _dblCtrR$[ebp]
  00bcf	83 ec 08	 sub	 esp, 8
  00bd2	dd 1c 24	 fstp	 QWORD PTR [esp]
  00bd5	e8 00 00 00 00	 call	 _pow
  00bda	83 c4 10	 add	 esp, 16			; 00000010H
  00bdd	d9 9d 44 fb ff
	ff		 fstp	 DWORD PTR tv1280[ebp]
  00be3	d9 85 44 fb ff
	ff		 fld	 DWORD PTR tv1280[ebp]
  00be9	83 ec 08	 sub	 esp, 8
  00bec	dd 05 00 00 00
	00		 fld	 QWORD PTR __real@4000000000000000
  00bf2	dd 1c 24	 fstp	 QWORD PTR [esp]
  00bf5	d9 85 f8 fc ff
	ff		 fld	 DWORD PTR _dblCtrI$[ebp]
  00bfb	83 ec 08	 sub	 esp, 8
  00bfe	dd 1c 24	 fstp	 QWORD PTR [esp]
  00c01	dd 9d 3c fb ff
	ff		 fstp	 QWORD PTR tv1614[ebp]
  00c07	e8 00 00 00 00	 call	 _pow
  00c0c	83 c4 10	 add	 esp, 16			; 00000010H
  00c0f	d9 9d 38 fb ff
	ff		 fstp	 DWORD PTR tv1288[ebp]
  00c15	d9 85 38 fb ff
	ff		 fld	 DWORD PTR tv1288[ebp]
  00c1b	dc 85 3c fb ff
	ff		 fadd	 QWORD PTR tv1614[ebp]
  00c21	d9 9d 60 fc ff
	ff		 fstp	 DWORD PTR _dblAvgNoisePerBin$[ebp]

; 1828 : 	GoertzelRealImag(intNewSamples, Ptr, 480, 58 + dblTrialOffset / 25, &dblCtrR, &dblCtrI); //  nominal center -75 Hz

  00c27	8d 85 f8 fc ff
	ff		 lea	 eax, DWORD PTR _dblCtrI$[ebp]
  00c2d	50		 push	 eax
  00c2e	8d 8d 04 fd ff
	ff		 lea	 ecx, DWORD PTR _dblCtrR$[ebp]
  00c34	51		 push	 ecx
  00c35	d9 85 24 fc ff
	ff		 fld	 DWORD PTR _dblTrialOffset$[ebp]
  00c3b	dc 35 00 00 00
	00		 fdiv	 QWORD PTR __real@4039000000000000
  00c41	dc 05 00 00 00
	00		 fadd	 QWORD PTR __real@404d000000000000
  00c47	d9 9d 44 fb ff
	ff		 fstp	 DWORD PTR tv1294[ebp]
  00c4d	d9 85 44 fb ff
	ff		 fld	 DWORD PTR tv1294[ebp]
  00c53	51		 push	 ecx
  00c54	d9 1c 24	 fstp	 DWORD PTR [esp]
  00c57	68 e0 01 00 00	 push	 480			; 000001e0H
  00c5c	8b 95 6c fc ff
	ff		 mov	 edx, DWORD PTR _Ptr$[ebp]
  00c62	52		 push	 edx
  00c63	8b 45 08	 mov	 eax, DWORD PTR _intNewSamples$[ebp]
  00c66	50		 push	 eax
  00c67	e8 00 00 00 00	 call	 _GoertzelRealImag
  00c6c	83 c4 18	 add	 esp, 24			; 00000018H

; 1829 : 	dblAvgNoisePerBin += powf(dblCtrR, 2) + powf(dblCtrI, 2);

  00c6f	83 ec 08	 sub	 esp, 8
  00c72	dd 05 00 00 00
	00		 fld	 QWORD PTR __real@4000000000000000
  00c78	dd 1c 24	 fstp	 QWORD PTR [esp]
  00c7b	d9 85 04 fd ff
	ff		 fld	 DWORD PTR _dblCtrR$[ebp]
  00c81	83 ec 08	 sub	 esp, 8
  00c84	dd 1c 24	 fstp	 QWORD PTR [esp]
  00c87	e8 00 00 00 00	 call	 _pow
  00c8c	83 c4 10	 add	 esp, 16			; 00000010H
  00c8f	d9 9d 44 fb ff
	ff		 fstp	 DWORD PTR tv1307[ebp]
  00c95	d9 85 44 fb ff
	ff		 fld	 DWORD PTR tv1307[ebp]
  00c9b	83 ec 08	 sub	 esp, 8
  00c9e	dd 05 00 00 00
	00		 fld	 QWORD PTR __real@4000000000000000
  00ca4	dd 1c 24	 fstp	 QWORD PTR [esp]
  00ca7	d9 85 f8 fc ff
	ff		 fld	 DWORD PTR _dblCtrI$[ebp]
  00cad	83 ec 08	 sub	 esp, 8
  00cb0	dd 1c 24	 fstp	 QWORD PTR [esp]
  00cb3	dd 9d 3c fb ff
	ff		 fstp	 QWORD PTR tv1616[ebp]
  00cb9	e8 00 00 00 00	 call	 _pow
  00cbe	83 c4 10	 add	 esp, 16			; 00000010H
  00cc1	d9 9d 38 fb ff
	ff		 fstp	 DWORD PTR tv1315[ebp]
  00cc7	d9 85 38 fb ff
	ff		 fld	 DWORD PTR tv1315[ebp]
  00ccd	dc 85 3c fb ff
	ff		 fadd	 QWORD PTR tv1616[ebp]
  00cd3	d8 85 60 fc ff
	ff		 fadd	 DWORD PTR _dblAvgNoisePerBin$[ebp]
  00cd9	d9 9d 60 fc ff
	ff		 fstp	 DWORD PTR _dblAvgNoisePerBin$[ebp]

; 1830 : 	GoertzelRealImag(intNewSamples, Ptr, 480, 62 + dblTrialOffset / 25, &dblCtrR, &dblCtrI); //  nominal center -75 Hz

  00cdf	8d 85 f8 fc ff
	ff		 lea	 eax, DWORD PTR _dblCtrI$[ebp]
  00ce5	50		 push	 eax
  00ce6	8d 8d 04 fd ff
	ff		 lea	 ecx, DWORD PTR _dblCtrR$[ebp]
  00cec	51		 push	 ecx
  00ced	d9 85 24 fc ff
	ff		 fld	 DWORD PTR _dblTrialOffset$[ebp]
  00cf3	dc 35 00 00 00
	00		 fdiv	 QWORD PTR __real@4039000000000000
  00cf9	dc 05 00 00 00
	00		 fadd	 QWORD PTR __real@404f000000000000
  00cff	d9 9d 44 fb ff
	ff		 fstp	 DWORD PTR tv1321[ebp]
  00d05	d9 85 44 fb ff
	ff		 fld	 DWORD PTR tv1321[ebp]
  00d0b	51		 push	 ecx
  00d0c	d9 1c 24	 fstp	 DWORD PTR [esp]
  00d0f	68 e0 01 00 00	 push	 480			; 000001e0H
  00d14	8b 95 6c fc ff
	ff		 mov	 edx, DWORD PTR _Ptr$[ebp]
  00d1a	52		 push	 edx
  00d1b	8b 45 08	 mov	 eax, DWORD PTR _intNewSamples$[ebp]
  00d1e	50		 push	 eax
  00d1f	e8 00 00 00 00	 call	 _GoertzelRealImag
  00d24	83 c4 18	 add	 esp, 24			; 00000018H

; 1831 : 	dblAvgNoisePerBin += powf(dblCtrR, 2) + powf(dblCtrI, 2);

  00d27	83 ec 08	 sub	 esp, 8
  00d2a	dd 05 00 00 00
	00		 fld	 QWORD PTR __real@4000000000000000
  00d30	dd 1c 24	 fstp	 QWORD PTR [esp]
  00d33	d9 85 04 fd ff
	ff		 fld	 DWORD PTR _dblCtrR$[ebp]
  00d39	83 ec 08	 sub	 esp, 8
  00d3c	dd 1c 24	 fstp	 QWORD PTR [esp]
  00d3f	e8 00 00 00 00	 call	 _pow
  00d44	83 c4 10	 add	 esp, 16			; 00000010H
  00d47	d9 9d 44 fb ff
	ff		 fstp	 DWORD PTR tv1334[ebp]
  00d4d	d9 85 44 fb ff
	ff		 fld	 DWORD PTR tv1334[ebp]
  00d53	83 ec 08	 sub	 esp, 8
  00d56	dd 05 00 00 00
	00		 fld	 QWORD PTR __real@4000000000000000
  00d5c	dd 1c 24	 fstp	 QWORD PTR [esp]
  00d5f	d9 85 f8 fc ff
	ff		 fld	 DWORD PTR _dblCtrI$[ebp]
  00d65	83 ec 08	 sub	 esp, 8
  00d68	dd 1c 24	 fstp	 QWORD PTR [esp]
  00d6b	dd 9d 3c fb ff
	ff		 fstp	 QWORD PTR tv1618[ebp]
  00d71	e8 00 00 00 00	 call	 _pow
  00d76	83 c4 10	 add	 esp, 16			; 00000010H
  00d79	d9 9d 38 fb ff
	ff		 fstp	 DWORD PTR tv1342[ebp]
  00d7f	d9 85 38 fb ff
	ff		 fld	 DWORD PTR tv1342[ebp]
  00d85	dc 85 3c fb ff
	ff		 fadd	 QWORD PTR tv1618[ebp]
  00d8b	d8 85 60 fc ff
	ff		 fadd	 DWORD PTR _dblAvgNoisePerBin$[ebp]
  00d91	d9 9d 60 fc ff
	ff		 fstp	 DWORD PTR _dblAvgNoisePerBin$[ebp]

; 1832 : 	GoertzelRealImag(intNewSamples, Ptr, 480, 63 + dblTrialOffset / 25, &dblCtrR, &dblCtrI); //  nominal center -75 Hz 

  00d97	8d 85 f8 fc ff
	ff		 lea	 eax, DWORD PTR _dblCtrI$[ebp]
  00d9d	50		 push	 eax
  00d9e	8d 8d 04 fd ff
	ff		 lea	 ecx, DWORD PTR _dblCtrR$[ebp]
  00da4	51		 push	 ecx
  00da5	d9 85 24 fc ff
	ff		 fld	 DWORD PTR _dblTrialOffset$[ebp]
  00dab	dc 35 00 00 00
	00		 fdiv	 QWORD PTR __real@4039000000000000
  00db1	dc 05 00 00 00
	00		 fadd	 QWORD PTR __real@404f800000000000
  00db7	d9 9d 44 fb ff
	ff		 fstp	 DWORD PTR tv1348[ebp]
  00dbd	d9 85 44 fb ff
	ff		 fld	 DWORD PTR tv1348[ebp]
  00dc3	51		 push	 ecx
  00dc4	d9 1c 24	 fstp	 DWORD PTR [esp]
  00dc7	68 e0 01 00 00	 push	 480			; 000001e0H
  00dcc	8b 95 6c fc ff
	ff		 mov	 edx, DWORD PTR _Ptr$[ebp]
  00dd2	52		 push	 edx
  00dd3	8b 45 08	 mov	 eax, DWORD PTR _intNewSamples$[ebp]
  00dd6	50		 push	 eax
  00dd7	e8 00 00 00 00	 call	 _GoertzelRealImag
  00ddc	83 c4 18	 add	 esp, 24			; 00000018H

; 1833 : 	dblAvgNoisePerBin = 0.25f * (dblAvgNoisePerBin + (powf(dblCtrR, 2) + powf(dblCtrI, 2))); // average of 4 noise bins

  00ddf	83 ec 08	 sub	 esp, 8
  00de2	dd 05 00 00 00
	00		 fld	 QWORD PTR __real@4000000000000000
  00de8	dd 1c 24	 fstp	 QWORD PTR [esp]
  00deb	d9 85 04 fd ff
	ff		 fld	 DWORD PTR _dblCtrR$[ebp]
  00df1	83 ec 08	 sub	 esp, 8
  00df4	dd 1c 24	 fstp	 QWORD PTR [esp]
  00df7	e8 00 00 00 00	 call	 _pow
  00dfc	83 c4 10	 add	 esp, 16			; 00000010H
  00dff	d9 9d 44 fb ff
	ff		 fstp	 DWORD PTR tv1361[ebp]
  00e05	d9 85 44 fb ff
	ff		 fld	 DWORD PTR tv1361[ebp]
  00e0b	83 ec 08	 sub	 esp, 8
  00e0e	dd 05 00 00 00
	00		 fld	 QWORD PTR __real@4000000000000000
  00e14	dd 1c 24	 fstp	 QWORD PTR [esp]
  00e17	d9 85 f8 fc ff
	ff		 fld	 DWORD PTR _dblCtrI$[ebp]
  00e1d	83 ec 08	 sub	 esp, 8
  00e20	dd 1c 24	 fstp	 QWORD PTR [esp]
  00e23	dd 9d 3c fb ff
	ff		 fstp	 QWORD PTR tv1620[ebp]
  00e29	e8 00 00 00 00	 call	 _pow
  00e2e	83 c4 10	 add	 esp, 16			; 00000010H
  00e31	d9 9d 38 fb ff
	ff		 fstp	 DWORD PTR tv1369[ebp]
  00e37	d9 85 38 fb ff
	ff		 fld	 DWORD PTR tv1369[ebp]
  00e3d	dc 85 3c fb ff
	ff		 fadd	 QWORD PTR tv1620[ebp]
  00e43	d8 85 60 fc ff
	ff		 fadd	 DWORD PTR _dblAvgNoisePerBin$[ebp]
  00e49	dc 0d 00 00 00
	00		 fmul	 QWORD PTR __real@3fd0000000000000
  00e4f	d9 9d 60 fc ff
	ff		 fstp	 DWORD PTR _dblAvgNoisePerBin$[ebp]

; 1834 : 	dblLeftCar = 59 + dblTrialOffset / 25;  // the nominal positions of the two tone carriers based on the last computerd dblOffsetHz

  00e55	d9 85 24 fc ff
	ff		 fld	 DWORD PTR _dblTrialOffset$[ebp]
  00e5b	dc 35 00 00 00
	00		 fdiv	 QWORD PTR __real@4039000000000000
  00e61	dc 05 00 00 00
	00		 fadd	 QWORD PTR __real@404d800000000000
  00e67	d9 9d 34 fd ff
	ff		 fstp	 DWORD PTR _dblLeftCar$[ebp]

; 1835 : 	dblRightCar = 61 + dblTrialOffset / 25;

  00e6d	d9 85 24 fc ff
	ff		 fld	 DWORD PTR _dblTrialOffset$[ebp]
  00e73	dc 35 00 00 00
	00		 fdiv	 QWORD PTR __real@4039000000000000
  00e79	dc 05 00 00 00
	00		 fadd	 QWORD PTR __real@404e800000000000
  00e7f	d9 9d 28 fd ff
	ff		 fstp	 DWORD PTR _dblRightCar$[ebp]

; 1836 : 
; 1837 : 	GoertzelRealImag(intNewSamples, Ptr, 480, dblLeftCar, &dblCtrR, &dblCtrI); // LEFT carrier

  00e85	8d 85 f8 fc ff
	ff		 lea	 eax, DWORD PTR _dblCtrI$[ebp]
  00e8b	50		 push	 eax
  00e8c	8d 8d 04 fd ff
	ff		 lea	 ecx, DWORD PTR _dblCtrR$[ebp]
  00e92	51		 push	 ecx
  00e93	51		 push	 ecx
  00e94	d9 85 34 fd ff
	ff		 fld	 DWORD PTR _dblLeftCar$[ebp]
  00e9a	d9 1c 24	 fstp	 DWORD PTR [esp]
  00e9d	68 e0 01 00 00	 push	 480			; 000001e0H
  00ea2	8b 95 6c fc ff
	ff		 mov	 edx, DWORD PTR _Ptr$[ebp]
  00ea8	52		 push	 edx
  00ea9	8b 45 08	 mov	 eax, DWORD PTR _intNewSamples$[ebp]
  00eac	50		 push	 eax
  00ead	e8 00 00 00 00	 call	 _GoertzelRealImag
  00eb2	83 c4 18	 add	 esp, 24			; 00000018H

; 1838 : 	dblLeftP = powf(dblCtrR, 2) + powf(dblCtrI, 2);

  00eb5	83 ec 08	 sub	 esp, 8
  00eb8	dd 05 00 00 00
	00		 fld	 QWORD PTR __real@4000000000000000
  00ebe	dd 1c 24	 fstp	 QWORD PTR [esp]
  00ec1	d9 85 04 fd ff
	ff		 fld	 DWORD PTR _dblCtrR$[ebp]
  00ec7	83 ec 08	 sub	 esp, 8
  00eca	dd 1c 24	 fstp	 QWORD PTR [esp]
  00ecd	e8 00 00 00 00	 call	 _pow
  00ed2	83 c4 10	 add	 esp, 16			; 00000010H
  00ed5	d9 9d 44 fb ff
	ff		 fstp	 DWORD PTR tv1393[ebp]
  00edb	d9 85 44 fb ff
	ff		 fld	 DWORD PTR tv1393[ebp]
  00ee1	83 ec 08	 sub	 esp, 8
  00ee4	dd 05 00 00 00
	00		 fld	 QWORD PTR __real@4000000000000000
  00eea	dd 1c 24	 fstp	 QWORD PTR [esp]
  00eed	d9 85 f8 fc ff
	ff		 fld	 DWORD PTR _dblCtrI$[ebp]
  00ef3	83 ec 08	 sub	 esp, 8
  00ef6	dd 1c 24	 fstp	 QWORD PTR [esp]
  00ef9	dd 9d 3c fb ff
	ff		 fstp	 QWORD PTR tv1622[ebp]
  00eff	e8 00 00 00 00	 call	 _pow
  00f04	83 c4 10	 add	 esp, 16			; 00000010H
  00f07	d9 9d 38 fb ff
	ff		 fstp	 DWORD PTR tv1401[ebp]
  00f0d	d9 85 38 fb ff
	ff		 fld	 DWORD PTR tv1401[ebp]
  00f13	dc 85 3c fb ff
	ff		 fadd	 QWORD PTR tv1622[ebp]
  00f19	d9 9d e0 fc ff
	ff		 fstp	 DWORD PTR _dblLeftP$[ebp]

; 1839 : 	GoertzelRealImag(intNewSamples, Ptr, 480, dblRightCar, &dblCtrR, &dblCtrI); // Right carrier

  00f1f	8d 85 f8 fc ff
	ff		 lea	 eax, DWORD PTR _dblCtrI$[ebp]
  00f25	50		 push	 eax
  00f26	8d 8d 04 fd ff
	ff		 lea	 ecx, DWORD PTR _dblCtrR$[ebp]
  00f2c	51		 push	 ecx
  00f2d	51		 push	 ecx
  00f2e	d9 85 28 fd ff
	ff		 fld	 DWORD PTR _dblRightCar$[ebp]
  00f34	d9 1c 24	 fstp	 DWORD PTR [esp]
  00f37	68 e0 01 00 00	 push	 480			; 000001e0H
  00f3c	8b 95 6c fc ff
	ff		 mov	 edx, DWORD PTR _Ptr$[ebp]
  00f42	52		 push	 edx
  00f43	8b 45 08	 mov	 eax, DWORD PTR _intNewSamples$[ebp]
  00f46	50		 push	 eax
  00f47	e8 00 00 00 00	 call	 _GoertzelRealImag
  00f4c	83 c4 18	 add	 esp, 24			; 00000018H

; 1840 : 	dblRightP = powf(dblCtrR, 2) + powf(dblCtrI, 2);

  00f4f	83 ec 08	 sub	 esp, 8
  00f52	dd 05 00 00 00
	00		 fld	 QWORD PTR __real@4000000000000000
  00f58	dd 1c 24	 fstp	 QWORD PTR [esp]
  00f5b	d9 85 04 fd ff
	ff		 fld	 DWORD PTR _dblCtrR$[ebp]
  00f61	83 ec 08	 sub	 esp, 8
  00f64	dd 1c 24	 fstp	 QWORD PTR [esp]
  00f67	e8 00 00 00 00	 call	 _pow
  00f6c	83 c4 10	 add	 esp, 16			; 00000010H
  00f6f	d9 9d 44 fb ff
	ff		 fstp	 DWORD PTR tv1418[ebp]
  00f75	d9 85 44 fb ff
	ff		 fld	 DWORD PTR tv1418[ebp]
  00f7b	83 ec 08	 sub	 esp, 8
  00f7e	dd 05 00 00 00
	00		 fld	 QWORD PTR __real@4000000000000000
  00f84	dd 1c 24	 fstp	 QWORD PTR [esp]
  00f87	d9 85 f8 fc ff
	ff		 fld	 DWORD PTR _dblCtrI$[ebp]
  00f8d	83 ec 08	 sub	 esp, 8
  00f90	dd 1c 24	 fstp	 QWORD PTR [esp]
  00f93	dd 9d 3c fb ff
	ff		 fstp	 QWORD PTR tv1624[ebp]
  00f99	e8 00 00 00 00	 call	 _pow
  00f9e	83 c4 10	 add	 esp, 16			; 00000010H
  00fa1	d9 9d 38 fb ff
	ff		 fstp	 DWORD PTR tv1426[ebp]
  00fa7	d9 85 38 fb ff
	ff		 fld	 DWORD PTR tv1426[ebp]
  00fad	dc 85 3c fb ff
	ff		 fadd	 QWORD PTR tv1624[ebp]
  00fb3	d9 9d d4 fc ff
	ff		 fstp	 DWORD PTR _dblRightP$[ebp]

; 1841 : 
; 1842 : 	// the following rejects a single tone carrier but averages the two tones if ratio is < 2:1
; 1843 : 
; 1844 : 	if (dblLeftP > 2 * dblRightP)

  00fb9	d9 85 d4 fc ff
	ff		 fld	 DWORD PTR _dblRightP$[ebp]
  00fbf	dc 0d 00 00 00
	00		 fmul	 QWORD PTR __real@4000000000000000
  00fc5	d9 85 e0 fc ff
	ff		 fld	 DWORD PTR _dblLeftP$[ebp]
  00fcb	de d9		 fcompp
  00fcd	df e0		 fnstsw	 ax
  00fcf	f6 c4 41	 test	 ah, 65			; 00000041H
  00fd2	75 0e		 jne	 SHORT $LN14@SearchFor2

; 1845 : 		dblPowerEarly = dblRightP;

  00fd4	d9 85 d4 fc ff
	ff		 fld	 DWORD PTR _dblRightP$[ebp]
  00fda	d9 9d 18 fc ff
	ff		 fstp	 DWORD PTR _dblPowerEarly$[ebp]
  00fe0	eb 41		 jmp	 SHORT $LN11@SearchFor2
$LN14@SearchFor2:

; 1846 : 	else if (dblRightP > 2 * dblLeftP)

  00fe2	d9 85 e0 fc ff
	ff		 fld	 DWORD PTR _dblLeftP$[ebp]
  00fe8	dc 0d 00 00 00
	00		 fmul	 QWORD PTR __real@4000000000000000
  00fee	d9 85 d4 fc ff
	ff		 fld	 DWORD PTR _dblRightP$[ebp]
  00ff4	de d9		 fcompp
  00ff6	df e0		 fnstsw	 ax
  00ff8	f6 c4 41	 test	 ah, 65			; 00000041H
  00ffb	75 0e		 jne	 SHORT $LN12@SearchFor2

; 1847 : 		dblPowerEarly = dblLeftP;

  00ffd	d9 85 e0 fc ff
	ff		 fld	 DWORD PTR _dblLeftP$[ebp]
  01003	d9 9d 18 fc ff
	ff		 fstp	 DWORD PTR _dblPowerEarly$[ebp]

; 1848 : 	else

  01009	eb 18		 jmp	 SHORT $LN11@SearchFor2
$LN12@SearchFor2:

; 1849 : 		dblPowerEarly = (dblLeftP + dblRightP) * 0.5f; //simple average if radio < 2:1

  0100b	d9 85 e0 fc ff
	ff		 fld	 DWORD PTR _dblLeftP$[ebp]
  01011	d8 85 d4 fc ff
	ff		 fadd	 DWORD PTR _dblRightP$[ebp]
  01017	dc 0d 00 00 00
	00		 fmul	 QWORD PTR __real@3fe0000000000000
  0101d	d9 9d 18 fc ff
	ff		 fstp	 DWORD PTR _dblPowerEarly$[ebp]
$LN11@SearchFor2:

; 1850 : 
; 1851 : 	dblSNdBPwrEarly = 10 * log10f(dblPowerEarly / dblAvgNoisePerBin);

  01023	d9 85 18 fc ff
	ff		 fld	 DWORD PTR _dblPowerEarly$[ebp]
  01029	d8 b5 60 fc ff
	ff		 fdiv	 DWORD PTR _dblAvgNoisePerBin$[ebp]
  0102f	83 ec 08	 sub	 esp, 8
  01032	dd 1c 24	 fstp	 QWORD PTR [esp]
  01035	e8 00 00 00 00	 call	 _log10
  0103a	83 c4 08	 add	 esp, 8
  0103d	d9 9d 44 fb ff
	ff		 fstp	 DWORD PTR tv1448[ebp]
  01043	d9 85 44 fb ff
	ff		 fld	 DWORD PTR tv1448[ebp]
  01049	dc 0d 00 00 00
	00		 fmul	 QWORD PTR __real@4024000000000000
  0104f	d9 9d 0c fc ff
	ff		 fstp	 DWORD PTR _dblSNdBPwrEarly$[ebp]

; 1852 : 
; 1853 : 	// End of Early leader detect test code 
; 1854 : 
; 1855 : 
; 1856 : 	// The following thresholding requires the first half and the entire leader have a minium S:N for detection.
; 1857 : 	// These calibration values yield a sensitivity of ~ - 10 dB S:N (@ 3KHZ noise BW) with a Squelch=5, and 2 dB per squelch change
; 1858 : 	// The threshold for early is 1 dB lower than the threshold for the full 4 symbol leader . (compenseated for the 3 dB bandwidth difference)
; 1859 : 
; 1860 : 	if (dblSNdBPwr > (4 + Squelch) && (dblSNdBPwrEarly > (1 + Squelch))) // The -4 value comes from - (3+1) making early threshold 1 dB lower (after 3 dB compensation for bandwidth)

  01055	a1 00 00 00 00	 mov	 eax, DWORD PTR _Squelch
  0105a	83 c0 04	 add	 eax, 4
  0105d	89 85 44 fb ff
	ff		 mov	 DWORD PTR tv1454[ebp], eax
  01063	db 85 44 fb ff
	ff		 fild	 DWORD PTR tv1454[ebp]
  01069	d9 05 00 00 00
	00		 fld	 DWORD PTR _dblSNdBPwr
  0106f	de d9		 fcompp
  01071	df e0		 fnstsw	 ax
  01073	f6 c4 41	 test	 ah, 65			; 00000041H
  01076	0f 85 4c 03 00
	00		 jne	 $LN10@SearchFor2
  0107c	a1 00 00 00 00	 mov	 eax, DWORD PTR _Squelch
  01081	83 c0 01	 add	 eax, 1
  01084	89 85 44 fb ff
	ff		 mov	 DWORD PTR tv1460[ebp], eax
  0108a	db 85 44 fb ff
	ff		 fild	 DWORD PTR tv1460[ebp]
  01090	d9 85 0c fc ff
	ff		 fld	 DWORD PTR _dblSNdBPwrEarly$[ebp]
  01096	de d9		 fcompp
  01098	df e0		 fnstsw	 ax
  0109a	f6 c4 41	 test	 ah, 65			; 00000041H
  0109d	0f 85 25 03 00
	00		 jne	 $LN10@SearchFor2

; 1861 : 	{
; 1862 : 		WriteDebugLog("Fine Search S:N= %f dB, Prior S:N= %f", dblSNdBPwr,dblSNdBPwr_1);

  010a3	d9 05 00 00 00
	00		 fld	 DWORD PTR _dblSNdBPwr_1
  010a9	83 ec 08	 sub	 esp, 8
  010ac	dd 1c 24	 fstp	 QWORD PTR [esp]
  010af	d9 05 00 00 00
	00		 fld	 DWORD PTR _dblSNdBPwr
  010b5	83 ec 08	 sub	 esp, 8
  010b8	dd 1c 24	 fstp	 QWORD PTR [esp]
  010bb	68 00 00 00 00	 push	 OFFSET ??_C@_0CG@FHFOAMLN@Fine?5Search?5S?3N?$DN?5?$CFf?5dB?0?5Prior?5S?3@
  010c0	e8 00 00 00 00	 call	 _WriteDebugLog
  010c5	83 c4 14	 add	 esp, 20			; 00000014H

; 1863 : 
; 1864 : //		if (dblCoarseOffset < 999)
; 1865 : //			WriteDebugLog("  CourseOffsetHz= %f Coarse Pwr S:N= %f dB", dblCoarseOffset, dblCoarsePwrSN);
; 1866 : 
; 1867 : 		// Calculate the interpolation based on the left of the two tones
; 1868 : 
; 1869 : 		dblBinInterpLeft = QuinnSpectralPeakLocator(dblLeftR[0], dblLeftI[0], dblLeftR[1], dblLeftI[1], dblLeftR[2], dblLeftI[2]);

  010c8	51		 push	 ecx
  010c9	d9 85 b4 fc ff
	ff		 fld	 DWORD PTR _dblLeftI$[ebp+8]
  010cf	d9 1c 24	 fstp	 DWORD PTR [esp]
  010d2	51		 push	 ecx
  010d3	d9 85 c8 fc ff
	ff		 fld	 DWORD PTR _dblLeftR$[ebp+8]
  010d9	d9 1c 24	 fstp	 DWORD PTR [esp]
  010dc	51		 push	 ecx
  010dd	d9 85 b0 fc ff
	ff		 fld	 DWORD PTR _dblLeftI$[ebp+4]
  010e3	d9 1c 24	 fstp	 DWORD PTR [esp]
  010e6	51		 push	 ecx
  010e7	d9 85 c4 fc ff
	ff		 fld	 DWORD PTR _dblLeftR$[ebp+4]
  010ed	d9 1c 24	 fstp	 DWORD PTR [esp]
  010f0	51		 push	 ecx
  010f1	d9 85 ac fc ff
	ff		 fld	 DWORD PTR _dblLeftI$[ebp]
  010f7	d9 1c 24	 fstp	 DWORD PTR [esp]
  010fa	51		 push	 ecx
  010fb	d9 85 c0 fc ff
	ff		 fld	 DWORD PTR _dblLeftR$[ebp]
  01101	d9 1c 24	 fstp	 DWORD PTR [esp]
  01104	e8 00 00 00 00	 call	 _QuinnSpectralPeakLocator
  01109	83 c4 18	 add	 esp, 24			; 00000018H
  0110c	d9 9d 1c fd ff
	ff		 fstp	 DWORD PTR _dblBinInterpLeft$[ebp]

; 1870 : 		
; 1871 : 		// And the right of the two tones
; 1872 : 
; 1873 : 		dblBinInterpRight = QuinnSpectralPeakLocator(dblRightR[0], dblRightI[0], dblRightR[1], dblRightI[1], dblRightR[2], dblRightI[2]);

  01112	51		 push	 ecx
  01113	d9 85 8c fc ff
	ff		 fld	 DWORD PTR _dblRightI$[ebp+8]
  01119	d9 1c 24	 fstp	 DWORD PTR [esp]
  0111c	51		 push	 ecx
  0111d	d9 85 a0 fc ff
	ff		 fld	 DWORD PTR _dblRightR$[ebp+8]
  01123	d9 1c 24	 fstp	 DWORD PTR [esp]
  01126	51		 push	 ecx
  01127	d9 85 88 fc ff
	ff		 fld	 DWORD PTR _dblRightI$[ebp+4]
  0112d	d9 1c 24	 fstp	 DWORD PTR [esp]
  01130	51		 push	 ecx
  01131	d9 85 9c fc ff
	ff		 fld	 DWORD PTR _dblRightR$[ebp+4]
  01137	d9 1c 24	 fstp	 DWORD PTR [esp]
  0113a	51		 push	 ecx
  0113b	d9 85 84 fc ff
	ff		 fld	 DWORD PTR _dblRightI$[ebp]
  01141	d9 1c 24	 fstp	 DWORD PTR [esp]
  01144	51		 push	 ecx
  01145	d9 85 98 fc ff
	ff		 fld	 DWORD PTR _dblRightR$[ebp]
  0114b	d9 1c 24	 fstp	 DWORD PTR [esp]
  0114e	e8 00 00 00 00	 call	 _QuinnSpectralPeakLocator
  01153	83 c4 18	 add	 esp, 24			; 00000018H
  01156	d9 9d 10 fd ff
	ff		 fstp	 DWORD PTR _dblBinInterpRight$[ebp]

; 1874 : 		WriteDebugLog(" QSPL Left= %f  QSPL Right= %f", dblBinInterpLeft, dblBinInterpRight);

  0115c	d9 85 10 fd ff
	ff		 fld	 DWORD PTR _dblBinInterpRight$[ebp]
  01162	83 ec 08	 sub	 esp, 8
  01165	dd 1c 24	 fstp	 QWORD PTR [esp]
  01168	d9 85 1c fd ff
	ff		 fld	 DWORD PTR _dblBinInterpLeft$[ebp]
  0116e	83 ec 08	 sub	 esp, 8
  01171	dd 1c 24	 fstp	 QWORD PTR [esp]
  01174	68 00 00 00 00	 push	 OFFSET ??_C@_0BP@FCBHJODI@?5QSPL?5Left?$DN?5?$CFf?5?5QSPL?5Right?$DN?5?$CFf?$AA@
  01179	e8 00 00 00 00	 call	 _WriteDebugLog
  0117e	83 c4 14	 add	 esp, 20			; 00000014H

; 1875 :         
; 1876 : 		if (fabsf(dblBinInterpLeft + dblBinInterpRight) < 1.0) // sanity check for the interpolators 

  01181	d9 85 1c fd ff
	ff		 fld	 DWORD PTR _dblBinInterpLeft$[ebp]
  01187	d8 85 10 fd ff
	ff		 fadd	 DWORD PTR _dblBinInterpRight$[ebp]
  0118d	83 ec 08	 sub	 esp, 8
  01190	dd 1c 24	 fstp	 QWORD PTR [esp]
  01193	e8 00 00 00 00	 call	 _fabs
  01198	83 c4 08	 add	 esp, 8
  0119b	d9 9d 44 fb ff
	ff		 fstp	 DWORD PTR tv1506[ebp]
  011a1	d9 85 44 fb ff
	ff		 fld	 DWORD PTR tv1506[ebp]
  011a7	dc 1d 00 00 00
	00		 fcomp	 QWORD PTR __real@3ff0000000000000
  011ad	df e0		 fnstsw	 ax
  011af	f6 c4 05	 test	 ah, 5
  011b2	0f 8a d3 01 00
	00		 jp	 $LN9@SearchFor2

; 1877 : 		{
; 1878 : 			if (dblBinInterpLeft + dblBinInterpLeft > 0)  // consider different bounding below

  011b8	d9 85 1c fd ff
	ff		 fld	 DWORD PTR _dblBinInterpLeft$[ebp]
  011be	d8 85 1c fd ff
