; Listing generated by Microsoft (R) Optimizing Compiler Version 14.00.50727.42 

	TITLE	c:\SkyDrive\Dev\Source\ARDOPC\Waveout.c
	.686P
	.XMM
	include listing.inc
	.model	flat

INCLUDELIB LIBCMTD
INCLUDELIB OLDNAMES

PUBLIC	_gotGPIO
PUBLIC	_useGPIO
PUBLIC	_pttGPIOPin
PUBLIC	_hPTTDevice
PUBLIC	_PTTPORT
PUBLIC	_PTTMode
PUBLIC	_Loopback
PUBLIC	_CaptureDevice
PUBLIC	_PlaybackDevice
PUBLIC	_CaptureDevices
PUBLIC	_PlaybackDevices
PUBLIC	_CaptureCount
PUBLIC	_PlaybackCount
PUBLIC	_CaptureIndex
PUBLIC	_PlayBackIndex
PUBLIC	_CaptureNames
PUBLIC	_PlaybackNames
PUBLIC	_wfx
PUBLIC	_hWaveOut
PUBLIC	_hWaveIn
PUBLIC	_header
PUBLIC	_inheader
PUBLIC	_PriorSize
PUBLIC	_Index
PUBLIC	_inIndex
PUBLIC	_DMARunning
PUBLIC	_min
PUBLIC	_max
PUBLIC	_leveltimer
PUBLIC	_logfile
PUBLIC	_statslogfile
PUBLIC	_BoolString
PUBLIC	_CatRXLen
_DATA	SEGMENT
COMM	_buffer:WORD:0960H
COMM	_LastNow:DWORD
COMM	_Frequency:QWORD
COMM	_CatRXbuffer:BYTE:0100H
COMM	_pwoc:BYTE:034H
COMM	_pwic:BYTE:030H
COMM	_inbuffer:WORD:04b0H
COMM	_wavfp1:DWORD
COMM	_StartTicks:QWORD
COMM	_NewTicks:QWORD
COMM	_Ticks:DWORD
_DATA	ENDS
_BSS	SEGMENT
_gotGPIO DD	01H DUP (?)
_useGPIO DD	01H DUP (?)
_hPTTDevice DD	01H DUP (?)
_PTTPORT DB	050H DUP (?)
_Loopback DD	01H DUP (?)
_CaptureDevices DD 01H DUP (?)
_PlaybackDevices DD 01H DUP (?)
_CaptureCount DD 01H DUP (?)
_PlaybackCount DD 01H DUP (?)
_CaptureNames DB 0220H DUP (?)
_PlaybackNames DB 0220H DUP (?)
_hWaveOut DD	01H DUP (?)
_hWaveIn DD	01H DUP (?)
_PriorSize DD	01H DUP (?)
_Index	DD	01H DUP (?)
_inIndex DD	01H DUP (?)
_DMARunning DD	01H DUP (?)
_min	DD	01H DUP (?)
_max	DD	01H DUP (?)
_leveltimer DD	01H DUP (?)
_logfile DD	01H DUP (?)
_statslogfile DD 01H DUP (?)
_CatRXLen DD	01H DUP (?)
_BSS	ENDS
CONST	SEGMENT
_BoolString DB	'FALSE', 00H
	DB	'TRUE', 00H
	ORG $+1
CONST	ENDS
_DATA	SEGMENT
_pttGPIOPin DD	0ffffffffH
_PTTMode DD	01H
_CaptureDevice DB '0', 00H
	ORG $+78
_PlaybackDevice DB '0', 00H
	ORG $+78
_CaptureIndex DD 0ffffffffH
_PlayBackIndex DD 0ffffffffH
_wfx	DW	01H
	DW	01H
	DD	02ee0H
	DD	02ee0H
	DW	02H
	DW	010H
	DW	00H
	ORG $+6
_header	DD	FLAT:_buffer
	DD	00H
	DD	00H
	DD	00H
	DD	00H
	DD	00H
	DD	00H
	DD	00H
	DD	FLAT:_buffer+2400
	DD	00H
	DD	00H
	DD	00H
	DD	00H
	DD	00H
	DD	00H
	DD	00H
_inheader DD	FLAT:_inbuffer
	DD	00H
	DD	00H
	DD	00H
	DD	00H
	DD	00H
	DD	00H
	DD	00H
	DD	FLAT:_inbuffer+480
	DD	00H
	DD	00H
	DD	00H
	DD	00H
	DD	00H
	DD	00H
	DD	00H
	DD	FLAT:_inbuffer+960
	DD	00H
	DD	00H
	DD	00H
	DD	00H
	DD	00H
	DD	00H
	DD	00H
	DD	FLAT:_inbuffer+1440
	DD	00H
	DD	00H
	DD	00H
	DD	00H
	DD	00H
	DD	00H
	DD	00H
	DD	FLAT:_inbuffer+1920
	DD	00H
	DD	00H
	DD	00H
	DD	00H
	DD	00H
	DD	00H
	DD	00H
_DATA	ENDS
PUBLIC	??_C@_0CC@IKBAHAKM@Failed?5to?5set?5High?5Priority?5?$CI?$CFd?$CJ@ ; `string'
PUBLIC	_GetSoundDevices
PUBLIC	??_C@_0BN@HAJDAIGK@Using?5RTS?5on?5port?5?$CFs?5for?5PTT?$AA@ ; `string'
PUBLIC	_COMClearDTR
PUBLIC	_COMClearRTS
PUBLIC	_OpenCOMPort
PUBLIC	_WriteDebugLog
PUBLIC	??_C@_0BC@IDGKMAG@ARDOPC?5Version?5?$CFs?$AA@	; `string'
PUBLIC	??_C@_0M@NIMIDGCH@0?49?40?44?9BPQ?$AA@		; `string'
PUBLIC	_main
EXTRN	_ardopmain:PROC
EXTRN	__imp__GetLastError@0:PROC
EXTRN	_printf:PROC
EXTRN	__imp__SetPriorityClass@8:PROC
EXTRN	__imp__GetCurrentProcess@0:PROC
EXTRN	__imp__QueryPerformanceCounter@4:PROC
EXTRN	__imp__QueryPerformanceFrequency@4:PROC
EXTRN	_RadioControl:DWORD
EXTRN	__strupr:PROC
EXTRN	_strcpy:PROC
EXTRN	_port:DWORD
EXTRN	_atoi:PROC
EXTRN	__imp__timeGetTime@0:PROC
EXTRN	__imp__timeBeginPeriod@4:PROC
EXTRN	__imp__timeGetDevCaps@8:PROC
EXTRN	@_RTC_CheckStackVars@8:PROC
EXTRN	__alldiv:PROC
EXTRN	__RTC_CheckEsp:PROC
EXTRN	__RTC_Shutdown:PROC
EXTRN	__RTC_InitBase:PROC
;	COMDAT ??_C@_0CC@IKBAHAKM@Failed?5to?5set?5High?5Priority?5?$CI?$CFd?$CJ@
; File c:\skydrive\dev\source\ardopc\waveout.c
CONST	SEGMENT
??_C@_0CC@IKBAHAKM@Failed?5to?5set?5High?5Priority?5?$CI?$CFd?$CJ@ DB 'Fa'
	DB	'iled to set High Priority (%d)', 0aH, 00H	; `string'
CONST	ENDS
;	COMDAT ??_C@_0BN@HAJDAIGK@Using?5RTS?5on?5port?5?$CFs?5for?5PTT?$AA@
CONST	SEGMENT
??_C@_0BN@HAJDAIGK@Using?5RTS?5on?5port?5?$CFs?5for?5PTT?$AA@ DB 'Using R'
	DB	'TS on port %s for PTT', 00H			; `string'
CONST	ENDS
;	COMDAT ??_C@_0BC@IDGKMAG@ARDOPC?5Version?5?$CFs?$AA@
CONST	SEGMENT
??_C@_0BC@IDGKMAG@ARDOPC?5Version?5?$CFs?$AA@ DB 'ARDOPC Version %s', 00H ; `string'
CONST	ENDS
;	COMDAT ??_C@_0M@NIMIDGCH@0?49?40?44?9BPQ?$AA@
CONST	SEGMENT
??_C@_0M@NIMIDGCH@0?49?40?44?9BPQ?$AA@ DB '0.9.0.4-BPQ', 00H ; `string'
CONST	ENDS
;	COMDAT rtc$TMZ
rtc$TMZ	SEGMENT
__RTC_Shutdown.rtc$TMZ DD FLAT:__RTC_Shutdown
rtc$TMZ	ENDS
;	COMDAT rtc$IMZ
rtc$IMZ	SEGMENT
__RTC_InitBase.rtc$IMZ DD FLAT:__RTC_InitBase
; Function compile flags: /Odtp /RTCsu /ZI
rtc$IMZ	ENDS
;	COMDAT _main
_TEXT	SEGMENT
tv73 = -256						; size = 4
tv72 = -252						; size = 4
tv69 = -248						; size = 4
_lastt$ = -48						; size = 4
_t$ = -36						; size = 4
_wTimerRes$ = -24					; size = 4
_tc$ = -12						; size = 8
_argc$ = 8						; size = 4
_argv$ = 12						; size = 4
_main	PROC						; COMDAT

; 128  : {

  00000	55		 push	 ebp
  00001	8b ec		 mov	 ebp, esp
  00003	81 ec 00 01 00
	00		 sub	 esp, 256		; 00000100H
  00009	53		 push	 ebx
  0000a	56		 push	 esi
  0000b	57		 push	 edi
  0000c	8d bd 00 ff ff
	ff		 lea	 edi, DWORD PTR [ebp-256]
  00012	b9 40 00 00 00	 mov	 ecx, 64			; 00000040H
  00017	b8 cc cc cc cc	 mov	 eax, -858993460		; ccccccccH
  0001c	f3 ab		 rep stosd

; 129  : 
; 130  : 	TIMECAPS tc;
; 131  : 	UINT     wTimerRes;
; 132  : 	DWORD	t, lastt = 0;

  0001e	c7 45 d0 00 00
	00 00		 mov	 DWORD PTR _lastt$[ebp], 0

; 133  : 
; 134  : //	Generate50BaudTwoToneLeaderTemplate();
; 135  : //	GeneratePSKTemplates();
; 136  : 
; 137  : 	if (timeGetDevCaps(&tc, sizeof(TIMECAPS)) != TIMERR_NOERROR) 

  00025	8b f4		 mov	 esi, esp
  00027	6a 08		 push	 8
  00029	8d 45 f4	 lea	 eax, DWORD PTR _tc$[ebp]
  0002c	50		 push	 eax
  0002d	ff 15 00 00 00
	00		 call	 DWORD PTR __imp__timeGetDevCaps@8
  00033	3b f4		 cmp	 esi, esp
  00035	e8 00 00 00 00	 call	 __RTC_CheckEsp

; 138  : 	{
; 139  : 	    // Error; application can't continue.
; 140  : 	}
; 141  : 
; 142  : 	wTimerRes = min(max(tc.wPeriodMin, TARGET_RESOLUTION), tc.wPeriodMax);

  0003a	83 7d f4 01	 cmp	 DWORD PTR _tc$[ebp], 1
  0003e	76 0b		 jbe	 SHORT $LN10@main
  00040	8b 45 f4	 mov	 eax, DWORD PTR _tc$[ebp]
  00043	89 85 08 ff ff
	ff		 mov	 DWORD PTR tv69[ebp], eax
  00049	eb 0a		 jmp	 SHORT $LN11@main
$LN10@main:
  0004b	c7 85 08 ff ff
	ff 01 00 00 00	 mov	 DWORD PTR tv69[ebp], 1
$LN11@main:
  00055	8b 8d 08 ff ff
	ff		 mov	 ecx, DWORD PTR tv69[ebp]
  0005b	3b 4d f8	 cmp	 ecx, DWORD PTR _tc$[ebp+4]
  0005e	73 29		 jae	 SHORT $LN14@main
  00060	83 7d f4 01	 cmp	 DWORD PTR _tc$[ebp], 1
  00064	76 0b		 jbe	 SHORT $LN12@main
  00066	8b 55 f4	 mov	 edx, DWORD PTR _tc$[ebp]
  00069	89 95 04 ff ff
	ff		 mov	 DWORD PTR tv72[ebp], edx
  0006f	eb 0a		 jmp	 SHORT $LN13@main
$LN12@main:
  00071	c7 85 04 ff ff
	ff 01 00 00 00	 mov	 DWORD PTR tv72[ebp], 1
$LN13@main:
  0007b	8b 85 04 ff ff
	ff		 mov	 eax, DWORD PTR tv72[ebp]
  00081	89 85 00 ff ff
	ff		 mov	 DWORD PTR tv73[ebp], eax
  00087	eb 09		 jmp	 SHORT $LN15@main
$LN14@main:
  00089	8b 4d f8	 mov	 ecx, DWORD PTR _tc$[ebp+4]
  0008c	89 8d 00 ff ff
	ff		 mov	 DWORD PTR tv73[ebp], ecx
$LN15@main:
  00092	8b 95 00 ff ff
	ff		 mov	 edx, DWORD PTR tv73[ebp]
  00098	89 55 e8	 mov	 DWORD PTR _wTimerRes$[ebp], edx

; 143  : 	timeBeginPeriod(wTimerRes); 

  0009b	8b f4		 mov	 esi, esp
  0009d	8b 45 e8	 mov	 eax, DWORD PTR _wTimerRes$[ebp]
  000a0	50		 push	 eax
  000a1	ff 15 00 00 00
	00		 call	 DWORD PTR __imp__timeBeginPeriod@4
  000a7	3b f4		 cmp	 esi, esp
  000a9	e8 00 00 00 00	 call	 __RTC_CheckEsp

; 144  : 
; 145  : 	t = timeGetTime();

  000ae	8b f4		 mov	 esi, esp
  000b0	ff 15 00 00 00
	00		 call	 DWORD PTR __imp__timeGetTime@0
  000b6	3b f4		 cmp	 esi, esp
  000b8	e8 00 00 00 00	 call	 __RTC_CheckEsp
  000bd	89 45 dc	 mov	 DWORD PTR _t$[ebp], eax

; 146  : 
; 147  : 	WriteDebugLog(LOGALERT, "ARDOPC Version %s", ProductVersion);

  000c0	68 00 00 00 00	 push	 OFFSET ??_C@_0M@NIMIDGCH@0?49?40?44?9BPQ?$AA@
  000c5	68 00 00 00 00	 push	 OFFSET ??_C@_0BC@IDGKMAG@ARDOPC?5Version?5?$CFs?$AA@
  000ca	6a 01		 push	 1
  000cc	e8 00 00 00 00	 call	 _WriteDebugLog
  000d1	83 c4 0c	 add	 esp, 12			; 0000000cH

; 148  : 
; 149  : 	if (argc > 1)

  000d4	83 7d 08 01	 cmp	 DWORD PTR _argc$[ebp], 1
  000d8	7e 14		 jle	 SHORT $LN6@main

; 150  : 		port = atoi(argv[1]);

  000da	8b 45 0c	 mov	 eax, DWORD PTR _argv$[ebp]
  000dd	8b 48 04	 mov	 ecx, DWORD PTR [eax+4]
  000e0	51		 push	 ecx
  000e1	e8 00 00 00 00	 call	 _atoi
  000e6	83 c4 04	 add	 esp, 4
  000e9	a3 00 00 00 00	 mov	 DWORD PTR _port, eax
$LN6@main:

; 151  : 	
; 152  : 	if (argc > 3)

  000ee	83 7d 08 03	 cmp	 DWORD PTR _argc$[ebp], 3
  000f2	7e 42		 jle	 SHORT $LN5@main

; 153  : 	{
; 154  : 		strcpy(CaptureDevice, argv[2]);

  000f4	8b 45 0c	 mov	 eax, DWORD PTR _argv$[ebp]
  000f7	8b 48 08	 mov	 ecx, DWORD PTR [eax+8]
  000fa	51		 push	 ecx
  000fb	68 00 00 00 00	 push	 OFFSET _CaptureDevice
  00100	e8 00 00 00 00	 call	 _strcpy
  00105	83 c4 08	 add	 esp, 8

; 155  : 		strcpy(PlaybackDevice, argv[3]);

  00108	8b 45 0c	 mov	 eax, DWORD PTR _argv$[ebp]
  0010b	8b 48 0c	 mov	 ecx, DWORD PTR [eax+12]
  0010e	51		 push	 ecx
  0010f	68 00 00 00 00	 push	 OFFSET _PlaybackDevice
  00114	e8 00 00 00 00	 call	 _strcpy
  00119	83 c4 08	 add	 esp, 8

; 156  : 		_strupr(CaptureDevice);

  0011c	68 00 00 00 00	 push	 OFFSET _CaptureDevice
  00121	e8 00 00 00 00	 call	 __strupr
  00126	83 c4 04	 add	 esp, 4

; 157  : 		_strupr(PlaybackDevice);

  00129	68 00 00 00 00	 push	 OFFSET _PlaybackDevice
  0012e	e8 00 00 00 00	 call	 __strupr
  00133	83 c4 04	 add	 esp, 4
$LN5@main:

; 158  : 	}
; 159  : 
; 160  : 	if (argc > 4)

  00136	83 7d 08 04	 cmp	 DWORD PTR _argc$[ebp], 4
  0013a	7e 14		 jle	 SHORT $LN4@main

; 161  : 		strcpy(PTTPORT, argv[4]);

  0013c	8b 45 0c	 mov	 eax, DWORD PTR _argv$[ebp]
  0013f	8b 48 10	 mov	 ecx, DWORD PTR [eax+16]
  00142	51		 push	 ecx
  00143	68 00 00 00 00	 push	 OFFSET _PTTPORT
  00148	e8 00 00 00 00	 call	 _strcpy
  0014d	83 c4 08	 add	 esp, 8
$LN4@main:

; 162  : 
; 163  : 	if (PTTPORT)

  00150	b8 00 00 00 00	 mov	 eax, OFFSET _PTTPORT
  00155	85 c0		 test	 eax, eax
  00157	74 1f		 je	 SHORT $LN3@main

; 164  : 		hPTTDevice = OpenCOMPort(PTTPORT, 19200, FALSE, FALSE, FALSE, 0);

  00159	6a 00		 push	 0
  0015b	6a 00		 push	 0
  0015d	6a 00		 push	 0
  0015f	6a 00		 push	 0
  00161	68 00 4b 00 00	 push	 19200			; 00004b00H
  00166	68 00 00 00 00	 push	 OFFSET _PTTPORT
  0016b	e8 00 00 00 00	 call	 _OpenCOMPort
  00170	83 c4 18	 add	 esp, 24			; 00000018H
  00173	a3 00 00 00 00	 mov	 DWORD PTR _hPTTDevice, eax
$LN3@main:

; 165  : 
; 166  : 	if (hPTTDevice)

  00178	83 3d 00 00 00
	00 00		 cmp	 DWORD PTR _hPTTDevice, 0
  0017f	74 3a		 je	 SHORT $LN2@main

; 167  : 	{
; 168  : 		COMClearRTS(hPTTDevice);

  00181	a1 00 00 00 00	 mov	 eax, DWORD PTR _hPTTDevice
  00186	50		 push	 eax
  00187	e8 00 00 00 00	 call	 _COMClearRTS
  0018c	83 c4 04	 add	 esp, 4

; 169  : 		COMClearDTR(hPTTDevice);

  0018f	a1 00 00 00 00	 mov	 eax, DWORD PTR _hPTTDevice
  00194	50		 push	 eax
  00195	e8 00 00 00 00	 call	 _COMClearDTR
  0019a	83 c4 04	 add	 esp, 4

; 170  : 		WriteDebugLog(LOGALERT, "Using RTS on port %s for PTT", PTTPORT); 

  0019d	68 00 00 00 00	 push	 OFFSET _PTTPORT
  001a2	68 00 00 00 00	 push	 OFFSET ??_C@_0BN@HAJDAIGK@Using?5RTS?5on?5port?5?$CFs?5for?5PTT?$AA@
  001a7	6a 01		 push	 1
  001a9	e8 00 00 00 00	 call	 _WriteDebugLog
  001ae	83 c4 0c	 add	 esp, 12			; 0000000cH

; 171  : 		RadioControl = TRUE;

  001b1	c7 05 00 00 00
	00 01 00 00 00	 mov	 DWORD PTR _RadioControl, 1
$LN2@main:

; 172  : 	}
; 173  : 
; 174  : 	QueryPerformanceFrequency(&Frequency);

  001bb	8b f4		 mov	 esi, esp
  001bd	68 00 00 00 00	 push	 OFFSET _Frequency
  001c2	ff 15 00 00 00
	00		 call	 DWORD PTR __imp__QueryPerformanceFrequency@4
  001c8	3b f4		 cmp	 esi, esp
  001ca	e8 00 00 00 00	 call	 __RTC_CheckEsp

; 175  : 	Frequency.QuadPart /= 1000;			// Microsecs

  001cf	6a 00		 push	 0
  001d1	68 e8 03 00 00	 push	 1000			; 000003e8H
  001d6	a1 04 00 00 00	 mov	 eax, DWORD PTR _Frequency+4
  001db	50		 push	 eax
  001dc	8b 0d 00 00 00
	00		 mov	 ecx, DWORD PTR _Frequency
  001e2	51		 push	 ecx
  001e3	e8 00 00 00 00	 call	 __alldiv
  001e8	a3 00 00 00 00	 mov	 DWORD PTR _Frequency, eax
  001ed	89 15 04 00 00
	00		 mov	 DWORD PTR _Frequency+4, edx

; 176  : 	QueryPerformanceCounter(&StartTicks);

  001f3	8b f4		 mov	 esi, esp
  001f5	68 00 00 00 00	 push	 OFFSET _StartTicks
  001fa	ff 15 00 00 00
	00		 call	 DWORD PTR __imp__QueryPerformanceCounter@4
  00200	3b f4		 cmp	 esi, esp
  00202	e8 00 00 00 00	 call	 __RTC_CheckEsp

; 177  : 
; 178  : 	GetSoundDevices();

  00207	e8 00 00 00 00	 call	 _GetSoundDevices

; 179  : 	
; 180  : 	if(!SetPriorityClass(GetCurrentProcess(), HIGH_PRIORITY_CLASS))

  0020c	8b f4		 mov	 esi, esp
  0020e	68 80 00 00 00	 push	 128			; 00000080H
  00213	8b fc		 mov	 edi, esp
  00215	ff 15 00 00 00
	00		 call	 DWORD PTR __imp__GetCurrentProcess@0
  0021b	3b fc		 cmp	 edi, esp
  0021d	e8 00 00 00 00	 call	 __RTC_CheckEsp
  00222	50		 push	 eax
  00223	ff 15 00 00 00
	00		 call	 DWORD PTR __imp__SetPriorityClass@8
  00229	3b f4		 cmp	 esi, esp
  0022b	e8 00 00 00 00	 call	 __RTC_CheckEsp
  00230	85 c0		 test	 eax, eax
  00232	75 1c		 jne	 SHORT $LN1@main

; 181  : 		printf("Failed to set High Priority (%d)\n"), GetLastError();

  00234	68 00 00 00 00	 push	 OFFSET ??_C@_0CC@IKBAHAKM@Failed?5to?5set?5High?5Priority?5?$CI?$CFd?$CJ@
  00239	e8 00 00 00 00	 call	 _printf
  0023e	83 c4 04	 add	 esp, 4
  00241	8b f4		 mov	 esi, esp
  00243	ff 15 00 00 00
	00		 call	 DWORD PTR __imp__GetLastError@0
  00249	3b f4		 cmp	 esi, esp
  0024b	e8 00 00 00 00	 call	 __RTC_CheckEsp
$LN1@main:

; 182  : 
; 183  : 	ardopmain();

  00250	e8 00 00 00 00	 call	 _ardopmain

; 184  : }

  00255	33 c0		 xor	 eax, eax
  00257	52		 push	 edx
  00258	8b cd		 mov	 ecx, ebp
  0025a	50		 push	 eax
  0025b	8d 15 00 00 00
	00		 lea	 edx, DWORD PTR $LN18@main
  00261	e8 00 00 00 00	 call	 @_RTC_CheckStackVars@8
  00266	58		 pop	 eax
  00267	5a		 pop	 edx
  00268	5f		 pop	 edi
  00269	5e		 pop	 esi
  0026a	5b		 pop	 ebx
  0026b	81 c4 00 01 00
	00		 add	 esp, 256		; 00000100H
  00271	3b ec		 cmp	 ebp, esp
  00273	e8 00 00 00 00	 call	 __RTC_CheckEsp
  00278	8b e5		 mov	 esp, ebp
  0027a	5d		 pop	 ebp
  0027b	c3		 ret	 0
$LN18@main:
  0027c	01 00 00 00	 DD	 1
  00280	00 00 00 00	 DD	 $LN17@main
$LN17@main:
  00284	f4 ff ff ff	 DD	 -12			; fffffff4H
  00288	08 00 00 00	 DD	 8
  0028c	00 00 00 00	 DD	 $LN16@main
$LN16@main:
  00290	74		 DB	 116			; 00000074H
  00291	63		 DB	 99			; 00000063H
  00292	00		 DB	 0
_main	ENDP
_TEXT	ENDS
PUBLIC	_getTicks
; Function compile flags: /Odtp /RTCsu /ZI
;	COMDAT _getTicks
_TEXT	SEGMENT
_getTicks PROC						; COMDAT

; 187  : {

  00000	55		 push	 ebp
  00001	8b ec		 mov	 ebp, esp
  00003	81 ec c0 00 00
	00		 sub	 esp, 192		; 000000c0H
  00009	53		 push	 ebx
  0000a	56		 push	 esi
  0000b	57		 push	 edi
  0000c	8d bd 40 ff ff
	ff		 lea	 edi, DWORD PTR [ebp-192]
  00012	b9 30 00 00 00	 mov	 ecx, 48			; 00000030H
  00017	b8 cc cc cc cc	 mov	 eax, -858993460		; ccccccccH
  0001c	f3 ab		 rep stosd

; 188  : 	return timeGetTime();

  0001e	8b f4		 mov	 esi, esp
  00020	ff 15 00 00 00
	00		 call	 DWORD PTR __imp__timeGetTime@0
  00026	3b f4		 cmp	 esi, esp
  00028	e8 00 00 00 00	 call	 __RTC_CheckEsp

; 189  : //		QueryPerformanceCounter(&NewTicks);
; 190  : //		return (int)(NewTicks.QuadPart - StartTicks.QuadPart) / Frequency.QuadPart;
; 191  : }

  0002d	5f		 pop	 edi
  0002e	5e		 pop	 esi
  0002f	5b		 pop	 ebx
  00030	81 c4 c0 00 00
	00		 add	 esp, 192		; 000000c0H
  00036	3b ec		 cmp	 ebp, esp
  00038	e8 00 00 00 00	 call	 __RTC_CheckEsp
  0003d	8b e5		 mov	 esp, ebp
  0003f	5d		 pop	 ebp
  00040	c3		 ret	 0
_getTicks ENDP
_TEXT	ENDS
PUBLIC	??_C@_06NGCFLHDP@?$CFs?5?$CFi?$AN?$AA@		; `string'
PUBLIC	_printtick
;	COMDAT ??_C@_06NGCFLHDP@?$CFs?5?$CFi?$AN?$AA@
CONST	SEGMENT
??_C@_06NGCFLHDP@?$CFs?5?$CFi?$AN?$AA@ DB '%s %i', 0dH, 00H ; `string'
; Function compile flags: /Odtp /RTCsu /ZI
CONST	ENDS
;	COMDAT _printtick
_TEXT	SEGMENT
_msg$ = 8						; size = 4
_printtick PROC						; COMDAT

; 194  : {

  00000	55		 push	 ebp
  00001	8b ec		 mov	 ebp, esp
  00003	81 ec c0 00 00
	00		 sub	 esp, 192		; 000000c0H
  00009	53		 push	 ebx
  0000a	56		 push	 esi
  0000b	57		 push	 edi
  0000c	8d bd 40 ff ff
	ff		 lea	 edi, DWORD PTR [ebp-192]
  00012	b9 30 00 00 00	 mov	 ecx, 48			; 00000030H
  00017	b8 cc cc cc cc	 mov	 eax, -858993460		; ccccccccH
  0001c	f3 ab		 rep stosd

; 195  : 	QueryPerformanceCounter(&NewTicks);

  0001e	8b f4		 mov	 esi, esp
  00020	68 00 00 00 00	 push	 OFFSET _NewTicks
  00025	ff 15 00 00 00
	00		 call	 DWORD PTR __imp__QueryPerformanceCounter@4
  0002b	3b f4		 cmp	 esi, esp
  0002d	e8 00 00 00 00	 call	 __RTC_CheckEsp

; 196  : 	WriteDebugLog(LOGCRIT, "%s %i\r", msg, Now - LastNow);

  00032	e8 00 00 00 00	 call	 _getTicks
  00037	2b 05 00 00 00
	00		 sub	 eax, DWORD PTR _LastNow
  0003d	50		 push	 eax
  0003e	8b 45 08	 mov	 eax, DWORD PTR _msg$[ebp]
  00041	50		 push	 eax
  00042	68 00 00 00 00	 push	 OFFSET ??_C@_06NGCFLHDP@?$CFs?5?$CFi?$AN?$AA@
  00047	6a 02		 push	 2
  00049	e8 00 00 00 00	 call	 _WriteDebugLog
  0004e	83 c4 10	 add	 esp, 16			; 00000010H

; 197  : 	LastNow = Now;

  00051	e8 00 00 00 00	 call	 _getTicks
  00056	a3 00 00 00 00	 mov	 DWORD PTR _LastNow, eax

; 198  : }

  0005b	5f		 pop	 edi
  0005c	5e		 pop	 esi
  0005d	5b		 pop	 ebx
  0005e	81 c4 c0 00 00
	00		 add	 esp, 192		; 000000c0H
  00064	3b ec		 cmp	 ebp, esp
  00066	e8 00 00 00 00	 call	 __RTC_CheckEsp
  0006b	8b e5		 mov	 esp, ebp
  0006d	5d		 pop	 ebp
  0006e	c3		 ret	 0
_printtick ENDP
_TEXT	ENDS
PUBLIC	_PollReceivedSamples
PUBLIC	_txSleep
EXTRN	__imp__Sleep@4:PROC
EXTRN	_HostPoll:PROC
; Function compile flags: /Odtp /RTCsu /ZI
;	COMDAT _txSleep
_TEXT	SEGMENT
_mS$ = 8						; size = 4
_txSleep PROC						; COMDAT

; 201  : {

  00000	55		 push	 ebp
  00001	8b ec		 mov	 ebp, esp
  00003	81 ec c0 00 00
	00		 sub	 esp, 192		; 000000c0H
  00009	53		 push	 ebx
  0000a	56		 push	 esi
  0000b	57		 push	 edi
  0000c	8d bd 40 ff ff
	ff		 lea	 edi, DWORD PTR [ebp-192]
  00012	b9 30 00 00 00	 mov	 ecx, 48			; 00000030H
  00017	b8 cc cc cc cc	 mov	 eax, -858993460		; ccccccccH
  0001c	f3 ab		 rep stosd

; 202  : 	// called while waiting for next TX buffer. Run background processes
; 203  : 
; 204  : 	PollReceivedSamples();			// discard any received samples

  0001e	e8 00 00 00 00	 call	 _PollReceivedSamples

; 205  : 	HostPoll();

  00023	e8 00 00 00 00	 call	 _HostPoll

; 206  : 	Sleep(mS);

  00028	8b f4		 mov	 esi, esp
  0002a	8b 45 08	 mov	 eax, DWORD PTR _mS$[ebp]
  0002d	50		 push	 eax
  0002e	ff 15 00 00 00
	00		 call	 DWORD PTR __imp__Sleep@4
  00034	3b f4		 cmp	 esi, esp
  00036	e8 00 00 00 00	 call	 __RTC_CheckEsp

; 207  : }

  0003b	5f		 pop	 edi
  0003c	5e		 pop	 esi
  0003d	5b		 pop	 ebx
  0003e	81 c4 c0 00 00
	00		 add	 esp, 192		; 000000c0H
  00044	3b ec		 cmp	 ebp, esp
  00046	e8 00 00 00 00	 call	 __RTC_CheckEsp
  0004b	8b e5		 mov	 esp, ebp
  0004d	5d		 pop	 ebp
  0004e	c3		 ret	 0
_txSleep ENDP
_TEXT	ENDS
PUBLIC	_SendtoCard
EXTRN	__imp__waveOutUnprepareHeader@12:PROC
EXTRN	__imp__waveOutWrite@12:PROC
EXTRN	__imp__waveOutPrepareHeader@12:PROC
; Function compile flags: /Odtp /RTCsu /ZI
;	COMDAT _SendtoCard
_TEXT	SEGMENT
_buf$ = 8						; size = 4
_n$ = 12						; size = 4
_SendtoCard PROC					; COMDAT

; 220  : {

  00000	55		 push	 ebp
  00001	8b ec		 mov	 ebp, esp
  00003	81 ec c0 00 00
	00		 sub	 esp, 192		; 000000c0H
  00009	53		 push	 ebx
  0000a	56		 push	 esi
  0000b	57		 push	 edi
  0000c	8d bd 40 ff ff
	ff		 lea	 edi, DWORD PTR [ebp-192]
  00012	b9 30 00 00 00	 mov	 ecx, 48			; 00000030H
  00017	b8 cc cc cc cc	 mov	 eax, -858993460		; ccccccccH
  0001c	f3 ab		 rep stosd

; 221  : 	header[Index].dwBufferLength = n * 2;

  0001e	8b 45 0c	 mov	 eax, DWORD PTR _n$[ebp]
  00021	d1 e0		 shl	 eax, 1
  00023	8b 0d 00 00 00
	00		 mov	 ecx, DWORD PTR _Index
  00029	c1 e1 05	 shl	 ecx, 5
  0002c	89 81 04 00 00
	00		 mov	 DWORD PTR _header[ecx+4], eax

; 222  : 
; 223  : 	waveOutPrepareHeader(hWaveOut, &header[Index], sizeof(WAVEHDR));

  00032	8b f4		 mov	 esi, esp
  00034	6a 20		 push	 32			; 00000020H
  00036	a1 00 00 00 00	 mov	 eax, DWORD PTR _Index
  0003b	c1 e0 05	 shl	 eax, 5
  0003e	05 00 00 00 00	 add	 eax, OFFSET _header
  00043	50		 push	 eax
  00044	8b 0d 00 00 00
	00		 mov	 ecx, DWORD PTR _hWaveOut
  0004a	51		 push	 ecx
  0004b	ff 15 00 00 00
	00		 call	 DWORD PTR __imp__waveOutPrepareHeader@12
  00051	3b f4		 cmp	 esi, esp
  00053	e8 00 00 00 00	 call	 __RTC_CheckEsp

; 224  : 	waveOutWrite(hWaveOut, &header[Index], sizeof(WAVEHDR));

  00058	8b f4		 mov	 esi, esp
  0005a	6a 20		 push	 32			; 00000020H
  0005c	a1 00 00 00 00	 mov	 eax, DWORD PTR _Index
  00061	c1 e0 05	 shl	 eax, 5
  00064	05 00 00 00 00	 add	 eax, OFFSET _header
  00069	50		 push	 eax
  0006a	8b 0d 00 00 00
	00		 mov	 ecx, DWORD PTR _hWaveOut
  00070	51		 push	 ecx
  00071	ff 15 00 00 00
	00		 call	 DWORD PTR __imp__waveOutWrite@12
  00077	3b f4		 cmp	 esi, esp
  00079	e8 00 00 00 00	 call	 __RTC_CheckEsp
$LN2@SendtoCard:

; 225  : 
; 226  : 	// wait till previous buffer is complete
; 227  : 
; 228  : 	while (!(header[!Index].dwFlags & WHDR_DONE))

  0007e	33 c0		 xor	 eax, eax
  00080	83 3d 00 00 00
	00 00		 cmp	 DWORD PTR _Index, 0
  00087	0f 94 c0	 sete	 al
  0008a	c1 e0 05	 shl	 eax, 5
  0008d	8b 88 10 00 00
	00		 mov	 ecx, DWORD PTR _header[eax+16]
  00093	83 e1 01	 and	 ecx, 1
  00096	75 0c		 jne	 SHORT $LN1@SendtoCard

; 229  : 	{
; 230  : 		txSleep(10);				// Run buckground while waiting 

  00098	6a 0a		 push	 10			; 0000000aH
  0009a	e8 00 00 00 00	 call	 _txSleep
  0009f	83 c4 04	 add	 esp, 4

; 231  : 	}

  000a2	eb da		 jmp	 SHORT $LN2@SendtoCard
$LN1@SendtoCard:

; 232  : 
; 233  : 	waveOutUnprepareHeader(hWaveOut, &header[!Index], sizeof(WAVEHDR));

  000a4	8b f4		 mov	 esi, esp
  000a6	6a 20		 push	 32			; 00000020H
  000a8	33 c0		 xor	 eax, eax
  000aa	83 3d 00 00 00
	00 00		 cmp	 DWORD PTR _Index, 0
  000b1	0f 94 c0	 sete	 al
  000b4	c1 e0 05	 shl	 eax, 5
  000b7	05 00 00 00 00	 add	 eax, OFFSET _header
  000bc	50		 push	 eax
  000bd	8b 0d 00 00 00
	00		 mov	 ecx, DWORD PTR _hWaveOut
  000c3	51		 push	 ecx
  000c4	ff 15 00 00 00
	00		 call	 DWORD PTR __imp__waveOutUnprepareHeader@12
  000ca	3b f4		 cmp	 esi, esp
  000cc	e8 00 00 00 00	 call	 __RTC_CheckEsp

; 234  : 	Index = !Index;

  000d1	33 c0		 xor	 eax, eax
  000d3	83 3d 00 00 00
	00 00		 cmp	 DWORD PTR _Index, 0
  000da	0f 94 c0	 sete	 al
  000dd	a3 00 00 00 00	 mov	 DWORD PTR _Index, eax

; 235  : 
; 236  : 	return &buffer[Index][0];

  000e2	a1 00 00 00 00	 mov	 eax, DWORD PTR _Index
  000e7	69 c0 60 09 00
	00		 imul	 eax, 2400		; 00000960H
  000ed	05 00 00 00 00	 add	 eax, OFFSET _buffer

; 237  : }

  000f2	5f		 pop	 edi
  000f3	5e		 pop	 esi
  000f4	5b		 pop	 ebx
  000f5	81 c4 c0 00 00
	00		 add	 esp, 192		; 000000c0H
  000fb	3b ec		 cmp	 ebp, esp
  000fd	e8 00 00 00 00	 call	 __RTC_CheckEsp
  00102	8b e5		 mov	 esp, ebp
  00104	5d		 pop	 ebp
  00105	c3		 ret	 0
_SendtoCard ENDP
_TEXT	ENDS
PUBLIC	??_C@_05BHNINOOF@?$CFi?5?$CFs?$AA@		; `string'
PUBLIC	??_C@_0BB@LMJNJDED@Playback?5Devices?$AA@	; `string'
PUBLIC	??_C@_05OPEIBKFE@?$CFd?5?$CFs?$AA@		; `string'
PUBLIC	??_C@_01IHBHIGKO@?0?$AA@			; `string'
PUBLIC	??_C@_0BA@IOBALCBJ@Capture?5Devices?$AA@	; `string'
EXTRN	__imp__waveOutClose@4:PROC
EXTRN	__imp__waveOutGetDevCapsA@12:PROC
EXTRN	__imp__waveOutOpen@24:PROC
EXTRN	__imp__waveOutGetNumDevs@0:PROC
EXTRN	_memcpy:PROC
EXTRN	_strcat:PROC
EXTRN	__imp__waveInGetDevCapsA@12:PROC
EXTRN	__imp__waveInOpen@24:PROC
EXTRN	_malloc:PROC
EXTRN	__imp__waveInGetNumDevs@0:PROC
;	COMDAT ??_C@_05BHNINOOF@?$CFi?5?$CFs?$AA@
CONST	SEGMENT
??_C@_05BHNINOOF@?$CFi?5?$CFs?$AA@ DB '%i %s', 00H	; `string'
CONST	ENDS
;	COMDAT ??_C@_0BB@LMJNJDED@Playback?5Devices?$AA@
CONST	SEGMENT
??_C@_0BB@LMJNJDED@Playback?5Devices?$AA@ DB 'Playback Devices', 00H ; `string'
CONST	ENDS
;	COMDAT ??_C@_05OPEIBKFE@?$CFd?5?$CFs?$AA@
CONST	SEGMENT
??_C@_05OPEIBKFE@?$CFd?5?$CFs?$AA@ DB '%d %s', 00H	; `string'
CONST	ENDS
;	COMDAT ??_C@_01IHBHIGKO@?0?$AA@
CONST	SEGMENT
??_C@_01IHBHIGKO@?0?$AA@ DB ',', 00H			; `string'
CONST	ENDS
;	COMDAT ??_C@_0BA@IOBALCBJ@Capture?5Devices?$AA@
CONST	SEGMENT
??_C@_0BA@IOBALCBJ@Capture?5Devices?$AA@ DB 'Capture Devices', 00H ; `string'
; Function compile flags: /Odtp /RTCsu /ZI
CONST	ENDS
;	COMDAT _GetSoundDevices
_TEXT	SEGMENT
_i$ = -8						; size = 4
_GetSoundDevices PROC					; COMDAT

; 245  : {

  00000	55		 push	 ebp
  00001	8b ec		 mov	 ebp, esp
  00003	81 ec cc 00 00
	00		 sub	 esp, 204		; 000000ccH
  00009	53		 push	 ebx
  0000a	56		 push	 esi
  0000b	57		 push	 edi
  0000c	8d bd 34 ff ff
	ff		 lea	 edi, DWORD PTR [ebp-204]
  00012	b9 33 00 00 00	 mov	 ecx, 51			; 00000033H
  00017	b8 cc cc cc cc	 mov	 eax, -858993460		; ccccccccH
  0001c	f3 ab		 rep stosd

; 246  : 	int i;
; 247  : 
; 248  : 	WriteDebugLog(LOGALERT, "Capture Devices");

  0001e	68 00 00 00 00	 push	 OFFSET ??_C@_0BA@IOBALCBJ@Capture?5Devices?$AA@
  00023	6a 01		 push	 1
  00025	e8 00 00 00 00	 call	 _WriteDebugLog
  0002a	83 c4 08	 add	 esp, 8

; 249  : 
; 250  : 	CaptureCount = waveInGetNumDevs();

  0002d	8b f4		 mov	 esi, esp
  0002f	ff 15 00 00 00
	00		 call	 DWORD PTR __imp__waveInGetNumDevs@0
  00035	3b f4		 cmp	 esi, esp
  00037	e8 00 00 00 00	 call	 __RTC_CheckEsp
  0003c	a3 00 00 00 00	 mov	 DWORD PTR _CaptureCount, eax

; 251  : 
; 252  : 	CaptureDevices = malloc((MAXPNAMELEN + 2) * CaptureCount);

  00041	a1 00 00 00 00	 mov	 eax, DWORD PTR _CaptureCount
  00046	6b c0 22	 imul	 eax, 34			; 00000022H
  00049	50		 push	 eax
  0004a	e8 00 00 00 00	 call	 _malloc
  0004f	83 c4 04	 add	 esp, 4
  00052	a3 00 00 00 00	 mov	 DWORD PTR _CaptureDevices, eax

; 253  : 	CaptureDevices[0] = 0;

  00057	a1 00 00 00 00	 mov	 eax, DWORD PTR _CaptureDevices
  0005c	c6 00 00	 mov	 BYTE PTR [eax], 0

; 254  : 	
; 255  : 	for (i = 0; i < CaptureCount; i++)

  0005f	c7 45 f8 00 00
	00 00		 mov	 DWORD PTR _i$[ebp], 0
  00066	eb 09		 jmp	 SHORT $LN8@GetSoundDe
$LN7@GetSoundDe:
  00068	8b 45 f8	 mov	 eax, DWORD PTR _i$[ebp]
  0006b	83 c0 01	 add	 eax, 1
  0006e	89 45 f8	 mov	 DWORD PTR _i$[ebp], eax
$LN8@GetSoundDe:
  00071	8b 45 f8	 mov	 eax, DWORD PTR _i$[ebp]
  00074	3b 05 00 00 00
	00		 cmp	 eax, DWORD PTR _CaptureCount
  0007a	0f 8d ba 00 00
	00		 jge	 $LN6@GetSoundDe

; 256  : 	{
; 257  : 		waveInOpen(&hWaveIn, i, &wfx, 0, 0, CALLBACK_NULL); //WAVE_MAPPER

  00080	8b f4		 mov	 esi, esp
  00082	6a 00		 push	 0
  00084	6a 00		 push	 0
  00086	6a 00		 push	 0
  00088	68 00 00 00 00	 push	 OFFSET _wfx
  0008d	8b 45 f8	 mov	 eax, DWORD PTR _i$[ebp]
  00090	50		 push	 eax
  00091	68 00 00 00 00	 push	 OFFSET _hWaveIn
  00096	ff 15 00 00 00
	00		 call	 DWORD PTR __imp__waveInOpen@24
  0009c	3b f4		 cmp	 esi, esp
  0009e	e8 00 00 00 00	 call	 __RTC_CheckEsp

; 258  : 		waveInGetDevCaps((UINT_PTR)hWaveIn, &pwic, sizeof(WAVEINCAPS));

  000a3	8b f4		 mov	 esi, esp
  000a5	6a 30		 push	 48			; 00000030H
  000a7	68 00 00 00 00	 push	 OFFSET _pwic
  000ac	a1 00 00 00 00	 mov	 eax, DWORD PTR _hWaveIn
  000b1	50		 push	 eax
  000b2	ff 15 00 00 00
	00		 call	 DWORD PTR __imp__waveInGetDevCapsA@12
  000b8	3b f4		 cmp	 esi, esp
  000ba	e8 00 00 00 00	 call	 __RTC_CheckEsp

; 259  : 
; 260  : 		if (CaptureDevices)

  000bf	83 3d 00 00 00
	00 00		 cmp	 DWORD PTR _CaptureDevices, 0
  000c6	74 13		 je	 SHORT $LN5@GetSoundDe

; 261  : 			strcat(CaptureDevices, ",");

  000c8	68 00 00 00 00	 push	 OFFSET ??_C@_01IHBHIGKO@?0?$AA@
  000cd	a1 00 00 00 00	 mov	 eax, DWORD PTR _CaptureDevices
  000d2	50		 push	 eax
  000d3	e8 00 00 00 00	 call	 _strcat
  000d8	83 c4 08	 add	 esp, 8
$LN5@GetSoundDe:

; 262  : 		strcat(CaptureDevices, pwic.szPname);

  000db	68 08 00 00 00	 push	 OFFSET _pwic+8
  000e0	a1 00 00 00 00	 mov	 eax, DWORD PTR _CaptureDevices
  000e5	50		 push	 eax
  000e6	e8 00 00 00 00	 call	 _strcat
  000eb	83 c4 08	 add	 esp, 8

; 263  : 		WriteDebugLog(LOGALERT, "%d %s", i, pwic.szPname);

  000ee	68 08 00 00 00	 push	 OFFSET _pwic+8
  000f3	8b 45 f8	 mov	 eax, DWORD PTR _i$[ebp]
  000f6	50		 push	 eax
  000f7	68 00 00 00 00	 push	 OFFSET ??_C@_05OPEIBKFE@?$CFd?5?$CFs?$AA@
  000fc	6a 01		 push	 1
  000fe	e8 00 00 00 00	 call	 _WriteDebugLog
  00103	83 c4 10	 add	 esp, 16			; 00000010H

; 264  : 		memcpy(&CaptureNames[i][0], pwic.szPname, MAXPNAMELEN);

  00106	6a 20		 push	 32			; 00000020H
  00108	68 08 00 00 00	 push	 OFFSET _pwic+8
  0010d	8b 45 f8	 mov	 eax, DWORD PTR _i$[ebp]
  00110	6b c0 22	 imul	 eax, 34			; 00000022H
  00113	05 00 00 00 00	 add	 eax, OFFSET _CaptureNames
  00118	50		 push	 eax
  00119	e8 00 00 00 00	 call	 _memcpy
  0011e	83 c4 0c	 add	 esp, 12			; 0000000cH

; 265  : 		_strupr(&CaptureNames[i][0]);

  00121	8b 45 f8	 mov	 eax, DWORD PTR _i$[ebp]
  00124	6b c0 22	 imul	 eax, 34			; 00000022H
  00127	05 00 00 00 00	 add	 eax, OFFSET _CaptureNames
  0012c	50		 push	 eax
  0012d	e8 00 00 00 00	 call	 __strupr
  00132	83 c4 04	 add	 esp, 4

; 266  : 	}

  00135	e9 2e ff ff ff	 jmp	 $LN7@GetSoundDe
$LN6@GetSoundDe:

; 267  : 
; 268  : 	WriteDebugLog(LOGALERT, "Playback Devices");

  0013a	68 00 00 00 00	 push	 OFFSET ??_C@_0BB@LMJNJDED@Playback?5Devices?$AA@
  0013f	6a 01		 push	 1
  00141	e8 00 00 00 00	 call	 _WriteDebugLog
  00146	83 c4 08	 add	 esp, 8

; 269  : 
; 270  : 	PlaybackCount = waveOutGetNumDevs();

  00149	8b f4		 mov	 esi, esp
  0014b	ff 15 00 00 00
	00		 call	 DWORD PTR __imp__waveOutGetNumDevs@0
  00151	3b f4		 cmp	 esi, esp
  00153	e8 00 00 00 00	 call	 __RTC_CheckEsp
  00158	a3 00 00 00 00	 mov	 DWORD PTR _PlaybackCount, eax

; 271  : 
; 272  : 	PlaybackDevices = malloc((MAXPNAMELEN + 2) * PlaybackCount);

  0015d	a1 00 00 00 00	 mov	 eax, DWORD PTR _PlaybackCount
  00162	6b c0 22	 imul	 eax, 34			; 00000022H
  00165	50		 push	 eax
  00166	e8 00 00 00 00	 call	 _malloc
  0016b	83 c4 04	 add	 esp, 4
  0016e	a3 00 00 00 00	 mov	 DWORD PTR _PlaybackDevices, eax

; 273  : 	PlaybackDevices[0] = 0;

  00173	a1 00 00 00 00	 mov	 eax, DWORD PTR _PlaybackDevices
  00178	c6 00 00	 mov	 BYTE PTR [eax], 0

; 274  : 
; 275  : 	for (i = 0; i < PlaybackCount; i++)

  0017b	c7 45 f8 00 00
	00 00		 mov	 DWORD PTR _i$[ebp], 0
  00182	eb 09		 jmp	 SHORT $LN4@GetSoundDe
$LN3@GetSoundDe:
  00184	8b 45 f8	 mov	 eax, DWORD PTR _i$[ebp]
  00187	83 c0 01	 add	 eax, 1
  0018a	89 45 f8	 mov	 DWORD PTR _i$[ebp], eax
$LN4@GetSoundDe:
  0018d	8b 45 f8	 mov	 eax, DWORD PTR _i$[ebp]
  00190	3b 05 00 00 00
	00		 cmp	 eax, DWORD PTR _PlaybackCount
  00196	0f 8d d2 00 00
	00		 jge	 $LN9@GetSoundDe

; 276  : 	{
; 277  : 		waveOutOpen(&hWaveOut, i, &wfx, 0, 0, CALLBACK_NULL); //WAVE_MAPPER

  0019c	8b f4		 mov	 esi, esp
  0019e	6a 00		 push	 0
  001a0	6a 00		 push	 0
  001a2	6a 00		 push	 0
  001a4	68 00 00 00 00	 push	 OFFSET _wfx
  001a9	8b 45 f8	 mov	 eax, DWORD PTR _i$[ebp]
  001ac	50		 push	 eax
  001ad	68 00 00 00 00	 push	 OFFSET _hWaveOut
  001b2	ff 15 00 00 00
	00		 call	 DWORD PTR __imp__waveOutOpen@24
  001b8	3b f4		 cmp	 esi, esp
  001ba	e8 00 00 00 00	 call	 __RTC_CheckEsp

; 278  : 		waveOutGetDevCaps((UINT_PTR)hWaveOut, &pwoc, sizeof(WAVEOUTCAPS));

  001bf	8b f4		 mov	 esi, esp
  001c1	6a 34		 push	 52			; 00000034H
  001c3	68 00 00 00 00	 push	 OFFSET _pwoc
  001c8	a1 00 00 00 00	 mov	 eax, DWORD PTR _hWaveOut
  001cd	50		 push	 eax
  001ce	ff 15 00 00 00
	00		 call	 DWORD PTR __imp__waveOutGetDevCapsA@12
  001d4	3b f4		 cmp	 esi, esp
  001d6	e8 00 00 00 00	 call	 __RTC_CheckEsp

; 279  : 
; 280  : 		if (PlaybackDevices[0])

  001db	a1 00 00 00 00	 mov	 eax, DWORD PTR _PlaybackDevices
  001e0	0f be 08	 movsx	 ecx, BYTE PTR [eax]
  001e3	85 c9		 test	 ecx, ecx
  001e5	74 13		 je	 SHORT $LN1@GetSoundDe

; 281  : 			strcat(PlaybackDevices, ",");

  001e7	68 00 00 00 00	 push	 OFFSET ??_C@_01IHBHIGKO@?0?$AA@
  001ec	a1 00 00 00 00	 mov	 eax, DWORD PTR _PlaybackDevices
  001f1	50		 push	 eax
  001f2	e8 00 00 00 00	 call	 _strcat
  001f7	83 c4 08	 add	 esp, 8
$LN1@GetSoundDe:

; 282  : 		strcat(PlaybackDevices, pwoc.szPname);

  001fa	68 08 00 00 00	 push	 OFFSET _pwoc+8
  001ff	a1 00 00 00 00	 mov	 eax, DWORD PTR _PlaybackDevices
  00204	50		 push	 eax
  00205	e8 00 00 00 00	 call	 _strcat
  0020a	83 c4 08	 add	 esp, 8

; 283  : 		WriteDebugLog(LOGALERT, "%i %s", i, pwoc.szPname);

  0020d	68 08 00 00 00	 push	 OFFSET _pwoc+8
  00212	8b 45 f8	 mov	 eax, DWORD PTR _i$[ebp]
  00215	50		 push	 eax
  00216	68 00 00 00 00	 push	 OFFSET ??_C@_05BHNINOOF@?$CFi?5?$CFs?$AA@
  0021b	6a 01		 push	 1
  0021d	e8 00 00 00 00	 call	 _WriteDebugLog
  00222	83 c4 10	 add	 esp, 16			; 00000010H

; 284  : 		memcpy(&PlaybackNames[i][0], pwoc.szPname, MAXPNAMELEN);

  00225	6a 20		 push	 32			; 00000020H
  00227	68 08 00 00 00	 push	 OFFSET _pwoc+8
  0022c	8b 45 f8	 mov	 eax, DWORD PTR _i$[ebp]
  0022f	6b c0 22	 imul	 eax, 34			; 00000022H
  00232	05 00 00 00 00	 add	 eax, OFFSET _PlaybackNames
  00237	50		 push	 eax
  00238	e8 00 00 00 00	 call	 _memcpy
  0023d	83 c4 0c	 add	 esp, 12			; 0000000cH

; 285  : 		_strupr(&PlaybackNames[i][0]);

  00240	8b 45 f8	 mov	 eax, DWORD PTR _i$[ebp]
  00243	6b c0 22	 imul	 eax, 34			; 00000022H
  00246	05 00 00 00 00	 add	 eax, OFFSET _PlaybackNames
  0024b	50		 push	 eax
  0024c	e8 00 00 00 00	 call	 __strupr
  00251	83 c4 04	 add	 esp, 4

; 286  : 		waveOutClose(hWaveOut);

  00254	8b f4		 mov	 esi, esp
  00256	a1 00 00 00 00	 mov	 eax, DWORD PTR _hWaveOut
  0025b	50		 push	 eax
  0025c	ff 15 00 00 00
	00		 call	 DWORD PTR __imp__waveOutClose@4
  00262	3b f4		 cmp	 esi, esp
  00264	e8 00 00 00 00	 call	 __RTC_CheckEsp

; 287  : 	}

  00269	e9 16 ff ff ff	 jmp	 $LN3@GetSoundDe
$LN9@GetSoundDe:

; 288  : }

  0026e	5f		 pop	 edi
  0026f	5e		 pop	 esi
  00270	5b		 pop	 ebx
  00271	81 c4 cc 00 00
	00		 add	 esp, 204		; 000000ccH
  00277	3b ec		 cmp	 ebp, esp
  00279	e8 00 00 00 00	 call	 __RTC_CheckEsp
  0027e	8b e5		 mov	 esp, ebp
  00280	5d		 pop	 ebp
  00281	c3		 ret	 0
_GetSoundDevices ENDP
_TEXT	ENDS
PUBLIC	??_C@_0BI@OBALNEGD@Opened?5WaveIn?5Device?5?$CFs?$AA@ ; `string'
PUBLIC	??_C@_0CJ@PAGFNBAI@Failed?5to?5open?5WaveIn?5Device?5?$CFs?5@ ; `string'
PUBLIC	??_C@_0BJ@IJKIDLIC@Opened?5WaveOut?5Device?5?$CFs?$AA@ ; `string'
PUBLIC	??_C@_0CK@BPNFGINF@Failed?5to?5open?5WaveOut?5Device?5?$CFs@ ; `string'
PUBLIC	_InitSound
EXTRN	__imp__waveInStart@4:PROC
EXTRN	__imp__waveInAddBuffer@12:PROC
EXTRN	__imp__waveInPrepareHeader@12:PROC
EXTRN	_strstr:PROC
EXTRN	_strlen:PROC
;	COMDAT ??_C@_0BI@OBALNEGD@Opened?5WaveIn?5Device?5?$CFs?$AA@
CONST	SEGMENT
??_C@_0BI@OBALNEGD@Opened?5WaveIn?5Device?5?$CFs?$AA@ DB 'Opened WaveIn D'
	DB	'evice %s', 00H				; `string'
CONST	ENDS
;	COMDAT ??_C@_0CJ@PAGFNBAI@Failed?5to?5open?5WaveIn?5Device?5?$CFs?5@
CONST	SEGMENT
??_C@_0CJ@PAGFNBAI@Failed?5to?5open?5WaveIn?5Device?5?$CFs?5@ DB 'Failed '
	DB	'to open WaveIn Device %s Error %d', 00H	; `string'
CONST	ENDS
;	COMDAT ??_C@_0BJ@IJKIDLIC@Opened?5WaveOut?5Device?5?$CFs?$AA@
CONST	SEGMENT
??_C@_0BJ@IJKIDLIC@Opened?5WaveOut?5Device?5?$CFs?$AA@ DB 'Opened WaveOut'
	DB	' Device %s', 00H				; `string'
CONST	ENDS
;	COMDAT ??_C@_0CK@BPNFGINF@Failed?5to?5open?5WaveOut?5Device?5?$CFs@
CONST	SEGMENT
??_C@_0CK@BPNFGINF@Failed?5to?5open?5WaveOut?5Device?5?$CFs@ DB 'Failed t'
	DB	'o open WaveOut Device %s Error %d', 00H	; `string'
; Function compile flags: /Odtp /RTCsu /ZI
CONST	ENDS
;	COMDAT _InitSound
_TEXT	SEGMENT
_ret$ = -20						; size = 4
_i$ = -8						; size = 4
_Report$ = 8						; size = 4
_InitSound PROC						; COMDAT

; 292  : {

  00000	55		 push	 ebp
  00001	8b ec		 mov	 ebp, esp
  00003	81 ec d8 00 00
	00		 sub	 esp, 216		; 000000d8H
  00009	53		 push	 ebx
  0000a	56		 push	 esi
  0000b	57		 push	 edi
  0000c	8d bd 28 ff ff
	ff		 lea	 edi, DWORD PTR [ebp-216]
  00012	b9 36 00 00 00	 mov	 ecx, 54			; 00000036H
  00017	b8 cc cc cc cc	 mov	 eax, -858993460		; ccccccccH
  0001c	f3 ab		 rep stosd

; 293  : 	int i, ret;
; 294  : 
; 295  : 	header[0].dwFlags = WHDR_DONE;

  0001e	c7 05 10 00 00
	00 01 00 00 00	 mov	 DWORD PTR _header+16, 1

; 296  : 	header[1].dwFlags = WHDR_DONE;

  00028	c7 05 30 00 00
	00 01 00 00 00	 mov	 DWORD PTR _header+48, 1

; 297  : 
; 298  : 	if (strlen(PlaybackDevice) <= 2)

  00032	68 00 00 00 00	 push	 OFFSET _PlaybackDevice
  00037	e8 00 00 00 00	 call	 _strlen
  0003c	83 c4 04	 add	 esp, 4
  0003f	83 f8 02	 cmp	 eax, 2
  00042	77 14		 ja	 SHORT $LN21@InitSound

; 299  : 		PlayBackIndex = atoi(PlaybackDevice);

  00044	68 00 00 00 00	 push	 OFFSET _PlaybackDevice
  00049	e8 00 00 00 00	 call	 _atoi
  0004e	83 c4 04	 add	 esp, 4
  00051	a3 00 00 00 00	 mov	 DWORD PTR _PlayBackIndex, eax

; 300  : 	else

  00056	eb 46		 jmp	 SHORT $LN20@InitSound
$LN21@InitSound:

; 301  : 	{
; 302  : 		// Name instead of number. Look for a substring match
; 303  : 
; 304  : 		for (i = 0; i < PlaybackCount; i++)

  00058	c7 45 f8 00 00
	00 00		 mov	 DWORD PTR _i$[ebp], 0
  0005f	eb 09		 jmp	 SHORT $LN19@InitSound
$LN18@InitSound:
  00061	8b 45 f8	 mov	 eax, DWORD PTR _i$[ebp]
  00064	83 c0 01	 add	 eax, 1
  00067	89 45 f8	 mov	 DWORD PTR _i$[ebp], eax
$LN19@InitSound:
  0006a	8b 45 f8	 mov	 eax, DWORD PTR _i$[ebp]
  0006d	3b 05 00 00 00
	00		 cmp	 eax, DWORD PTR _PlaybackCount
  00073	7d 29		 jge	 SHORT $LN20@InitSound

; 305  : 		{
; 306  : 			if (strstr(&PlaybackNames[i][0], PlaybackDevice))

  00075	68 00 00 00 00	 push	 OFFSET _PlaybackDevice
  0007a	8b 45 f8	 mov	 eax, DWORD PTR _i$[ebp]
  0007d	6b c0 22	 imul	 eax, 34			; 00000022H
  00080	05 00 00 00 00	 add	 eax, OFFSET _PlaybackNames
  00085	50		 push	 eax
  00086	e8 00 00 00 00	 call	 _strstr
  0008b	83 c4 08	 add	 esp, 8
  0008e	85 c0		 test	 eax, eax
  00090	74 0a		 je	 SHORT $LN16@InitSound

; 307  : 			{
; 308  : 				PlayBackIndex = i;

  00092	8b 45 f8	 mov	 eax, DWORD PTR _i$[ebp]
  00095	a3 00 00 00 00	 mov	 DWORD PTR _PlayBackIndex, eax

; 309  : 				break;

  0009a	eb 02		 jmp	 SHORT $LN20@InitSound
$LN16@InitSound:

; 310  : 			}
; 311  : 		}

  0009c	eb c3		 jmp	 SHORT $LN18@InitSound
$LN20@InitSound:

; 312  : 	}
; 313  : 
; 314  :     ret = waveOutOpen(&hWaveOut, PlayBackIndex, &wfx, 0, 0, CALLBACK_NULL); //WAVE_MAPPER

  0009e	8b f4		 mov	 esi, esp
  000a0	6a 00		 push	 0
  000a2	6a 00		 push	 0
  000a4	6a 00		 push	 0
  000a6	68 00 00 00 00	 push	 OFFSET _wfx
  000ab	a1 00 00 00 00	 mov	 eax, DWORD PTR _PlayBackIndex
  000b0	50		 push	 eax
  000b1	68 00 00 00 00	 push	 OFFSET _hWaveOut
  000b6	ff 15 00 00 00
	00		 call	 DWORD PTR __imp__waveOutOpen@24
  000bc	3b f4		 cmp	 esi, esp
  000be	e8 00 00 00 00	 call	 __RTC_CheckEsp
  000c3	89 45 ec	 mov	 DWORD PTR _ret$[ebp], eax

; 315  : 
; 316  : 	if (ret)

  000c6	83 7d ec 00	 cmp	 DWORD PTR _ret$[ebp], 0
  000ca	74 1a		 je	 SHORT $LN15@InitSound

; 317  : 		WriteDebugLog(LOGALERT, "Failed to open WaveOut Device %s Error %d", PlaybackDevice, ret);

  000cc	8b 45 ec	 mov	 eax, DWORD PTR _ret$[ebp]
  000cf	50		 push	 eax
  000d0	68 00 00 00 00	 push	 OFFSET _PlaybackDevice
  000d5	68 00 00 00 00	 push	 OFFSET ??_C@_0CK@BPNFGINF@Failed?5to?5open?5WaveOut?5Device?5?$CFs@
  000da	6a 01		 push	 1
  000dc	e8 00 00 00 00	 call	 _WriteDebugLog
  000e1	83 c4 10	 add	 esp, 16			; 00000010H

; 318  : 	else

  000e4	eb 39		 jmp	 SHORT $LN14@InitSound
$LN15@InitSound:

; 319  : 	{
; 320  : 		ret = waveOutGetDevCaps((UINT_PTR)hWaveOut, &pwoc, sizeof(WAVEOUTCAPS));

  000e6	8b f4		 mov	 esi, esp
  000e8	6a 34		 push	 52			; 00000034H
  000ea	68 00 00 00 00	 push	 OFFSET _pwoc
  000ef	a1 00 00 00 00	 mov	 eax, DWORD PTR _hWaveOut
  000f4	50		 push	 eax
  000f5	ff 15 00 00 00
	00		 call	 DWORD PTR __imp__waveOutGetDevCapsA@12
  000fb	3b f4		 cmp	 esi, esp
  000fd	e8 00 00 00 00	 call	 __RTC_CheckEsp
  00102	89 45 ec	 mov	 DWORD PTR _ret$[ebp], eax

; 321  : 		if (Report)

  00105	83 7d 08 00	 cmp	 DWORD PTR _Report$[ebp], 0
  00109	74 14		 je	 SHORT $LN14@InitSound

; 322  : 			WriteDebugLog(LOGALERT, "Opened WaveOut Device %s", pwoc.szPname);

  0010b	68 08 00 00 00	 push	 OFFSET _pwoc+8
  00110	68 00 00 00 00	 push	 OFFSET ??_C@_0BJ@IJKIDLIC@Opened?5WaveOut?5Device?5?$CFs?$AA@
  00115	6a 01		 push	 1
  00117	e8 00 00 00 00	 call	 _WriteDebugLog
  0011c	83 c4 0c	 add	 esp, 12			; 0000000cH
$LN14@InitSound:

; 323  : 	}
; 324  : 
; 325  : 	if (strlen(CaptureDevice) <= 2)

  0011f	68 00 00 00 00	 push	 OFFSET _CaptureDevice
  00124	e8 00 00 00 00	 call	 _strlen
  00129	83 c4 04	 add	 esp, 4
  0012c	83 f8 02	 cmp	 eax, 2
  0012f	77 14		 ja	 SHORT $LN12@InitSound

; 326  : 		CaptureIndex = atoi(CaptureDevice);

  00131	68 00 00 00 00	 push	 OFFSET _CaptureDevice
  00136	e8 00 00 00 00	 call	 _atoi
  0013b	83 c4 04	 add	 esp, 4
  0013e	a3 00 00 00 00	 mov	 DWORD PTR _CaptureIndex, eax

; 327  : 	else

  00143	eb 46		 jmp	 SHORT $LN11@InitSound
$LN12@InitSound:

; 328  : 	{
; 329  : 		// Name instead of number. Look for a substring match
; 330  : 
; 331  : 		for (i = 0; i < CaptureCount; i++)

  00145	c7 45 f8 00 00
	00 00		 mov	 DWORD PTR _i$[ebp], 0
  0014c	eb 09		 jmp	 SHORT $LN10@InitSound
$LN9@InitSound:
  0014e	8b 45 f8	 mov	 eax, DWORD PTR _i$[ebp]
  00151	83 c0 01	 add	 eax, 1
  00154	89 45 f8	 mov	 DWORD PTR _i$[ebp], eax
$LN10@InitSound:
  00157	8b 45 f8	 mov	 eax, DWORD PTR _i$[ebp]
  0015a	3b 05 00 00 00
	00		 cmp	 eax, DWORD PTR _CaptureCount
  00160	7d 29		 jge	 SHORT $LN11@InitSound

; 332  : 		{
; 333  : 			if (strstr(&CaptureNames[i][0], CaptureDevice))

  00162	68 00 00 00 00	 push	 OFFSET _CaptureDevice
  00167	8b 45 f8	 mov	 eax, DWORD PTR _i$[ebp]
  0016a	6b c0 22	 imul	 eax, 34			; 00000022H
  0016d	05 00 00 00 00	 add	 eax, OFFSET _CaptureNames
  00172	50		 push	 eax
  00173	e8 00 00 00 00	 call	 _strstr
  00178	83 c4 08	 add	 esp, 8
  0017b	85 c0		 test	 eax, eax
  0017d	74 0a		 je	 SHORT $LN7@InitSound

; 334  : 			{
; 335  : 				CaptureIndex = i;

  0017f	8b 45 f8	 mov	 eax, DWORD PTR _i$[ebp]
  00182	a3 00 00 00 00	 mov	 DWORD PTR _CaptureIndex, eax

; 336  : 				break;

  00187	eb 02		 jmp	 SHORT $LN11@InitSound
$LN7@InitSound:

; 337  : 			}
; 338  : 		}

  00189	eb c3		 jmp	 SHORT $LN9@InitSound
$LN11@InitSound:

; 339  : 	}
; 340  : 
; 341  :     ret = waveInOpen(&hWaveIn, CaptureIndex, &wfx, 0, 0, CALLBACK_NULL); //WAVE_MAPPER

  0018b	8b f4		 mov	 esi, esp
  0018d	6a 00		 push	 0
  0018f	6a 00		 push	 0
  00191	6a 00		 push	 0
  00193	68 00 00 00 00	 push	 OFFSET _wfx
  00198	a1 00 00 00 00	 mov	 eax, DWORD PTR _CaptureIndex
  0019d	50		 push	 eax
  0019e	68 00 00 00 00	 push	 OFFSET _hWaveIn
  001a3	ff 15 00 00 00
	00		 call	 DWORD PTR __imp__waveInOpen@24
  001a9	3b f4		 cmp	 esi, esp
  001ab	e8 00 00 00 00	 call	 __RTC_CheckEsp
  001b0	89 45 ec	 mov	 DWORD PTR _ret$[ebp], eax

; 342  : 	if (ret)

  001b3	83 7d ec 00	 cmp	 DWORD PTR _ret$[ebp], 0
  001b7	74 1a		 je	 SHORT $LN6@InitSound

; 343  : 		WriteDebugLog(LOGALERT, "Failed to open WaveIn Device %s Error %d", CaptureDevice, ret);

  001b9	8b 45 ec	 mov	 eax, DWORD PTR _ret$[ebp]
  001bc	50		 push	 eax
  001bd	68 00 00 00 00	 push	 OFFSET _CaptureDevice
  001c2	68 00 00 00 00	 push	 OFFSET ??_C@_0CJ@PAGFNBAI@Failed?5to?5open?5WaveIn?5Device?5?$CFs?5@
  001c7	6a 01		 push	 1
  001c9	e8 00 00 00 00	 call	 _WriteDebugLog
  001ce	83 c4 10	 add	 esp, 16			; 00000010H

; 344  : 	else

  001d1	eb 39		 jmp	 SHORT $LN5@InitSound
$LN6@InitSound:

; 345  : 	{
; 346  : 		ret = waveInGetDevCaps((UINT_PTR)hWaveIn, &pwic, sizeof(WAVEINCAPS));

  001d3	8b f4		 mov	 esi, esp
  001d5	6a 30		 push	 48			; 00000030H
  001d7	68 00 00 00 00	 push	 OFFSET _pwic
  001dc	a1 00 00 00 00	 mov	 eax, DWORD PTR _hWaveIn
  001e1	50		 push	 eax
  001e2	ff 15 00 00 00
	00		 call	 DWORD PTR __imp__waveInGetDevCapsA@12
  001e8	3b f4		 cmp	 esi, esp
  001ea	e8 00 00 00 00	 call	 __RTC_CheckEsp
  001ef	89 45 ec	 mov	 DWORD PTR _ret$[ebp], eax

; 347  : 		if (Report)

  001f2	83 7d 08 00	 cmp	 DWORD PTR _Report$[ebp], 0
  001f6	74 14		 je	 SHORT $LN5@InitSound

; 348  : 			WriteDebugLog(LOGALERT, "Opened WaveIn Device %s", pwic.szPname);

  001f8	68 08 00 00 00	 push	 OFFSET _pwic+8
  001fd	68 00 00 00 00	 push	 OFFSET ??_C@_0BI@OBALNEGD@Opened?5WaveIn?5Device?5?$CFs?$AA@
  00202	6a 01		 push	 1
  00204	e8 00 00 00 00	 call	 _WriteDebugLog
  00209	83 c4 0c	 add	 esp, 12			; 0000000cH
$LN5@InitSound:

; 349  : 	}
; 350  : 
; 351  : //	wavfp1 = fopen("s:\\textxxx.wav", "wb");
; 352  : 
; 353  : 	for (i = 0; i < NumberofinBuffers; i++)

  0020c	c7 45 f8 00 00
	00 00		 mov	 DWORD PTR _i$[ebp], 0
  00213	eb 09		 jmp	 SHORT $LN3@InitSound
$LN2@InitSound:
  00215	8b 45 f8	 mov	 eax, DWORD PTR _i$[ebp]
  00218	83 c0 01	 add	 eax, 1
  0021b	89 45 f8	 mov	 DWORD PTR _i$[ebp], eax
$LN3@InitSound:
  0021e	83 7d f8 04	 cmp	 DWORD PTR _i$[ebp], 4
  00222	7d 60		 jge	 SHORT $LN1@InitSound

; 354  : 	{
; 355  : 		inheader[i].dwBufferLength = ReceiveSize * 2;

  00224	8b 45 f8	 mov	 eax, DWORD PTR _i$[ebp]
  00227	c1 e0 05	 shl	 eax, 5
  0022a	c7 80 04 00 00
	00 e0 01 00 00	 mov	 DWORD PTR _inheader[eax+4], 480 ; 000001e0H

; 356  : 
; 357  : 		ret = waveInPrepareHeader(hWaveIn, &inheader[i], sizeof(WAVEHDR));

  00234	8b f4		 mov	 esi, esp
  00236	6a 20		 push	 32			; 00000020H
  00238	8b 45 f8	 mov	 eax, DWORD PTR _i$[ebp]
  0023b	c1 e0 05	 shl	 eax, 5
  0023e	05 00 00 00 00	 add	 eax, OFFSET _inheader
  00243	50		 push	 eax
  00244	8b 0d 00 00 00
	00		 mov	 ecx, DWORD PTR _hWaveIn
  0024a	51		 push	 ecx
  0024b	ff 15 00 00 00
	00		 call	 DWORD PTR __imp__waveInPrepareHeader@12
  00251	3b f4		 cmp	 esi, esp
  00253	e8 00 00 00 00	 call	 __RTC_CheckEsp
  00258	89 45 ec	 mov	 DWORD PTR _ret$[ebp], eax

; 358  : 		ret = waveInAddBuffer(hWaveIn, &inheader[i], sizeof(WAVEHDR));

  0025b	8b f4		 mov	 esi, esp
  0025d	6a 20		 push	 32			; 00000020H
  0025f	8b 45 f8	 mov	 eax, DWORD PTR _i$[ebp]
  00262	c1 e0 05	 shl	 eax, 5
  00265	05 00 00 00 00	 add	 eax, OFFSET _inheader
  0026a	50		 push	 eax
  0026b	8b 0d 00 00 00
	00		 mov	 ecx, DWORD PTR _hWaveIn
  00271	51		 push	 ecx
  00272	ff 15 00 00 00
	00		 call	 DWORD PTR __imp__waveInAddBuffer@12
  00278	3b f4		 cmp	 esi, esp
  0027a	e8 00 00 00 00	 call	 __RTC_CheckEsp
  0027f	89 45 ec	 mov	 DWORD PTR _ret$[ebp], eax

; 359  : 	}

  00282	eb 91		 jmp	 SHORT $LN2@InitSound
$LN1@InitSound:

; 360  : 
; 361  : 	ret = waveInStart(hWaveIn);

  00284	8b f4		 mov	 esi, esp
  00286	a1 00 00 00 00	 mov	 eax, DWORD PTR _hWaveIn
  0028b	50		 push	 eax
  0028c	ff 15 00 00 00
	00		 call	 DWORD PTR __imp__waveInStart@4
  00292	3b f4		 cmp	 esi, esp
  00294	e8 00 00 00 00	 call	 __RTC_CheckEsp
  00299	89 45 ec	 mov	 DWORD PTR _ret$[ebp], eax

; 362  : }

  0029c	5f		 pop	 edi
  0029d	5e		 pop	 esi
  0029e	5b		 pop	 ebx
  0029f	81 c4 d8 00 00
	00		 add	 esp, 216		; 000000d8H
  002a5	3b ec		 cmp	 ebp, esp
  002a7	e8 00 00 00 00	 call	 __RTC_CheckEsp
  002ac	8b e5		 mov	 esp, ebp
  002ae	5d		 pop	 ebp
  002af	c3		 ret	 0
_InitSound ENDP
_TEXT	ENDS
PUBLIC	??_C@_0BF@IMPHBOGP@Input?5peaks?5?$DN?5?$CFd?0?5?$CFd?$AA@ ; `string'
EXTRN	__imp__waveInUnprepareHeader@12:PROC
EXTRN	_ProcessNewSamples:PROC
EXTRN	_Capturing:DWORD
;	COMDAT ??_C@_0BF@IMPHBOGP@Input?5peaks?5?$DN?5?$CFd?0?5?$CFd?$AA@
CONST	SEGMENT
??_C@_0BF@IMPHBOGP@Input?5peaks?5?$DN?5?$CFd?0?5?$CFd?$AA@ DB 'Input peak'
	DB	's = %d, %d', 00H				; `string'
; Function compile flags: /Odtp /RTCsu /ZI
CONST	ENDS
;	COMDAT _PollReceivedSamples
_TEXT	SEGMENT
_i$28516 = -20						; size = 4
_ptr$28515 = -8						; size = 4
_PollReceivedSamples PROC				; COMDAT

; 367  : {

  00000	55		 push	 ebp
  00001	8b ec		 mov	 ebp, esp
  00003	81 ec d8 00 00
	00		 sub	 esp, 216		; 000000d8H
  00009	53		 push	 ebx
  0000a	56		 push	 esi
  0000b	57		 push	 edi
  0000c	8d bd 28 ff ff
	ff		 lea	 edi, DWORD PTR [ebp-216]
  00012	b9 36 00 00 00	 mov	 ecx, 54			; 00000036H
  00017	b8 cc cc cc cc	 mov	 eax, -858993460		; ccccccccH
  0001c	f3 ab		 rep stosd

; 368  : 	// Process any captured samples
; 369  : 	// Ideally call at least every 100 mS, more than 200 will loose data
; 370  : 
; 371  : 	if (inheader[inIndex].dwFlags & WHDR_DONE)

  0001e	a1 00 00 00 00	 mov	 eax, DWORD PTR _inIndex
  00023	c1 e0 05	 shl	 eax, 5
  00026	8b 88 10 00 00
	00		 mov	 ecx, DWORD PTR _inheader[eax+16]
  0002c	83 e1 01	 and	 ecx, 1
  0002f	0f 84 a4 01 00
	00		 je	 $LN11@PollReceiv

; 372  : 	{
; 373  : 		short * ptr = &inbuffer[inIndex][0];

  00035	a1 00 00 00 00	 mov	 eax, DWORD PTR _inIndex
  0003a	69 c0 e0 01 00
	00		 imul	 eax, 480		; 000001e0H
  00040	05 00 00 00 00	 add	 eax, OFFSET _inbuffer
  00045	89 45 f8	 mov	 DWORD PTR _ptr$28515[ebp], eax

; 374  : 		int i;
; 375  : 
; 376  : 		for (i = 0; i < ReceiveSize; i++)

  00048	c7 45 ec 00 00
	00 00		 mov	 DWORD PTR _i$28516[ebp], 0
  0004f	eb 09		 jmp	 SHORT $LN9@PollReceiv
$LN8@PollReceiv:
  00051	8b 45 ec	 mov	 eax, DWORD PTR _i$28516[ebp]
  00054	83 c0 01	 add	 eax, 1
  00057	89 45 ec	 mov	 DWORD PTR _i$28516[ebp], eax
$LN9@PollReceiv:
  0005a	81 7d ec f0 00
	00 00		 cmp	 DWORD PTR _i$28516[ebp], 240 ; 000000f0H
  00061	7d 41		 jge	 SHORT $LN7@PollReceiv

; 377  : 		{
; 378  : 			if (*(ptr) < min)

  00063	8b 45 f8	 mov	 eax, DWORD PTR _ptr$28515[ebp]
  00066	0f bf 08	 movsx	 ecx, WORD PTR [eax]
  00069	3b 0d 00 00 00
	00		 cmp	 ecx, DWORD PTR _min
  0006f	7d 0e		 jge	 SHORT $LN6@PollReceiv

; 379  : 				min = *ptr;

  00071	8b 45 f8	 mov	 eax, DWORD PTR _ptr$28515[ebp]
  00074	0f bf 08	 movsx	 ecx, WORD PTR [eax]
  00077	89 0d 00 00 00
	00		 mov	 DWORD PTR _min, ecx
  0007d	eb 1a		 jmp	 SHORT $LN5@PollReceiv
$LN6@PollReceiv:

; 380  : 			else if (*(ptr) > max)

  0007f	8b 45 f8	 mov	 eax, DWORD PTR _ptr$28515[ebp]
  00082	0f bf 08	 movsx	 ecx, WORD PTR [eax]
  00085	3b 0d 00 00 00
	00		 cmp	 ecx, DWORD PTR _max
  0008b	7e 0c		 jle	 SHORT $LN5@PollReceiv

; 381  : 				max = *ptr;

  0008d	8b 45 f8	 mov	 eax, DWORD PTR _ptr$28515[ebp]
  00090	0f bf 08	 movsx	 ecx, WORD PTR [eax]
  00093	89 0d 00 00 00
	00		 mov	 DWORD PTR _max, ecx
$LN5@PollReceiv:

; 382  : 			ptr++;

  00099	8b 45 f8	 mov	 eax, DWORD PTR _ptr$28515[ebp]
  0009c	83 c0 02	 add	 eax, 2
  0009f	89 45 f8	 mov	 DWORD PTR _ptr$28515[ebp], eax

; 383  : 		}

  000a2	eb ad		 jmp	 SHORT $LN8@PollReceiv
$LN7@PollReceiv:

; 384  : 		leveltimer++;

  000a4	a1 00 00 00 00	 mov	 eax, DWORD PTR _leveltimer
  000a9	83 c0 01	 add	 eax, 1
  000ac	a3 00 00 00 00	 mov	 DWORD PTR _leveltimer, eax

; 385  : 
; 386  : 		if (leveltimer > 1000)

  000b1	81 3d 00 00 00
	00 e8 03 00 00	 cmp	 DWORD PTR _leveltimer, 1000 ; 000003e8H
  000bb	7e 3a		 jle	 SHORT $LN3@PollReceiv

; 387  : 		{
; 388  : 			leveltimer = 0;

  000bd	c7 05 00 00 00
	00 00 00 00 00	 mov	 DWORD PTR _leveltimer, 0

; 389  : 			WriteDebugLog(LOGDEBUG, "Input peaks = %d, %d", min, max);

  000c7	a1 00 00 00 00	 mov	 eax, DWORD PTR _max
  000cc	50		 push	 eax
  000cd	8b 0d 00 00 00
	00		 mov	 ecx, DWORD PTR _min
  000d3	51		 push	 ecx
  000d4	68 00 00 00 00	 push	 OFFSET ??_C@_0BF@IMPHBOGP@Input?5peaks?5?$DN?5?$CFd?0?5?$CFd?$AA@
  000d9	6a 07		 push	 7
  000db	e8 00 00 00 00	 call	 _WriteDebugLog
  000e0	83 c4 10	 add	 esp, 16			; 00000010H

; 390  : 			min = max = 0;

  000e3	c7 05 00 00 00
	00 00 00 00 00	 mov	 DWORD PTR _max, 0
  000ed	a1 00 00 00 00	 mov	 eax, DWORD PTR _max
  000f2	a3 00 00 00 00	 mov	 DWORD PTR _min, eax
$LN3@PollReceiv:

; 391  : 		}
; 392  : 
; 393  : //		WriteDebugLog(LOGDEBUG, "Process %d %d", inIndex, inheader[inIndex].dwBytesRecorded/2);
; 394  : 		if (Capturing && Loopback == FALSE)

  000f7	83 3d 00 00 00
	00 00		 cmp	 DWORD PTR _Capturing, 0
  000fe	74 35		 je	 SHORT $LN2@PollReceiv
  00100	83 3d 00 00 00
	00 00		 cmp	 DWORD PTR _Loopback, 0
  00107	75 2c		 jne	 SHORT $LN2@PollReceiv

; 395  : 			ProcessNewSamples(&inbuffer[inIndex][0], inheader[inIndex].dwBytesRecorded/2);

  00109	a1 00 00 00 00	 mov	 eax, DWORD PTR _inIndex
  0010e	c1 e0 05	 shl	 eax, 5
  00111	8b 88 08 00 00
	00		 mov	 ecx, DWORD PTR _inheader[eax+8]
  00117	d1 e9		 shr	 ecx, 1
  00119	51		 push	 ecx
  0011a	8b 15 00 00 00
	00		 mov	 edx, DWORD PTR _inIndex
  00120	69 d2 e0 01 00
	00		 imul	 edx, 480		; 000001e0H
  00126	81 c2 00 00 00
	00		 add	 edx, OFFSET _inbuffer
  0012c	52		 push	 edx
  0012d	e8 00 00 00 00	 call	 _ProcessNewSamples
  00132	83 c4 08	 add	 esp, 8
$LN2@PollReceiv:

; 396  : 
; 397  : 		waveInUnprepareHeader(hWaveIn, &inheader[inIndex], sizeof(WAVEHDR));

  00135	8b f4		 mov	 esi, esp
  00137	6a 20		 push	 32			; 00000020H
  00139	a1 00 00 00 00	 mov	 eax, DWORD PTR _inIndex
  0013e	c1 e0 05	 shl	 eax, 5
  00141	05 00 00 00 00	 add	 eax, OFFSET _inheader
  00146	50		 push	 eax
  00147	8b 0d 00 00 00
	00		 mov	 ecx, DWORD PTR _hWaveIn
  0014d	51		 push	 ecx
  0014e	ff 15 00 00 00
	00		 call	 DWORD PTR __imp__waveInUnprepareHeader@12
  00154	3b f4		 cmp	 esi, esp
  00156	e8 00 00 00 00	 call	 __RTC_CheckEsp

; 398  : 		inheader[inIndex].dwFlags = 0;

  0015b	a1 00 00 00 00	 mov	 eax, DWORD PTR _inIndex
  00160	c1 e0 05	 shl	 eax, 5
  00163	c7 80 10 00 00
	00 00 00 00 00	 mov	 DWORD PTR _inheader[eax+16], 0

; 399  : 		waveInPrepareHeader(hWaveIn, &inheader[inIndex], sizeof(WAVEHDR));

  0016d	8b f4		 mov	 esi, esp
  0016f	6a 20		 push	 32			; 00000020H
  00171	a1 00 00 00 00	 mov	 eax, DWORD PTR _inIndex
  00176	c1 e0 05	 shl	 eax, 5
  00179	05 00 00 00 00	 add	 eax, OFFSET _inheader
  0017e	50		 push	 eax
  0017f	8b 0d 00 00 00
	00		 mov	 ecx, DWORD PTR _hWaveIn
  00185	51		 push	 ecx
  00186	ff 15 00 00 00
	00		 call	 DWORD PTR __imp__waveInPrepareHeader@12
  0018c	3b f4		 cmp	 esi, esp
  0018e	e8 00 00 00 00	 call	 __RTC_CheckEsp

; 400  : 		waveInAddBuffer(hWaveIn, &inheader[inIndex], sizeof(WAVEHDR));

  00193	8b f4		 mov	 esi, esp
  00195	6a 20		 push	 32			; 00000020H
  00197	a1 00 00 00 00	 mov	 eax, DWORD PTR _inIndex
  0019c	c1 e0 05	 shl	 eax, 5
  0019f	05 00 00 00 00	 add	 eax, OFFSET _inheader
  001a4	50		 push	 eax
  001a5	8b 0d 00 00 00
	00		 mov	 ecx, DWORD PTR _hWaveIn
  001ab	51		 push	 ecx
  001ac	ff 15 00 00 00
	00		 call	 DWORD PTR __imp__waveInAddBuffer@12
  001b2	3b f4		 cmp	 esi, esp
  001b4	e8 00 00 00 00	 call	 __RTC_CheckEsp

; 401  : 
; 402  : 		inIndex++;

  001b9	a1 00 00 00 00	 mov	 eax, DWORD PTR _inIndex
  001be	83 c0 01	 add	 eax, 1
  001c1	a3 00 00 00 00	 mov	 DWORD PTR _inIndex, eax

; 403  : 		
; 404  : 		if (inIndex == NumberofinBuffers)

  001c6	83 3d 00 00 00
	00 04		 cmp	 DWORD PTR _inIndex, 4
  001cd	75 0a		 jne	 SHORT $LN11@PollReceiv

; 405  : 			inIndex = 0;

  001cf	c7 05 00 00 00
	00 00 00 00 00	 mov	 DWORD PTR _inIndex, 0
$LN11@PollReceiv:

; 406  : 	}
; 407  : }

  001d9	5f		 pop	 edi
  001da	5e		 pop	 esi
  001db	5b		 pop	 ebx
  001dc	81 c4 d8 00 00
	00		 add	 esp, 216		; 000000d8H
  001e2	3b ec		 cmp	 ebp, esp
  001e4	e8 00 00 00 00	 call	 __RTC_CheckEsp
  001e9	8b e5		 mov	 esp, ebp
  001eb	5d		 pop	 ebp
  001ec	c3		 ret	 0
_PollReceivedSamples ENDP
_TEXT	ENDS
PUBLIC	_StopCapture
; Function compile flags: /Odtp /RTCsu /ZI
;	COMDAT _StopCapture
_TEXT	SEGMENT
_StopCapture PROC					; COMDAT

; 411  : {

  00000	55		 push	 ebp
  00001	8b ec		 mov	 ebp, esp
  00003	81 ec c0 00 00
	00		 sub	 esp, 192		; 000000c0H
  00009	53		 push	 ebx
  0000a	56		 push	 esi
  0000b	57		 push	 edi
  0000c	8d bd 40 ff ff
	ff		 lea	 edi, DWORD PTR [ebp-192]
  00012	b9 30 00 00 00	 mov	 ecx, 48			; 00000030H
  00017	b8 cc cc cc cc	 mov	 eax, -858993460		; ccccccccH
  0001c	f3 ab		 rep stosd

; 412  : 	Capturing = FALSE;

  0001e	c7 05 00 00 00
	00 00 00 00 00	 mov	 DWORD PTR _Capturing, 0

; 413  : 
; 414  : //	waveInStop(hWaveIn);
; 415  : //	WriteDebugLog(LOGDEBUG, "Stop Capture");
; 416  : }

  00028	5f		 pop	 edi
  00029	5e		 pop	 esi
  0002a	5b		 pop	 ebx
  0002b	8b e5		 mov	 esp, ebp
  0002d	5d		 pop	 ebp
  0002e	c3		 ret	 0
_StopCapture ENDP
_TEXT	ENDS
PUBLIC	_StartCapture
EXTRN	_State:DWORD
EXTRN	_ClearAllMixedSamples:PROC
EXTRN	_DiscardOldSamples:PROC
; Function compile flags: /Odtp /RTCsu /ZI
;	COMDAT _StartCapture
_TEXT	SEGMENT
_StartCapture PROC					; COMDAT

; 419  : {

  00000	55		 push	 ebp
  00001	8b ec		 mov	 ebp, esp
  00003	81 ec c0 00 00
	00		 sub	 esp, 192		; 000000c0H
  00009	53		 push	 ebx
  0000a	56		 push	 esi
  0000b	57		 push	 edi
  0000c	8d bd 40 ff ff
	ff		 lea	 edi, DWORD PTR [ebp-192]
  00012	b9 30 00 00 00	 mov	 ecx, 48			; 00000030H
  00017	b8 cc cc cc cc	 mov	 eax, -858993460		; ccccccccH
  0001c	f3 ab		 rep stosd

; 420  : 	Capturing = TRUE;

  0001e	c7 05 00 00 00
	00 01 00 00 00	 mov	 DWORD PTR _Capturing, 1

; 421  : 	DiscardOldSamples();

  00028	e8 00 00 00 00	 call	 _DiscardOldSamples

; 422  : 	ClearAllMixedSamples();

  0002d	e8 00 00 00 00	 call	 _ClearAllMixedSamples

; 423  : 	State = SearchingForLeader;

  00032	c7 05 00 00 00
	00 00 00 00 00	 mov	 DWORD PTR _State, 0

; 424  : 
; 425  : //	WriteDebugLog(LOGDEBUG, "Start Capture");
; 426  : }

  0003c	5f		 pop	 edi
  0003d	5e		 pop	 esi
  0003e	5b		 pop	 ebx
  0003f	81 c4 c0 00 00
	00		 add	 esp, 192		; 000000c0H
  00045	3b ec		 cmp	 ebp, esp
  00047	e8 00 00 00 00	 call	 __RTC_CheckEsp
  0004c	8b e5		 mov	 esp, ebp
  0004e	5d		 pop	 ebp
  0004f	c3		 ret	 0
_StartCapture ENDP
_TEXT	ENDS
PUBLIC	_CloseSound
EXTRN	__imp__waveInClose@4:PROC
; Function compile flags: /Odtp /RTCsu /ZI
;	COMDAT _CloseSound
_TEXT	SEGMENT
_CloseSound PROC					; COMDAT

; 428  : { 

  00000	55		 push	 ebp
  00001	8b ec		 mov	 ebp, esp
  00003	81 ec c0 00 00
	00		 sub	 esp, 192		; 000000c0H
  00009	53		 push	 ebx
  0000a	56		 push	 esi
  0000b	57		 push	 edi
  0000c	8d bd 40 ff ff
	ff		 lea	 edi, DWORD PTR [ebp-192]
  00012	b9 30 00 00 00	 mov	 ecx, 48			; 00000030H
  00017	b8 cc cc cc cc	 mov	 eax, -858993460		; ccccccccH
  0001c	f3 ab		 rep stosd

; 429  : 	waveInClose(hWaveIn);

  0001e	8b f4		 mov	 esi, esp
  00020	a1 00 00 00 00	 mov	 eax, DWORD PTR _hWaveIn
  00025	50		 push	 eax
  00026	ff 15 00 00 00
	00		 call	 DWORD PTR __imp__waveInClose@4
  0002c	3b f4		 cmp	 esi, esp
  0002e	e8 00 00 00 00	 call	 __RTC_CheckEsp

; 430  : 	waveOutClose(hWaveOut);

  00033	8b f4		 mov	 esi, esp
  00035	a1 00 00 00 00	 mov	 eax, DWORD PTR _hWaveOut
  0003a	50		 push	 eax
  0003b	ff 15 00 00 00
	00		 call	 DWORD PTR __imp__waveOutClose@4
  00041	3b f4		 cmp	 esi, esp
  00043	e8 00 00 00 00	 call	 __RTC_CheckEsp

; 431  : }

  00048	5f		 pop	 edi
  00049	5e		 pop	 esi
  0004a	5b		 pop	 ebx
  0004b	81 c4 c0 00 00
	00		 add	 esp, 192		; 000000c0H
  00051	3b ec		 cmp	 ebp, esp
  00053	e8 00 00 00 00	 call	 __RTC_CheckEsp
  00058	8b e5		 mov	 esp, ebp
  0005a	5d		 pop	 ebp
  0005b	c3		 ret	 0
_CloseSound ENDP
_TEXT	ENDS
PUBLIC	_CloseDebugLog
EXTRN	_fclose:PROC
; Function compile flags: /Odtp /RTCsu /ZI
;	COMDAT _CloseDebugLog
_TEXT	SEGMENT
_CloseDebugLog PROC					; COMDAT

; 438  : {	

  00000	55		 push	 ebp
  00001	8b ec		 mov	 ebp, esp
  00003	81 ec c0 00 00
	00		 sub	 esp, 192		; 000000c0H
  00009	53		 push	 ebx
  0000a	56		 push	 esi
  0000b	57		 push	 edi
  0000c	8d bd 40 ff ff
	ff		 lea	 edi, DWORD PTR [ebp-192]
  00012	b9 30 00 00 00	 mov	 ecx, 48			; 00000030H
  00017	b8 cc cc cc cc	 mov	 eax, -858993460		; ccccccccH
  0001c	f3 ab		 rep stosd

; 439  : 	if(logfile)

  0001e	83 3d 00 00 00
	00 00		 cmp	 DWORD PTR _logfile, 0
  00025	74 0e		 je	 SHORT $LN1@CloseDebug

; 440  : 		fclose(logfile);

  00027	a1 00 00 00 00	 mov	 eax, DWORD PTR _logfile
  0002c	50		 push	 eax
  0002d	e8 00 00 00 00	 call	 _fclose
  00032	83 c4 04	 add	 esp, 4
$LN1@CloseDebug:

; 441  : 	logfile = NULL;

  00035	c7 05 00 00 00
	00 00 00 00 00	 mov	 DWORD PTR _logfile, 0

; 442  : }

  0003f	5f		 pop	 edi
  00040	5e		 pop	 esi
  00041	5b		 pop	 ebx
  00042	81 c4 c0 00 00
	00		 add	 esp, 192		; 000000c0H
  00048	3b ec		 cmp	 ebp, esp
  0004a	e8 00 00 00 00	 call	 __RTC_CheckEsp
  0004f	8b e5		 mov	 esp, ebp
  00051	5d		 pop	 ebp
  00052	c3		 ret	 0
_CloseDebugLog ENDP
_TEXT	ENDS
PUBLIC	??_C@_0BF@LJJADDKF@?$CF02d?3?$CF02d?3?$CF02d?4?$CF03d?5?$AA@ ; `string'
PUBLIC	??_C@_02BOGAIONP@ab?$AA@			; `string'
PUBLIC	??_C@_0BE@BFFMEJMM@?$CFs_?$CF04d?$CF02d?$CF02d?4log?$AA@ ; `string'
PUBLIC	??_C@_0L@ECPLGNKA@ARDOPDebug?$AA@		; `string'
PUBLIC	??_C@_02PCIJFNDE@?$AN?6?$AA@			; `string'
PUBLIC	__$ArrayPad$
EXTRN	_fputs:PROC
EXTRN	_fopen:PROC
EXTRN	_sprintf:PROC
EXTRN	__imp__GetSystemTime@4:PROC
EXTRN	_DebugLog:DWORD
EXTRN	_ConsoleLogLevel:DWORD
EXTRN	_vsnprintf:PROC
EXTRN	___security_cookie:DWORD
EXTRN	@__security_check_cookie@4:PROC
EXTRN	__chkstk:PROC
;	COMDAT ??_C@_0BF@LJJADDKF@?$CF02d?3?$CF02d?3?$CF02d?4?$CF03d?5?$AA@
CONST	SEGMENT
??_C@_0BF@LJJADDKF@?$CF02d?3?$CF02d?3?$CF02d?4?$CF03d?5?$AA@ DB '%02d:%02'
	DB	'd:%02d.%03d ', 00H				; `string'
CONST	ENDS
;	COMDAT ??_C@_02BOGAIONP@ab?$AA@
CONST	SEGMENT
??_C@_02BOGAIONP@ab?$AA@ DB 'ab', 00H			; `string'
CONST	ENDS
;	COMDAT ??_C@_0BE@BFFMEJMM@?$CFs_?$CF04d?$CF02d?$CF02d?4log?$AA@
CONST	SEGMENT
??_C@_0BE@BFFMEJMM@?$CFs_?$CF04d?$CF02d?$CF02d?4log?$AA@ DB '%s_%04d%02d%'
	DB	'02d.log', 00H				; `string'
CONST	ENDS
;	COMDAT ??_C@_0L@ECPLGNKA@ARDOPDebug?$AA@
CONST	SEGMENT
??_C@_0L@ECPLGNKA@ARDOPDebug?$AA@ DB 'ARDOPDebug', 00H	; `string'
CONST	ENDS
;	COMDAT ??_C@_02PCIJFNDE@?$AN?6?$AA@
CONST	SEGMENT
??_C@_02PCIJFNDE@?$AN?6?$AA@ DB 0dH, 0aH, 00H		; `string'
; Function compile flags: /Odtp /RTCsu /ZI
CONST	ENDS
;	COMDAT _WriteDebugLog
_TEXT	SEGMENT
_st$ = -10288						; size = 16
_Value$ = -10264					; size = 100
_timebuf$ = -10156					; size = 128
_arglist$ = -10020					; size = 4
_Mess$ = -10008						; size = 10000
__$ArrayPad$ = -4					; size = 4
_LogLevel$ = 8						; size = 4
_format$ = 12						; size = 4
_WriteDebugLog PROC					; COMDAT

; 445  : {

  00000	55		 push	 ebp
  00001	8b ec		 mov	 ebp, esp
  00003	b8 f4 28 00 00	 mov	 eax, 10484		; 000028f4H
  00008	e8 00 00 00 00	 call	 __chkstk
  0000d	53		 push	 ebx
  0000e	56		 push	 esi
  0000f	57		 push	 edi
  00010	8d bd 0c d7 ff
	ff		 lea	 edi, DWORD PTR [ebp-10484]
  00016	b9 3d 0a 00 00	 mov	 ecx, 2621		; 00000a3dH
  0001b	b8 cc cc cc cc	 mov	 eax, -858993460		; ccccccccH
  00020	f3 ab		 rep stosd
  00022	a1 00 00 00 00	 mov	 eax, DWORD PTR ___security_cookie
  00027	33 c5		 xor	 eax, ebp
  00029	89 45 fc	 mov	 DWORD PTR __$ArrayPad$[ebp], eax

; 446  : 	char Mess[10000];
; 447  : 	va_list(arglist);
; 448  : 	char timebuf[128];
; 449  : 	UCHAR Value[100];
; 450  : 	SYSTEMTIME st;
; 451  : 
; 452  : 	
; 453  : 	va_start(arglist, format);

  0002c	8d 45 10	 lea	 eax, DWORD PTR _format$[ebp+4]
  0002f	89 85 dc d8 ff
	ff		 mov	 DWORD PTR _arglist$[ebp], eax

; 454  : #ifdef LOGTOHOST
; 455  : 	vsnprintf(&Mess[1], sizeof(Mess), format, arglist);
; 456  : 	strcat(Mess, "\r\n");
; 457  : 	Mess[0] = LogLevel + '0';
; 458  : 	SendLogToHost(Mess);
; 459  : #else
; 460  : 	vsnprintf(Mess, sizeof(Mess), format, arglist);

  00035	8b 85 dc d8 ff
	ff		 mov	 eax, DWORD PTR _arglist$[ebp]
  0003b	50		 push	 eax
  0003c	8b 4d 0c	 mov	 ecx, DWORD PTR _format$[ebp]
  0003f	51		 push	 ecx
  00040	68 10 27 00 00	 push	 10000			; 00002710H
  00045	8d 95 e8 d8 ff
	ff		 lea	 edx, DWORD PTR _Mess$[ebp]
  0004b	52		 push	 edx
  0004c	e8 00 00 00 00	 call	 _vsnprintf
  00051	83 c4 10	 add	 esp, 16			; 00000010H

; 461  : 	strcat(Mess, "\r\n");

  00054	68 00 00 00 00	 push	 OFFSET ??_C@_02PCIJFNDE@?$AN?6?$AA@
  00059	8d 85 e8 d8 ff
	ff		 lea	 eax, DWORD PTR _Mess$[ebp]
  0005f	50		 push	 eax
  00060	e8 00 00 00 00	 call	 _strcat
  00065	83 c4 08	 add	 esp, 8

; 462  : 
; 463  : 
; 464  : 	if (LogLevel <= ConsoleLogLevel)

  00068	8b 45 08	 mov	 eax, DWORD PTR _LogLevel$[ebp]
  0006b	3b 05 00 00 00
	00		 cmp	 eax, DWORD PTR _ConsoleLogLevel
  00071	7f 0f		 jg	 SHORT $LN4@WriteDebug

; 465  : 		printf(Mess);

  00073	8d 85 e8 d8 ff
	ff		 lea	 eax, DWORD PTR _Mess$[ebp]
  00079	50		 push	 eax
  0007a	e8 00 00 00 00	 call	 _printf
  0007f	83 c4 04	 add	 esp, 4
$LN4@WriteDebug:

; 466  : 
; 467  : 	if (!DebugLog)

  00082	83 3d 00 00 00
	00 00		 cmp	 DWORD PTR _DebugLog, 0
  00089	75 05		 jne	 SHORT $LN3@WriteDebug

; 468  : 		return;

  0008b	e9 03 01 00 00	 jmp	 $LN5@WriteDebug
$LN3@WriteDebug:

; 469  : 
; 470  : 	GetSystemTime(&st);

  00090	8b f4		 mov	 esi, esp
  00092	8d 85 d0 d7 ff
	ff		 lea	 eax, DWORD PTR _st$[ebp]
  00098	50		 push	 eax
  00099	ff 15 00 00 00
	00		 call	 DWORD PTR __imp__GetSystemTime@4
  0009f	3b f4		 cmp	 esi, esp
  000a1	e8 00 00 00 00	 call	 __RTC_CheckEsp

; 471  : 	sprintf(Value, "%s_%04d%02d%02d.log",
; 472  : 				"ARDOPDebug", st.wYear, st.wMonth, st.wDay);

  000a6	0f b7 85 d6 d7
	ff ff		 movzx	 eax, WORD PTR _st$[ebp+6]
  000ad	50		 push	 eax
  000ae	0f b7 8d d2 d7
	ff ff		 movzx	 ecx, WORD PTR _st$[ebp+2]
  000b5	51		 push	 ecx
  000b6	0f b7 95 d0 d7
	ff ff		 movzx	 edx, WORD PTR _st$[ebp]
  000bd	52		 push	 edx
  000be	68 00 00 00 00	 push	 OFFSET ??_C@_0L@ECPLGNKA@ARDOPDebug?$AA@
  000c3	68 00 00 00 00	 push	 OFFSET ??_C@_0BE@BFFMEJMM@?$CFs_?$CF04d?$CF02d?$CF02d?4log?$AA@
  000c8	8d 85 e8 d7 ff
	ff		 lea	 eax, DWORD PTR _Value$[ebp]
  000ce	50		 push	 eax
  000cf	e8 00 00 00 00	 call	 _sprintf
  000d4	83 c4 18	 add	 esp, 24			; 00000018H

; 473  : 	
; 474  : 	if (logfile == NULL)

  000d7	83 3d 00 00 00
	00 00		 cmp	 DWORD PTR _logfile, 0
  000de	75 55		 jne	 SHORT $LN2@WriteDebug

; 475  : 	{
; 476  : 		sprintf(Value, "%s_%04d%02d%02d.log",
; 477  : 				"ARDOPDebug", st.wYear, st.wMonth, st.wDay);

  000e0	0f b7 85 d6 d7
	ff ff		 movzx	 eax, WORD PTR _st$[ebp+6]
  000e7	50		 push	 eax
  000e8	0f b7 8d d2 d7
	ff ff		 movzx	 ecx, WORD PTR _st$[ebp+2]
  000ef	51		 push	 ecx
  000f0	0f b7 95 d0 d7
	ff ff		 movzx	 edx, WORD PTR _st$[ebp]
  000f7	52		 push	 edx
  000f8	68 00 00 00 00	 push	 OFFSET ??_C@_0L@ECPLGNKA@ARDOPDebug?$AA@
  000fd	68 00 00 00 00	 push	 OFFSET ??_C@_0BE@BFFMEJMM@?$CFs_?$CF04d?$CF02d?$CF02d?4log?$AA@
  00102	8d 85 e8 d7 ff
	ff		 lea	 eax, DWORD PTR _Value$[ebp]
  00108	50		 push	 eax
  00109	e8 00 00 00 00	 call	 _sprintf
  0010e	83 c4 18	 add	 esp, 24			; 00000018H

; 478  : 
; 479  : 		if ((logfile = fopen(Value, "ab")) == NULL)

  00111	68 00 00 00 00	 push	 OFFSET ??_C@_02BOGAIONP@ab?$AA@
  00116	8d 85 e8 d7 ff
	ff		 lea	 eax, DWORD PTR _Value$[ebp]
  0011c	50		 push	 eax
  0011d	e8 00 00 00 00	 call	 _fopen
  00122	83 c4 08	 add	 esp, 8
  00125	a3 00 00 00 00	 mov	 DWORD PTR _logfile, eax
  0012a	83 3d 00 00 00
	00 00		 cmp	 DWORD PTR _logfile, 0
  00131	75 02		 jne	 SHORT $LN2@WriteDebug

; 480  : 			return;

  00133	eb 5e		 jmp	 SHORT $LN5@WriteDebug
$LN2@WriteDebug:

; 481  : 	}
; 482  : 	sprintf(timebuf, "%02d:%02d:%02d.%03d ",
; 483  : 		st.wHour, st.wMinute, st.wSecond, st.wMilliseconds);

  00135	0f b7 85 de d7
	ff ff		 movzx	 eax, WORD PTR _st$[ebp+14]
  0013c	50		 push	 eax
  0013d	0f b7 8d dc d7
	ff ff		 movzx	 ecx, WORD PTR _st$[ebp+12]
  00144	51		 push	 ecx
  00145	0f b7 95 da d7
	ff ff		 movzx	 edx, WORD PTR _st$[ebp+10]
  0014c	52		 push	 edx
  0014d	0f b7 85 d8 d7
	ff ff		 movzx	 eax, WORD PTR _st$[ebp+8]
  00154	50		 push	 eax
  00155	68 00 00 00 00	 push	 OFFSET ??_C@_0BF@LJJADDKF@?$CF02d?3?$CF02d?3?$CF02d?4?$CF03d?5?$AA@
  0015a	8d 8d 54 d8 ff
	ff		 lea	 ecx, DWORD PTR _timebuf$[ebp]
  00160	51		 push	 ecx
  00161	e8 00 00 00 00	 call	 _sprintf
  00166	83 c4 18	 add	 esp, 24			; 00000018H

; 484  : 
; 485  : 	fputs(timebuf, logfile);

  00169	a1 00 00 00 00	 mov	 eax, DWORD PTR _logfile
  0016e	50		 push	 eax
  0016f	8d 8d 54 d8 ff
	ff		 lea	 ecx, DWORD PTR _timebuf$[ebp]
  00175	51		 push	 ecx
  00176	e8 00 00 00 00	 call	 _fputs
  0017b	83 c4 08	 add	 esp, 8

; 486  : 
; 487  : 	fputs(Mess, logfile);

  0017e	a1 00 00 00 00	 mov	 eax, DWORD PTR _logfile
  00183	50		 push	 eax
  00184	8d 8d e8 d8 ff
	ff		 lea	 ecx, DWORD PTR _Mess$[ebp]
  0018a	51		 push	 ecx
  0018b	e8 00 00 00 00	 call	 _fputs
  00190	83 c4 08	 add	 esp, 8
$LN5@WriteDebug:

; 488  : #endif
; 489  : 
; 490  : 	return;
; 491  : }

  00193	52		 push	 edx
  00194	8b cd		 mov	 ecx, ebp
  00196	50		 push	 eax
  00197	8d 15 00 00 00
	00		 lea	 edx, DWORD PTR $LN12@WriteDebug
  0019d	e8 00 00 00 00	 call	 @_RTC_CheckStackVars@8
  001a2	58		 pop	 eax
  001a3	5a		 pop	 edx
  001a4	5f		 pop	 edi
  001a5	5e		 pop	 esi
  001a6	5b		 pop	 ebx
  001a7	8b 4d fc	 mov	 ecx, DWORD PTR __$ArrayPad$[ebp]
  001aa	33 cd		 xor	 ecx, ebp
  001ac	e8 00 00 00 00	 call	 @__security_check_cookie@4
  001b1	81 c4 f4 28 00
	00		 add	 esp, 10484		; 000028f4H
  001b7	3b ec		 cmp	 ebp, esp
  001b9	e8 00 00 00 00	 call	 __RTC_CheckEsp
  001be	8b e5		 mov	 esp, ebp
  001c0	5d		 pop	 ebp
  001c1	c3		 ret	 0
  001c2	8b ff		 npad	 2
$LN12@WriteDebug:
  001c4	04 00 00 00	 DD	 4
  001c8	00 00 00 00	 DD	 $LN11@WriteDebug
$LN11@WriteDebug:
  001cc	e8 d8 ff ff	 DD	 -10008			; ffffd8e8H
  001d0	10 27 00 00	 DD	 10000			; 00002710H
  001d4	00 00 00 00	 DD	 $LN7@WriteDebug
  001d8	54 d8 ff ff	 DD	 -10156			; ffffd854H
  001dc	80 00 00 00	 DD	 128			; 00000080H
  001e0	00 00 00 00	 DD	 $LN8@WriteDebug
  001e4	e8 d7 ff ff	 DD	 -10264			; ffffd7e8H
  001e8	64 00 00 00	 DD	 100			; 00000064H
  001ec	00 00 00 00	 DD	 $LN9@WriteDebug
  001f0	d0 d7 ff ff	 DD	 -10288			; ffffd7d0H
  001f4	10 00 00 00	 DD	 16			; 00000010H
  001f8	00 00 00 00	 DD	 $LN10@WriteDebug
$LN10@WriteDebug:
  001fc	73		 DB	 115			; 00000073H
  001fd	74		 DB	 116			; 00000074H
  001fe	00		 DB	 0
$LN9@WriteDebug:
  001ff	56		 DB	 86			; 00000056H
  00200	61		 DB	 97			; 00000061H
  00201	6c		 DB	 108			; 0000006cH
  00202	75		 DB	 117			; 00000075H
  00203	65		 DB	 101			; 00000065H
  00204	00		 DB	 0
$LN8@WriteDebug:
  00205	74		 DB	 116			; 00000074H
  00206	69		 DB	 105			; 00000069H
  00207	6d		 DB	 109			; 0000006dH
  00208	65		 DB	 101			; 00000065H
  00209	62		 DB	 98			; 00000062H
  0020a	75		 DB	 117			; 00000075H
  0020b	66		 DB	 102			; 00000066H
  0020c	00		 DB	 0
$LN7@WriteDebug:
  0020d	4d		 DB	 77			; 0000004dH
  0020e	65		 DB	 101			; 00000065H
  0020f	73		 DB	 115			; 00000073H
  00210	73		 DB	 115			; 00000073H
  00211	00		 DB	 0
_WriteDebugLog ENDP
_TEXT	ENDS
PUBLIC	??_C@_0P@JHJNANGF@ARDOPException?$AA@		; `string'
PUBLIC	__$ArrayPad$
PUBLIC	_WriteExceptionLog
;	COMDAT ??_C@_0P@JHJNANGF@ARDOPException?$AA@
CONST	SEGMENT
??_C@_0P@JHJNANGF@ARDOPException?$AA@ DB 'ARDOPException', 00H ; `string'
; Function compile flags: /Odtp /RTCsu /ZI
CONST	ENDS
;	COMDAT _WriteExceptionLog
_TEXT	SEGMENT
_st$ = -10204						; size = 16
_logfile$ = -10180					; size = 4
_Value$ = -10168					; size = 100
_timebuf$ = -10060					; size = 32
_arglist$ = -10020					; size = 4
_Mess$ = -10008						; size = 10000
__$ArrayPad$ = -4					; size = 4
_format$ = 8						; size = 4
_WriteExceptionLog PROC					; COMDAT

; 494  : {

  00000	55		 push	 ebp
  00001	8b ec		 mov	 ebp, esp
  00003	b8 a0 28 00 00	 mov	 eax, 10400		; 000028a0H
  00008	e8 00 00 00 00	 call	 __chkstk
  0000d	53		 push	 ebx
  0000e	56		 push	 esi
  0000f	57		 push	 edi
  00010	8d bd 60 d7 ff
	ff		 lea	 edi, DWORD PTR [ebp-10400]
  00016	b9 28 0a 00 00	 mov	 ecx, 2600		; 00000a28H
  0001b	b8 cc cc cc cc	 mov	 eax, -858993460		; ccccccccH
  00020	f3 ab		 rep stosd
  00022	a1 00 00 00 00	 mov	 eax, DWORD PTR ___security_cookie
  00027	33 c5		 xor	 eax, ebp
  00029	89 45 fc	 mov	 DWORD PTR __$ArrayPad$[ebp], eax

; 495  : 	char Mess[10000];
; 496  : 	va_list(arglist);
; 497  : 	char timebuf[32];
; 498  : 	UCHAR Value[100];
; 499  : 	FILE *logfile = NULL;

  0002c	c7 85 3c d8 ff
	ff 00 00 00 00	 mov	 DWORD PTR _logfile$[ebp], 0

; 500  : 	SYSTEMTIME st;
; 501  : 	
; 502  : 	va_start(arglist, format);

  00036	8d 45 0c	 lea	 eax, DWORD PTR _format$[ebp+4]
  00039	89 85 dc d8 ff
	ff		 mov	 DWORD PTR _arglist$[ebp], eax

; 503  : 	vsnprintf(Mess, sizeof(Mess), format, arglist);

  0003f	8b 85 dc d8 ff
	ff		 mov	 eax, DWORD PTR _arglist$[ebp]
  00045	50		 push	 eax
  00046	8b 4d 08	 mov	 ecx, DWORD PTR _format$[ebp]
  00049	51		 push	 ecx
  0004a	68 10 27 00 00	 push	 10000			; 00002710H
  0004f	8d 95 e8 d8 ff
	ff		 lea	 edx, DWORD PTR _Mess$[ebp]
  00055	52		 push	 edx
  00056	e8 00 00 00 00	 call	 _vsnprintf
  0005b	83 c4 10	 add	 esp, 16			; 00000010H

; 504  : 	strcat(Mess, "\r\n");

  0005e	68 00 00 00 00	 push	 OFFSET ??_C@_02PCIJFNDE@?$AN?6?$AA@
  00063	8d 85 e8 d8 ff
	ff		 lea	 eax, DWORD PTR _Mess$[ebp]
  00069	50		 push	 eax
  0006a	e8 00 00 00 00	 call	 _strcat
  0006f	83 c4 08	 add	 esp, 8

; 505  : 
; 506  : 	printf(Mess);

  00072	8d 85 e8 d8 ff
	ff		 lea	 eax, DWORD PTR _Mess$[ebp]
  00078	50		 push	 eax
  00079	e8 00 00 00 00	 call	 _printf
  0007e	83 c4 04	 add	 esp, 4

; 507  : 
; 508  : 	GetSystemTime(&st);

  00081	8b f4		 mov	 esi, esp
  00083	8d 85 24 d8 ff
	ff		 lea	 eax, DWORD PTR _st$[ebp]
  00089	50		 push	 eax
  0008a	ff 15 00 00 00
	00		 call	 DWORD PTR __imp__GetSystemTime@4
  00090	3b f4		 cmp	 esi, esp
  00092	e8 00 00 00 00	 call	 __RTC_CheckEsp

; 509  : 	sprintf(Value, "%s_%04d%02d%02d.log",
; 510  : 				"ARDOPException", st.wYear, st.wMonth, st.wDay);

  00097	0f b7 85 2a d8
	ff ff		 movzx	 eax, WORD PTR _st$[ebp+6]
  0009e	50		 push	 eax
  0009f	0f b7 8d 26 d8
	ff ff		 movzx	 ecx, WORD PTR _st$[ebp+2]
  000a6	51		 push	 ecx
  000a7	0f b7 95 24 d8
	ff ff		 movzx	 edx, WORD PTR _st$[ebp]
  000ae	52		 push	 edx
  000af	68 00 00 00 00	 push	 OFFSET ??_C@_0P@JHJNANGF@ARDOPException?$AA@
  000b4	68 00 00 00 00	 push	 OFFSET ??_C@_0BE@BFFMEJMM@?$CFs_?$CF04d?$CF02d?$CF02d?4log?$AA@
  000b9	8d 85 48 d8 ff
	ff		 lea	 eax, DWORD PTR _Value$[ebp]
  000bf	50		 push	 eax
  000c0	e8 00 00 00 00	 call	 _sprintf
  000c5	83 c4 18	 add	 esp, 24			; 00000018H

; 511  : 	
; 512  : 	if ((logfile = fopen(Value, "ab")) == NULL)

  000c8	68 00 00 00 00	 push	 OFFSET ??_C@_02BOGAIONP@ab?$AA@
  000cd	8d 85 48 d8 ff
	ff		 lea	 eax, DWORD PTR _Value$[ebp]
  000d3	50		 push	 eax
  000d4	e8 00 00 00 00	 call	 _fopen
  000d9	83 c4 08	 add	 esp, 8
  000dc	89 85 3c d8 ff
	ff		 mov	 DWORD PTR _logfile$[ebp], eax
  000e2	83 bd 3c d8 ff
	ff 00		 cmp	 DWORD PTR _logfile$[ebp], 0
  000e9	75 02		 jne	 SHORT $LN1@WriteExcep

; 513  : 		return;

  000eb	eb 6f		 jmp	 SHORT $LN2@WriteExcep
$LN1@WriteExcep:

; 514  : 
; 515  : 	sprintf(timebuf, "%02d:%02d:%02d.%03d ",
; 516  : 		st.wHour, st.wMinute, st.wSecond, st.wMilliseconds);

  000ed	0f b7 85 32 d8
	ff ff		 movzx	 eax, WORD PTR _st$[ebp+14]
  000f4	50		 push	 eax
  000f5	0f b7 8d 30 d8
	ff ff		 movzx	 ecx, WORD PTR _st$[ebp+12]
  000fc	51		 push	 ecx
  000fd	0f b7 95 2e d8
	ff ff		 movzx	 edx, WORD PTR _st$[ebp+10]
  00104	52		 push	 edx
  00105	0f b7 85 2c d8
	ff ff		 movzx	 eax, WORD PTR _st$[ebp+8]
  0010c	50		 push	 eax
  0010d	68 00 00 00 00	 push	 OFFSET ??_C@_0BF@LJJADDKF@?$CF02d?3?$CF02d?3?$CF02d?4?$CF03d?5?$AA@
  00112	8d 8d b4 d8 ff
	ff		 lea	 ecx, DWORD PTR _timebuf$[ebp]
  00118	51		 push	 ecx
  00119	e8 00 00 00 00	 call	 _sprintf
  0011e	83 c4 18	 add	 esp, 24			; 00000018H

; 517  : 
; 518  : 	fputs(timebuf, logfile);

  00121	8b 85 3c d8 ff
	ff		 mov	 eax, DWORD PTR _logfile$[ebp]
  00127	50		 push	 eax
  00128	8d 8d b4 d8 ff
	ff		 lea	 ecx, DWORD PTR _timebuf$[ebp]
  0012e	51		 push	 ecx
  0012f	e8 00 00 00 00	 call	 _fputs
  00134	83 c4 08	 add	 esp, 8

; 519  : 
; 520  : 	fputs(Mess, logfile);

  00137	8b 85 3c d8 ff
	ff		 mov	 eax, DWORD PTR _logfile$[ebp]
  0013d	50		 push	 eax
  0013e	8d 8d e8 d8 ff
	ff		 lea	 ecx, DWORD PTR _Mess$[ebp]
  00144	51		 push	 ecx
  00145	e8 00 00 00 00	 call	 _fputs
  0014a	83 c4 08	 add	 esp, 8

; 521  : 	fclose(logfile);

  0014d	8b 85 3c d8 ff
	ff		 mov	 eax, DWORD PTR _logfile$[ebp]
  00153	50		 push	 eax
  00154	e8 00 00 00 00	 call	 _fclose
  00159	83 c4 04	 add	 esp, 4
$LN2@WriteExcep:

; 522  : 
; 523  : 	return;
; 524  : }

  0015c	52		 push	 edx
  0015d	8b cd		 mov	 ecx, ebp
  0015f	50		 push	 eax
  00160	8d 15 00 00 00
	00		 lea	 edx, DWORD PTR $LN9@WriteExcep
  00166	e8 00 00 00 00	 call	 @_RTC_CheckStackVars@8
  0016b	58		 pop	 eax
  0016c	5a		 pop	 edx
  0016d	5f		 pop	 edi
  0016e	5e		 pop	 esi
  0016f	5b		 pop	 ebx
  00170	8b 4d fc	 mov	 ecx, DWORD PTR __$ArrayPad$[ebp]
  00173	33 cd		 xor	 ecx, ebp
  00175	e8 00 00 00 00	 call	 @__security_check_cookie@4
  0017a	81 c4 a0 28 00
	00		 add	 esp, 10400		; 000028a0H
  00180	3b ec		 cmp	 ebp, esp
  00182	e8 00 00 00 00	 call	 __RTC_CheckEsp
  00187	8b e5		 mov	 esp, ebp
  00189	5d		 pop	 ebp
  0018a	c3		 ret	 0
  0018b	90		 npad	 1
$LN9@WriteExcep:
  0018c	04 00 00 00	 DD	 4
  00190	00 00 00 00	 DD	 $LN8@WriteExcep
$LN8@WriteExcep:
  00194	e8 d8 ff ff	 DD	 -10008			; ffffd8e8H
  00198	10 27 00 00	 DD	 10000			; 00002710H
  0019c	00 00 00 00	 DD	 $LN4@WriteExcep
  001a0	b4 d8 ff ff	 DD	 -10060			; ffffd8b4H
  001a4	20 00 00 00	 DD	 32			; 00000020H
  001a8	00 00 00 00	 DD	 $LN5@WriteExcep
  001ac	48 d8 ff ff	 DD	 -10168			; ffffd848H
  001b0	64 00 00 00	 DD	 100			; 00000064H
  001b4	00 00 00 00	 DD	 $LN6@WriteExcep
  001b8	24 d8 ff ff	 DD	 -10204			; ffffd824H
  001bc	10 00 00 00	 DD	 16			; 00000010H
  001c0	00 00 00 00	 DD	 $LN7@WriteExcep
$LN7@WriteExcep:
  001c4	73		 DB	 115			; 00000073H
  001c5	74		 DB	 116			; 00000074H
  001c6	00		 DB	 0
$LN6@WriteExcep:
  001c7	56		 DB	 86			; 00000056H
  001c8	61		 DB	 97			; 00000061H
  001c9	6c		 DB	 108			; 0000006cH
  001ca	75		 DB	 117			; 00000075H
  001cb	65		 DB	 101			; 00000065H
  001cc	00		 DB	 0
$LN5@WriteExcep:
  001cd	74		 DB	 116			; 00000074H
  001ce	69		 DB	 105			; 00000069H
  001cf	6d		 DB	 109			; 0000006dH
  001d0	65		 DB	 101			; 00000065H
  001d1	62		 DB	 98			; 00000062H
  001d2	75		 DB	 117			; 00000075H
  001d3	66		 DB	 102			; 00000066H
  001d4	00		 DB	 0
$LN4@WriteExcep:
  001d5	4d		 DB	 77			; 0000004dH
  001d6	65		 DB	 101			; 00000065H
  001d7	73		 DB	 115			; 00000073H
  001d8	73		 DB	 115			; 00000073H
  001d9	00		 DB	 0
_WriteExceptionLog ENDP
_TEXT	ENDS
PUBLIC	_CloseStatsLog
; Function compile flags: /Odtp /RTCsu /ZI
;	COMDAT _CloseStatsLog
_TEXT	SEGMENT
_CloseStatsLog PROC					; COMDAT

; 529  : {

  00000	55		 push	 ebp
  00001	8b ec		 mov	 ebp, esp
  00003	81 ec c0 00 00
	00		 sub	 esp, 192		; 000000c0H
  00009	53		 push	 ebx
  0000a	56		 push	 esi
  0000b	57		 push	 edi
  0000c	8d bd 40 ff ff
	ff		 lea	 edi, DWORD PTR [ebp-192]
  00012	b9 30 00 00 00	 mov	 ecx, 48			; 00000030H
  00017	b8 cc cc cc cc	 mov	 eax, -858993460		; ccccccccH
  0001c	f3 ab		 rep stosd

; 530  : 	fclose(statslogfile);

  0001e	a1 00 00 00 00	 mov	 eax, DWORD PTR _statslogfile
  00023	50		 push	 eax
  00024	e8 00 00 00 00	 call	 _fclose
  00029	83 c4 04	 add	 esp, 4

; 531  : 	statslogfile = NULL;

  0002c	c7 05 00 00 00
	00 00 00 00 00	 mov	 DWORD PTR _statslogfile, 0

; 532  : }

  00036	5f		 pop	 edi
  00037	5e		 pop	 esi
  00038	5b		 pop	 ebx
  00039	81 c4 c0 00 00
	00		 add	 esp, 192		; 000000c0H
  0003f	3b ec		 cmp	 ebp, esp
  00041	e8 00 00 00 00	 call	 __RTC_CheckEsp
  00046	8b e5		 mov	 esp, ebp
  00048	5d		 pop	 ebp
  00049	c3		 ret	 0
_CloseStatsLog ENDP
_TEXT	ENDS
PUBLIC	??_C@_0BG@GMHPPKGN@?$CF02d?3?$CF02d?3?$CF02d?4?$CF03d?$AN?6?$AA@ ; `string'
PUBLIC	??_C@_0N@PEJKECFM@ARDOPSession?$AA@		; `string'
PUBLIC	__$ArrayPad$
PUBLIC	_Statsprintf
;	COMDAT ??_C@_0BG@GMHPPKGN@?$CF02d?3?$CF02d?3?$CF02d?4?$CF03d?$AN?6?$AA@
CONST	SEGMENT
??_C@_0BG@GMHPPKGN@?$CF02d?3?$CF02d?3?$CF02d?4?$CF03d?$AN?6?$AA@ DB '%02d'
	DB	':%02d:%02d.%03d', 0dH, 0aH, 00H		; `string'
CONST	ENDS
;	COMDAT ??_C@_0N@PEJKECFM@ARDOPSession?$AA@
CONST	SEGMENT
??_C@_0N@PEJKECFM@ARDOPSession?$AA@ DB 'ARDOPSession', 00H ; `string'
; Function compile flags: /Odtp /RTCsu /ZI
CONST	ENDS
;	COMDAT _Statsprintf
_TEXT	SEGMENT
_st$ = -10192						; size = 16
_timebuf$ = -10168					; size = 32
_Value$ = -10128					; size = 100
_arglist$ = -10020					; size = 4
_Mess$ = -10008						; size = 10000
__$ArrayPad$ = -4					; size = 4
_format$ = 8						; size = 4
_Statsprintf PROC					; COMDAT

; 534  : {

  00000	55		 push	 ebp
  00001	8b ec		 mov	 ebp, esp
  00003	b8 94 28 00 00	 mov	 eax, 10388		; 00002894H
  00008	e8 00 00 00 00	 call	 __chkstk
  0000d	53		 push	 ebx
  0000e	56		 push	 esi
  0000f	57		 push	 edi
  00010	8d bd 6c d7 ff
	ff		 lea	 edi, DWORD PTR [ebp-10388]
  00016	b9 25 0a 00 00	 mov	 ecx, 2597		; 00000a25H
  0001b	b8 cc cc cc cc	 mov	 eax, -858993460		; ccccccccH
  00020	f3 ab		 rep stosd
  00022	a1 00 00 00 00	 mov	 eax, DWORD PTR ___security_cookie
  00027	33 c5		 xor	 eax, ebp
  00029	89 45 fc	 mov	 DWORD PTR __$ArrayPad$[ebp], eax

; 535  : 	char Mess[10000];
; 536  : 	va_list(arglist);
; 537  : 	UCHAR Value[100];
; 538  : 	char timebuf[32];
; 539  : 
; 540  : 	SYSTEMTIME st;
; 541  : 
; 542  : 	va_start(arglist, format);

  0002c	8d 45 0c	 lea	 eax, DWORD PTR _format$[ebp+4]
  0002f	89 85 dc d8 ff
	ff		 mov	 DWORD PTR _arglist$[ebp], eax

; 543  : 	vsnprintf(Mess, sizeof(Mess), format, arglist);

  00035	8b 85 dc d8 ff
	ff		 mov	 eax, DWORD PTR _arglist$[ebp]
  0003b	50		 push	 eax
  0003c	8b 4d 08	 mov	 ecx, DWORD PTR _format$[ebp]
  0003f	51		 push	 ecx
  00040	68 10 27 00 00	 push	 10000			; 00002710H
  00045	8d 95 e8 d8 ff
	ff		 lea	 edx, DWORD PTR _Mess$[ebp]
  0004b	52		 push	 edx
  0004c	e8 00 00 00 00	 call	 _vsnprintf
  00051	83 c4 10	 add	 esp, 16			; 00000010H

; 544  : 	strcat(Mess, "\r\n");

  00054	68 00 00 00 00	 push	 OFFSET ??_C@_02PCIJFNDE@?$AN?6?$AA@
  00059	8d 85 e8 d8 ff
	ff		 lea	 eax, DWORD PTR _Mess$[ebp]
  0005f	50		 push	 eax
  00060	e8 00 00 00 00	 call	 _strcat
  00065	83 c4 08	 add	 esp, 8

; 545  : 
; 546  : 	if (statslogfile == NULL)

  00068	83 3d 00 00 00
	00 00		 cmp	 DWORD PTR _statslogfile, 0
  0006f	0f 85 b6 00 00
	00		 jne	 $LN3@Statsprint

; 547  : 	{
; 548  : 		GetSystemTime(&st);

  00075	8b f4		 mov	 esi, esp
  00077	8d 85 30 d8 ff
	ff		 lea	 eax, DWORD PTR _st$[ebp]
  0007d	50		 push	 eax
  0007e	ff 15 00 00 00
	00		 call	 DWORD PTR __imp__GetSystemTime@4
  00084	3b f4		 cmp	 esi, esp
  00086	e8 00 00 00 00	 call	 __RTC_CheckEsp

; 549  : 		sprintf(Value, "%s_%04d%02d%02d.log",
; 550  : 			"ARDOPSession", st.wYear, st.wMonth, st.wDay);

  0008b	0f b7 85 36 d8
	ff ff		 movzx	 eax, WORD PTR _st$[ebp+6]
  00092	50		 push	 eax
  00093	0f b7 8d 32 d8
	ff ff		 movzx	 ecx, WORD PTR _st$[ebp+2]
  0009a	51		 push	 ecx
  0009b	0f b7 95 30 d8
	ff ff		 movzx	 edx, WORD PTR _st$[ebp]
  000a2	52		 push	 edx
  000a3	68 00 00 00 00	 push	 OFFSET ??_C@_0N@PEJKECFM@ARDOPSession?$AA@
  000a8	68 00 00 00 00	 push	 OFFSET ??_C@_0BE@BFFMEJMM@?$CFs_?$CF04d?$CF02d?$CF02d?4log?$AA@
  000ad	8d 85 70 d8 ff
	ff		 lea	 eax, DWORD PTR _Value$[ebp]
  000b3	50		 push	 eax
  000b4	e8 00 00 00 00	 call	 _sprintf
  000b9	83 c4 18	 add	 esp, 24			; 00000018H

; 551  : 
; 552  : 		if ((statslogfile = fopen(Value, "ab")) == NULL)

  000bc	68 00 00 00 00	 push	 OFFSET ??_C@_02BOGAIONP@ab?$AA@
  000c1	8d 85 70 d8 ff
	ff		 lea	 eax, DWORD PTR _Value$[ebp]
  000c7	50		 push	 eax
  000c8	e8 00 00 00 00	 call	 _fopen
  000cd	83 c4 08	 add	 esp, 8
  000d0	a3 00 00 00 00	 mov	 DWORD PTR _statslogfile, eax
  000d5	83 3d 00 00 00
	00 00		 cmp	 DWORD PTR _statslogfile, 0
  000dc	75 04		 jne	 SHORT $LN2@Statsprint

; 553  : 			return;

  000de	eb 6f		 jmp	 SHORT $LN4@Statsprint

; 554  : 		else

  000e0	eb 49		 jmp	 SHORT $LN3@Statsprint
$LN2@Statsprint:

; 555  : 		{
; 556  : 			sprintf(timebuf, "%02d:%02d:%02d.%03d\r\n",
; 557  : 				st.wHour, st.wMinute, st.wSecond, st.wMilliseconds);

  000e2	0f b7 85 3e d8
	ff ff		 movzx	 eax, WORD PTR _st$[ebp+14]
  000e9	50		 push	 eax
  000ea	0f b7 8d 3c d8
	ff ff		 movzx	 ecx, WORD PTR _st$[ebp+12]
  000f1	51		 push	 ecx
  000f2	0f b7 95 3a d8
	ff ff		 movzx	 edx, WORD PTR _st$[ebp+10]
  000f9	52		 push	 edx
  000fa	0f b7 85 38 d8
	ff ff		 movzx	 eax, WORD PTR _st$[ebp+8]
  00101	50		 push	 eax
  00102	68 00 00 00 00	 push	 OFFSET ??_C@_0BG@GMHPPKGN@?$CF02d?3?$CF02d?3?$CF02d?4?$CF03d?$AN?6?$AA@
  00107	8d 8d 48 d8 ff
	ff		 lea	 ecx, DWORD PTR _timebuf$[ebp]
  0010d	51		 push	 ecx
  0010e	e8 00 00 00 00	 call	 _sprintf
  00113	83 c4 18	 add	 esp, 24			; 00000018H

; 558  : 			fputs(timebuf, statslogfile);

  00116	a1 00 00 00 00	 mov	 eax, DWORD PTR _statslogfile
  0011b	50		 push	 eax
  0011c	8d 8d 48 d8 ff
	ff		 lea	 ecx, DWORD PTR _timebuf$[ebp]
  00122	51		 push	 ecx
  00123	e8 00 00 00 00	 call	 _fputs
  00128	83 c4 08	 add	 esp, 8
$LN3@Statsprint:

; 559  : 		}
; 560  : 	}
; 561  : 
; 562  : 	fputs(Mess, statslogfile);

  0012b	a1 00 00 00 00	 mov	 eax, DWORD PTR _statslogfile
  00130	50		 push	 eax
  00131	8d 8d e8 d8 ff
	ff		 lea	 ecx, DWORD PTR _Mess$[ebp]
  00137	51		 push	 ecx
  00138	e8 00 00 00 00	 call	 _fputs
  0013d	83 c4 08	 add	 esp, 8

; 563  : 	printf(Mess);

  00140	8d 85 e8 d8 ff
	ff		 lea	 eax, DWORD PTR _Mess$[ebp]
  00146	50		 push	 eax
  00147	e8 00 00 00 00	 call	 _printf
  0014c	83 c4 04	 add	 esp, 4
$LN4@Statsprint:

; 564  : 
; 565  : 	return;
; 566  : }

  0014f	52		 push	 edx
  00150	8b cd		 mov	 ecx, ebp
  00152	50		 push	 eax
  00153	8d 15 00 00 00
	00		 lea	 edx, DWORD PTR $LN11@Statsprint
  00159	e8 00 00 00 00	 call	 @_RTC_CheckStackVars@8
  0015e	58		 pop	 eax
  0015f	5a		 pop	 edx
  00160	5f		 pop	 edi
  00161	5e		 pop	 esi
  00162	5b		 pop	 ebx
  00163	8b 4d fc	 mov	 ecx, DWORD PTR __$ArrayPad$[ebp]
  00166	33 cd		 xor	 ecx, ebp
  00168	e8 00 00 00 00	 call	 @__security_check_cookie@4
  0016d	81 c4 94 28 00
	00		 add	 esp, 10388		; 00002894H
  00173	3b ec		 cmp	 ebp, esp
  00175	e8 00 00 00 00	 call	 __RTC_CheckEsp
  0017a	8b e5		 mov	 esp, ebp
  0017c	5d		 pop	 ebp
  0017d	c3		 ret	 0
  0017e	8b ff		 npad	 2
$LN11@Statsprint:
  00180	04 00 00 00	 DD	 4
  00184	00 00 00 00	 DD	 $LN10@Statsprint
$LN10@Statsprint:
  00188	e8 d8 ff ff	 DD	 -10008			; ffffd8e8H
  0018c	10 27 00 00	 DD	 10000			; 00002710H
  00190	00 00 00 00	 DD	 $LN6@Statsprint
  00194	70 d8 ff ff	 DD	 -10128			; ffffd870H
  00198	64 00 00 00	 DD	 100			; 00000064H
  0019c	00 00 00 00	 DD	 $LN7@Statsprint
  001a0	48 d8 ff ff	 DD	 -10168			; ffffd848H
  001a4	20 00 00 00	 DD	 32			; 00000020H
  001a8	00 00 00 00	 DD	 $LN8@Statsprint
  001ac	30 d8 ff ff	 DD	 -10192			; ffffd830H
  001b0	10 00 00 00	 DD	 16			; 00000010H
  001b4	00 00 00 00	 DD	 $LN9@Statsprint
$LN9@Statsprint:
  001b8	73		 DB	 115			; 00000073H
  001b9	74		 DB	 116			; 00000074H
  001ba	00		 DB	 0
$LN8@Statsprint:
  001bb	74		 DB	 116			; 00000074H
  001bc	69		 DB	 105			; 00000069H
  001bd	6d		 DB	 109			; 0000006dH
  001be	65		 DB	 101			; 00000065H
  001bf	62		 DB	 98			; 00000062H
  001c0	75		 DB	 117			; 00000075H
  001c1	66		 DB	 102			; 00000066H
  001c2	00		 DB	 0
$LN7@Statsprint:
  001c3	56		 DB	 86			; 00000056H
  001c4	61		 DB	 97			; 00000061H
  001c5	6c		 DB	 108			; 0000006cH
  001c6	75		 DB	 117			; 00000075H
  001c7	65		 DB	 101			; 00000065H
  001c8	00		 DB	 0
$LN6@Statsprint:
  001c9	4d		 DB	 77			; 0000004dH
  001ca	65		 DB	 101			; 00000065H
  001cb	73		 DB	 115			; 00000073H
  001cc	73		 DB	 115			; 00000073H
  001cd	00		 DB	 0
_Statsprintf ENDP
_TEXT	ENDS
PUBLIC	_WriteSamples
EXTRN	_fwrite:PROC
; Function compile flags: /Odtp /RTCsu /ZI
;	COMDAT _WriteSamples
_TEXT	SEGMENT
_buffer$ = 8						; size = 4
_len$ = 12						; size = 4
_WriteSamples PROC					; COMDAT

; 569  : {

  00000	55		 push	 ebp
  00001	8b ec		 mov	 ebp, esp
  00003	81 ec c0 00 00
	00		 sub	 esp, 192		; 000000c0H
  00009	53		 push	 ebx
  0000a	56		 push	 esi
  0000b	57		 push	 edi
  0000c	8d bd 40 ff ff
	ff		 lea	 edi, DWORD PTR [ebp-192]
  00012	b9 30 00 00 00	 mov	 ecx, 48			; 00000030H
  00017	b8 cc cc cc cc	 mov	 eax, -858993460		; ccccccccH
  0001c	f3 ab		 rep stosd

; 570  : 	fwrite(buffer, 1, len * 2, wavfp1);

  0001e	a1 00 00 00 00	 mov	 eax, DWORD PTR _wavfp1
  00023	50		 push	 eax
  00024	8b 4d 0c	 mov	 ecx, DWORD PTR _len$[ebp]
  00027	d1 e1		 shl	 ecx, 1
  00029	51		 push	 ecx
  0002a	6a 01		 push	 1
  0002c	8b 55 08	 mov	 edx, DWORD PTR _buffer$[ebp]
  0002f	52		 push	 edx
  00030	e8 00 00 00 00	 call	 _fwrite
  00035	83 c4 10	 add	 esp, 16			; 00000010H

; 571  : }

  00038	5f		 pop	 edi
  00039	5e		 pop	 esi
  0003a	5b		 pop	 ebx
  0003b	81 c4 c0 00 00
	00		 add	 esp, 192		; 000000c0H
  00041	3b ec		 cmp	 ebp, esp
  00043	e8 00 00 00 00	 call	 __RTC_CheckEsp
  00048	8b e5		 mov	 esp, ebp
  0004a	5d		 pop	 ebp
  0004b	c3		 ret	 0
_WriteSamples ENDP
_TEXT	ENDS
PUBLIC	_SoundInit
; Function compile flags: /Odtp /RTCsu /ZI
;	COMDAT _SoundInit
_TEXT	SEGMENT
_SoundInit PROC						; COMDAT

; 574  : {

  00000	55		 push	 ebp
  00001	8b ec		 mov	 ebp, esp
  00003	81 ec c0 00 00
	00		 sub	 esp, 192		; 000000c0H
  00009	53		 push	 ebx
  0000a	56		 push	 esi
  0000b	57		 push	 edi
  0000c	8d bd 40 ff ff
	ff		 lea	 edi, DWORD PTR [ebp-192]
  00012	b9 30 00 00 00	 mov	 ecx, 48			; 00000030H
  00017	b8 cc cc cc cc	 mov	 eax, -858993460		; ccccccccH
  0001c	f3 ab		 rep stosd

; 575  : 	Index = 0;

  0001e	c7 05 00 00 00
	00 00 00 00 00	 mov	 DWORD PTR _Index, 0

; 576  : 	return &buffer[0][0];

  00028	b8 00 00 00 00	 mov	 eax, OFFSET _buffer

; 577  : }

  0002d	5f		 pop	 edi
  0002e	5e		 pop	 esi
  0002f	5b		 pop	 ebx
  00030	8b e5		 mov	 esp, ebp
  00032	5d		 pop	 ebp
  00033	c3		 ret	 0
_SoundInit ENDP
_TEXT	ENDS
PUBLIC	_KeyPTT
PUBLIC	_SoundFlush
EXTRN	_dttNextPlay:DWORD
EXTRN	_intFrameRepeatInterval:DWORD
EXTRN	_blnDISCRepeating:DWORD
EXTRN	_blnEnbARQRpt:DWORD
EXTRN	_SoundIsPlaying:DWORD
EXTRN	_Number:DWORD
EXTRN	_AddTrailer:PROC
; Function compile flags: /Odtp /RTCsu /ZI
;	COMDAT _SoundFlush
_TEXT	SEGMENT
_SoundFlush PROC					; COMDAT

; 584  : {

  00000	55		 push	 ebp
  00001	8b ec		 mov	 ebp, esp
  00003	81 ec c0 00 00
	00		 sub	 esp, 192		; 000000c0H
  00009	53		 push	 ebx
  0000a	56		 push	 esi
  0000b	57		 push	 edi
  0000c	8d bd 40 ff ff
	ff		 lea	 edi, DWORD PTR [ebp-192]
  00012	b9 30 00 00 00	 mov	 ecx, 48			; 00000030H
  00017	b8 cc cc cc cc	 mov	 eax, -858993460		; ccccccccH
  0001c	f3 ab		 rep stosd

; 585  : 	// Append Trailer then wait for TX to complete
; 586  : 
; 587  : 	AddTrailer();			// add the trailer.

  0001e	e8 00 00 00 00	 call	 _AddTrailer

; 588  : 
; 589  : 	if (Loopback)

  00023	83 3d 00 00 00
	00 00		 cmp	 DWORD PTR _Loopback, 0
  0002a	74 21		 je	 SHORT $LN7@SoundFlush

; 590  : 		ProcessNewSamples(buffer[Index], Number);

  0002c	a1 00 00 00 00	 mov	 eax, DWORD PTR _Number
  00031	50		 push	 eax
  00032	8b 0d 00 00 00
	00		 mov	 ecx, DWORD PTR _Index
  00038	69 c9 60 09 00
	00		 imul	 ecx, 2400		; 00000960H
  0003e	81 c1 00 00 00
	00		 add	 ecx, OFFSET _buffer
  00044	51		 push	 ecx
  00045	e8 00 00 00 00	 call	 _ProcessNewSamples
  0004a	83 c4 08	 add	 esp, 8
$LN7@SoundFlush:

; 591  : 
; 592  : 	SendtoCard(buffer[Index], Number);

  0004d	a1 00 00 00 00	 mov	 eax, DWORD PTR _Number
  00052	50		 push	 eax
  00053	8b 0d 00 00 00
	00		 mov	 ecx, DWORD PTR _Index
  00059	69 c9 60 09 00
	00		 imul	 ecx, 2400		; 00000960H
  0005f	81 c1 00 00 00
	00		 add	 ecx, OFFSET _buffer
  00065	51		 push	 ecx
  00066	e8 00 00 00 00	 call	 _SendtoCard
  0006b	83 c4 08	 add	 esp, 8
$LN6@SoundFlush:

; 593  : 
; 594  : 	//	Wait for all sound output to complete
; 595  : 	
; 596  : 	while (!(header[0].dwFlags & WHDR_DONE))

  0006e	a1 10 00 00 00	 mov	 eax, DWORD PTR _header+16
  00073	83 e0 01	 and	 eax, 1
  00076	75 0c		 jne	 SHORT $LN4@SoundFlush

; 597  : 		txSleep(10);

  00078	6a 0a		 push	 10			; 0000000aH
  0007a	e8 00 00 00 00	 call	 _txSleep
  0007f	83 c4 04	 add	 esp, 4
  00082	eb ea		 jmp	 SHORT $LN6@SoundFlush
$LN4@SoundFlush:

; 598  : 	while (!(header[1].dwFlags & WHDR_DONE))

  00084	a1 30 00 00 00	 mov	 eax, DWORD PTR _header+48
  00089	83 e0 01	 and	 eax, 1
  0008c	75 0c		 jne	 SHORT $LN3@SoundFlush

; 599  : 		txSleep(10);

  0008e	6a 0a		 push	 10			; 0000000aH
  00090	e8 00 00 00 00	 call	 _txSleep
  00095	83 c4 04	 add	 esp, 4
  00098	eb ea		 jmp	 SHORT $LN4@SoundFlush
$LN3@SoundFlush:

; 600  : 
; 601  : 	// I think we should turn round the link here. I dont see the point in
; 602  : 	// waiting for MainPoll
; 603  : 
; 604  : 	SoundIsPlaying = FALSE;

  0009a	c7 05 00 00 00
	00 00 00 00 00	 mov	 DWORD PTR _SoundIsPlaying, 0

; 605  : 
; 606  : 	//'Debug.WriteLine("[tmrPoll.Tick] Play stop. Length = " & Format(Now.Subtract(dttTestStart).TotalMilliseconds, "#") & " ms")
; 607  :           
; 608  : //		WriteDebugLog(LOGDEBUG, "Play complete blnEnbARQRpt = %d", blnEnbARQRpt);
; 609  : 
; 610  : 	if (blnEnbARQRpt > 0 || blnDISCRepeating)	// Start Repeat Timer if frame should be repeated

  000a4	83 3d 00 00 00
	00 00		 cmp	 DWORD PTR _blnEnbARQRpt, 0
  000ab	7f 09		 jg	 SHORT $LN1@SoundFlush
  000ad	83 3d 00 00 00
	00 00		 cmp	 DWORD PTR _blnDISCRepeating, 0
  000b4	74 10		 je	 SHORT $LN2@SoundFlush
$LN1@SoundFlush:

; 611  : 		dttNextPlay = Now + intFrameRepeatInterval;

  000b6	e8 00 00 00 00	 call	 _getTicks
  000bb	03 05 00 00 00
	00		 add	 eax, DWORD PTR _intFrameRepeatInterval
  000c1	a3 00 00 00 00	 mov	 DWORD PTR _dttNextPlay, eax
$LN2@SoundFlush:

; 612  : 
; 613  : //	WriteDebugLog(LOGDEBUG, "Now %d Now - dttNextPlay 1  = %d", Now, Now - dttNextPlay);
; 614  : 
; 615  : 	KeyPTT(FALSE);		 // Unkey the Transmitter

  000c6	6a 00		 push	 0
  000c8	e8 00 00 00 00	 call	 _KeyPTT
  000cd	83 c4 04	 add	 esp, 4

; 616  : 
; 617  : 	// Clear the capture buffers. I think this is only  needed when testing
; 618  : 	// with audio loopback.
; 619  : 
; 620  : //	memset(&buffer[0], 0, 2400);
; 621  : //	memset(&buffer[1], 0, 2400);
; 622  : 
; 623  : 	StartCapture();

  000d0	e8 00 00 00 00	 call	 _StartCapture

; 624  : 
; 625  : 		//' clear the transmit label 
; 626  :         //        stcStatus.BackColor = SystemColors.Control
; 627  :         //        stcStatus.ControlName = "lblXmtFrame" ' clear the transmit label
; 628  :         //        queTNCStatus.Enqueue(stcStatus)
; 629  :         //        stcStatus.ControlName = "lblRcvFrame" ' clear the Receive label
; 630  :         //        queTNCStatus.Enqueue(stcStatus)
; 631  :           
; 632  : 
; 633  : 	return;
; 634  : }

  000d5	5f		 pop	 edi
  000d6	5e		 pop	 esi
  000d7	5b		 pop	 ebx
  000d8	81 c4 c0 00 00
	00		 add	 esp, 192		; 000000c0H
  000de	3b ec		 cmp	 ebp, esp
  000e0	e8 00 00 00 00	 call	 __RTC_CheckEsp
  000e5	8b e5		 mov	 esp, ebp
  000e7	5d		 pop	 ebp
  000e8	c3		 ret	 0
_SoundFlush ENDP
_TEXT	ENDS
PUBLIC	_StartCodec
; Function compile flags: /Odtp /RTCsu /ZI
;	COMDAT _StartCodec
_TEXT	SEGMENT
_strFault$ = 8						; size = 4
_StartCodec PROC					; COMDAT

; 638  : {

  00000	55		 push	 ebp
  00001	8b ec		 mov	 ebp, esp
  00003	81 ec c0 00 00
	00		 sub	 esp, 192		; 000000c0H
  00009	53		 push	 ebx
  0000a	56		 push	 esi
  0000b	57		 push	 edi
  0000c	8d bd 40 ff ff
	ff		 lea	 edi, DWORD PTR [ebp-192]
  00012	b9 30 00 00 00	 mov	 ecx, 48			; 00000030H
  00017	b8 cc cc cc cc	 mov	 eax, -858993460		; ccccccccH
  0001c	f3 ab		 rep stosd

; 639  : 	strFault[0] = 0;

  0001e	8b 45 08	 mov	 eax, DWORD PTR _strFault$[ebp]
  00021	c6 00 00	 mov	 BYTE PTR [eax], 0

; 640  : 	InitSound(FALSE);

  00024	6a 00		 push	 0
  00026	e8 00 00 00 00	 call	 _InitSound
  0002b	83 c4 04	 add	 esp, 4

; 641  : 
; 642  : }

  0002e	5f		 pop	 edi
  0002f	5e		 pop	 esi
  00030	5b		 pop	 ebx
  00031	81 c4 c0 00 00
	00		 add	 esp, 192		; 000000c0H
  00037	3b ec		 cmp	 ebp, esp
  00039	e8 00 00 00 00	 call	 __RTC_CheckEsp
  0003e	8b e5		 mov	 esp, ebp
  00040	5d		 pop	 ebp
  00041	c3		 ret	 0
_StartCodec ENDP
_TEXT	ENDS
PUBLIC	_StopCodec
; Function compile flags: /Odtp /RTCsu /ZI
;	COMDAT _StopCodec
_TEXT	SEGMENT
_strFault$ = 8						; size = 4
_StopCodec PROC						; COMDAT

; 645  : {

  00000	55		 push	 ebp
  00001	8b ec		 mov	 ebp, esp
  00003	81 ec c0 00 00
	00		 sub	 esp, 192		; 000000c0H
  00009	53		 push	 ebx
  0000a	56		 push	 esi
  0000b	57		 push	 edi
  0000c	8d bd 40 ff ff
	ff		 lea	 edi, DWORD PTR [ebp-192]
  00012	b9 30 00 00 00	 mov	 ecx, 48			; 00000030H
  00017	b8 cc cc cc cc	 mov	 eax, -858993460		; ccccccccH
  0001c	f3 ab		 rep stosd

; 646  : 	CloseSound();

  0001e	e8 00 00 00 00	 call	 _CloseSound

; 647  : 	strFault[0] = 0;

  00023	8b 45 08	 mov	 eax, DWORD PTR _strFault$[ebp]
  00026	c6 00 00	 mov	 BYTE PTR [eax], 0

; 648  : }

  00029	5f		 pop	 edi
  0002a	5e		 pop	 esi
  0002b	5b		 pop	 ebx
  0002c	81 c4 c0 00 00
	00		 add	 esp, 192		; 000000c0H
  00032	3b ec		 cmp	 ebp, esp
  00034	e8 00 00 00 00	 call	 __RTC_CheckEsp
  00039	8b e5		 mov	 esp, ebp
  0003b	5d		 pop	 ebp
  0003c	c3		 ret	 0
_StopCodec ENDP
_TEXT	ENDS
PUBLIC	_COMSetDTR
PUBLIC	_COMSetRTS
PUBLIC	_RadioPTT
; Function compile flags: /Odtp /RTCsu /ZI
;	COMDAT _RadioPTT
_TEXT	SEGMENT
_PTTState$ = 8						; size = 4
_RadioPTT PROC						; COMDAT

; 651  : {

  00000	55		 push	 ebp
  00001	8b ec		 mov	 ebp, esp
  00003	81 ec c0 00 00
	00		 sub	 esp, 192		; 000000c0H
  00009	53		 push	 ebx
  0000a	56		 push	 esi
  0000b	57		 push	 edi
  0000c	8d bd 40 ff ff
	ff		 lea	 edi, DWORD PTR [ebp-192]
  00012	b9 30 00 00 00	 mov	 ecx, 48			; 00000030H
  00017	b8 cc cc cc cc	 mov	 eax, -858993460		; ccccccccH
  0001c	f3 ab		 rep stosd

; 652  : 	if (PTTMode & PTTRTS)

  0001e	a1 00 00 00 00	 mov	 eax, DWORD PTR _PTTMode
  00023	83 e0 01	 and	 eax, 1
  00026	74 24		 je	 SHORT $LN6@RadioPTT

; 653  : 		if (PTTState)

  00028	83 7d 08 00	 cmp	 DWORD PTR _PTTState$[ebp], 0
  0002c	74 10		 je	 SHORT $LN5@RadioPTT

; 654  : 			COMSetRTS(hPTTDevice);

  0002e	a1 00 00 00 00	 mov	 eax, DWORD PTR _hPTTDevice
  00033	50		 push	 eax
  00034	e8 00 00 00 00	 call	 _COMSetRTS
  00039	83 c4 04	 add	 esp, 4

; 655  : 		else

  0003c	eb 0e		 jmp	 SHORT $LN6@RadioPTT
$LN5@RadioPTT:

; 656  : 			COMClearRTS(hPTTDevice);

  0003e	a1 00 00 00 00	 mov	 eax, DWORD PTR _hPTTDevice
  00043	50		 push	 eax
  00044	e8 00 00 00 00	 call	 _COMClearRTS
  00049	83 c4 04	 add	 esp, 4
$LN6@RadioPTT:

; 657  : 
; 658  : 	if (PTTMode & PTTDTR)

  0004c	a1 00 00 00 00	 mov	 eax, DWORD PTR _PTTMode
  00051	83 e0 02	 and	 eax, 2
  00054	74 24		 je	 SHORT $LN7@RadioPTT

; 659  : 		if (PTTState)

  00056	83 7d 08 00	 cmp	 DWORD PTR _PTTState$[ebp], 0
  0005a	74 10		 je	 SHORT $LN2@RadioPTT

; 660  : 			COMSetDTR(hPTTDevice);

  0005c	a1 00 00 00 00	 mov	 eax, DWORD PTR _hPTTDevice
  00061	50		 push	 eax
  00062	e8 00 00 00 00	 call	 _COMSetDTR
  00067	83 c4 04	 add	 esp, 4

; 661  : 		else

  0006a	eb 0e		 jmp	 SHORT $LN7@RadioPTT
$LN2@RadioPTT:

; 662  : 			COMClearDTR(hPTTDevice);

  0006c	a1 00 00 00 00	 mov	 eax, DWORD PTR _hPTTDevice
  00071	50		 push	 eax
  00072	e8 00 00 00 00	 call	 _COMClearDTR
  00077	83 c4 04	 add	 esp, 4
$LN7@RadioPTT:

; 663  : }

  0007a	5f		 pop	 edi
  0007b	5e		 pop	 esi
  0007c	5b		 pop	 ebx
  0007d	81 c4 c0 00 00
	00		 add	 esp, 192		; 000000c0H
  00083	3b ec		 cmp	 ebp, esp
  00085	e8 00 00 00 00	 call	 __RTC_CheckEsp
  0008a	8b e5		 mov	 esp, ebp
  0008c	5d		 pop	 ebp
  0008d	c3		 ret	 0
_RadioPTT ENDP
_TEXT	ENDS
PUBLIC	??_C@_0BG@BPOENPHH@?$FLMain?4KeyPTT?$FN?5?5PTT?9?$CFs?$AA@ ; `string'
PUBLIC	??_C@_09BKKKJBLP@PTT?5FALSE?$AA@		; `string'
PUBLIC	??_C@_08CBBAGGLA@PTT?5TRUE?$AA@			; `string'
EXTRN	_SendCommandToHostQuiet:PROC
EXTRN	_dttStartRTMeasure:DWORD
EXTRN	_blnLastPTT:DWORD
;	COMDAT ??_C@_0BG@BPOENPHH@?$FLMain?4KeyPTT?$FN?5?5PTT?9?$CFs?$AA@
CONST	SEGMENT
??_C@_0BG@BPOENPHH@?$FLMain?4KeyPTT?$FN?5?5PTT?9?$CFs?$AA@ DB '[Main.KeyP'
	DB	'TT]  PTT-%s', 00H				; `string'
CONST	ENDS
;	COMDAT ??_C@_09BKKKJBLP@PTT?5FALSE?$AA@
CONST	SEGMENT
??_C@_09BKKKJBLP@PTT?5FALSE?$AA@ DB 'PTT FALSE', 00H	; `string'
CONST	ENDS
;	COMDAT ??_C@_08CBBAGGLA@PTT?5TRUE?$AA@
CONST	SEGMENT
??_C@_08CBBAGGLA@PTT?5TRUE?$AA@ DB 'PTT TRUE', 00H	; `string'
; Function compile flags: /Odtp /RTCsu /ZI
CONST	ENDS
;	COMDAT _KeyPTT
_TEXT	SEGMENT
_blnPTT$ = 8						; size = 4
_KeyPTT	PROC						; COMDAT

; 670  : {

  00000	55		 push	 ebp
  00001	8b ec		 mov	 ebp, esp
  00003	81 ec c0 00 00
	00		 sub	 esp, 192		; 000000c0H
  00009	53		 push	 ebx
  0000a	56		 push	 esi
  0000b	57		 push	 edi
  0000c	8d bd 40 ff ff
	ff		 lea	 edi, DWORD PTR [ebp-192]
  00012	b9 30 00 00 00	 mov	 ecx, 48			; 00000030H
  00017	b8 cc cc cc cc	 mov	 eax, -858993460		; ccccccccH
  0001c	f3 ab		 rep stosd

; 671  : 	// Returns TRUE if successful False otherwise
; 672  : 
; 673  : 	if (blnLastPTT &&  !blnPTT)

  0001e	83 3d 00 00 00
	00 00		 cmp	 DWORD PTR _blnLastPTT, 0
  00025	74 10		 je	 SHORT $LN5@KeyPTT
  00027	83 7d 08 00	 cmp	 DWORD PTR _blnPTT$[ebp], 0
  0002b	75 0a		 jne	 SHORT $LN5@KeyPTT

; 674  : 		dttStartRTMeasure = Now;	 // start a measurement on release of PTT.

  0002d	e8 00 00 00 00	 call	 _getTicks
  00032	a3 00 00 00 00	 mov	 DWORD PTR _dttStartRTMeasure, eax
$LN5@KeyPTT:

; 675  : 
; 676  : 	if (!RadioControl)

  00037	83 3d 00 00 00
	00 00		 cmp	 DWORD PTR _RadioControl, 0
  0003e	75 24		 jne	 SHORT $LN4@KeyPTT

; 677  : 		if (blnPTT)

  00040	83 7d 08 00	 cmp	 DWORD PTR _blnPTT$[ebp], 0
  00044	74 0f		 je	 SHORT $LN3@KeyPTT

; 678  : 			SendCommandToHostQuiet("PTT TRUE");

  00046	68 00 00 00 00	 push	 OFFSET ??_C@_08CBBAGGLA@PTT?5TRUE?$AA@
  0004b	e8 00 00 00 00	 call	 _SendCommandToHostQuiet
  00050	83 c4 04	 add	 esp, 4

; 679  : 		else

  00053	eb 0d		 jmp	 SHORT $LN2@KeyPTT
$LN3@KeyPTT:

; 680  : 			SendCommandToHostQuiet("PTT FALSE");

  00055	68 00 00 00 00	 push	 OFFSET ??_C@_09BKKKJBLP@PTT?5FALSE?$AA@
  0005a	e8 00 00 00 00	 call	 _SendCommandToHostQuiet
  0005f	83 c4 04	 add	 esp, 4
$LN2@KeyPTT:

; 681  : 
; 682  : 	else

  00062	eb 0c		 jmp	 SHORT $LN1@KeyPTT
$LN4@KeyPTT:

; 683  : 		RadioPTT(blnPTT);

  00064	8b 45 08	 mov	 eax, DWORD PTR _blnPTT$[ebp]
  00067	50		 push	 eax
  00068	e8 00 00 00 00	 call	 _RadioPTT
  0006d	83 c4 04	 add	 esp, 4
$LN1@KeyPTT:

; 684  : 
; 685  : 	WriteDebugLog(LOGDEBUG, "[Main.KeyPTT]  PTT-%s", BoolString[blnPTT]);

  00070	8b 45 08	 mov	 eax, DWORD PTR _blnPTT$[ebp]
  00073	6b c0 06	 imul	 eax, 6
  00076	05 00 00 00 00	 add	 eax, OFFSET _BoolString
  0007b	50		 push	 eax
  0007c	68 00 00 00 00	 push	 OFFSET ??_C@_0BG@BPOENPHH@?$FLMain?4KeyPTT?$FN?5?5PTT?9?$CFs?$AA@
  00081	6a 07		 push	 7
  00083	e8 00 00 00 00	 call	 _WriteDebugLog
  00088	83 c4 0c	 add	 esp, 12			; 0000000cH

; 686  : 
; 687  : 	blnLastPTT = blnPTT;

  0008b	8b 45 08	 mov	 eax, DWORD PTR _blnPTT$[ebp]
  0008e	a3 00 00 00 00	 mov	 DWORD PTR _blnLastPTT, eax

; 688  : 	return TRUE;

  00093	b8 01 00 00 00	 mov	 eax, 1

; 689  : }

  00098	5f		 pop	 edi
  00099	5e		 pop	 esi
  0009a	5b		 pop	 ebx
  0009b	81 c4 c0 00 00
	00		 add	 esp, 192		; 000000c0H
  000a1	3b ec		 cmp	 ebp, esp
  000a3	e8 00 00 00 00	 call	 __RTC_CheckEsp
  000a8	8b e5		 mov	 esp, ebp
  000aa	5d		 pop	 ebp
  000ab	c3		 ret	 0
_KeyPTT	ENDP
_TEXT	ENDS
PUBLIC	_PlatformSleep
; Function compile flags: /Odtp /RTCsu /ZI
;	COMDAT _PlatformSleep
_TEXT	SEGMENT
_PlatformSleep PROC					; COMDAT

; 692  : {

  00000	55		 push	 ebp
  00001	8b ec		 mov	 ebp, esp
  00003	81 ec c0 00 00
	00		 sub	 esp, 192		; 000000c0H
  00009	53		 push	 ebx
  0000a	56		 push	 esi
  0000b	57		 push	 edi
  0000c	8d bd 40 ff ff
	ff		 lea	 edi, DWORD PTR [ebp-192]
  00012	b9 30 00 00 00	 mov	 ecx, 48			; 00000030H
  00017	b8 cc cc cc cc	 mov	 eax, -858993460		; ccccccccH
  0001c	f3 ab		 rep stosd

; 693  : 	//	Sleep to avoid using all cpu
; 694  : 
; 695  : 	Sleep(10);

  0001e	8b f4		 mov	 esi, esp
  00020	6a 0a		 push	 10			; 0000000aH
  00022	ff 15 00 00 00
	00		 call	 DWORD PTR __imp__Sleep@4
  00028	3b f4		 cmp	 esi, esp
  0002a	e8 00 00 00 00	 call	 __RTC_CheckEsp

; 696  : }

  0002f	5f		 pop	 edi
  00030	5e		 pop	 esi
  00031	5b		 pop	 ebx
  00032	81 c4 c0 00 00
	00		 add	 esp, 192		; 000000c0H
  00038	3b ec		 cmp	 ebp, esp
  0003a	e8 00 00 00 00	 call	 __RTC_CheckEsp
  0003f	8b e5		 mov	 esp, ebp
  00041	5d		 pop	 ebp
  00042	c3		 ret	 0
_PlatformSleep ENDP
_TEXT	ENDS
PUBLIC	_displayState
; Function compile flags: /Odtp /RTCsu /ZI
;	COMDAT _displayState
_TEXT	SEGMENT
_State$ = 8						; size = 4
_displayState PROC					; COMDAT

; 699  : {

  00000	55		 push	 ebp
  00001	8b ec		 mov	 ebp, esp
  00003	81 ec c0 00 00
	00		 sub	 esp, 192		; 000000c0H
  00009	53		 push	 ebx
  0000a	56		 push	 esi
  0000b	57		 push	 edi
  0000c	8d bd 40 ff ff
	ff		 lea	 edi, DWORD PTR [ebp-192]
  00012	b9 30 00 00 00	 mov	 ecx, 48			; 00000030H
  00017	b8 cc cc cc cc	 mov	 eax, -858993460		; ccccccccH
  0001c	f3 ab		 rep stosd

; 700  : 	// Dummy for i2c display
; 701  : }

  0001e	5f		 pop	 edi
  0001f	5e		 pop	 esi
  00020	5b		 pop	 ebx
  00021	8b e5		 mov	 esp, ebp
  00023	5d		 pop	 ebp
  00024	c3		 ret	 0
_displayState ENDP
_TEXT	ENDS
PUBLIC	_SetLED
; Function compile flags: /Odtp /RTCsu /ZI
;	COMDAT _SetLED
_TEXT	SEGMENT
_LED$ = 8						; size = 4
_State$ = 12						; size = 4
_SetLED	PROC						; COMDAT

; 704  : {

  00000	55		 push	 ebp
  00001	8b ec		 mov	 ebp, esp
  00003	81 ec c0 00 00
	00		 sub	 esp, 192		; 000000c0H
  00009	53		 push	 ebx
  0000a	56		 push	 esi
  0000b	57		 push	 edi
  0000c	8d bd 40 ff ff
	ff		 lea	 edi, DWORD PTR [ebp-192]
  00012	b9 30 00 00 00	 mov	 ecx, 48			; 00000030H
  00017	b8 cc cc cc cc	 mov	 eax, -858993460		; ccccccccH
  0001c	f3 ab		 rep stosd

; 705  : }

  0001e	5f		 pop	 edi
  0001f	5e		 pop	 esi
  00020	5b		 pop	 ebx
  00021	8b e5		 mov	 esp, ebp
  00023	5d		 pop	 ebp
  00024	c3		 ret	 0
_SetLED	ENDP
_TEXT	ENDS
PUBLIC	_displayCall
; Function compile flags: /Odtp /RTCsu /ZI
;	COMDAT _displayCall
_TEXT	SEGMENT
_dirn$ = 8						; size = 4
_call$ = 12						; size = 4
_displayCall PROC					; COMDAT

; 708  : {

  00000	55		 push	 ebp
  00001	8b ec		 mov	 ebp, esp
  00003	81 ec c0 00 00
	00		 sub	 esp, 192		; 000000c0H
  00009	53		 push	 ebx
  0000a	56		 push	 esi
  0000b	57		 push	 edi
  0000c	8d bd 40 ff ff
	ff		 lea	 edi, DWORD PTR [ebp-192]
  00012	b9 30 00 00 00	 mov	 ecx, 48			; 00000030H
  00017	b8 cc cc cc cc	 mov	 eax, -858993460		; ccccccccH
  0001c	f3 ab		 rep stosd

; 709  : 	// Dummy for i2c display
; 710  : }

  0001e	5f		 pop	 edi
  0001f	5e		 pop	 esi
  00020	5b		 pop	 ebx
  00021	8b e5		 mov	 esp, ebp
  00023	5d		 pop	 ebp
  00024	c3		 ret	 0
_displayCall ENDP
_TEXT	ENDS
PUBLIC	??_C@_0BE@OMPOGOHP@?$CFs?5Setup?5Failed?5?$CFd?5?$AA@ ; `string'
PUBLIC	??_C@_0BH@PBDMLJNP@COM?$CFd?5Setup?5Failed?5?$CFd?5?$AA@ ; `string'
PUBLIC	??_C@_0BM@LCAFCKLE@?5?$CFs?5could?5not?5be?5opened?5?$AN?6?5?$AA@ ; `string'
PUBLIC	??_C@_0BP@JAHOJCK@?5COM?$CFd?5could?5not?5be?5opened?5?$AN?6?5?$AA@ ; `string'
PUBLIC	??_C@_03GJALCMIF@COM?$AA@			; `string'
PUBLIC	??_C@_09CGLEKNJI@?2?2?4?2COM?$CFd?$AA@		; `string'
PUBLIC	__$ArrayPad$
EXTRN	__imp__CloseHandle@4:PROC
EXTRN	__imp__EscapeCommFunction@8:PROC
EXTRN	__imp__SetCommState@8:PROC
EXTRN	__imp__GetCommState@8:PROC
EXTRN	__imp__SetCommTimeouts@8:PROC
EXTRN	__imp__PurgeComm@8:PROC
EXTRN	__imp__SetupComm@12:PROC
EXTRN	__imp__GetFileType@4:PROC
EXTRN	__imp__OutputDebugStringA@4:PROC
EXTRN	__imp__CreateFileA@28:PROC
EXTRN	__memicmp:PROC
;	COMDAT ??_C@_0BE@OMPOGOHP@?$CFs?5Setup?5Failed?5?$CFd?5?$AA@
CONST	SEGMENT
??_C@_0BE@OMPOGOHP@?$CFs?5Setup?5Failed?5?$CFd?5?$AA@ DB '%s Setup Failed'
	DB	' %d ', 00H					; `string'
CONST	ENDS
;	COMDAT ??_C@_0BH@PBDMLJNP@COM?$CFd?5Setup?5Failed?5?$CFd?5?$AA@
CONST	SEGMENT
??_C@_0BH@PBDMLJNP@COM?$CFd?5Setup?5Failed?5?$CFd?5?$AA@ DB 'COM%d Setup '
	DB	'Failed %d ', 00H				; `string'
CONST	ENDS
;	COMDAT ??_C@_0BM@LCAFCKLE@?5?$CFs?5could?5not?5be?5opened?5?$AN?6?5?$AA@
CONST	SEGMENT
??_C@_0BM@LCAFCKLE@?5?$CFs?5could?5not?5be?5opened?5?$AN?6?5?$AA@ DB ' %s'
	DB	' could not be opened ', 0dH, 0aH, ' ', 00H	; `string'
CONST	ENDS
;	COMDAT ??_C@_0BP@JAHOJCK@?5COM?$CFd?5could?5not?5be?5opened?5?$AN?6?5?$AA@
CONST	SEGMENT
??_C@_0BP@JAHOJCK@?5COM?$CFd?5could?5not?5be?5opened?5?$AN?6?5?$AA@ DB ' '
	DB	'COM%d could not be opened ', 0dH, 0aH, ' ', 00H ; `string'
CONST	ENDS
;	COMDAT ??_C@_03GJALCMIF@COM?$AA@
CONST	SEGMENT
??_C@_03GJALCMIF@COM?$AA@ DB 'COM', 00H			; `string'
CONST	ENDS
;	COMDAT ??_C@_09CGLEKNJI@?2?2?4?2COM?$CFd?$AA@
CONST	SEGMENT
??_C@_09CGLEKNJI@?2?2?4?2COM?$CFd?$AA@ DB '\\.\COM%d', 00H ; `string'
; Function compile flags: /Odtp /RTCsu /ZI
CONST	ENDS
;	COMDAT _OpenCOMPort
_TEXT	SEGMENT
_p$28691 = -320						; size = 4
_pp$28689 = -308					; size = 4
_dcb$ = -296						; size = 28
_fd$ = -260						; size = 4
_buf$ = -248						; size = 100
_Err$ = -140						; size = 4
_CommTimeOuts$ = -128					; size = 20
_fRetVal$ = -100					; size = 4
_szPort$ = -88						; size = 80
__$ArrayPad$ = -4					; size = 4
_pPort$ = 8						; size = 4
_speed$ = 12						; size = 4
_SetDTR$ = 16						; size = 4
_SetRTS$ = 20						; size = 4
_Quiet$ = 24						; size = 4
_Stopbits$ = 28						; size = 4
_OpenCOMPort PROC					; COMDAT

; 713  : {

  00000	55		 push	 ebp
  00001	8b ec		 mov	 ebp, esp
  00003	81 ec 04 02 00
	00		 sub	 esp, 516		; 00000204H
  00009	53		 push	 ebx
  0000a	56		 push	 esi
  0000b	57		 push	 edi
  0000c	8d bd fc fd ff
	ff		 lea	 edi, DWORD PTR [ebp-516]
  00012	b9 81 00 00 00	 mov	 ecx, 129		; 00000081H
  00017	b8 cc cc cc cc	 mov	 eax, -858993460		; ccccccccH
  0001c	f3 ab		 rep stosd
  0001e	a1 00 00 00 00	 mov	 eax, DWORD PTR ___security_cookie
  00023	33 c5		 xor	 eax, ebp
  00025	89 45 fc	 mov	 DWORD PTR __$ArrayPad$[ebp], eax

; 714  : 	char szPort[80];
; 715  : 	BOOL fRetVal ;
; 716  : 	COMMTIMEOUTS  CommTimeOuts ;
; 717  : 	int	Err;
; 718  : 	char buf[100];
; 719  : 	HANDLE fd;
; 720  : 	DCB dcb;
; 721  : 
; 722  : 	// if Port Name starts COM, convert to \\.\COM or ports above 10 wont work
; 723  : 
; 724  : 	if ((UINT)pPort < 256)			// just a com port number

  00028	81 7d 08 00 01
	00 00		 cmp	 DWORD PTR _pPort$[ebp], 256 ; 00000100H
  0002f	73 17		 jae	 SHORT $LN14@OpenCOMPor

; 725  : 		sprintf( szPort, "\\\\.\\COM%d", pPort);

  00031	8b 45 08	 mov	 eax, DWORD PTR _pPort$[ebp]
  00034	50		 push	 eax
  00035	68 00 00 00 00	 push	 OFFSET ??_C@_09CGLEKNJI@?2?2?4?2COM?$CFd?$AA@
  0003a	8d 4d a8	 lea	 ecx, DWORD PTR _szPort$[ebp]
  0003d	51		 push	 ecx
  0003e	e8 00 00 00 00	 call	 _sprintf
  00043	83 c4 0c	 add	 esp, 12			; 0000000cH
  00046	eb 62		 jmp	 SHORT $LN13@OpenCOMPor
$LN14@OpenCOMPor:

; 726  : 
; 727  : 	else if (_memicmp(pPort, "COM", 3) == 0)

  00048	6a 03		 push	 3
  0004a	68 00 00 00 00	 push	 OFFSET ??_C@_03GJALCMIF@COM?$AA@
  0004f	8b 45 08	 mov	 eax, DWORD PTR _pPort$[ebp]
  00052	50		 push	 eax
  00053	e8 00 00 00 00	 call	 __memicmp
  00058	83 c4 0c	 add	 esp, 12			; 0000000cH
  0005b	85 c0		 test	 eax, eax
  0005d	75 3b		 jne	 SHORT $LN12@OpenCOMPor

; 728  : 	{
; 729  : 		char * pp = (char *)pPort;

  0005f	8b 45 08	 mov	 eax, DWORD PTR _pPort$[ebp]
  00062	89 85 cc fe ff
	ff		 mov	 DWORD PTR _pp$28689[ebp], eax

; 730  : 		int p = atoi(&pp[3]);

  00068	8b 85 cc fe ff
	ff		 mov	 eax, DWORD PTR _pp$28689[ebp]
  0006e	83 c0 03	 add	 eax, 3
  00071	50		 push	 eax
  00072	e8 00 00 00 00	 call	 _atoi
  00077	83 c4 04	 add	 esp, 4
  0007a	89 85 c0 fe ff
	ff		 mov	 DWORD PTR _p$28691[ebp], eax

; 731  : 		sprintf( szPort, "\\\\.\\COM%d", p);

  00080	8b 85 c0 fe ff
	ff		 mov	 eax, DWORD PTR _p$28691[ebp]
  00086	50		 push	 eax
  00087	68 00 00 00 00	 push	 OFFSET ??_C@_09CGLEKNJI@?2?2?4?2COM?$CFd?$AA@
  0008c	8d 4d a8	 lea	 ecx, DWORD PTR _szPort$[ebp]
  0008f	51		 push	 ecx
  00090	e8 00 00 00 00	 call	 _sprintf
  00095	83 c4 0c	 add	 esp, 12			; 0000000cH

; 732  : 	}
; 733  : 	else

  00098	eb 10		 jmp	 SHORT $LN13@OpenCOMPor
$LN12@OpenCOMPor:

; 734  : 		strcpy(szPort, pPort);

  0009a	8b 45 08	 mov	 eax, DWORD PTR _pPort$[ebp]
  0009d	50		 push	 eax
  0009e	8d 4d a8	 lea	 ecx, DWORD PTR _szPort$[ebp]
  000a1	51		 push	 ecx
  000a2	e8 00 00 00 00	 call	 _strcpy
  000a7	83 c4 08	 add	 esp, 8
$LN13@OpenCOMPor:

; 735  : 
; 736  : 	// open COMM device
; 737  : 
; 738  : 	fd = CreateFile( szPort, GENERIC_READ | GENERIC_WRITE,
; 739  :                   0,                    // exclusive access
; 740  :                   NULL,                 // no security attrs
; 741  :                   OPEN_EXISTING,
; 742  :                   FILE_ATTRIBUTE_NORMAL,
; 743  :                   NULL );

  000aa	8b f4		 mov	 esi, esp
  000ac	6a 00		 push	 0
  000ae	68 80 00 00 00	 push	 128			; 00000080H
  000b3	6a 03		 push	 3
  000b5	6a 00		 push	 0
  000b7	6a 00		 push	 0
  000b9	68 00 00 00 c0	 push	 -1073741824		; c0000000H
  000be	8d 45 a8	 lea	 eax, DWORD PTR _szPort$[ebp]
  000c1	50		 push	 eax
  000c2	ff 15 00 00 00
	00		 call	 DWORD PTR __imp__CreateFileA@28
  000c8	3b f4		 cmp	 esi, esp
  000ca	e8 00 00 00 00	 call	 __RTC_CheckEsp
  000cf	89 85 fc fe ff
	ff		 mov	 DWORD PTR _fd$[ebp], eax

; 744  : 
; 745  : 	if (fd == (HANDLE) -1)

  000d5	83 bd fc fe ff
	ff ff		 cmp	 DWORD PTR _fd$[ebp], -1
  000dc	75 5e		 jne	 SHORT $LN10@OpenCOMPor

; 746  : 	{
; 747  : 		if (Quiet == 0)

  000de	83 7d 18 00	 cmp	 DWORD PTR _Quiet$[ebp], 0
  000e2	75 51		 jne	 SHORT $LN9@OpenCOMPor

; 748  : 		{
; 749  : 			if (pPort < (VOID *)256)

  000e4	81 7d 08 00 01
	00 00		 cmp	 DWORD PTR _pPort$[ebp], 256 ; 00000100H
  000eb	73 1a		 jae	 SHORT $LN8@OpenCOMPor

; 750  : 				sprintf(buf," COM%d could not be opened \r\n ", (UINT)pPort);

  000ed	8b 45 08	 mov	 eax, DWORD PTR _pPort$[ebp]
  000f0	50		 push	 eax
  000f1	68 00 00 00 00	 push	 OFFSET ??_C@_0BP@JAHOJCK@?5COM?$CFd?5could?5not?5be?5opened?5?$AN?6?5?$AA@
  000f6	8d 8d 08 ff ff
	ff		 lea	 ecx, DWORD PTR _buf$[ebp]
  000fc	51		 push	 ecx
  000fd	e8 00 00 00 00	 call	 _sprintf
  00102	83 c4 0c	 add	 esp, 12			; 0000000cH

; 751  : 			else

  00105	eb 18		 jmp	 SHORT $LN7@OpenCOMPor
$LN8@OpenCOMPor:

; 752  : 				sprintf(buf," %s could not be opened \r\n ", pPort);

  00107	8b 45 08	 mov	 eax, DWORD PTR _pPort$[ebp]
  0010a	50		 push	 eax
  0010b	68 00 00 00 00	 push	 OFFSET ??_C@_0BM@LCAFCKLE@?5?$CFs?5could?5not?5be?5opened?5?$AN?6?5?$AA@
  00110	8d 8d 08 ff ff
	ff		 lea	 ecx, DWORD PTR _buf$[ebp]
  00116	51		 push	 ecx
  00117	e8 00 00 00 00	 call	 _sprintf
  0011c	83 c4 0c	 add	 esp, 12			; 0000000cH
$LN7@OpenCOMPor:

; 753  : 
; 754  : 	//		WritetoConsoleLocal(buf);
; 755  : 			OutputDebugString(buf);

  0011f	8b f4		 mov	 esi, esp
  00121	8d 85 08 ff ff
	ff		 lea	 eax, DWORD PTR _buf$[ebp]
  00127	50		 push	 eax
  00128	ff 15 00 00 00
	00		 call	 DWORD PTR __imp__OutputDebugStringA@4
  0012e	3b f4		 cmp	 esi, esp
  00130	e8 00 00 00 00	 call	 __RTC_CheckEsp
$LN9@OpenCOMPor:

; 756  : 		}
; 757  : 		return (FALSE);

  00135	33 c0		 xor	 eax, eax
  00137	e9 85 02 00 00	 jmp	 $LN15@OpenCOMPor
$LN10@OpenCOMPor:

; 758  : 	}
; 759  : 
; 760  : 	Err = GetFileType(fd);

  0013c	8b f4		 mov	 esi, esp
  0013e	8b 85 fc fe ff
	ff		 mov	 eax, DWORD PTR _fd$[ebp]
  00144	50		 push	 eax
  00145	ff 15 00 00 00
	00		 call	 DWORD PTR __imp__GetFileType@4
  0014b	3b f4		 cmp	 esi, esp
  0014d	e8 00 00 00 00	 call	 __RTC_CheckEsp
  00152	89 85 74 ff ff
	ff		 mov	 DWORD PTR _Err$[ebp], eax

; 761  : 
; 762  : 	// setup device buffers
; 763  : 
; 764  : 	SetupComm(fd, 4096, 4096 ) ;

  00158	8b f4		 mov	 esi, esp
  0015a	68 00 10 00 00	 push	 4096			; 00001000H
  0015f	68 00 10 00 00	 push	 4096			; 00001000H
  00164	8b 85 fc fe ff
	ff		 mov	 eax, DWORD PTR _fd$[ebp]
  0016a	50		 push	 eax
  0016b	ff 15 00 00 00
	00		 call	 DWORD PTR __imp__SetupComm@12
  00171	3b f4		 cmp	 esi, esp
  00173	e8 00 00 00 00	 call	 __RTC_CheckEsp

; 765  : 
; 766  : 	// purge any information in the buffer
; 767  : 
; 768  : 	PurgeComm(fd, PURGE_TXABORT | PURGE_RXABORT |
; 769  :                                       PURGE_TXCLEAR | PURGE_RXCLEAR ) ;

  00178	8b f4		 mov	 esi, esp
  0017a	6a 0f		 push	 15			; 0000000fH
  0017c	8b 85 fc fe ff
	ff		 mov	 eax, DWORD PTR _fd$[ebp]
  00182	50		 push	 eax
  00183	ff 15 00 00 00
	00		 call	 DWORD PTR __imp__PurgeComm@8
  00189	3b f4		 cmp	 esi, esp
  0018b	e8 00 00 00 00	 call	 __RTC_CheckEsp

; 770  : 
; 771  : 	// set up for overlapped I/O
; 772  : 
; 773  : 	CommTimeOuts.ReadIntervalTimeout = 0xFFFFFFFF ;

  00190	c7 45 80 ff ff
	ff ff		 mov	 DWORD PTR _CommTimeOuts$[ebp], -1

; 774  : 	CommTimeOuts.ReadTotalTimeoutMultiplier = 0 ;

  00197	c7 45 84 00 00
	00 00		 mov	 DWORD PTR _CommTimeOuts$[ebp+4], 0

; 775  : 	CommTimeOuts.ReadTotalTimeoutConstant = 0 ;

  0019e	c7 45 88 00 00
	00 00		 mov	 DWORD PTR _CommTimeOuts$[ebp+8], 0

; 776  : 	CommTimeOuts.WriteTotalTimeoutMultiplier = 0 ;

  001a5	c7 45 8c 00 00
	00 00		 mov	 DWORD PTR _CommTimeOuts$[ebp+12], 0

; 777  : //     CommTimeOuts.WriteTotalTimeoutConstant = 0 ;
; 778  : 	CommTimeOuts.WriteTotalTimeoutConstant = 500 ;

  001ac	c7 45 90 f4 01
	00 00		 mov	 DWORD PTR _CommTimeOuts$[ebp+16], 500 ; 000001f4H

; 779  : 	SetCommTimeouts(fd, &CommTimeOuts ) ;

  001b3	8b f4		 mov	 esi, esp
  001b5	8d 45 80	 lea	 eax, DWORD PTR _CommTimeOuts$[ebp]
  001b8	50		 push	 eax
  001b9	8b 8d fc fe ff
	ff		 mov	 ecx, DWORD PTR _fd$[ebp]
  001bf	51		 push	 ecx
  001c0	ff 15 00 00 00
	00		 call	 DWORD PTR __imp__SetCommTimeouts@8
  001c6	3b f4		 cmp	 esi, esp
  001c8	e8 00 00 00 00	 call	 __RTC_CheckEsp

; 780  : 
; 781  :    dcb.DCBlength = sizeof( DCB ) ;

  001cd	c7 85 d8 fe ff
	ff 1c 00 00 00	 mov	 DWORD PTR _dcb$[ebp], 28 ; 0000001cH

; 782  : 
; 783  :    GetCommState(fd, &dcb ) ;

  001d7	8b f4		 mov	 esi, esp
  001d9	8d 85 d8 fe ff
	ff		 lea	 eax, DWORD PTR _dcb$[ebp]
  001df	50		 push	 eax
  001e0	8b 8d fc fe ff
	ff		 mov	 ecx, DWORD PTR _fd$[ebp]
  001e6	51		 push	 ecx
  001e7	ff 15 00 00 00
	00		 call	 DWORD PTR __imp__GetCommState@8
  001ed	3b f4		 cmp	 esi, esp
  001ef	e8 00 00 00 00	 call	 __RTC_CheckEsp

; 784  : 
; 785  :    dcb.BaudRate = speed;

  001f4	8b 45 0c	 mov	 eax, DWORD PTR _speed$[ebp]
  001f7	89 85 dc fe ff
	ff		 mov	 DWORD PTR _dcb$[ebp+4], eax

; 786  :    dcb.ByteSize = 8;

  001fd	c6 85 ea fe ff
	ff 08		 mov	 BYTE PTR _dcb$[ebp+18], 8

; 787  :    dcb.Parity = 0;

  00204	c6 85 eb fe ff
	ff 00		 mov	 BYTE PTR _dcb$[ebp+19], 0

; 788  :    dcb.StopBits = TWOSTOPBITS;

  0020b	c6 85 ec fe ff
	ff 02		 mov	 BYTE PTR _dcb$[ebp+20], 2

; 789  :    dcb.StopBits = Stopbits;

  00212	8a 45 1c	 mov	 al, BYTE PTR _Stopbits$[ebp]
  00215	88 85 ec fe ff
	ff		 mov	 BYTE PTR _dcb$[ebp+20], al

; 790  : 
; 791  : 	// setup hardware flow control
; 792  : 
; 793  : 	dcb.fOutxDsrFlow = 0;

  0021b	8b 85 e0 fe ff
	ff		 mov	 eax, DWORD PTR _dcb$[ebp+8]
  00221	83 e0 f7	 and	 eax, -9			; fffffff7H
  00224	89 85 e0 fe ff
	ff		 mov	 DWORD PTR _dcb$[ebp+8], eax

; 794  : 	dcb.fDtrControl = DTR_CONTROL_DISABLE ;

  0022a	8b 85 e0 fe ff
	ff		 mov	 eax, DWORD PTR _dcb$[ebp+8]
  00230	83 e0 cf	 and	 eax, -49		; ffffffcfH
  00233	89 85 e0 fe ff
	ff		 mov	 DWORD PTR _dcb$[ebp+8], eax

; 795  : 
; 796  : 	dcb.fOutxCtsFlow = 0;

  00239	8b 85 e0 fe ff
	ff		 mov	 eax, DWORD PTR _dcb$[ebp+8]
  0023f	83 e0 fb	 and	 eax, -5			; fffffffbH
  00242	89 85 e0 fe ff
	ff		 mov	 DWORD PTR _dcb$[ebp+8], eax

; 797  : 	dcb.fRtsControl = RTS_CONTROL_DISABLE ;

  00248	8b 85 e0 fe ff
	ff		 mov	 eax, DWORD PTR _dcb$[ebp+8]
  0024e	25 ff cf ff ff	 and	 eax, -12289		; ffffcfffH
  00253	89 85 e0 fe ff
	ff		 mov	 DWORD PTR _dcb$[ebp+8], eax

; 798  : 
; 799  : 	// setup software flow control
; 800  : 
; 801  :    dcb.fInX = dcb.fOutX = 0;

  00259	8b 85 e0 fe ff
	ff		 mov	 eax, DWORD PTR _dcb$[ebp+8]
  0025f	25 ff fe ff ff	 and	 eax, -257		; fffffeffH
  00264	89 85 e0 fe ff
	ff		 mov	 DWORD PTR _dcb$[ebp+8], eax
  0026a	8b 8d e0 fe ff
	ff		 mov	 ecx, DWORD PTR _dcb$[ebp+8]
  00270	81 e1 ff fd ff
	ff		 and	 ecx, -513		; fffffdffH
  00276	89 8d e0 fe ff
	ff		 mov	 DWORD PTR _dcb$[ebp+8], ecx

; 802  :    dcb.XonChar = 0;

  0027c	c6 85 ed fe ff
	ff 00		 mov	 BYTE PTR _dcb$[ebp+21], 0

; 803  :    dcb.XoffChar = 0;

  00283	c6 85 ee fe ff
	ff 00		 mov	 BYTE PTR _dcb$[ebp+22], 0

; 804  :    dcb.XonLim = 100 ;

  0028a	66 c7 85 e6 fe
	ff ff 64 00	 mov	 WORD PTR _dcb$[ebp+14], 100 ; 00000064H

; 805  :    dcb.XoffLim = 100 ;

  00293	66 c7 85 e8 fe
	ff ff 64 00	 mov	 WORD PTR _dcb$[ebp+16], 100 ; 00000064H

; 806  : 
; 807  :    // other various settings
; 808  : 
; 809  :    dcb.fBinary = TRUE ;

  0029c	8b 85 e0 fe ff
	ff		 mov	 eax, DWORD PTR _dcb$[ebp+8]
  002a2	83 c8 01	 or	 eax, 1
  002a5	89 85 e0 fe ff
	ff		 mov	 DWORD PTR _dcb$[ebp+8], eax

; 810  :    dcb.fParity = FALSE;

  002ab	8b 85 e0 fe ff
	ff		 mov	 eax, DWORD PTR _dcb$[ebp+8]
  002b1	83 e0 fd	 and	 eax, -3			; fffffffdH
  002b4	89 85 e0 fe ff
	ff		 mov	 DWORD PTR _dcb$[ebp+8], eax

; 811  : 
; 812  :    fRetVal = SetCommState(fd, &dcb);

  002ba	8b f4		 mov	 esi, esp
  002bc	8d 85 d8 fe ff
	ff		 lea	 eax, DWORD PTR _dcb$[ebp]
  002c2	50		 push	 eax
  002c3	8b 8d fc fe ff
	ff		 mov	 ecx, DWORD PTR _fd$[ebp]
  002c9	51		 push	 ecx
  002ca	ff 15 00 00 00
	00		 call	 DWORD PTR __imp__SetCommState@8
  002d0	3b f4		 cmp	 esi, esp
  002d2	e8 00 00 00 00	 call	 __RTC_CheckEsp
  002d7	89 45 9c	 mov	 DWORD PTR _fRetVal$[ebp], eax

; 813  : 
; 814  : 	if (fRetVal)

  002da	83 7d 9c 00	 cmp	 DWORD PTR _fRetVal$[ebp], 0
  002de	74 41		 je	 SHORT $LN6@OpenCOMPor

; 815  : 	{
; 816  : 		if (SetDTR)

  002e0	83 7d 10 00	 cmp	 DWORD PTR _SetDTR$[ebp], 0
  002e4	74 18		 je	 SHORT $LN5@OpenCOMPor

; 817  : 			EscapeCommFunction(fd, SETDTR);

  002e6	8b f4		 mov	 esi, esp
  002e8	6a 05		 push	 5
  002ea	8b 85 fc fe ff
	ff		 mov	 eax, DWORD PTR _fd$[ebp]
  002f0	50		 push	 eax
  002f1	ff 15 00 00 00
	00		 call	 DWORD PTR __imp__EscapeCommFunction@8
  002f7	3b f4		 cmp	 esi, esp
  002f9	e8 00 00 00 00	 call	 __RTC_CheckEsp
$LN5@OpenCOMPor:

; 818  : 		if (SetRTS)

  002fe	83 7d 14 00	 cmp	 DWORD PTR _SetRTS$[ebp], 0
  00302	74 18		 je	 SHORT $LN4@OpenCOMPor

; 819  : 			EscapeCommFunction(fd, SETRTS);

  00304	8b f4		 mov	 esi, esp
  00306	6a 03		 push	 3
  00308	8b 85 fc fe ff
	ff		 mov	 eax, DWORD PTR _fd$[ebp]
  0030e	50		 push	 eax
  0030f	ff 15 00 00 00
	00		 call	 DWORD PTR __imp__EscapeCommFunction@8
  00315	3b f4		 cmp	 esi, esp
  00317	e8 00 00 00 00	 call	 __RTC_CheckEsp
$LN4@OpenCOMPor:

; 820  : 	}
; 821  : 	else

  0031c	e9 9a 00 00 00	 jmp	 $LN3@OpenCOMPor
$LN6@OpenCOMPor:

; 822  : 	{
; 823  : 		if ((UINT)pPort < 256)

  00321	81 7d 08 00 01
	00 00		 cmp	 DWORD PTR _pPort$[ebp], 256 ; 00000100H
  00328	73 2a		 jae	 SHORT $LN2@OpenCOMPor

; 824  : 			sprintf(buf,"COM%d Setup Failed %d ", pPort, GetLastError());

  0032a	8b f4		 mov	 esi, esp
  0032c	ff 15 00 00 00
	00		 call	 DWORD PTR __imp__GetLastError@0
  00332	3b f4		 cmp	 esi, esp
  00334	e8 00 00 00 00	 call	 __RTC_CheckEsp
  00339	50		 push	 eax
  0033a	8b 45 08	 mov	 eax, DWORD PTR _pPort$[ebp]
  0033d	50		 push	 eax
  0033e	68 00 00 00 00	 push	 OFFSET ??_C@_0BH@PBDMLJNP@COM?$CFd?5Setup?5Failed?5?$CFd?5?$AA@
  00343	8d 8d 08 ff ff
	ff		 lea	 ecx, DWORD PTR _buf$[ebp]
  00349	51		 push	 ecx
  0034a	e8 00 00 00 00	 call	 _sprintf
  0034f	83 c4 10	 add	 esp, 16			; 00000010H

; 825  : 		else

  00352	eb 28		 jmp	 SHORT $LN1@OpenCOMPor
$LN2@OpenCOMPor:

; 826  : 			sprintf(buf,"%s Setup Failed %d ", pPort, GetLastError());

  00354	8b f4		 mov	 esi, esp
  00356	ff 15 00 00 00
	00		 call	 DWORD PTR __imp__GetLastError@0
  0035c	3b f4		 cmp	 esi, esp
  0035e	e8 00 00 00 00	 call	 __RTC_CheckEsp
  00363	50		 push	 eax
  00364	8b 45 08	 mov	 eax, DWORD PTR _pPort$[ebp]
  00367	50		 push	 eax
  00368	68 00 00 00 00	 push	 OFFSET ??_C@_0BE@OMPOGOHP@?$CFs?5Setup?5Failed?5?$CFd?5?$AA@
  0036d	8d 8d 08 ff ff
	ff		 lea	 ecx, DWORD PTR _buf$[ebp]
  00373	51		 push	 ecx
  00374	e8 00 00 00 00	 call	 _sprintf
  00379	83 c4 10	 add	 esp, 16			; 00000010H
$LN1@OpenCOMPor:

; 827  : 
; 828  : 		printf(buf);

  0037c	8d 85 08 ff ff
	ff		 lea	 eax, DWORD PTR _buf$[ebp]
  00382	50		 push	 eax
  00383	e8 00 00 00 00	 call	 _printf
  00388	83 c4 04	 add	 esp, 4

; 829  : 		OutputDebugString(buf);

  0038b	8b f4		 mov	 esi, esp
  0038d	8d 85 08 ff ff
	ff		 lea	 eax, DWORD PTR _buf$[ebp]
  00393	50		 push	 eax
  00394	ff 15 00 00 00
	00		 call	 DWORD PTR __imp__OutputDebugStringA@4
  0039a	3b f4		 cmp	 esi, esp
  0039c	e8 00 00 00 00	 call	 __RTC_CheckEsp

; 830  : 		CloseHandle(fd);

  003a1	8b f4		 mov	 esi, esp
  003a3	8b 85 fc fe ff
	ff		 mov	 eax, DWORD PTR _fd$[ebp]
  003a9	50		 push	 eax
  003aa	ff 15 00 00 00
	00		 call	 DWORD PTR __imp__CloseHandle@4
  003b0	3b f4		 cmp	 esi, esp
  003b2	e8 00 00 00 00	 call	 __RTC_CheckEsp

; 831  : 		return 0;

  003b7	33 c0		 xor	 eax, eax
  003b9	eb 06		 jmp	 SHORT $LN15@OpenCOMPor
$LN3@OpenCOMPor:

; 832  : 	}
; 833  : 
; 834  : 	return fd;

  003bb	8b 85 fc fe ff
	ff		 mov	 eax, DWORD PTR _fd$[ebp]
$LN15@OpenCOMPor:

; 835  : 
; 836  : }

  003c1	52		 push	 edx
  003c2	8b cd		 mov	 ecx, ebp
  003c4	50		 push	 eax
  003c5	8d 15 00 00 00
	00		 lea	 edx, DWORD PTR $LN22@OpenCOMPor
  003cb	e8 00 00 00 00	 call	 @_RTC_CheckStackVars@8
  003d0	58		 pop	 eax
  003d1	5a		 pop	 edx
  003d2	5f		 pop	 edi
  003d3	5e		 pop	 esi
  003d4	5b		 pop	 ebx
  003d5	8b 4d fc	 mov	 ecx, DWORD PTR __$ArrayPad$[ebp]
  003d8	33 cd		 xor	 ecx, ebp
  003da	e8 00 00 00 00	 call	 @__security_check_cookie@4
  003df	81 c4 04 02 00
	00		 add	 esp, 516		; 00000204H
  003e5	3b ec		 cmp	 ebp, esp
  003e7	e8 00 00 00 00	 call	 __RTC_CheckEsp
  003ec	8b e5		 mov	 esp, ebp
  003ee	5d		 pop	 ebp
  003ef	c3		 ret	 0
$LN22@OpenCOMPor:
  003f0	04 00 00 00	 DD	 4
  003f4	00 00 00 00	 DD	 $LN21@OpenCOMPor
$LN21@OpenCOMPor:
  003f8	a8 ff ff ff	 DD	 -88			; ffffffa8H
  003fc	50 00 00 00	 DD	 80			; 00000050H
  00400	00 00 00 00	 DD	 $LN17@OpenCOMPor
  00404	80 ff ff ff	 DD	 -128			; ffffff80H
  00408	14 00 00 00	 DD	 20			; 00000014H
  0040c	00 00 00 00	 DD	 $LN18@OpenCOMPor
  00410	08 ff ff ff	 DD	 -248			; ffffff08H
  00414	64 00 00 00	 DD	 100			; 00000064H
  00418	00 00 00 00	 DD	 $LN19@OpenCOMPor
  0041c	d8 fe ff ff	 DD	 -296			; fffffed8H
  00420	1c 00 00 00	 DD	 28			; 0000001cH
  00424	00 00 00 00	 DD	 $LN20@OpenCOMPor
$LN20@OpenCOMPor:
  00428	64		 DB	 100			; 00000064H
  00429	63		 DB	 99			; 00000063H
  0042a	62		 DB	 98			; 00000062H
  0042b	00		 DB	 0
$LN19@OpenCOMPor:
  0042c	62		 DB	 98			; 00000062H
  0042d	75		 DB	 117			; 00000075H
  0042e	66		 DB	 102			; 00000066H
  0042f	00		 DB	 0
$LN18@OpenCOMPor:
  00430	43		 DB	 67			; 00000043H
  00431	6f		 DB	 111			; 0000006fH
  00432	6d		 DB	 109			; 0000006dH
  00433	6d		 DB	 109			; 0000006dH
  00434	54		 DB	 84			; 00000054H
  00435	69		 DB	 105			; 00000069H
  00436	6d		 DB	 109			; 0000006dH
  00437	65		 DB	 101			; 00000065H
  00438	4f		 DB	 79			; 0000004fH
  00439	75		 DB	 117			; 00000075H
  0043a	74		 DB	 116			; 00000074H
  0043b	73		 DB	 115			; 00000073H
  0043c	00		 DB	 0
$LN17@OpenCOMPor:
  0043d	73		 DB	 115			; 00000073H
  0043e	7a		 DB	 122			; 0000007aH
  0043f	50		 DB	 80			; 00000050H
  00440	6f		 DB	 111			; 0000006fH
  00441	72		 DB	 114			; 00000072H
  00442	74		 DB	 116			; 00000074H
  00443	00		 DB	 0
_OpenCOMPort ENDP
_TEXT	ENDS
PUBLIC	_ReadCOMBlock
EXTRN	__imp__ReadFile@20:PROC
EXTRN	__imp__ClearCommError@12:PROC
; Function compile flags: /Odtp /RTCsu /ZI
;	COMDAT _ReadCOMBlock
_TEXT	SEGMENT
tv68 = -252						; size = 4
_dwLength$ = -52					; size = 4
_dwErrorFlags$ = -40					; size = 4
_ComStat$ = -28						; size = 12
_fReadStat$ = -8					; size = 4
_fd$ = 8						; size = 4
_Block$ = 12						; size = 4
_MaxLength$ = 16					; size = 4
_ReadCOMBlock PROC					; COMDAT

; 839  : {

  00000	55		 push	 ebp
  00001	8b ec		 mov	 ebp, esp
  00003	81 ec fc 00 00
	00		 sub	 esp, 252		; 000000fcH
  00009	53		 push	 ebx
  0000a	56		 push	 esi
  0000b	57		 push	 edi
  0000c	8d bd 04 ff ff
	ff		 lea	 edi, DWORD PTR [ebp-252]
  00012	b9 3f 00 00 00	 mov	 ecx, 63			; 0000003fH
  00017	b8 cc cc cc cc	 mov	 eax, -858993460		; ccccccccH
  0001c	f3 ab		 rep stosd

; 840  : 	BOOL       fReadStat ;
; 841  : 	COMSTAT    ComStat ;
; 842  : 	DWORD      dwErrorFlags;
; 843  : 	DWORD      dwLength;
; 844  : 
; 845  : 	// only try to read number of bytes in queue
; 846  : 
; 847  : 	ClearCommError(fd, &dwErrorFlags, &ComStat);

  0001e	8b f4		 mov	 esi, esp
  00020	8d 45 e4	 lea	 eax, DWORD PTR _ComStat$[ebp]
  00023	50		 push	 eax
  00024	8d 4d d8	 lea	 ecx, DWORD PTR _dwErrorFlags$[ebp]
  00027	51		 push	 ecx
  00028	8b 55 08	 mov	 edx, DWORD PTR _fd$[ebp]
  0002b	52		 push	 edx
  0002c	ff 15 00 00 00
	00		 call	 DWORD PTR __imp__ClearCommError@12
  00032	3b f4		 cmp	 esi, esp
  00034	e8 00 00 00 00	 call	 __RTC_CheckEsp

; 848  : 
; 849  : 	dwLength = min((DWORD) MaxLength, ComStat.cbInQue);

  00039	8b 45 10	 mov	 eax, DWORD PTR _MaxLength$[ebp]
  0003c	3b 45 e8	 cmp	 eax, DWORD PTR _ComStat$[ebp+4]
  0003f	73 0b		 jae	 SHORT $LN5@ReadCOMBlo
  00041	8b 4d 10	 mov	 ecx, DWORD PTR _MaxLength$[ebp]
  00044	89 8d 04 ff ff
	ff		 mov	 DWORD PTR tv68[ebp], ecx
  0004a	eb 09		 jmp	 SHORT $LN6@ReadCOMBlo
$LN5@ReadCOMBlo:
  0004c	8b 55 e8	 mov	 edx, DWORD PTR _ComStat$[ebp+4]
  0004f	89 95 04 ff ff
	ff		 mov	 DWORD PTR tv68[ebp], edx
$LN6@ReadCOMBlo:
  00055	8b 85 04 ff ff
	ff		 mov	 eax, DWORD PTR tv68[ebp]
  0005b	89 45 cc	 mov	 DWORD PTR _dwLength$[ebp], eax

; 850  : 
; 851  : 	if (dwLength > 0)

  0005e	83 7d cc 00	 cmp	 DWORD PTR _dwLength$[ebp], 0
  00062	76 4c		 jbe	 SHORT $LN2@ReadCOMBlo

; 852  : 	{
; 853  : 		fReadStat = ReadFile(fd, Block, dwLength, &dwLength, NULL) ;

  00064	8b f4		 mov	 esi, esp
  00066	6a 00		 push	 0
  00068	8d 45 cc	 lea	 eax, DWORD PTR _dwLength$[ebp]
  0006b	50		 push	 eax
  0006c	8b 4d cc	 mov	 ecx, DWORD PTR _dwLength$[ebp]
  0006f	51		 push	 ecx
  00070	8b 55 0c	 mov	 edx, DWORD PTR _Block$[ebp]
  00073	52		 push	 edx
  00074	8b 45 08	 mov	 eax, DWORD PTR _fd$[ebp]
  00077	50		 push	 eax
  00078	ff 15 00 00 00
	00		 call	 DWORD PTR __imp__ReadFile@20
  0007e	3b f4		 cmp	 esi, esp
  00080	e8 00 00 00 00	 call	 __RTC_CheckEsp
  00085	89 45 f8	 mov	 DWORD PTR _fReadStat$[ebp], eax

; 854  : 
; 855  : 		if (!fReadStat)

  00088	83 7d f8 00	 cmp	 DWORD PTR _fReadStat$[ebp], 0
  0008c	75 22		 jne	 SHORT $LN2@ReadCOMBlo

; 856  : 		{
; 857  : 		    dwLength = 0 ;

  0008e	c7 45 cc 00 00
	00 00		 mov	 DWORD PTR _dwLength$[ebp], 0

; 858  : 			ClearCommError(fd, &dwErrorFlags, &ComStat ) ;

  00095	8b f4		 mov	 esi, esp
  00097	8d 45 e4	 lea	 eax, DWORD PTR _ComStat$[ebp]
  0009a	50		 push	 eax
  0009b	8d 4d d8	 lea	 ecx, DWORD PTR _dwErrorFlags$[ebp]
  0009e	51		 push	 ecx
  0009f	8b 55 08	 mov	 edx, DWORD PTR _fd$[ebp]
  000a2	52		 push	 edx
  000a3	ff 15 00 00 00
	00		 call	 DWORD PTR __imp__ClearCommError@12
  000a9	3b f4		 cmp	 esi, esp
  000ab	e8 00 00 00 00	 call	 __RTC_CheckEsp
$LN2@ReadCOMBlo:

; 859  : 		}
; 860  : 	}
; 861  : 
; 862  :    return dwLength;

  000b0	8b 45 cc	 mov	 eax, DWORD PTR _dwLength$[ebp]

; 863  : }

  000b3	52		 push	 edx
  000b4	8b cd		 mov	 ecx, ebp
  000b6	50		 push	 eax
  000b7	8d 15 00 00 00
	00		 lea	 edx, DWORD PTR $LN11@ReadCOMBlo
  000bd	e8 00 00 00 00	 call	 @_RTC_CheckStackVars@8
  000c2	58		 pop	 eax
  000c3	5a		 pop	 edx
  000c4	5f		 pop	 edi
  000c5	5e		 pop	 esi
  000c6	5b		 pop	 ebx
  000c7	81 c4 fc 00 00
	00		 add	 esp, 252		; 000000fcH
  000cd	3b ec		 cmp	 ebp, esp
  000cf	e8 00 00 00 00	 call	 __RTC_CheckEsp
  000d4	8b e5		 mov	 esp, ebp
  000d6	5d		 pop	 ebp
  000d7	c3		 ret	 0
$LN11@ReadCOMBlo:
  000d8	03 00 00 00	 DD	 3
  000dc	00 00 00 00	 DD	 $LN10@ReadCOMBlo
$LN10@ReadCOMBlo:
  000e0	e4 ff ff ff	 DD	 -28			; ffffffe4H
  000e4	0c 00 00 00	 DD	 12			; 0000000cH
  000e8	00 00 00 00	 DD	 $LN7@ReadCOMBlo
  000ec	d8 ff ff ff	 DD	 -40			; ffffffd8H
  000f0	04 00 00 00	 DD	 4
  000f4	00 00 00 00	 DD	 $LN8@ReadCOMBlo
  000f8	cc ff ff ff	 DD	 -52			; ffffffccH
  000fc	04 00 00 00	 DD	 4
  00100	00 00 00 00	 DD	 $LN9@ReadCOMBlo
$LN9@ReadCOMBlo:
  00104	64		 DB	 100			; 00000064H
  00105	77		 DB	 119			; 00000077H
  00106	4c		 DB	 76			; 0000004cH
  00107	65		 DB	 101			; 00000065H
  00108	6e		 DB	 110			; 0000006eH
  00109	67		 DB	 103			; 00000067H
  0010a	74		 DB	 116			; 00000074H
  0010b	68		 DB	 104			; 00000068H
  0010c	00		 DB	 0
$LN8@ReadCOMBlo:
  0010d	64		 DB	 100			; 00000064H
  0010e	77		 DB	 119			; 00000077H
  0010f	45		 DB	 69			; 00000045H
  00110	72		 DB	 114			; 00000072H
  00111	72		 DB	 114			; 00000072H
  00112	6f		 DB	 111			; 0000006fH
  00113	72		 DB	 114			; 00000072H
  00114	46		 DB	 70			; 00000046H
  00115	6c		 DB	 108			; 0000006cH
  00116	61		 DB	 97			; 00000061H
  00117	67		 DB	 103			; 00000067H
  00118	73		 DB	 115			; 00000073H
  00119	00		 DB	 0
$LN7@ReadCOMBlo:
  0011a	43		 DB	 67			; 00000043H
  0011b	6f		 DB	 111			; 0000006fH
  0011c	6d		 DB	 109			; 0000006dH
  0011d	53		 DB	 83			; 00000053H
  0011e	74		 DB	 116			; 00000074H
  0011f	61		 DB	 97			; 00000061H
  00120	74		 DB	 116			; 00000074H
  00121	00		 DB	 0
_ReadCOMBlock ENDP
_TEXT	ENDS
PUBLIC	_WriteCOMBlock
EXTRN	__imp__WriteFile@20:PROC
; Function compile flags: /Odtp /RTCsu /ZI
;	COMDAT _WriteCOMBlock
_TEXT	SEGMENT
_Err$28746 = -64					; size = 4
_ComStat$ = -52						; size = 12
_ErrorFlags$ = -32					; size = 4
_BytesWritten$ = -20					; size = 4
_fWriteStat$ = -8					; size = 4
_fd$ = 8						; size = 4
_Block$ = 12						; size = 4
_BytesToWrite$ = 16					; size = 4
_WriteCOMBlock PROC					; COMDAT

; 867  : {

  00000	55		 push	 ebp
  00001	8b ec		 mov	 ebp, esp
  00003	81 ec 04 01 00
	00		 sub	 esp, 260		; 00000104H
  00009	53		 push	 ebx
  0000a	56		 push	 esi
  0000b	57		 push	 edi
  0000c	8d bd fc fe ff
	ff		 lea	 edi, DWORD PTR [ebp-260]
  00012	b9 41 00 00 00	 mov	 ecx, 65			; 00000041H
  00017	b8 cc cc cc cc	 mov	 eax, -858993460		; ccccccccH
  0001c	f3 ab		 rep stosd

; 868  : 	BOOL        fWriteStat;
; 869  : 	DWORD       BytesWritten;
; 870  : 	DWORD       ErrorFlags;
; 871  : 	COMSTAT     ComStat;
; 872  : 
; 873  : 	fWriteStat = WriteFile(fd, Block, BytesToWrite,
; 874  : 	                       &BytesWritten, NULL );

  0001e	8b f4		 mov	 esi, esp
  00020	6a 00		 push	 0
  00022	8d 45 ec	 lea	 eax, DWORD PTR _BytesWritten$[ebp]
  00025	50		 push	 eax
  00026	8b 4d 10	 mov	 ecx, DWORD PTR _BytesToWrite$[ebp]
  00029	51		 push	 ecx
  0002a	8b 55 0c	 mov	 edx, DWORD PTR _Block$[ebp]
  0002d	52		 push	 edx
  0002e	8b 45 08	 mov	 eax, DWORD PTR _fd$[ebp]
  00031	50		 push	 eax
  00032	ff 15 00 00 00
	00		 call	 DWORD PTR __imp__WriteFile@20
  00038	3b f4		 cmp	 esi, esp
  0003a	e8 00 00 00 00	 call	 __RTC_CheckEsp
  0003f	89 45 f8	 mov	 DWORD PTR _fWriteStat$[ebp], eax

; 875  : 
; 876  : 	if ((!fWriteStat) || (BytesToWrite != BytesWritten))

  00042	83 7d f8 00	 cmp	 DWORD PTR _fWriteStat$[ebp], 0
  00046	74 08		 je	 SHORT $LN1@WriteCOMBl
  00048	8b 45 10	 mov	 eax, DWORD PTR _BytesToWrite$[ebp]
  0004b	3b 45 ec	 cmp	 eax, DWORD PTR _BytesWritten$[ebp]
  0004e	74 31		 je	 SHORT $LN2@WriteCOMBl
$LN1@WriteCOMBl:

; 877  : 	{
; 878  : 		int Err = GetLastError();

  00050	8b f4		 mov	 esi, esp
  00052	ff 15 00 00 00
	00		 call	 DWORD PTR __imp__GetLastError@0
  00058	3b f4		 cmp	 esi, esp
  0005a	e8 00 00 00 00	 call	 __RTC_CheckEsp
  0005f	89 45 c0	 mov	 DWORD PTR _Err$28746[ebp], eax

; 879  : 		ClearCommError(fd, &ErrorFlags, &ComStat);

  00062	8b f4		 mov	 esi, esp
  00064	8d 45 cc	 lea	 eax, DWORD PTR _ComStat$[ebp]
  00067	50		 push	 eax
  00068	8d 4d e0	 lea	 ecx, DWORD PTR _ErrorFlags$[ebp]
  0006b	51		 push	 ecx
  0006c	8b 55 08	 mov	 edx, DWORD PTR _fd$[ebp]
  0006f	52		 push	 edx
  00070	ff 15 00 00 00
	00		 call	 DWORD PTR __imp__ClearCommError@12
  00076	3b f4		 cmp	 esi, esp
  00078	e8 00 00 00 00	 call	 __RTC_CheckEsp

; 880  : 		return FALSE;

  0007d	33 c0		 xor	 eax, eax
  0007f	eb 05		 jmp	 SHORT $LN3@WriteCOMBl
$LN2@WriteCOMBl:

; 881  : 	}
; 882  : 	return TRUE;

  00081	b8 01 00 00 00	 mov	 eax, 1
$LN3@WriteCOMBl:

; 883  : }

  00086	52		 push	 edx
  00087	8b cd		 mov	 ecx, ebp
  00089	50		 push	 eax
  0008a	8d 15 00 00 00
	00		 lea	 edx, DWORD PTR $LN9@WriteCOMBl
  00090	e8 00 00 00 00	 call	 @_RTC_CheckStackVars@8
  00095	58		 pop	 eax
  00096	5a		 pop	 edx
  00097	5f		 pop	 edi
  00098	5e		 pop	 esi
  00099	5b		 pop	 ebx
  0009a	81 c4 04 01 00
	00		 add	 esp, 260		; 00000104H
  000a0	3b ec		 cmp	 ebp, esp
  000a2	e8 00 00 00 00	 call	 __RTC_CheckEsp
  000a7	8b e5		 mov	 esp, ebp
  000a9	5d		 pop	 ebp
  000aa	c3		 ret	 0
  000ab	90		 npad	 1
$LN9@WriteCOMBl:
  000ac	03 00 00 00	 DD	 3
  000b0	00 00 00 00	 DD	 $LN8@WriteCOMBl
$LN8@WriteCOMBl:
  000b4	ec ff ff ff	 DD	 -20			; ffffffecH
  000b8	04 00 00 00	 DD	 4
  000bc	00 00 00 00	 DD	 $LN5@WriteCOMBl
  000c0	e0 ff ff ff	 DD	 -32			; ffffffe0H
  000c4	04 00 00 00	 DD	 4
  000c8	00 00 00 00	 DD	 $LN6@WriteCOMBl
  000cc	cc ff ff ff	 DD	 -52			; ffffffccH
  000d0	0c 00 00 00	 DD	 12			; 0000000cH
  000d4	00 00 00 00	 DD	 $LN7@WriteCOMBl
$LN7@WriteCOMBl:
  000d8	43		 DB	 67			; 00000043H
  000d9	6f		 DB	 111			; 0000006fH
  000da	6d		 DB	 109			; 0000006dH
  000db	53		 DB	 83			; 00000053H
  000dc	74		 DB	 116			; 00000074H
  000dd	61		 DB	 97			; 00000061H
  000de	74		 DB	 116			; 00000074H
  000df	00		 DB	 0
$LN6@WriteCOMBl:
  000e0	45		 DB	 69			; 00000045H
  000e1	72		 DB	 114			; 00000072H
  000e2	72		 DB	 114			; 00000072H
  000e3	6f		 DB	 111			; 0000006fH
  000e4	72		 DB	 114			; 00000072H
  000e5	46		 DB	 70			; 00000046H
  000e6	6c		 DB	 108			; 0000006cH
  000e7	61		 DB	 97			; 00000061H
  000e8	67		 DB	 103			; 00000067H
  000e9	73		 DB	 115			; 00000073H
  000ea	00		 DB	 0
$LN5@WriteCOMBl:
  000eb	42		 DB	 66			; 00000042H
  000ec	79		 DB	 121			; 00000079H
  000ed	74		 DB	 116			; 00000074H
  000ee	65		 DB	 101			; 00000065H
  000ef	73		 DB	 115			; 00000073H
  000f0	57		 DB	 87			; 00000057H
  000f1	72		 DB	 114			; 00000072H
  000f2	69		 DB	 105			; 00000069H
  000f3	74		 DB	 116			; 00000074H
  000f4	74		 DB	 116			; 00000074H
  000f5	65		 DB	 101			; 00000065H
  000f6	6e		 DB	 110			; 0000006eH
  000f7	00		 DB	 0
_WriteCOMBlock ENDP
_TEXT	ENDS
PUBLIC	_CloseCOMPort
EXTRN	__imp__SetCommMask@8:PROC
; Function compile flags: /Odtp /RTCsu /ZI
;	COMDAT _CloseCOMPort
_TEXT	SEGMENT
_fd$ = 8						; size = 4
_CloseCOMPort PROC					; COMDAT

; 886  : {

  00000	55		 push	 ebp
  00001	8b ec		 mov	 ebp, esp
  00003	81 ec c0 00 00
	00		 sub	 esp, 192		; 000000c0H
  00009	53		 push	 ebx
  0000a	56		 push	 esi
  0000b	57		 push	 edi
  0000c	8d bd 40 ff ff
	ff		 lea	 edi, DWORD PTR [ebp-192]
  00012	b9 30 00 00 00	 mov	 ecx, 48			; 00000030H
  00017	b8 cc cc cc cc	 mov	 eax, -858993460		; ccccccccH
  0001c	f3 ab		 rep stosd

; 887  : 	SetCommMask(fd, 0);

  0001e	8b f4		 mov	 esi, esp
  00020	6a 00		 push	 0
  00022	8b 45 08	 mov	 eax, DWORD PTR _fd$[ebp]
  00025	50		 push	 eax
  00026	ff 15 00 00 00
	00		 call	 DWORD PTR __imp__SetCommMask@8
  0002c	3b f4		 cmp	 esi, esp
  0002e	e8 00 00 00 00	 call	 __RTC_CheckEsp

; 888  : 
; 889  : 	// drop DTR
; 890  : 
; 891  : 	COMClearDTR(fd);

  00033	8b 45 08	 mov	 eax, DWORD PTR _fd$[ebp]
  00036	50		 push	 eax
  00037	e8 00 00 00 00	 call	 _COMClearDTR
  0003c	83 c4 04	 add	 esp, 4

; 892  : 
; 893  : 	// purge any outstanding reads/writes and close device handle
; 894  : 
; 895  : 	PurgeComm(fd, PURGE_TXABORT | PURGE_RXABORT | PURGE_TXCLEAR | PURGE_RXCLEAR ) ;

  0003f	8b f4		 mov	 esi, esp
  00041	6a 0f		 push	 15			; 0000000fH
  00043	8b 45 08	 mov	 eax, DWORD PTR _fd$[ebp]
  00046	50		 push	 eax
  00047	ff 15 00 00 00
	00		 call	 DWORD PTR __imp__PurgeComm@8
  0004d	3b f4		 cmp	 esi, esp
  0004f	e8 00 00 00 00	 call	 __RTC_CheckEsp

; 896  : 
; 897  : 	CloseHandle(fd);

  00054	8b f4		 mov	 esi, esp
  00056	8b 45 08	 mov	 eax, DWORD PTR _fd$[ebp]
  00059	50		 push	 eax
  0005a	ff 15 00 00 00
	00		 call	 DWORD PTR __imp__CloseHandle@4
  00060	3b f4		 cmp	 esi, esp
  00062	e8 00 00 00 00	 call	 __RTC_CheckEsp

; 898  : }

  00067	5f		 pop	 edi
  00068	5e		 pop	 esi
  00069	5b		 pop	 ebx
  0006a	81 c4 c0 00 00
	00		 add	 esp, 192		; 000000c0H
  00070	3b ec		 cmp	 ebp, esp
  00072	e8 00 00 00 00	 call	 __RTC_CheckEsp
  00077	8b e5		 mov	 esp, ebp
  00079	5d		 pop	 ebp
  0007a	c3		 ret	 0
_CloseCOMPort ENDP
; Function compile flags: /Odtp /RTCsu /ZI
_TEXT	ENDS
;	COMDAT _COMSetDTR
_TEXT	SEGMENT
_fd$ = 8						; size = 4
_COMSetDTR PROC						; COMDAT

; 902  : {

  00000	55		 push	 ebp
  00001	8b ec		 mov	 ebp, esp
  00003	81 ec c0 00 00
	00		 sub	 esp, 192		; 000000c0H
  00009	53		 push	 ebx
  0000a	56		 push	 esi
  0000b	57		 push	 edi
  0000c	8d bd 40 ff ff
	ff		 lea	 edi, DWORD PTR [ebp-192]
  00012	b9 30 00 00 00	 mov	 ecx, 48			; 00000030H
  00017	b8 cc cc cc cc	 mov	 eax, -858993460		; ccccccccH
  0001c	f3 ab		 rep stosd

; 903  : 	EscapeCommFunction(fd, SETDTR);

  0001e	8b f4		 mov	 esi, esp
  00020	6a 05		 push	 5
  00022	8b 45 08	 mov	 eax, DWORD PTR _fd$[ebp]
  00025	50		 push	 eax
  00026	ff 15 00 00 00
	00		 call	 DWORD PTR __imp__EscapeCommFunction@8
  0002c	3b f4		 cmp	 esi, esp
  0002e	e8 00 00 00 00	 call	 __RTC_CheckEsp

; 904  : }

  00033	5f		 pop	 edi
  00034	5e		 pop	 esi
  00035	5b		 pop	 ebx
  00036	81 c4 c0 00 00
	00		 add	 esp, 192		; 000000c0H
  0003c	3b ec		 cmp	 ebp, esp
  0003e	e8 00 00 00 00	 call	 __RTC_CheckEsp
  00043	8b e5		 mov	 esp, ebp
  00045	5d		 pop	 ebp
  00046	c3		 ret	 0
_COMSetDTR ENDP
; Function compile flags: /Odtp /RTCsu /ZI
_TEXT	ENDS
;	COMDAT _COMClearDTR
_TEXT	SEGMENT
_fd$ = 8						; size = 4
_COMClearDTR PROC					; COMDAT

; 907  : {

  00000	55		 push	 ebp
  00001	8b ec		 mov	 ebp, esp
  00003	81 ec c0 00 00
	00		 sub	 esp, 192		; 000000c0H
  00009	53		 push	 ebx
  0000a	56		 push	 esi
  0000b	57		 push	 edi
  0000c	8d bd 40 ff ff
	ff		 lea	 edi, DWORD PTR [ebp-192]
  00012	b9 30 00 00 00	 mov	 ecx, 48			; 00000030H
  00017	b8 cc cc cc cc	 mov	 eax, -858993460		; ccccccccH
  0001c	f3 ab		 rep stosd

; 908  : 	EscapeCommFunction(fd, CLRDTR);

  0001e	8b f4		 mov	 esi, esp
  00020	6a 06		 push	 6
  00022	8b 45 08	 mov	 eax, DWORD PTR _fd$[ebp]
  00025	50		 push	 eax
  00026	ff 15 00 00 00
	00		 call	 DWORD PTR __imp__EscapeCommFunction@8
  0002c	3b f4		 cmp	 esi, esp
  0002e	e8 00 00 00 00	 call	 __RTC_CheckEsp

; 909  : }

  00033	5f		 pop	 edi
  00034	5e		 pop	 esi
  00035	5b		 pop	 ebx
  00036	81 c4 c0 00 00
	00		 add	 esp, 192		; 000000c0H
  0003c	3b ec		 cmp	 ebp, esp
  0003e	e8 00 00 00 00	 call	 __RTC_CheckEsp
  00043	8b e5		 mov	 esp, ebp
  00045	5d		 pop	 ebp
  00046	c3		 ret	 0
_COMClearDTR ENDP
; Function compile flags: /Odtp /RTCsu /ZI
_TEXT	ENDS
;	COMDAT _COMSetRTS
_TEXT	SEGMENT
_fd$ = 8						; size = 4
_COMSetRTS PROC						; COMDAT

; 912  : {

  00000	55		 push	 ebp
  00001	8b ec		 mov	 ebp, esp
  00003	81 ec c0 00 00
	00		 sub	 esp, 192		; 000000c0H
  00009	53		 push	 ebx
  0000a	56		 push	 esi
  0000b	57		 push	 edi
  0000c	8d bd 40 ff ff
	ff		 lea	 edi, DWORD PTR [ebp-192]
  00012	b9 30 00 00 00	 mov	 ecx, 48			; 00000030H
  00017	b8 cc cc cc cc	 mov	 eax, -858993460		; ccccccccH
  0001c	f3 ab		 rep stosd

; 913  : 	EscapeCommFunction(fd, SETRTS);

  0001e	8b f4		 mov	 esi, esp
  00020	6a 03		 push	 3
  00022	8b 45 08	 mov	 eax, DWORD PTR _fd$[ebp]
  00025	50		 push	 eax
  00026	ff 15 00 00 00
	00		 call	 DWORD PTR __imp__EscapeCommFunction@8
  0002c	3b f4		 cmp	 esi, esp
  0002e	e8 00 00 00 00	 call	 __RTC_CheckEsp

; 914  : }

  00033	5f		 pop	 edi
  00034	5e		 pop	 esi
  00035	5b		 pop	 ebx
  00036	81 c4 c0 00 00
	00		 add	 esp, 192		; 000000c0H
  0003c	3b ec		 cmp	 ebp, esp
  0003e	e8 00 00 00 00	 call	 __RTC_CheckEsp
  00043	8b e5		 mov	 esp, ebp
  00045	5d		 pop	 ebp
  00046	c3		 ret	 0
_COMSetRTS ENDP
; Function compile flags: /Odtp /RTCsu /ZI
_TEXT	ENDS
;	COMDAT _COMClearRTS
_TEXT	SEGMENT
_fd$ = 8						; size = 4
_COMClearRTS PROC					; COMDAT

; 917  : {

  00000	55		 push	 ebp
  00001	8b ec		 mov	 ebp, esp
  00003	81 ec c0 00 00
	00		 sub	 esp, 192		; 000000c0H
  00009	53		 push	 ebx
  0000a	56		 push	 esi
  0000b	57		 push	 edi
  0000c	8d bd 40 ff ff
	ff		 lea	 edi, DWORD PTR [ebp-192]
  00012	b9 30 00 00 00	 mov	 ecx, 48			; 00000030H
  00017	b8 cc cc cc cc	 mov	 eax, -858993460		; ccccccccH
  0001c	f3 ab		 rep stosd

; 918  : 	EscapeCommFunction(fd, CLRRTS);

  0001e	8b f4		 mov	 esi, esp
  00020	6a 04		 push	 4
  00022	8b 45 08	 mov	 eax, DWORD PTR _fd$[ebp]
  00025	50		 push	 eax
  00026	ff 15 00 00 00
	00		 call	 DWORD PTR __imp__EscapeCommFunction@8
  0002c	3b f4		 cmp	 esi, esp
  0002e	e8 00 00 00 00	 call	 __RTC_CheckEsp

; 919  : }

  00033	5f		 pop	 edi
  00034	5e		 pop	 esi
  00035	5b		 pop	 ebx
  00036	81 c4 c0 00 00
	00		 add	 esp, 192		; 000000c0H
  0003c	3b ec		 cmp	 ebp, esp
  0003e	e8 00 00 00 00	 call	 __RTC_CheckEsp
  00043	8b e5		 mov	 esp, ebp
  00045	5d		 pop	 ebp
  00046	c3		 ret	 0
_COMClearRTS ENDP
_TEXT	ENDS
PUBLIC	??_C@_0BE@INLOGJBK@CAT?5Write?5Len?5?$CFd?5?$CFs?$AA@ ; `string'
PUBLIC	_CatWrite
;	COMDAT ??_C@_0BE@INLOGJBK@CAT?5Write?5Len?5?$CFd?5?$CFs?$AA@
CONST	SEGMENT
??_C@_0BE@INLOGJBK@CAT?5Write?5Len?5?$CFd?5?$CFs?$AA@ DB 'CAT Write Len %'
	DB	'd %s', 00H					; `string'
; Function compile flags: /Odtp /RTCsu /ZI
CONST	ENDS
;	COMDAT _CatWrite
_TEXT	SEGMENT
_Buffer$ = 8						; size = 4
_Len$ = 12						; size = 4
_CatWrite PROC						; COMDAT

; 922  : {

  00000	55		 push	 ebp
  00001	8b ec		 mov	 ebp, esp
  00003	81 ec c0 00 00
	00		 sub	 esp, 192		; 000000c0H
  00009	53		 push	 ebx
  0000a	56		 push	 esi
  0000b	57		 push	 edi
  0000c	8d bd 40 ff ff
	ff		 lea	 edi, DWORD PTR [ebp-192]
  00012	b9 30 00 00 00	 mov	 ecx, 48			; 00000030H
  00017	b8 cc cc cc cc	 mov	 eax, -858993460		; ccccccccH
  0001c	f3 ab		 rep stosd

; 923  : 	WriteDebugLog(5, "CAT Write Len %d %s", Len, Buffer);

  0001e	8b 45 08	 mov	 eax, DWORD PTR _Buffer$[ebp]
  00021	50		 push	 eax
  00022	8b 4d 0c	 mov	 ecx, DWORD PTR _Len$[ebp]
  00025	51		 push	 ecx
  00026	68 00 00 00 00	 push	 OFFSET ??_C@_0BE@INLOGJBK@CAT?5Write?5Len?5?$CFd?5?$CFs?$AA@
  0002b	6a 05		 push	 5
  0002d	e8 00 00 00 00	 call	 _WriteDebugLog
  00032	83 c4 10	 add	 esp, 16			; 00000010H

; 924  : }

  00035	5f		 pop	 edi
  00036	5e		 pop	 esi
  00037	5b		 pop	 ebx
  00038	81 c4 c0 00 00
	00		 add	 esp, 192		; 000000c0H
  0003e	3b ec		 cmp	 ebp, esp
  00040	e8 00 00 00 00	 call	 __RTC_CheckEsp
  00045	8b e5		 mov	 esp, ebp
  00047	5d		 pop	 ebp
  00048	c3		 ret	 0
_CatWrite ENDP
_TEXT	ENDS
PUBLIC	_RadioPoll
; Function compile flags: /Odtp /RTCsu /ZI
;	COMDAT _RadioPoll
_TEXT	SEGMENT
_RadioPoll PROC						; COMDAT

; 930  : {

  00000	55		 push	 ebp
  00001	8b ec		 mov	 ebp, esp
  00003	81 ec c0 00 00
	00		 sub	 esp, 192		; 000000c0H
  00009	53		 push	 ebx
  0000a	56		 push	 esi
  0000b	57		 push	 edi
  0000c	8d bd 40 ff ff
	ff		 lea	 edi, DWORD PTR [ebp-192]
  00012	b9 30 00 00 00	 mov	 ecx, 48			; 00000030H
  00017	b8 cc cc cc cc	 mov	 eax, -858993460		; ccccccccH
  0001c	f3 ab		 rep stosd

; 931  : 	return CatRXLen;

  0001e	a1 00 00 00 00	 mov	 eax, DWORD PTR _CatRXLen

; 932  : }

  00023	5f		 pop	 edi
  00024	5e		 pop	 esi
  00025	5b		 pop	 ebx
  00026	8b e5		 mov	 esp, ebp
  00028	5d		 pop	 ebp
  00029	c3		 ret	 0
_RadioPoll ENDP
_TEXT	ENDS
END
