; Listing generated by Microsoft (R) Optimizing Compiler Version 14.00.50727.42 

	TITLE	c:\SkyDrive\Dev\Source\ARDOPC\WinSerial.c
	.686P
	.XMM
	include listing.inc
	.model	flat

INCLUDELIB LIBCMTD
INCLUDELIB OLDNAMES

_DATA	SEGMENT
COMM	_CTS:DWORD
COMM	_DTR:DWORD
COMM	_hDevice:DWORD
COMM	_PortEnabled:DWORD
COMM	_RXBPtr:DWORD
COMM	_hControl:DWORD
COMM	_RTS:DWORD
COMM	_NewVCOM:DWORD
COMM	_Speed:DWORD
COMM	_PORTNAME:BYTE:050H
COMM	_PollDelay:DWORD
COMM	_VCOM:DWORD
COMM	_RXBUFFER:BYTE:01f4H
_DATA	ENDS
PUBLIC	??_C@_0BC@NDODKIPF@?2?2?4?2pipe?2BPQCOM?$CFd?$AA@ ; `string'
PUBLIC	??_C@_0BK@CJAPEFAE@ARDOPC?5opening?5port?5com?$CFd?$AA@ ; `string'
PUBLIC	__$ArrayPad$
PUBLIC	_BPQOpenSerialPort
EXTRN	__imp__GetFileType@4:PROC
EXTRN	__imp__GetLastError@0:PROC
EXTRN	__imp__CreateFileA@28:PROC
EXTRN	_sprintf:PROC
EXTRN	_WriteDebugLog:PROC
EXTRN	_port:DWORD
EXTRN	___security_cookie:DWORD
EXTRN	@__security_check_cookie@4:PROC
EXTRN	@_RTC_CheckStackVars@8:PROC
EXTRN	__RTC_CheckEsp:PROC
EXTRN	__RTC_Shutdown:PROC
EXTRN	__RTC_InitBase:PROC
;	COMDAT ??_C@_0BC@NDODKIPF@?2?2?4?2pipe?2BPQCOM?$CFd?$AA@
; File c:\skydrive\dev\source\ardopc\winserial.c
CONST	SEGMENT
??_C@_0BC@NDODKIPF@?2?2?4?2pipe?2BPQCOM?$CFd?$AA@ DB '\\.\pipe\BPQCOM%d', 00H ; `string'
CONST	ENDS
;	COMDAT ??_C@_0BK@CJAPEFAE@ARDOPC?5opening?5port?5com?$CFd?$AA@
CONST	SEGMENT
??_C@_0BK@CJAPEFAE@ARDOPC?5opening?5port?5com?$CFd?$AA@ DB 'ARDOPC openin'
	DB	'g port com%d', 00H				; `string'
CONST	ENDS
;	COMDAT rtc$TMZ
rtc$TMZ	SEGMENT
__RTC_Shutdown.rtc$TMZ DD FLAT:__RTC_Shutdown
rtc$TMZ	ENDS
;	COMDAT rtc$IMZ
rtc$IMZ	SEGMENT
__RTC_InitBase.rtc$IMZ DD FLAT:__RTC_InitBase
; Function compile flags: /Odtp /RTCsu /ZI
rtc$IMZ	ENDS
;	COMDAT _BPQOpenSerialPort
_TEXT	SEGMENT
_Err$ = -112						; size = 4
_hDevice$ = -100					; size = 4
_szPort$ = -88						; size = 80
__$ArrayPad$ = -4					; size = 4
_lasterror$ = 8						; size = 4
_BPQOpenSerialPort PROC					; COMDAT

; 134  : {

  00000	55		 push	 ebp
  00001	8b ec		 mov	 ebp, esp
  00003	81 ec 34 01 00
	00		 sub	 esp, 308		; 00000134H
  00009	53		 push	 ebx
  0000a	56		 push	 esi
  0000b	57		 push	 edi
  0000c	8d bd cc fe ff
	ff		 lea	 edi, DWORD PTR [ebp-308]
  00012	b9 4d 00 00 00	 mov	 ecx, 77			; 0000004dH
  00017	b8 cc cc cc cc	 mov	 eax, -858993460		; ccccccccH
  0001c	f3 ab		 rep stosd
  0001e	a1 00 00 00 00	 mov	 eax, DWORD PTR ___security_cookie
  00023	33 c5		 xor	 eax, ebp
  00025	89 45 fc	 mov	 DWORD PTR __$ArrayPad$[ebp], eax

; 135  : 	// Open a Virtual COM Port
; 136  : 
; 137  : 	char szPort[80];
; 138  : 	HANDLE hDevice;
; 139  : 	int Err;
; 140  : 
; 141  : 	*lasterror=0;

  00028	8b 45 08	 mov	 eax, DWORD PTR _lasterror$[ebp]
  0002b	c7 00 00 00 00
	00		 mov	 DWORD PTR [eax], 0

; 142  : 
; 143  : 	// Only support New Style VCOM 
; 144  : 
; 145  : 	WriteDebugLog(LOGDEBUG, "ARDOPC opening port com%d", port);

  00031	a1 00 00 00 00	 mov	 eax, DWORD PTR _port
  00036	50		 push	 eax
  00037	68 00 00 00 00	 push	 OFFSET ??_C@_0BK@CJAPEFAE@ARDOPC?5opening?5port?5com?$CFd?$AA@
  0003c	6a 07		 push	 7
  0003e	e8 00 00 00 00	 call	 _WriteDebugLog
  00043	83 c4 0c	 add	 esp, 12			; 0000000cH

; 146  : 
; 147  : 	sprintf( szPort, "\\\\.\\pipe\\BPQCOM%d", port ) ;

  00046	a1 00 00 00 00	 mov	 eax, DWORD PTR _port
  0004b	50		 push	 eax
  0004c	68 00 00 00 00	 push	 OFFSET ??_C@_0BC@NDODKIPF@?2?2?4?2pipe?2BPQCOM?$CFd?$AA@
  00051	8d 4d a8	 lea	 ecx, DWORD PTR _szPort$[ebp]
  00054	51		 push	 ecx
  00055	e8 00 00 00 00	 call	 _sprintf
  0005a	83 c4 0c	 add	 esp, 12			; 0000000cH

; 148  : 
; 149  : 	hDevice = CreateFile( szPort, GENERIC_READ | GENERIC_WRITE,
; 150  :                   0,                    // exclusive access
; 151  :                   NULL,                 // no security attrs
; 152  :                   OPEN_EXISTING,
; 153  :                   FILE_ATTRIBUTE_NORMAL, 
; 154  :                   NULL );

  0005d	8b f4		 mov	 esi, esp
  0005f	6a 00		 push	 0
  00061	68 80 00 00 00	 push	 128			; 00000080H
  00066	6a 03		 push	 3
  00068	6a 00		 push	 0
  0006a	6a 00		 push	 0
  0006c	68 00 00 00 c0	 push	 -1073741824		; c0000000H
  00071	8d 45 a8	 lea	 eax, DWORD PTR _szPort$[ebp]
  00074	50		 push	 eax
  00075	ff 15 00 00 00
	00		 call	 DWORD PTR __imp__CreateFileA@28
  0007b	3b f4		 cmp	 esi, esp
  0007d	e8 00 00 00 00	 call	 __RTC_CheckEsp
  00082	89 45 9c	 mov	 DWORD PTR _hDevice$[ebp], eax

; 155  : 
; 156  : 	Err = GetLastError();

  00085	8b f4		 mov	 esi, esp
  00087	ff 15 00 00 00
	00		 call	 DWORD PTR __imp__GetLastError@0
  0008d	3b f4		 cmp	 esi, esp
  0008f	e8 00 00 00 00	 call	 __RTC_CheckEsp
  00094	89 45 90	 mov	 DWORD PTR _Err$[ebp], eax

; 157  : 
; 158  : 	if (hDevice != (HANDLE) -1)

  00097	83 7d 9c ff	 cmp	 DWORD PTR _hDevice$[ebp], -1
  0009b	74 2a		 je	 SHORT $LN2@BPQOpenSer

; 159  : 	{
; 160  : 		NewVCOM = TRUE;

  0009d	c7 05 00 00 00
	00 01 00 00 00	 mov	 DWORD PTR _NewVCOM, 1

; 161  : 		PortEnabled = TRUE;

  000a7	c7 05 00 00 00
	00 01 00 00 00	 mov	 DWORD PTR _PortEnabled, 1

; 162  : 		Err = GetFileType(hDevice);

  000b1	8b f4		 mov	 esi, esp
  000b3	8b 45 9c	 mov	 eax, DWORD PTR _hDevice$[ebp]
  000b6	50		 push	 eax
  000b7	ff 15 00 00 00
	00		 call	 DWORD PTR __imp__GetFileType@4
  000bd	3b f4		 cmp	 esi, esp
  000bf	e8 00 00 00 00	 call	 __RTC_CheckEsp
  000c4	89 45 90	 mov	 DWORD PTR _Err$[ebp], eax
$LN2@BPQOpenSer:

; 163  : 	}
; 164  : 		  
; 165  : 	if (hDevice == (HANDLE) -1 )

  000c7	83 7d 9c ff	 cmp	 DWORD PTR _hDevice$[ebp], -1
  000cb	75 14		 jne	 SHORT $LN1@BPQOpenSer

; 166  : 	{
; 167  : 		*lasterror=GetLastError();

  000cd	8b f4		 mov	 esi, esp
  000cf	ff 15 00 00 00
	00		 call	 DWORD PTR __imp__GetLastError@0
  000d5	3b f4		 cmp	 esi, esp
  000d7	e8 00 00 00 00	 call	 __RTC_CheckEsp
  000dc	8b 4d 08	 mov	 ecx, DWORD PTR _lasterror$[ebp]
  000df	89 01		 mov	 DWORD PTR [ecx], eax
$LN1@BPQOpenSer:

; 168  : 	}
; 169  : 
; 170  :    return hDevice;

  000e1	8b 45 9c	 mov	 eax, DWORD PTR _hDevice$[ebp]

; 171  : }

  000e4	52		 push	 edx
  000e5	8b cd		 mov	 ecx, ebp
  000e7	50		 push	 eax
  000e8	8d 15 00 00 00
	00		 lea	 edx, DWORD PTR $LN7@BPQOpenSer
  000ee	e8 00 00 00 00	 call	 @_RTC_CheckStackVars@8
  000f3	58		 pop	 eax
  000f4	5a		 pop	 edx
  000f5	5f		 pop	 edi
  000f6	5e		 pop	 esi
  000f7	5b		 pop	 ebx
  000f8	8b 4d fc	 mov	 ecx, DWORD PTR __$ArrayPad$[ebp]
  000fb	33 cd		 xor	 ecx, ebp
  000fd	e8 00 00 00 00	 call	 @__security_check_cookie@4
  00102	81 c4 34 01 00
	00		 add	 esp, 308		; 00000134H
  00108	3b ec		 cmp	 ebp, esp
  0010a	e8 00 00 00 00	 call	 __RTC_CheckEsp
  0010f	8b e5		 mov	 esp, ebp
  00111	5d		 pop	 ebp
  00112	c3		 ret	 0
  00113	90		 npad	 1
$LN7@BPQOpenSer:
  00114	01 00 00 00	 DD	 1
  00118	00 00 00 00	 DD	 $LN6@BPQOpenSer
$LN6@BPQOpenSer:
  0011c	a8 ff ff ff	 DD	 -88			; ffffffa8H
  00120	50 00 00 00	 DD	 80			; 00000050H
  00124	00 00 00 00	 DD	 $LN5@BPQOpenSer
$LN5@BPQOpenSer:
  00128	73		 DB	 115			; 00000073H
  00129	7a		 DB	 122			; 0000007aH
  0012a	50		 DB	 80			; 00000050H
  0012b	6f		 DB	 111			; 0000006fH
  0012c	72		 DB	 114			; 00000072H
  0012d	74		 DB	 116			; 00000074H
  0012e	00		 DB	 0
_BPQOpenSerialPort ENDP
_TEXT	ENDS
PUBLIC	__$ArrayPad$
PUBLIC	_SerialSendData
EXTRN	__imp__WriteFile@20:PROC
; Function compile flags: /Odtp /RTCsu /ZI
;	COMDAT _SerialSendData
_TEXT	SEGMENT
_Length$ = -2068					; size = 4
_c$ = -2053						; size = 1
_ptr2$ = -2044						; size = 4
_ptr1$ = -2032						; size = 4
_NewMessage$ = -2020					; size = 2000
_bytesReturned$ = -12					; size = 4
__$ArrayPad$ = -4					; size = 4
_Message$ = 8						; size = 4
_MsgLen$ = 12						; size = 4
_SerialSendData PROC					; COMDAT

; 174  : {

  00000	55		 push	 ebp
  00001	8b ec		 mov	 ebp, esp
  00003	81 ec d8 08 00
	00		 sub	 esp, 2264		; 000008d8H
  00009	53		 push	 ebx
  0000a	56		 push	 esi
  0000b	57		 push	 edi
  0000c	8d bd 28 f7 ff
	ff		 lea	 edi, DWORD PTR [ebp-2264]
  00012	b9 36 02 00 00	 mov	 ecx, 566		; 00000236H
  00017	b8 cc cc cc cc	 mov	 eax, -858993460		; ccccccccH
  0001c	f3 ab		 rep stosd
  0001e	a1 00 00 00 00	 mov	 eax, DWORD PTR ___security_cookie
  00023	33 c5		 xor	 eax, ebp
  00025	89 45 fc	 mov	 DWORD PTR __$ArrayPad$[ebp], eax

; 175  : 	unsigned long bytesReturned;
; 176  : 	
; 177  : 	// Have to escape all oxff chars, as these are used to get status info 
; 178  : 
; 179  : 	UCHAR NewMessage[2000];
; 180  : 	UCHAR * ptr1 = Message;

  00028	8b 45 08	 mov	 eax, DWORD PTR _Message$[ebp]
  0002b	89 85 10 f8 ff
	ff		 mov	 DWORD PTR _ptr1$[ebp], eax

; 181  : 	UCHAR * ptr2 = NewMessage;

  00031	8d 85 1c f8 ff
	ff		 lea	 eax, DWORD PTR _NewMessage$[ebp]
  00037	89 85 04 f8 ff
	ff		 mov	 DWORD PTR _ptr2$[ebp], eax

; 182  : 	UCHAR c;
; 183  : 
; 184  : 	int Length = MsgLen;

  0003d	8b 45 0c	 mov	 eax, DWORD PTR _MsgLen$[ebp]
  00040	89 85 ec f7 ff
	ff		 mov	 DWORD PTR _Length$[ebp], eax
$LN3@SerialSend:

; 185  : 
; 186  : 	while (Length != 0)

  00046	83 bd ec f7 ff
	ff 00		 cmp	 DWORD PTR _Length$[ebp], 0
  0004d	0f 84 82 00 00
	00		 je	 $LN2@SerialSend

; 187  : 	{
; 188  : 		c = *(ptr1++);

  00053	8b 85 10 f8 ff
	ff		 mov	 eax, DWORD PTR _ptr1$[ebp]
  00059	8a 08		 mov	 cl, BYTE PTR [eax]
  0005b	88 8d fb f7 ff
	ff		 mov	 BYTE PTR _c$[ebp], cl
  00061	8b 95 10 f8 ff
	ff		 mov	 edx, DWORD PTR _ptr1$[ebp]
  00067	83 c2 01	 add	 edx, 1
  0006a	89 95 10 f8 ff
	ff		 mov	 DWORD PTR _ptr1$[ebp], edx

; 189  : 		*(ptr2++) = c;

  00070	8b 85 04 f8 ff
	ff		 mov	 eax, DWORD PTR _ptr2$[ebp]
  00076	8a 8d fb f7 ff
	ff		 mov	 cl, BYTE PTR _c$[ebp]
  0007c	88 08		 mov	 BYTE PTR [eax], cl
  0007e	8b 95 04 f8 ff
	ff		 mov	 edx, DWORD PTR _ptr2$[ebp]
  00084	83 c2 01	 add	 edx, 1
  00087	89 95 04 f8 ff
	ff		 mov	 DWORD PTR _ptr2$[ebp], edx

; 190  : 
; 191  : 		if (c == 0xff)

  0008d	0f b6 85 fb f7
	ff ff		 movzx	 eax, BYTE PTR _c$[ebp]
  00094	3d ff 00 00 00	 cmp	 eax, 255		; 000000ffH
  00099	75 26		 jne	 SHORT $LN1@SerialSend

; 192  : 		{
; 193  : 			*(ptr2++) = c;

  0009b	8b 85 04 f8 ff
	ff		 mov	 eax, DWORD PTR _ptr2$[ebp]
  000a1	8a 8d fb f7 ff
	ff		 mov	 cl, BYTE PTR _c$[ebp]
  000a7	88 08		 mov	 BYTE PTR [eax], cl
  000a9	8b 95 04 f8 ff
	ff		 mov	 edx, DWORD PTR _ptr2$[ebp]
  000af	83 c2 01	 add	 edx, 1
  000b2	89 95 04 f8 ff
	ff		 mov	 DWORD PTR _ptr2$[ebp], edx

; 194  : 			MsgLen++;

  000b8	8b 45 0c	 mov	 eax, DWORD PTR _MsgLen$[ebp]
  000bb	83 c0 01	 add	 eax, 1
  000be	89 45 0c	 mov	 DWORD PTR _MsgLen$[ebp], eax
$LN1@SerialSend:

; 195  : 		}
; 196  : 		Length--;

  000c1	8b 85 ec f7 ff
	ff		 mov	 eax, DWORD PTR _Length$[ebp]
  000c7	83 e8 01	 sub	 eax, 1
  000ca	89 85 ec f7 ff
	ff		 mov	 DWORD PTR _Length$[ebp], eax

; 197  : 	}

  000d0	e9 71 ff ff ff	 jmp	 $LN3@SerialSend
$LN2@SerialSend:

; 198  : 
; 199  : 	return WriteFile(hDevice, NewMessage, MsgLen, &bytesReturned, NULL);

  000d5	8b f4		 mov	 esi, esp
  000d7	6a 00		 push	 0
  000d9	8d 45 f4	 lea	 eax, DWORD PTR _bytesReturned$[ebp]
  000dc	50		 push	 eax
  000dd	8b 4d 0c	 mov	 ecx, DWORD PTR _MsgLen$[ebp]
  000e0	51		 push	 ecx
  000e1	8d 95 1c f8 ff
	ff		 lea	 edx, DWORD PTR _NewMessage$[ebp]
  000e7	52		 push	 edx
  000e8	a1 00 00 00 00	 mov	 eax, DWORD PTR _hDevice
  000ed	50		 push	 eax
  000ee	ff 15 00 00 00
	00		 call	 DWORD PTR __imp__WriteFile@20
  000f4	3b f4		 cmp	 esi, esp
  000f6	e8 00 00 00 00	 call	 __RTC_CheckEsp

; 200  : }

  000fb	52		 push	 edx
  000fc	8b cd		 mov	 ecx, ebp
  000fe	50		 push	 eax
  000ff	8d 15 00 00 00
	00		 lea	 edx, DWORD PTR $LN9@SerialSend
  00105	e8 00 00 00 00	 call	 @_RTC_CheckStackVars@8
  0010a	58		 pop	 eax
  0010b	5a		 pop	 edx
  0010c	5f		 pop	 edi
  0010d	5e		 pop	 esi
  0010e	5b		 pop	 ebx
  0010f	8b 4d fc	 mov	 ecx, DWORD PTR __$ArrayPad$[ebp]
  00112	33 cd		 xor	 ecx, ebp
  00114	e8 00 00 00 00	 call	 @__security_check_cookie@4
  00119	81 c4 d8 08 00
	00		 add	 esp, 2264		; 000008d8H
  0011f	3b ec		 cmp	 ebp, esp
  00121	e8 00 00 00 00	 call	 __RTC_CheckEsp
  00126	8b e5		 mov	 esp, ebp
  00128	5d		 pop	 ebp
  00129	c3		 ret	 0
  0012a	8b ff		 npad	 2
$LN9@SerialSend:
  0012c	02 00 00 00	 DD	 2
  00130	00 00 00 00	 DD	 $LN8@SerialSend
$LN8@SerialSend:
  00134	f4 ff ff ff	 DD	 -12			; fffffff4H
  00138	04 00 00 00	 DD	 4
  0013c	00 00 00 00	 DD	 $LN6@SerialSend
  00140	1c f8 ff ff	 DD	 -2020			; fffff81cH
  00144	d0 07 00 00	 DD	 2000			; 000007d0H
  00148	00 00 00 00	 DD	 $LN7@SerialSend
$LN7@SerialSend:
  0014c	4e		 DB	 78			; 0000004eH
  0014d	65		 DB	 101			; 00000065H
  0014e	77		 DB	 119			; 00000077H
  0014f	4d		 DB	 77			; 0000004dH
  00150	65		 DB	 101			; 00000065H
  00151	73		 DB	 115			; 00000073H
  00152	73		 DB	 115			; 00000073H
  00153	61		 DB	 97			; 00000061H
  00154	67		 DB	 103			; 00000067H
  00155	65		 DB	 101			; 00000065H
  00156	00		 DB	 0
$LN6@SerialSend:
  00157	62		 DB	 98			; 00000062H
  00158	79		 DB	 121			; 00000079H
  00159	74		 DB	 116			; 00000074H
  0015a	65		 DB	 101			; 00000065H
  0015b	73		 DB	 115			; 00000073H
  0015c	52		 DB	 82			; 00000052H
  0015d	65		 DB	 101			; 00000065H
  0015e	74		 DB	 116			; 00000074H
  0015f	75		 DB	 117			; 00000075H
  00160	72		 DB	 114			; 00000072H
  00161	6e		 DB	 110			; 0000006eH
  00162	65		 DB	 101			; 00000065H
  00163	64		 DB	 100			; 00000064H
  00164	00		 DB	 0
_SerialSendData ENDP
_TEXT	ENDS
PUBLIC	_BPQSerialGetData
EXTRN	__imp__ReadFile@20:PROC
EXTRN	__imp__CloseHandle@4:PROC
EXTRN	__imp__PeekNamedPipe@24:PROC
; Function compile flags: /Odtp /RTCsu /ZI
;	COMDAT _BPQSerialGetData
_TEXT	SEGMENT
_c$26746 = -89						; size = 1
_ptr2$26745 = -80					; size = 4
_ptr1$26744 = -68					; size = 4
_ret$ = -56						; size = 4
_RealLen$ = -44						; size = 4
_Length$ = -32						; size = 4
_Available$ = -20					; size = 4
_dwLength$ = -8						; size = 4
_Message$ = 8						; size = 4
_BufLen$ = 12						; size = 4
_MsgLen$ = 16						; size = 4
_BPQSerialGetData PROC					; COMDAT

; 203  : {

  00000	55		 push	 ebp
  00001	8b ec		 mov	 ebp, esp
  00003	81 ec 20 01 00
	00		 sub	 esp, 288		; 00000120H
  00009	53		 push	 ebx
  0000a	56		 push	 esi
  0000b	57		 push	 edi
  0000c	8d bd e0 fe ff
	ff		 lea	 edi, DWORD PTR [ebp-288]
  00012	b9 48 00 00 00	 mov	 ecx, 72			; 00000048H
  00017	b8 cc cc cc cc	 mov	 eax, -858993460		; ccccccccH
  0001c	f3 ab		 rep stosd

; 204  : 	DWORD dwLength = 0;

  0001e	c7 45 f8 00 00
	00 00		 mov	 DWORD PTR _dwLength$[ebp], 0

; 205  : 	DWORD Available = 0;

  00025	c7 45 ec 00 00
	00 00		 mov	 DWORD PTR _Available$[ebp], 0

; 206  : 	int Length, RealLen = 0;

  0002c	c7 45 d4 00 00
	00 00		 mov	 DWORD PTR _RealLen$[ebp], 0

; 207  : 	
; 208  : 	int ret = PeekNamedPipe(hDevice, NULL, 0, NULL, &Available, NULL);

  00033	8b f4		 mov	 esi, esp
  00035	6a 00		 push	 0
  00037	8d 45 ec	 lea	 eax, DWORD PTR _Available$[ebp]
  0003a	50		 push	 eax
  0003b	6a 00		 push	 0
  0003d	6a 00		 push	 0
  0003f	6a 00		 push	 0
  00041	8b 0d 00 00 00
	00		 mov	 ecx, DWORD PTR _hDevice
  00047	51		 push	 ecx
  00048	ff 15 00 00 00
	00		 call	 DWORD PTR __imp__PeekNamedPipe@24
  0004e	3b f4		 cmp	 esi, esp
  00050	e8 00 00 00 00	 call	 __RTC_CheckEsp
  00055	89 45 c8	 mov	 DWORD PTR _ret$[ebp], eax

; 209  : 
; 210  : 	if (ret == 0)

  00058	83 7d c8 00	 cmp	 DWORD PTR _ret$[ebp], 0
  0005c	75 3e		 jne	 SHORT $LN9@BPQSerialG

; 211  : 	{
; 212  : 		ret = GetLastError();

  0005e	8b f4		 mov	 esi, esp
  00060	ff 15 00 00 00
	00		 call	 DWORD PTR __imp__GetLastError@0
  00066	3b f4		 cmp	 esi, esp
  00068	e8 00 00 00 00	 call	 __RTC_CheckEsp
  0006d	89 45 c8	 mov	 DWORD PTR _ret$[ebp], eax

; 213  : 
; 214  : 		if (ret == ERROR_BROKEN_PIPE)

  00070	83 7d c8 6d	 cmp	 DWORD PTR _ret$[ebp], 109 ; 0000006dH
  00074	75 26		 jne	 SHORT $LN9@BPQSerialG

; 215  : 		{
; 216  : 			CloseHandle(hDevice);

  00076	8b f4		 mov	 esi, esp
  00078	a1 00 00 00 00	 mov	 eax, DWORD PTR _hDevice
  0007d	50		 push	 eax
  0007e	ff 15 00 00 00
	00		 call	 DWORD PTR __imp__CloseHandle@4
  00084	3b f4		 cmp	 esi, esp
  00086	e8 00 00 00 00	 call	 __RTC_CheckEsp

; 217  : 			hDevice = INVALID_HANDLE_VALUE;

  0008b	c7 05 00 00 00
	00 ff ff ff ff	 mov	 DWORD PTR _hDevice, -1

; 218  : 			return 0;

  00095	33 c0		 xor	 eax, eax
  00097	e9 d6 00 00 00	 jmp	 $LN10@BPQSerialG
$LN9@BPQSerialG:

; 219  : 		}
; 220  : 	}
; 221  : 
; 222  : 	if (Available > BufLen)

  0009c	8b 45 ec	 mov	 eax, DWORD PTR _Available$[ebp]
  0009f	3b 45 0c	 cmp	 eax, DWORD PTR _BufLen$[ebp]
  000a2	76 06		 jbe	 SHORT $LN7@BPQSerialG

; 223  : 		Available = BufLen;

  000a4	8b 45 0c	 mov	 eax, DWORD PTR _BufLen$[ebp]
  000a7	89 45 ec	 mov	 DWORD PTR _Available$[ebp], eax
$LN7@BPQSerialG:

; 224  : 		
; 225  : 	if (Available)

  000aa	83 7d ec 00	 cmp	 DWORD PTR _Available$[ebp], 0
  000ae	0f 84 b4 00 00
	00		 je	 $LN6@BPQSerialG

; 226  : 	{
; 227  : 		UCHAR * ptr1 = Message;

  000b4	8b 45 08	 mov	 eax, DWORD PTR _Message$[ebp]
  000b7	89 45 bc	 mov	 DWORD PTR _ptr1$26744[ebp], eax

; 228  : 		UCHAR * ptr2 = Message;

  000ba	8b 45 08	 mov	 eax, DWORD PTR _Message$[ebp]
  000bd	89 45 b0	 mov	 DWORD PTR _ptr2$26745[ebp], eax

; 229  : 		UCHAR c;
; 230  : 			
; 231  : 		ReadFile(hDevice, Message, Available, &Length, NULL);

  000c0	8b f4		 mov	 esi, esp
  000c2	6a 00		 push	 0
  000c4	8d 45 e0	 lea	 eax, DWORD PTR _Length$[ebp]
  000c7	50		 push	 eax
  000c8	8b 4d ec	 mov	 ecx, DWORD PTR _Available$[ebp]
  000cb	51		 push	 ecx
  000cc	8b 55 08	 mov	 edx, DWORD PTR _Message$[ebp]
  000cf	52		 push	 edx
  000d0	a1 00 00 00 00	 mov	 eax, DWORD PTR _hDevice
  000d5	50		 push	 eax
  000d6	ff 15 00 00 00
	00		 call	 DWORD PTR __imp__ReadFile@20
  000dc	3b f4		 cmp	 esi, esp
  000de	e8 00 00 00 00	 call	 __RTC_CheckEsp

; 232  : 
; 233  : 		// Have to look for FF escape chars
; 234  : 
; 235  : 		RealLen = Length;

  000e3	8b 45 e0	 mov	 eax, DWORD PTR _Length$[ebp]
  000e6	89 45 d4	 mov	 DWORD PTR _RealLen$[ebp], eax
$LN5@BPQSerialG:

; 236  : 
; 237  : 		while (Length != 0)

  000e9	83 7d e0 00	 cmp	 DWORD PTR _Length$[ebp], 0
  000ed	74 79		 je	 SHORT $LN6@BPQSerialG

; 238  : 		{
; 239  : 			c = *(ptr1++);

  000ef	8b 45 bc	 mov	 eax, DWORD PTR _ptr1$26744[ebp]
  000f2	8a 08		 mov	 cl, BYTE PTR [eax]
  000f4	88 4d a7	 mov	 BYTE PTR _c$26746[ebp], cl
  000f7	8b 55 bc	 mov	 edx, DWORD PTR _ptr1$26744[ebp]
  000fa	83 c2 01	 add	 edx, 1
  000fd	89 55 bc	 mov	 DWORD PTR _ptr1$26744[ebp], edx

; 240  : 			Length--;

  00100	8b 45 e0	 mov	 eax, DWORD PTR _Length$[ebp]
  00103	83 e8 01	 sub	 eax, 1
  00106	89 45 e0	 mov	 DWORD PTR _Length$[ebp], eax

; 241  : 
; 242  : 			if (c == 0xff)

  00109	0f b6 45 a7	 movzx	 eax, BYTE PTR _c$26746[ebp]
  0010d	3d ff 00 00 00	 cmp	 eax, 255		; 000000ffH
  00112	75 41		 jne	 SHORT $LN3@BPQSerialG

; 243  : 			{
; 244  : 				c = c = *(ptr1++);

  00114	8b 45 bc	 mov	 eax, DWORD PTR _ptr1$26744[ebp]
  00117	8a 08		 mov	 cl, BYTE PTR [eax]
  00119	88 4d a7	 mov	 BYTE PTR _c$26746[ebp], cl
  0011c	8a 55 a7	 mov	 dl, BYTE PTR _c$26746[ebp]
  0011f	88 55 a7	 mov	 BYTE PTR _c$26746[ebp], dl
  00122	8b 45 bc	 mov	 eax, DWORD PTR _ptr1$26744[ebp]
  00125	83 c0 01	 add	 eax, 1
  00128	89 45 bc	 mov	 DWORD PTR _ptr1$26744[ebp], eax

; 245  : 				Length--;

  0012b	8b 45 e0	 mov	 eax, DWORD PTR _Length$[ebp]
  0012e	83 e8 01	 sub	 eax, 1
  00131	89 45 e0	 mov	 DWORD PTR _Length$[ebp], eax

; 246  : 					
; 247  : 				if (c == 0xff)			// ff ff means ff

  00134	0f b6 45 a7	 movzx	 eax, BYTE PTR _c$26746[ebp]
  00138	3d ff 00 00 00	 cmp	 eax, 255		; 000000ffH
  0013d	75 0b		 jne	 SHORT $LN2@BPQSerialG

; 248  : 				{
; 249  : 					RealLen--;

  0013f	8b 45 d4	 mov	 eax, DWORD PTR _RealLen$[ebp]
  00142	83 e8 01	 sub	 eax, 1
  00145	89 45 d4	 mov	 DWORD PTR _RealLen$[ebp], eax

; 250  : 				}
; 251  : 				else

  00148	eb 0b		 jmp	 SHORT $LN3@BPQSerialG
$LN2@BPQSerialG:

; 252  : 				{
; 253  : 					// This is connection statua from other end
; 254  : 
; 255  : 					RealLen -= 2;

  0014a	8b 45 d4	 mov	 eax, DWORD PTR _RealLen$[ebp]
  0014d	83 e8 02	 sub	 eax, 2
  00150	89 45 d4	 mov	 DWORD PTR _RealLen$[ebp], eax

; 256  : //					PortEnabled = c;
; 257  : 					continue;

  00153	eb 94		 jmp	 SHORT $LN5@BPQSerialG
$LN3@BPQSerialG:

; 258  : 				}
; 259  : 			}
; 260  : 			*(ptr2++) = c;

  00155	8b 45 b0	 mov	 eax, DWORD PTR _ptr2$26745[ebp]
  00158	8a 4d a7	 mov	 cl, BYTE PTR _c$26746[ebp]
  0015b	88 08		 mov	 BYTE PTR [eax], cl
  0015d	8b 55 b0	 mov	 edx, DWORD PTR _ptr2$26745[ebp]
  00160	83 c2 01	 add	 edx, 1
  00163	89 55 b0	 mov	 DWORD PTR _ptr2$26745[ebp], edx

; 261  : 		}

  00166	eb 81		 jmp	 SHORT $LN5@BPQSerialG
$LN6@BPQSerialG:

; 262  : 	}
; 263  : 	*MsgLen = RealLen;

  00168	8b 45 10	 mov	 eax, DWORD PTR _MsgLen$[ebp]
  0016b	8b 4d d4	 mov	 ecx, DWORD PTR _RealLen$[ebp]
  0016e	89 08		 mov	 DWORD PTR [eax], ecx

; 264  : 	return 0;

  00170	33 c0		 xor	 eax, eax
$LN10@BPQSerialG:

; 265  : }

  00172	52		 push	 edx
  00173	8b cd		 mov	 ecx, ebp
  00175	50		 push	 eax
  00176	8d 15 00 00 00
	00		 lea	 edx, DWORD PTR $LN16@BPQSerialG
  0017c	e8 00 00 00 00	 call	 @_RTC_CheckStackVars@8
  00181	58		 pop	 eax
  00182	5a		 pop	 edx
  00183	5f		 pop	 edi
  00184	5e		 pop	 esi
  00185	5b		 pop	 ebx
  00186	81 c4 20 01 00
	00		 add	 esp, 288		; 00000120H
  0018c	3b ec		 cmp	 ebp, esp
  0018e	e8 00 00 00 00	 call	 __RTC_CheckEsp
  00193	8b e5		 mov	 esp, ebp
  00195	5d		 pop	 ebp
  00196	c3		 ret	 0
  00197	90		 npad	 1
$LN16@BPQSerialG:
  00198	02 00 00 00	 DD	 2
  0019c	00 00 00 00	 DD	 $LN15@BPQSerialG
$LN15@BPQSerialG:
  001a0	ec ff ff ff	 DD	 -20			; ffffffecH
  001a4	04 00 00 00	 DD	 4
  001a8	00 00 00 00	 DD	 $LN13@BPQSerialG
  001ac	e0 ff ff ff	 DD	 -32			; ffffffe0H
  001b0	04 00 00 00	 DD	 4
  001b4	00 00 00 00	 DD	 $LN14@BPQSerialG
$LN14@BPQSerialG:
  001b8	4c		 DB	 76			; 0000004cH
  001b9	65		 DB	 101			; 00000065H
  001ba	6e		 DB	 110			; 0000006eH
  001bb	67		 DB	 103			; 00000067H
  001bc	74		 DB	 116			; 00000074H
  001bd	68		 DB	 104			; 00000068H
  001be	00		 DB	 0
$LN13@BPQSerialG:
  001bf	41		 DB	 65			; 00000041H
  001c0	76		 DB	 118			; 00000076H
  001c1	61		 DB	 97			; 00000061H
  001c2	69		 DB	 105			; 00000069H
  001c3	6c		 DB	 108			; 0000006cH
  001c4	61		 DB	 97			; 00000061H
  001c5	62		 DB	 98			; 00000062H
  001c6	6c		 DB	 108			; 0000006cH
  001c7	65		 DB	 101			; 00000065H
  001c8	00		 DB	 0
_BPQSerialGetData ENDP
_TEXT	ENDS
PUBLIC	_PutString
EXTRN	_strlen:PROC
; Function compile flags: /Odtp /RTCsu /ZI
;	COMDAT _PutString
_TEXT	SEGMENT
_Msg$ = 8						; size = 4
_PutString PROC						; COMDAT

; 270  : {

  00000	55		 push	 ebp
  00001	8b ec		 mov	 ebp, esp
  00003	81 ec c0 00 00
	00		 sub	 esp, 192		; 000000c0H
  00009	53		 push	 ebx
  0000a	56		 push	 esi
  0000b	57		 push	 edi
  0000c	8d bd 40 ff ff
	ff		 lea	 edi, DWORD PTR [ebp-192]
  00012	b9 30 00 00 00	 mov	 ecx, 48			; 00000030H
  00017	b8 cc cc cc cc	 mov	 eax, -858993460		; ccccccccH
  0001c	f3 ab		 rep stosd

; 271  : 	WriteDebugLog(7, Msg);

  0001e	8b 45 08	 mov	 eax, DWORD PTR _Msg$[ebp]
  00021	50		 push	 eax
  00022	6a 07		 push	 7
  00024	e8 00 00 00 00	 call	 _WriteDebugLog
  00029	83 c4 08	 add	 esp, 8

; 272  : 	SerialSendData(Msg, strlen(Msg));

  0002c	8b 45 08	 mov	 eax, DWORD PTR _Msg$[ebp]
  0002f	50		 push	 eax
  00030	e8 00 00 00 00	 call	 _strlen
  00035	83 c4 04	 add	 esp, 4
  00038	50		 push	 eax
  00039	8b 4d 08	 mov	 ecx, DWORD PTR _Msg$[ebp]
  0003c	51		 push	 ecx
  0003d	e8 00 00 00 00	 call	 _SerialSendData
  00042	83 c4 08	 add	 esp, 8

; 273  : }

  00045	5f		 pop	 edi
  00046	5e		 pop	 esi
  00047	5b		 pop	 ebx
  00048	81 c4 c0 00 00
	00		 add	 esp, 192		; 000000c0H
  0004e	3b ec		 cmp	 ebp, esp
  00050	e8 00 00 00 00	 call	 __RTC_CheckEsp
  00055	8b e5		 mov	 esp, ebp
  00057	5d		 pop	 ebp
  00058	c3		 ret	 0
_PutString ENDP
_TEXT	ENDS
PUBLIC	_PutChar
; Function compile flags: /Odtp /RTCsu /ZI
;	COMDAT _PutChar
_TEXT	SEGMENT
_c$ = 8							; size = 1
_PutChar PROC						; COMDAT

; 276  : {

  00000	55		 push	 ebp
  00001	8b ec		 mov	 ebp, esp
  00003	81 ec c0 00 00
	00		 sub	 esp, 192		; 000000c0H
  00009	53		 push	 ebx
  0000a	56		 push	 esi
  0000b	57		 push	 edi
  0000c	8d bd 40 ff ff
	ff		 lea	 edi, DWORD PTR [ebp-192]
  00012	b9 30 00 00 00	 mov	 ecx, 48			; 00000030H
  00017	b8 cc cc cc cc	 mov	 eax, -858993460		; ccccccccH
  0001c	f3 ab		 rep stosd

; 277  : 	SerialSendData(&c, 1);

  0001e	6a 01		 push	 1
  00020	8d 45 08	 lea	 eax, DWORD PTR _c$[ebp]
  00023	50		 push	 eax
  00024	e8 00 00 00 00	 call	 _SerialSendData
  00029	83 c4 08	 add	 esp, 8

; 278  : 	return 0;

  0002c	33 c0		 xor	 eax, eax

; 279  : }

  0002e	5f		 pop	 edi
  0002f	5e		 pop	 esi
  00030	5b		 pop	 ebx
  00031	81 c4 c0 00 00
	00		 add	 esp, 192		; 000000c0H
  00037	3b ec		 cmp	 ebp, esp
  00039	e8 00 00 00 00	 call	 __RTC_CheckEsp
  0003e	8b e5		 mov	 esp, ebp
  00040	5d		 pop	 ebp
  00041	c3		 ret	 0
_PutChar ENDP
_TEXT	ENDS
PUBLIC	??_C@_0CC@HIJMGLJK@ARDOPC?5Open?5Failed?5for?5Port?5com?$CF@ ; `string'
PUBLIC	??_C@_0BJ@FLLNAJHM@ARDOPC?5opened?5port?5com?$CFd?$AA@ ; `string'
PUBLIC	_HostInit
EXTRN	_strlop:PROC
;	COMDAT ??_C@_0CC@HIJMGLJK@ARDOPC?5Open?5Failed?5for?5Port?5com?$CF@
CONST	SEGMENT
??_C@_0CC@HIJMGLJK@ARDOPC?5Open?5Failed?5for?5Port?5com?$CF@ DB 'ARDOPC O'
	DB	'pen Failed for Port com%d', 00H		; `string'
CONST	ENDS
;	COMDAT ??_C@_0BJ@FLLNAJHM@ARDOPC?5opened?5port?5com?$CFd?$AA@
CONST	SEGMENT
??_C@_0BJ@FLLNAJHM@ARDOPC?5opened?5port?5com?$CFd?$AA@ DB 'ARDOPC opened '
	DB	'port com%d', 00H				; `string'
; Function compile flags: /Odtp /RTCsu /ZI
CONST	ENDS
;	COMDAT _HostInit
_TEXT	SEGMENT
_Baud$ = -32						; size = 4
_Errorval$ = -20					; size = 4
_OpenCount$ = -8					; size = 4
_HostInit PROC						; COMDAT

; 283  : {

  00000	55		 push	 ebp
  00001	8b ec		 mov	 ebp, esp
  00003	81 ec e4 00 00
	00		 sub	 esp, 228		; 000000e4H
  00009	53		 push	 ebx
  0000a	56		 push	 esi
  0000b	57		 push	 edi
  0000c	8d bd 1c ff ff
	ff		 lea	 edi, DWORD PTR [ebp-228]
  00012	b9 39 00 00 00	 mov	 ecx, 57			; 00000039H
  00017	b8 cc cc cc cc	 mov	 eax, -858993460		; ccccccccH
  0001c	f3 ab		 rep stosd

; 284  : 	unsigned long OpenCount = 0;

  0001e	c7 45 f8 00 00
	00 00		 mov	 DWORD PTR _OpenCount$[ebp], 0

; 285  : 	unsigned int Errorval;
; 286  : 	char * Baud = strlop(PORTNAME, ',');

  00025	6a 2c		 push	 44			; 0000002cH
  00027	68 00 00 00 00	 push	 OFFSET _PORTNAME
  0002c	e8 00 00 00 00	 call	 _strlop
  00031	83 c4 08	 add	 esp, 8
  00034	89 45 e0	 mov	 DWORD PTR _Baud$[ebp], eax

; 287  : 
; 288  : 	VCOM = TRUE;

  00037	c7 05 00 00 00
	00 01 00 00 00	 mov	 DWORD PTR _VCOM, 1

; 289  : 
; 290  : 	hDevice = BPQOpenSerialPort(&Errorval);

  00041	8d 45 ec	 lea	 eax, DWORD PTR _Errorval$[ebp]
  00044	50		 push	 eax
  00045	e8 00 00 00 00	 call	 _BPQOpenSerialPort
  0004a	83 c4 04	 add	 esp, 4
  0004d	a3 00 00 00 00	 mov	 DWORD PTR _hDevice, eax

; 291  : 
; 292  : 	if (hDevice != (HANDLE) -1)

  00052	83 3d 00 00 00
	00 ff		 cmp	 DWORD PTR _hDevice, -1
  00059	74 17		 je	 SHORT $LN2@HostInit

; 293  : 		WriteDebugLog(LOGALERT, "ARDOPC opened port com%d", port);

  0005b	a1 00 00 00 00	 mov	 eax, DWORD PTR _port
  00060	50		 push	 eax
  00061	68 00 00 00 00	 push	 OFFSET ??_C@_0BJ@FLLNAJHM@ARDOPC?5opened?5port?5com?$CFd?$AA@
  00066	6a 01		 push	 1
  00068	e8 00 00 00 00	 call	 _WriteDebugLog
  0006d	83 c4 0c	 add	 esp, 12			; 0000000cH

; 294  : 	else

  00070	eb 1f		 jmp	 SHORT $LN1@HostInit
$LN2@HostInit:

; 295  : 	{
; 296  : 		WriteDebugLog(LOGALERT, "ARDOPC Open Failed for Port com%d", port);

  00072	a1 00 00 00 00	 mov	 eax, DWORD PTR _port
  00077	50		 push	 eax
  00078	68 00 00 00 00	 push	 OFFSET ??_C@_0CC@HIJMGLJK@ARDOPC?5Open?5Failed?5for?5Port?5com?$CF@
  0007d	6a 01		 push	 1
  0007f	e8 00 00 00 00	 call	 _WriteDebugLog
  00084	83 c4 0c	 add	 esp, 12			; 0000000cH

; 297  : 		hDevice = 0;

  00087	c7 05 00 00 00
	00 00 00 00 00	 mov	 DWORD PTR _hDevice, 0
$LN1@HostInit:

; 298  : 	}
; 299  : 	return TRUE;

  00091	b8 01 00 00 00	 mov	 eax, 1

; 300  : }

  00096	52		 push	 edx
  00097	8b cd		 mov	 ecx, ebp
  00099	50		 push	 eax
  0009a	8d 15 00 00 00
	00		 lea	 edx, DWORD PTR $LN7@HostInit
  000a0	e8 00 00 00 00	 call	 @_RTC_CheckStackVars@8
  000a5	58		 pop	 eax
  000a6	5a		 pop	 edx
  000a7	5f		 pop	 edi
  000a8	5e		 pop	 esi
  000a9	5b		 pop	 ebx
  000aa	81 c4 e4 00 00
	00		 add	 esp, 228		; 000000e4H
  000b0	3b ec		 cmp	 ebp, esp
  000b2	e8 00 00 00 00	 call	 __RTC_CheckEsp
  000b7	8b e5		 mov	 esp, ebp
  000b9	5d		 pop	 ebp
  000ba	c3		 ret	 0
  000bb	90		 npad	 1
$LN7@HostInit:
  000bc	01 00 00 00	 DD	 1
  000c0	00 00 00 00	 DD	 $LN6@HostInit
$LN6@HostInit:
  000c4	ec ff ff ff	 DD	 -20			; ffffffecH
  000c8	04 00 00 00	 DD	 4
  000cc	00 00 00 00	 DD	 $LN5@HostInit
$LN5@HostInit:
  000d0	45		 DB	 69			; 00000045H
  000d1	72		 DB	 114			; 00000072H
  000d2	72		 DB	 114			; 00000072H
  000d3	6f		 DB	 111			; 0000006fH
  000d4	72		 DB	 114			; 00000072H
  000d5	76		 DB	 118			; 00000076H
  000d6	61		 DB	 97			; 00000061H
  000d7	6c		 DB	 108			; 0000006cH
  000d8	00		 DB	 0
_HostInit ENDP
_TEXT	ENDS
PUBLIC	_HostPoll
EXTRN	_ProcessSCSPacket:PROC
; Function compile flags: /Odtp /RTCsu /ZI
;	COMDAT _HostPoll
_TEXT	SEGMENT
_Read$ = -20						; size = 4
_n$ = -8						; size = 4
_HostPoll PROC						; COMDAT

; 306  : {

  00000	55		 push	 ebp
  00001	8b ec		 mov	 ebp, esp
  00003	81 ec d8 00 00
	00		 sub	 esp, 216		; 000000d8H
  00009	53		 push	 ebx
  0000a	56		 push	 esi
  0000b	57		 push	 edi
  0000c	8d bd 28 ff ff
	ff		 lea	 edi, DWORD PTR [ebp-216]
  00012	b9 36 00 00 00	 mov	 ecx, 54			; 00000036H
  00017	b8 cc cc cc cc	 mov	 eax, -858993460		; ccccccccH
  0001c	f3 ab		 rep stosd

; 307  : 	unsigned int n;
; 308  : 	unsigned long Read = 0;

  0001e	c7 45 ec 00 00
	00 00		 mov	 DWORD PTR _Read$[ebp], 0

; 309  : 
; 310  : 	if (VCOM)

  00025	83 3d 00 00 00
	00 00		 cmp	 DWORD PTR _VCOM, 0
  0002c	74 28		 je	 SHORT $LN2@HostPoll

; 311  : 		n = BPQSerialGetData(&RXBUFFER[RXBPtr], 499 - RXBPtr, &Read);

  0002e	8d 45 ec	 lea	 eax, DWORD PTR _Read$[ebp]
  00031	50		 push	 eax
  00032	b9 f3 01 00 00	 mov	 ecx, 499		; 000001f3H
  00037	2b 0d 00 00 00
	00		 sub	 ecx, DWORD PTR _RXBPtr
  0003d	51		 push	 ecx
  0003e	8b 15 00 00 00
	00		 mov	 edx, DWORD PTR _RXBPtr
  00044	81 c2 00 00 00
	00		 add	 edx, OFFSET _RXBUFFER
  0004a	52		 push	 edx
  0004b	e8 00 00 00 00	 call	 _BPQSerialGetData
  00050	83 c4 0c	 add	 esp, 12			; 0000000cH
  00053	89 45 f8	 mov	 DWORD PTR _n$[ebp], eax
$LN2@HostPoll:

; 312  : 
; 313  : 	if (Read)

  00056	83 7d ec 00	 cmp	 DWORD PTR _Read$[ebp], 0
  0005a	74 20		 je	 SHORT $LN1@HostPoll

; 314  : 	{		
; 315  : 		RXBPtr += Read;

  0005c	a1 00 00 00 00	 mov	 eax, DWORD PTR _RXBPtr
  00061	03 45 ec	 add	 eax, DWORD PTR _Read$[ebp]
  00064	a3 00 00 00 00	 mov	 DWORD PTR _RXBPtr, eax

; 316  : 		ProcessSCSPacket(RXBUFFER, RXBPtr);

  00069	a1 00 00 00 00	 mov	 eax, DWORD PTR _RXBPtr
  0006e	50		 push	 eax
  0006f	68 00 00 00 00	 push	 OFFSET _RXBUFFER
  00074	e8 00 00 00 00	 call	 _ProcessSCSPacket
  00079	83 c4 08	 add	 esp, 8
$LN1@HostPoll:

; 317  : 	}
; 318  : 	n=0;

  0007c	c7 45 f8 00 00
	00 00		 mov	 DWORD PTR _n$[ebp], 0

; 319  : }

  00083	52		 push	 edx
  00084	8b cd		 mov	 ecx, ebp
  00086	50		 push	 eax
  00087	8d 15 00 00 00
	00		 lea	 edx, DWORD PTR $LN7@HostPoll
  0008d	e8 00 00 00 00	 call	 @_RTC_CheckStackVars@8
  00092	58		 pop	 eax
  00093	5a		 pop	 edx
  00094	5f		 pop	 edi
  00095	5e		 pop	 esi
  00096	5b		 pop	 ebx
  00097	81 c4 d8 00 00
	00		 add	 esp, 216		; 000000d8H
  0009d	3b ec		 cmp	 ebp, esp
  0009f	e8 00 00 00 00	 call	 __RTC_CheckEsp
  000a4	8b e5		 mov	 esp, ebp
  000a6	5d		 pop	 ebp
  000a7	c3		 ret	 0
$LN7@HostPoll:
  000a8	01 00 00 00	 DD	 1
  000ac	00 00 00 00	 DD	 $LN6@HostPoll
$LN6@HostPoll:
  000b0	ec ff ff ff	 DD	 -20			; ffffffecH
  000b4	04 00 00 00	 DD	 4
  000b8	00 00 00 00	 DD	 $LN5@HostPoll
$LN5@HostPoll:
  000bc	52		 DB	 82			; 00000052H
  000bd	65		 DB	 101			; 00000065H
  000be	61		 DB	 97			; 00000061H
  000bf	64		 DB	 100			; 00000064H
  000c0	00		 DB	 0
_HostPoll ENDP
_TEXT	ENDS
END
